 ft2

 Timestamp is 5fa2cb05 (Wed Nov 04 10:38:45 2020)

 Preferred load address is 00400000

 Start         Length     Name                   Class
 0001:00000000 00000963H .text$di                CODE
 0001:00000970 0003d078H .text$mn                CODE
 0001:0003d9e8 00000630H .text$yd                CODE
 0002:00000000 0000038cH .idata$5                DATA
 0002:0000038c 00000004H .CRT$XCA                DATA
 0002:00000390 000001e4H .CRT$XCU                DATA
 0002:00000574 00000004H .CRT$XCZ                DATA
 0002:00000578 00000004H .CRT$XIA                DATA
 0002:0000057c 00000014H .CRT$XIC                DATA
 0002:00000590 00000004H .CRT$XIY                DATA
 0002:00000594 00000004H .CRT$XIZ                DATA
 0002:00000598 00000004H .CRT$XPA                DATA
 0002:0000059c 00000008H .CRT$XPX                DATA
 0002:000005a4 00000004H .CRT$XPXA               DATA
 0002:000005a8 00000004H .CRT$XPZ                DATA
 0002:000005ac 00000004H .CRT$XTA                DATA
 0002:000005b0 00000004H .CRT$XTZ                DATA
 0002:000005c0 00009e30H .rdata                  DATA
 0002:0000a3f0 0000024cH .rdata$r                DATA
 0002:0000a640 0000000cH .rdata$sxdata           DATA
 0002:0000a64c 00000004H .rtc$IAA                DATA
 0002:0000a650 00000004H .rtc$IZZ                DATA
 0002:0000a654 00000004H .rtc$TAA                DATA
 0002:0000a658 00000004H .rtc$TZZ                DATA
 0002:0000a660 0000036cH .xdata$x                DATA
 0002:0000a9cc 00000000H .edata                  DATA
 0002:0000a9cc 00000078H .idata$2                DATA
 0002:0000aa44 00000014H .idata$3                DATA
 0002:0000aa58 0000038cH .idata$4                DATA
 0002:0000ade4 00000e16H .idata$6                DATA
 0003:00000000 00004704H .data                   DATA
 0003:00004704 000000e0H .data$r                 DATA
 0003:00004800 0000afa0H .bss                    DATA
 0004:00000000 00000a94H .rsrc$01                DATA
 0004:00000aa0 000062c0H .rsrc$02                DATA

  Address         Publics by Value              Rva+Base       Lib:Object

 0000:00000000       ___guard_fids_count        00000000     <absolute>
 0000:00000000       __except_list              00000000     <absolute>
 0000:00000000       ___guard_flags             00000000     <absolute>
 0000:00000000       ___guard_fids_table        00000000     <absolute>
 0000:00000003       ___safe_se_handler_count   00000003     <absolute>
 0000:00000000       ___ImageBase               00400000     <linker-defined>
 0001:00000970       ??0BIT_CONTROL@@QAE@XZ     00401970 f i ft2.obj
 0001:00000991       ??0DOWN_DATA_CLASS@@QAE@ABV0@@Z 00401991 f i ft2.obj
 0001:000009fe       ??1MACHINE_CLASS@@QAE@XZ   004019fe f i ft2.obj
 0001:00000a5d       ??1PARAMETER_CLASS@@QAE@XZ 00401a5d f i ft2.obj
 0001:00000a95       ??1PARAMETER_ENTRY@@QAE@XZ 00401a95 f i ft2.obj
 0001:00000ac0       ??4FTII_VAR@@UAEXABV0@@Z   00401ac0 f i ft2.obj
 0001:00000ad3       ??4FTII_VAR@@UAEXH@Z       00401ad3 f i ft2.obj
 0001:00000ad3       ??4FTII_VAR@@UAEXI@Z       00401ad3 f i ft2.obj
 0001:00000add       ??_EFTII_VAR_ARRAY@@UAEPAXI@Z 00401add f i ft2.obj
 0001:00000add       ??_GFTII_VAR_ARRAY@@UAEPAXI@Z 00401add f i ft2.obj
 0001:00000c7c       ?alt_step_text@@YAPA_WXZ   00401c7c f   ft2.obj
 0001:00000e1d       ?ascii_volts_to_ft2_volts@@YAPA_WPA_W@Z 00401e1d f   ft2.obj
 0001:00000ed9       ?canexit@@YA_NXZ           00401ed9 f   ft2.obj
 0001:0000125b       ?choose_monitor_machine_dialog_proc@@YGHPAUHWND__@@IIJ@Z 0040225b f   ft2.obj
 0001:000012c5       ?compare_variables_dialog_proc@@YGHPAUHWND__@@IIJ@Z 004022c5 f   ft2.obj
 0001:0000146b       ?control_mods_dialog_proc@@YGHPAUHWND__@@IIJ@Z 0040246b f   ft2.obj
 0001:00002699       ?current_lvdt_feedback_index@@YAHH@Z 00403699 f   ft2.obj
 0001:000026b8       ?current_measured_command_index@@YAIH@Z 004036b8 f   ft2.obj
 0001:000026d7       ?current_values_dialog_proc@@YGHPAUHWND__@@IIJ@Z 004036d7 f   ft2.obj
 0001:00002aba       ?deactivate_control_dialog_proc@@YGHPAUHWND__@@IIJ@Z 00403aba f   ft2.obj
 0001:00002b12       ?delete_file@NAME_CLASS@@QAEEXZ 00403b12 f i ft2.obj
 0001:00002b5c       ?directory_exists@NAME_CLASS@@QAEEXZ 00403b5c f i ft2.obj
 0001:00003fbf       ?do_new_set_null_ascii_data@@YAXJ@Z 00404fbf f   ft2.obj
 0001:000042c3       ?edit_control_proc@@YGJPAUHWND__@@IIJ@Z 004052c3 f   ft2.obj
 0001:0000443a       ?end_upload_flash_dialog@@YAXXZ 0040543a f   ft2.obj
 0001:0000450e       ?fatal_error_string@@YAPA_WH@Z 0040550e f   ft2.obj
 0001:00004543       ?file_exists@NAME_CLASS@@QAEEXZ 00405543 f i ft2.obj
 0001:00004b0e       ?ft2_control_program_name@@YAPA_WHAAVMACHINE_CLASS@@@Z 00405b0e f   ft2.obj
 0001:00004b6d       ?ft2_test_dialog_proc@@YGHPAUHWND__@@IIJ@Z 00405b6d f   ft2.obj
 0001:00004bc5       ?ft2_volts_toascii@@YAPA_WPA_W@Z 00405bc5 f   ft2.obj
 0001:00005247       ?get_help@@YAXXZ           00406247 f   ft2.obj
 0001:000052e2       ?get_hires_sensor_test_config@@YAXPAUHWND__@@@Z 004062e2 f   ft2.obj
 0001:00005495       ?global_parameter_dialog_proc@@YGHPAUHWND__@@IIJ@Z 00406495 f   ft2.obj
 0001:0000559b       ?hires_sensor_test_dialog_proc@@YGHPAUHWND__@@IIJ@Z 0040659b f   ft2.obj
 0001:0000578f       ?init@@YAEH@Z              0040678f f   ft2.obj
 0001:0000662e       ?kill_log_file@@YAXXZ      0040762e f   ft2.obj
 0001:00006d9f       ?load_one_machine_only@@YAXPAUHWND__@@@Z 00407d9f f   ft2.obj
 0001:0000705a       ?log_als_file@@YAXAAVSTRING_CLASS@@@Z 0040805a f   ft2.obj
 0001:0000721e       ?main_proc@@YGJPAUHWND__@@IIJ@Z 0040821e f   ft2.obj
 0001:000079b8       ?need_brush@@YA_NPAUHWND__@@@Z 004089b8 f   ft2.obj
 0001:00007ae3       ?new_downtime_callback@@YAXPA_WFPAUHDDEDATA__@@@Z 00408ae3 f   ft2.obj
 0001:00007b56       ?new_monitor_setup_callback@@YAXPA_WFPAUHDDEDATA__@@@Z 00408b56 f   ft2.obj
 0001:00007dee       ?output_list_dialog_proc@@YGHPAUHWND__@@IIJ@Z 00408dee f   ft2.obj
 0001:000082ec       ?password_level_callback@@YAXPA_WFPAUHDDEDATA__@@@Z 004092ec f   ft2.obj
 0001:0000843e       ?plot_min_callback@@YAXPA_WFPAUHDDEDATA__@@@Z 0040943e f   ft2.obj
 0001:000086b6       ?poke_newshot_message@@YAXIJ@Z 004096b6 f   ft2.obj
 0001:00008ace       ?push_log_message@@YAXPA_W@Z 00409ace f   ft2.obj
 0001:00008b82       ?put_hires_sensor_test_config@@YAXPAUHWND__@@@Z 00409b82 f   ft2.obj
 0001:00008f53       ?release_dc@WINDOW_CLASS@@QAEHPAUHDC__@@@Z 00409f53 f i ft2.obj
 0001:00009044       ?resource_message_box@@YAXII@Z 0040a044 f   ft2.obj
 0001:000090b8       ?resource_string@@YAPA_WI@Z 0040a0b8 f   ft2.obj
 0001:0000a0de       ?send_lvdt_offset_to_board@@YA_NXZ 0040b0de f   ft2.obj
 0001:0000a215       ?send_null_offset_to_board@@YA_NXZ 0040b215 f   ft2.obj
 0001:0000a2d6       ?send_output_bits_to_current_machine@@YAXIE@Z 0040b2d6 f   ft2.obj
 0001:0000a328       ?send_set_dac_command@@YAXH@Z 0040b328 f   ft2.obj
 0001:0000abea       ?set_control_y@@YAXHI@Z    0040bbea f   ft2.obj
 0001:0000b30b       ?set_dac_dialog_proc@@YGHPAUHWND__@@IIJ@Z 0040c30b f   ft2.obj
 0001:0000b6ea       ?set_null_dialog_proc@@YGHPAUHWND__@@IIJ@Z 0040c6ea f   ft2.obj
 0001:0000bea8       ?shutdown_status_dialog_proc@@YGHPAUHWND__@@IIJ@Z 0040cea8 f   ft2.obj
 0001:0000c207       ?start_if_ok_to_deactivate@@YAXAAVWINDOW_CLASS@@@Z 0040d207 f   ft2.obj
 0001:0000c22e       ?status_proc@@YGJPAUHWND__@@IIJ@Z 0040d22e f   ft2.obj
 0001:0000c627       ?terminal_proc@@YGJPAUHWND__@@IIJ@Z 0040d627 f   ft2.obj
 0001:0000c727       ?test_alarm_outputs_dialog_proc@@YGHPAUHWND__@@IIJ@Z 0040d727 f   ft2.obj
 0001:0000ca28       ?toggle_save_shot_name_files@@YAXXZ 0040da28 f   ft2.obj
 0001:0000cc99       ?update_optos@@YAXII@Z     0040dc99 f   ft2.obj
 0001:0000cdab       ?upload_aborted_dialog_proc@@YGHPAUHWND__@@IIJ@Z 0040ddab f   ft2.obj
 0001:0000ce8a       ?upload_flash_dialog_proc@@YGHPAUHWND__@@IIJ@Z 0040de8a f   ft2.obj
 0001:0000cec5       ?valve_test_dialog_proc@@YGHPAUHWND__@@IIJ@Z 0040dec5 f   ft2.obj
 0001:0000d14f       ?warning_error_string@@YAPA_WH@Z 0040e14f f   ft2.obj
 0001:0000d277       _WinMain@16                0040e277 f   ft2.obj
 0001:0000d467       ??0DSTAT_CLASS@@QAE@XZ     0040e467 f i board_monitor.obj
 0001:0000d488       ??0EXTERNAL_PARAMETER_ALARM_CLASS@@QAE@XZ 0040e488 f   board_monitor.obj
 0001:0000d4a1       ??0FTANALOG_CLASS@@QAE@XZ  0040e4a1 f i board_monitor.obj
 0001:0000d4be       ??0FTII_BOARD_ENTRY@@QAE@XZ 0040e4be f   board_monitor.obj
 0001:0000d642       ??1EXTERNAL_PARAMETER_ALARM_CLASS@@QAE@XZ 0040e642 f   board_monitor.obj
 0001:0000d653       ??1FTANALOG_CLASS@@QAE@XZ  0040e653 f i board_monitor.obj
 0001:0000d66e       ??1FTCALC_CLASS@@QAE@XZ    0040e66e f i board_monitor.obj
 0001:0000d6af       ??1FTII_BOARD_ENTRY@@QAE@XZ 0040e6af f   board_monitor.obj
 0001:0000d770       ??1WIRE_NAME_ENTRY@@QAE@XZ 0040e770 f i v5subs:wire_class.obj
 0001:0000d770       ??1PART_NAME_ENTRY@@QAE@XZ 0040e770 f i board_monitor.obj
 0001:0000d78b       ??1RACETRACK_CLASS@@QAE@XZ 0040e78b f   board_monitor.obj
 0001:0000d790       ??ABOARD_EXTENDED_ANALOG_ARRAY@@QAEAAUBOARD_EXTENDED_ANALOG_ENTRY@@H@Z 0040e790 f   board_monitor.obj
 0001:0000d7e3       ??_EEXTERNAL_PARAMETER_ALARM_CLASS@@QAEPAXI@Z 0040e7e3 f i board_monitor.obj
 0001:0000d838       ??_EFTII_BOARD_ENTRY@@QAEPAXI@Z 0040e838 f i board_monitor.obj
 0001:0000d893       ??_ESTRING_CLASS@@QAEPAXI@Z 0040e893 f i board_monitor.obj
 0001:0000d8e3       ?AutoShotDisplayProc@@YGHPAUHWND__@@IIJ@Z 0040e8e3 f   board_monitor.obj
 0001:0000d9a8       ?add_binary_to_shotdata@FTII_BOARD_ENTRY@@QAEXXZ 0040e9a8 f   board_monitor.obj
 0001:0000da5e       ?append_downtime_record@@YAEAAVSTRING_CLASS@@00AAU_SYSTEMTIME@@PA_W2@Z 0040ea5e f   board_monitor.obj
 0001:0000db3f       ?begin_monitoring@@YA_NXZ  0040eb3f f   board_monitor.obj
 0001:0000de56       ?check_external_alarms@@YAXAAVSTRING_CLASS@@@Z 0040ee56 f   board_monitor.obj
 0001:0000e303       ?check_for_down@@YAXXZ     0040f303 f   board_monitor.obj
 0001:0000e5dd       ?check_for_extended_channel_value@FTII_BOARD_ENTRY@@QAEXPA_W@Z 0040f5dd f   board_monitor.obj
 0001:0000e8a3       ?check_inputs@FTII_BOARD_ENTRY@@QAEXPA_W@Z 0040f8a3 f   board_monitor.obj
 0001:0000ebfd       ?cleanup@EXTERNAL_PARAMETER_ALARM_CLASS@@QAEXXZ 0040fbfd f   board_monitor.obj
 0001:0000ec29       ?cleanup@RACETRACK_CLASS@@QAEXXZ 0040fc29 f   board_monitor.obj
 0001:0000ec4b       ?cleanup@STDDOWN_CLASS@@QAEXXZ 0040fc4b f i board_monitor.obj
 0001:0000ec67       ?clear@BOARD_EXTENDED_ANALOG_ARRAY@@QAEXXZ 0040fc67 f   board_monitor.obj
 0001:0000ec67       ??1BOARD_EXTENDED_ANALOG_ARRAY@@QAE@XZ 0040fc67 f   board_monitor.obj
 0001:0000ec82       ?clear_all_alarm_bits@FTII_BOARD_ENTRY@@QAEXXZ 0040fc82 f   board_monitor.obj
 0001:0000ec99       ?clearwire@FTII_BOARD_ENTRY@@QAEXH@Z 0040fc99 f   board_monitor.obj
 0001:0000f041       ?current_board_index@@YAHXZ 00410041 f   board_monitor.obj
 0001:0000f04d       ?current_board_number@@YAHXZ 0041004d f   board_monitor.obj
 0001:0000f06a       ?current_channel_mode@@YAHXZ 0041006a f   board_monitor.obj
 0001:0000f090       ?current_operator@@YAPA_WAAVSTRING_CLASS@@0@Z 00410090 f   board_monitor.obj
 0001:0000f11e       ?current_upload_file_name@@YAPA_WXZ 0041011e f   board_monitor.obj
 0001:0000f14b       ?current_version@@YAHXZ    0041014b f   board_monitor.obj
 0001:0000f16b       ?current_version_string@@YAPA_WXZ 0041016b f   board_monitor.obj
 0001:0000f439       ?display_board_info@@YAXXZ 00410439 f   board_monitor.obj
 0001:0000fc1e       ?external_parameter_alarms_index@@YAHAAVSTRING_CLASS@@@Z 00410c1e f   board_monitor.obj
 0001:0000fc5a       ?get@RACETRACK_CLASS@@QAE_NAAVSTRING_CLASS@@@Z 00410c5a f   board_monitor.obj
 0001:0000fc8d       ?get_alarm_bits@FTII_BOARD_ENTRY@@QAEXXZ 00410c8d f   board_monitor.obj
 0001:0000fdc3       ?get_config_word@FTII_BOARD_ENTRY@@QAEXPA_W@Z 00410dc3 f   board_monitor.obj
 0001:0000fdee       ?get_external_parameters@@YA_NAAVFTII_FILE_DATA@@AAVPARAMETER_CLASS@@AAVEXTERNAL_PARAMETER_STATUS_CLASS@@@Z 00410dee f   board_monitor.obj
 0001:0000ff5e       ?get_parameter_alarm_bits@FTII_BOARD_ENTRY@@QAEIXZ 00410f5e f   board_monitor.obj
 0001:00010014       ?init@BOARD_EXTENDED_ANALOG_ARRAY@@QAEEH@Z 00411014 f   board_monitor.obj
 0001:000100a9       ?init@EXTERNAL_PARAMETER_ALARM_CLASS@@QAE_NH@Z 004110a9 f   board_monitor.obj
 0001:0001010c       ?is_suretrak_controlled@@YAEH@Z 0041110c f   board_monitor.obj
 0001:00010132       ?issue_downtime_event@@YAXAAVSTRING_CLASS@@00AAU_SYSTEMTIME@@PA_W2@Z 00411132 f   board_monitor.obj
 0001:00010170       ?load_ftii_boards@@YAHXZ   00411170 f   board_monitor.obj
 0001:0001052f       ?load_the_current_machine_at_this_board@@YAXAAVFTII_BOARD_ENTRY@@@Z 0041152f f   board_monitor.obj
 0001:00010f4f       ?log_network_error@@YAXH@Z 00411f4f f   board_monitor.obj
 0001:00011165       ?new_data_thread@@YAXPAX@Z 00412165 f   board_monitor.obj
 0001:00011617       ?position_auto_shot_display@@YAXXZ 00412617 f   board_monitor.obj
 0001:000116aa       ?post_new_data_message@@YAXAAVSTRING_CLASS@@@Z 004126aa f   board_monitor.obj
 0001:00011706       ?put@RACETRACK_CLASS@@QAE_NAAVSTRING_CLASS@@@Z 00412706 f   board_monitor.obj
 0001:00011741       ?put_version_string@FTII_BOARD_ENTRY@@QAEXXZ 00412741 f   board_monitor.obj
 0001:000117d0       ?read_thread@@YAXPAX@Z     004127d0 f   board_monitor.obj
 0001:00011a4e       ?save_shot@FTII_BOARD_ENTRY@@QAEXXZ 00412a4e f   board_monitor.obj
 0001:00011f61       ?send_bits@FTII_BOARD_ENTRY@@QAEXI_N@Z 00412f61 f   board_monitor.obj
 0001:00011fde       ?send_command@@YAXAAVSTRING_CLASS@@PA_W_N@Z 00412fde f   board_monitor.obj
 0001:000121b3       ?send_socket_message@FTII_BOARD_ENTRY@@QAE_NPA_W_N@Z 004131b3 f   board_monitor.obj
 0001:00012282       ?send_thread@@YAXPAX@Z     00413282 f   board_monitor.obj
 0001:000128a9       ?set_connect_state@FTII_BOARD_ENTRY@@QAEXI@Z 004138a9 f   board_monitor.obj
 0001:00012930       ?set_extended_analog_bits@FTII_BOARD_ENTRY@@QAEXXZ 00413930 f   board_monitor.obj
 0001:00012a7f       ?setsize@RACETRACK_CLASS@@QAE_NH@Z 00413a7f f   board_monitor.obj
 0001:00012b44       ?setwire@FTII_BOARD_ENTRY@@QAEXH@Z 00413b44 f   board_monitor.obj
 0001:00012e77       ?stop_monitoring@@YAXXZ    00413e77 f   board_monitor.obj
 0001:00012fed       ?update_downtime@@YAXVDOWN_DATA_CLASS@@@Z 00413fed f   board_monitor.obj
 0001:000133c5       ?upload_control_file@FTII_BOARD_ENTRY@@QAE_NXZ 004143c5 f   board_monitor.obj
 0001:00013db7       ?wirebit@@YAIH@Z           00414db7 f   board_monitor.obj
 0001:00014079       ??0PROFILE_NAME_ENTRY@@QAE@XZ 00415079 f i shotsave.obj
 0001:0001409d       ??0SHOT_BUFFER_ENTRY@@QAE@XZ 0041509d f   shotsave.obj
 0001:000140eb       ??1PROFILE_NAME_ENTRY@@QAE@XZ 004150eb f i shotsave.obj
 0001:0001410e       ??1SHOT_BUFFER_ENTRY@@QAE@XZ 0041510e f   shotsave.obj
 0001:00014137       ?add_to_shotsave@@YA_N_N0AAUPART_NAME_ENTRY@@AAVFTII_FILE_DATA@@AAVDOUBLE_ARRAY_CLASS@@AAVEXTERNAL_PARAMETER_STATUS_CLASS@@@Z 00415137 f   shotsave.obj
 0001:0001428c       ?create@VDB_CLASS@@QAE_NAAVSTRING_CLASS@@@Z 0041528c f i shotsave.obj
 0001:0001442c       ?get@WRITE_CSV_SHOT_FILE@@QAEEAAUPROFILE_NAME_ENTRY@@@Z 0041542c f   shotsave.obj
 0001:000146a4       ?get_ini_char@@YAPA_WPA_W0@Z 004156a4 f   shotsave.obj
 0001:000146f7       ?get_profile_ii_name@NAME_CLASS@@QAEEAAVSTRING_CLASS@@000@Z 004156f7 f i shotsave.obj
 0001:00014722       ?has_any_limits@PARAMETER_ENTRY@@QAEEXZ 00415722 f i shotsave.obj
 0001:0001473f       ?init_serial_port@@YAXXZ   0041573f f   shotsave.obj
 0001:0001565f       ?nextshot@@YAEPAVSHOT_BUFFER_ENTRY@@@Z 0041665f f   shotsave.obj
 0001:00015b34       ?put_alpha@DB_TABLE@@QAEEGAAVSTRING_CLASS@@F@Z 00416b34 f i shotsave.obj
 0001:00015b56       ?save_shot@@YAXPAVSHOT_BUFFER_ENTRY@@@Z 00416b56 f   shotsave.obj
 0001:0001667d       ?shotsave_thread@@YAXPAX@Z 0041767d f   shotsave.obj
 0001:0001685f       ?start_shotsave_thread@@YAXXZ 0041785f f   shotsave.obj
 0001:0001847f       ?write_std_units_csv_file@@YAEAAVSTRING_CLASS@@PAVSHOT_BUFFER_ENTRY@@@Z 0041947f f   shotsave.obj
 0001:00018abd       ?max_parameters_saved@@YAJAAVSTRING_CLASS@@@Z 00419abd f   skip.obj
 0001:00018ad2       ?max_profiles_saved@@YAJAAVSTRING_CLASS@@@Z 00419ad2 f   skip.obj
 0001:00018b64       ?skip_new_shot_notify@@YAGAAVSTRING_CLASS@@U_FILETIME@@@Z 00419b64 f   skip.obj
 0001:00018bb1       ?skip_reset_machine@@YAEAAVSTRING_CLASS@@@Z 00419bb1 f   skip.obj
 0001:00018bca       ?skip_shutdown@@YAXXZ      00419bca f   skip.obj
 0001:00018bfe       ?skip_startup@@YAEXZ       00419bfe f   skip.obj
 0001:00018c01       ??0UPLOAD_COPY_CLASS@@QAE@XZ 00419c01 f   upload_copy_class.obj
 0001:00018c27       ??1UPLOAD_COPY_CLASS@@QAE@XZ 00419c27 f   upload_copy_class.obj
 0001:00018c44       ?init@UPLOAD_COPY_CLASS@@QAEXXZ 00419c44 f   upload_copy_class.obj
 0001:00018c67       ?isnew@UPLOAD_COPY_CLASS@@QAE_NAAVSTRING_CLASS@@@Z 00419c67 f   upload_copy_class.obj
 0001:00018d37       ?load@UPLOAD_COPY_CLASS@@QAEIVSTRING_CLASS@@00@Z 00419d37 f   upload_copy_class.obj
 0001:00018e5c       ?save@UPLOAD_COPY_CLASS@@QAEIVSTRING_CLASS@@00@Z 00419e5c f   upload_copy_class.obj
 0001:00018f96       _DdeGetData@16             00419f96 f   user32:USER32.dll
 0001:00018f9c       _bind@12                   00419f9c f   wsock32:WSOCK32.dll
 0001:00018fa2       _closesocket@4             00419fa2 f   wsock32:WSOCK32.dll
 0001:00018fa8       _htonl@4                   00419fa8 f   wsock32:WSOCK32.dll
 0001:00018fae       _htons@4                   00419fae f   wsock32:WSOCK32.dll
 0001:00018fb4       _inet_addr@4               00419fb4 f   wsock32:WSOCK32.dll
 0001:00018fba       _recvfrom@24               00419fba f   wsock32:WSOCK32.dll
 0001:00018fc0       _sendto@24                 00419fc0 f   wsock32:WSOCK32.dll
 0001:00018fc6       _socket@12                 00419fc6 f   wsock32:WSOCK32.dll
 0001:00018fcc       _gethostbyname@4           00419fcc f   wsock32:WSOCK32.dll
 0001:00018fd2       _gethostname@8             00419fd2 f   wsock32:WSOCK32.dll
 0001:00018fd8       _WSAStartup@8              00419fd8 f   wsock32:WSOCK32.dll
 0001:00018fde       _WSACleanup@0              00419fde f   wsock32:WSOCK32.dll
 0001:00018fe4       _WSAGetLastError@0         00419fe4 f   wsock32:WSOCK32.dll
 0001:00018fea       ?append_backslash_to_path@@YAXPA_W@Z 00419fea f   v5subs:path.obj
 0001:00019019       ?append_filename_to_path@@YAXPA_WPB_W@Z 0041a019 f   v5subs:path.obj
 0001:00019032       ?catpath@@YAPA_WPA_WPB_W@Z 0041a032 f   v5subs:path.obj
 0001:0001908d       ?create_directory@@YAEPA_W@Z 0041a08d f   v5subs:path.obj
 0001:000191dd       ?dir_from_filename@@YAEPA_W@Z 0041a1dd f   v5subs:path.obj
 0001:0001922f       ?remove_backslash_from_path@@YAXPA_W@Z 0041a22f f   v5subs:path.obj
 0001:0001925f       ?directory_exists@@YAEPA_W@Z 0041a25f f   v5subs:exists.obj
 0001:00019282       ?disk_is_in_drive@@YAEPA_W@Z 0041a282 f   v5subs:exists.obj
 0001:000192ba       ?file_exists@@YAEPA_W@Z    0041a2ba f   v5subs:exists.obj
 0001:000192cc       ?file_size@@YAJPA_W@Z      0041a2cc f   v5subs:exists.obj
 0001:000193a2       ?get_drive_name@@YAEPA_W@Z 0041a3a2 f   v5subs:exists.obj
 0001:000193d9       ?is_removable@@YAEPA_W@Z   0041a3d9 f   v5subs:exists.obj
 0001:00019404       ?ascii_double@@YAPA_WN@Z   0041a404 f   v5subs:ascfloat.obj
 0001:00019424       ?ascii_float@@YAPA_WM@Z    0041a424 f   v5subs:ascfloat.obj
 0001:0001943c       ?asctoint32@@YAJPB_W@Z     0041a43c f   v5subs:extract.obj
 0001:0001943c       ?asctoint@@YAHPB_W@Z       0041a43c f   v5subs:extract.obj
 0001:00019459       ?asctoul@@YAKPB_W@Z        0041a459 f   v5subs:extract.obj
 0001:00019476       ?extdouble@@YANPB_W@Z      0041a476 f   v5subs:extract.obj
 0001:0001948d       ?extdouble@@YANPB_WF@Z     0041a48d f   v5subs:extract.obj
 0001:000194fe       ?extfloat@@YAMPB_W@Z       0041a4fe f   v5subs:extract.obj
 0001:00019523       ?extlong@@YAJPB_WF@Z       0041a523 f   v5subs:extract.obj
 0001:00019523       ?extshort@@YAFPB_WF@Z      0041a523 f   v5subs:extract.obj
 0001:00019536       ?extlong@@YAJPB_WFH@Z      0041a536 f   v5subs:extract.obj
 0001:0001959c       ?extul@@YAKPB_WFH@Z        0041a59c f   v5subs:extract.obj
 0001:00019602       ?is_real_char@@YAE_W@Z     0041a602 f   v5subs:extract.obj
 0001:000196ae       ?int32toasc@@YAPA_WJ@Z     0041a6ae f   v5subs:itoasc.obj
 0001:000196c7       ?int32toasc@@YAXPA_WJJ@Z   0041a6c7 f   v5subs:itoasc.obj
 0001:00019718       ?int_to_ascii@@YAXPA_WH@Z  0041a718 f   v5subs:itoasc.obj
 0001:00019760       ?ultoascii@@YAPA_WKK@Z     0041a760 f   v5subs:itoasc.obj
 0001:0001977b       ?ultoascii@@YAXPA_WKK@Z    0041a77b f   v5subs:itoasc.obj
 0001:000197b4       ??0STRING_CLASS@@QAE@ABV0@@Z 0041a7b4 f   v5subs:stringcl.obj
 0001:000197d0       ??0STRING_CLASS@@QAE@XZ    0041a7d0 f   v5subs:stringcl.obj
 0001:000197da       ??1STRING_CLASS@@QAE@XZ    0041a7da f   v5subs:stringcl.obj
 0001:000197df       ??4STRING_CLASS@@QAEXABV0@@Z 0041a7df f   v5subs:stringcl.obj
 0001:000197ee       ??4STRING_CLASS@@QAEXE@Z   0041a7ee f   v5subs:stringcl.obj
 0001:00019809       ??4STRING_CLASS@@QAEXH@Z   0041a809 f   v5subs:stringcl.obj
 0001:00019831       ??4STRING_CLASS@@QAEXI@Z   0041a831 f   v5subs:stringcl.obj
 0001:00019859       ??4STRING_CLASS@@QAEXN@Z   0041a859 f   v5subs:stringcl.obj
 0001:00019888       ??4STRING_CLASS@@QAEXPB_W@Z 0041a888 f   v5subs:stringcl.obj
 0001:000198d3       ??4STRING_CLASS@@QAEX_W@Z  0041a8d3 f   v5subs:stringcl.obj
 0001:000198ea       ??8STRING_CLASS@@QAEEABV0@@Z 0041a8ea f   v5subs:stringcl.obj
 0001:000198f9       ??8STRING_CLASS@@QAEEPB_W@Z 0041a8f9 f   v5subs:stringcl.obj
 0001:00019955       ??MSTRING_CLASS@@QAEEABV0@@Z 0041a955 f   v5subs:stringcl.obj
 0001:0001997c       ??YSTRING_CLASS@@QAEXABV0@@Z 0041a97c f   v5subs:stringcl.obj
 0001:0001998b       ??YSTRING_CLASS@@QAEXH@Z   0041a98b f   v5subs:stringcl.obj
 0001:000199c3       ??YSTRING_CLASS@@QAEXI@Z   0041a9c3 f   v5subs:stringcl.obj
 0001:000199fb       ??YSTRING_CLASS@@QAEXN@Z   0041a9fb f   v5subs:stringcl.obj
 0001:00019a3a       ??YSTRING_CLASS@@QAEXPB_W@Z 0041aa3a f   v5subs:stringcl.obj
 0001:00019a7b       ??YSTRING_CLASS@@QAEX_N@Z  0041aa7b f   v5subs:stringcl.obj
 0001:00019a7b       ??YSTRING_CLASS@@QAEXE@Z   0041aa7b f   v5subs:stringcl.obj
 0001:00019a96       ??YSTRING_CLASS@@QAEX_W@Z  0041aa96 f   v5subs:stringcl.obj
 0001:00019acd       ?acquire@STRING_CLASS@@QAEEAAV1@@Z 0041aacd f   v5subs:stringcl.obj
 0001:00019afb       ?acquire@STRING_CLASS@@QAEEPA_W@Z 0041aafb f   v5subs:stringcl.obj
 0001:00019b2a       ?add_finalchar@STRING_CLASS@@AAEXPA_W0@Z 0041ab2a f   v5subs:stringcl.obj
 0001:00019b5a       ?bool_value@STRING_CLASS@@QAE_NXZ 0041ab5a f   v5subs:stringcl.obj
 0001:00019b5a       ?boolean_value@STRING_CLASS@@QAEEXZ 0041ab5a f   v5subs:stringcl.obj
 0001:00019b7c       ?cat_path@STRING_CLASS@@QAEXPB_W@Z 0041ab7c f   v5subs:stringcl.obj
 0001:00019beb       ?cat_w_char@STRING_CLASS@@QAEXPB_W_W@Z 0041abeb f   v5subs:stringcl.obj
 0001:00019c44       ?contains@STRING_CLASS@@QAE_NPB_W@Z 0041ac44 f   v5subs:stringcl.obj
 0001:00019c55       ?contains@STRING_CLASS@@QAE_N_W@Z 0041ac55 f   v5subs:stringcl.obj
 0001:00019c66       ?empty@STRING_CLASS@@QAEXXZ 0041ac66 f   v5subs:stringcl.obj
 0001:00019c81       ?find@STRING_CLASS@@QAEPA_WPB_W@Z 0041ac81 f   v5subs:stringcl.obj
 0001:00019c9f       ?find@STRING_CLASS@@QAEPA_W_W@Z 0041ac9f f   v5subs:stringcl.obj
 0001:00019cc6       ?findlast@STRING_CLASS@@QAEPA_WPB_W@Z 0041acc6 f   v5subs:stringcl.obj
 0001:00019ce4       ?get_ascii@STRING_CLASS@@QAEEPAD@Z 0041ace4 f   v5subs:stringcl.obj
 0001:00019d3c       ?get_substring@STRING_CLASS@@QAEEABV1@_W1@Z 0041ad3c f   v5subs:stringcl.obj
 0001:00019dc4       ?get_text@STRING_CLASS@@QAE_NPAUHWND__@@@Z 0041adc4 f   v5subs:stringcl.obj
 0001:00019e1a       ?init@STRING_CLASS@@QAEEJ@Z 0041ae1a f   v5subs:stringcl.obj
 0001:00019e6d       ?isempty@STRING_CLASS@@QAEEXZ 0041ae6d f   v5subs:stringcl.obj
 0001:00019e8b       ?isnumeric@STRING_CLASS@@QAEEXZ 0041ae8b f   v5subs:stringcl.obj
 0001:00019f14       ?last_char@STRING_CLASS@@QAEPA_WXZ 0041af14 f   v5subs:stringcl.obj
 0001:00019f2f       ?len@STRING_CLASS@@QAEJXZ  0041af2f f   v5subs:stringcl.obj
 0001:00019f42       ?next_field@STRING_CLASS@@QAE_NXZ 0041af42 f   v5subs:stringcl.obj
 0001:00019f50       ?next_field@STRING_CLASS@@QAE_N_W@Z 0041af50 f   v5subs:stringcl.obj
 0001:0001a092       ?null@STRING_CLASS@@QAEXXZ 0041b092 f   v5subs:stringcl.obj
 0001:0001a0b8       ?real_value@STRING_CLASS@@QAENXZ 0041b0b8 f   v5subs:stringcl.obj
 0001:0001a115       ?release@STRING_CLASS@@QAEPA_WXZ 0041b115 f   v5subs:stringcl.obj
 0001:0001a120       ?remove_all_occurances@STRING_CLASS@@QAEH_W@Z 0041b120 f   v5subs:stringcl.obj
 0001:0001a157       ?remove_leading_chars@STRING_CLASS@@QAE_NH@Z 0041b157 f   v5subs:stringcl.obj
 0001:0001a190       ?replace@STRING_CLASS@@QAEEPB_W0@Z 0041b190 f   v5subs:stringcl.obj
 0001:0001a246       ?replace@STRING_CLASS@@QAEE_W0@Z 0041b246 f   v5subs:stringcl.obj
 0001:0001a27b       ?replace_all@STRING_CLASS@@QAEH_W0@Z 0041b27b f   v5subs:stringcl.obj
 0001:0001a2b4       ?rjust@STRING_CLASS@@QAEEJ@Z 0041b2b4 f   v5subs:stringcl.obj
 0001:0001a2c8       ?rjust@STRING_CLASS@@QAEEJ_W@Z 0041b2c8 f   v5subs:stringcl.obj
 0001:0001a321       ?set_text@STRING_CLASS@@QAE_NPAUHWND__@@@Z 0041b321 f   v5subs:stringcl.obj
 0001:0001a346       ?strip_crlf@STRING_CLASS@@QAEXXZ 0041b346 f   v5subs:stringcl.obj
 0001:0001a38d       ?uppercase@STRING_CLASS@@QAEXXZ 0041b38d f   v5subs:stringcl.obj
 0001:0001a39d       ?upsize@STRING_CLASS@@QAEEJ@Z 0041b39d f   v5subs:stringcl.obj
 0001:0001a404       ?convert_to_data_dir@NAME_CLASS@@QAEEXZ 0041b404 f   v5subs:nameclas.obj
 0001:0001a449       ?ensure_file_directory_existance@NAME_CLASS@@QAEEXZ 0041b449 f   v5subs:nameclas.obj
 0001:0001a4b2       ?find_extension@NAME_CLASS@@QAEPA_WXZ 0041b4b2 f   v5subs:nameclas.obj
 0001:0001a4f2       ?get_data_dir_file_name@NAME_CLASS@@QAEEAAVSTRING_CLASS@@PB_W@Z 0041b4f2 f   v5subs:nameclas.obj
 0001:0001a535       ?get_data_dir_file_name@NAME_CLASS@@QAEEPB_W@Z 0041b535 f   v5subs:nameclas.obj
 0001:0001a552       ?get_exe_dir_file_name@NAME_CLASS@@QAEEAAVSTRING_CLASS@@PB_W@Z 0041b552 f   v5subs:nameclas.obj
 0001:0001a595       ?get_exe_dir_file_name@NAME_CLASS@@QAEEPB_W@Z 0041b595 f   v5subs:nameclas.obj
 0001:0001a5ce       ?get_log_dir_file_name@NAME_CLASS@@QAEEPB_W@Z 0041b5ce f   v5subs:nameclas.obj
 0001:0001a607       ?get_machine_dir_file_name@NAME_CLASS@@QAEEAAVSTRING_CLASS@@0PB_W@Z 0041b607 f   v5subs:nameclas.obj
 0001:0001a650       ?get_machine_results_dir_file_name@NAME_CLASS@@QAEEAAVSTRING_CLASS@@0PB_W@Z 0041b650 f   v5subs:nameclas.obj
 0001:0001a68e       ?get_part_dir_file_name@NAME_CLASS@@QAEEAAVSTRING_CLASS@@00PB_W@Z 0041b68e f   v5subs:nameclas.obj
 0001:0001a6da       ?get_part_results_dir_file_name@NAME_CLASS@@QAEEAAVSTRING_CLASS@@00PB_W@Z 0041b6da f   v5subs:nameclas.obj
 0001:0001a71b       ?get_profile_name@NAME_CLASS@@QAEEAAVSTRING_CLASS@@00PB_W1@Z 0041b71b f   v5subs:nameclas.obj
 0001:0001a7c8       ?get_static_text_parameters_csvname@NAME_CLASS@@QAEEAAVSTRING_CLASS@@00@Z 0041b7c8 f   v5subs:nameclas.obj
 0001:0001a7e1       ?get_stringtable_name@NAME_CLASS@@QAEEPB_W@Z 0041b7e1 f   v5subs:nameclas.obj
 0001:0001a832       ?moveto@NAME_CLASS@@QAEEAAVSTRING_CLASS@@@Z 0041b832 f   v5subs:nameclas.obj
 0001:0001a85f       ?remove_ending_filename@NAME_CLASS@@QAEEXZ 0041b85f f   v5subs:nameclas.obj
 0001:0001a885       ?remove_extension@NAME_CLASS@@QAEEXZ 0041b885 f   v5subs:nameclas.obj
 0001:0001a89e       ?replace_extension@NAME_CLASS@@QAEXPA_W@Z 0041b89e f   v5subs:nameclas.obj
 0001:0001a8ce       ??0ANALOG_SENSOR@@QAE@XZ   0041b8ce f   v5subs:asensor.obj
 0001:0001a8d4       ??0ANALOG_SENSOR_ENTRY@@QAE@XZ 0041b8d4 f   v5subs:asensor.obj
 0001:0001a924       ??1ANALOG_SENSOR_ENTRY@@QAE@XZ 0041b924 f   v5subs:asensor.obj
 0001:0001a950       ??AANALOG_SENSOR@@QAEAAUANALOG_SENSOR_ENTRY@@H@Z 0041b950 f   v5subs:asensor.obj
 0001:0001a973       ??_EANALOG_SENSOR_ENTRY@@QAEPAXI@Z 0041b973 f i v5subs:asensor.obj
 0001:0001a9c8       ?converted_value@ANALOG_SENSOR_ENTRY@@QAENI@Z 0041b9c8 f   v5subs:asensor.obj
 0001:0001a9fc       ?get@ANALOG_SENSOR@@SAEXZ  0041b9fc f   v5subs:asensor.obj
 0001:0001abfa       ?get@ANALOG_SENSOR_ENTRY@@QAEEPA_W@Z 0041bbfa f   v5subs:asensor.obj
 0001:0001ad57       ?raw_count@ANALOG_SENSOR_ENTRY@@QAENN@Z 0041bd57 f   v5subs:asensor.obj
 0001:0001ad9a       ?shutdown@ANALOG_SENSOR@@SAXXZ 0041bd9a f   v5subs:asensor.obj
 0001:0001ad9f       ?update@ANALOG_SENSOR_ENTRY@@QAEEXZ 0041bd9f f   v5subs:asensor.obj
 0001:0001ae8d       ??0AUTO_BACKUP_CLASS@@QAE@XZ 0041be8d f   v5subs:autoback.obj
 0001:0001ae9f       ??1AUTO_BACKUP_CLASS@@QAE@XZ 0041be9f f   v5subs:autoback.obj
 0001:0001aea5       ?backup_machine@AUTO_BACKUP_CLASS@@QAEEAAVSTRING_CLASS@@@Z 0041bea5 f   v5subs:autoback.obj
 0001:0001aff6       ?get_backup_dir@AUTO_BACKUP_CLASS@@QAEEXZ 0041bff6 f   v5subs:autoback.obj
 0001:0001b094       ??0DB_TABLE@@QAE@XZ        0041c094 f   v5subs:dbsubs.obj
 0001:0001b0bb       ??1DB_TABLE@@QAE@XZ        0041c0bb f   v5subs:dbsubs.obj
 0001:0001b138       ?close@DB_TABLE@@QAEXXZ    0041c138 f   v5subs:dbsubs.obj
 0001:0001b159       ?compare_date@@YAFPA_W0@Z  0041c159 f   v5subs:dbsubs.obj
 0001:0001b18f       ?compare_int32@@YAFPA_W0J@Z 0041c18f f   v5subs:dbsubs.obj
 0001:0001b1c3       ?compare_one_record@DB_TABLE@@AAEEPAFJJ@Z 0041c1c3 f   v5subs:dbsubs.obj
 0001:0001b2ab       ?create@DB_TABLE@@QAEEAAVSTRING_CLASS@@@Z 0041c2ab f i v5subs:dbsubs.obj
 0001:0001b2c5       ?create@DB_TABLE@@QAEEPA_W@Z 0041c2c5 f   v5subs:dbsubs.obj
 0001:0001b325       ?determine_column_info@DB_TABLE@@QAEHXZ 0041c325 f   v5subs:dbsubs.obj
 0001:0001b506       ?ensure_existance@DB_TABLE@@QAEEAAVSTRING_CLASS@@@Z 0041c506 f   v5subs:dbsubs.obj
 0001:0001b53a       ?field_length@DB_TABLE@@QAEFH@Z 0041c53a f   v5subs:dbsubs.obj
 0001:0001b5ba       ?fill_searchbuf@DB_TABLE@@AAEEF@Z 0041c5ba f   v5subs:dbsubs.obj
 0001:0001b613       ?get_alpha@DB_TABLE@@QAEEAAVSTRING_CLASS@@GF@Z 0041c613 f   v5subs:dbsubs.obj
 0001:0001b676       ?get_alpha@DB_TABLE@@QAEEPA_WGF@Z 0041c676 f   v5subs:dbsubs.obj
 0001:0001b68c       ?get_alpha@DB_TABLE@@QAEEPA_WGFG@Z 0041c68c f   v5subs:dbsubs.obj
 0001:0001b6f7       ?get_char@DB_TABLE@@QAE_WG@Z 0041c6f7 f   v5subs:dbsubs.obj
 0001:0001b712       ?get_current_record@DB_TABLE@@QAEEE@Z 0041c712 f   v5subs:dbsubs.obj
 0001:0001b758       ?get_date@DB_TABLE@@QAEEAAU_SYSTEMTIME@@G@Z 0041c758 f   v5subs:dbsubs.obj
 0001:0001b774       ?get_double@DB_TABLE@@QAENG@Z 0041c774 f   v5subs:dbsubs.obj
 0001:0001b7b3       ?get_long@DB_TABLE@@QAEJG@Z 0041c7b3 f   v5subs:dbsubs.obj
 0001:0001b7df       ?get_next_key_match@DB_TABLE@@QAEEFE@Z 0041c7df f   v5subs:dbsubs.obj
 0001:0001b84c       ?get_next_record@DB_TABLE@@QAEEE@Z 0041c84c f   v5subs:dbsubs.obj
 0001:0001b89a       ?get_rec@DB_TABLE@@QAEEXZ  0041c89a f   v5subs:dbsubs.obj
 0001:0001b8e6       ?get_time@DB_TABLE@@QAEEAAU_SYSTEMTIME@@G@Z 0041c8e6 f   v5subs:dbsubs.obj
 0001:0001b902       ?goto_first_equal_or_greater_record@DB_TABLE@@QAEEF@Z 0041c902 f   v5subs:dbsubs.obj
 0001:0001b9db       ?goto_first_key_record@DB_TABLE@@AAEEF@Z 0041c9db f   v5subs:dbsubs.obj
 0001:0001b9f6       ?goto_key_record@DB_TABLE@@AAEEFJJ@Z 0041c9f6 f   v5subs:dbsubs.obj
 0001:0001bb22       ?goto_record_number@DB_TABLE@@QAEEJ@Z 0041cb22 f   v5subs:dbsubs.obj
 0001:0001bbb7       ?initbuf@DB_TABLE@@AAEEPAPA_WPAFF@Z 0041cbb7 f   v5subs:dbsubs.obj
 0001:0001bc4f       ?is_alpha@DB_TABLE@@QAEEH@Z 0041cc4f f   v5subs:dbsubs.obj
 0001:0001bc71       ?lock_record@DB_TABLE@@QAEEXZ 0041cc71 f   v5subs:dbsubs.obj
 0001:0001bcf2       ?nof_recs@DB_TABLE@@QAEKXZ 0041ccf2 f   v5subs:dbsubs.obj
 0001:0001bd1c       ?open@DB_TABLE@@QAEEPA_WFF@Z 0041cd1c f   v5subs:dbsubs.obj
 0001:0001bd32       ?open@DB_TABLE@@QAEEPA_WFFF@Z 0041cd32 f   v5subs:dbsubs.obj
 0001:0001bf11       ?open_status@DB_TABLE@@QAEEXZ 0041cf11 f   v5subs:dbsubs.obj
 0001:0001bf19       ?point_to_start_of_field@DB_TABLE@@AAEPA_WG@Z 0041cf19 f   v5subs:dbsubs.obj
 0001:0001bf38       ?post_error@@YAXPA_W0@Z    0041cf38 f   v5subs:dbsubs.obj
 0001:0001bf4b       ?post_error@@YAXPA_W@Z     0041cf4b f   v5subs:dbsubs.obj
 0001:0001bf5f       ?put_alpha@DB_TABLE@@QAEEGPB_WF@Z 0041cf5f f   v5subs:dbsubs.obj
 0001:0001bfab       ?put_date@DB_TABLE@@QAEEGABU_SYSTEMTIME@@@Z 0041cfab f   v5subs:dbsubs.obj
 0001:0001bfde       ?put_long@DB_TABLE@@QAEEGJF@Z 0041cfde f   v5subs:dbsubs.obj
 0001:0001c01e       ?put_time@DB_TABLE@@QAEEGAAU_SYSTEMTIME@@@Z 0041d01e f   v5subs:dbsubs.obj
 0001:0001c051       ?rec_append@DB_TABLE@@QAEEXZ 0041d051 f   v5subs:dbsubs.obj
 0001:0001c077       ?rec_delete@DB_TABLE@@QAEEJ@Z 0041d077 f   v5subs:dbsubs.obj
 0001:0001c1c0       ?rec_insert@DB_TABLE@@QAEEXZ 0041d1c0 f   v5subs:dbsubs.obj
 0001:0001c284       ?rec_update@DB_TABLE@@QAEEXZ 0041d284 f   v5subs:dbsubs.obj
 0001:0001c2a5       ?restore_from_searchbuf@DB_TABLE@@AAEXXZ 0041d2a5 f   v5subs:dbsubs.obj
 0001:0001c2f4       ?unlock_record@DB_TABLE@@QAEEXZ 0041d2f4 f   v5subs:dbsubs.obj
 0001:0001c339       ?write_record@DB_TABLE@@AAEEXZ 0041d339 f   v5subs:dbsubs.obj
 0001:0001c391       ??0DOWN_DATA_CLASS@@QAE@XZ 0041d391 f   v5subs:evclass.obj
 0001:0001c3ed       ?set@DOWN_DATA_CLASS@@QAEEPAUHDDEDATA__@@@Z 0041d3ed f   v5subs:evclass.obj
 0001:0001c5a7       ??0FILE_CLASS@@QAE@XZ      0041d5a7 f   v5subs:fileclas.obj
 0001:0001c5cb       ??1FILE_CLASS@@QAE@XZ      0041d5cb f   v5subs:fileclas.obj
 0001:0001c5cb       ?close@FILE_CLASS@@QAEXXZ  0041d5cb f   v5subs:fileclas.obj
 0001:0001c5d0       ?cleanup@FILE_CLASS@@QAEXXZ 0041d5d0 f   v5subs:fileclas.obj
 0001:0001c5fe       ?cleanup_memory@FILE_CLASS@@QAEXXZ 0041d5fe f   v5subs:fileclas.obj
 0001:0001c62a       ?get_creation_time@FILE_CLASS@@QAEEPAU_FILETIME@@@Z 0041d62a f   v5subs:fileclas.obj
 0001:0001c64e       ?make_path@FILE_CLASS@@QAEEPA_W@Z 0041d64e f   v5subs:fileclas.obj
 0001:0001c699       ?nof_lines@FILE_CLASS@@QAEHXZ 0041d699 f   v5subs:fileclas.obj
 0001:0001c76f       ?open@FILE_CLASS@@QAEEPA_WK@Z 0041d76f f   v5subs:fileclas.obj
 0001:0001c7f2       ?open_for_append@FILE_CLASS@@QAEEAAVSTRING_CLASS@@@Z 0041d7f2 f   v5subs:fileclas.obj
 0001:0001c80c       ?open_for_append@FILE_CLASS@@QAEEPA_W@Z 0041d80c f   v5subs:fileclas.obj
 0001:0001c842       ?open_for_read@FILE_CLASS@@QAEEAAVSTRING_CLASS@@@Z 0041d842 f   v5subs:fileclas.obj
 0001:0001c85c       ?open_for_read@FILE_CLASS@@QAEEPA_W@Z 0041d85c f   v5subs:fileclas.obj
 0001:0001c878       ?open_for_write@FILE_CLASS@@QAEEAAVSTRING_CLASS@@@Z 0041d878 f   v5subs:fileclas.obj
 0001:0001c892       ?open_for_write@FILE_CLASS@@QAEEPA_W@Z 0041d892 f   v5subs:fileclas.obj
 0001:0001c8ab       ?readbinary@FILE_CLASS@@QAEKPAXK@Z 0041d8ab f   v5subs:fileclas.obj
 0001:0001c911       ?readline@FILE_CLASS@@QAEPA_WXZ 0041d911 f   v5subs:fileclas.obj
 0001:0001ca01       ?setpos@FILE_CLASS@@QAEEJ@Z 0041da01 f   v5subs:fileclas.obj
 0001:0001ca44       ?writebinary@FILE_CLASS@@QAEEPAXK@Z 0041da44 f   v5subs:fileclas.obj
 0001:0001caac       ?writeline@FILE_CLASS@@QAEEAAVSTRING_CLASS@@@Z 0041daac f   v5subs:fileclas.obj
 0001:0001cac6       ?writeline@FILE_CLASS@@QAEEPA_W@Z 0041dac6 f   v5subs:fileclas.obj
 0001:0001cb5d       ??0FIFO_CLASS@@QAE@XZ      0041db5d f   v5subs:fifo.obj
 0001:0001cb76       ??1FIFO_CLASS@@QAE@XZ      0041db76 f   v5subs:fifo.obj
 0001:0001cb7e       ?peek@FIFO_CLASS@@QAEPAXXZ 0041db7e f   v5subs:fifo.obj
 0001:0001cb8c       ?pop@FIFO_CLASS@@QAEPAXXZ  0041db8c f   v5subs:fifo.obj
 0001:0001cbd4       ?push@FIFO_CLASS@@QAEEPAX@Z 0041dbd4 f   v5subs:fifo.obj
 0001:0001cc34       ??0FONT_CLASS@@QAE@XZ      0041dc34 f   v5subs:fontclas.obj
 0001:0001cc51       ??0SHIFT_CLASS@@QAE@XZ     0041dc51 f   v5subs:shift.obj
 0001:0001cc51       ??0FONT_LIST_CLASS@@QAE@XZ 0041dc51 f   v5subs:fontclas.obj
 0001:0001cc57       ??0FONT_LIST_ENTRY@@QAE@XZ 0041dc57 f   v5subs:fontclas.obj
 0001:0001cc71       ??1FONT_LIST_CLASS@@QAE@XZ 0041dc71 f   v5subs:fontclas.obj
 0001:0001cc9a       ??1FONT_LIST_ENTRY@@QAE@XZ 0041dc9a f   v5subs:fontclas.obj
 0001:0001ccb2       ??4FONT_CLASS@@QAEXABUtagLOGFONTW@@@Z 0041dcb2 f   v5subs:fontclas.obj
 0001:0001cd15       ??4FONT_CLASS@@QAEXABV0@@Z 0041dd15 f   v5subs:fontclas.obj
 0001:0001cd51       ??8FONT_CLASS@@QAE_NABUtagLOGFONTW@@@Z 0041dd51 f   v5subs:fontclas.obj
 0001:0001cdd6       ??8FONT_CLASS@@QAE_NABV0@@Z 0041ddd6 f   v5subs:fontclas.obj
 0001:0001ce12       ?free_handle@FONT_LIST_CLASS@@QAEXPAUHFONT__@@@Z 0041de12 f   v5subs:fontclas.obj
 0001:0001ce55       ?get@FONT_CLASS@@QAE_NPA_W@Z 0041de55 f   v5subs:fontclas.obj
 0001:0001d009       ?get_handle@FONT_LIST_CLASS@@QAEPAUHFONT__@@ABVFONT_CLASS@@@Z 0041e009 f   v5subs:fontclas.obj
 0001:0001d120       ??0COMPUTER_CLASS@@QAE@XZ  0041e120 f   v5subs:computer.obj
 0001:0001d12b       ?add@COMPUTER_CLASS@@QAEEPA_W@Z 0041e12b f   v5subs:computer.obj
 0001:0001d1d7       ?empty@COMPUTER_CLASS@@QAEXXZ 0041e1d7 f   v5subs:computer.obj
 0001:0001d20b       ?find@COMPUTER_CLASS@@QAEEPA_W@Z 0041e20b f   v5subs:computer.obj
 0001:0001d238       ?is_present@COMPUTER_CLASS@@QAEEXZ 0041e238 f   v5subs:computer.obj
 0001:0001d256       ?is_this_computer@COMPUTER_CLASS@@QAEEXZ 0041e256 f   v5subs:computer.obj
 0001:0001d270       ?load@COMPUTER_CLASS@@QAEEXZ 0041e270 f   v5subs:computer.obj
 0001:0001d399       ?name@COMPUTER_CLASS@@QAEAAVSTRING_CLASS@@XZ 0041e399 f   v5subs:computer.obj
 0001:0001d3a5       ?next@COMPUTER_CLASS@@QAEEXZ 0041e3a5 f   v5subs:computer.obj
 0001:0001d3c8       ?rewind@COMPUTER_CLASS@@QAEXXZ 0041e3c8 f   v5subs:computer.obj
 0001:0001d3cf       ?startup@COMPUTER_CLASS@@QAEEXZ 0041e3cf f   v5subs:computer.obj
 0001:0001d3e4       ?whoami@COMPUTER_CLASS@@QAEAAVSTRING_CLASS@@XZ 0041e3e4 f   v5subs:computer.obj
 0001:0001d3ea       ??1INI_CLASS@@QAE@XZ       0041e3ea f   v5subs:iniclass.obj
 0001:0001d4a3       ?cleanup@INI_CLASS@@QAEXXZ 0041e4a3 f   v5subs:iniclass.obj
 0001:0001d4de       ?find@INI_CLASS@@QAEEPB_W0@Z 0041e4de f   v5subs:iniclass.obj
 0001:0001d541       ?find@INI_CLASS@@QAEEPB_W@Z 0041e541 f   v5subs:iniclass.obj
 0001:0001d55a       ?get_bool@INI_CLASS@@QAE_NPB_W0@Z 0041e55a f   v5subs:iniclass.obj
 0001:0001d55a       ?get_boolean@INI_CLASS@@QAEEPB_W0@Z 0041e55a f   v5subs:iniclass.obj
 0001:0001d57d       ?get_boolean@INI_CLASS@@QAEEPB_W@Z 0041e57d f   v5subs:iniclass.obj
 0001:0001d57d       ?get_bool@INI_CLASS@@QAE_NPB_W@Z 0041e57d f   v5subs:iniclass.obj
 0001:0001d596       ?get_boolean@INI_CLASS@@QAEEXZ 0041e596 f   v5subs:iniclass.obj
 0001:0001d596       ?get_bool@INI_CLASS@@QAE_NXZ 0041e596 f   v5subs:iniclass.obj
 0001:0001d5b8       ?get_int@INI_CLASS@@QAEHPB_W0@Z 0041e5b8 f   v5subs:iniclass.obj
 0001:0001d5db       ?get_int@INI_CLASS@@QAEHPB_W@Z 0041e5db f   v5subs:iniclass.obj
 0001:0001d5f4       ?get_int@INI_CLASS@@QAEHXZ 0041e5f4 f   v5subs:iniclass.obj
 0001:0001d605       ?get_string@INI_CLASS@@QAEPA_WPB_W@Z 0041e605 f   v5subs:iniclass.obj
 0001:0001d634       ?get_string@INI_CLASS@@QAEPA_WXZ 0041e634 f   v5subs:iniclass.obj
 0001:0001d642       ?get_ul@INI_CLASS@@QAEKPB_W@Z 0041e642 f   v5subs:iniclass.obj
 0001:0001d659       ?get_ul@INI_CLASS@@QAEKXZ  0041e659 f   v5subs:iniclass.obj
 0001:0001d66a       ?put_boolean@INI_CLASS@@QAEEPB_W0E@Z 0041e66a f   v5subs:iniclass.obj
 0001:0001d69c       ?put_int@INI_CLASS@@QAEEPB_WH@Z 0041e69c f   v5subs:iniclass.obj
 0001:0001d6e2       ?put_string@INI_CLASS@@QAEEPB_W00@Z 0041e6e2 f   v5subs:iniclass.obj
 0001:0001d731       ?put_string@INI_CLASS@@QAEEPB_W0@Z 0041e731 f   v5subs:iniclass.obj
 0001:0001d74e       ?set_file@INI_CLASS@@QAEEPB_W@Z 0041e74e f   v5subs:iniclass.obj
 0001:0001d790       ?set_section@INI_CLASS@@QAEEPB_W@Z 0041e790 f   v5subs:iniclass.obj
 0001:0001d7c4       ??0LIMIT_SWITCH_WIRE_CLASS@@QAE@XZ 0041e7c4 f   v5subs:limit_switch_class.obj
 0001:0001d7e1       ??1LIMIT_SWITCH_WIRE_CLASS@@QAE@XZ 0041e7e1 f   v5subs:limit_switch_class.obj
 0001:0001d7f9       ?get@LIMIT_SWITCH_WIRE_CLASS@@QAEEAAVSTRING_CLASS@@00@Z 0041e7f9 f   v5subs:limit_switch_class.obj
 0001:0001d94c       ?mask@LIMIT_SWITCH_WIRE_CLASS@@QAEIH@Z 0041e94c f   v5subs:limit_switch_class.obj
 0001:0001d981       ?wire_number@LIMIT_SWITCH_WIRE_CLASS@@QAEHH@Z 0041e981 f   v5subs:limit_switch_class.obj
 0001:0001d99b       ??1LISTBOX_CLASS@@QAE@XZ   0041e99b f   v5subs:listbox.obj
 0001:0001d9ab       ?add@LISTBOX_CLASS@@QAEHPA_W@Z 0041e9ab f   v5subs:listbox.obj
 0001:0001d9ec       ?check_buf_size@LISTBOX_CLASS@@AAEEH@Z 0041e9ec f   v5subs:listbox.obj
 0001:0001da39       ?check_buf_size@LISTBOX_CLASS@@AAEEPA_W@Z 0041ea39 f   v5subs:listbox.obj
 0001:0001da52       ?check_item_size@LISTBOX_CLASS@@AAEEH@Z 0041ea52 f   v5subs:listbox.obj
 0001:0001da89       ?count@LISTBOX_CLASS@@QAEHXZ 0041ea89 f   v5subs:listbox.obj
 0001:0001dab3       ?empty@LISTBOX_CLASS@@QAEXXZ 0041eab3 f   v5subs:listbox.obj
 0001:0001daca       ?init@LISTBOX_CLASS@@QAEEPAUHWND__@@@Z 0041eaca f   v5subs:listbox.obj
 0001:0001db2b       ?init@LISTBOX_CLASS@@QAEEPAUHWND__@@H@Z 0041eb2b f   v5subs:listbox.obj
 0001:0001db48       ?item_text@LISTBOX_CLASS@@QAEPA_WH@Z 0041eb48 f   v5subs:listbox.obj
 0001:0001db90       ?redraw_off@LISTBOX_CLASS@@QAEXXZ 0041eb90 f   v5subs:listbox.obj
 0001:0001db9f       ?redraw_on@LISTBOX_CLASS@@QAEXXZ 0041eb9f f   v5subs:listbox.obj
 0001:0001dbbe       ?selected_index@LISTBOX_CLASS@@QAEHXZ 0041ebbe f   v5subs:listbox.obj
 0001:0001dbe9       ?selected_text@LISTBOX_CLASS@@QAEPA_WXZ 0041ebe9 f   v5subs:listbox.obj
 0001:0001dc07       ?set_current_index@LISTBOX_CLASS@@QAEEH@Z 0041ec07 f   v5subs:listbox.obj
 0001:0001dc2e       ?set_top_index@LISTBOX_CLASS@@QAEEH@Z 0041ec2e f   v5subs:listbox.obj
 0001:0001dc55       ?top_index@LISTBOX_CLASS@@QAEHXZ 0041ec55 f   v5subs:listbox.obj
 0001:0001dc74       ?visible_row_count@LISTBOX_CLASS@@QAEHXZ 0041ec74 f   v5subs:listbox.obj
 0001:0001dcdb       ??0MULTIPART_RUNLIST_SETTINGS_CLASS@@QAE@XZ 0041ecdb f   v5subs:multipart_runlist.obj
 0001:0001dcf1       ??0MULTIPART_RUNLIST_WIRES_CLASS@@QAE@XZ 0041ecf1 f   v5subs:multipart_runlist.obj
 0001:0001dd07       ??1MULTIPART_RUNLIST_SETTINGS_CLASS@@QAE@XZ 0041ed07 f   v5subs:multipart_runlist.obj
 0001:0001dd0f       ??1MULTIPART_RUNLIST_WIRES_CLASS@@QAE@XZ 0041ed0f f   v5subs:multipart_runlist.obj
 0001:0001dd17       ?bits_from_wirelist@@YAIAAVSTRING_CLASS@@@Z 0041ed17 f   v5subs:multipart_runlist.obj
 0001:0001ddd0       ?countchars@STRING_CLASS@@QAEJ_W@Z 0041edd0 f i v5subs:multipart_runlist.obj
 0001:0001ddeb       ?get@MULTIPART_RUNLIST_SETTINGS_CLASS@@QAE_NAAVSTRING_CLASS@@0@Z 0041edeb f   v5subs:multipart_runlist.obj
 0001:0001e0cf       ?get@MULTIPART_RUNLIST_WIRES_CLASS@@QAE_NAAVSTRING_CLASS@@00@Z 0041f0cf f   v5subs:multipart_runlist.obj
 0001:0001e26d       ?get_multipart_runlist_wires_csvname@NAME_CLASS@@QAEEAAVSTRING_CLASS@@0V2@@Z 0041f26d f i v5subs:multipart_runlist.obj
 0001:0001e296       ?get_wirelist@MULTIPART_RUNLIST_SETTINGS_CLASS@@QAE_NAAVSTRING_CLASS@@H@Z 0041f296 f   v5subs:multipart_runlist.obj
 0001:0001e371       ?init@MULTIPART_RUNLIST_SETTINGS_CLASS@@QAEXXZ 0041f371 f   v5subs:multipart_runlist.obj
 0001:0001e379       ?part_selection_number@MULTIPART_RUNLIST_SETTINGS_CLASS@@QAEHAAVSTRING_CLASS@@@Z 0041f379 f   v5subs:multipart_runlist.obj
 0001:0001e43d       ?part_to_run@MULTIPART_RUNLIST_SETTINGS_CLASS@@QAE_NAAVSTRING_CLASS@@00I@Z 0041f43d f   v5subs:multipart_runlist.obj
 0001:0001e507       ??0MACHINE_CLASS@@QAE@XZ   0041f507 f   v5subs:machine.obj
 0001:0001e56e       ?find@MACHINE_CLASS@@QAEEAAVSTRING_CLASS@@0@Z 0041f56e f   v5subs:machine.obj
 0001:0001e7ce       ?has_binary_valve@MACHINE_CLASS@@QAEEXZ 0041f7ce f   v5subs:machine.obj
 0001:0001e7d7       ?init@MACHINE_CLASS@@QAEXXZ 0041f7d7 f   v5subs:machine.obj
 0001:0001e860       ?init_save_counts@@YAXPAUSAVE_COUNTS@@@Z 0041f860 f   v5subs:machine.obj
 0001:0001e879       ?ls_off_at_eos@MACHINE_CLASS@@QAEEXZ 0041f879 f   v5subs:machine.obj
 0001:0001e880       ?read_machset_db@MACHINE_CLASS@@QAEEAAVSTRING_CLASS@@@Z 0041f880 f   v5subs:machine.obj
 0001:0001ee39       ??1GENERIC_LIST_CLASS@@QAE@XZ 0041fe39 f   v5subs:genlist.obj
 0001:0001ee5b       ?append@GENERIC_LIST_CLASS@@QAEEPAX@Z 0041fe5b f   v5subs:genlist.obj
 0001:0001ee91       ?count@GENERIC_LIST_CLASS@@QAEFXZ 0041fe91 f   v5subs:genlist.obj
 0001:0001ee9d       ?find@GENERIC_LIST_CLASS@@QAEEPAX@Z 0041fe9d f   v5subs:genlist.obj
 0001:0001eed5       ?insert@GENERIC_LIST_CLASS@@QAEEPAX@Z 0041fed5 f   v5subs:genlist.obj
 0001:0001ef25       ?next@GENERIC_LIST_CLASS@@QAEPAXXZ 0041ff25 f   v5subs:genlist.obj
 0001:0001ef4f       ?remove@GENERIC_LIST_CLASS@@QAEEPAX@Z 0041ff4f f   v5subs:genlist.obj
 0001:0001ef6e       ?remove@GENERIC_LIST_CLASS@@QAEEXZ 0041ff6e f   v5subs:genlist.obj
 0001:0001ef9d       ?remove_all@GENERIC_LIST_CLASS@@QAEXXZ 0041ff9d f   v5subs:genlist.obj
 0001:0001efc6       ?rewind@GENERIC_LIST_CLASS@@QAEXXZ 0041ffc6 f   v5subs:genlist.obj
 0001:0001efcf       ??0MACHINE_NAME_LIST_CLASS@@QAE@XZ 0041ffcf f   v5subs:machname.obj
 0001:0001efcf       ??0TEXT_LIST_CLASS@@QAE@XZ 0041ffcf f   v5subs:textlist.obj
 0001:0001efdf       ??1MACHINE_NAME_LIST_CLASS@@QAE@XZ 0041ffdf f   v5subs:machname.obj
 0001:0001eff0       ??_GMACHINE_NAME_LIST_ENTRY@@QAEPAXI@Z 0041fff0 f i v5subs:machname.obj
 0001:0001f016       ?add_computer@MACHINE_NAME_LIST_CLASS@@QAEEAAVSTRING_CLASS@@@Z 00420016 f   v5subs:machname.obj
 0001:0001f178       ?computer_name@MACHINE_NAME_LIST_CLASS@@QAEAAVSTRING_CLASS@@XZ 00420178 f   v5subs:machname.obj
 0001:0001f184       ?empty@MACHINE_NAME_LIST_CLASS@@QAEXXZ 00420184 f   v5subs:machname.obj
 0001:0001f1b0       ?name@MACHINE_NAME_LIST_CLASS@@QAEAAVSTRING_CLASS@@XZ 004201b0 f   v5subs:machname.obj
 0001:0001f1c0       ??0BLOCK_MESSAGE_CLASS@@QAE@XZ 004201c0 f   v5subs:msgclas.obj
 0001:0001f1cd       ??1BLOCK_MESSAGE_CLASS@@QAE@XZ 004201cd f   v5subs:msgclas.obj
 0001:0001f1dd       ?cleanup@BLOCK_MESSAGE_CLASS@@QAEXXZ 004201dd f   v5subs:msgclas.obj
 0001:0001f214       ?load@BLOCK_MESSAGE_CLASS@@QAEEPA_W@Z 00420214 f   v5subs:msgclas.obj
 0001:0001f312       ?message@BLOCK_MESSAGE_CLASS@@QAEPA_WJ@Z 00420312 f   v5subs:msgclas.obj
 0001:0001f6f1       ?register_vtww_opto_control@@YAXXZ 004206f1 f   v5subs:optocontrol.obj
 0001:0001f86f       ?shutdown_vtww_opto_control@@YAXXZ 0042086f f   v5subs:optocontrol.obj
 0001:0001f8ba       ?vtww_opto_proc@@YGJPAUHWND__@@IIJ@Z 004208ba f   v5subs:optocontrol.obj
 0001:0001f9d0       ??0STATIC_TEXT_PARAMETER_CLASS@@QAE@XZ 004209d0 f   v5subs:static_text_parameter.obj
 0001:0001f9ed       ??1STATIC_TEXT_PARAMETER_CLASS@@QAE@XZ 004209ed f   v5subs:static_text_parameter.obj
 0001:0001fa00       ?clear@STATIC_TEXT_PARAMETER_CLASS@@QAEXXZ 00420a00 f   v5subs:static_text_parameter.obj
 0001:0001fa1b       ?get@STATIC_TEXT_PARAMETER_CLASS@@QAEEH@Z 00420a1b f   v5subs:static_text_parameter.obj
 0001:0001fafd       ?init@STATIC_TEXT_PARAMETER_CLASS@@QAEEAAVSTRING_CLASS@@00@Z 00420afd f   v5subs:static_text_parameter.obj
 0001:0001fb02       ?put@STATIC_TEXT_PARAMETER_CLASS@@QAEEH@Z 00420b02 f   v5subs:static_text_parameter.obj
 0001:0001fcf4       ??0PARAMETER_CLASS@@QAE@XZ 00420cf4 f   v5subs:param.obj
 0001:0001fd3b       ??0PARAMETER_ENTRY@@QAE@XZ 00420d3b f i v5subs:param.obj
 0001:0001fd69       ?count@PARAMETER_CLASS@@QAEFXZ 00420d69 f   v5subs:param.obj
 0001:0001fd8a       ?find@PARAMETER_CLASS@@QAEEAAVSTRING_CLASS@@00@Z 00420d8a f   v5subs:param.obj
 0001:0001fe48       ?has_alarm_limits@PARAMETER_ENTRY@@QAEEXZ 00420e48 f   v5subs:param.obj
 0001:0001fe5f       ?has_any_wire_limits@PARAMETER_ENTRY@@QAEEXZ 00420e5f f   v5subs:param.obj
 0001:0001feba       ?has_warning_limits@PARAMETER_ENTRY@@QAEEXZ 00420eba f   v5subs:param.obj
 0001:0001fed1       ?init@PARAMETER_CLASS@@QAEXF@Z 00420ed1 f   v5subs:param.obj
 0001:0001ff49       ?is_alarm@PARAMETER_ENTRY@@QAEEM@Z 00420f49 f   v5subs:param.obj
 0001:0001ffe6       ?is_warning@PARAMETER_ENTRY@@QAEEM@Z 00420fe6 f   v5subs:param.obj
 0001:00020015       ?read_param_csv@PARAMETER_CLASS@@QAEEAAVSTRING_CLASS@@@Z 00421015 f   v5subs:param.obj
 0001:000202c0       ?read_param_db@PARAMETER_CLASS@@QAEEAAVSTRING_CLASS@@@Z 004212c0 f   v5subs:param.obj
 0001:00020472       ?save@PARAMETER_CLASS@@QAEEXZ 00421472 f   v5subs:param.obj
 0001:00020683       ??0DOUBLE_ARRAY_CLASS@@QAE@XZ 00421683 f   v5subs:array.obj
 0001:00020683       ??0SETPOINT_CLASS@@QAE@XZ  00421683 f   v5subs:setpoint.obj
 0001:0002068d       ??1SETPOINT_CLASS@@QAE@XZ  0042168d f   v5subs:setpoint.obj
 0001:00020692       ??4SETPOINT_CLASS@@QAEXABV0@@Z 00421692 f   v5subs:setpoint.obj
 0001:000206e5       ??4SETPOINT_ENTRY@@QAEXABU0@@Z 004216e5 f   v5subs:setpoint.obj
 0001:00020706       ??ASETPOINT_CLASS@@QAEAAUSETPOINT_ENTRY@@H@Z 00421706 f   v5subs:setpoint.obj
 0001:00020722       ??_ESETPOINT_ENTRY@@QAEPAXI@Z 00421722 f i v5subs:setpoint.obj
 0001:0002078b       ?cleanup@SETPOINT_CLASS@@QAEXXZ 0042178b f   v5subs:setpoint.obj
 0001:000207a6       ?get@SETPOINT_CLASS@@QAEHAAVSTRING_CLASS@@@Z 004217a6 f   v5subs:setpoint.obj
 0001:000207bd       ?get_one_value@SETPOINT_CLASS@@QAEEAAVSTRING_CLASS@@0H@Z 004217bd f   v5subs:setpoint.obj
 0001:0002083a       ?getfrom@SETPOINT_CLASS@@QAEHAAVSTRING_CLASS@@@Z 0042183a f   v5subs:setpoint.obj
 0001:00020930       ?put@SETPOINT_CLASS@@QAEEAAVSTRING_CLASS@@@Z 00421930 f   v5subs:setpoint.obj
 0001:00020a17       ?setsize@SETPOINT_CLASS@@QAEEH@Z 00421a17 f   v5subs:setpoint.obj
 0001:00020b14       ??0PART_CLASS@@QAE@XZ      00421b14 f   v5subs:part.obj
 0001:00020b4a       ??1PART_CLASS@@QAE@XZ      00421b4a f   v5subs:part.obj
 0001:00020b78       ?find@PART_CLASS@@QAEEAAVSTRING_CLASS@@00@Z 00421b78 f   v5subs:part.obj
 0001:00020eb6       ?init@PART_CLASS@@QAEXXZ   00421eb6 f   v5subs:part.obj
 0001:00020fdc       ?plunger_area@PART_CLASS@@QAENXZ 00421fdc f   v5subs:part.obj
 0001:00021027       ?read_ftchan_db@PART_CLASS@@QAEEAAVSTRING_CLASS@@@Z 00422027 f   v5subs:part.obj
 0001:000210cd       ?read_part_setup@PART_CLASS@@QAEEAAVSTRING_CLASS@@@Z 004220cd f   v5subs:part.obj
 0001:00021130       ?read_x4_divisor@PART_CLASS@@QAEEXZ 00422130 f   v5subs:part.obj
 0001:00021287       ?update@PART_CLASS@@QAEEXZ 00422287 f   v5subs:part.obj
 0001:000216bb       ?velocity_from_x4@PART_CLASS@@QAENN@Z 004226bb f   v5subs:part.obj
 0001:000216df       ??0RECTANGLE_CLASS@@QAE@XZ 004226df f   v5subs:rectclas.obj
 0001:000216df       ??0RACETRACK_CLASS@@QAE@XZ 004226df f   board_monitor.obj
 0001:000216ef       ??1SOURCE_DATA@@QAE@XZ     004226ef f   v5subs:ftcalc.obj
 0001:000216ef       ??1SHIFT_CLASS@@QAE@XZ     004226ef f   v5subs:shift.obj
 0001:000216ef       ??1SURETRAK_PARAM_CLASS@@QAE@XZ 004226ef f   v5subs:stparam.obj
 0001:000216ef       ??1ANALOG_SENSOR@@QAE@XZ   004226ef f   v5subs:asensor.obj
 0001:000216ef       ??1RECTANGLE_CLASS@@QAE@XZ 004226ef f   v5subs:rectclas.obj
 0001:000216ef       ??1FONT_CLASS@@QAE@XZ      004226ef f   v5subs:fontclas.obj
 0001:000216f0       ??4RECTANGLE_CLASS@@QAEXABV0@@Z 004226f0 f   v5subs:rectclas.obj
 0001:0002170d       ?contains@RECTANGLE_CLASS@@QAEEABUtagPOINT@@@Z 0042270d f   v5subs:rectclas.obj
 0001:00021732       ?draw@RECTANGLE_CLASS@@QAEXPAUHDC__@@@Z 00422732 f   v5subs:rectclas.obj
 0001:00021777       ?draw@RECTANGLE_CLASS@@QAEXPAUHDC__@@K@Z 00422777 f   v5subs:rectclas.obj
 0001:000217bc       ?fill@RECTANGLE_CLASS@@QAEXPAUHDC__@@K@Z 004227bc f   v5subs:rectclas.obj
 0001:000217fe       ?fill@RECTANGLE_CLASS@@QAEXPAUHDC__@@PAUHBRUSH__@@@Z 004227fe f   v5subs:rectclas.obj
 0001:00021810       ?moveto@RECTANGLE_CLASS@@QAEXJJ@Z 00422810 f   v5subs:rectclas.obj
 0001:00021831       ?offset@RECTANGLE_CLASS@@QAEXJJ@Z 00422831 f   v5subs:rectclas.obj
 0001:00021847       ?setsize@RECTANGLE_CLASS@@QAEXJJ@Z 00422847 f   v5subs:rectclas.obj
 0001:00021847       ?setsize@RECTANGLE_CLASS@@QAEXUtagSIZE@@@Z 00422847 f   v5subs:rectclas.obj
 0001:0002185d       ??0SURETRAK_PARAM_CLASS@@QAE@XZ 0042285d f   v5subs:stparam.obj
 0001:000218a3       ?find@SURETRAK_PARAM_CLASS@@QAEEAAVSTRING_CLASS@@0@Z 004228a3 f   v5subs:stparam.obj
 0001:00021999       ??0STRINGTABLE_CLASS@@QAE@XZ 00422999 f   v5subs:stringtable.obj
 0001:000219d8       ??1STRINGTABLE_CLASS@@QAE@XZ 004229d8 f   v5subs:stringtable.obj
 0001:000219f1       ??_ESTRINGTABLE_ENTRY@@QAEPAXI@Z 004229f1 f i v5subs:stringtable.obj
 0001:00021a41       ?acquire@STRINGTABLE_ENTRY@@QAEXAAV1@@Z 00422a41 f   v5subs:stringtable.obj
 0001:00021a62       ?append@STRINGTABLE_CLASS@@QAE_NAAVSTRING_CLASS@@@Z 00422a62 f   v5subs:stringtable.obj
 0001:00021cea       ?cleanup@STRINGTABLE_CLASS@@QAEXXZ 00422cea f   v5subs:stringtable.obj
 0001:00021d09       ?cleanup@STRINGTABLE_ENTRY@@QAEXXZ 00422d09 f   v5subs:stringtable.obj
 0001:00021d31       ?find@STRINGTABLE_CLASS@@QAEPA_WPA_W@Z 00422d31 f   v5subs:stringtable.obj
 0001:00021db8       ?read@STRINGTABLE_CLASS@@QAE_NAAVSTRING_CLASS@@@Z 00422db8 f   v5subs:stringtable.obj
 0001:00021e10       ??0PRESSURE_CONTROL_CLASS@@QAE@XZ 00422e10 f   v5subs:stpres.obj
 0001:00021e75       ??0PRES_CONTROL_STEP_ENTRY@@QAE@XZ 00422e75 f i v5subs:stpres.obj
 0001:00021e91       ??1PRESSURE_CONTROL_CLASS@@QAE@XZ 00422e91 f   v5subs:stpres.obj
 0001:00021eef       ??1PRES_CONTROL_STEP_ENTRY@@QAE@XZ 00422eef f i v5subs:stpres.obj
 0001:00021f0a       ?find@PRESSURE_CONTROL_CLASS@@QAEEAAVSTRING_CLASS@@00@Z 00422f0a f   v5subs:stpres.obj
 0001:000221b5       ?init@PRESSURE_CONTROL_CLASS@@QAEXXZ 004231b5 f   v5subs:stpres.obj
 0001:00022240       ?boolean_from_ini@@YAEPB_W00@Z 00423240 f   v5subs:get_ini.obj
 0001:00022262       ?get_ini_string@@YAPA_WPB_W00@Z 00423262 f   v5subs:get_ini.obj
 0001:00022288       ?get_long_ini_string@@YAPA_WPB_W00@Z 00423288 f   v5subs:get_ini.obj
 0001:000222fd       ?int32_from_ini@@YAJPB_W00@Z 004232fd f   v5subs:get_ini.obj
 0001:00022318       ?catstring@@YAPA_WPA_WPB_W@Z 00423318 f   v5subs:mem.obj
 0001:00022339       ?char_to_tchar@@YAXPA_WPADH@Z 00423339 f   v5subs:mem.obj
 0001:0002238c       ?charlen@@YAFPB_WF@Z       0042338c f   v5subs:mem.obj
 0001:000223b3       ?compare@@YAFPB_W0F@Z      004233b3 f   v5subs:mem.obj
 0001:0002241b       ?copy_w_char@@YAPA_WPA_W0_W@Z 0042341b f   v5subs:mem.obj
 0001:00022436       ?copychars@@YAXPA_WPB_WF@Z 00423436 f   v5subs:mem.obj
 0001:0002245c       ?copyfromstr@@YAXPA_WPB_WF@Z 0042345c f   v5subs:mem.obj
 0001:0002249f       ?copystring@@YAPA_WPA_WPB_W@Z 0042349f f   v5subs:mem.obj
 0001:000224e2       ?copystring@@YAPA_WPA_WPB_WH@Z 004234e2 f   v5subs:mem.obj
 0001:00022530       ?countchars@@YAJ_WPB_W@Z   00423530 f   v5subs:mem.obj
 0001:0002254e       ?fillchars@@YAXPA_W_WF@Z   0042354e f   v5subs:mem.obj
 0001:00022579       ?find_last_string@@YAPA_WPB_WPA_W@Z 00423579 f   v5subs:mem.obj
 0001:00022623       ?findchar@@YAPB_W_WPB_W@Z  00423623 f   v5subs:mem.obj
 0001:00022623       ?findchar@@YAPA_W_WPA_W@Z  00423623 f   v5subs:mem.obj
 0001:0002263e       ?findchar@@YAPA_W_WPA_WF@Z 0042363e f   v5subs:mem.obj
 0001:00022669       ?findstring@@YAPA_WPB_WPA_W@Z 00423669 f   v5subs:mem.obj
 0001:000226e7       ?insert_char@@YAXPA_W_W@Z  004236e7 f   v5subs:mem.obj
 0001:00022715       ?killtext@@YAXPA_W@Z       00423715 f   v5subs:mem.obj
 0001:00022721       ?maketext@@YAPA_WJ@Z       00423721 f   v5subs:mem.obj
 0001:0002274a       ?maketext@@YAPA_WPB_W@Z    0042374a f   v5subs:mem.obj
 0001:00022758       ?maketext@@YAPA_WPB_WJ@Z   00423758 f   v5subs:mem.obj
 0001:0002278b       ?maketext_from_char@@YAPA_WPADH@Z 0042378b f   v5subs:mem.obj
 0001:000227d2       ?move_string_forward@@YAXPA_WH@Z 004237d2 f   v5subs:mem.obj
 0001:00022808       ?nextstring@@YAPA_WPA_W@Z  00423808 f   v5subs:mem.obj
 0001:0002281c       ?remove_all_occurances@@YAXPA_W_W@Z 0042381c f   v5subs:mem.obj
 0001:00022844       ?remove_char@@YAXPA_W@Z    00423844 f   v5subs:mem.obj
 0001:0002286a       ?replace_char_with_null@@YAEPA_WPB_W@Z 0042386a f   v5subs:mem.obj
 0001:000228b6       ?replace_char_with_null@@YAEPA_W_W@Z 004238b6 f   v5subs:mem.obj
 0001:000228e5       ?replace_tab_with_null@@YAEPA_W@Z 004238e5 f   v5subs:mem.obj
 0001:000228f9       ?start_chars_are_equal@@YA_NPB_W0@Z 004238f9 f   v5subs:mem.obj
 0001:0002292f       ?strings_are_equal@@YAEPB_W0@Z 0042392f f   v5subs:mem.obj
 0001:00022964       ?strings_are_equal@@YAEPB_W0F@Z 00423964 f   v5subs:mem.obj
 0001:00022980       ?strip@@YAXPA_W@Z          00423980 f   v5subs:mem.obj
 0001:000229b1       ?tchar_to_int@@YAH_W@Z     004239b1 f   v5subs:mem.obj
 0001:000229c7       ?trim@@YAXPA_W@Z           004239c7 f   v5subs:mem.obj
 0001:000229f9       ?ul_to_char@@YADK@Z        004239f9 f   v5subs:mem.obj
 0001:000229fe       ?unicode_to_char@@YAXPADPA_W@Z 004239fe f   v5subs:mem.obj
 0001:00022a22       ?upper_case@@YAXAA_W@Z     00423a22 f   v5subs:mem.obj
 0001:00022a46       ?upper_case@@YAXPA_W@Z     00423a46 f   v5subs:mem.obj
 0001:00022a77       ?utoi@@YAHI@Z              00423a77 f   v5subs:mem.obj
 0001:00022a7c       ??0EVENT_ENTRY@@QAE@XZ     00423a7c f i v5subs:client.obj
 0001:00022a93       ??_GEVENT_ENTRY@@QAEPAXI@Z 00423a93 f i v5subs:client.obj
 0001:00022ab9       ?client_dde_shutdown@@YAXXZ 00423ab9 f   v5subs:client.obj
 0001:00022b75       ?client_dde_startup@@YAXPAUHWND__@@@Z 00423b75 f   v5subs:client.obj
 0001:00022b97       ?client_dde_startup@@YAXXZ 00423b97 f   v5subs:client.obj
 0001:00022c2b       ?connect_to_server@@YAPAUHCONV__@@PA_W@Z 00423c2b f   v5subs:client.obj
 0001:00022c8e       ?connect_to_server@@YAXXZ  00423c8e f   v5subs:client.obj
 0001:00022cf6       ?dde_callback@@YGPAUHDDEDATA__@@IIPAUHCONV__@@PAUHSZ__@@1PAU1@KK@Z 00423cf6 f   v5subs:client.obj
 0001:00022df4       ?find_conversation@@YAPAUEVENT_ENTRY@@PAUHCONV__@@@Z 00423df4 f   v5subs:client.obj
 0001:00022e8f       ?get_current_password_level@@YAXXZ 00423e8f f   v5subs:client.obj
 0001:00022ed4       ?hot_links@@YAXPAUEVENT_ENTRY@@I@Z 00423ed4 f   v5subs:client.obj
 0001:00022f0d       ?one_hot_link@@YAXPAUHCONV__@@FI@Z 00423f0d f   v5subs:client.obj
 0001:00022f74       ?poke_data@@YAXPA_W00@Z    00423f74 f   v5subs:client.obj
 0001:0002306f       ?register_for_event@@YAXPA_WFP6AX0FPAUHDDEDATA__@@@Z@Z 0042406f f   v5subs:client.obj
 0001:00023142       ?unregister_for_event@@YAXPA_WF@Z 00424142 f   v5subs:client.obj
 0001:000231e6       ?dcurve_shutdown@@YAXXZ    004241e6 f   v5subs:dcurve.obj
 0001:000231eb       ?dcurve_startup@@YAEXZ     004241eb f   v5subs:dcurve.obj
 0001:000231f0       ?get_dcurve_coefficients@@YAEAAN0H@Z 004241f0 f   v5subs:dcurve.obj
 0001:0002338a       ?execute_and_wait@@YAEPA_W0@Z 0042438a f   v5subs:execwait.obj
 0001:000233a0       ?execute_and_wait@@YAEPA_W0K@Z 004243a0 f   v5subs:execwait.obj
 0001:0002341b       ?exe_directory@@YAPB_WXZ   0042441b f   v5subs:gexedir.obj
 0001:00023441       ?get_exe_directory@@YAEPA_W@Z 00424441 f   v5subs:gexedir.obj
 0001:0002352a       ?fix_dde_name@@YAXPA_W@Z   0042452a f   v5subs:fix.obj
 0001:00023559       ?fixed_string@@YAPA_WNJJ@Z 00424559 f   v5subs:ftoasc.obj
 0001:0002369d       ?position_string@@YAPA_WN@Z 0042469d f   v5subs:ftoasc.obj
 0001:000237ca       ?average_character_width@@YAJPAUHDC__@@@Z 004247ca f   v5subs:winsubs.obj
 0001:000237f9       ?character_height@@YAJPAUHDC__@@@Z 004247f9 f   v5subs:winsubs.obj
 0001:00023828       ?free_megabytes@@YAJPB_W@Z 00424828 f   v5subs:winsubs.obj
 0001:00023872       ?get_text@@YAEPA_WPAUHWND__@@H@Z 00424872 f   v5subs:winsubs.obj
 0001:0002389b       ?is_a_listbox@@YAEPAUHWND__@@@Z 0042489b f   v5subs:winsubs.obj
 0001:00023909       ?is_checked@@YAEPAUHWND__@@@Z 00424909 f   v5subs:winsubs.obj
 0001:00023924       ?is_checked@@YAEPAUHWND__@@H@Z 00424924 f   v5subs:winsubs.obj
 0001:0002393a       ?is_previous_instance@@YAEPA_W0@Z 0042493a f   v5subs:winsubs.obj
 0001:00023967       ?pixel_width@@YAJPAUHDC__@@PA_W@Z 00424967 f   v5subs:winsubs.obj
 0001:0002398d       ?resource_message_box@@YAHPAUHINSTANCE__@@III@Z 0042498d f   v5subs:winsubs.obj
 0001:000239a8       ?resource_message_box@@YAHPAUHWND__@@PAUHINSTANCE__@@III@Z 004249a8 f   v5subs:winsubs.obj
 0001:00023a41       ?resource_string@@YAPA_WPAUHINSTANCE__@@I@Z 00424a41 f   v5subs:winsubs.obj
 0001:00023a6f       ?set_checkbox@@YAXPAUHWND__@@E@Z 00424a6f f   v5subs:winsubs.obj
 0001:00023a8b       ?set_listbox_tabs_from_title_positions@@YAXPAUHWND__@@IPAHH@Z 00424a8b f   v5subs:winsubs.obj
 0001:00023ba3       ?set_menu_view_state@@YAXAAEPAUHWND__@@I@Z 00424ba3 f   v5subs:winsubs.obj
 0001:00023bcb       ?set_text@@YAEPAUHWND__@@HPB_W@Z 00424bcb f   v5subs:winsubs.obj
 0001:00023be6       ?set_text@@YAEPAUHWND__@@PB_W@Z 00424be6 f   v5subs:winsubs.obj
 0001:00023c0f       ?hextoul@@YAKPB_W@Z        00424c0f f   v5subs:hex.obj
 0001:00023c86       ?is_hex_char@@YAE_W@Z      00424c86 f   v5subs:hex.obj
 0001:00023ca6       ?ultohex@@YAPA_WK@Z        00424ca6 f   v5subs:hex.obj
 0001:00023cb8       ?ultohex@@YAXPA_WK@Z       00424cb8 f   v5subs:hex.obj
 0001:00023ccb       ?insalph@@YAXPA_WJJ_WJ@Z   00424ccb f   v5subs:insalph.obj
 0001:00023d1c       ?alphadate@@YAEPA_WABU_SYSTEMTIME@@@Z 00424d1c f   v5subs:time.obj
 0001:00023d7d       ?alphadate@@YAPA_WABU_SYSTEMTIME@@@Z 00424d7d f   v5subs:time.obj
 0001:00023d93       ?alphatime@@YAEPA_WABU_SYSTEMTIME@@@Z 00424d93 f   v5subs:time.obj
 0001:00023df5       ?alphatime@@YAPA_WABU_SYSTEMTIME@@@Z 00424df5 f   v5subs:time.obj
 0001:00023e0b       ?dofyr@@YAGABU_SYSTEMTIME@@@Z 00424e0b f   v5subs:time.obj
 0001:00023e26       ?dofyr@@YAGGGG@Z           00424e26 f   v5subs:time.obj
 0001:00023e76       ?exthms@@YAEAAU_SYSTEMTIME@@PB_W@Z 00424e76 f   v5subs:time.obj
 0001:00023eda       ?extmdy@@YAEAAU_SYSTEMTIME@@PB_W@Z 00424eda f   v5subs:time.obj
 0001:00023f58       ?init_systemtime_struct@@YAXAAU_SYSTEMTIME@@@Z 00424f58 f   v5subs:time.obj
 0001:00023f6c       ?is_leap_year@@YAEG@Z      00424f6c f   v5subs:time.obj
 0001:00023fa6       ?is_numeric@@YAE_W@Z       00424fa6 f   v5subs:time.obj
 0001:00023fc7       ?sec_since1990@@YAJAAU_SYSTEMTIME@@@Z 00424fc7 f   v5subs:time.obj
 0001:00024038       ?seconds_difference@@YAJAAU_FILETIME@@0@Z 00425038 f   v5subs:time.obj
 0001:00024098       ?maxint@@YAXAAHH@Z         00425098 f   v5subs:maximize.obj
 0001:000240a7       ?minint@@YAXAAHH@Z         004250a7 f   v5subs:maximize.obj
 0001:000240b6       ?rjust@@YAXPA_WF_W@Z       004250b6 f   v5subs:rjust.obj
 0001:000240fd       ?ascii_to_bool@@YA_NPA_W@Z 004250fd f   v5subs:misc.obj
 0001:0002411c       ?mask_from_wire@@YAII@Z    0042511c f   v5subs:misc.obj
 0001:0002412b       ?round@@YANNN@Z            0042512b f   v5subs:misc.obj
 0001:0002416f       ?unknown@@YAEPA_W@Z        0042516f f   v5subs:misc.obj
 0001:00024185       ?unknown_string@@YAPA_WXZ  00425185 f   v5subs:misc.obj
 0001:0002418b       ?wire_from_mask@@YAII@Z    0042518b f   v5subs:misc.obj
 0001:000241a0       ?double_to_tchar@@YA_NPA_WNH@Z 004251a0 f   v5subs:dtotchar.obj
 0001:000242cf       ?rounded_double_to_tchar@@YA_NPA_WN@Z 004252cf f   v5subs:dtotchar.obj
 0001:0002437d       ?dow_from_string@@YAFPA_W@Z 0042537d f   v5subs:shift.obj
 0001:000243eb       ?get_shift_number_and_date@@YAXPAFPAU_SYSTEMTIME@@ABU1@@Z 004253eb f   v5subs:shift.obj
 0001:0002445b       ?minutes_past_sunday@@YAFABU_SYSTEMTIME@@@Z 0042545b f   v5subs:shift.obj
 0001:00024476       ?read@SHIFT_CLASS@@QAEEAAVDB_TABLE@@GG@Z 00425476 f   v5subs:shift.obj
 0001:000244e3       ?set_start_of_shift@SHIFT_CLASS@@QAEEABU_SYSTEMTIME@@F@Z 004254e3 f   v5subs:shift.obj
 0001:00024705       ?shift_number@@YAFPAFABU_SYSTEMTIME@@@Z 00425705 f   v5subs:shift.obj
 0001:0002475a       ?shifts_shutdown@@YAXXZ    0042575a f   v5subs:shift.obj
 0001:0002476b       ?shifts_startup@@YAEXZ     0042576b f   v5subs:shift.obj
 0001:00024950       ?units_name@@YAPA_WF@Z     00425950 f   v5subs:units.obj
 0001:00024977       ?units_shutdown@@YAXXZ     00425977 f   v5subs:units.obj
 0001:0002498f       ?units_startup@@YAEXZ      0042598f f   v5subs:units.obj
 0001:00024ae2       ?hourglass_cursor@@YAXXZ   00425ae2 f   v5subs:hourglas.obj
 0001:00024b0f       ?restore_cursor@@YAXXZ     00425b0f f   v5subs:hourglas.obj
 0001:00024b32       ?center_temp_message@@YAXXZ 00425b32 f   v5subs:temp_message.obj
 0001:00024b3a       ?kill_temp_message@@YAXXZ  00425b3a f   v5subs:temp_message.obj
 0001:00024d0c       ?register_temp_message@@YAXXZ 00425d0c f   v5subs:temp_message.obj
 0001:00024d72       ?temp_message@@YAXPA_W@Z   00425d72 f   v5subs:temp_message.obj
 0001:00024d83       ?temp_message@@YAXPA_WH@Z  00425d83 f   v5subs:temp_message.obj
 0001:00024e3b       ?temp_message_proc@@YGJPAUHWND__@@IIJ@Z 00425e3b f   v5subs:temp_message.obj
 0001:00024f02       ??1TEXT_LIST_CLASS@@QAE@XZ 00425f02 f   v5subs:textlist.obj
 0001:00024f13       ?append@TEXT_LIST_CLASS@@QAEEPA_WJ@Z 00425f13 f   v5subs:textlist.obj
 0001:00024f8a       ?empty@TEXT_LIST_CLASS@@QAEXXZ 00425f8a f   v5subs:textlist.obj
 0001:00024fb5       ?get_directory_list@TEXT_LIST_CLASS@@QAEXPB_W@Z 00425fb5 f   v5subs:textlist.obj
 0001:0002506b       ?next@MACHINE_NAME_LIST_CLASS@@QAEEXZ 0042606b f   v5subs:machname.obj
 0001:0002506b       ?next@TEXT_LIST_CLASS@@QAEEXZ 0042606b f   v5subs:textlist.obj
 0001:0002507f       ?remove@TEXT_LIST_CLASS@@QAEEXZ 0042607f f   v5subs:textlist.obj
 0001:000250a2       ??4TIME_CLASS@@QAEXPB_W@Z  004260a2 f   v5subs:timeclas.obj
 0001:0002512c       ??GTIME_CLASS@@QAEJABV0@@Z 0042612c f   v5subs:timeclas.obj
 0001:00025139       ??ZTIME_CLASS@@QAEXK@Z     00426139 f   v5subs:timeclas.obj
 0001:0002514f       ?dd@TIME_CLASS@@QAEPA_WXZ  0042614f f   v5subs:timeclas.obj
 0001:0002515e       ?file_time@TIME_CLASS@@QAEAAU_FILETIME@@XZ 0042615e f   v5subs:timeclas.obj
 0001:000251a0       ?get@TIME_CLASS@@QAEEAAU_SYSTEMTIME@@@Z 004261a0 f   v5subs:timeclas.obj
 0001:0002529b       ?get_local_time@TIME_CLASS@@QAEXXZ 0042629b f   v5subs:timeclas.obj
 0001:000252d2       ?hh@TIME_CLASS@@QAEPA_WXZ  004262d2 f   v5subs:timeclas.obj
 0001:000252de       ?hhmmss@TIME_CLASS@@QAEPA_WXZ 004262de f   v5subs:timeclas.obj
 0001:0002534b       ?jjj@TIME_CLASS@@QAEPA_WXZ 0042634b f   v5subs:timeclas.obj
 0001:000253e4       ?mi@TIME_CLASS@@QAEPA_WXZ  004263e4 f   v5subs:timeclas.obj
 0001:000253f3       ?mm@TIME_CLASS@@QAEPA_WXZ  004263f3 f   v5subs:timeclas.obj
 0001:000253ff       ?mmddyyyy@TIME_CLASS@@QAEPA_WXZ 004263ff f   v5subs:timeclas.obj
 0001:00025448       ?mmm@TIME_CLASS@@QAEPA_WXZ 00426448 f   v5subs:timeclas.obj
 0001:0002547d       ?set@TIME_CLASS@@QAEEABU_FILETIME@@@Z 0042647d f   v5subs:timeclas.obj
 0001:000254bc       ?set@TIME_CLASS@@QAEEABU_SYSTEMTIME@@@Z 004264bc f   v5subs:timeclas.obj
 0001:0002555d       ?set_time@TIME_CLASS@@QAEXPB_W@Z 0042655d f   v5subs:timeclas.obj
 0001:000255b2       ?system_time@TIME_CLASS@@QAEAAU_SYSTEMTIME@@XZ 004265b2 f   v5subs:timeclas.obj
 0001:000255c2       ?text@TIME_CLASS@@QAEPA_WXZ 004265c2 f   v5subs:timeclas.obj
 0001:0002562a       ?yy@TIME_CLASS@@QAEPA_WXZ  0042662a f   v5subs:timeclas.obj
 0001:00025639       ?yyyy@TIME_CLASS@@QAEPA_WXZ 00426639 f   v5subs:timeclas.obj
 0001:00025642       ??_EWINDOW_CLASS@@UAEPAXI@Z 00426642 f i v5subs:wclass.obj
 0001:00025690       ?destroy@WINDOW_CLASS@@QAEXXZ 00426690 f   v5subs:wclass.obj
 0001:000256a8       ?enable@WINDOW_CLASS@@QAEX_N@Z 004266a8 f   v5subs:wclass.obj
 0001:000256a8       ?enable@WINDOW_CLASS@@QAEXE@Z 004266a8 f   v5subs:wclass.obj
 0001:000256c4       ?get_move_rect@WINDOW_CLASS@@QAEHAAUtagRECT@@@Z 004266c4 f   v5subs:wclass.obj
 0001:00025758       ?getrect@WINDOW_CLASS@@QAEHAAUtagRECT@@@Z 00426758 f   v5subs:wclass.obj
 0001:00025779       ?is_minimized@WINDOW_CLASS@@QAEHXZ 00426779 f   v5subs:wclass.obj
 0001:0002578c       ?is_visible@WINDOW_CLASS@@QAEHXZ 0042678c f   v5subs:wclass.obj
 0001:0002579f       ?move@WINDOW_CLASS@@QAEXAAUtagRECT@@@Z 0042679f f   v5subs:wclass.obj
 0001:000257c8       ?post@WINDOW_CLASS@@QAEXI@Z 004267c8 f   v5subs:wclass.obj
 0001:000257e2       ?post@WINDOW_CLASS@@QAEXIIJ@Z 004267e2 f   v5subs:wclass.obj
 0001:00025800       ?refresh@WINDOW_CLASS@@QAEXXZ 00426800 f   v5subs:wclass.obj
 0001:0002581f       ?send@WINDOW_CLASS@@QAEXI@Z 0042681f f   v5subs:wclass.obj
 0001:00025839       ?send@WINDOW_CLASS@@QAEXIIJ@Z 00426839 f   v5subs:wclass.obj
 0001:00025857       ?set_title@WINDOW_CLASS@@QAEXPA_W@Z 00426857 f   v5subs:wclass.obj
 0001:00025878       ?show@WINDOW_CLASS@@QAEXH@Z 00426878 f   v5subs:wclass.obj
 0001:0002588e       ?style@WINDOW_CLASS@@QAEJXZ 0042688e f   v5subs:wclass.obj
 0001:000258a1       ??0MENU_CONTROL_ENTRY@@QAE@XZ 004268a1 f   v5subs:menuctrl.obj
 0001:00025958       ??0MENU_ITEM_ENTRY@@QAE@XZ 00426958 f   v5subs:menuctrl.obj
 0001:000259a8       ??1MENU_CONTROL_ENTRY@@QAE@XZ 004269a8 f   v5subs:menuctrl.obj
 0001:00025a22       ??1MENU_ITEM_ENTRY@@QAE@XZ 00426a22 f   v5subs:menuctrl.obj
 0001:00025a4c       ??_EMENU_ITEM_ENTRY@@QAEPAXI@Z 00426a4c f i v5subs:menuctrl.obj
 0001:00025aa1       ?create_windows@MENU_CONTROL_ENTRY@@QAEEPA_WPAUHWND__@@@Z 00426aa1 f   v5subs:menuctrl.obj
 0001:00025bb2       ?destroy_windows@MENU_CONTROL_ENTRY@@QAEXXZ 00426bb2 f   v5subs:menuctrl.obj
 0001:00025bf2       ?do_left_button_down@MENU_CONTROL_ENTRY@@QAEXIJ@Z 00426bf2 f   v5subs:menuctrl.obj
 0001:00025d13       ?do_left_button_up@MENU_CONTROL_ENTRY@@QAEXIJ@Z 00426d13 f   v5subs:menuctrl.obj
 0001:00025dc3       ?do_mousemove@MENU_CONTROL_ENTRY@@QAEXPAUHWND__@@IJ@Z 00426dc3 f   v5subs:menuctrl.obj
 0001:000260e1       ?draw@MENU_ITEM_ENTRY@@QAEXPAUHDC__@@@Z 004270e1 f   v5subs:menuctrl.obj
 0001:000261cb       ?draw_rect@MENU_ITEM_ENTRY@@QAEXPAUHDC__@@@Z 004271cb f   v5subs:menuctrl.obj
 0001:0002623c       ?draw_submenu_item@MENU_ITEM_ENTRY@@QAEXPAUHDC__@@I@Z 0042723c f   v5subs:menuctrl.obj
 0001:000262fd       ?excel_to_csv@@YAXPA_W@Z   004272fd f   v5subs:menuctrl.obj
 0001:00026338       ?find@MENU_CONTROL_ENTRY@@QAEPAVMENU_ITEM_ENTRY@@I@Z 00427338 f   v5subs:menuctrl.obj
 0001:00026391       ?get@MENU_ITEM_ENTRY@@QAEEPA_W@Z 00427391 f   v5subs:menuctrl.obj
 0001:000264ef       ?menu_control_proc@@YGJPAUHWND__@@IIJ@Z 004274ef f   v5subs:menuctrl.obj
 0001:0002659d       ?paint_me@MENU_CONTROL_ENTRY@@QAEXPAUHWND__@@@Z 0042759d f   v5subs:menuctrl.obj
 0001:00026658       ?paint_submenu@MENU_CONTROL_ENTRY@@QAEXPAUHWND__@@@Z 00427658 f   v5subs:menuctrl.obj
 0001:00026739       ?read@MENU_CONTROL_ENTRY@@QAEEAAVNAME_CLASS@@H@Z 00427739 f   v5subs:menuctrl.obj
 0001:00026db2       ?register_window@MENU_CONTROL_ENTRY@@SAXXZ 00427db2 f   v5subs:menuctrl.obj
 0001:00026e65       ?resize@MENU_CONTROL_ENTRY@@QAEEH@Z 00427e65 f   v5subs:menuctrl.obj
 0001:00026ef9       ?resize@MENU_CONTROL_ENTRY@@QAEEXZ 00427ef9 f   v5subs:menuctrl.obj
 0001:00026f01       ?set_checkmark@MENU_CONTROL_ENTRY@@QAEEIE@Z 00427f01 f   v5subs:menuctrl.obj
 0001:00026f2a       ?show_submenu@MENU_CONTROL_ENTRY@@QAEXXZ 00427f2a f   v5subs:menuctrl.obj
 0001:00026fe8       ?sub_menu_control_proc@@YGJPAUHWND__@@IIJ@Z 00427fe8 f   v5subs:menuctrl.obj
 0001:00027025       ?set_setup_strings@@YAXPAUHWND__@@PAURESOURCE_TEXT_ENTRY@@HPAIHPA_W@Z 00428025 f   v5subs:statics.obj
 0001:000270f3       ?set_statics_font@@YAXAAVWINDOW_CLASS@@@Z 004280f3 f   v5subs:statics.obj
 0001:00027110       ?statics_shutdown@@YAXXZ   00428110 f   v5subs:statics.obj
 0001:0002712d       ?statics_startup@@YAXXZ    0042812d f   v5subs:statics.obj
 0001:00027142       ??1FTII_VAR_ARRAY@@UAE@XZ  00428142 f   v5subs:ftiiclas.obj
 0001:00027158       ??4FTII_VAR@@UAEXN@Z       00428158 f   v5subs:ftiiclas.obj
 0001:000271ae       ??4FTII_VAR@@UAEXPB_W@Z    004281ae f   v5subs:ftiiclas.obj
 0001:00027232       ??4FTII_VAR_ARRAY@@UAEXABVFTII_VAR@@@Z 00428232 f   v5subs:ftiiclas.obj
 0001:00027244       ??4FTII_VAR_ARRAY@@UAEXH@Z 00428244 f   v5subs:ftiiclas.obj
 0001:00027249       ??4FTII_VAR_ARRAY@@UAEXI@Z 00428249 f   v5subs:ftiiclas.obj
 0001:0002726a       ??4FTII_VAR_ARRAY@@UAEXN@Z 0042826a f   v5subs:ftiiclas.obj
 0001:00027296       ??AFTII_VAR_ARRAY@@QAEAAVFTII_VAR@@H@Z 00428296 f   v5subs:ftiiclas.obj
 0001:000272ca       ??_EFTII_VAR@@UAEPAXI@Z    004282ca f i v5subs:ftiiclas.obj
 0001:0002731a       ?append_value@FTII_VAR@@QAE_NAAVSTRING_CLASS@@@Z 0042831a f   v5subs:ftiiclas.obj
 0001:000273ee       ?cleanup@FTII_VAR_ARRAY@@QAEXXZ 004283ee f   v5subs:ftiiclas.obj
 0001:00027421       ?find@FTII_VAR_ARRAY@@QAE_NH@Z 00428421 f   v5subs:ftiiclas.obj
 0001:00027462       ?find@FTII_VAR_ARRAY@@QAE_NPA_W@Z 00428462 f   v5subs:ftiiclas.obj
 0001:0002747b       ?get@FTII_VAR@@UAE_NPB_W@Z 0042847b f   v5subs:ftiiclas.obj
 0001:000274b8       ?get@FTII_VAR_ARRAY@@QAE_NAAVSTRING_CLASS@@@Z 004284b8 f   v5subs:ftiiclas.obj
 0001:000275ad       ?get_from@FTII_VAR_ARRAY@@QAE_NAAVSTRING_CLASS@@@Z 004285ad f   v5subs:ftiiclas.obj
 0001:00027694       ?makeline@FTII_VAR@@QAE_NAAVSTRING_CLASS@@@Z 00428694 f   v5subs:ftiiclas.obj
 0001:000276e0       ?myfindchar@@YAPB_W_WPB_W@Z 004286e0 f   v5subs:ftiiclas.obj
 0001:000276e0       ?myfindchar@@YAPA_W_WPA_W@Z 004286e0 f   v5subs:ftiiclas.obj
 0001:00027704       ?put@FTII_VAR@@UAE_NAAVSTRING_CLASS@@@Z 00428704 f   v5subs:ftiiclas.obj
 0001:000277a7       ?put@FTII_VAR_ARRAY@@UAE_NAAVSTRING_CLASS@@@Z 004287a7 f   v5subs:ftiiclas.obj
 0001:00027888       ?put_into@FTII_VAR_ARRAY@@QAE_NAAVSTRING_CLASS@@@Z 00428888 f   v5subs:ftiiclas.obj
 0001:00027a36       ?realval@FTII_VAR@@QAENXZ  00428a36 f   v5subs:ftiiclas.obj
 0001:00027aab       ?remove@FTII_VAR_ARRAY@@QAE_NH@Z 00428aab f   v5subs:ftiiclas.obj
 0001:00027b1b       ?remove@FTII_VAR_ARRAY@@QAE_NXZ 00428b1b f   v5subs:ftiiclas.obj
 0001:00027b2d       ?set@FTII_VAR@@UAE_NHI@Z   00428b2d f   v5subs:ftiiclas.obj
 0001:00027b4b       ?set@FTII_VAR@@UAE_NHN@Z   00428b4b f   v5subs:ftiiclas.obj
 0001:00027bb2       ?set@FTII_VAR_ARRAY@@UAE_NHI@Z 00428bb2 f   v5subs:ftiiclas.obj
 0001:00027be5       ?update@FTII_VAR_ARRAY@@QAE_NAAVFTII_VAR@@@Z 00428be5 f   v5subs:ftiiclas.obj
 0001:00027bf7       ?update@FTII_VAR_ARRAY@@QAE_NHI@Z 00428bf7 f   v5subs:ftiiclas.obj
 0001:00027c5b       ?upsize@FTII_VAR_ARRAY@@QAE_NH@Z 00428c5b f   v5subs:ftiiclas.obj
 0001:00027d6a       ??0FTII_ARRAY_DATA@@QAE@XZ 00428d6a f   v5subs:ftii_shot_data.obj
 0001:00027dad       ??0FTII_FILE_DATA@@QAE@XZ  00428dad f   v5subs:ftii_shot_data.obj
 0001:00027e4e       ??0FTII_NET_DATA@@QAE@XZ   00428e4e f   v5subs:ftii_shot_data.obj
 0001:00027e6f       ??0FTII_OP_STATUS_DATA@@QAE@XZ 00428e6f f   v5subs:ftii_shot_data.obj
 0001:00027ec0       ??0FTII_PROFILE@@QAE@XZ    00428ec0 f   v5subs:ftii_shot_data.obj
 0001:00027f0c       ??1FTII_FILE_DATA@@QAE@XZ  00428f0c f   v5subs:ftii_shot_data.obj
 0001:00027f11       ??1FTII_NET_DATA@@QAE@XZ   00428f11 f   v5subs:ftii_shot_data.obj
 0001:00027f16       ??1FTII_PROFILE@@UAE@XZ    00428f16 f   v5subs:ftii_shot_data.obj
 0001:00027f32       ??4FTII_ARRAY_DATA@@QAEXABVFTII_FILE_DATA@@@Z 00428f32 f   v5subs:ftii_shot_data.obj
 0001:000286c8       ??4FTII_FILE_DATA@@QAEXABVFTII_NET_DATA@@@Z 004296c8 f   v5subs:ftii_shot_data.obj
 0001:0002885d       ??4FTII_OP_STATUS_DATA@@QAEXABU0@@Z 0042985d f   v5subs:ftii_shot_data.obj
 0001:0002895c       ??4FTII_PARAMETERS@@QAEXABU0@@Z 0042995c f   v5subs:ftii_shot_data.obj
 0001:0002898e       ??4FTII_POSITION_DATA@@QAEXABUFTII_SAMPLE@@@Z 0042998e f   v5subs:ftii_shot_data.obj
 0001:000289df       ??4FTII_PROFILE@@QAEXABVFTII_FILE_DATA@@@Z 004299df f   v5subs:ftii_shot_data.obj
 0001:00028d2e       ??4FTII_TIME_DATA@@QAEXABUFTII_SAMPLE@@@Z 00429d2e f   v5subs:ftii_shot_data.obj
 0001:00028d69       ??8FTII_OP_STATUS_DATA@@QAE_NABU0@@Z 00429d69 f   v5subs:ftii_shot_data.obj
 0001:00028f0a       ??_EFTII_ARRAY_DATA@@UAEPAXI@Z 00429f0a f i v5subs:ftii_shot_data.obj
 0001:00028f0a       ??_GFTII_ARRAY_DATA@@UAEPAXI@Z 00429f0a f i v5subs:ftii_shot_data.obj
 0001:00028f2c       ??_EFTII_PROFILE@@UAEPAXI@Z 00429f2c f i v5subs:ftii_shot_data.obj
 0001:00028f2c       ??_GFTII_PROFILE@@UAEPAXI@Z 00429f2c f i v5subs:ftii_shot_data.obj
 0001:00028f48       ?clear@FTII_ARRAY_DATA@@QAEXXZ 00429f48 f   v5subs:ftii_shot_data.obj
 0001:00028fe2       ?clear@FTII_FILE_DATA@@QAEXXZ 00429fe2 f   v5subs:ftii_shot_data.obj
 0001:00029059       ?clear@FTII_NET_DATA@@QAEXXZ 0042a059 f   v5subs:ftii_shot_data.obj
 0001:0002908a       ?clear@FTII_PROFILE@@QAEXXZ 0042a08a f   v5subs:ftii_shot_data.obj
 0001:0002911b       ?index_from_position@FTII_ARRAY_DATA@@QAEHN@Z 0042a11b f   v5subs:ftii_shot_data.obj
 0001:00029162       ?index_from_time@FTII_ARRAY_DATA@@QAEHN@Z 0042a162 f   v5subs:ftii_shot_data.obj
 0001:000291e4       ?interpolated_ms@FTII_PROFILE@@QAENN@Z 0042a1e4 f   v5subs:ftii_shot_data.obj
 0001:0002923f       ?interpolated_postion_from_velocity@FTII_PROFILE@@QAENHHH@Z 0042a23f f   v5subs:ftii_shot_data.obj
 0001:000292a2       ?interpolated_timer_count@FTII_ARRAY_DATA@@QAEIN@Z 0042a2a2 f   v5subs:ftii_shot_data.obj
 0001:00029341       ?interpolated_velocity@FTII_ARRAY_DATA@@QAENN@Z 0042a341 f   v5subs:ftii_shot_data.obj
 0001:00029496       ?max_average_velocity@FTII_ARRAY_DATA@@QAENAAHHHHN@Z 0042a496 f   v5subs:ftii_shot_data.obj
 0001:000295a7       ?move@FTII_FILE_DATA@@QAEXAAV1@@Z 0042a5a7 f   v5subs:ftii_shot_data.obj
 0001:000296ae       ?ms@FTII_PROFILE@@QAENH@Z  0042a6ae f   v5subs:ftii_shot_data.obj
 0001:00029701       ?ms_between_positions@FTII_PROFILE@@QAENNN@Z 0042a701 f   v5subs:ftii_shot_data.obj
 0001:0002977f       ?put@FTII_FILE_DATA@@QAEEAAVSTRING_CLASS@@@Z 0042a77f f   v5subs:ftii_shot_data.obj
 0001:00029aa6       ?resize_text_parameters@FTII_FILE_DATA@@QAEEHE@Z 0042aaa6 f   v5subs:ftii_shot_data.obj
 0001:00029bf5       ?set_nof_extended_analogs@FTII_FILE_DATA@@QAEXH@Z 0042abf5 f   v5subs:ftii_shot_data.obj
 0001:00029c67       ?set_parameters@FTII_NET_DATA@@QAEXPAUFTII_PARAMETERS@@@Z 0042ac67 f   v5subs:ftii_shot_data.obj
 0001:00029c80       ?set_position_based_points@FTII_NET_DATA@@QAEXPAUFTII_SAMPLE@@H@Z 0042ac80 f   v5subs:ftii_shot_data.obj
 0001:00029cb0       ?set_shot_time@FTII_NET_DATA@@QAEXAAU_FILETIME@@@Z 0042acb0 f   v5subs:ftii_shot_data.obj
 0001:00029cc2       ?set_time_based_points@FTII_NET_DATA@@QAEXPAUFTII_SAMPLE@@H@Z 0042acc2 f   v5subs:ftii_shot_data.obj
 0001:00029cf2       ?velocity_between_positions@FTII_ARRAY_DATA@@QAENNN@Z 0042acf2 f   v5subs:ftii_shot_data.obj
 0001:00029dac       ?write@TEXT_PARAMETER_ENTRY@@QAEEAAVFILE_CLASS@@@Z 0042adac f   v5subs:ftii_shot_data.obj
 0001:00029e01       ??0PART_NAME_ENTRY@@QAE@XZ 0042ae01 f   v5subs:structs.obj
 0001:00029e1d       ??4PROFILE_NAME_ENTRY@@QAEXABUPART_NAME_ENTRY@@@Z 0042ae1d f   v5subs:structs.obj
 0001:00029e34       ?set@PROFILE_NAME_ENTRY@@QAEXABVSTRING_CLASS@@00PB_W@Z 0042ae34 f   v5subs:structs.obj
 0001:00029e68       ??0VDB_CLASS@@QAE@XZ       0042ae68 f   v5subs:vdbclass.obj
 0001:00029f00       ??1VDB_CLASS@@QAE@XZ       0042af00 f   v5subs:vdbclass.obj
 0001:00029f39       ?close@VDB_CLASS@@QAEXXZ   0042af39 f   v5subs:vdbclass.obj
 0001:00029f5d       ?create@VDB_CLASS@@QAE_NPA_W@Z 0042af5d f   v5subs:vdbclass.obj
 0001:00029fbc       ?ensure_existance@VDB_CLASS@@QAE_NAAVSTRING_CLASS@@@Z 0042afbc f   v5subs:vdbclass.obj
 0001:00029ff0       ?get_rec@VDB_CLASS@@QAE_NXZ 0042aff0 f   v5subs:vdbclass.obj
 0001:0002a0f4       ?goto_last_record@VDB_CLASS@@QAE_NXZ 0042b0f4 f   v5subs:vdbclass.obj
 0001:0002a142       ?goto_next_record@VDB_CLASS@@QAEHXZ 0042b142 f   v5subs:vdbclass.obj
 0001:0002a1de       ?goto_prev_record@VDB_CLASS@@QAEHXZ 0042b1de f   v5subs:vdbclass.obj
 0001:0002a20c       ?goto_record_number@VDB_CLASS@@QAE_NH@Z 0042b20c f   v5subs:vdbclass.obj
 0001:0002a304       ?goto_start_of_record@VDB_CLASS@@QAEHXZ 0042b304 f   v5subs:vdbclass.obj
 0001:0002a474       ?nof_recs@VDB_CLASS@@QAEHXZ 0042b474 f   v5subs:vdbclass.obj
 0001:0002a47b       ?open@VDB_CLASS@@QAE_NPA_WH@Z 0042b47b f   v5subs:vdbclass.obj
 0001:0002a60e       ?open_for_read@VDB_CLASS@@QAE_NVSTRING_CLASS@@@Z 0042b60e f   v5subs:vdbclass.obj
 0001:0002a637       ?open_for_rw@VDB_CLASS@@QAE_NAAVSTRING_CLASS@@@Z 0042b637 f   v5subs:vdbclass.obj
 0001:0002a653       ?put_bitsetype@VDB_CLASS@@QAE_NHG@Z 0042b653 f   v5subs:vdbclass.obj
 0001:0002a68e       ?put_date@VDB_CLASS@@QAE_NHABU_SYSTEMTIME@@@Z 0042b68e f   v5subs:vdbclass.obj
 0001:0002a6c0       ?put_time@VDB_CLASS@@QAE_NHAAU_SYSTEMTIME@@@Z 0042b6c0 f   v5subs:vdbclass.obj
 0001:0002a6f2       ?rec_append@VDB_CLASS@@QAE_NXZ 0042b6f2 f   v5subs:vdbclass.obj
 0001:0002a767       ?rec_delete@VDB_CLASS@@QAE_NH@Z 0042b767 f   v5subs:vdbclass.obj
 0001:0002aa43       ?set_nof_cols@VDB_CLASS@@QAE_NH@Z 0042ba43 f   v5subs:vdbclass.obj
 0001:0002aa89       ?write_record@VDB_CLASS@@QAE_NXZ 0042ba89 f   v5subs:vdbclass.obj
 0001:0002ab9c       ??0ALARM_SUMMARY_CLASS@@QAE@XZ 0042bb9c f   v5subs:alarmsum.obj
 0001:0002abc9       ??1ALARM_SUMMARY_CLASS@@QAE@XZ 0042bbc9 f   v5subs:alarmsum.obj
 0001:0002abe1       ?add@ALARM_SUMMARY_CLASS@@QAEPAUALARM_COUNTS_ENTRY@@J@Z 0042bbe1 f   v5subs:alarmsum.obj
 0001:0002ac3a       ?empty@ALARM_SUMMARY_CLASS@@QAEXXZ 0042bc3a f   v5subs:alarmsum.obj
 0001:0002ac71       ?find@ALARM_SUMMARY_CLASS@@QAEPAUALARM_COUNTS_ENTRY@@J@Z 0042bc71 f   v5subs:alarmsum.obj
 0001:0002aca0       ?save@ALARM_SUMMARY_CLASS@@QAEXABU_SYSTEMTIME@@J@Z 0042bca0 f   v5subs:alarmsum.obj
 0001:0002ace8       ?save@ALARM_SUMMARY_CLASS@@QAEXABU_SYSTEMTIME@@JEAAVSTRING_CLASS@@@Z 0042bce8 f   v5subs:alarmsum.obj
 0001:0002b045       ?set_counts@ALARM_SUMMARY_CLASS@@QAEXPANPAVPARAMETER_CLASS@@_N@Z 0042c045 f   v5subs:alarmsum.obj
 0001:0002b162       ?set@PART_NAME_ENTRY@@QAEXAAVSTRING_CLASS@@00@Z 0042c162 f   board_monitor.obj
 0001:0002b162       ?set_part@ALARM_SUMMARY_CLASS@@QAEXAAVSTRING_CLASS@@00@Z 0042c162 f   v5subs:alarmsum.obj
 0001:0002b18a       ??1DOUBLE_ARRAY_CLASS@@QAE@XZ 0042c18a f   v5subs:array.obj
 0001:0002b18a       ??1INT_ARRAY_CLASS@@QAE@XZ 0042c18a f   v5subs:array.obj
 0001:0002b18f       ??4DOUBLE_ARRAY_CLASS@@QAEEABV0@@Z 0042c18f f   v5subs:array.obj
 0001:0002b1f1       ??ADOUBLE_ARRAY_CLASS@@QAEAANJ@Z 0042c1f1 f   v5subs:array.obj
 0001:0002b20f       ??AINT_ARRAY_CLASS@@QAEAAHH@Z 0042c20f f   v5subs:array.obj
 0001:0002b286       ?cleanup@INT_ARRAY_CLASS@@QAEXXZ 0042c286 f   v5subs:array.obj
 0001:0002b286       ?cleanup@DOUBLE_ARRAY_CLASS@@QAEXXZ 0042c286 f   v5subs:array.obj
 0001:0002b29f       ?copy@DOUBLE_ARRAY_CLASS@@QAEEJPAN@Z 0042c29f f   v5subs:array.obj
 0001:0002b2fc       ?init@DOUBLE_ARRAY_CLASS@@QAEEJ@Z 0042c2fc f   v5subs:array.obj
 0001:0002b34e       ?down_state@DSTAT_CLASS@@QAEHXZ 0042c34e f   v5subs:dstat.obj
 0001:0002b41a       ?get@DSTAT_CLASS@@QAEEAAVSTRING_CLASS@@0@Z 0042c41a f   v5subs:dstat.obj
 0001:0002b523       ?is_down@DSTAT_CLASS@@QAEEXZ 0042c523 f   v5subs:dstat.obj
 0001:0002b543       ?put@DSTAT_CLASS@@QAEEAAVSTRING_CLASS@@0@Z 0042c543 f   v5subs:dstat.obj
 0001:0002b701       ?same_code@DSTAT_CLASS@@QAEEPA_W0@Z 0042c701 f   v5subs:dstat.obj
 0001:0002b739       ??0EXTERNAL_PARAMETER_SETTINGS_CLASS@@QAE@XZ 0042c739 f   v5subs:external_parameter.obj
 0001:0002b74d       ??0EXTERNAL_PARAMETER_STATUS_CLASS@@QAE@XZ 0042c74d f   v5subs:external_parameter.obj
 0001:0002b762       ??1EXTERNAL_PARAMETER_SETTINGS_CLASS@@QAE@XZ 0042c762 f   v5subs:external_parameter.obj
 0001:0002b76a       ??1EXTERNAL_PARAMETER_STATUS_CLASS@@QAE@XZ 0042c76a f   v5subs:external_parameter.obj
 0001:0002b76f       ??4EXTERNAL_PARAMETER_STATUS_CLASS@@QAEXABV0@@Z 0042c76f f   v5subs:external_parameter.obj
 0001:0002b794       ??4EXTERNAL_PARAMETER_STATUS_CLASS@@QAEXABVEXTERNAL_PARAMETER_SETTINGS_CLASS@@@Z 0042c794 f   v5subs:external_parameter.obj
 0001:0002b7aa       ?clear@EXTERNAL_PARAMETER_SETTINGS_CLASS@@QAEXXZ 0042c7aa f   v5subs:external_parameter.obj
 0001:0002b7bc       ?get@EXTERNAL_PARAMETER_SETTINGS_CLASS@@QAE_NAAVSTRING_CLASS@@00@Z 0042c7bc f   v5subs:external_parameter.obj
 0001:0002b8fd       ??0FTANALOG_ENTRY@@QAE@XZ  0042c8fd f   v5subs:ftanalog.obj
 0001:0002b937       ??1FTANALOG_ENTRY@@QAE@XZ  0042c937 f   v5subs:ftanalog.obj
 0001:0002ba58       ?load@FTANALOG_CLASS@@QAEEAAVSTRING_CLASS@@00@Z 0042ca58 f   v5subs:ftanalog.obj
 0001:0002be5c       ??0FTCALC_CLASS@@QAE@XZ    0042ce5c f   v5subs:ftcalc.obj
 0001:0002bea3       ??0SOURCE_DATA@@QAE@XZ     0042cea3 f   v5subs:ftcalc.obj
 0001:0002beb5       ??4SOURCE_DATA@@QAEXABV0@@Z 0042ceb5 f   v5subs:ftcalc.obj
 0001:0002bede       ?cleanup@FTCALC_CLASS@@QAEXXZ 0042cede f   v5subs:ftcalc.obj
 0001:0002bef5       ?clear_source_data@FTCALC_CLASS@@QAEXXZ 0042cef5 f   v5subs:ftcalc.obj
 0001:0002bf15       ?load@FTCALC_CLASS@@QAEEAAVSTRING_CLASS@@00@Z 0042cf15 f   v5subs:ftcalc.obj
 0001:0002c031       ?set@SOURCE_DATA@@QAEXNNN@Z 0042d031 f   v5subs:ftcalc.obj
 0001:0002c058       ?value@FTCALC_CLASS@@QAENAAVSTRING_CLASS@@PANAAVPART_CLASS@@@Z 0042d058 f   v5subs:ftcalc.obj
 0001:0002c49a       ?value@FTCALC_CLASS@@QAENHPANAAVPART_CLASS@@@Z 0042d49a f   v5subs:ftcalc.obj
 0001:0002c4d4       ??1RUNLIST_CLASS@@QAE@XZ   0042d4d4 f   v5subs:runlist.obj
 0001:0002c4d9       ??ARUNLIST_CLASS@@QAEAAURUNLIST_ENTRY@@H@Z 0042d4d9 f   v5subs:runlist.obj
 0001:0002c4f5       ??_ERUNLIST_ENTRY@@QAEPAXI@Z 0042d4f5 f i v5subs:runlist.obj
 0001:0002c4f5       ??_ETEXT_PARAMETER_ENTRY@@QAEPAXI@Z 0042d4f5 f i v5subs:ftii_shot_data.obj
 0001:0002c54e       ?cleanup@RUNLIST_CLASS@@AAEXXZ 0042d54e f   v5subs:runlist.obj
 0001:0002c56b       ?find_part@RUNLIST_CLASS@@QAEAAVSTRING_CLASS@@I@Z 0042d56b f   v5subs:runlist.obj
 0001:0002c5af       ?get@RUNLIST_CLASS@@QAEEAAVNAME_CLASS@@@Z 0042d5af f   v5subs:runlist.obj
 0001:0002c72d       ?get@RUNLIST_CLASS@@QAEEAAVSTRING_CLASS@@0@Z 0042d72d f   v5subs:runlist.obj
 0001:0002c770       ??0EXTERNAL_SHOT_NAME_CLASS@@QAE@XZ 0042d770 f   v5subs:shot_name.obj
 0001:0002c770       ??0SHOT_NAME_RESET_CLASS@@QAE@XZ 0042d770 f   v5subs:shot_name_reset.obj
 0001:0002c770       ??0SHOT_NAME_CLASS@@QAE@XZ 0042d770 f   v5subs:shot_name.obj
 0001:0002c770       ??0PLOOKUP_CLASS@@QAE@XZ   0042d770 f   v5subs:plookup.obj
 0001:0002c784       ??1PLOOKUP_CLASS@@QAE@XZ   0042d784 f   v5subs:plookup.obj
 0001:0002c784       ??1SHOT_NAME_RESET_CLASS@@QAE@XZ 0042d784 f   v5subs:shot_name_reset.obj
 0001:0002c784       ??1SHOT_NAME_CLASS@@QAE@XZ 0042d784 f   v5subs:shot_name.obj
 0001:0002c784       ??1EXTERNAL_SHOT_NAME_CLASS@@QAE@XZ 0042d784 f   v5subs:shot_name.obj
 0001:0002c7e9       ?command@EXTERNAL_SHOT_NAME_CLASS@@QAEAAVSTRING_CLASS@@XZ 0042d7e9 f   v5subs:shot_name.obj
 0001:0002c7f4       ?file@EXTERNAL_SHOT_NAME_CLASS@@QAEAAVSTRING_CLASS@@XZ 0042d7f4 f   v5subs:shot_name.obj
 0001:0002c7ff       ?get@EXTERNAL_SHOT_NAME_CLASS@@QAEHAAVSTRING_CLASS@@00@Z 0042d7ff f   v5subs:shot_name.obj
 0001:0002c82e       ?get@EXTERNAL_SHOT_NAME_CLASS@@QAEHXZ 0042d82e f   v5subs:shot_name.obj
 0001:0002ca4c       ?get@SHOT_NAME_CLASS@@QAEHXZ 0042da4c f   v5subs:shot_name.obj
 0001:0002ca69       ?get_shot_name_template@SHOT_NAME_CLASS@@QAEEAAVSTRING_CLASS@@@Z 0042da69 f   v5subs:shot_name.obj
 0001:0002ca8c       ?have_command@EXTERNAL_SHOT_NAME_CLASS@@QAEEXZ 0042da8c f   v5subs:shot_name.obj
 0001:0002caf4       ?init@SHOT_NAME_CLASS@@QAEEAAVSTRING_CLASS@@00@Z 0042daf4 f   v5subs:shot_name.obj
 0001:0002cb10       ?is_enabled@EXTERNAL_SHOT_NAME_CLASS@@QAEEXZ 0042db10 f   v5subs:shot_name.obj
 0001:0002cb2a       ?set_defaults@EXTERNAL_SHOT_NAME_CLASS@@QAEXXZ 0042db2a f   v5subs:shot_name.obj
 0001:0002cbd6       ?set_defaults@SHOT_NAME_CLASS@@QAEXXZ 0042dbd6 f   v5subs:shot_name.obj
 0001:0002cc82       ?shot_name@@YAEAAVSTRING_CLASS@@000H@Z 0042dc82 f   v5subs:shot_name.obj
 0001:0002cd09       ?shot_name@@YAEAAVSTRING_CLASS@@AAUPART_NAME_ENTRY@@H@Z 0042dd09 f   v5subs:shot_name.obj
 0001:0002cd32       ?shot_name@@YAEAAVSTRING_CLASS@@AAUPART_NAME_ENTRY@@HAAVTIME_CLASS@@@Z 0042dd32 f   v5subs:shot_name.obj
 0001:0002d2ed       ?shot_name_length@@YAHAAUPROFILE_NAME_ENTRY@@@Z 0042e2ed f   v5subs:shot_name.obj
 0001:0002d303       ?shot_name_length@@YAHAAVSTRING_CLASS@@00@Z 0042e303 f   v5subs:shot_name.obj
 0001:0002d344       ?shot_name_length@SHOT_NAME_CLASS@@QAEHXZ 0042e344 f   v5subs:shot_name.obj
 0001:0002d36a       ?shot_number_from_shot_name@@YAHAAVSTRING_CLASS@@H@Z 0042e36a f   v5subs:shot_name.obj
 0001:0002d3f3       ?shot_number_length@SHOT_NAME_CLASS@@QAEHXZ 0042e3f3 f   v5subs:shot_name.obj
 0001:0002d442       ?cat@STDDOWN_CLASS@@QAEPA_WXZ 0042e442 f   v5subs:stddown.obj
 0001:0002d454       ?find@STDDOWN_CLASS@@QAE_NJ@Z 0042e454 f   v5subs:stddown.obj
 0001:0002d4ec       ?startup@STDDOWN_CLASS@@QAEXXZ 0042e4ec f   v5subs:stddown.obj
 0001:0002d629       ?subcat@STDDOWN_CLASS@@QAEPA_WXZ 0042e629 f   v5subs:stddown.obj
 0001:0002d63f       ?part_exists@@YAEAAVSTRING_CLASS@@00@Z 0042e63f f   v5subs:pexists.obj
 0001:0002d688       ?category_name@@YAPA_WPA_W@Z 0042e688 f   v5subs:downsubs.obj
 0001:0002d749       ?make_downtime_event_string@@YAPA_WAAVSTRING_CLASS@@0AAU_SYSTEMTIME@@PA_W22@Z 0042e749 f   v5subs:downsubs.obj
 0001:0002d85f       ?make_downtime_record@@YAEAAVDB_TABLE@@AAU_SYSTEMTIME@@PA_W22AAVSTRING_CLASS@@@Z 0042e85f f   v5subs:downsubs.obj
 0001:0002d914       ?subcategory_name@@YAPA_WPA_W0@Z 0042e914 f   v5subs:downsubs.obj
 0001:0002da3f       ?double_are_equal@@YA_NNN@Z 0042ea3f f   v5subs:zero.obj
 0001:0002da5a       ?is_float_zero@@YAEM@Z     0042ea5a f   v5subs:zero.obj
 0001:0002da8a       ?is_zero@@YA_NN@Z          0042ea8a f   v5subs:zero.obj
 0001:0002daae       ?not_float_zero@@YAEM@Z    0042eaae f   v5subs:zero.obj
 0001:0002dade       ?not_zero@@YA_NN@Z         0042eade f   v5subs:zero.obj
 0001:0002db01       ?set_current_part_name@@YAEAAVSTRING_CLASS@@00@Z 0042eb01 f   v5subs:current.obj
 0001:0002db8f       ?upsize_table_w_shot_name@@YAEAAVNAME_CLASS@@H@Z 0042eb8f f   v5subs:dbupsize.obj
 0001:0002ddb1       ?calculate_ftii_parameters@@YAPANAAVFTII_PROFILE@@AAVMACHINE_CLASS@@AAVPART_CLASS@@AAVPARAMETER_CLASS@@AAVANALOG_SENSOR@@AAVFTANALOG_CLASS@@AAVFTCALC_CLASS@@@Z 0042edb1 f   v5subs:ftii_parameters.obj
 0001:0002fe36       ??0MULTISTRING_CLASS@@QAE@XZ 00430e36 f   v5subs:multistring.obj
 0001:0002fe4e       ??1MULTISTRING_CLASS@@QAE@XZ 00430e4e f   v5subs:multistring.obj
 0001:0002fe5e       ??AMULTISTRING_CLASS@@QAEAAV0@H@Z 00430e5e f   v5subs:multistring.obj
 0001:0002fe70       ?empty_array@MULTISTRING_CLASS@@QAE_NXZ 00430e70 f   v5subs:multistring.obj
 0001:0002fe92       ?find@MULTISTRING_CLASS@@QAEHAAVSTRING_CLASS@@@Z 00430e92 f   v5subs:multistring.obj
 0001:0002fec2       ?goto_index@MULTISTRING_CLASS@@QAE_NH@Z 00430ec2 f   v5subs:multistring.obj
 0001:0002ff02       ?next@MULTISTRING_CLASS@@QAE_NXZ 00430f02 f   v5subs:multistring.obj
 0001:0002ff40       ?remove@MULTISTRING_CLASS@@QAE_NH@Z 00430f40 f   v5subs:multistring.obj
 0001:00030033       ?rewind@MULTISTRING_CLASS@@QAE_NXZ 00431033 f   v5subs:multistring.obj
 0001:00030051       ?set_array_size@MULTISTRING_CLASS@@QAE_NH@Z 00431051 f   v5subs:multistring.obj
 0001:0003014b       ?split@MULTISTRING_CLASS@@QAE_N_W@Z 0043114b f   v5subs:multistring.obj
 0001:00030205       ?get@PLOOKUP_CLASS@@QAEHXZ 00431205 f   v5subs:plookup.obj
 0001:00030341       ?get_last_shot_number@PLOOKUP_CLASS@@QAEHXZ 00431341 f   v5subs:plookup.obj
 0001:00030361       ?get_time@PLOOKUP_CLASS@@QAEEAAVTIME_CLASS@@@Z 00431361 f   v5subs:plookup.obj
 0001:000303ee       ?init@PLOOKUP_CLASS@@QAEEAAVSTRING_CLASS@@00@Z 004313ee f   v5subs:plookup.obj
 0001:0003040a       ?put@PLOOKUP_CLASS@@QAEEXZ 0043140a f   v5subs:plookup.obj
 0001:00030534       ?set_last_shot_name@PLOOKUP_CLASS@@QAEEAAVSTRING_CLASS@@@Z 00431534 f   v5subs:plookup.obj
 0001:00030556       ?set_last_shot_number@PLOOKUP_CLASS@@QAEEH@Z 00431556 f   v5subs:plookup.obj
 0001:00030578       ?set_time@PLOOKUP_CLASS@@QAEEAAVTIME_CLASS@@@Z 00431578 f   v5subs:plookup.obj
 0001:000305c1       ?get@SHOT_NAME_RESET_CLASS@@QAEHXZ 004315c1 f   v5subs:shot_name_reset.obj
 0001:000305de       ?init@SHOT_NAME_RESET_CLASS@@QAEEAAVSTRING_CLASS@@00@Z 004315de f   v5subs:shot_name_reset.obj
 0001:000305fa       ?is_enabled@SHOT_NAME_RESET_CLASS@@QAEEXZ 004315fa f   v5subs:shot_name_reset.obj
 0001:00030614       ?purge_on_reset@SHOT_NAME_RESET_CLASS@@QAEEXZ 00431614 f   v5subs:shot_name_reset.obj
 0001:0003062e       ?reset_time@SHOT_NAME_RESET_CLASS@@QAEAAVSTRING_CLASS@@XZ 0043162e f   v5subs:shot_name_reset.obj
 0001:00030645       ?set_defaults@SHOT_NAME_RESET_CLASS@@QAEXXZ 00431645 f   v5subs:shot_name_reset.obj
 0001:000306f1       ?dynamic_file_name@@YAPA_WAAVTIME_CLASS@@AAUPART_NAME_ENTRY@@PB_W@Z 004316f1 f   v5subs:dynamic_file_name.obj
 0001:000309a1       ?free_shotsave_semaphore@@YAXXZ 004319a1 f   v5subs:semaphor.obj
 0001:000309ab       ?get_shotsave_semaphore@@YAEAAVSTRING_CLASS@@0@Z 004319ab f   v5subs:semaphor.obj
 0001:00030a37       ?purge_shot_data@@YAXAAVSTRING_CLASS@@00@Z 00431a37 f   v5subs:purge.obj
 0001:00030af2       ?write_shotparm_log@@YAXAAVSTRING_CLASS@@0PA_W_NVTIME_CLASS@@31@Z 00431af2 f   v5subs:write_shotparm_log.obj
 0001:00030c76       ?add@WORKER_LIST_CLASS@@QAEEPA_W00@Z 00431c76 f   v5subs:workclas.obj
 0001:00030cfc       ?cleanup@WORKER_LIST_CLASS@@QAEXXZ 00431cfc f   v5subs:workclas.obj
 0001:00030d19       ?find@WORKER_LIST_CLASS@@QAEEPA_W@Z 00431d19 f   v5subs:workclas.obj
 0001:00030d4b       ?first_name@WORKER_LIST_CLASS@@QAEPA_WXZ 00431d4b f   v5subs:workclas.obj
 0001:00030d5c       ?full_name@WORKER_LIST_CLASS@@QAEPA_WXZ 00431d5c f   v5subs:workclas.obj
 0001:00030da4       ?last_name@WORKER_LIST_CLASS@@QAEPA_WXZ 00431da4 f   v5subs:workclas.obj
 0001:00030db5       ?load@WORKER_LIST_CLASS@@QAEEXZ 00431db5 f   v5subs:workclas.obj
 0001:00030f54       ?error_message@@YAXFF@Z    00431f54 f   v5subs:error_ms.obj
 0001:00030f98       ?reverse@@YAXPA_W@Z        00431f98 f   v5subs:reverse.obj
 0001:00030fc4       ?is_empty@@YAEPB_W@Z       00431fc4 f   v5subs:is_empty.obj
 0001:00030fe5       ?copy_all_files@@YAEPA_W00EPAUHWND__@@H@Z 00431fe5 f   v5subs:callfile.obj
 0001:0003119c       ?get_partlist@@YAEAAVTEXT_LIST_CLASS@@AAVSTRING_CLASS@@1@Z 0043219c f   v5subs:partlist.obj
 0001:0003124b       ??0WIRE_CLASS@@QAE@XZ      0043224b f   v5subs:wire_class.obj
 0001:000312bc       ??0WIRE_NAME_ENTRY@@QAE@XZ 004322bc f   v5subs:wire_class.obj
 0001:000312dc       ??1WIRE_CLASS@@QAE@XZ      004322dc f   v5subs:wire_class.obj
 0001:000312f7       ?wirebit@WIRE_CLASS@@QAEIH@Z 004322f7 f   v5subs:wire_class.obj
 0001:0003130c       ?dups_to_vu@@YANFF@Z       0043230c f   v5subs:unitadj.obj
 0001:00031383       ?day_of_the_week@@YAHHHH@Z 00432383 f   v5subs:dow.obj
 0001:000313de       ?empty_directory@@YAEPA_W0@Z 004323de f   v5subs:killdir.obj
 0001:000314cc       ?kill_directory@@YAEPA_W@Z 004324cc f   v5subs:killdir.obj
 0001:00031531       ??0bad_alloc@std@@QAE@ABV01@@Z 00432531 f i LIBCMT:new.obj
 0001:0003154c       ??1bad_alloc@std@@UAE@XZ   0043254c f i LIBCMT:new.obj
 0001:00031557       ??2@YAPAXI@Z               00432557 f   LIBCMT:new.obj
 0001:000315a8       ??_Ebad_alloc@std@@UAEPAXI@Z 004325a8 f i LIBCMT:new.obj
 0001:000315a8       ??_Gbad_alloc@std@@UAEPAXI@Z 004325a8 f i LIBCMT:new.obj
 0001:000315cd       ??3@YAXPAX@Z               004325cd f   LIBCMT:delete.obj
 0001:000315d2       ___onexitinit              004325d2 f   LIBCMT:onexit.obj
 0001:00031601       __onexit                   00432601 f   LIBCMT:onexit.obj
 0001:000316fd       _atexit                    004326fd f   LIBCMT:onexit.obj
 0001:00031712       @__security_check_cookie@4 00432712 f   LIBCMT:secchk.obj
 0001:00031730       __alloca_probe             00432730 f   LIBCMT:chkstk.obj
 0001:00031730       __chkstk                   00432730 f   LIBCMT:chkstk.obj
 0001:0003175b       ??1type_info@@UAE@XZ       0043275b f   LIBCMT:typinfo.obj
 0001:00031769       ??_Etype_info@@UAEPAXI@Z   00432769 f i LIBCMT:typinfo.obj
 0001:00031769       ??_Gtype_info@@UAEPAXI@Z   00432769 f i LIBCMT:typinfo.obj
 0001:00031788       __fpmath                   00432788 f   LIBCMT:fpinit.obj
 0001:0003179f       __cfltcvt_init             0043279f f   LIBCMT:fpinit.obj
 0001:00031800       _memcpy                    00432800 f   LIBCMT:memcpy.obj
 0001:00031e44       ___doserrno                00432e44 f   LIBCMT:dosmap.obj
 0001:00031e57       __dosmaperr                00432e57 f   LIBCMT:dosmap.obj
 0001:00031e78       __errno                    00432e78 f   LIBCMT:dosmap.obj
 0001:00031e8b       __get_errno_from_oserr     00432e8b f   LIBCMT:dosmap.obj
 0001:00031ecc       __beginthread              00432ecc f   LIBCMT:thread.obj
 0001:00031fac       __endthread                00432fac f   LIBCMT:thread.obj
 0001:0003202e       ___raise_securityfailure   0043302e f   LIBCMT:gs_report.obj
 0001:0003206b       ___report_gsfailure        0043306b f   LIBCMT:gs_report.obj
 0001:00032166       ___report_rangecheckfailure 00433166 f   LIBCMT:gs_report.obj
 0001:00032172       ___report_securityfailure  00433172 f   LIBCMT:gs_report.obj
 0001:00032250       _memset                    00433250 f   LIBCMT:memset.obj
 0001:000322e0       _WinMainCRTStartup         004332e0 f   LIBCMT:wincrt0.obj
 0001:00032461       ??0_LocaleUpdate@@QAE@PAUlocaleinfo_struct@@@Z 00433461 f i LIBCMT:strtod.obj
 0001:000324e9       __strtod_l                 004334e9 f   LIBCMT:strtod.obj
 0001:00032600       _strtod                    00433600 f   LIBCMT:strtod.obj
 0001:0003283b       _strtol                    0043383b f   LIBCMT:strtol.obj
 0001:00032865       _strtoul                   00433865 f   LIBCMT:strtol.obj
 0001:00032890       _floor                     00433890 f   LIBCMT:floor_pentium4.obj
 0001:000328d0       __floor_pentium4           004338d0 f   LIBCMT:floor_pentium4.obj
 0001:000329c0       __aulldiv                  004339c0 f   LIBCMT:ulldiv.obj
 0001:00032a30       _memmove                   00433a30 f   LIBCMT:memmove.obj
 0001:00033080       __ftol2_sse                00434080 f   LIBCMT:ftol2.obj
 0001:00033089       __ftol2_pentium4           00434089 f   LIBCMT:ftol2.obj
 0001:0003309c       __ftol2_sse_excpt          0043409c f   LIBCMT:ftol2.obj
 0001:000330b6       __ftol2                    004340b6 f   LIBCMT:ftol2.obj
 0001:00033130       __ftoui3                   00434130 f   LIBCMT:ftol3.obj
 0001:0003313f       __ftoul3                   0043413f f   LIBCMT:ftol3.obj
 0001:0003314e       __ftol3                    0043414e f   LIBCMT:ftol3.obj
 0001:0003315b       __ftol3_NaN                0043415b f   LIBCMT:ftol3.obj
 0001:00033173       __ftol3_work               00434173 f   LIBCMT:ftol3.obj
 0001:000331f9       __ftol3_common             004341f9 f   LIBCMT:ftol3.obj
 0001:000332bb       __ftol3_arg_error          004342bb f   LIBCMT:ftol3.obj
 0001:000332cd       __ftol3_except             004342cd f   LIBCMT:ftol3.obj
 0001:0003330f       __dtoui3                   0043430f f   LIBCMT:ftol3.obj
 0001:0003331e       __dtoul3                   0043431e f   LIBCMT:ftol3.obj
 0001:0003332d       __dtol3                    0043432d f   LIBCMT:ftol3.obj
 0001:0003333a       __dtol3_NaN                0043433a f   LIBCMT:ftol3.obj
 0001:00033357       __dtol3_work               00434357 f   LIBCMT:ftol3.obj
 0001:0003343c       __ultod3                   0043443c f   LIBCMT:ftol3.obj
 0001:000334cd       __ltod3                    004344cd f   LIBCMT:ftol3.obj
 0001:00033500       __CIsqrt                   00434500 f   LIBCMT:sqrt.obj
 0001:00033514       _sqrt                      00434514     LIBCMT:sqrt.obj
 0001:000335c0       _ceil                      004345c0 f   LIBCMT:ceil_pentium4.obj
 0001:00033600       __ceil_pentium4            00434600 f   LIBCMT:ceil_pentium4.obj
 0001:000336e0       __alldiv                   004346e0 f   LIBCMT:lldiv.obj
 0001:00033790       __allmul                   00434790 f   LIBCMT:llmul.obj
 0001:000337c4       _malloc                    004347c4 f   LIBCMT:malloc.obj
 0001:00033856       ??0exception@std@@QAE@ABQBDH@Z 00434856 f   LIBCMT:stdexcpt.obj
 0001:00033871       ??0exception@std@@QAE@ABV01@@Z 00434871 f   LIBCMT:stdexcpt.obj
 0001:00033894       ??1exception@std@@UAE@XZ   00434894 f   LIBCMT:stdexcpt.obj
 0001:0003389f       ??4exception@std@@QAEAAV01@ABV01@@Z 0043489f f   LIBCMT:stdexcpt.obj
 0001:000338d2       ??_Gexception@std@@UAEPAXI@Z 004348d2 f i LIBCMT:stdexcpt.obj
 0001:000338d2       ??_Eexception@std@@UAEPAXI@Z 004348d2 f i LIBCMT:stdexcpt.obj
 0001:000338f7       ?_Copy_str@exception@std@@AAEXPBD@Z 004348f7 f   LIBCMT:stdexcpt.obj
 0001:00033935       ?_Tidy@exception@std@@AAEXXZ 00434935 f   LIBCMT:stdexcpt.obj
 0001:00033951       ?what@exception@std@@UBEPBDXZ 00434951 f   LIBCMT:stdexcpt.obj
 0001:0003395e       __callnewh                 0043495e f   LIBCMT:handler.obj
 0001:00033984       __initp_heap_handler       00434984 f   LIBCMT:handler.obj
 0001:00033991       __CxxThrowException@8      00434991 f   LIBCMT:throw.obj
 0001:000339f4       _free                      004349f4 f   LIBCMT:free.obj
 0001:00033a2c       ___crtCorExitProcess       00434a2c f   LIBCMT:crt0dat.obj
 0001:00033a60       ___crtExitProcess          00434a60 f   LIBCMT:crt0dat.obj
 0001:00033a76       __amsg_exit                00434a76 f   LIBCMT:crt0dat.obj
 0001:00033a92       __c_exit                   00434a92 f   LIBCMT:crt0dat.obj
 0001:00033aa1       __cexit                    00434aa1 f   LIBCMT:crt0dat.obj
 0001:00033ab0       __cinit                    00434ab0 f   LIBCMT:crt0dat.obj
 0001:00033b34       __exit                     00434b34 f   LIBCMT:crt0dat.obj
 0001:00033b48       __init_pointers            00434b48 f   LIBCMT:crt0dat.obj
 0001:00033bb6       __initterm_e               00434bb6 f   LIBCMT:crt0dat.obj
 0001:00033bd8       __lockexit                 00434bd8 f   LIBCMT:crt0dat.obj
 0001:00033be1       __unlockexit               00434be1 f   LIBCMT:crt0dat.obj
 0001:00033d19       _exit                      00434d19 f   LIBCMT:crt0dat.obj
 0001:00033d2d       __msize                    00434d2d f   LIBCMT:msize.obj
 0001:00033d5e       __calloc_crt               00434d5e f   LIBCMT:crtheap.obj
 0001:00033da6       __malloc_crt               00434da6 f   LIBCMT:crtheap.obj
 0001:00033ded       __realloc_crt              00434ded f   LIBCMT:crtheap.obj
 0001:00033e40       __SEH_prolog4              00434e40 f   LIBCMT:sehprolg4.obj
 0001:00033e85       __SEH_epilog4              00434e85 f   LIBCMT:sehprolg4.obj
 0001:00033ea0       __except_handler4          00434ea0 f   LIBCMT:chandler4.obj
 0001:00034040       _strcmp                    00435040 f   LIBCMT:strcmp.obj
 0001:000340cc       ?_Type_info_dtor@type_info@@CAXPAV1@@Z 004350cc f   LIBCMT:typname.obj
 0001:0003413d       __cfltcvt                  0043513d f   LIBCMT:cvt.obj
 0001:0003415e       __cfltcvt_l                0043515e f   LIBCMT:cvt.obj
 0001:000341e4       __cftoa_l                  004351e4 f   LIBCMT:cvt.obj
 0001:00034540       __cftoe                    00435540 f   LIBCMT:cvt.obj
 0001:000346af       __cftoe_l                  004356af f   LIBCMT:cvt.obj
 0001:00034869       __cftof_l                  00435869 f   LIBCMT:cvt.obj
 0001:0003492a       __cftog_l                  0043592a f   LIBCMT:cvt.obj
 0001:00034a29       __cropzeros                00435a29 f   LIBCMT:cvt.obj
 0001:00034a3a       __cropzeros_l              00435a3a f   LIBCMT:cvt.obj
 0001:00034aba       __fassign                  00435aba f   LIBCMT:cvt.obj
 0001:00034ad2       __fassign_l                00435ad2 f   LIBCMT:cvt.obj
 0001:00034b14       __forcdecpt                00435b14 f   LIBCMT:cvt.obj
 0001:00034b25       __forcdecpt_l              00435b25 f   LIBCMT:cvt.obj
 0001:00034b99       __positive                 00435b99 f   LIBCMT:cvt.obj
 0001:00034bdb       __setdefaultprecision      00435bdb f   LIBCMT:fp8.obj
 0001:00034c02       __initp_misc_cfltcvt_tab   00435c02 f   LIBCMT:cmiscdat.obj
 0001:00034c21       ___isa_available_init      00435c21 f   LIBCMT:cpu_disp.obj
 0001:00034d9a       __call_reportfault         00435d9a f   LIBCMT:invarg.obj
 0001:00034ebf       __initp_misc_invarg        00435ebf f   LIBCMT:invarg.obj
 0001:00034ecc       __invalid_parameter        00435ecc f   LIBCMT:invarg.obj
 0001:00034ef7       __invalid_parameter_noinfo 00435ef7 f   LIBCMT:invarg.obj
 0001:00034f07       __invoke_watson            00435f07 f   LIBCMT:invarg.obj
 0001:00034f32       ___get_flsindex            00435f32 f   LIBCMT:tidtable.obj
 0001:00034f38       __freefls@4                00435f38 f   LIBCMT:tidtable.obj
 0001:0003506d       __freeptd                  0043606d f   LIBCMT:tidtable.obj
 0001:000350a3       __getptd                   004360a3 f   LIBCMT:tidtable.obj
 0001:000350bb       __getptd_noexit            004360bb f   LIBCMT:tidtable.obj
 0001:0003512a       __initptd                  0043612a f   LIBCMT:tidtable.obj
 0001:000351dd       __mtinit                   004361dd f   LIBCMT:tidtable.obj
 0001:00035253       __mtterm                   00436253 f   LIBCMT:tidtable.obj
 0001:00035270       __XcptFilter               00436270 f   LIBCMT:winxfltr.obj
 0001:000353cb       ___crtFlsAlloc             004363cb f   LIBCMT:winapisupp.obj
 0001:000353e9       ___crtFlsFree              004363e9 f   LIBCMT:winapisupp.obj
 0001:00035408       ___crtFlsGetValue          00436408 f   LIBCMT:winapisupp.obj
 0001:00035427       ___crtFlsSetValue          00436427 f   LIBCMT:winapisupp.obj
 0001:00035449       ___crtGetShowWindowMode    00436449 f   LIBCMT:winapisupp.obj
 0001:0003546c       ___crtInitializeCriticalSectionEx 0043646c f   LIBCMT:winapisupp.obj
 0001:0003549a       ___crtIsPackagedApp        0043649a f   LIBCMT:winapisupp.obj
 0001:000354da       ___crtLoadWinApiPointers   004364da f   LIBCMT:winapisupp.obj
 0001:00035765       ___crtSetUnhandledExceptionFilter 00436765 f   LIBCMT:winapisupp.obj
 0001:00035773       ___crtSleep                00436773 f   LIBCMT:winapisupp.obj
 0001:00035781       ___crtTerminateProcess     00436781 f   LIBCMT:winapisupp.obj
 0001:00035796       ___crtUnhandledException   00436796 f   LIBCMT:winapisupp.obj
 0001:000357ac       __crt_debugger_hook        004367ac f   LIBCMT:dbghook.obj
 0001:000357b4       __VEC_memset               004367b4 f   LIBCMT:p4_memset.obj
 0001:0003587c       ?__CxxUnhandledExceptionFilter@@YGJPAU_EXCEPTION_POINTERS@@@Z 0043687c f   LIBCMT:unhandld.obj
 0001:000358bd       ___CxxSetUnhandledExceptionFilter 004368bd f   LIBCMT:unhandld.obj
 0001:000358cb       __heap_init                004368cb f   LIBCMT:heapinit.obj
 0001:000358e0       __ioinit                   004368e0 f   LIBCMT:ioinit.obj
 0001:00035b94       __setargv                  00436b94 f   LIBCMT:stdargv.obj
 0001:00035dc3       __setenvp                  00436dc3 f   LIBCMT:stdenvp.obj
 0001:00035ea4       __FF_MSGBANNER             00436ea4 f   LIBCMT:crt0msg.obj
 0001:00035edd       __GET_RTERRMSG             00436edd f   LIBCMT:crt0msg.obj
 0001:00035f01       __NMSG_WRITE               00436f01 f   LIBCMT:crt0msg.obj
 0001:000360be       ___set_app_type            004370be f   LIBCMT:errmode.obj
 0001:000360cb       __set_error_mode           004370cb f   LIBCMT:errmode.obj
 0001:0003610b       ___security_init_cookie    0043710b f   LIBCMT:gs_support.obj
 0001:000361a7       __RTC_Initialize           004371a7 f   LIBCMT:initsect.obj
 0001:000361c7       __RTC_Terminate            004371c7 f   LIBCMT:initsect.obj
 0001:000361e7       ___crtGetEnvironmentStringsA 004371e7 f   LIBCMT:a_env.obj
 0001:00036274       __wincmdln                 00437274 f   LIBCMT:wincmdln.obj
 0001:000362d3       __fltin2                   004372d3 f   LIBCMT:cfin.obj
 0001:0003637a       ___addlocaleref            0043737a f   LIBCMT:localref.obj
 0001:0003640f       ___freetlocinfo            0043740f f   LIBCMT:localref.obj
 0001:00036569       ___removelocaleref         00437569 f   LIBCMT:localref.obj
 0001:00036609       ___updatetlocinfo          00437609 f   LIBCMT:localref.obj
 0001:00036689       __updatetlocinfoEx_nolock  00437689 f   LIBCMT:localref.obj
 0001:000366d4       ___initmbctable            004376d4 f   LIBCMT:mbctype.obj
 0001:0003698b       ___updatetmbcinfo          0043798b f   LIBCMT:mbctype.obj
 0001:00036a31       __setmbcp                  00437a31 f   LIBCMT:mbctype.obj
 0001:00036bd9       __setmbcp_nolock           00437bd9 f   LIBCMT:mbctype.obj
 0001:00036dc4       __isctype_l                00437dc4 f   LIBCMT:isctype.obj
 0001:00036e80       __locterm                  00437e80 f   LIBCMT:wsetloca.obj
 0001:00036ed2       __fptostr                  00437ed2 f   LIBCMT:_fptostr.obj
 0001:00036f82       ___dtold                   00437f82 f   LIBCMT:cfout.obj
 0001:0003704a       __fltout2                  0043804a f   LIBCMT:cfout.obj
 0001:000370d8       ___libm_error_support      004380d8 f   LIBCMT:libm_error.obj
 0001:000373c0       __sse2_mathfcns_init       004383c0 f   LIBCMT:mathfcns.obj
 0001:000373cf       __floor_default            004383cf f   LIBCMT:floor.obj
 0001:000374a6       __errcode                  004384a6 f   LIBCMT:fpexcept.obj
 0001:000374d8       __except1                  004384d8 f   LIBCMT:fpexcept.obj
 0001:000375a0       __handle_exc               004385a0 f   LIBCMT:fpexcept.obj
 0001:0003777e       __handle_qnan1             0043877e f   LIBCMT:fpexcept.obj
 0001:000377ce       __raise_exc                004387ce f   LIBCMT:fpexcept.obj
 0001:000377ef       __raise_exc_ex             004387ef f   LIBCMT:fpexcept.obj
 0001:00037ad4       __set_errno_from_matherr   00438ad4 f   LIBCMT:fpexcept.obj
 0001:00037b01       __umatherr                 00438b01 f   LIBCMT:fpexcept.obj
 0001:00037bb0       __trandisp1                00438bb0 f   LIBCMT:87disp.obj
 0001:00037c17       __trandisp2                00438c17 f   LIBCMT:87disp.obj
 0001:00037ca3       __rttospopde               00438ca3     LIBCMT:87disp.obj
 0001:00037ca8       __rttospop                 00438ca8     LIBCMT:87disp.obj
 0001:00037caa       __rtnospop                 00438caa     LIBCMT:87disp.obj
 0001:00037cac       __rttosnpop                00438cac     LIBCMT:87disp.obj
 0001:00037cad       __rtnospopde               00438cad     LIBCMT:87disp.obj
 0001:00037cb4       __rtzeropop                00438cb4     LIBCMT:87disp.obj
 0001:00037cb6       __rtzeronpop               00438cb6     LIBCMT:87disp.obj
 0001:00037cbb       __rtonepop                 00438cbb     LIBCMT:87disp.obj
 0001:00037cbd       __rtonenpop                00438cbd     LIBCMT:87disp.obj
 0001:00037cc2       __tosnan1                  00438cc2     LIBCMT:87disp.obj
 0001:00037ced       __nosnan2                  00438ced     LIBCMT:87disp.obj
 0001:00037cef       __tosnan2                  00438cef     LIBCMT:87disp.obj
 0001:00037d17       __nan2                     00438d17     LIBCMT:87disp.obj
 0001:00037d56       __rtindfpop                00438d56     LIBCMT:87disp.obj
 0001:00037d58       __rtindfnpop               00438d58     LIBCMT:87disp.obj
 0001:00037d69       __rttosnpopde              00438d69     LIBCMT:87disp.obj
 0001:00037d73       __rtchsifneg               00438d73     LIBCMT:87disp.obj
 0001:00037d80       __startTwoArgErrorHandling 00438d80 f   LIBCMT:genexcep.obj
 0001:00037d97       __startOneArgErrorHandling 00438d97 f   LIBCMT:genexcep.obj
 0001:00037de0       __twoToTOS                 00438de0 f   LIBCMT:common.obj
 0001:00037df5       __load_CW                  00438df5 f   LIBCMT:common.obj
 0001:00037e0c       __convertTOStoQNaN         00438e0c f   LIBCMT:common.obj
 0001:00037e25       __fload_withFB             00438e25 f   LIBCMT:common.obj
 0001:00037e68       __checkTOS_withFB          00438e68 f   LIBCMT:common.obj
 0001:00037e7e       __fast_exit                00438e7e f   LIBCMT:common.obj
 0001:00037e8b       __math_exit                00438e8b f   LIBCMT:common.obj
 0001:00037eb5       __check_overflow_exit      00438eb5 f   LIBCMT:common.obj
 0001:00037ec9       __check_range_exit         00438ec9 f   LIBCMT:common.obj
 0001:00037f6c       __ceil_default             00438f6c f   LIBCMT:ceil.obj
 0001:00038043       __decomp                   00439043 f   LIBCMT:util.obj
 0001:00038115       __set_exp                  00439115 f   LIBCMT:util.obj
 0001:00038144       __sptype                   00439144 f   LIBCMT:util.obj
 0001:0003819f       ___set_fpsr_sse2           0043919f f   LIBCMT:fpctrl.obj
 0001:00038215       __clrfp                    00439215 f   LIBCMT:fpctrl.obj
 0001:00038226       __ctrlfp                   00439226 f   LIBCMT:fpctrl.obj
 0001:00038251       __set_statfp               00439251 f   LIBCMT:fpctrl.obj
 0001:000382a9       __statfp                   004392a9 f   LIBCMT:fpctrl.obj
 0001:000382b9       _strcpy_s                  004392b9 f   LIBCMT:strcpy_s.obj
 0001:00038310       _strlen                    00439310 f   LIBCMT:strlen.obj
 0001:0003839b       __lock                     0043939b f   LIBCMT:mlock.obj
 0001:000383cf       __mtdeletelocks            004393cf f   LIBCMT:mlock.obj
 0001:00038423       __mtinitlocknum            00439423 f   LIBCMT:mlock.obj
 0001:000384cc       __mtinitlocks              004394cc f   LIBCMT:mlock.obj
 0001:00038505       __unlock                   00439505 f   LIBCMT:mlock.obj
 0001:00038520       __FindPESection            00439520 f   LIBCMT:pesect.obj
 0001:00038570       __IsNonwritableInCurrentImage 00439570 f   LIBCMT:pesect.obj
 0001:00038630       __ValidateImageBase        00439630 f   LIBCMT:pesect.obj
 0001:00038661       ?terminate@@YAXXZ          00439661 f   LIBCMT:hooks.obj
 0001:00038695       __initp_eh_hooks           00439695 f   LIBCMT:hooks.obj
 0001:000386a6       __initp_misc_purevirt      004396a6 f   LIBCMT:inithelp.obj
 0001:000386b3       ___get_sigabrt             004396b3 f   LIBCMT:winsig.obj
 0001:000386c0       __initp_misc_winsig        004396c0 f   LIBCMT:winsig.obj
 0001:000386dc       _raise                     004396dc f   LIBCMT:winsig.obj
 0001:000388d1       __initp_misc_rand_s        004398d1 f   LIBCMT:rand_s.obj
 0001:000388de       _realloc                   004398de f   LIBCMT:realloc.obj
 0001:00038989       __calloc_impl              00439989 f   LIBCMT:calloc_impl.obj
 0001:00038a10       __local_unwind4            00439a10 f   LIBCMT:exsup4.obj
 0001:00038ae6       __seh_longjmp_unwind4@4    00439ae6 f   LIBCMT:exsup4.obj
 0001:00038b02       @_EH4_CallFilterFunc@8     00439b02 f   LIBCMT:exsup4.obj
 0001:00038b19       @_EH4_TransferToHandler@8  00439b19 f   LIBCMT:exsup4.obj
 0001:00038b32       @_EH4_GlobalUnwind2@8      00439b32 f   LIBCMT:exsup4.obj
 0001:00038b4b       @_EH4_LocalUnwind@16       00439b4b f   LIBCMT:exsup4.obj
 0001:00038b62       __isdigit_l                00439b62 f i LIBCMT:_ctype.obj
 0001:00038bb4       _isdigit                   00439bb4 f i LIBCMT:_ctype.obj
 0001:00038bdf       __tolower_l                00439bdf f   LIBCMT:tolower.obj
 0001:00038d22       _tolower                   00439d22 f   LIBCMT:tolower.obj
 0001:00038d50       _strrchr                   00439d50 f   LIBCMT:strrchr.obj
 0001:00038e87       ___crt_atoflt_l            00439e87 f   LIBCMT:atodbl.obj
 0001:00038f2b       __atodbl_l                 00439f2b f   LIBCMT:atodbl.obj
 0001:00038fb9       __atoflt_l                 00439fb9 f   LIBCMT:atodbl.obj
 0001:00038fe0       __alldvrm                  00439fe0 f   LIBCMT:lldvrm.obj
 0001:000390c0       __aullshr                  0043a0c0 f   LIBCMT:ullshr.obj
 0001:000390df       __controlfp_s              0043a0df f   LIBCMT:contrlfp.obj
 0001:0003913c       __fptrap                   0043a13c f   LIBCMT:crt0fp.obj
 0001:00039145       ___initstdio               0043a145 f   LIBCMT:_file.obj
 0001:000391b8       ___endstdio                0043a1b8 f   LIBCMT:_file.obj
 0001:000391df       __lock_file                0043a1df f   LIBCMT:_file.obj
 0001:0003921e       __lock_file2               0043a21e f   LIBCMT:_file.obj
 0001:0003924e       __unlock_file              0043a24e f   LIBCMT:_file.obj
 0001:00039288       __unlock_file2             0043a288 f   LIBCMT:_file.obj
 0001:0003930f       __ismbblead                0043a30f f   LIBCMT:ismbbyte.obj
 0001:00039325       _wcscat_s                  0043a325 f   LIBCMT:wcscat_s.obj
 0001:00039391       _wcscpy_s                  0043a391 f   LIBCMT:wcscpy_s.obj
 0001:000393ed       _wcslen                    0043a3ed f   LIBCMT:wcslen.obj
 0001:00039406       _wcsncpy_s                 0043a406 f   LIBCMT:wcsncpy_s.obj
 0001:000394c4       ___crtMessageBoxW          0043a4c4 f   LIBCMT:crtmboxw.obj
 0001:000396aa       __ld12tod                  0043a6aa f   LIBCMT:intrncvt.obj
 0001:00039c1e       __ld12tof                  0043ac1e f   LIBCMT:intrncvt.obj
 0001:0003a190       ___strgtold12_l            0043b190 f   LIBCMT:strgtold.obj
 0001:0003a938       ___free_lconv_mon          0043b938 f   LIBCMT:initmon.obj
 0001:0003aa34       ___free_lconv_num          0043ba34 f   LIBCMT:initnum.obj
 0001:0003aa9b       ___free_lc_time            0043ba9b f   LIBCMT:inittime.obj
 0001:0003b01f       ___crtLCMapStringA         0043c01f f   LIBCMT:a_map.obj
 0001:0003b065       __freea                    0043c065 f i LIBCMT:a_map.obj
 0001:0003b17b       ___crtGetStringTypeA       0043c17b f   LIBCMT:a_str.obj
 0001:0003b1bb       __isleadbyte_l             0043c1bb f i LIBCMT:_wctype.obj
 0001:0003b1f5       _isleadbyte                0043c1f5 f i LIBCMT:_wctype.obj
 0001:0003b206       _GetTableIndexFromLocaleName 0043c206 f   LIBCMT:winapinls.obj
 0001:0003b254       ___crtDownlevelLocaleNameToLCID 0043c254 f   LIBCMT:winapinls.obj
 0001:0003b27e       ___crtLCMapStringEx        0043c27e f   LIBCMT:winapinls.obj
 0001:0003b2ca       ___wcsnicmp_ascii          0043c2ca f   LIBCMT:winapinls.obj
 0001:0003b338       _$I10_OUTPUT               0043c338 f   LIBCMT:x10fout.obj
 0001:0003bd0c       __matherr                  0043cd0c f   LIBCMT:matherr.obj
 0001:0003bd0f       __frnd                     0043cd0f f   LIBCMT:frnd.obj
 0001:0003bd23       __87except                 0043cd23 f   LIBCMT:87except.obj
 0001:0003be2c       _abort                     0043ce2c f   LIBCMT:abort.obj
 0001:0003be6f       __fileno                   0043ce6f f   LIBCMT:fileno.obj
 0001:0003be93       __isatty                   0043ce93 f   LIBCMT:isatty.obj
 0001:0003bee7       __fflush_nolock            0043cee7 f   LIBCMT:fflush.obj
 0001:0003bf2d       __flush                    0043cf2d f   LIBCMT:fflush.obj
 0001:0003bf91       __flushall                 0043cf91 f   LIBCMT:fflush.obj
 0001:0003c080       __global_unwind2           0043d080 f   LIBCMT:exsup.obj
 0001:0003c0e5       __local_unwind2            0043d0e5 f   LIBCMT:exsup.obj
 0001:0003c169       __abnormal_termination     0043d169 f   LIBCMT:exsup.obj
 0001:0003c18c       __NLG_Notify1              0043d18c f   LIBCMT:exsup.obj
 0001:0003c195       __NLG_Notify               0043d195 f   LIBCMT:exsup.obj
 0001:0003c1ac       __NLG_Dispatch2            0043d1ac     LIBCMT:exsup.obj
 0001:0003c1ac       __NLG_Dispatch             0043d1ac     LIBCMT:exsup.obj
 0001:0003c1b4       __NLG_Call                 0043d1b4 f   LIBCMT:exsup.obj
 0001:0003c1b6       __NLG_Return2              0043d1b6     LIBCMT:exsup.obj
 0001:0003c1c0       __aulldvrm                 0043d1c0 f   LIBCMT:ulldvrm.obj
 0001:0003c2fe       __control87                0043d2fe f i LIBCMT:ieee87.obj
 0001:0003c697       __fcloseall                0043d697 f   LIBCMT:closeall.obj
 0001:0003c734       ___mtold12                 0043d734 f   LIBCMT:mantold.obj
 0001:0003c920       __alloca_probe_16          0043d920 f   LIBCMT:alloca16.obj
 0001:0003c936       __alloca_probe_8           0043d936     LIBCMT:alloca16.obj
 0001:0003c94c       __commit                   0043d94c f   LIBCMT:commit.obj
 0001:0003ca35       __write                    0043da35 f   LIBCMT:write.obj
 0001:0003cb24       __write_nolock             0043db24 f   LIBCMT:write.obj
 0001:0003d389       __fclose_nolock            0043e389 f   LIBCMT:fclose.obj
 0001:0003d3f5       _fclose                    0043e3f5 f   LIBCMT:fclose.obj
 0001:0003d46c       ___lock_fhandle            0043e46c f   LIBCMT:osfinfo.obj
 0001:0003d4fa       __free_osfhnd              0043e4fa f   LIBCMT:osfinfo.obj
 0001:0003d580       __get_osfhandle            0043e580 f   LIBCMT:osfinfo.obj
 0001:0003d5e7       __unlock_fhandle           0043e5e7 f   LIBCMT:osfinfo.obj
 0001:0003d60d       __lseeki64_nolock          0043e60d f   LIBCMT:lseeki64.obj
 0001:0003d680       __mbtowc_l                 0043e680 f   LIBCMT:mbtowc.obj
 0001:0003d775       _mbtowc                    0043e775 f   LIBCMT:mbtowc.obj
 0001:0003d78d       __putwch_nolock            0043e78d f   LIBCMT:putwch.obj
 0001:0003d7d0       __close                    0043e7d0 f   LIBCMT:close.obj
 0001:0003d8ab       __close_nolock             0043e8ab f   LIBCMT:close.obj
 0001:0003d945       __freebuf                  0043e945 f   LIBCMT:_freebuf.obj
 0001:0003d975       ___termconout              0043e975 f   LIBCMT:initcon.obj
 0001:0003d98c       ___initconout              0043e98c f   LIBCMT:initcon.obj
 0001:0003d9ac       _IsProcessorFeaturePresent@4 0043e9ac f   kernel32:KERNEL32.dll
 0001:0003d9b2       _RtlUnwind@16              0043e9b2 f   kernel32:KERNEL32.dll
 0001:0003d9b8       _DdeInitializeW@16         0043e9b8 f   user32:USER32.dll
 0001:0003d9be       _DdeUninitialize@4         0043e9be f   user32:USER32.dll
 0001:0003d9c4       _DdeConnect@16             0043e9c4 f   user32:USER32.dll
 0001:0003d9ca       _DdeDisconnect@4           0043e9ca f   user32:USER32.dll
 0001:0003d9d0       _DdeClientTransaction@32   0043e9d0 f   user32:USER32.dll
 0001:0003d9d6       _DdeCreateStringHandleW@12 0043e9d6 f   user32:USER32.dll
 0001:0003d9dc       _DdeFreeStringHandle@8     0043e9dc f   user32:USER32.dll
 0001:0003d9e2       _DdeCmpStringHandles@8     0043e9e2 f   user32:USER32.dll
 0002:00000000       __imp__InitCommonControls@0 00440000     comctl32:COMCTL32.dll
 0002:00000004       \177COMCTL32_NULL_THUNK_DATA 00440004     comctl32:COMCTL32.dll
 0002:00000008       __imp__SelectObject@8      00440008     gdi32:GDI32.dll
 0002:0000000c       __imp__LineTo@12           0044000c     gdi32:GDI32.dll
 0002:00000010       __imp__DeleteObject@4      00440010     gdi32:GDI32.dll
 0002:00000014       __imp__CreateSolidBrush@4  00440014     gdi32:GDI32.dll
 0002:00000018       __imp__CreatePen@12        00440018     gdi32:GDI32.dll
 0002:0000001c       __imp__MoveToEx@16         0044001c     gdi32:GDI32.dll
 0002:00000020       __imp__CreateFontIndirectW@4 00440020     gdi32:GDI32.dll
 0002:00000024       __imp__GetStockObject@4    00440024     gdi32:GDI32.dll
 0002:00000028       __imp__SetBkColor@8        00440028     gdi32:GDI32.dll
 0002:0000002c       __imp__GetBkMode@4         0044002c     gdi32:GDI32.dll
 0002:00000030       __imp__SetBkMode@8         00440030     gdi32:GDI32.dll
 0002:00000034       __imp__SetTextColor@8      00440034     gdi32:GDI32.dll
 0002:00000038       __imp__SetTextAlign@8      00440038     gdi32:GDI32.dll
 0002:0000003c       __imp__TextOutW@20         0044003c     gdi32:GDI32.dll
 0002:00000040       __imp__GetTextExtentPoint32W@16 00440040     gdi32:GDI32.dll
 0002:00000044       __imp__GetTextMetricsW@8   00440044     gdi32:GDI32.dll
 0002:00000048       __imp__Ellipse@20          00440048     gdi32:GDI32.dll
 0002:0000004c       \177GDI32_NULL_THUNK_DATA  0044004c     gdi32:GDI32.dll
 0002:00000050       __imp__SystemTimeToFileTime@8 00440050     kernel32:KERNEL32.dll
 0002:00000054       __imp__GetLocalTime@4      00440054     kernel32:KERNEL32.dll
 0002:00000058       __imp__lstrcmpW@8          00440058     kernel32:KERNEL32.dll
 0002:0000005c       __imp__SetCommState@8      0044005c     kernel32:KERNEL32.dll
 0002:00000060       __imp__GetCommState@8      00440060     kernel32:KERNEL32.dll
 0002:00000064       __imp__WriteFile@20        00440064     kernel32:KERNEL32.dll
 0002:00000068       __imp__SetFileAttributesW@8 00440068     kernel32:KERNEL32.dll
 0002:0000006c       __imp__CreateFileW@28      0044006c     kernel32:KERNEL32.dll
 0002:00000070       __imp__FileTimeToSystemTime@8 00440070     kernel32:KERNEL32.dll
 0002:00000074       __imp__lstrcpynW@12        00440074     kernel32:KERNEL32.dll
 0002:00000078       __imp__GetTickCount@0      00440078     kernel32:KERNEL32.dll
 0002:0000007c       __imp__WaitForSingleObject@8 0044007c     kernel32:KERNEL32.dll
 0002:00000080       __imp__ResetEvent@4        00440080     kernel32:KERNEL32.dll
 0002:00000084       __imp__lstrlenW@4          00440084     kernel32:KERNEL32.dll
 0002:00000088       __imp__SetFilePointerEx@20 00440088     kernel32:KERNEL32.dll
 0002:0000008c       __imp__SetStdHandle@8      0044008c     kernel32:KERNEL32.dll
 0002:00000090       __imp__GetConsoleMode@8    00440090     kernel32:KERNEL32.dll
 0002:00000094       __imp__GetConsoleCP@0      00440094     kernel32:KERNEL32.dll
 0002:00000098       __imp__FlushFileBuffers@4  00440098     kernel32:KERNEL32.dll
 0002:0000009c       __imp__LCMapStringW@24     0044009c     kernel32:KERNEL32.dll
 0002:000000a0       __imp__GetStringTypeW@16   004400a0     kernel32:KERNEL32.dll
 0002:000000a4       __imp__OutputDebugStringW@4 004400a4     kernel32:KERNEL32.dll
 0002:000000a8       __imp__RtlUnwind@16        004400a8     kernel32:KERNEL32.dll
 0002:000000ac       __imp__HeapReAlloc@16      004400ac     kernel32:KERNEL32.dll
 0002:000000b0       __imp__LoadLibraryExW@12   004400b0     kernel32:KERNEL32.dll
 0002:000000b4       __imp__GetCPInfo@8         004400b4     kernel32:KERNEL32.dll
 0002:000000b8       __imp__GetOEMCP@0          004400b8     kernel32:KERNEL32.dll
 0002:000000bc       __imp__GetACP@0            004400bc     kernel32:KERNEL32.dll
 0002:000000c0       __imp__IsValidCodePage@4   004400c0     kernel32:KERNEL32.dll
 0002:000000c4       __imp__FreeEnvironmentStringsW@4 004400c4     kernel32:KERNEL32.dll
 0002:000000c8       __imp__GetEnvironmentStringsW@0 004400c8     kernel32:KERNEL32.dll
 0002:000000cc       __imp__GetSystemTimeAsFileTime@4 004400cc     kernel32:KERNEL32.dll
 0002:000000d0       __imp__lstrcpyW@8          004400d0     kernel32:KERNEL32.dll
 0002:000000d4       __imp__WinExec@8           004400d4     kernel32:KERNEL32.dll
 0002:000000d8       __imp__CreateProcessW@40   004400d8     kernel32:KERNEL32.dll
 0002:000000dc       __imp__Sleep@4             004400dc     kernel32:KERNEL32.dll
 0002:000000e0       __imp__CreateEventW@16     004400e0     kernel32:KERNEL32.dll
 0002:000000e4       __imp__SetEvent@4          004400e4     kernel32:KERNEL32.dll
 0002:000000e8       __imp__GetFileAttributesW@4 004400e8     kernel32:KERNEL32.dll
 0002:000000ec       __imp__CloseHandle@4       004400ec     kernel32:KERNEL32.dll
 0002:000000f0       __imp__WriteConsoleW@20    004400f0     kernel32:KERNEL32.dll
 0002:000000f4       __imp__DeleteFileW@4       004400f4     kernel32:KERNEL32.dll
 0002:000000f8       __imp__GetCurrentProcessId@0 004400f8     kernel32:KERNEL32.dll
 0002:000000fc       __imp__QueryPerformanceCounter@4 004400fc     kernel32:KERNEL32.dll
 0002:00000100       __imp__GetModuleFileNameW@12 00440100     kernel32:KERNEL32.dll
 0002:00000104       __imp__GetModuleFileNameA@12 00440104     kernel32:KERNEL32.dll
 0002:00000108       __imp__GetFileType@4       00440108     kernel32:KERNEL32.dll
 0002:0000010c       __imp__GetStdHandle@4      0044010c     kernel32:KERNEL32.dll
 0002:00000110       __imp__GetProcessHeap@0    00440110     kernel32:KERNEL32.dll
 0002:00000114       __imp__GetModuleHandleW@4  00440114     kernel32:KERNEL32.dll
 0002:00000118       __imp__GetStartupInfoW@4   00440118     kernel32:KERNEL32.dll
 0002:0000011c       __imp__TlsFree@4           0044011c     kernel32:KERNEL32.dll
 0002:00000120       __imp__TlsSetValue@8       00440120     kernel32:KERNEL32.dll
 0002:00000124       __imp__TlsGetValue@4       00440124     kernel32:KERNEL32.dll
 0002:00000128       __imp__TlsAlloc@0          00440128     kernel32:KERNEL32.dll
 0002:0000012c       __imp__CreateDirectoryW@8  0044012c     kernel32:KERNEL32.dll
 0002:00000130       __imp__lstrcatW@8          00440130     kernel32:KERNEL32.dll
 0002:00000134       __imp__FindClose@4         00440134     kernel32:KERNEL32.dll
 0002:00000138       __imp__FindFirstFileW@8    00440138     kernel32:KERNEL32.dll
 0002:0000013c       __imp__GetDriveTypeW@4     0044013c     kernel32:KERNEL32.dll
 0002:00000140       __imp__SetErrorMode@4      00440140     kernel32:KERNEL32.dll
 0002:00000144       __imp__lstrcmpiW@8         00440144     kernel32:KERNEL32.dll
 0002:00000148       __imp__CopyFileW@12        00440148     kernel32:KERNEL32.dll
 0002:0000014c       __imp__MoveFileW@8         0044014c     kernel32:KERNEL32.dll
 0002:00000150       __imp__GetFileSize@8       00440150     kernel32:KERNEL32.dll
 0002:00000154       __imp__LockFile@20         00440154     kernel32:KERNEL32.dll
 0002:00000158       __imp__ReadFile@20         00440158     kernel32:KERNEL32.dll
 0002:0000015c       __imp__SetEndOfFile@4      0044015c     kernel32:KERNEL32.dll
 0002:00000160       __imp__SetFilePointer@16   00440160     kernel32:KERNEL32.dll
 0002:00000164       __imp__UnlockFile@20       00440164     kernel32:KERNEL32.dll
 0002:00000168       __imp__GetLastError@0      00440168     kernel32:KERNEL32.dll
 0002:0000016c       __imp__GetFileTime@16      0044016c     kernel32:KERNEL32.dll
 0002:00000170       __imp__InitializeCriticalSection@4 00440170     kernel32:KERNEL32.dll
 0002:00000174       __imp__EnterCriticalSection@4 00440174     kernel32:KERNEL32.dll
 0002:00000178       __imp__LeaveCriticalSection@4 00440178     kernel32:KERNEL32.dll
 0002:0000017c       __imp__DeleteCriticalSection@4 0044017c     kernel32:KERNEL32.dll
 0002:00000180       __imp__GetPrivateProfileStringW@24 00440180     kernel32:KERNEL32.dll
 0002:00000184       __imp__WritePrivateProfileStringW@16 00440184     kernel32:KERNEL32.dll
 0002:00000188       __imp__GetCommandLineW@0   00440188     kernel32:KERNEL32.dll
 0002:0000018c       __imp__LocalFree@4         0044018c     kernel32:KERNEL32.dll
 0002:00000190       __imp__GetDiskFreeSpaceExW@16 00440190     kernel32:KERNEL32.dll
 0002:00000194       __imp__FindNextFileW@8     00440194     kernel32:KERNEL32.dll
 0002:00000198       __imp__RemoveDirectoryW@4  00440198     kernel32:KERNEL32.dll
 0002:0000019c       __imp__EncodePointer@4     0044019c     kernel32:KERNEL32.dll
 0002:000001a0       __imp__DecodePointer@4     004401a0     kernel32:KERNEL32.dll
 0002:000001a4       __imp__CreateThread@24     004401a4     kernel32:KERNEL32.dll
 0002:000001a8       __imp__ExitThread@4        004401a8     kernel32:KERNEL32.dll
 0002:000001ac       __imp__ResumeThread@4      004401ac     kernel32:KERNEL32.dll
 0002:000001b0       __imp__IsDebuggerPresent@0 004401b0     kernel32:KERNEL32.dll
 0002:000001b4       __imp__IsProcessorFeaturePresent@4 004401b4     kernel32:KERNEL32.dll
 0002:000001b8       __imp__GetCommandLineA@0   004401b8     kernel32:KERNEL32.dll
 0002:000001bc       __imp__HeapAlloc@12        004401bc     kernel32:KERNEL32.dll
 0002:000001c0       __imp__RaiseException@16   004401c0     kernel32:KERNEL32.dll
 0002:000001c4       __imp__HeapFree@12         004401c4     kernel32:KERNEL32.dll
 0002:000001c8       __imp__ExitProcess@4       004401c8     kernel32:KERNEL32.dll
 0002:000001cc       __imp__GetModuleHandleExW@12 004401cc     kernel32:KERNEL32.dll
 0002:000001d0       __imp__GetProcAddress@8    004401d0     kernel32:KERNEL32.dll
 0002:000001d4       __imp__MultiByteToWideChar@24 004401d4     kernel32:KERNEL32.dll
 0002:000001d8       __imp__WideCharToMultiByte@32 004401d8     kernel32:KERNEL32.dll
 0002:000001dc       __imp__HeapSize@12         004401dc     kernel32:KERNEL32.dll
 0002:000001e0       __imp__SetLastError@4      004401e0     kernel32:KERNEL32.dll
 0002:000001e4       __imp__GetCurrentThreadId@0 004401e4     kernel32:KERNEL32.dll
 0002:000001e8       __imp__UnhandledExceptionFilter@4 004401e8     kernel32:KERNEL32.dll
 0002:000001ec       __imp__SetUnhandledExceptionFilter@4 004401ec     kernel32:KERNEL32.dll
 0002:000001f0       __imp__InitializeCriticalSectionAndSpinCount@8 004401f0     kernel32:KERNEL32.dll
 0002:000001f4       __imp__GetCurrentProcess@0 004401f4     kernel32:KERNEL32.dll
 0002:000001f8       __imp__TerminateProcess@8  004401f8     kernel32:KERNEL32.dll
 0002:000001fc       \177KERNEL32_NULL_THUNK_DATA 004401fc     kernel32:KERNEL32.dll
 0002:00000200       __imp__CommandLineToArgvW@8 00440200     shell32:SHELL32.dll
 0002:00000204       \177SHELL32_NULL_THUNK_DATA 00440204     shell32:SHELL32.dll
 0002:00000208       __imp__GetMessageW@16      00440208     user32:USER32.dll
 0002:0000020c       __imp__TranslateMessage@4  0044020c     user32:USER32.dll
 0002:00000210       __imp__DispatchMessageW@4  00440210     user32:USER32.dll
 0002:00000214       __imp__SendMessageW@16     00440214     user32:USER32.dll
 0002:00000218       __imp__PostMessageW@16     00440218     user32:USER32.dll
 0002:0000021c       __imp__DefWindowProcW@16   0044021c     user32:USER32.dll
 0002:00000220       __imp__PostQuitMessage@4   00440220     user32:USER32.dll
 0002:00000224       __imp__CallWindowProcW@20  00440224     user32:USER32.dll
 0002:00000228       __imp__RegisterClassW@4    00440228     user32:USER32.dll
 0002:0000022c       __imp__CreateWindowExW@48  0044022c     user32:USER32.dll
 0002:00000230       __imp__CloseWindow@4       00440230     user32:USER32.dll
 0002:00000234       __imp__CreateDialogParamW@20 00440234     user32:USER32.dll
 0002:00000238       __imp__GetDesktopWindow@0  00440238     user32:USER32.dll
 0002:0000023c       __imp__IsWindowEnabled@4   0044023c     user32:USER32.dll
 0002:00000240       __imp__GetDlgCtrlID@4      00440240     user32:USER32.dll
 0002:00000244       __imp__SetWindowPos@28     00440244     user32:USER32.dll
 0002:00000248       __imp__DdeGetData@16       00440248     user32:USER32.dll
 0002:0000024c       __imp__SystemParametersInfoW@16 0044024c     user32:USER32.dll
 0002:00000250       __imp__IsDialogMessageW@8  00440250     user32:USER32.dll
 0002:00000254       __imp__LoadIconW@8         00440254     user32:USER32.dll
 0002:00000258       __imp__LoadCursorW@8       00440258     user32:USER32.dll
 0002:0000025c       __imp__SetWindowLongW@12   0044025c     user32:USER32.dll
 0002:00000260       __imp__MessageBoxW@16      00440260     user32:USER32.dll
 0002:00000264       __imp__GetClientRect@8     00440264     user32:USER32.dll
 0002:00000268       __imp__InvalidateRect@12   00440268     user32:USER32.dll
 0002:0000026c       __imp__ReleaseDC@8         0044026c     user32:USER32.dll
 0002:00000270       __imp__GetDC@4             00440270     user32:USER32.dll
 0002:00000274       __imp__UpdateWindow@4      00440274     user32:USER32.dll
 0002:00000278       __imp__EnableMenuItem@12   00440278     user32:USER32.dll
 0002:0000027c       __imp__GetMenu@4           0044027c     user32:USER32.dll
 0002:00000280       __imp__TranslateAcceleratorW@12 00440280     user32:USER32.dll
 0002:00000284       __imp__LoadAcceleratorsW@8 00440284     user32:USER32.dll
 0002:00000288       __imp__KillTimer@8         00440288     user32:USER32.dll
 0002:0000028c       __imp__SetTimer@16         0044028c     user32:USER32.dll
 0002:00000290       __imp__GetFocus@0          00440290     user32:USER32.dll
 0002:00000294       __imp__SetFocus@4          00440294     user32:USER32.dll
 0002:00000298       __imp__CheckRadioButton@16 00440298     user32:USER32.dll
 0002:0000029c       __imp__GetDlgItem@8        0044029c     user32:USER32.dll
 0002:000002a0       __imp__EndDialog@8         004402a0     user32:USER32.dll
 0002:000002a4       __imp__IsCharAlphaW@4      004402a4     user32:USER32.dll
 0002:000002a8       __imp__CharToOemW@8        004402a8     user32:USER32.dll
 0002:000002ac       __imp__GetWindowTextLengthW@4 004402ac     user32:USER32.dll
 0002:000002b0       __imp__wsprintfW           004402b0     user32:USER32.dll
 0002:000002b4       __imp__IsWindowVisible@4   004402b4     user32:USER32.dll
 0002:000002b8       __imp__GetWindowRect@8     004402b8     user32:USER32.dll
 0002:000002bc       __imp__GetWindowLongW@8    004402bc     user32:USER32.dll
 0002:000002c0       __imp__GetParent@4         004402c0     user32:USER32.dll
 0002:000002c4       __imp__MapDialogRect@8     004402c4     user32:USER32.dll
 0002:000002c8       __imp__BeginPaint@8        004402c8     user32:USER32.dll
 0002:000002cc       __imp__EndPaint@8          004402cc     user32:USER32.dll
 0002:000002d0       __imp__FillRect@12         004402d0     user32:USER32.dll
 0002:000002d4       __imp__CharUpperW@4        004402d4     user32:USER32.dll
 0002:000002d8       __imp__DdeInitializeW@16   004402d8     user32:USER32.dll
 0002:000002dc       __imp__DdeUninitialize@4   004402dc     user32:USER32.dll
 0002:000002e0       __imp__DdeConnect@16       004402e0     user32:USER32.dll
 0002:000002e4       __imp__DdeDisconnect@4     004402e4     user32:USER32.dll
 0002:000002e8       __imp__DdeClientTransaction@32 004402e8     user32:USER32.dll
 0002:000002ec       __imp__DdeCreateStringHandleW@12 004402ec     user32:USER32.dll
 0002:000002f0       __imp__DdeFreeStringHandle@8 004402f0     user32:USER32.dll
 0002:000002f4       __imp__DdeCmpStringHandles@8 004402f4     user32:USER32.dll
 0002:000002f8       __imp__LoadStringW@16      004402f8     user32:USER32.dll
 0002:000002fc       __imp__ShowWindow@8        004402fc     user32:USER32.dll
 0002:00000300       __imp__MoveWindow@24       00440300     user32:USER32.dll
 0002:00000304       __imp__IsDlgButtonChecked@8 00440304     user32:USER32.dll
 0002:00000308       __imp__SendDlgItemMessageW@20 00440308     user32:USER32.dll
 0002:0000030c       __imp__CheckMenuItem@12    0044030c     user32:USER32.dll
 0002:00000310       __imp__SetForegroundWindow@4 00440310     user32:USER32.dll
 0002:00000314       __imp__FindWindowW@8       00440314     user32:USER32.dll
 0002:00000318       __imp__GetClassNameW@12    00440318     user32:USER32.dll
 0002:0000031c       __imp__IsCharAlphaNumericW@4 0044031c     user32:USER32.dll
 0002:00000320       __imp__SetCursor@4         00440320     user32:USER32.dll
 0002:00000324       __imp__DestroyWindow@4     00440324     user32:USER32.dll
 0002:00000328       __imp__GetUpdateRect@12    00440328     user32:USER32.dll
 0002:0000032c       __imp__IsIconic@4          0044032c     user32:USER32.dll
 0002:00000330       __imp__EnableWindow@8      00440330     user32:USER32.dll
 0002:00000334       __imp__ScreenToClient@8    00440334     user32:USER32.dll
 0002:00000338       __imp__SetCapture@4        00440338     user32:USER32.dll
 0002:0000033c       __imp__ReleaseCapture@0    0044033c     user32:USER32.dll
 0002:00000340       __imp__GetSystemMetrics@4  00440340     user32:USER32.dll
 0002:00000344       __imp__ClientToScreen@8    00440344     user32:USER32.dll
 0002:00000348       __imp__SetDlgItemTextW@12  00440348     user32:USER32.dll
 0002:0000034c       __imp__DialogBoxParamW@20  0044034c     user32:USER32.dll
 0002:00000350       \177USER32_NULL_THUNK_DATA 00440350     user32:USER32.dll
 0002:00000354       __imp__bind@12             00440354     wsock32:WSOCK32.dll
 0002:00000358       __imp__closesocket@4       00440358     wsock32:WSOCK32.dll
 0002:0000035c       __imp__htonl@4             0044035c     wsock32:WSOCK32.dll
 0002:00000360       __imp__htons@4             00440360     wsock32:WSOCK32.dll
 0002:00000364       __imp__inet_addr@4         00440364     wsock32:WSOCK32.dll
 0002:00000368       __imp__recvfrom@24         00440368     wsock32:WSOCK32.dll
 0002:0000036c       __imp__sendto@24           0044036c     wsock32:WSOCK32.dll
 0002:00000370       __imp__socket@12           00440370     wsock32:WSOCK32.dll
 0002:00000374       __imp__gethostbyname@4     00440374     wsock32:WSOCK32.dll
 0002:00000378       __imp__gethostname@8       00440378     wsock32:WSOCK32.dll
 0002:0000037c       __imp__WSAStartup@8        0044037c     wsock32:WSOCK32.dll
 0002:00000380       __imp__WSACleanup@0        00440380     wsock32:WSOCK32.dll
 0002:00000384       __imp__WSAGetLastError@0   00440384     wsock32:WSOCK32.dll
 0002:00000388       \177WSOCK32_NULL_THUNK_DATA 00440388     wsock32:WSOCK32.dll
 0002:0000038c       ___xc_a                    0044038c     LIBCMT:crt0init.obj
 0002:00000574       ___xc_z                    00440574     LIBCMT:crt0init.obj
 0002:00000578       ___xi_a                    00440578     LIBCMT:crt0init.obj
 0002:00000594       ___xi_z                    00440594     LIBCMT:crt0init.obj
 0002:00000598       ___xp_a                    00440598     LIBCMT:crt0init.obj
 0002:000005a8       ___xp_z                    004405a8     LIBCMT:crt0init.obj
 0002:000005ac       ___xt_a                    004405ac     LIBCMT:crt0init.obj
 0002:000005b0       ___xt_z                    004405b0     LIBCMT:crt0init.obj
 0002:000005c0       ??_C@_1BC@MMPNJEGJ@?$AAF?$AA2?$AA_?$AAR?$AAA?$AAD?$AAI?$AAO?$AA?$AA@ 004405c0     ft2.obj
 0002:000005d4       ??_C@_1BC@GCJFAFPI@?$AAF?$AA3?$AA_?$AAR?$AAA?$AAD?$AAI?$AAO?$AA?$AA@ 004405d4     ft2.obj
 0002:000005e8       ??_C@_1BC@JPGMPNIN@?$AAF?$AA4?$AA_?$AAR?$AAA?$AAD?$AAI?$AAO?$AA?$AA@ 004405e8     ft2.obj
 0002:000005fc       ??_C@_1BC@DBAEGMBM@?$AAF?$AA5?$AA_?$AAR?$AAA?$AAD?$AAI?$AAO?$AA?$AA@ 004405fc     ft2.obj
 0002:00000610       ??_C@_1BC@BIMMNIOO@?$AAF?$AA6?$AA_?$AAR?$AAA?$AAD?$AAI?$AAO?$AA?$AA@ 00440610     ft2.obj
 0002:00000624       ??_C@_1BC@LGKEEJHP@?$AAF?$AA7?$AA_?$AAR?$AAA?$AAD?$AAI?$AAO?$AA?$AA@ 00440624     ft2.obj
 0002:00000638       ??_C@_1BC@DIEOCOEF@?$AAF?$AA8?$AA_?$AAR?$AAA?$AAD?$AAI?$AAO?$AA?$AA@ 00440638     ft2.obj
 0002:0000064c       ??_C@_1BC@JGCGLPNE@?$AAF?$AA9?$AA_?$AAR?$AAA?$AAD?$AAI?$AAO?$AA?$AA@ 0044064c     ft2.obj
 0002:00000660       ??_C@_1BE@LKAOEGCF@?$AAF?$AA1?$AA0?$AA_?$AAR?$AAA?$AAD?$AAI?$AAO?$AA?$AA@ 00440660     ft2.obj
 0002:000006bc       ??_C@_1BI@IFMGOHDJ@?$AAC?$AAO?$AAN?$AAT?$AAR?$AAO?$AAL?$AA?4?$AAM?$AAS?$AAG?$AA?$AA@ 004406bc     ft2.obj
 0002:000006d4       ??_C@_1CA@FPBKJBLC@?$AAf?$AAt?$AAi?$AAi?$AA_?$AAb?$AAo?$AAa?$AAr?$AAd?$AAs?$AA?4?$AAt?$AAx?$AAt?$AA?$AA@ 004406d4     ft2.obj
 0002:000006f4       ??_C@_1DC@NBOHIGPD@?$AAf?$AAt?$AAi?$AAi?$AA_?$AAc?$AAt?$AAr?$AAl?$AA_?$AAp?$AAr?$AAo?$AAg?$AA_?$AAs?$AAt?$AAe?$AAp?$AAs?$AA?4?$AAt?$AAx?$AAt?$AA?$AA@ 004406f4     ft2.obj
 0002:00000728       ??_C@_1DC@IMHKOKID@?$AAf?$AAt?$AAi?$AAi?$AA_?$AAe?$AAd?$AAi?$AAt?$AAo?$AAr?$AA_?$AAs?$AAe?$AAt?$AAt?$AAi?$AAn?$AAg?$AAs?$AA?4?$AAi?$AAn?$AAi?$AA?$AA@ 00440728     ft2.obj
 0002:0000075c       ??_C@_1DC@HCFJDLFH@?$AAf?$AAt?$AAi?$AAi?$AA_?$AAg?$AAl?$AAo?$AAb?$AAa?$AAl?$AA_?$AAs?$AAe?$AAt?$AAt?$AAi?$AAn?$AAg?$AAs?$AA?4?$AAt?$AAx?$AAt?$AA?$AA@ 0044075c     ft2.obj
 0002:00000790       ??_C@_1DE@CBBBKKPO@?$AAf?$AAt?$AAi?$AAi?$AA_?$AAm?$AAa?$AAc?$AAh?$AAi?$AAn?$AAe?$AA_?$AAs?$AAe?$AAt?$AAt?$AAi?$AAn?$AAg?$AAs?$AA?4?$AAt?$AAx?$AAt?$AA?$AA@ 00440790     ft2.obj
 0002:000007c4       ??_C@_1CE@MLPNJNJM@?$AAm?$AAa?$AAc?$AAh?$AAi?$AAn?$AAe?$AA_?$AAs?$AAe?$AAt?$AAu?$AAp?$AA?4?$AAc?$AAs?$AAv?$AA?$AA@ 004407c4     ft2.obj
 0002:000007e8       ??_C@_1BI@IMIPKOFB@?$AAV?$AAA?$AAL?$AAR?$AAE?$AAS?$AAP?$AA?4?$AAS?$AAA?$AAV?$AA?$AA@ 004407e8     ft2.obj
 0002:00000800       ??_C@_19DKDMOPK@?$AA?4?$AAP?$AAR?$AA2?$AA?$AA@ 00440800     ft2.obj
 0002:00000810       ??_7WINDOW_CLASS@@6B@      00440810     ft2.obj
 0002:00000818       ??_7FTII_VAR@@6B@          00440818     ft2.obj
 0002:00000844       ??_7FTII_VAR_ARRAY@@6B@    00440844     ft2.obj
 0002:0000086c       ??_C@_1DE@MNNJOBGO@?$AAU?$AAN?$AAA?$AAB?$AAL?$AAE?$AA_?$AAT?$AAO?$AA_?$AAC?$AAO?$AAN?$AAT?$AAI?$AAN?$AAU?$AAE?$AA_?$AAS?$AAT?$AAR?$AAI?$AAN?$AAG?$AA?$AA@ 0044086c     ft2.obj
 0002:000008a0       ??_C@_1DI@JKDNKCCP@?$AAM?$AAO?$AAN?$AAI?$AAT?$AAO?$AAR?$AA_?$AAW?$AAI?$AAN?$AAD?$AAO?$AAW?$AA_?$AAT?$AAI?$AAT?$AAL?$AAE?$AA_?$AAS?$AAT?$AAR?$AAI?$AAN?$AAG?$AA?$AA@ 004408a0     ft2.obj
 0002:000008d8       ??_C@_1CM@DOIDPCNA@?$AAL?$AAO?$AAW?$AA_?$AAD?$AAI?$AAS?$AAK?$AA_?$AAS?$AAP?$AAA?$AAC?$AAE?$AA_?$AAS?$AAT?$AAR?$AAI?$AAN?$AAG?$AA?$AA@ 004408d8     ft2.obj
 0002:00000904       ??_C@_1CM@MGJCHOIC@?$AAN?$AAO?$AA_?$AAS?$AAH?$AAO?$AAT?$AAS?$AA_?$AAS?$AAA?$AAV?$AAE?$AAD?$AA_?$AAS?$AAT?$AAR?$AAI?$AAN?$AAG?$AA?$AA@ 00440904     ft2.obj
 0002:00000930       ??_C@_1EA@DIFJCJDN@?$AAB?$AAO?$AAA?$AAR?$AAD?$AA_?$AAM?$AAO?$AAN?$AAI?$AAT?$AAO?$AAR?$AA_?$AAE?$AAV?$AAE?$AAN?$AAT?$AA_?$AAF?$AAA?$AAI?$AAL?$AA_?$AAS?$AAT?$AAR?$AAI?$AAN?$AAG?$AA?$AA@ 00440930     ft2.obj
 0002:00000970       ??_C@_1DI@LKDGMFME@?$AAB?$AAO?$AAA?$AAR?$AAD?$AA_?$AAM?$AAO?$AAN?$AAI?$AAT?$AAO?$AAR?$AA_?$AAT?$AAH?$AAR?$AAE?$AAA?$AAD?$AA_?$AAS?$AAT?$AAR?$AAI?$AAN?$AAG?$AA?$AA@ 00440970     ft2.obj
 0002:000009a8       ??_C@_1DO@LFECJPLF@?$AAB?$AAO?$AAA?$AAR?$AAD?$AA_?$AAM?$AAO?$AAN?$AAI?$AAT?$AAO?$AAR?$AA_?$AAW?$AAA?$AAI?$AAT?$AA_?$AAF?$AAA?$AAI?$AAL?$AA_?$AAS?$AAT?$AAR?$AAI?$AAN?$AAG?$AA?$AA@ 004409a8     ft2.obj
 0002:000009e8       ??_C@_1CK@KFMCGBOC@?$AAC?$AAR?$AAE?$AAA?$AAT?$AAE?$AA_?$AAF?$AAA?$AAI?$AAL?$AAE?$AAD?$AA_?$AAS?$AAT?$AAR?$AAI?$AAN?$AAG?$AA?$AA@ 004409e8     ft2.obj
 0002:00000a14       ??_C@_1CK@EICBLPE@?$AAN?$AAO?$AAT?$AA_?$AAC?$AAO?$AAN?$AAN?$AAE?$AAC?$AAT?$AAE?$AAD?$AA_?$AAS?$AAT?$AAR?$AAI?$AAN?$AAG?$AA?$AA@ 00440a14     ft2.obj
 0002:00000a40       ??_C@_1CC@NKHFBFKG@?$AAC?$AAO?$AAN?$AAN?$AAE?$AAC?$AAT?$AAE?$AAD?$AA_?$AAS?$AAT?$AAR?$AAI?$AAN?$AAG?$AA?$AA@ 00440a40     ft2.obj
 0002:00000a64       ??_C@_1CM@CPBOFAGN@?$AAC?$AAO?$AAN?$AAT?$AAR?$AAO?$AAL?$AA_?$AAA?$AAC?$AAT?$AAI?$AAV?$AAE?$AA_?$AAS?$AAT?$AAR?$AAI?$AAN?$AAG?$AA?$AA@ 00440a64     ft2.obj
 0002:00000a90       ??_C@_1CK@ICGJEKJC@?$AAC?$AAO?$AAN?$AAT?$AAR?$AAO?$AAL?$AA_?$AAF?$AAA?$AAT?$AAA?$AAL?$AA_?$AAS?$AAT?$AAR?$AAI?$AAN?$AAG?$AA?$AA@ 00440a90     ft2.obj
 0002:00000abc       ??_C@_1CO@OIEDKIAB@?$AAC?$AAO?$AAN?$AAT?$AAR?$AAO?$AAL?$AA_?$AAW?$AAA?$AAR?$AAN?$AAI?$AAN?$AAG?$AA_?$AAS?$AAT?$AAR?$AAI?$AAN?$AAG?$AA?$AA@ 00440abc     ft2.obj
 0002:00000aec       ??_C@_1O@GPKBLHLA@?$AAS?$AAA?$AAV?$AAI?$AAN?$AAG?$AA?$AA@ 00440aec     ft2.obj
 0002:00000afc       ??_C@_1CE@DHIDFJHO@?$AAN?$AAO?$AA_?$AAP?$AAR?$AAO?$AAG?$AAR?$AAA?$AAM?$AA_?$AAS?$AAT?$AAR?$AAI?$AAN?$AAG?$AA?$AA@ 00440afc     ft2.obj
 0002:00000b20       ??_C@_1BO@DBJKGHN@?$AAU?$AAN?$AAK?$AAN?$AAO?$AAW?$AAN?$AA_?$AAS?$AAT?$AAR?$AAI?$AAN?$AAG?$AA?$AA@ 00440b20     ft2.obj
 0002:00000b40       ??_C@_1CM@JIFOKBBM@?$AAS?$AAT?$AAA?$AAC?$AAK?$AA_?$AAO?$AAV?$AAE?$AAR?$AAF?$AAL?$AAO?$AAW?$AA_?$AAS?$AAT?$AAR?$AAI?$AAN?$AAG?$AA?$AA@ 00440b40     ft2.obj
 0002:00000b6c       ??_C@_1CK@PMIPLLEB@?$AAB?$AAL?$AAO?$AAC?$AAK?$AA_?$AAT?$AAI?$AAM?$AAE?$AAO?$AAU?$AAT?$AA_?$AAS?$AAT?$AAR?$AAI?$AAN?$AAG?$AA?$AA@ 00440b6c     ft2.obj
 0002:00000b98       ??_C@_1CK@JBHBJBHD@?$AAI?$AAN?$AAV?$AAA?$AAL?$AAI?$AAD?$AA_?$AAB?$AAL?$AAO?$AAC?$AAK?$AA_?$AAS?$AAT?$AAR?$AAI?$AAN?$AAG?$AA?$AA@ 00440b98     ft2.obj
 0002:00000bc4       ??_C@_1DK@CPFIJOOF@?$AAB?$AAL?$AAO?$AAC?$AAK?$AA_?$AAE?$AAX?$AAE?$AAC?$AAU?$AAT?$AAI?$AAO?$AAN?$AA_?$AAE?$AAR?$AAR?$AAO?$AAR?$AA_?$AAS?$AAT?$AAR?$AAI?$AAN?$AAG?$AA?$AA@ 00440bc4     ft2.obj
 0002:00000c00       ??_C@_1DO@FCEPLGGF@?$AAP?$AAR?$AAO?$AAG?$AAR?$AAA?$AAM?$AA_?$AAS?$AAT?$AAO?$AAP?$AAP?$AAE?$AAD?$AA_?$AAB?$AAY?$AA_?$AAU?$AAS?$AAE?$AAR?$AA_?$AAS?$AAT?$AAR?$AAI?$AAN?$AAG?$AA?$AA@ 00440c00     ft2.obj
 0002:00000c40       ??_C@_1DA@BOOIGPFF@?$AAT?$AAE?$AAS?$AAT?$AA_?$AAF?$AAA?$AAT?$AAA?$AAL?$AA_?$AAE?$AAR?$AAR?$AAO?$AAR?$AA_?$AAS?$AAT?$AAR?$AAI?$AAN?$AAG?$AA?$AA@ 00440c40     ft2.obj
 0002:00000c70       ??_C@_1DM@MJGAAENF@?$AAV?$AAA?$AAC?$AA_?$AAA?$AAB?$AAO?$AAR?$AAT?$AA_?$AAP?$AAO?$AAS?$AA_?$AAT?$AAO?$AAO?$AA_?$AAL?$AAO?$AAN?$AAG?$AA_?$AAS?$AAT?$AAR?$AAI?$AAN?$AAG?$AA?$AA@ 00440c70     ft2.obj
 0002:00000cac       ??_C@_1DK@JGHEFJN@?$AAB?$AAL?$AAO?$AAC?$AAK?$AA_?$AAT?$AAI?$AAM?$AAE?$AAO?$AAU?$AAT?$AA_?$AAW?$AAA?$AAR?$AAN?$AAI?$AAN?$AAG?$AA_?$AAS?$AAT?$AAR?$AAI?$AAN?$AAG?$AA?$AA@ 00440cac     ft2.obj
 0002:00000ce8       ??_C@_1CO@LEFLKOHO@?$AAF?$AAI?$AAL?$AAL?$AA_?$AAT?$AAE?$AAS?$AAT?$AA_?$AAA?$AAB?$AAO?$AAR?$AAT?$AA_?$AAS?$AAT?$AAR?$AAI?$AAN?$AAG?$AA?$AA@ 00440ce8     ft2.obj
 0002:00000d18       ??_C@_1EC@ONFOIGLK@?$AAM?$AAA?$AAS?$AAT?$AAE?$AAR?$AA_?$AAE?$AAN?$AAA?$AAB?$AAL?$AAE?$AA_?$AAD?$AAR?$AAO?$AAP?$AAP?$AAE?$AAD?$AA_?$AAO?$AAU?$AAT?$AA_?$AAS?$AAT?$AAR?$AAI?$AAN?$AAG@ 00440d18     ft2.obj
 0002:00000d5c       ??_C@_1DA@ECJEMIF@?$AAV?$AAA?$AAC?$AA_?$AAA?$AAB?$AAO?$AAR?$AAT?$AA_?$AAZ?$AAS?$AAP?$AAE?$AAE?$AAD?$AA_?$AAS?$AAT?$AAR?$AAI?$AAN?$AAG?$AA?$AA@ 00440d5c     ft2.obj
 0002:00000d8c       ??_C@_1CI@JJJMHMJD@?$AAT?$AAE?$AAS?$AAT?$AA_?$AAW?$AAA?$AAR?$AAN?$AAI?$AAN?$AAG?$AA_?$AAS?$AAT?$AAR?$AAI?$AAN?$AAG?$AA?$AA@ 00440d8c     ft2.obj
 0002:00000db4       ??_C@_1DE@EDDJJCGH@?$AAS?$AAH?$AAO?$AAT?$AAS?$AAA?$AAV?$AAE?$AA_?$AAW?$AAA?$AAI?$AAT?$AA_?$AAF?$AAA?$AAI?$AAL?$AA_?$AAS?$AAT?$AAR?$AAI?$AAN?$AAG?$AA?$AA@ 00440db4     ft2.obj
 0002:00000de8       ??_C@_1DG@PFOGAEGG@?$AAS?$AAH?$AAO?$AAT?$AAS?$AAA?$AAV?$AAE?$AA_?$AAE?$AAV?$AAE?$AAN?$AAT?$AA_?$AAF?$AAA?$AAI?$AAL?$AA_?$AAS?$AAT?$AAR?$AAI?$AAN?$AAG?$AA?$AA@ 00440de8     ft2.obj
 0002:00000e20       ??_C@_1CO@BGKPMDNP@?$AAS?$AAH?$AAO?$AAT?$AAS?$AAA?$AAV?$AAE?$AA_?$AAT?$AAH?$AAR?$AAE?$AAA?$AAD?$AA_?$AAS?$AAT?$AAR?$AAI?$AAN?$AAG?$AA?$AA@ 00440e20     ft2.obj
 0002:00000e50       ??_C@_1DA@PGDMPJCI@?$AAU?$AAN?$AAA?$AAB?$AAL?$AAE?$AA_?$AAT?$AAO?$AA_?$AAC?$AAO?$AAM?$AAP?$AAL?$AAY?$AA_?$AAS?$AAT?$AAR?$AAI?$AAN?$AAG?$AA?$AA@ 00440e50     ft2.obj
 0002:00000e80       ??_C@_1DA@JAKJCCPN@?$AAN?$AA0?$AA_?$AAN?$AAE?$AAW?$AA_?$AAA?$AAU?$AAT?$AAO?$AA_?$AAN?$AAU?$AAL?$AAL?$AA_?$AAS?$AAT?$AAR?$AAI?$AAN?$AAG?$AA?$AA@ 00440e80     ft2.obj
 0002:00000eb0       ??_C@_1CM@JIJKKOMO@?$AAM?$AAA?$AAN?$AAU?$AAA?$AAL?$AA_?$AAN?$AAU?$AAL?$AAL?$AAI?$AAN?$AAG?$AA_?$AAS?$AAT?$AAR?$AAI?$AAN?$AAG?$AA?$AA@ 00440eb0     ft2.obj
 0002:00000edc       ??_C@_1CO@BCNMHFHJ@?$AAA?$AAU?$AAT?$AAO?$AA_?$AAN?$AAU?$AAL?$AAL?$AA_?$AAB?$AAE?$AAG?$AAI?$AAN?$AA_?$AAS?$AAT?$AAR?$AAI?$AAN?$AAG?$AA?$AA@ 00440edc     ft2.obj
 0002:00000f0c       ??_C@_1CM@NKAFKGOI@?$AAA?$AAU?$AAT?$AAO?$AA_?$AAN?$AAU?$AAL?$AAL?$AA_?$AAF?$AAA?$AAI?$AAL?$AA_?$AAS?$AAT?$AAR?$AAI?$AAN?$AAG?$AA?$AA@ 00440f0c     ft2.obj
 0002:00000f38       ??_C@_1DC@PBKPDOPN@?$AAA?$AAU?$AAT?$AAO?$AA_?$AAN?$AAU?$AAL?$AAL?$AA_?$AAS?$AAU?$AAC?$AAC?$AAE?$AAS?$AAS?$AA_?$AAS?$AAT?$AAR?$AAI?$AAN?$AAG?$AA?$AA@ 00440f38     ft2.obj
 0002:00000f6c       ??_C@_1DC@KEBJHEIF@?$AAN?$AAU?$AAL?$AAL?$AA_?$AAA?$AAL?$AAR?$AAE?$AAA?$AAD?$AAY?$AA_?$AAG?$AAO?$AAO?$AAD?$AA_?$AAS?$AAT?$AAR?$AAI?$AAN?$AAG?$AA?$AA@ 00440f6c     ft2.obj
 0002:00000fa0       ??_C@_1DG@HIMGNOEA@?$AAU?$AAN?$AAU?$AAS?$AAA?$AAB?$AAL?$AAE?$AA_?$AAN?$AAU?$AAL?$AAL?$AA_?$AAL?$AAE?$AAV?$AAE?$AAL?$AA_?$AAS?$AAT?$AAR?$AAI?$AAN?$AAG?$AA?$AA@ 00440fa0     ft2.obj
 0002:00000fd8       ??_C@_1CK@KAFAIEGM@?$AAN?$AAO?$AAT?$AA_?$AAM?$AAO?$AAN?$AAI?$AAT?$AAO?$AAR?$AAE?$AAD?$AA_?$AAS?$AAT?$AAR?$AAI?$AAN?$AAG?$AA?$AA@ 00440fd8     ft2.obj
 0002:00001004       ??_C@_1CE@MHBAFMHJ@?$AAC?$AAO?$AAN?$AAN?$AAE?$AAC?$AAT?$AAI?$AAN?$AAG?$AA_?$AAS?$AAT?$AAR?$AAI?$AAN?$AAG?$AA?$AA@ 00441004     ft2.obj
 0002:00001028       ??_C@_1DA@FJMKEACK@?$AAN?$AAO?$AA_?$AAM?$AAA?$AAS?$AAT?$AAE?$AAR?$AA_?$AAE?$AAN?$AAA?$AAB?$AAL?$AAE?$AA_?$AAS?$AAT?$AAR?$AAI?$AAN?$AAG?$AA?$AA@ 00441028     ft2.obj
 0002:00001058       ??_C@_1CE@HGCJMJED@?$AAN?$AAO?$AA_?$AAC?$AAO?$AAN?$AAN?$AAE?$AAC?$AAT?$AA_?$AAS?$AAT?$AAR?$AAI?$AAN?$AAG?$AA?$AA@ 00441058     ft2.obj
 0002:0000107c       ??_C@_1CK@BPCOFOCL@?$AAD?$AAI?$AAS?$AAC?$AAO?$AAN?$AAN?$AAE?$AAC?$AAT?$AAI?$AAN?$AAG?$AA_?$AAS?$AAT?$AAR?$AAI?$AAN?$AAG?$AA?$AA@ 0044107c     ft2.obj
 0002:000010a8       ??_C@_1CM@PJCDOPIF@?$AAN?$AAO?$AA_?$AAW?$AAA?$AAR?$AAM?$AAU?$AAP?$AA_?$AAP?$AAA?$AAR?$AAT?$AA_?$AAS?$AAT?$AAR?$AAI?$AAN?$AAG?$AA?$AA@ 004410a8     ft2.obj
 0002:000010d4       ??_C@_1CM@PJCEKIBM@?$AAC?$AAA?$AAN?$AAT?$AA_?$AAO?$AAP?$AAE?$AAN?$AA_?$AAF?$AAI?$AAL?$AAE?$AA_?$AAS?$AAT?$AAR?$AAI?$AAN?$AAG?$AA?$AA@ 004410d4     ft2.obj
 0002:00001100       ??_C@_1CC@MGCAKPJM@?$AAN?$AAE?$AAW?$AA_?$AAS?$AAE?$AAT?$AAU?$AAP?$AA_?$AAS?$AAT?$AAR?$AAI?$AAN?$AAG?$AA?$AA@ 00441100     ft2.obj
 0002:00001124       ??_C@_1CI@EMFGKGAB@?$AAN?$AAA?$AAK?$AA_?$AAR?$AAE?$AAC?$AAE?$AAI?$AAV?$AAE?$AAD?$AA_?$AAS?$AAT?$AAR?$AAI?$AAN?$AAG?$AA?$AA@ 00441124     ft2.obj
 0002:0000114c       ??_C@_1CG@KOPOEEAP@?$AAU?$AAP?$AAL?$AAO?$AAA?$AAD?$AA_?$AAF?$AAA?$AAI?$AAL?$AA_?$AAS?$AAT?$AAR?$AAI?$AAN?$AAG?$AA?$AA@ 0044114c     ft2.obj
 0002:00001174       ??_C@_1CA@LBONDMKK@?$AAR?$AAE?$AAP?$AAE?$AAA?$AAT?$AAE?$AAD?$AA_?$AAS?$AAT?$AAR?$AAI?$AAN?$AAG?$AA?$AA@ 00441174     ft2.obj
 0002:00001194       ??_C@_1BO@GHDMLNKO@?$AAM?$AAI?$AAS?$AAS?$AAI?$AAN?$AAG?$AA_?$AAS?$AAT?$AAR?$AAI?$AAN?$AAG?$AA?$AA@ 00441194     ft2.obj
 0002:000011b4       ??_C@_1BM@FCNALBP@?$AAP?$AAA?$AAC?$AAK?$AAE?$AAT?$AA_?$AAS?$AAT?$AAR?$AAI?$AAN?$AAG?$AA?$AA@ 004411b4     ft2.obj
 0002:000011d0       ??_C@_1CG@JAPJMIFD@?$AAS?$AAA?$AAV?$AAI?$AAN?$AAG?$AA_?$AAS?$AAH?$AAO?$AAT?$AA_?$AAS?$AAT?$AAR?$AAI?$AAN?$AAG?$AA?$AA@ 004411d0     ft2.obj
 0002:000011f8       ??_C@_1BK@LFHGKLKJ@?$AAR?$AAE?$AAA?$AAD?$AAY?$AA_?$AAS?$AAT?$AAR?$AAI?$AAN?$AAG?$AA?$AA@ 004411f8     ft2.obj
 0002:00001214       ??_C@_1CI@HHNAPOHH@?$AAP?$AAA?$AAC?$AAK?$AAE?$AAT?$AA_?$AAE?$AAR?$AAR?$AAO?$AAR?$AA_?$AAS?$AAT?$AAR?$AAI?$AAN?$AAG?$AA?$AA@ 00441214     ft2.obj
 0002:0000123c       ??_C@_1CI@GMKJIHEP@?$AAB?$AAE?$AAG?$AAI?$AAN?$AA_?$AAU?$AAP?$AAL?$AAO?$AAA?$AAD?$AA_?$AAS?$AAT?$AAR?$AAI?$AAN?$AAG?$AA?$AA@ 0044123c     ft2.obj
 0002:00001264       ??_C@_1CO@PPJDHFEF@?$AAU?$AAP?$AAL?$AAO?$AAA?$AAD?$AA_?$AAC?$AAO?$AAM?$AAP?$AAL?$AAE?$AAT?$AAE?$AA_?$AAS?$AAT?$AAR?$AAI?$AAN?$AAG?$AA?$AA@ 00441264     ft2.obj
 0002:00001294       ??_C@_1BI@ONLHKAIB@?$AAC?$AAY?$AAC?$AAL?$AAE?$AA_?$AAS?$AAT?$AAA?$AAR?$AAT?$AA?$AA@ 00441294     ft2.obj
 0002:000012ac       ??_C@_1BO@HIFFBBBK@?$AAT?$AAI?$AAM?$AAE?$AAO?$AAU?$AAT?$AA_?$AAS?$AAT?$AAR?$AAI?$AAN?$AAG?$AA?$AA@ 004412ac     ft2.obj
 0002:000012cc       ??_C@_1DE@LGGIKEOF@?$AAZ?$AAE?$AAR?$AAO?$AA_?$AAS?$AAT?$AAR?$AAO?$AAK?$AAE?$AA_?$AAL?$AAE?$AAN?$AAG?$AAT?$AAH?$AA_?$AAS?$AAT?$AAR?$AAI?$AAN?$AAG?$AA?$AA@ 004412cc     ft2.obj
 0002:00001300       ??_C@_1BE@IAOLHCOM@?$AAO?$AAN?$AA_?$AAS?$AAT?$AAR?$AAI?$AAN?$AAG?$AA?$AA@ 00441300     ft2.obj
 0002:00001314       ??_C@_1BG@NOCOCAPO@?$AAO?$AAF?$AAF?$AA_?$AAS?$AAT?$AAR?$AAI?$AAN?$AAG?$AA?$AA@ 00441314     ft2.obj
 0002:0000132c       ??_C@_1CM@KGFCENGK@?$AAN?$AAO?$AA_?$AAU?$AAP?$AAL?$AAO?$AAA?$AAD?$AA_?$AAF?$AAI?$AAL?$AAE?$AA_?$AAS?$AAT?$AAR?$AAI?$AAN?$AAG?$AA?$AA@ 0044132c     ft2.obj
 0002:00001358       ??_C@_1DA@JKAMGFGE@?$AAC?$AAO?$AAN?$AAT?$AAR?$AAO?$AAL?$AA_?$AAI?$AAN?$AAP?$AAU?$AAT?$AA_?$AA1?$AA8?$AA_?$AAS?$AAT?$AAR?$AAI?$AAN?$AAG?$AA?$AA@ 00441358     ft2.obj
 0002:00001388       ??_C@_1DA@HFFONDIF@?$AAC?$AAO?$AAN?$AAT?$AAR?$AAO?$AAL?$AA_?$AAI?$AAN?$AAP?$AAU?$AAT?$AA_?$AA1?$AA9?$AA_?$AAS?$AAT?$AAR?$AAI?$AAN?$AAG?$AA?$AA@ 00441388     ft2.obj
 0002:000013b8       ??_C@_1DA@CCPEIGKC@?$AAC?$AAO?$AAN?$AAT?$AAR?$AAO?$AAL?$AA_?$AAI?$AAN?$AAP?$AAU?$AAT?$AA_?$AA2?$AA0?$AA_?$AAS?$AAT?$AAR?$AAI?$AAN?$AAG?$AA?$AA@ 004413b8     ft2.obj
 0002:000013e8       ??_C@_1DA@MNKGDAED@?$AAC?$AAO?$AAN?$AAT?$AAR?$AAO?$AAL?$AA_?$AAI?$AAN?$AAP?$AAU?$AAT?$AA_?$AA2?$AA1?$AA_?$AAS?$AAT?$AAR?$AAI?$AAN?$AAG?$AA?$AA@ 004413e8     ft2.obj
 0002:00001418       ??_C@_1DA@CHCAONCB@?$AAC?$AAO?$AAN?$AAT?$AAR?$AAO?$AAL?$AA_?$AAI?$AAN?$AAP?$AAU?$AAT?$AA_?$AA2?$AA2?$AA_?$AAS?$AAT?$AAR?$AAI?$AAN?$AAG?$AA?$AA@ 00441418     ft2.obj
 0002:00001448       ??_C@_1DA@MIHCFLMA@?$AAC?$AAO?$AAN?$AAT?$AAR?$AAO?$AAL?$AA_?$AAI?$AAN?$AAP?$AAU?$AAT?$AA_?$AA2?$AA3?$AA_?$AAS?$AAT?$AAR?$AAI?$AAN?$AAG?$AA?$AA@ 00441448     ft2.obj
 0002:00001478       ??_C@_1DA@CJFMFBKE@?$AAC?$AAO?$AAN?$AAT?$AAR?$AAO?$AAL?$AA_?$AAI?$AAN?$AAP?$AAU?$AAT?$AA_?$AA2?$AA4?$AA_?$AAS?$AAT?$AAR?$AAI?$AAN?$AAG?$AA?$AA@ 00441478     ft2.obj
 0002:000014a8       ??_C@_1DA@MGAOOHEF@?$AAC?$AAO?$AAN?$AAT?$AAR?$AAO?$AAL?$AA_?$AAI?$AAN?$AAP?$AAU?$AAT?$AA_?$AA2?$AA5?$AA_?$AAS?$AAT?$AAR?$AAI?$AAN?$AAG?$AA?$AA@ 004414a8     ft2.obj
 0002:000014d8       ??_C@_1DA@CMIIDKCH@?$AAC?$AAO?$AAN?$AAT?$AAR?$AAO?$AAL?$AA_?$AAI?$AAN?$AAP?$AAU?$AAT?$AA_?$AA2?$AA6?$AA_?$AAS?$AAT?$AAR?$AAI?$AAN?$AAG?$AA?$AA@ 004414d8     ft2.obj
 0002:00001508       ??_C@_1DA@MDNKIMMG@?$AAC?$AAO?$AAN?$AAT?$AAR?$AAO?$AAL?$AA_?$AAI?$AAN?$AAP?$AAU?$AAT?$AA_?$AA2?$AA7?$AA_?$AAS?$AAT?$AAR?$AAI?$AAN?$AAG?$AA?$AA@ 00441508     ft2.obj
 0002:00001538       ??_C@_1DA@DFKFCIKO@?$AAC?$AAO?$AAN?$AAT?$AAR?$AAO?$AAL?$AA_?$AAI?$AAN?$AAP?$AAU?$AAT?$AA_?$AA2?$AA8?$AA_?$AAS?$AAT?$AAR?$AAI?$AAN?$AAG?$AA?$AA@ 00441538     ft2.obj
 0002:00001568       ??_C@_1DA@NKPHJOEP@?$AAC?$AAO?$AAN?$AAT?$AAR?$AAO?$AAL?$AA_?$AAI?$AAN?$AAP?$AAU?$AAT?$AA_?$AA2?$AA9?$AA_?$AAS?$AAT?$AAR?$AAI?$AAN?$AAG?$AA?$AA@ 00441568     ft2.obj
 0002:00001598       ??_C@_1CC@EEKIGGJP@?$AAR?$AAE?$AAS?$AAT?$AAA?$AAR?$AAT?$AAE?$AAD?$AA_?$AAS?$AAT?$AAR?$AAI?$AAN?$AAG?$AA?$AA@ 00441598     ft2.obj
 0002:000015bc       ??_C@_1DK@JLHBPHDH@?$AAS?$AAH?$AAU?$AAT?$AAT?$AAI?$AAN?$AAG?$AA_?$AAD?$AAO?$AAW?$AAN?$AA_?$AAM?$AAO?$AAN?$AAI?$AAT?$AAO?$AAR?$AA_?$AAS?$AAT?$AAR?$AAI?$AAN?$AAG?$AA?$AA@ 004415bc     ft2.obj
 0002:000015f8       ??_C@_1DM@NDENKEEL@?$AAS?$AAH?$AAU?$AAT?$AAT?$AAI?$AAN?$AAG?$AA_?$AAD?$AAO?$AAW?$AAN?$AA_?$AAS?$AAH?$AAO?$AAT?$AAS?$AAA?$AAV?$AAE?$AA_?$AAS?$AAT?$AAR?$AAI?$AAN?$AAG?$AA?$AA@ 004415f8     ft2.obj
 0002:00001634       ??_C@_1DI@CBIHNCPD@?$AAS?$AAH?$AAU?$AAT?$AAT?$AAI?$AAN?$AAG?$AA_?$AAD?$AAO?$AAW?$AAN?$AA_?$AAR?$AAE?$AAM?$AAO?$AAT?$AAE?$AA_?$AAS?$AAT?$AAR?$AAI?$AAN?$AAG?$AA?$AA@ 00441634     ft2.obj
 0002:0000166c       ??_C@_1DI@DMHGEHLD@?$AAS?$AAH?$AAO?$AAT?$AAS?$AAA?$AAV?$AAE?$AA_?$AAN?$AAO?$AAT?$AA_?$AAR?$AAU?$AAN?$AAN?$AAI?$AAN?$AAG?$AA_?$AAS?$AAT?$AAR?$AAI?$AAN?$AAG?$AA?$AA@ 0044166c     ft2.obj
 0002:000016a4       ??_C@_1DG@DHPIGEBN@?$AAT?$AAU?$AAR?$AAN?$AA_?$AAO?$AAN?$AA_?$AAA?$AAL?$AAL?$AA_?$AAO?$AAU?$AAT?$AAP?$AAU?$AAT?$AAS?$AA_?$AAS?$AAT?$AAR?$AAI?$AAN?$AAG?$AA?$AA@ 004416a4     ft2.obj
 0002:000016dc       ??_C@_1DI@KLJDCOKO@?$AAT?$AAU?$AAR?$AAN?$AA_?$AAO?$AAF?$AAF?$AA_?$AAA?$AAL?$AAL?$AA_?$AAO?$AAU?$AAT?$AAP?$AAU?$AAT?$AAS?$AA_?$AAS?$AAT?$AAR?$AAI?$AAN?$AAG?$AA?$AA@ 004416dc     ft2.obj
 0002:00001714       ??_C@_1CG@LJOELIFK@?$AAN?$AAO?$AA_?$AAR?$AAE?$AAS?$AAP?$AAO?$AAN?$AAS?$AAE?$AA_?$AAS?$AAT?$AAR?$AAI?$AAN?$AAG?$AA?$AA@ 00441714     ft2.obj
 0002:0000173c       ??_C@_1BK@KNPPKFGD@?$AAB?$AAO?$AAA?$AAR?$AAD?$AA_?$AAS?$AAT?$AAR?$AAI?$AAN?$AAG?$AA?$AA@ 0044173c     ft2.obj
 0002:00001758       ??_C@_1BO@MBMOBIOB@?$AAA?$AAD?$AAD?$AAR?$AAE?$AAS?$AAS?$AA_?$AAS?$AAT?$AAR?$AAI?$AAN?$AAG?$AA?$AA@ 00441758     ft2.obj
 0002:00001778       ??_C@_1CE@BFDLNAIL@?$AAC?$AAO?$AAM?$AA_?$AAS?$AAT?$AAA?$AAT?$AAU?$AAS?$AA_?$AAS?$AAT?$AAR?$AAI?$AAN?$AAG?$AA?$AA@ 00441778     ft2.obj
 0002:0000179c       ??_C@_1BO@DAGNIPBG@?$AAM?$AAA?$AAC?$AAH?$AAI?$AAN?$AAE?$AA_?$AAS?$AAT?$AAR?$AAI?$AAN?$AAG?$AA?$AA@ 0044179c     ft2.obj
 0002:000017bc       ??_C@_1BI@MCJPNFNB@?$AAP?$AAA?$AAR?$AAT?$AA_?$AAS?$AAT?$AAR?$AAI?$AAN?$AAG?$AA?$AA@ 004417bc     ft2.obj
 0002:000017d4       ??_C@_1CM@NKFBAOHL@?$AAM?$AAO?$AAN?$AAI?$AAT?$AAO?$AAR?$AA_?$AAS?$AAT?$AAA?$AAT?$AAU?$AAS?$AA_?$AAS?$AAT?$AAR?$AAI?$AAN?$AAG?$AA?$AA@ 004417d4     ft2.obj
 0002:00001800       ??_C@_1CI@HCAPEIPO@?$AAL?$AAO?$AAW?$AA_?$AAP?$AAW?$AA_?$AAL?$AAE?$AAV?$AAE?$AAL?$AA_?$AAS?$AAT?$AAR?$AAI?$AAN?$AAG?$AA?$AA@ 00441800     ft2.obj
 0002:00001828       ??_C@_1DC@KBJCKPLJ@?$AAI?$AAN?$AAV?$AAA?$AAL?$AAI?$AAD?$AA_?$AAS?$AAH?$AAO?$AAT?$AA_?$AAN?$AAA?$AAM?$AAE?$AA_?$AAS?$AAT?$AAR?$AAI?$AAN?$AAG?$AA?$AA@ 00441828     ft2.obj
 0002:0000185c       ??_C@_1BA@JGFNDEFA@?$AAC?$AAo?$AAn?$AAt?$AAr?$AAo?$AAl?$AA?$AA@ 0044185c     ft2.obj
 0002:0000186c       ??_C@_1BG@NJDEMBNA@?$AA?5?$AA?5?$AAM?$AAo?$AAn?$AAi?$AAt?$AAo?$AAr?$AA?5?$AA?$AA@ 0044186c     ft2.obj
 0002:00001884       ??_C@_1BI@PIDIDLPE@?$AAf?$AAt?$AA2?$AAh?$AAe?$AAl?$AAp?$AA?4?$AAt?$AAx?$AAt?$AA?$AA@ 00441884     ft2.obj
 0002:0000189c       ??_C@_1BI@KAIMDKLL@?$AAf?$AAt?$AA2?$AAh?$AAe?$AAl?$AAp?$AA?4?$AAe?$AAx?$AAe?$AA?$AA@ 0044189c     ft2.obj
 0002:000018b4       ??_C@_1CA@BBLENOIN@?$AAC?$AA?3?$AA?2?$AAt?$AAe?$AAr?$AAm?$AAi?$AAn?$AAa?$AAl?$AA?4?$AAt?$AAx?$AAt?$AA?$AA@ 004418b4     ft2.obj
 0002:000018d4       ??_C@_1BM@OOAEAEGN@?$AAO?$AAO?$AA1?$AA?$DN?$AA?$HO?$AA0?$AA0?$AA1?$AA0?$AA0?$AA0?$AA0?$AA0?$AA?$AA@ 004418d4     ft2.obj
 0002:000018f0       ??_C@_1M@LCPIBCID@?$AAO?$AAC?$AA1?$AA?$DN?$AA0?$AA?$AA@ 004418f0     ft2.obj
 0002:000018fc       ??_C@_1M@MEOAOOA@?$AA?4?$AAJ?$AA0?$AA?4?$AA1?$AA?$AA@ 004418fc     ft2.obj
 0002:00001908       ??_C@_1DI@PHCKHOGK@?$AAW?$AAa?$AAi?$AAt?$AAi?$AAn?$AAg?$AA?5?$AAf?$AAo?$AAr?$AA?5?$AAC?$AAo?$AAn?$AAt?$AAr?$AAo?$AAl?$AA?5?$AAH?$AAa?$AAl?$AAt?$AA?4?$AA?4?$AA?4?$AA?$AA@ 00441908     ft2.obj
 0002:00001940       ??_C@_1DA@COBCDAPL@?$AAW?$AAa?$AAi?$AAt?$AAi?$AAn?$AAg?$AA?5?$AAf?$AAo?$AAr?$AA?5?$AAS?$AAh?$AAu?$AAt?$AAd?$AAo?$AAw?$AAn?$AA?4?$AA?4?$AA?4?$AA?$AA@ 00441940     ft2.obj
 0002:00001970       ??_C@_1M@IOAOHLBM@?$AAO?$AAC?$AA5?$AA?$DN?$AA1?$AA?$AA@ 00441970     ft2.obj
 0002:0000197c       ??_C@_1O@BNEIBEKK@?$AAV?$AA3?$AA5?$AA1?$AA?$DN?$AA0?$AA?$AA@ 0044197c     ft2.obj
 0002:0000198c       ??_C@_1BC@HNFGOBPN@?$AAV?$AA3?$AA9?$AA0?$AA?$DN?$AA7?$AA5?$AA0?$AA?$AA@ 0044198c     ft2.obj
 0002:000019a0       ??_C@_1BA@ONJIMDGK@?$AAV?$AA3?$AA9?$AA1?$AA?$DN?$AA1?$AA7?$AA?$AA@ 004419a0     ft2.obj
 0002:000019b0       ??_C@_1BE@CCKEHCGH@?$AAV?$AA3?$AA9?$AA2?$AA?$DN?$AA1?$AA0?$AA0?$AA0?$AA?$AA@ 004419b0     ft2.obj
 0002:000019c4       ??_C@_1BA@HICCENKM@?$AA?4?$AAJ?$AA0?$AA?4?$AA1?$AA0?$AA5?$AA?$AA@ 004419c4     ft2.obj
 0002:000019d4       ??_C@_1M@KEEHFOG@?$AAO?$AAC?$AA1?$AA?$DN?$AA1?$AA?$AA@ 004419d4     ft2.obj
 0002:000019e0       ??_C@_1BK@BPKDNMIN@?$AAO?$AAO?$AA1?$AA?$DN?$AA0?$AA0?$AA1?$AA0?$AA0?$AA0?$AA0?$AA0?$AA?$AA@ 004419e0     ft2.obj
 0002:000019fc       ??_C@_17HLHNPJIN@?$AA?5?$AA?$DN?$AA?5?$AA?$AA@ 004419fc     ft2.obj
 0002:00001a30       ??_C@_1O@HOPHKLKA@?$AA?5?$AAV?$AAo?$AAl?$AAt?$AAs?$AA?$AA@ 00441a30     ft2.obj
 0002:00001a40       ??_C@_1O@KPNLMGP@?$AAb?$AAu?$AAt?$AAt?$AAo?$AAn?$AA?$AA@ 00441a40     ft2.obj
 0002:00001a50       ??_C@_1BK@CPMLAIL@?$AAS?$AAT?$AAA?$AAT?$AAU?$AAS?$AA_?$AAT?$AAI?$AAT?$AAL?$AAE?$AA?$AA@ 00441a50     ft2.obj
 0002:00001a6c       ??_C@_1BO@NGKPEHNM@?$AAT?$AAE?$AAR?$AAM?$AAI?$AAN?$AAA?$AAL?$AA_?$AAT?$AAI?$AAT?$AAL?$AAE?$AA?$AA@ 00441a6c     ft2.obj
 0002:00001a8c       ??_C@_1CA@LMIEFEND@?$AA1?$AA9?$AA2?$AA?4?$AA1?$AA6?$AA8?$AA?4?$AA2?$AA5?$AA4?$AA?4?$AA1?$AA0?$AA0?$AA?$AA@ 00441a8c     ft2.obj
 0002:00001aac       ??_C@_1O@IPFBFMHG@?$AAs?$AAt?$AAa?$AAt?$AAi?$AAc?$AA?$AA@ 00441aac     ft2.obj
 0002:00001abc       ??_C@_1BA@FIJHCCCE@?$AAS?$AAt?$AAa?$AAr?$AAt?$AAu?$AAp?$AA?$AA@ 00441abc     ft2.obj
 0002:00001acc       ??_C@_15NOFDHILG@?$AAM?$AAA?$AA?$AA@ 00441acc     ft2.obj
 0002:00001ad4       ??_C@_15GBBLGJPD@?$AAP?$AAA?$AA?$AA@ 00441ad4     ft2.obj
 0002:00001adc       ??_C@_1BO@ICJDBCBL@?$AAS?$AAt?$AAa?$AAr?$AAt?$AAu?$AAp?$AA?5?$AAS?$AAt?$AAa?$AAt?$AAu?$AAs?$AA?$AA@ 00441adc     ft2.obj
 0002:00001afc       ??_C@_1BA@MGDNHOFA@?$AAl?$AAi?$AAs?$AAt?$AAb?$AAo?$AAx?$AA?$AA@ 00441afc     ft2.obj
 0002:00001b0c       ??_C@_19KFAJFECL@?$AAE?$AAD?$AAI?$AAT?$AA?$AA@ 00441b0c     ft2.obj
 0002:00001b18       ??_C@_1BE@GEBBBDAL@?$AAO?$AAK?$AA_?$AAS?$AAT?$AAR?$AAI?$AAN?$AAG?$AA?$AA@ 00441b18     ft2.obj
 0002:00001b2c       ??_C@_1O@BBGMCBMK@?$AAC?$AAA?$AAN?$AAC?$AAE?$AAL?$AA?$AA@ 00441b2c     ft2.obj
 0002:00001b3c       ??_C@_1CE@FADGNPAE@?$AAP?$AAR?$AAE?$AAV?$AA_?$AAU?$AAP?$AAL?$AAO?$AAA?$AAD?$AA_?$AAA?$AAB?$AAO?$AAR?$AAT?$AA?$AA@ 00441b3c     ft2.obj
 0002:00001b60       ??_C@_1BI@LKFCBOHM@?$AAO?$AAK?$AA_?$AAT?$AAO?$AA_?$AAR?$AAE?$AAT?$AAR?$AAY?$AA?$AA@ 00441b60     ft2.obj
 0002:00001b78       ??_C@_1CK@JFOOACID@?$AAM?$AAA?$AAC?$AAH?$AAI?$AAN?$AAE?$AA_?$AAI?$AAN?$AAT?$AAR?$AAO?$AA_?$AAS?$AAT?$AAR?$AAI?$AAN?$AAG?$AA?$AA@ 00441b78     ft2.obj
 0002:00001ba4       ??_C@_1CI@CLMCEOCJ@?$AAC?$AAO?$AAN?$AAN?$AAE?$AAC?$AAT?$AAI?$AAO?$AAN?$AA_?$AAR?$AAE?$AAS?$AAT?$AAO?$AAR?$AAE?$AAD?$AA?$AA@ 00441ba4     ft2.obj
 0002:00001bcc       ??_C@_1CC@KPOKNCMJ@?$AAt?$AAo?$AAo?$AAl?$AAt?$AAi?$AAp?$AAs?$AA_?$AAc?$AAl?$AAa?$AAs?$AAs?$AA3?$AA2?$AA?$AA@ 00441bcc     ft2.obj
 0002:00001bf0       ??_C@_1CG@MNGHNBPG@?$AAS?$AAl?$AAo?$AAw?$AA?5?$AAS?$AAh?$AAo?$AAt?$AA?5?$AAO?$AAu?$AAt?$AAp?$AAu?$AAt?$AA?5?$AA?5?$AA?$AA@ 00441bf0     ft2.obj
 0002:00001c18       ??_C@_1BM@PPJLEDNP@?$AAA?$AAc?$AAc?$AAu?$AAm?$AAu?$AAl?$AAa?$AAt?$AAo?$AAr?$AA?5?$AA?5?$AA?$AA@ 00441c18     ft2.obj
 0002:00001c34       ??_C@_1DE@MPBCGLGC@?$AAV?$AAa?$AAl?$AAv?$AAe?$AA?5?$AAT?$AAe?$AAs?$AAt?$AA?5?$AAi?$AAn?$AA?5?$AAO?$AAp?$AAe?$AAr?$AAa?$AAt?$AAi?$AAo?$AAn?$AA?5?$AA?5?$AA?$AA@ 00441c34     ft2.obj
 0002:00001c68       ??_C@_1CO@DDEJNAEJ@?$AAW?$AAa?$AAr?$AAn?$AAi?$AAn?$AAg?$AA?5?$AA?$CI?$AAA?$AAc?$AAt?$AAi?$AAv?$AAe?$AA?5?$AAL?$AAo?$AAw?$AA?$CJ?$AA?5?$AA?5?$AA?$AA@ 00441c68     ft2.obj
 0002:00001c98       ??_C@_1CM@GAKDMFFE@?$AAD?$AAo?$AAw?$AAn?$AAt?$AAi?$AAm?$AAe?$AA?5?$AAA?$AAl?$AAa?$AAr?$AAm?$AA?5?$AAW?$AAi?$AAr?$AAe?$AA?5?$AA?5?$AA?$AA@ 00441c98     ft2.obj
 0002:00001cc4       ??_C@_1BO@OPJIMJMB@?$AAM?$AAo?$AAn?$AAi?$AAt?$AAo?$AAr?$AA?5?$AAW?$AAi?$AAr?$AAe?$AA?5?$AA?5?$AA?$AA@ 00441cc4     ft2.obj
 0002:00001ce4       ??_C@_1BO@FJOGIKEH@?$AAL?$AAi?$AAm?$AAi?$AAt?$AA?5?$AAS?$AAw?$AAi?$AAt?$AAc?$AAh?$AA?5?$AA?$CD?$AA?$AA@ 00441ce4     ft2.obj
 0002:00001d04       ??_C@_15OJKDPEFE@?$AA?5?$AA?5?$AA?$AA@ 00441d04     ft2.obj
 0002:00001d0c       ??_C@_1BK@BGGNBALF@?$AA?$DN?$AAL?$AAo?$AAw?$AA?5?$AAA?$AAl?$AAa?$AAr?$AAm?$AA?5?$AA?5?$AA?$AA@ 00441d0c     ft2.obj
 0002:00001d28       ??_C@_1BM@BOHAODK@?$AA?$DN?$AAH?$AAi?$AAg?$AAh?$AA?5?$AAA?$AAl?$AAa?$AAr?$AAm?$AA?5?$AA?5?$AA?$AA@ 00441d28     ft2.obj
 0002:00001d44       ??_C@_1BO@BFIAOMF@?$AA?$DN?$AAL?$AAo?$AAw?$AA?5?$AAW?$AAa?$AAr?$AAn?$AAi?$AAn?$AAg?$AA?5?$AA?5?$AA?$AA@ 00441d44     ft2.obj
 0002:00001d64       ??_C@_1CA@OAGFNDNE@?$AA?$DN?$AAH?$AAi?$AAg?$AAh?$AA?5?$AAW?$AAa?$AAr?$AAn?$AAi?$AAn?$AAg?$AA?5?$AA?5?$AA?$AA@ 00441d64     ft2.obj
 0002:00001d84       ??_C@_1CC@FOMPJCGE@?$AAW?$AAI?$AAS?$AAH?$AA_?$AAT?$AAO?$AA_?$AAC?$AAO?$AAN?$AAT?$AAI?$AAN?$AAU?$AAE?$AA?$AA@ 00441d84     ft2.obj
 0002:00001da8       ??_C@_1CG@BLKPFDEM@?$AAD?$AAE?$AAA?$AAC?$AAT?$AAI?$AAV?$AAA?$AAT?$AAE?$AA_?$AAC?$AAO?$AAN?$AAT?$AAR?$AAO?$AAL?$AA?$AA@ 00441da8     ft2.obj
 0002:00001dd0       ??_C@_1DM@EMBJNGMP@?$AAT?$AAu?$AAr?$AAn?$AAi?$AAn?$AAg?$AA?5?$AAm?$AAo?$AAn?$AAi?$AAt?$AAo?$AAr?$AAi?$AAn?$AAg?$AA?5?$AAb?$AAa?$AAc?$AAk?$AA?5?$AAo?$AAn?$AA?4?$AA?4?$AA?4?$AA?$AA@ 00441dd0     ft2.obj
 0002:00001e0c       ??_C@_1DI@CDAOJBND@?$AAP?$AAo?$AAk?$AAi?$AAn?$AAg?$AA?5?$AAt?$AAh?$AAe?$AA?5?$AAm?$AAo?$AAn?$AAi?$AAt?$AAo?$AAr?$AA?5?$AAt?$AAo?$AAp?$AAi?$AAc?$AA?4?$AA?4?$AA?4?$AA?$AA@ 00441e0c     ft2.obj
 0002:00001e44       ??_C@_17KNIAGABN@?$AAM?$AAO?$AAN?$AA?$AA@ 00441e44     ft2.obj
 0002:00001e4c       ??_C@_1CE@CLBEILNN@?$AAC?$AAH?$AAO?$AAO?$AAS?$AAE?$AA_?$AAM?$AAO?$AAN?$AAI?$AAT?$AAO?$AAR?$AA_?$AAM?$AAA?$AA?$AA@ 00441e4c     ft2.obj
 0002:00001e70       ??_C@_1CC@KJNKLHGL@?$AAB?$AAE?$AAG?$AAI?$AAN?$AA_?$AAM?$AAO?$AAN?$AAI?$AAT?$AAO?$AAR?$AAI?$AAN?$AAG?$AA?$AA@ 00441e70     ft2.obj
 0002:00001e94       ??_C@_1CI@GADBGOG@?$AAC?$AAH?$AAO?$AAO?$AAS?$AAE?$AA_?$AAM?$AAO?$AAN?$AA_?$AAM?$AAA?$AA_?$AAT?$AAI?$AAT?$AAL?$AAE?$AA?$AA@ 00441e94     ft2.obj
 0002:00001ebc       ??_C@_1CA@NPBAEADN@?$AAS?$AAt?$AAa?$AAr?$AAt?$AA?5?$AAS?$AAh?$AAo?$AAt?$AA?5?$AAW?$AAi?$AAr?$AAe?$AA?$AA@ 00441ebc     ft2.obj
 0002:00001edc       ??_C@_1CC@MEFGHDMC@?$AAF?$AAo?$AAl?$AAl?$AAo?$AAw?$AA?5?$AAT?$AAh?$AAr?$AAu?$AA?5?$AAW?$AAi?$AAr?$AAe?$AA?$AA@ 00441edc     ft2.obj
 0002:00001f00       ??_C@_1BK@IEOPKBIH@?$AAR?$AAe?$AAt?$AAr?$AAa?$AAc?$AAt?$AA?5?$AAW?$AAi?$AAr?$AAe?$AA?$AA@ 00441f00     ft2.obj
 0002:00001f1c       ??_C@_1BG@NHDGIBIC@?$AAC?$AAy?$AAc?$AAl?$AAe?$AA?5?$AAT?$AAi?$AAm?$AAe?$AA?$AA@ 00441f1c     ft2.obj
 0002:00001f34       ??_C@_1CC@NNOBHIIP@?$AAF?$AAo?$AAl?$AAl?$AAo?$AAw?$AA?5?$AAT?$AAh?$AAr?$AAu?$AA?5?$AAT?$AAi?$AAm?$AAe?$AA?$AA@ 00441f34     ft2.obj
 0002:00001f58       ??_C@_1BK@JNFIKKMK@?$AAR?$AAe?$AAt?$AAr?$AAa?$AAc?$AAt?$AA?5?$AAT?$AAi?$AAm?$AAe?$AA?$AA@ 00441f58     ft2.obj
 0002:00001f74       ??_C@_1CC@DMKBBFNP@?$AAR?$AAe?$AAt?$AAr?$AAa?$AAc?$AAt?$AA?5?$AAE?$AAn?$AAd?$AA?5?$AAT?$AAi?$AAm?$AAe?$AA?$AA@ 00441f74     ft2.obj
 0002:00001f98       ??_C@_1M@IBHMPP@?$AAO?$AAC?$AA6?$AA?$DN?$AA1?$AA?$AA@ 00441f98     ft2.obj
 0002:00001fa4       ??_C@_1O@NBOCBEDE@?$AAV?$AA3?$AA5?$AA0?$AA?$DN?$AA0?$AA?$AA@ 00441fa4     ft2.obj
 0002:00001fb4       ??_C@_15CKJFLCFH@?$AAV?$AAF?$AA?$AA@ 00441fb4     ft2.obj
 0002:00001fbc       ??_C@_1BO@KDPDKDJG@?$AAB?$AAE?$AAG?$AAI?$AAN?$AAN?$AAI?$AAN?$AAG?$AA_?$AAN?$AAU?$AAL?$AAL?$AA?$AA@ 00441fbc     ft2.obj
 0002:00001fdc       ??_C@_1CC@NFLLMHIC@?$AAA?$AAU?$AAT?$AAO?$AA_?$AAN?$AAU?$AAL?$AAL?$AA_?$AAF?$AAA?$AAI?$AAL?$AAE?$AAD?$AA?$AA@ 00441fdc     ft2.obj
 0002:00002000       ??_C@_1CE@DDICAJBN@?$AAA?$AAU?$AAT?$AAO?$AA_?$AAN?$AAU?$AAL?$AAL?$AA_?$AAS?$AAU?$AAC?$AAC?$AAE?$AAS?$AAS?$AA?$AA@ 00442000     ft2.obj
 0002:00002024       ??_C@_1CE@LAGIOHKK@?$AAN?$AAU?$AAL?$AAL?$AA_?$AAA?$AAL?$AAR?$AAE?$AAA?$AAD?$AAY?$AA_?$AAG?$AAO?$AAO?$AAD?$AA?$AA@ 00442024     ft2.obj
 0002:00002048       ??_C@_1CC@JFCCHEFM@?$AAS?$AAE?$AAT?$AA_?$AAN?$AAU?$AAL?$AAL?$AA_?$AAV?$AAO?$AAL?$AAT?$AAA?$AAG?$AAE?$AA?$AA@ 00442048     ft2.obj
 0002:0000206c       ??_C@_1BK@LGEKEFFF@?$AAN?$AAU?$AAL?$AAL?$AA_?$AAV?$AAO?$AAL?$AAT?$AAA?$AAG?$AAE?$AA?$AA@ 0044206c     ft2.obj
 0002:00002088       ??_C@_1BE@KBCGFHAH@?$AAA?$AAU?$AAT?$AAO?$AA_?$AAN?$AAU?$AAL?$AAL?$AA?$AA@ 00442088     ft2.obj
 0002:0000209c       ??_C@_1BI@FACGMKKM@?$AAM?$AAA?$AAN?$AAU?$AAA?$AAL?$AA_?$AAN?$AAU?$AAL?$AAL?$AA?$AA@ 0044209c     ft2.obj
 0002:000020b4       ??_C@_1CI@EJNDNPDO@?$AAM?$AAA?$AAN?$AAU?$AAA?$AAL?$AA_?$AAI?$AAN?$AAS?$AAT?$AAR?$AAU?$AAC?$AAT?$AAI?$AAO?$AAN?$AAS?$AA?$AA@ 004420b4     ft2.obj
 0002:000020dc       ??_C@_1M@EOGJKBCF@?$AAO?$AAD?$AA1?$AA?$DN?$AAV?$AA?$AA@ 004420dc     ft2.obj
 0002:000020e8       ??_C@_1M@MEMKGFI@?$AAO?$AAD?$AA3?$AA?$DN?$AAV?$AA?$AA@ 004420e8     ft2.obj
 0002:000020f4       ??_C@_1O@LJAJPFFB@?$AAO?$AAD?$AA1?$AA?$DN?$AAV?$AA0?$AA?$AA@ 004420f4     ft2.obj
 0002:00002104       ??_C@_1O@LNPMCFGM@?$AAO?$AAD?$AA3?$AA?$DN?$AAV?$AA0?$AA?$AA@ 00442104     ft2.obj
 0002:00002114       ??_C@_1O@FCDOEOFC@?$AAO?$AAD?$AA2?$AA?$DN?$AAV?$AA0?$AA?$AA@ 00442114     ft2.obj
 0002:00002124       ??_C@_1O@FPCADOBF@?$AAO?$AAD?$AA4?$AA?$DN?$AAV?$AA0?$AA?$AA@ 00442124     ft2.obj
 0002:00002134       ??_C@_1O@LCLAHAMJ@?$AAO?$AAD?$AAP?$AA1?$AA?$DN?$AA0?$AA?$AA@ 00442134     ft2.obj
 0002:00002144       ??_C@_1O@PAJFHHLE@?$AAO?$AAD?$AAP?$AA3?$AA?$DN?$AA0?$AA?$AA@ 00442144     ft2.obj
 0002:00002154       ??_C@_1O@DMDPHHCK@?$AAO?$AAD?$AAP?$AA2?$AA?$DN?$AA0?$AA?$AA@ 00442154     ft2.obj
 0002:00002164       ??_C@_1O@PKFAHOKN@?$AAO?$AAD?$AAP?$AA4?$AA?$DN?$AA0?$AA?$AA@ 00442164     ft2.obj
 0002:00002174       ??_C@_1O@HGICPBOL@?$AAO?$AAC?$AA1?$AA2?$AA?$DN?$AA0?$AA?$AA@ 00442174     ft2.obj
 0002:00002184       ??_C@_1BG@PIODNEJE@?$AAO?$AAD?$AA1?$AA?$DN?$AAV?$AA?9?$AA5?$AA0?$AA0?$AA0?$AA?$AA@ 00442184     ft2.obj
 0002:0000219c       ??_C@_1BG@PNDHLPBH@?$AAO?$AAD?$AA3?$AA?$DN?$AAV?$AA?9?$AA5?$AA0?$AA0?$AA0?$AA?$AA@ 0044219c     ft2.obj
 0002:000021b4       ??_C@_1BE@GHDEOJFP@?$AAO?$AAD?$AA1?$AA?$DN?$AAV?$AA5?$AA0?$AA0?$AA0?$AA?$AA@ 004421b4     ft2.obj
 0002:000021c8       ??_C@_1BE@OAJEMMDM@?$AAO?$AAD?$AA3?$AA?$DN?$AAV?$AA5?$AA0?$AA0?$AA0?$AA?$AA@ 004421c8     ft2.obj
 0002:000021dc       ??_C@_1O@IMBLJBPD@?$AAO?$AAC?$AA1?$AA0?$AA?$DN?$AA1?$AA?$AA@ 004421dc     ft2.obj
 0002:000021ec       ??_C@_1O@EALBJBGN@?$AAO?$AAC?$AA1?$AA1?$AA?$DN?$AA1?$AA?$AA@ 004421ec     ft2.obj
 0002:000021fc       ??_C@_1O@DEKHPGJG@?$AAO?$AAC?$AA1?$AA0?$AA?$DN?$AA0?$AA?$AA@ 004421fc     ft2.obj
 0002:0000220c       ??_C@_1O@PIANPGAI@?$AAO?$AAC?$AA1?$AA1?$AA?$DN?$AA0?$AA?$AA@ 0044220c     ft2.obj
 0002:0000221c       ??_C@_1O@MODOJGIO@?$AAO?$AAC?$AA1?$AA2?$AA?$DN?$AA1?$AA?$AA@ 0044221c     ft2.obj
 0002:0000222c       ??_C@_1BC@BGEABBE@?$AAO?$AAD?$AAP?$AA2?$AA?$DN?$AA1?$AA2?$AA7?$AA?$AA@ 0044222c     ft2.obj
 0002:00002240       ??_C@_1BC@OOFJKEPE@?$AAO?$AAD?$AAP?$AA4?$AA?$DN?$AA1?$AA2?$AA7?$AA?$AA@ 00442240     ft2.obj
 0002:00002254       ??_C@_1BA@POCIBDNI@?$AAO?$AAD?$AAP?$AA1?$AA?$DN?$AA1?$AA4?$AA?$AA@ 00442254     ft2.obj
 0002:00002264       ??_C@_1BA@PKNNMDOF@?$AAO?$AAD?$AAP?$AA3?$AA?$DN?$AA1?$AA4?$AA?$AA@ 00442264     ft2.obj
 0002:00002274       ??_C@_1BA@JJDLHCFJ@?$AAO?$AAD?$AAP?$AA1?$AA?$DN?$AA4?$AA1?$AA?$AA@ 00442274     ft2.obj
 0002:00002284       ??_C@_1BA@JNMOKCGE@?$AAO?$AAD?$AAP?$AA3?$AA?$DN?$AA4?$AA1?$AA?$AA@ 00442284     ft2.obj
 0002:00002294       ??_C@_1BA@LIHCFJDO@?$AAO?$AAD?$AAP?$AA1?$AA?$DN?$AA9?$AA6?$AA?$AA@ 00442294     ft2.obj
 0002:000022a4       ??_C@_1BA@LMIHIJAD@?$AAO?$AAD?$AAP?$AA3?$AA?$DN?$AA9?$AA6?$AA?$AA@ 004422a4     ft2.obj
 0002:000022b4       ??_C@_1BE@EOPMFNKN@?$AAO?$AAD?$AA2?$AA?$DN?$AAV?$AA5?$AA0?$AA0?$AA0?$AA?$AA@ 004422b4     ft2.obj
 0002:000022c8       ??_C@_1BE@BNGNDEEJ@?$AAO?$AAD?$AA4?$AA?$DN?$AAV?$AA5?$AA0?$AA0?$AA0?$AA?$AA@ 004422c8     ft2.obj
 0002:000022dc       ??_C@_1BO@NCJGINBH@?$AAO?$AAF?$AAF?$AAS?$AAE?$AAT?$AA_?$AAV?$AAO?$AAL?$AAT?$AAA?$AAG?$AAE?$AA?$AA@ 004422dc     ft2.obj
 0002:000022fc       ??_C@_1BM@DEODNFDH@?$AAS?$AAE?$AAN?$AAD?$AA_?$AAT?$AAO?$AA_?$AAB?$AAO?$AAA?$AAR?$AAD?$AA?$AA@ 004422fc     ft2.obj
 0002:00002318       ??_C@_1BA@KANPAPBL@?$AAS?$AAE?$AAT?$AA_?$AAD?$AAA?$AAC?$AA?$AA@ 00442318     ft2.obj
 0002:00002328       ??_C@_1BA@CEEOJKO@?$AAC?$AAO?$AAM?$AAM?$AAA?$AAN?$AAD?$AA?$AA@ 00442328     ft2.obj
 0002:00002338       ??_C@_1M@IEIKHFO@?$AAV?$AAO?$AAL?$AAT?$AAS?$AA?$AA@ 00442338     ft2.obj
 0002:00002344       ??_C@_1BM@DNLFJHFE@?$AAL?$AAV?$AAD?$AAT?$AA_?$AAF?$AAE?$AAE?$AAD?$AAB?$AAA?$AAC?$AAK?$AA?$AA@ 00442344     ft2.obj
 0002:00002360       ??_C@_1BK@OFAGAMDN@?$AAP?$AAL?$AAU?$AAS?$AA_?$AA5?$AA_?$AAV?$AAO?$AAL?$AAT?$AAS?$AA?$AA@ 00442360     ft2.obj
 0002:0000237c       ??_C@_1BM@GMHFHPHL@?$AAM?$AAI?$AAN?$AAU?$AAS?$AA_?$AA5?$AA_?$AAV?$AAO?$AAL?$AAT?$AAS?$AA?$AA@ 0044237c     ft2.obj
 0002:00002398       ??_C@_1BC@FKALPELN@?$AAM?$AAE?$AAA?$AAS?$AA_?$AAC?$AAM?$AAD?$AA?$AA@ 00442398     ft2.obj
 0002:000023ac       ??_C@_1BO@EJKKNHJJ@?$AAO?$AAF?$AAF?$AAS?$AAE?$AAT?$AA_?$AAV?$AA_?$AAR?$AAA?$AAN?$AAG?$AAE?$AA?$AA@ 004423ac     ft2.obj
 0002:000023cc       ??_C@_1M@KEMBJIDP@?$AAA?$AAM?$AAP?$AA_?$AA1?$AA?$AA@ 004423cc     ft2.obj
 0002:000023d8       ??_C@_1M@LGHEDHNB@?$AAA?$AAM?$AAP?$AA_?$AA2?$AA?$AA@ 004423d8     ft2.obj
 0002:000023e4       ??_C@_19KELPKPMD@?$AAS?$AAP?$AAA?$AAN?$AA?$AA@ 004423e4     ft2.obj
 0002:000023f0       ??_C@_1BG@NBCNNCFI@?$AAS?$AAP?$AAA?$AAN?$AA_?$AAR?$AAA?$AAN?$AAG?$AAE?$AA?$AA@ 004423f0     ft2.obj
 0002:00002408       ??_C@_1BC@ECEIHJOC@?$AAR?$AAA?$AAW?$AA_?$AAL?$AAV?$AAD?$AAT?$AA?$AA@ 00442408     ft2.obj
 0002:0000241c       ??_C@_17JKHNOBGI@?$AA5?$AA?4?$AA0?$AA?$AA@ 0044241c     ft2.obj
 0002:00002424       ??_C@_19KGHGNOBH@?$AA?9?$AA5?$AA?4?$AA0?$AA?$AA@ 00442424     ft2.obj
 0002:00002430       ??_C@_1DE@BMFCGMFB@?$AAD?$AAE?$AAA?$AAC?$AAT?$AAI?$AAV?$AAA?$AAT?$AAE?$AA_?$AAC?$AAO?$AAN?$AAT?$AAR?$AAO?$AAL?$AA_?$AAD?$AAI?$AAA?$AAL?$AAO?$AAG?$AA?$AA@ 00442430     ft2.obj
 0002:00002464       ??_C@_1CI@HJCIPAAM@?$AAM?$AAi?$AAn?$AAL?$AAo?$AAw?$AAI?$AAm?$AAp?$AAa?$AAc?$AAt?$AAP?$AAe?$AAr?$AAc?$AAe?$AAn?$AAt?$AA?$AA@ 00442464     ft2.obj
 0002:0000248c       ??_C@_1BI@BBHINJNB@?$AAM?$AAa?$AAx?$AAV?$AAe?$AAl?$AAo?$AAc?$AAi?$AAt?$AAy?$AA?$AA@ 0044248c     ft2.obj
 0002:000024a4       ??_C@_1BA@HABJOAEE@?$AAU?$AAN?$AAK?$AAN?$AAO?$AAW?$AAN?$AA?$AA@ 004424a4     ft2.obj
 0002:000024b4       ??_C@_1BM@BNMHDNML@?$AAN?$AAU?$AAL?$AAL?$AA_?$AAD?$AAA?$AAC?$AA_?$AAC?$AAO?$AAM?$AAP?$AA?$AA@ 004424b4     ft2.obj
 0002:000024d0       ??_C@_1BM@COECHKPG@?$AAL?$AAV?$AAD?$AAT?$AA_?$AAD?$AAA?$AAC?$AA_?$AAC?$AAO?$AAM?$AAP?$AA?$AA@ 004424d0     ft2.obj
 0002:000024ec       ??_C@_1BM@IPDIEPGN@?$AAJ?$AAO?$AAG?$AA_?$AAV?$AAA?$AAL?$AAV?$AAE?$AA_?$AAS?$AAE?$AAT?$AA?$AA@ 004424ec     ft2.obj
 0002:00002508       ??_C@_1CE@DIHIPAHC@?$AAR?$AAE?$AAT?$AAR?$AAA?$AAC?$AAT?$AA_?$AAV?$AAA?$AAL?$AAV?$AAE?$AA_?$AAS?$AAE?$AAT?$AA?$AA@ 00442508     ft2.obj
 0002:0000252c       ??_C@_1BI@DFOAJPNB@?$AAD?$AAI?$AAT?$AAH?$AAE?$AAR?$AA_?$AAF?$AAR?$AAE?$AAQ?$AA?$AA@ 0044252c     ft2.obj
 0002:00002544       ??_C@_1BI@IDMPLLEF@?$AAD?$AAI?$AAT?$AAH?$AAE?$AAR?$AA_?$AAA?$AAM?$AAP?$AAL?$AA?$AA@ 00442544     ft2.obj
 0002:0000255c       ??_C@_1BK@FGFOIOBK@?$AAF?$AAT?$AA_?$AAV?$AAA?$AAL?$AAV?$AAE?$AA_?$AAS?$AAE?$AAT?$AA?$AA@ 0044255c     ft2.obj
 0002:00002578       ??_C@_1BO@MKDKAIDP@?$AAZ?$AAE?$AAR?$AAO?$AA_?$AAS?$AAP?$AAE?$AAE?$AAD?$AA_?$AAP?$AAO?$AAS?$AA?$AA@ 00442578     ft2.obj
 0002:00002598       ??_C@_1O@OHDOIHCK@?$AAM?$AAI?$AAN?$AA_?$AAL?$AAI?$AA?$AA@ 00442598     ft2.obj
 0002:000025a8       ??_C@_1BA@IHLAGBKC@?$AAM?$AAA?$AAX?$AA_?$AAV?$AAE?$AAL?$AA?$AA@ 004425a8     ft2.obj
 0002:000025b8       ??_C@_1BC@JNAMIPDP@?$AAP?$AAC?$AA_?$AAA?$AAX?$AAI?$AAS?$AA2?$AA?$AA@ 004425b8     ft2.obj
 0002:000025cc       ??_C@_1BK@PNMIFDMH@?$AAS?$AAA?$AAV?$AAE?$AA_?$AAC?$AAH?$AAA?$AAN?$AAG?$AAE?$AAS?$AA?$AA@ 004425cc     ft2.obj
 0002:000025e8       ??_C@_1CA@KDGOLDIP@?$AAR?$AAE?$AAV?$AAE?$AAR?$AAT?$AA_?$AAT?$AAO?$AA_?$AAS?$AAA?$AAV?$AAE?$AAD?$AA?$AA@ 004425e8     ft2.obj
 0002:00002608       ??_C@_1CK@GAOIMEO@?$AAN?$AAo?$AA?5?$AAD?$AAi?$AAf?$AAf?$AAe?$AAr?$AAe?$AAn?$AAc?$AAe?$AAs?$AA?5?$AAF?$AAo?$AAu?$AAn?$AAd?$AA?$AA@ 00442608     ft2.obj
 0002:00002634       ??_C@_15GEMBENBH@?$AAV?$AA0?$AA?$AA@ 00442634     ft2.obj
 0002:0000263c       ??_C@_13COJANIEC@?$AA0?$AA?$AA@ 0044263c     ft2.obj
 0002:00002640       ??_C@_1CE@FMDOPJEJ@?$AAv?$AAa?$AAr?$AAi?$AAa?$AAb?$AAl?$AAe?$AA_?$AAl?$AAi?$AAs?$AAt?$AA?4?$AAc?$AAs?$AAv?$AA?$AA@ 00442640     ft2.obj
 0002:00002664       ??_C@_1BG@HLLONBLP@?$AAN?$AAU?$AAM?$AA_?$AAS?$AAT?$AAR?$AAI?$AAN?$AAG?$AA?$AA@ 00442664     ft2.obj
 0002:0000267c       ??_C@_1M@NHMNMOIL@?$AAL?$AAI?$AAS?$AAT?$AA1?$AA?$AA@ 0044267c     ft2.obj
 0002:00002688       ??_C@_1M@MFHIGBGF@?$AAL?$AAI?$AAS?$AAT?$AA2?$AA?$AA@ 00442688     ft2.obj
 0002:00002694       ??_C@_1BI@CHDKLJDA@?$AAD?$AAE?$AAS?$AAC?$AAR?$AAI?$AAP?$AAT?$AAI?$AAO?$AAN?$AA?$AA@ 00442694     ft2.obj
 0002:000026ac       ??_C@_1BI@INOCAKEA@?$AAG?$AAE?$AAT?$AAT?$AAI?$AAN?$AAG?$AA_?$AAV?$AAA?$AAR?$AA?$AA@ 004426ac     ft2.obj
 0002:000026c4       ??_C@_1BE@EEPBHPOD@?$AAG?$AAE?$AAT?$AA_?$AAL?$AAI?$AAS?$AAT?$AA1?$AA?$AA@ 004426c4     ft2.obj
 0002:000026d8       ??_C@_1BE@FGEENAAN@?$AAG?$AAE?$AAT?$AA_?$AAL?$AAI?$AAS?$AAT?$AA2?$AA?$AA@ 004426d8     ft2.obj
 0002:000026ec       ??_C@_1BC@JHAPBFAO@?$AAS?$AAH?$AAO?$AAW?$AA_?$AAD?$AAI?$AAF?$AA?$AA@ 004426ec     ft2.obj
 0002:00002700       ??_C@_1BE@GJMCEKH@?$AAS?$AAA?$AAV?$AAE?$AA_?$AAV?$AAA?$AAR?$AAS?$AA?$AA@ 00442700     ft2.obj
 0002:00002714       ??_C@_1BK@GFABELLK@?$AAR?$AAE?$AAS?$AAT?$AAO?$AAR?$AAE?$AA_?$AAV?$AAA?$AAR?$AAS?$AA?$AA@ 00442714     ft2.obj
 0002:00002730       ??_C@_1M@COLENOGO@?$AA?4?$AA0?$AA2?$AA5?$AA?5?$AA?$AA@ 00442730     ft2.obj
 0002:0000273c       ??_C@_1O@GBHBLKCE@?$AA_?$AAE?$AA1?$AA?4?$AA3?$AA4?$AA?$AA@ 0044273c     ft2.obj
 0002:0000274c       ??_C@_17IFAHJMNK@?$AAV?$AAA?$AA1?$AA?$AA@ 0044274c     ft2.obj
 0002:00002754       ??_C@_15DJIHAEG@?$AAA?$AAC?$AA?$AA@ 00442754     ft2.obj
 0002:0000275c       ??_C@_13BFLGCPEB@?$AAP?$AA?$AA@ 0044275c     ft2.obj
 0002:00002760       ??_C@_15FGDPCDDN@?$AA8?$AA0?$AA?$AA@ 00442760     ft2.obj
 0002:00002768       ??_C@_15GMDFECEN@?$AA6?$AA0?$AA?$AA@ 00442768     ft2.obj
 0002:00002770       ??_C@_1M@DDLBOONG@?$AA?4?$AA0?$AA2?$AA2?$AA?5?$AA?$AA@ 00442770     ft2.obj
 0002:0000277c       ??_C@_1M@PEBJKGPB@?$AA?9?$AA1?$AA0?$AA0?$AA0?$AA?$AA@ 0044277c     ft2.obj
 0002:00002788       ??_C@_19CDPIOCOG@?$AAU?$AAD?$AA1?$AA?$DN?$AA?$AA@ 00442788     ft2.obj
 0002:00002794       ??_C@_1M@GGFENAAK@?$AA?4?$AA0?$AA7?$AA5?$AA?5?$AA?$AA@ 00442794     ft2.obj
 0002:000027a0       ??_C@_1M@LGLEHFCL@?$AA?4?$AA1?$AA2?$AA9?$AA?5?$AA?$AA@ 004427a0     ft2.obj
 0002:000027ac       ??_C@_1M@BPCOBNPC@?$AA?9?$AA2?$AA0?$AA0?$AA0?$AA?$AA@ 004427ac     ft2.obj
 0002:000027b8       ??_C@_1CE@KNNPDEEA@?$AAV?$AAA?$AAL?$AAV?$AAE?$AA_?$AAS?$AAT?$AAA?$AAR?$AAT?$AA_?$AAV?$AAO?$AAL?$AAT?$AAS?$AA?$AA@ 004427b8     ft2.obj
 0002:000027dc       ??_C@_1BC@EEHKFCFM@?$AAG?$AAE?$AAN?$AA_?$AAS?$AAT?$AAE?$AAP?$AA?$AA@ 004427dc     ft2.obj
 0002:000027f0       ??_C@_1BK@CKGLGNKP@?$AAV?$AAO?$AAL?$AAT?$AAS?$AA_?$AAP?$AAR?$AAO?$AAM?$AAP?$AAT?$AA?$AA@ 004427f0     ft2.obj
 0002:0000280c       ??_C@_1BK@ODIDJPBA@?$AAP?$AAA?$AAR?$AAK?$AA_?$AAV?$AAO?$AAL?$AAT?$AAA?$AAG?$AAE?$AA?$AA@ 0044280c     ft2.obj
 0002:00002828       ??_C@_1BM@KPFPKEJ@?$AAA?$AAL?$AAT?$AA_?$AAS?$AAT?$AAE?$AAP?$AA_?$AAD?$AAE?$AAS?$AAC?$AA?$AA@ 00442828     ft2.obj
 0002:00002844       ??_C@_1BI@OKLCMIPH@?$AAN?$AAO?$AAR?$AAM?$AAA?$AAL?$AA_?$AAS?$AAT?$AAE?$AAP?$AA?$AA@ 00442844     ft2.obj
 0002:0000285c       ??_C@_1BC@CDPIAGPA@?$AAA?$AAL?$AAT?$AA_?$AAS?$AAT?$AAE?$AAP?$AA?$AA@ 0044285c     ft2.obj
 0002:00002870       ??_C@_17CFAIPOJE@?$AAS?$AAS?$AAV?$AA?$AA@ 00442870     ft2.obj
 0002:00002878       ??_C@_1M@HDCEMHPI@?$AAA?$AAC?$AAC?$AAE?$AAL?$AA?$AA@ 00442878     ft2.obj
 0002:00002884       ??_C@_1BG@PCKJPHIH@?$AAA?$AAC?$AAC?$AA_?$AAO?$AAN?$AA_?$AAP?$AAO?$AAS?$AA?$AA@ 00442884     ft2.obj
 0002:0000289c       ??_C@_1BM@PGMAFLKL@?$AAS?$AAA?$AAV?$AA_?$AAA?$AAS?$AA_?$AAM?$AAA?$AAS?$AAT?$AAE?$AAR?$AA?$AA@ 0044289c     ft2.obj
 0002:000028b8       ??_C@_1BG@CIIDCPKN@?$AAV?$AAE?$AAR?$AAT?$AA_?$AAV?$AAO?$AAL?$AAT?$AAS?$AA?$AA@ 004428b8     ft2.obj
 0002:000028d0       ??_C@_1BG@LPLPBKFF@?$AAV?$AAA?$AAL?$AAV?$AAE?$AA_?$AAT?$AAE?$AAS?$AAT?$AA?$AA@ 004428d0     ft2.obj
 0002:000028e8       ??_C@_1BK@EDKAODMK@?$AAD?$AAI?$AAG?$AA_?$AAP?$AAO?$AAT?$AA_?$AAG?$AAA?$AAI?$AAN?$AA?$AA@ 004428e8     ft2.obj
 0002:00002904       ??_C@_1BK@JHPNCKAL@?$AAI?$AAn?$AAp?$AAu?$AAt?$AAB?$AAi?$AAt?$AAC?$AAt?$AAr?$AAl?$AA?$AA@ 00442904     ft2.obj
 0002:00002920       ??_C@_1BM@PCNPGAAM@?$AAO?$AAu?$AAt?$AAp?$AAu?$AAt?$AAB?$AAi?$AAt?$AAC?$AAt?$AAr?$AAl?$AA?$AA@ 00442920     ft2.obj
 0002:0000293c       ??_C@_1M@DIOMJPGN@?$AAM?$AAo?$AAn?$AA?5?$AA0?$AA?$AA@ 0044293c     ft2.obj
 0002:00002948       ??_C@_1M@IAFAPIAI@?$AAM?$AAo?$AAn?$AA?5?$AA1?$AA?$AA@ 00442948     ft2.obj
 0002:00002954       ??_C@_1M@JCOFFHOG@?$AAM?$AAo?$AAn?$AA?5?$AA2?$AA?$AA@ 00442954     ft2.obj
 0002:00002960       ??_C@_1M@CKFJDAID@?$AAM?$AAo?$AAn?$AA?5?$AA3?$AA?$AA@ 00442960     ft2.obj
 0002:0000296c       ??_C@_1M@LHIOAIDK@?$AAM?$AAo?$AAn?$AA?5?$AA4?$AA?$AA@ 0044296c     ft2.obj
 0002:00002978       ??_C@_1M@PDCGPFP@?$AAM?$AAo?$AAn?$AA?5?$AA5?$AA?$AA@ 00442978     ft2.obj
 0002:00002984       ??_C@_1M@BNIHMALB@?$AAM?$AAo?$AAn?$AA?5?$AA6?$AA?$AA@ 00442984     ft2.obj
 0002:00002990       ??_C@_1M@KFDLKHNE@?$AAM?$AAo?$AAn?$AA?5?$AA7?$AA?$AA@ 00442990     ft2.obj
 0002:0000299c       ??_C@_1M@PNFILHIC@?$AAM?$AAo?$AAn?$AA?5?$AA8?$AA?$AA@ 0044299c     ft2.obj
 0002:000029a8       ??_C@_1M@EFOENAOH@?$AAM?$AAo?$AAn?$AA?5?$AA9?$AA?$AA@ 004429a8     ft2.obj
 0002:000029b4       ??_C@_1O@ILJEIINH@?$AAM?$AAo?$AAn?$AA?5?$AA1?$AA0?$AA?$AA@ 004429b4     ft2.obj
 0002:000029c4       ??_C@_1O@DDCIOPLC@?$AAM?$AAo?$AAn?$AA?5?$AA1?$AA1?$AA?$AA@ 004429c4     ft2.obj
 0002:000029d4       ??_C@_1O@CBJNEAFM@?$AAM?$AAo?$AAn?$AA?5?$AA1?$AA2?$AA?$AA@ 004429d4     ft2.obj
 0002:000029e4       ??_C@_1O@JJCBCHDJ@?$AAM?$AAo?$AAn?$AA?5?$AA1?$AA3?$AA?$AA@ 004429e4     ft2.obj
 0002:000029f4       ??_C@_1O@EPGBPIA@?$AAM?$AAo?$AAn?$AA?5?$AA1?$AA4?$AA?$AA@ 004429f4     ft2.obj
 0002:00002a04       ??_C@_1O@LMEKHIOF@?$AAM?$AAo?$AAn?$AA?5?$AA1?$AA5?$AA?$AA@ 00442a04     ft2.obj
 0002:00002a14       ??_C@_1BA@CJOEBDEH@?$AAP?$AAu?$AAm?$AAp?$AA?5?$AAO?$AAn?$AA?$AA@ 00442a14     ft2.obj
 0002:00002a24       ??_C@_1BG@HLEHDJNE@?$AAS?$AAt?$AAa?$AAr?$AAt?$AA?5?$AAS?$AAh?$AAo?$AAt?$AA?$AA@ 00442a24     ft2.obj
 0002:00002a3c       ??_C@_1BO@MCIEIOPJ@?$AAF?$AAo?$AAl?$AAl?$AAo?$AAw?$AA?5?$AAT?$AAh?$AAr?$AAo?$AAu?$AAg?$AAh?$AA?$AA@ 00442a3c     ft2.obj
 0002:00002a5c       ??_C@_1BA@PHEPLNNN@?$AAR?$AAe?$AAt?$AAr?$AAa?$AAc?$AAt?$AA?$AA@ 00442a5c     ft2.obj
 0002:00002a6c       ??_C@_1BC@DKLEJNPA@?$AAJ?$AAo?$AAg?$AA?5?$AAS?$AAh?$AAo?$AAt?$AA?$AA@ 00442a6c     ft2.obj
 0002:00002a80       ??_C@_1BI@NKHJDOCN@?$AAM?$AAa?$AAn?$AAu?$AAa?$AAl?$AA?5?$AAM?$AAo?$AAd?$AAe?$AA?$AA@ 00442a80     ft2.obj
 0002:00002a98       ??_C@_1BA@EEJENKJB@?$AAA?$AAt?$AA?5?$AAH?$AAo?$AAm?$AAe?$AA?$AA@ 00442a98     ft2.obj
 0002:00002aa8       ??_C@_1O@JGJAFFKA@?$AAB?$AAi?$AAt?$AA?5?$AA2?$AA3?$AA?$AA@ 00442aa8     ft2.obj
 0002:00002ab8       ??_C@_1O@LEHGNBJ@?$AAB?$AAi?$AAt?$AA?5?$AA2?$AA4?$AA?$AA@ 00442ab8     ft2.obj
 0002:00002ac8       ??_C@_1BE@MMICIFBO@?$AAO?$AAK?$AA?5?$AAf?$AAo?$AAr?$AA?5?$AAF?$AAS?$AA?$AA@ 00442ac8     ft2.obj
 0002:00002adc       ??_C@_1O@EBJGMOG@?$AAV?$AAa?$AAc?$AA?5?$AAO?$AAN?$AA?$AA@ 00442adc     ft2.obj
 0002:00002aec       ??_C@_1BG@MNLPLHGA@?$AAL?$AAo?$AAw?$AA?5?$AAI?$AAm?$AAp?$AAa?$AAc?$AAt?$AA?$AA@ 00442aec     ft2.obj
 0002:00002b04       ??_C@_1BE@DPFMNCPG@?$AAF?$AAi?$AAl?$AAl?$AA?5?$AAT?$AAe?$AAs?$AAt?$AA?$AA@ 00442b04     ft2.obj
 0002:00002b18       ??_C@_1O@CMBFNLPK@?$AAI?$AAn?$AAt?$AAe?$AAn?$AAs?$AA?$AA@ 00442b18     ft2.obj
 0002:00002b28       ??_C@_1BM@NGPIIPKC@?$AAB?$AAi?$AAt?$AA?5?$AA3?$AA0?$AA?5?$AA?$CI?$AA0?$AA?9?$AA3?$AA1?$AA?$CJ?$AA?$AA@ 00442b28     ft2.obj
 0002:00002b44       ??_C@_1O@IFGEHKIA@?$AAE?$AA?9?$AAS?$AAt?$AAo?$AAp?$AA?$AA@ 00442b44     ft2.obj
 0002:00002b54       ??_C@_1BC@KMCFLLIN@?$AAM?$AAo?$AAn?$AAO?$AAu?$AAt?$AA?5?$AA0?$AA?$AA@ 00442b54     ft2.obj
 0002:00002b68       ??_C@_1BC@BEJJNMOI@?$AAM?$AAo?$AAn?$AAO?$AAu?$AAt?$AA?5?$AA1?$AA?$AA@ 00442b68     ft2.obj
 0002:00002b7c       ??_C@_1BC@GCMHDAG@?$AAM?$AAo?$AAn?$AAO?$AAu?$AAt?$AA?5?$AA2?$AA?$AA@ 00442b7c     ft2.obj
 0002:00002b90       ??_C@_1BC@LOJABEGD@?$AAM?$AAo?$AAn?$AAO?$AAu?$AAt?$AA?5?$AA3?$AA?$AA@ 00442b90     ft2.obj
 0002:00002ba4       ??_C@_1BC@CDEHCMNK@?$AAM?$AAo?$AAn?$AAO?$AAu?$AAt?$AA?5?$AA4?$AA?$AA@ 00442ba4     ft2.obj
 0002:00002bb8       ??_C@_1BC@JLPLELLP@?$AAM?$AAo?$AAn?$AAO?$AAu?$AAt?$AA?5?$AA5?$AA?$AA@ 00442bb8     ft2.obj
 0002:00002bcc       ??_C@_1BC@IJEOOEFB@?$AAM?$AAo?$AAn?$AAO?$AAu?$AAt?$AA?5?$AA6?$AA?$AA@ 00442bcc     ft2.obj
 0002:00002be0       ??_C@_1BC@DBPCIDDE@?$AAM?$AAo?$AAn?$AAO?$AAu?$AAt?$AA?5?$AA7?$AA?$AA@ 00442be0     ft2.obj
 0002:00002bf4       ??_C@_1BC@GJJBJDGC@?$AAM?$AAo?$AAn?$AAO?$AAu?$AAt?$AA?5?$AA8?$AA?$AA@ 00442bf4     ft2.obj
 0002:00002c08       ??_C@_1BC@NBCNPEAH@?$AAM?$AAo?$AAn?$AAO?$AAu?$AAt?$AA?5?$AA9?$AA?$AA@ 00442c08     ft2.obj
 0002:00002c1c       ??_C@_1BE@OJOJALCD@?$AAM?$AAo?$AAn?$AAO?$AAu?$AAt?$AA?5?$AA1?$AA0?$AA?$AA@ 00442c1c     ft2.obj
 0002:00002c30       ??_C@_1BE@FBFFGMEG@?$AAM?$AAo?$AAn?$AAO?$AAu?$AAt?$AA?5?$AA1?$AA1?$AA?$AA@ 00442c30     ft2.obj
 0002:00002c44       ??_C@_1BE@EDOAMDKI@?$AAM?$AAo?$AAn?$AAO?$AAu?$AAt?$AA?5?$AA1?$AA2?$AA?$AA@ 00442c44     ft2.obj
 0002:00002c58       ??_C@_1BE@PLFMKEMN@?$AAM?$AAo?$AAn?$AAO?$AAu?$AAt?$AA?5?$AA1?$AA3?$AA?$AA@ 00442c58     ft2.obj
 0002:00002c6c       ??_C@_1BE@GGILJMHE@?$AAM?$AAo?$AAn?$AAO?$AAu?$AAt?$AA?5?$AA1?$AA4?$AA?$AA@ 00442c6c     ft2.obj
 0002:00002c80       ??_C@_1BE@NODHPLBB@?$AAM?$AAo?$AAn?$AAO?$AAu?$AAt?$AA?5?$AA1?$AA5?$AA?$AA@ 00442c80     ft2.obj
 0002:00002c94       ??_C@_1CM@MKFHAEM@?$AAS?$AAl?$AAo?$AAw?$AA?5?$AAS?$AAh?$AAo?$AAt?$AA?5?$AA?5?$AA?5?$AA?5?$AA?5?$AA?5?$AAO?$AAU?$AAT?$AAP?$AAU?$AAT?$AA?$AA@ 00442c94     ft2.obj
 0002:00002cc0       ??_C@_1CM@FCKGEOHI@?$AAA?$AAc?$AAc?$AAu?$AAm?$AAu?$AAl?$AAa?$AAt?$AAo?$AAr?$AA?5?$AA?5?$AA?5?$AA?5?$AAO?$AAU?$AAT?$AAP?$AAU?$AAT?$AA?$AA@ 00442cc0     ft2.obj
 0002:00002cec       ??_C@_1BE@HGMJJIED@?$AAO?$AAu?$AAt?$AAB?$AAi?$AAt?$AA?5?$AA1?$AA8?$AA?$AA@ 00442cec     ft2.obj
 0002:00002d00       ??_C@_1BE@MOHFPPCG@?$AAO?$AAu?$AAt?$AAB?$AAi?$AAt?$AA?5?$AA1?$AA9?$AA?$AA@ 00442d00     ft2.obj
 0002:00002d14       ??_C@_1BE@DFOJMCAC@?$AAO?$AAu?$AAt?$AAB?$AAi?$AAt?$AA?5?$AA2?$AA0?$AA?$AA@ 00442d14     ft2.obj
 0002:00002d28       ??_C@_1BE@INFFKFGH@?$AAO?$AAu?$AAt?$AAB?$AAi?$AAt?$AA?5?$AA2?$AA1?$AA?$AA@ 00442d28     ft2.obj
 0002:00002d3c       ??_C@_1BE@JPOAAKIJ@?$AAO?$AAu?$AAt?$AAB?$AAi?$AAt?$AA?5?$AA2?$AA2?$AA?$AA@ 00442d3c     ft2.obj
 0002:00002d50       ??_C@_1BE@CHFMGNOM@?$AAO?$AAu?$AAt?$AAB?$AAi?$AAt?$AA?5?$AA2?$AA3?$AA?$AA@ 00442d50     ft2.obj
 0002:00002d64       ??_C@_1BE@LKILFFFF@?$AAO?$AAu?$AAt?$AAB?$AAi?$AAt?$AA?5?$AA2?$AA4?$AA?$AA@ 00442d64     ft2.obj
 0002:00002d78       ??_C@_19IDADIJCH@?$AAL?$AAS?$AA?5?$AA5?$AA?$AA@ 00442d78     ft2.obj
 0002:00002d84       ??_C@_19JBLGCGMJ@?$AAL?$AAS?$AA?5?$AA6?$AA?$AA@ 00442d84     ft2.obj
 0002:00002d90       ??_C@_1M@BKIKCDNA@?$AAF?$AAa?$AAu?$AAl?$AAt?$AA?$AA@ 00442d90     ft2.obj
 0002:00002d9c       ??_C@_19MGBBOHA@?$AAL?$AAS?$AA?5?$AA1?$AA?$AA@ 00442d9c     ft2.obj
 0002:00002da8       ??_C@_19BONELBJO@?$AAL?$AAS?$AA?5?$AA2?$AA?$AA@ 00442da8     ft2.obj
 0002:00002db4       ??_C@_19KGGINGPL@?$AAL?$AAS?$AA?5?$AA3?$AA?$AA@ 00442db4     ft2.obj
 0002:00002dc0       ??_C@_19DLLPOOEC@?$AAL?$AAS?$AA?5?$AA4?$AA?$AA@ 00442dc0     ft2.obj
 0002:00002dcc       ??_C@_1O@KPFHFJFM@?$AAP?$AAo?$AAs?$AA?5?$AA?$DN?$AA?5?$AA?$AA@ 00442dcc     ft2.obj
 0002:00002ddc       ??_C@_1BC@ILCHCMCD@?$AA?0?$AA?5?$AAV?$AAe?$AAl?$AA?5?$AA?$DN?$AA?5?$AA?$AA@ 00442ddc     ft2.obj
 0002:00002df0       ??_C@_1CA@HJBDPBJA@?$AAC?$AAu?$AAr?$AAr?$AAe?$AAn?$AAt?$AA?5?$AAS?$AAt?$AAe?$AAp?$AA?5?$AA?$DN?$AA?5?$AA?$AA@ 00442df0     ft2.obj
 0002:00002e10       ??_C@_1CC@NLOOBJL@?$AAS?$AAt?$AAa?$AAt?$AAu?$AAs?$AA?5?$AAW?$AAo?$AAr?$AAd?$AA?5?$AA1?$AA?5?$AA?$DN?$AA?5?$AA?$AA@ 00442e10     ft2.obj
 0002:00002e34       ??_C@_1BM@EDGABPNF@?$AA?0?$AA?5?$AAM?$AAe?$AAa?$AAs?$AA?5?$AAC?$AAM?$AAD?$AA?5?$AA?$DN?$AA?5?$AA?$AA@ 00442e34     ft2.obj
 0002:00002e50       ??_C@_1CG@KBJNAJLC@?$AA?0?$AA?5?$AAL?$AAV?$AAD?$AAT?$AA?5?$AAF?$AAe?$AAe?$AAd?$AAb?$AAa?$AAc?$AAk?$AA?5?$AA?$DN?$AA?5?$AA?$AA@ 00442e50     ft2.obj
 0002:00002e78       ??_C@_1BC@MDAOKJFH@?$AA?0?$AA?5?$AAC?$AAh?$AA?5?$AA1?$AA?$DN?$AA?5?$AA?$AA@ 00442e78     ft2.obj
 0002:00002e8c       ??_C@_1BC@ENIBKOLE@?$AA?0?$AA?5?$AAC?$AAh?$AA?5?$AA2?$AA?$DN?$AA?5?$AA?$AA@ 00442e8c     ft2.obj
 0002:00002ea0       ??_C@_1BE@LFMBHHDL@?$AAV?$AAE?$AAR?$AAT?$AA_?$AAT?$AAE?$AAX?$AAT?$AA?$AA@ 00442ea0     ft2.obj
 0002:00002eb4       ??_C@_1BE@KOAOCCIO@?$AAV?$AAE?$AAR?$AAT?$AA_?$AAO?$AAP?$AAT?$AAO?$AA?$AA@ 00442eb4     ft2.obj
 0002:00002ec8       ??_C@_1CK@OMJDEKJJ@?$AAp?$AAk?$AAz?$AAi?$AAp?$AA2?$AA5?$AA?5?$AA?9?$AAa?$AAd?$AAd?$AA?5?$AA?9?$AAl?$AAe?$AAv?$AA?$DN?$AA9?$AA?5?$AA?$AA@ 00442ec8     ft2.obj
 0002:00002ef4       ??_C@_1BG@NBADPFKD@?$AAA?$AAL?$AAA?$AAR?$AAM?$AA_?$AAT?$AAE?$AAS?$AAT?$AA?$AA@ 00442ef4     ft2.obj
 0002:00002f0c       ??_C@_1BI@MOHNJEEO@?$AAM?$AAO?$AAN?$AA_?$AAO?$AAU?$AAT?$AAP?$AAU?$AAT?$AAS?$AA?$AA@ 00442f0c     ft2.obj
 0002:00002f24       ??_C@_1BI@EPEPENCN@?$AAC?$AAT?$AAL?$AA_?$AAO?$AAU?$AAT?$AAP?$AAU?$AAT?$AAS?$AA?$AA@ 00442f24     ft2.obj
 0002:00002f3c       ??_C@_1O@JEHJBMOP@?$AA0?$AA_?$AAT?$AAO?$AA_?$AA3?$AA?$AA@ 00442f3c     ft2.obj
 0002:00002f4c       ??_C@_1O@CLHAEKD@?$AA4?$AA_?$AAT?$AAO?$AA_?$AA7?$AA?$AA@ 00442f4c     ft2.obj
 0002:00002f5c       ??_C@_1BA@LLKLIGJF@?$AA8?$AA_?$AAT?$AAO?$AA_?$AA1?$AA1?$AA?$AA@ 00442f5c     ft2.obj
 0002:00002f6c       ??_C@_1BC@NHGNHNDP@?$AA1?$AA2?$AA_?$AAT?$AAO?$AA_?$AA1?$AA5?$AA?$AA@ 00442f6c     ft2.obj
 0002:00002f80       ??_C@_1CA@KJBDPJKE@?$AAC?$AAL?$AAI?$AAC?$AAK?$AA_?$AAT?$AAO?$AA_?$AAT?$AAO?$AAG?$AAG?$AAL?$AAE?$AA?$AA@ 00442f80     ft2.obj
 0002:00002fa0       ??_C@_1CA@EKIMNJAB@?$AAV?$AAE?$AAL?$AAO?$AAC?$AAI?$AAT?$AAY?$AA_?$AAS?$AAT?$AAR?$AAI?$AAN?$AAG?$AA?$AA@ 00442fa0     ft2.obj
 0002:00002fc0       ??_C@_1CA@DNBJCPJO@?$AAP?$AAO?$AAS?$AAI?$AAT?$AAI?$AAO?$AAN?$AA_?$AAS?$AAT?$AAR?$AAI?$AAN?$AAG?$AA?$AA@ 00442fc0     ft2.obj
 0002:00002fe0       ??_C@_1BI@DIMIDOHM@?$AAC?$AAH?$AAA?$AAN?$AA_?$AAS?$AAT?$AAR?$AAI?$AAN?$AAG?$AA?$AA@ 00442fe0     ft2.obj
 0002:00002ff8       ??_C@_1BA@OIDOAMIK@?$AAM?$AAA?$AAX?$AA_?$AAP?$AAO?$AAS?$AA?$AA@ 00442ff8     ft2.obj
 0002:00003008       ??_C@_19FBAPKMBG@?$AAZ?$AAE?$AAR?$AAO?$AA?$AA@ 00443008     ft2.obj
 0002:00003014       ??_C@_1BC@NDPIFLCN@?$AAS?$AAA?$AAV?$AAE?$AA_?$AAT?$AAS?$AAL?$AA?$AA@ 00443014     ft2.obj
 0002:00003028       ??_C@_1BG@OOJAAEJB@?$AAS?$AAT?$AAA?$AAR?$AAT?$AA_?$AAS?$AAH?$AAO?$AAT?$AA?$AA@ 00443028     ft2.obj
 0002:00003040       ??_C@_1BI@MHBOKOMM@?$AAF?$AAO?$AAL?$AAL?$AAO?$AAW?$AA_?$AAT?$AAH?$AAR?$AAU?$AA?$AA@ 00443040     ft2.obj
 0002:00003058       ??_C@_1BA@DDKPNFHD@?$AAR?$AAE?$AAT?$AAR?$AAA?$AAC?$AAT?$AA?$AA@ 00443058     ft2.obj
 0002:00003068       ??_C@_1BC@OINJEIIO@?$AAJ?$AAO?$AAG?$AA_?$AAS?$AAH?$AAO?$AAT?$AA?$AA@ 00443068     ft2.obj
 0002:0000307c       ??_C@_1BI@MHDBJBKL@?$AAM?$AAA?$AAN?$AAU?$AAA?$AAL?$AA_?$AAM?$AAO?$AAD?$AAE?$AA?$AA@ 0044307c     ft2.obj
 0002:00003094       ??_C@_1BA@IBMGHEJC@?$AAA?$AAT?$AA_?$AAH?$AAO?$AAM?$AAE?$AA?$AA@ 00443094     ft2.obj
 0002:000030a4       ??_C@_1BG@IKINHPC@?$AAO?$AAK?$AA_?$AAF?$AAO?$AAR?$AA_?$AAV?$AAA?$AAC?$AA?$AA@ 004430a4     ft2.obj
 0002:000030bc       ??_C@_1O@CGAFDHPC@?$AAV?$AAA?$AAC?$AA_?$AAO?$AAN?$AA?$AA@ 004430bc     ft2.obj
 0002:000030cc       ??_C@_1BG@NCANJLAO@?$AAL?$AAO?$AAW?$AA_?$AAI?$AAM?$AAP?$AAA?$AAC?$AAT?$AA?$AA@ 004430cc     ft2.obj
 0002:000030e4       ??_C@_1BE@LAHHLPLI@?$AAF?$AAI?$AAL?$AAL?$AA_?$AAT?$AAE?$AAS?$AAT?$AA?$AA@ 004430e4     ft2.obj
 0002:000030f8       ??_C@_1BE@JCEONKFO@?$AAS?$AAL?$AAO?$AAW?$AA_?$AAS?$AAH?$AAO?$AAT?$AA?$AA@ 004430f8     ft2.obj
 0002:0000310c       ??_C@_1BI@GMJPIBJJ@?$AAA?$AAC?$AAC?$AAU?$AAM?$AAU?$AAL?$AAA?$AAT?$AAO?$AAR?$AA?$AA@ 0044310c     ft2.obj
 0002:00003124       ??_C@_17CGGCBCKJ@?$AAL?$AAS?$AA1?$AA?$AA@ 00443124     ft2.obj
 0002:0000312c       ??_C@_17DENHLNEH@?$AAL?$AAS?$AA2?$AA?$AA@ 0044312c     ft2.obj
 0002:00003134       ??_C@_17IMGLNKCC@?$AAL?$AAS?$AA3?$AA?$AA@ 00443134     ft2.obj
 0002:0000313c       ??_C@_17BBLMOCJL@?$AAL?$AAS?$AA4?$AA?$AA@ 0044313c     ft2.obj
 0002:00003144       ??_C@_17KJAAIFPO@?$AAL?$AAS?$AA5?$AA?$AA@ 00443144     ft2.obj
 0002:0000314c       ??_C@_17LLLFCKBA@?$AAL?$AAS?$AA6?$AA?$AA@ 0044314c     ft2.obj
 0002:00003154       ??_C@_1BC@OFLCBGIF@?$AAC?$AAU?$AAR?$AA_?$AAS?$AAT?$AAE?$AAP?$AA?$AA@ 00443154     ft2.obj
 0002:00003168       ??_C@_1CC@CKIBMCJC@?$AAS?$AAH?$AAO?$AAT?$AA_?$AAI?$AAN?$AA_?$AAP?$AAR?$AAO?$AAG?$AAR?$AAE?$AAS?$AAS?$AA?$AA@ 00443168     ft2.obj
 0002:0000318c       ??_C@_1BM@CNHLALPL@?$AAS?$AAH?$AAO?$AAT?$AA_?$AAC?$AAO?$AAM?$AAP?$AAL?$AAE?$AAT?$AAE?$AA?$AA@ 0044318c     ft2.obj
 0002:000031a8       ??_C@_1BG@CFJAIHMI@?$AAZ?$AAE?$AAR?$AAO?$AA_?$AAS?$AAP?$AAE?$AAE?$AAD?$AA?$AA@ 004431a8     ft2.obj
 0002:000031c0       ??_C@_1CG@BAJKLBCK@?$AAF?$AAO?$AAL?$AAL?$AAO?$AAW?$AAI?$AAN?$AAG?$AA_?$AAO?$AAV?$AAE?$AAR?$AAF?$AAL?$AAO?$AAW?$AA?$AA@ 004431c0     ft2.obj
 0002:000031e8       ??_C@_1O@PCIMHLCA@?$AAI?$AAN?$AAP?$AAU?$AAT?$AAS?$AA?$AA@ 004431e8     ft2.obj
 0002:000031f8       ??_C@_1BA@MFHAHAKO@?$AAO?$AAU?$AAT?$AAP?$AAU?$AAT?$AAS?$AA?$AA@ 004431f8     ft2.obj
 0002:00003208       ??_C@_1BE@CIMGKGNK@?$AAC?$AAT?$AAL?$AA_?$AAS?$AAT?$AAA?$AAT?$AAE?$AA?$AA@ 00443208     ft2.obj
 0002:0000321c       ??_C@_1BI@LOAOBLKO@?$AAW?$AAA?$AAI?$AAT?$AAI?$AAN?$AAG?$AA_?$AAF?$AAO?$AAR?$AA?$AA@ 0044321c     ft2.obj
 0002:00003234       ??_C@_1BC@GEBMFFAC@?$AAP?$AAR?$AAE?$AAS?$AA_?$AAC?$AAT?$AAL?$AA?$AA@ 00443234     ft2.obj
 0002:00003248       ??_C@_1BE@JIOAKCGK@?$AAB?$AAI?$AAN?$AA_?$AAV?$AAA?$AAL?$AAV?$AAE?$AA?$AA@ 00443248     ft2.obj
 0002:0000325c       ??_C@_19JHOCBEIE@?$AAV?$AAI?$AAE?$AAW?$AA?$AA@ 0044325c     ft2.obj
 0002:00003268       ??_C@_17LJFNJANL@?$AAD?$AAE?$AAL?$AA?$AA@ 00443268     ft2.obj
 0002:00003270       ??_C@_17LNGBJLJO@?$AAZ?$AAI?$AAP?$AA?$AA@ 00443270     ft2.obj
 0002:00003278       ??_C@_1BE@FLJCLODC@?$AAE?$AAV?$AAE?$AAN?$AAT?$AA_?$AAL?$AAO?$AAG?$AA?$AA@ 00443278     ft2.obj
 0002:0000328c       ??_C@_1BI@MDOFHNJJ@?$AAU?$AAP?$AAL?$AAO?$AAA?$AAD?$AA_?$AAF?$AAI?$AAL?$AAE?$AA?$AA@ 0044328c     ft2.obj
 0002:000032a8       ??_C@_1EC@IODJMCEA@?$AAc?$AA?3?$AA?2?$AAw?$AAi?$AAn?$AAd?$AAo?$AAw?$AAs?$AA?2?$AAs?$AAy?$AAs?$AAt?$AAe?$AAm?$AA3?$AA2?$AA?2?$AAn?$AAo?$AAt?$AAe?$AAp?$AAa?$AAd?$AA?4?$AAe?$AAx?$AAe?$AA?5@ 004432a8     ft2.obj
 0002:000032ec       ??_C@_1BA@JDCDDONI@?$AAC?$AAo?$AAn?$AAf?$AAi?$AAr?$AAm?$AA?$AA@ 004432ec     ft2.obj
 0002:000032fc       ??_C@_1CO@DKOJANPD@?$AAD?$AAe?$AAl?$AAe?$AAt?$AAe?$AA?5?$AAE?$AAr?$AAr?$AAo?$AAr?$AA?5?$AAL?$AAo?$AAg?$AA?5?$AAF?$AAi?$AAl?$AAe?$AA?$DP?$AA?$AA@ 004432fc     ft2.obj
 0002:0000332c       ??_C@_1CM@FEHIMHEP@?$AAC?$AAU?$AAR?$AAR?$AAE?$AAN?$AAT?$AA_?$AAV?$AAA?$AAL?$AAU?$AAE?$AAS?$AA_?$AAD?$AAI?$AAA?$AAL?$AAO?$AAG?$AA?$AA@ 0044332c     ft2.obj
 0002:00003358       ??_C@_1BO@JFEEPLLF@?$AAS?$AAE?$AAT?$AA_?$AAD?$AAA?$AAC?$AA_?$AAD?$AAI?$AAA?$AAL?$AAO?$AAG?$AA?$AA@ 00443358     ft2.obj
 0002:00003378       ??_C@_1CA@GJOMEBLK@?$AAS?$AAE?$AAT?$AA_?$AAN?$AAU?$AAL?$AAL?$AA_?$AAD?$AAI?$AAA?$AAL?$AAO?$AAG?$AA?$AA@ 00443378     ft2.obj
 0002:00003398       ??_C@_1DA@NIGDNOIF@?$AAG?$AAL?$AAO?$AAB?$AAA?$AAL?$AA_?$AAP?$AAA?$AAR?$AAA?$AAM?$AAE?$AAT?$AAE?$AAR?$AA_?$AAD?$AAI?$AAA?$AAL?$AAO?$AAG?$AA?$AA@ 00443398     ft2.obj
 0002:000033c8       ??_C@_1DC@LLFLIIBO@?$AAC?$AAO?$AAM?$AAP?$AAA?$AAR?$AAE?$AA_?$AAV?$AAA?$AAR?$AAI?$AAA?$AAB?$AAL?$AAE?$AAS?$AA_?$AAD?$AAI?$AAA?$AAL?$AAO?$AAG?$AA?$AA@ 004433c8     ft2.obj
 0002:000033fc       ??_C@_1CI@ODCJGEOG@?$AAC?$AAO?$AAN?$AAT?$AAR?$AAO?$AAL?$AA_?$AAM?$AAO?$AAD?$AAS?$AA_?$AAD?$AAI?$AAA?$AAL?$AAO?$AAG?$AA?$AA@ 004433fc     ft2.obj
 0002:00003424       ??_C@_1DE@OFBDKKIL@?$AAT?$AAE?$AAS?$AAT?$AA_?$AAA?$AAL?$AAA?$AAR?$AAM?$AA_?$AAO?$AAU?$AAT?$AAP?$AAU?$AAT?$AAS?$AA_?$AAD?$AAI?$AAA?$AAL?$AAO?$AAG?$AA?$AA@ 00443424     ft2.obj
 0002:00003458       ??_C@_1CE@KDBCBAAI@?$AAV?$AAA?$AAL?$AAV?$AAE?$AA_?$AAT?$AAE?$AAS?$AAT?$AA_?$AAD?$AAI?$AAA?$AAL?$AAO?$AAG?$AA?$AA@ 00443458     ft2.obj
 0002:0000347c       ??_C@_1BI@ILDFCOFP@?$AAW?$AAI?$AAR?$AAE?$AA_?$AAS?$AAT?$AAR?$AAI?$AAN?$AAG?$AA?$AA@ 0044347c     ft2.obj
 0002:00003494       ??_C@_1BO@OGOKHLIM@?$AAM?$AAO?$AAN?$AAI?$AAT?$AAO?$AAR?$AA_?$AAM?$AAO?$AAD?$AAU?$AAL?$AAE?$AA?$AA@ 00443494     ft2.obj
 0002:000034b4       ??_C@_1BO@FHOEIDFH@?$AAC?$AAO?$AAN?$AAT?$AAR?$AAO?$AAL?$AA_?$AAM?$AAO?$AAD?$AAU?$AAL?$AAE?$AA?$AA@ 004434b4     ft2.obj
 0002:000034d4       ??_C@_17KPAMKDIB@?$AAL?$AAE?$AAD?$AA?$AA@ 004434d4     ft2.obj
 0002:000034dc       ??_C@_1CI@ENLLMEEK@?$AAD?$AAO?$AAW?$AAN?$AAT?$AAI?$AAM?$AAE?$AA_?$AAA?$AAL?$AAA?$AAR?$AAM?$AA_?$AAW?$AAI?$AAR?$AAE?$AA?$AA@ 004434dc     ft2.obj
 0002:00003504       ??_C@_1BK@DCBGDNDF@?$AAM?$AAO?$AAN?$AAI?$AAT?$AAO?$AAR?$AA_?$AAW?$AAI?$AAR?$AAE?$AA?$AA@ 00443504     ft2.obj
 0002:00003520       ??_C@_1BK@MFFDFBOG@?$AAL?$AAI?$AAM?$AAI?$AAT?$AA_?$AAS?$AAW?$AAI?$AAT?$AAC?$AAH?$AA?$AA@ 00443520     ft2.obj
 0002:0000353c       ??_C@_1BE@PMGGJFCD@?$AAL?$AAO?$AAW?$AA_?$AAA?$AAL?$AAA?$AAR?$AAM?$AA?$AA@ 0044353c     ft2.obj
 0002:00003550       ??_C@_1BG@HMIBJNDO@?$AAH?$AAI?$AAG?$AAH?$AA_?$AAA?$AAL?$AAA?$AAR?$AAM?$AA?$AA@ 00443550     ft2.obj
 0002:00003568       ??_C@_1BI@DNHAHEPE@?$AAL?$AAO?$AAW?$AA_?$AAW?$AAA?$AAR?$AAN?$AAI?$AAN?$AAG?$AA?$AA@ 00443568     ft2.obj
 0002:00003580       ??_C@_1BK@GNJHEMAF@?$AAH?$AAI?$AAG?$AAH?$AA_?$AAW?$AAA?$AAR?$AAN?$AAI?$AAN?$AAG?$AA?$AA@ 00443580     ft2.obj
 0002:0000359c       ??_C@_1CM@HLKKAPBE@?$AAT?$AAH?$AAI?$AAR?$AAT?$AAY?$AA_?$AAS?$AAE?$AAC?$AAO?$AAN?$AAD?$AA_?$AAT?$AAI?$AAM?$AAE?$AAO?$AAU?$AAT?$AA?$AA@ 0044359c     ft2.obj
 0002:000035c8       ??_C@_1BM@LEODPIBP@?$AAS?$AAT?$AA2?$AA_?$AAP?$AAG?$AAM?$AA_?$AAA?$AAB?$AAO?$AAR?$AAT?$AA?$AA@ 004435c8     ft2.obj
 0002:000035e4       ??_C@_1CG@HPOEIIOE@?$AAS?$AAH?$AAO?$AAT?$AA_?$AAS?$AAA?$AAV?$AAE?$AA_?$AAC?$AAO?$AAM?$AAP?$AAL?$AAE?$AAT?$AAE?$AA?$AA@ 004435e4     ft2.obj
 0002:0000360c       ??_C@_1BK@BEJLOGJK@?$AAW?$AAA?$AAR?$AAN?$AAI?$AAN?$AAG?$AA_?$AAS?$AAH?$AAO?$AAT?$AA?$AA@ 0044360c     ft2.obj
 0002:00003628       ??_C@_1BG@NMMODJOL@?$AAA?$AAL?$AAA?$AAR?$AAM?$AA_?$AAS?$AAH?$AAO?$AAT?$AA?$AA@ 00443628     ft2.obj
 0002:00003640       ??_C@_1BE@MMDAFOPH@?$AAG?$AAO?$AAO?$AAD?$AA_?$AAS?$AAH?$AAO?$AAT?$AA?$AA@ 00443640     ft2.obj
 0002:00003654       ??_C@_1CE@NIGFINMF@?$AAO?$AAU?$AAT?$AAP?$AAU?$AAT?$AA_?$AAL?$AAI?$AAS?$AAT?$AA_?$AAT?$AAI?$AAT?$AAL?$AAE?$AA?$AA@ 00443654     ft2.obj
 0002:00003678       ??_C@_19OBDIFGDL@?$AAV?$AA3?$AA1?$AA9?$AA?$AA@ 00443678     ft2.obj
 0002:00003684       ??_C@_1CI@CBOIFIDA@?$AAU?$AAP?$AAL?$AAO?$AAA?$AAD?$AA_?$AAF?$AAL?$AAA?$AAS?$AAH?$AA_?$AAD?$AAI?$AAA?$AAL?$AAO?$AAG?$AA?$AA@ 00443684     ft2.obj
 0002:000036ac       ??_C@_17LCEJACNC@?$AAA?$AAC?$AAT?$AA?$AA@ 004436ac     ft2.obj
 0002:000036b4       ??_C@_17OCANGMGN@?$AAC?$AAF?$AAG?$AA?$AA@ 004436b4     ft2.obj
 0002:000036bc       ??_C@_15KCKDGHGD@?$AAF?$AA8?$AA?$AA@ 004436bc     ft2.obj
 0002:000036c8       ??_C@_1EC@PMLHBNAM@?$AAS?$AAh?$AAu?$AAt?$AAt?$AAi?$AAn?$AAg?$AA?5?$AAD?$AAo?$AAw?$AAn?$AA?5?$AAC?$AAu?$AAr?$AAr?$AAe?$AAn?$AAt?$AA?5?$AAM?$AAo?$AAn?$AAi?$AAt?$AAo?$AAr?$AA?4?$AA?4?$AA?4@ 004436c8     ft2.obj
 0002:0000370c       ??_C@_1CO@HGAENEJM@?$AAS?$AAH?$AAU?$AAT?$AAD?$AAO?$AAW?$AAN?$AA_?$AAS?$AAT?$AAA?$AAT?$AAU?$AAS?$AA_?$AAD?$AAI?$AAA?$AAL?$AAO?$AAG?$AA?$AA@ 0044370c     ft2.obj
 0002:00003740       ??_C@_1EC@MLKEFCPK@?$AAE?$AAx?$AAi?$AAt?$AAi?$AAn?$AAg?$AA?5?$AAf?$AAr?$AAo?$AAm?$AA?5?$AAm?$AAa?$AAi?$AAn?$AA?5?$AAd?$AAi?$AAa?$AAl?$AAo?$AAg?$AA?5?$AAp?$AAr?$AAo?$AAc?$AA?4?$AA?4?$AA?4@ 00443740     ft2.obj
 0002:00003784       ??_C@_1DM@PPHPGGKG@?$AAC?$AAH?$AAO?$AAO?$AAS?$AAE?$AA_?$AAM?$AAO?$AAN?$AAI?$AAT?$AAO?$AAR?$AA_?$AAM?$AAA?$AAC?$AAH?$AAI?$AAN?$AAE?$AA_?$AAD?$AAI?$AAA?$AAL?$AAO?$AAG?$AA?$AA@ 00443784     ft2.obj
 0002:000037c0       ??_C@_1BG@MGKGFAF@?$AAC?$AAM?$AAD?$AA_?$AAS?$AAT?$AAR?$AAI?$AAN?$AAG?$AA?$AA@ 004437c0     ft2.obj
 0002:000037d8       ??_C@_19NLBMFKGJ@?$AAL?$AAV?$AAD?$AAT?$AA?$AA@ 004437d8     ft2.obj
 0002:000037e4       ??_C@_1BI@HFDKBCKB@?$AAM?$AAE?$AAA?$AAS?$AA_?$AAS?$AAT?$AAR?$AAI?$AAN?$AAG?$AA?$AA@ 004437e4     ft2.obj
 0002:000037fc       ??_C@_1CA@FANFDINL@?$AAi?$AAo?$AA_?$AAl?$AAo?$AAg?$AA_?$AAf?$AAi?$AAl?$AAe?$AA?4?$AAt?$AAx?$AAt?$AA?$AA@ 004437fc     ft2.obj
 0002:0000381c       ??_C@_1BA@PLMGDAKO@?$AAf?$AAt?$AA2?$AA?4?$AAl?$AAo?$AAg?$AA?$AA@ 0044381c     ft2.obj
 0002:0000382c       ??_C@_1BI@NDJDIFKK@?$AAf?$AAt?$AA2?$AAc?$AAo?$AAp?$AAy?$AA?4?$AAl?$AAo?$AAg?$AA?$AA@ 0044382c     ft2.obj
 0002:00003844       ??_C@_1BA@FKIFIEDJ@?$AAf?$AAt?$AA2?$AA?4?$AAz?$AAi?$AAp?$AA?$AA@ 00443844     ft2.obj
 0002:00003854       ??_C@_1CK@PPMPFPII@?$AAn?$AAe?$AAt?$AAw?$AAo?$AAr?$AAk?$AA_?$AAl?$AAo?$AAg?$AA_?$AAf?$AAi?$AAl?$AAe?$AA?4?$AAt?$AAx?$AAt?$AA?$AA@ 00443854     ft2.obj
 0002:00003880       ??_C@_1DO@DLJLOFAI@?$AAs?$AAe?$AAn?$AAt?$AA_?$AAc?$AAo?$AAm?$AAm?$AAa?$AAn?$AAd?$AAs?$AA_?$AAl?$AAo?$AAg?$AA_?$AAl?$AAo?$AAg?$AA_?$AAf?$AAi?$AAl?$AAe?$AA?4?$AAt?$AAx?$AAt?$AA?$AA@ 00443880     ft2.obj
 0002:000038c0       ??_C@_1BO@MKEHJGLP@?$AAP?$AAR?$AAO?$AAG?$AAR?$AAA?$AAM?$AA?5?$AAS?$AAT?$AAA?$AAR?$AAT?$AA?5?$AA?$AA@ 004438c0     ft2.obj
 0002:000038e0       ??_C@_1BM@EILMFLPP@?$AAS?$AAA?$AAV?$AAI?$AAN?$AAG?$AA_?$AAS?$AAT?$AAR?$AAI?$AAN?$AAG?$AA?$AA@ 004438e0     ft2.obj
 0002:000038fc       ??_C@_1BE@IHPBHEHL@?$AAA?$AAU?$AAT?$AAO?$AA_?$AAS?$AAH?$AAO?$AAT?$AA?$AA@ 004438fc     ft2.obj
 0002:00003910       ??_C@_1CA@JOBEOJKK@?$AAF?$AAT?$AA2?$AA_?$AAT?$AAE?$AAS?$AAT?$AA_?$AAD?$AAI?$AAA?$AAL?$AAO?$AAG?$AA?$AA@ 00443910     ft2.obj
 0002:00003930       ??_C@_1CG@CFOJDBNB@?$AAO?$AAU?$AAT?$AAP?$AAU?$AAT?$AA_?$AAL?$AAI?$AAS?$AAT?$AA_?$AAD?$AAI?$AAA?$AAL?$AAO?$AAG?$AA?$AA@ 00443930     ft2.obj
 0002:00003958       ??_C@_1DC@CAMJDCON@?$AAH?$AAI?$AAR?$AAE?$AAS?$AA_?$AAS?$AAE?$AAN?$AAS?$AAO?$AAR?$AA_?$AAT?$AAE?$AAS?$AAT?$AA_?$AAD?$AAI?$AAA?$AAL?$AAO?$AAG?$AA?$AA@ 00443958     ft2.obj
 0002:0000398c       ??_C@_1CM@PHLHHKCC@?$AAU?$AAP?$AAL?$AAO?$AAA?$AAD?$AA_?$AAA?$AAB?$AAO?$AAR?$AAT?$AAE?$AAD?$AA_?$AAD?$AAI?$AAA?$AAL?$AAO?$AAG?$AA?$AA@ 0044398c     ft2.obj
 0002:000039b8       __real@3f50624dd2f1a9fc    004439b8     ft2.obj
 0002:000039c0       __real@3fb0000000000000    004439c0     ft2.obj
 0002:000039c8       __real@3fd0000000000000    004439c8     ft2.obj
 0002:000039d0       __real@3fe0000000000000    004439d0     ft2.obj
 0002:000039d8       __real@3ff0000000000000    004439d8     ft2.obj
 0002:000039e0       __real@4010000000000000    004439e0     ft2.obj
 0002:000039e8       __real@4014000000000000    004439e8     ft2.obj
 0002:000039f0       __real@4024000000000000    004439f0     ft2.obj
 0002:000039f8       __real@4034000000000000    004439f8     ft2.obj
 0002:00003a00       __real@4059000000000000    00443a00     ft2.obj
 0002:00003a08       __real@408f400000000000    00443a08     ft2.obj
 0002:00003a10       __real@40affe0000000000    00443a10     ft2.obj
 0002:00003a20       __xmm@41f00000000000000000000000000000 00443a20     ft2.obj
 0002:00003a54       ??_C@_1BK@KNAMOOFG@?$AAA?$AAL?$AAA?$AAR?$AAM?$AAS?$AAU?$AAM?$AA?4?$AAT?$AAX?$AAT?$AA?$AA@ 00443a54     board_monitor.obj
 0002:00003a70       ??_C@_1BK@EHLOGFNL@?$AAD?$AAO?$AAW?$AAN?$AAT?$AAI?$AAM?$AAE?$AA?4?$AAT?$AAX?$AAT?$AA?$AA@ 00443a70     board_monitor.obj
 0002:00003a8c       ??_C@_1CO@DNCHNEPD@?$AAf?$AAt?$AAi?$AAi?$AA_?$AAp?$AAa?$AAr?$AAt?$AA_?$AAs?$AAe?$AAt?$AAt?$AAi?$AAn?$AAg?$AAs?$AA?4?$AAt?$AAx?$AAt?$AA?$AA@ 00443a8c     board_monitor.obj
 0002:00003abc       ??_C@_1BK@KAADPACA@?$AAG?$AAR?$AAA?$AAP?$AAH?$AAL?$AAS?$AAT?$AA?4?$AAT?$AAX?$AAT?$AA?$AA@ 00443abc     board_monitor.obj
 0002:00003ad8       ??_C@_1CM@OGICAEDA@?$AAI?$AAM?$AAP?$AAA?$AAC?$AAT?$AA_?$AAP?$AAA?$AAR?$AAA?$AAM?$AA_?$AAF?$AAI?$AAL?$AAE?$AA?4?$AAC?$AAS?$AAV?$AA?$AA@ 00443ad8     board_monitor.obj
 0002:00003b04       ??_C@_1DI@MPDDKMCK@?$AAm?$AAa?$AAc?$AAh?$AAi?$AAn?$AAe?$AA_?$AAc?$AAt?$AAr?$AAl?$AA_?$AAp?$AAr?$AAo?$AAg?$AA_?$AAs?$AAt?$AAe?$AAp?$AAs?$AA?4?$AAt?$AAx?$AAt?$AA?$AA@ 00443b04     board_monitor.obj
 0002:00003b3c       ??_C@_1BK@FLHBKDPP@?$AAS?$AAH?$AAO?$AAT?$AAP?$AAA?$AAR?$AAM?$AA?4?$AAC?$AAS?$AAV?$AA?$AA@ 00443b3c     board_monitor.obj
 0002:00003b58       ??_C@_15LNJINHHA@?$AA?9?$AA1?$AA?$AA@ 00443b58     board_monitor.obj
 0002:00003b60       ??_C@_1BG@HJNPLKPL@?$AAW?$AAS?$AAA?$AAB?$AAA?$AAS?$AAE?$AAE?$AAR?$AAR?$AA?$AA@ 00443b60     board_monitor.obj
 0002:00003b78       ??_C@_1BC@NAKAMNCC@?$AAW?$AAS?$AAA?$AAE?$AAI?$AAN?$AAT?$AAR?$AA?$AA@ 00443b78     board_monitor.obj
 0002:00003b8c       ??_C@_1BC@CNMNOGCK@?$AAW?$AAS?$AAA?$AAE?$AAB?$AAA?$AAD?$AAF?$AA?$AA@ 00443b8c     board_monitor.obj
 0002:00003ba0       ??_C@_1BE@IAHPJO@?$AAW?$AAS?$AAA?$AAE?$AAA?$AAC?$AAC?$AAE?$AAS?$AA?$AA@ 00443ba0     board_monitor.obj
 0002:00003bb4       ??_C@_1BE@HAOBBHPB@?$AAW?$AAS?$AAA?$AAE?$AAF?$AAA?$AAU?$AAL?$AAT?$AA?$AA@ 00443bb4     board_monitor.obj
 0002:00003bc8       ??_C@_1BE@FEMCLIEA@?$AAW?$AAS?$AAA?$AAE?$AAI?$AAN?$AAV?$AAA?$AAL?$AA?$AA@ 00443bc8     board_monitor.obj
 0002:00003bdc       ??_C@_1BE@CABOLMBI@?$AAW?$AAS?$AAA?$AAE?$AAM?$AAF?$AAI?$AAL?$AAE?$AA?$AA@ 00443bdc     board_monitor.obj
 0002:00003bf0       ??_C@_1BO@DIBCNNLP@?$AAW?$AAS?$AAA?$AAE?$AAW?$AAO?$AAU?$AAL?$AAD?$AAB?$AAL?$AAO?$AAC?$AAK?$AA?$AA@ 00443bf0     board_monitor.obj
 0002:00003c10       ??_C@_1BO@PECIOFGP@?$AAW?$AAS?$AAA?$AAE?$AAI?$AAN?$AAP?$AAR?$AAO?$AAG?$AAR?$AAE?$AAS?$AAS?$AA?$AA@ 00443c10     board_monitor.obj
 0002:00003c30       ??_C@_1BI@OEMKAKNA@?$AAW?$AAS?$AAA?$AAE?$AAA?$AAL?$AAR?$AAE?$AAA?$AAD?$AAY?$AA?$AA@ 00443c30     board_monitor.obj
 0002:00003c48       ??_C@_1BI@CBFDKBOA@?$AAW?$AAS?$AAA?$AAE?$AAN?$AAO?$AAT?$AAS?$AAO?$AAC?$AAK?$AA?$AA@ 00443c48     board_monitor.obj
 0002:00003c60       ??_C@_1CA@DJOFKAFM@?$AAW?$AAS?$AAA?$AAE?$AAD?$AAE?$AAS?$AAT?$AAA?$AAD?$AAD?$AAR?$AAR?$AAE?$AAQ?$AA?$AA@ 00443c60     board_monitor.obj
 0002:00003c80       ??_C@_1BI@DNDDKKLI@?$AAW?$AAS?$AAA?$AAE?$AAM?$AAS?$AAG?$AAS?$AAI?$AAZ?$AAE?$AA?$AA@ 00443c80     board_monitor.obj
 0002:00003c98       ??_C@_1BM@HFJFKIML@?$AAW?$AAS?$AAA?$AAE?$AAP?$AAR?$AAO?$AAT?$AAO?$AAT?$AAY?$AAP?$AAE?$AA?$AA@ 00443c98     board_monitor.obj
 0002:00003cb4       ??_C@_1BO@NHMDIDOC@?$AAW?$AAS?$AAA?$AAE?$AAN?$AAO?$AAP?$AAR?$AAO?$AAT?$AAO?$AAO?$AAP?$AAT?$AA?$AA@ 00443cb4     board_monitor.obj
 0002:00003cd4       ??_C@_1CG@KOJOMOKP@?$AAW?$AAS?$AAA?$AAE?$AAP?$AAR?$AAO?$AAT?$AAO?$AAN?$AAO?$AAS?$AAU?$AAP?$AAP?$AAO?$AAR?$AAT?$AA?$AA@ 00443cd4     board_monitor.obj
 0002:00003cfc       ??_C@_1CG@DBKCNFHB@?$AAW?$AAS?$AAA?$AAE?$AAS?$AAO?$AAC?$AAK?$AAT?$AAN?$AAO?$AAS?$AAU?$AAP?$AAP?$AAO?$AAR?$AAT?$AA?$AA@ 00443cfc     board_monitor.obj
 0002:00003d24       ??_C@_1BM@MEMEGODF@?$AAW?$AAS?$AAA?$AAE?$AAO?$AAP?$AAN?$AAO?$AAT?$AAS?$AAU?$AAP?$AAP?$AA?$AA@ 00443d24     board_monitor.obj
 0002:00003d40       ??_C@_1CA@MMHBEIDC@?$AAW?$AAS?$AAA?$AAE?$AAP?$AAF?$AAN?$AAO?$AAS?$AAU?$AAP?$AAP?$AAO?$AAR?$AAT?$AA?$AA@ 00443d40     board_monitor.obj
 0002:00003d60       ??_C@_1CA@DCDPFCCI@?$AAW?$AAS?$AAA?$AAE?$AAA?$AAF?$AAN?$AAO?$AAS?$AAU?$AAP?$AAP?$AAO?$AAR?$AAT?$AA?$AA@ 00443d60     board_monitor.obj
 0002:00003d80       ??_C@_1BM@HMHIGLBO@?$AAW?$AAS?$AAA?$AAE?$AAA?$AAD?$AAD?$AAR?$AAI?$AAN?$AAU?$AAS?$AAE?$AA?$AA@ 00443d80     board_monitor.obj
 0002:00003d9c       ??_C@_1CC@MGAPHBKJ@?$AAW?$AAS?$AAA?$AAE?$AAA?$AAD?$AAD?$AAR?$AAN?$AAO?$AAT?$AAA?$AAV?$AAA?$AAI?$AAL?$AA?$AA@ 00443d9c     board_monitor.obj
 0002:00003dc0       ??_C@_1BI@JJIPFBFF@?$AAW?$AAS?$AAA?$AAE?$AAN?$AAE?$AAT?$AAD?$AAO?$AAW?$AAN?$AA?$AA@ 00443dc0     board_monitor.obj
 0002:00003dd8       ??_C@_1BO@JJJAFCNA@?$AAW?$AAS?$AAA?$AAE?$AAN?$AAE?$AAT?$AAU?$AAN?$AAR?$AAE?$AAA?$AAC?$AAH?$AA?$AA@ 00443dd8     board_monitor.obj
 0002:00003df8       ??_C@_1BK@IFEFOPOF@?$AAW?$AAS?$AAA?$AAE?$AAN?$AAE?$AAT?$AAR?$AAE?$AAS?$AAE?$AAT?$AA?$AA@ 00443df8     board_monitor.obj
 0002:00003e14       ??_C@_1CA@NNKHANCG@?$AAW?$AAS?$AAA?$AAE?$AAC?$AAO?$AAN?$AAN?$AAA?$AAB?$AAO?$AAR?$AAT?$AAE?$AAD?$AA?$AA@ 00443e14     board_monitor.obj
 0002:00003e34       ??_C@_1BM@INLKBDGP@?$AAW?$AAS?$AAA?$AAE?$AAC?$AAO?$AAN?$AAN?$AAR?$AAE?$AAS?$AAE?$AAT?$AA?$AA@ 00443e34     board_monitor.obj
 0002:00003e50       ??_C@_1BG@GFDMFLLP@?$AAW?$AAS?$AAA?$AAE?$AAN?$AAO?$AAB?$AAU?$AAF?$AAS?$AA?$AA@ 00443e50     board_monitor.obj
 0002:00003e68       ??_C@_1BG@EFHKBKPA@?$AAW?$AAS?$AAA?$AAE?$AAI?$AAS?$AAC?$AAO?$AAN?$AAN?$AA?$AA@ 00443e68     board_monitor.obj
 0002:00003e80       ??_C@_1BI@INLNMDOE@?$AAW?$AAS?$AAA?$AAE?$AAN?$AAO?$AAT?$AAC?$AAO?$AAN?$AAN?$AA?$AA@ 00443e80     board_monitor.obj
 0002:00003e98       ??_C@_1BK@JGFJCBOI@?$AAW?$AAS?$AAA?$AAE?$AAS?$AAH?$AAU?$AAT?$AAD?$AAO?$AAW?$AAN?$AA?$AA@ 00443e98     board_monitor.obj
 0002:00003eb4       ??_C@_1CA@COKOFGEE@?$AAW?$AAS?$AAA?$AAE?$AAT?$AAO?$AAO?$AAM?$AAA?$AAN?$AAY?$AAR?$AAE?$AAF?$AAS?$AA?$AA@ 00443eb4     board_monitor.obj
 0002:00003ed4       ??_C@_1BK@GJCFCPCE@?$AAW?$AAS?$AAA?$AAE?$AAT?$AAI?$AAM?$AAE?$AAD?$AAO?$AAU?$AAT?$AA?$AA@ 00443ed4     board_monitor.obj
 0002:00003ef0       ??_C@_1CA@CDFAFHL@?$AAW?$AAS?$AAA?$AAE?$AAC?$AAO?$AAN?$AAN?$AAR?$AAE?$AAF?$AAU?$AAS?$AAE?$AAD?$AA?$AA@ 00443ef0     board_monitor.obj
 0002:00003f10       ??_C@_1BC@DJDLDMCL@?$AAW?$AAS?$AAA?$AAE?$AAL?$AAO?$AAO?$AAP?$AA?$AA@ 00443f10     board_monitor.obj
 0002:00003f24       ??_C@_1CA@DFAFNIBM@?$AAW?$AAS?$AAA?$AAE?$AAN?$AAA?$AAM?$AAE?$AAT?$AAO?$AAO?$AAL?$AAO?$AAN?$AAG?$AA?$AA@ 00443f24     board_monitor.obj
 0002:00003f44       ??_C@_1BK@EABGLNFN@?$AAW?$AAS?$AAA?$AAE?$AAH?$AAO?$AAS?$AAT?$AAD?$AAO?$AAW?$AAN?$AA?$AA@ 00443f44     board_monitor.obj
 0002:00003f60       ??_C@_1CA@NKPHFKPC@?$AAW?$AAS?$AAA?$AAE?$AAH?$AAO?$AAS?$AAT?$AAU?$AAN?$AAR?$AAE?$AAA?$AAC?$AAH?$AA?$AA@ 00443f60     board_monitor.obj
 0002:00003f80       ??_C@_1BK@KOMOBPEO@?$AAW?$AAS?$AAA?$AAE?$AAN?$AAO?$AAT?$AAE?$AAM?$AAP?$AAT?$AAY?$AA?$AA@ 00443f80     board_monitor.obj
 0002:00003f9c       ??_C@_1BI@GGOFJGKB@?$AAW?$AAS?$AAA?$AAE?$AAP?$AAR?$AAO?$AAC?$AAL?$AAI?$AAM?$AA?$AA@ 00443f9c     board_monitor.obj
 0002:00003fb4       ??_C@_1BE@PAIMBDFB@?$AAW?$AAS?$AAA?$AAE?$AAU?$AAS?$AAE?$AAR?$AAS?$AA?$AA@ 00443fb4     board_monitor.obj
 0002:00003fc8       ??_C@_1BE@DNOAHKCI@?$AAW?$AAS?$AAA?$AAE?$AAD?$AAQ?$AAU?$AAO?$AAT?$AA?$AA@ 00443fc8     board_monitor.obj
 0002:00003fdc       ??_C@_1BE@DFIJMIJK@?$AAW?$AAS?$AAA?$AAE?$AAS?$AAT?$AAA?$AAL?$AAE?$AA?$AA@ 00443fdc     board_monitor.obj
 0002:00003ff0       ??_C@_1BG@OEFAMDCC@?$AAW?$AAS?$AAA?$AAE?$AAR?$AAE?$AAM?$AAO?$AAT?$AAE?$AA?$AA@ 00443ff0     board_monitor.obj
 0002:00004008       ??_C@_1BG@KPPCCIDE@?$AAW?$AAS?$AAA?$AAE?$AAD?$AAI?$AAS?$AAC?$AAO?$AAN?$AA?$AA@ 00444008     board_monitor.obj
 0002:00004020       ??_C@_1BO@CPHDEENC@?$AA?5?$AAS?$AAo?$AAc?$AAk?$AAe?$AAt?$AA?5?$AAE?$AAr?$AAr?$AAo?$AAr?$AA?5?$AA?$AA@ 00444020     board_monitor.obj
 0002:00004040       ??_C@_1BG@LPCMOPJJ@?$AA?5?$AAa?$AAt?$AA?5?$AAt?$AAi?$AAm?$AAe?$AA?3?$AA?5?$AA?$AA@ 00444040     board_monitor.obj
 0002:00004058       ??_C@_1CK@BPALOMIP@?$AAR?$AAe?$AAt?$AAr?$AAa?$AAc?$AAt?$AA?5?$AA?5?$AA?5?$AA?5?$AA?5?$AA?5?$AA?5?$AA?5?$AAI?$AAN?$AAP?$AAU?$AAT?$AA?$AA@ 00444058     board_monitor.obj
 0002:00004084       ??_C@_1CK@OEPHOBLA@?$AAS?$AAt?$AAa?$AAr?$AAt?$AA?5?$AAS?$AAh?$AAo?$AAt?$AA?5?$AA?5?$AA?5?$AA?5?$AA?5?$AAI?$AAN?$AAP?$AAU?$AAT?$AA?$AA@ 00444084     board_monitor.obj
 0002:000040b0       ??_C@_1CK@CILLHIHE@?$AAF?$AAo?$AAl?$AAl?$AAo?$AAw?$AA?5?$AAT?$AAh?$AAr?$AAo?$AAu?$AAg?$AAh?$AA?5?$AAI?$AAN?$AAP?$AAU?$AAT?$AA?$AA@ 004440b0     board_monitor.obj
 0002:000040dc       ??_C@_1CK@EPDFJDPE@?$AAA?$AAc?$AAc?$AAu?$AAm?$AAu?$AAl?$AAa?$AAt?$AAo?$AAr?$AA?5?$AA?5?$AA?5?$AA?5?$AAI?$AAN?$AAP?$AAU?$AAT?$AA?$AA@ 004440dc     board_monitor.obj
 0002:00004108       ??_C@_1CK@IFHDCCJL@?$AAS?$AAl?$AAo?$AAw?$AA?5?$AAS?$AAh?$AAo?$AAt?$AA?5?$AA?5?$AA?5?$AA?5?$AA?5?$AA?5?$AAI?$AAN?$AAP?$AAU?$AAT?$AA?$AA@ 00444108     board_monitor.obj
 0002:00004134       ??_C@_1DE@MDPKDKBD@?$AAN?$AAO?$AA_?$AAM?$AAU?$AAL?$AAT?$AAI?$AAP?$AAA?$AAR?$AAT?$AA_?$AAR?$AAU?$AAN?$AAL?$AAI?$AAS?$AAT?$AA_?$AAP?$AAA?$AAR?$AAT?$AA?$AA@ 00444134     board_monitor.obj
 0002:00004168       ??_C@_15LKGMKBFA@?$AA0?$AA0?$AA?$AA@ 00444168     board_monitor.obj
 0002:00004170       ??_C@_15MJIMBFJA@?$AA1?$AA1?$AA?$AA@ 00444170     board_monitor.obj
 0002:00004178       ??_C@_1DC@BEBPNIKH@?$AAU?$AAP?$AAD?$AAA?$AAT?$AAI?$AAN?$AAG?$AA_?$AAG?$AAR?$AAA?$AAP?$AAH?$AAL?$AAS?$AAT?$AA_?$AAS?$AAT?$AAR?$AAI?$AAN?$AAG?$AA?$AA@ 00444178     board_monitor.obj
 0002:000041ac       ??_C@_15CNAMGDF@?$AA0?$AA1?$AA?$AA@ 004441ac     board_monitor.obj
 0002:0000422c       ??_C@_15KAFJPDIL@?$AAX?$AAX?$AA?$AA@ 0044422c     board_monitor.obj
 0002:00004234       ??_C@_1CO@FJBLKDOO@?$AAN?$AAa?$AAk?$AA?5?$AAR?$AAe?$AAc?$AAe?$AAi?$AAv?$AAe?$AAd?$AA?5?$AAo?$AAn?$AA?5?$AAB?$AAo?$AAa?$AAr?$AAd?$AA?5?$AA?$AA@ 00444234     board_monitor.obj
 0002:00004264       ??_C@_1BO@GAHEALBD@?$AA?5?$AAN?$AAo?$AAt?$AA?5?$AAC?$AAo?$AAn?$AAn?$AAe?$AAc?$AAt?$AAe?$AAd?$AA?$AA@ 00444264     board_monitor.obj
 0002:00004284       ??_C@_1CC@JGODHKHL@?$AA?5?$AAC?$AAo?$AAn?$AAn?$AAe?$AAc?$AAt?$AAi?$AAo?$AAn?$AA?5?$AAL?$AAo?$AAs?$AAt?$AA?$AA@ 00444284     board_monitor.obj
 0002:000042a8       ??_C@_1EI@DILEJDBO@?$AAB?$AAo?$AAa?$AAr?$AAd?$AA?5?$AAr?$AAe?$AAt?$AAu?$AAr?$AAn?$AAs?$AA?5?$AAa?$AAf?$AAt?$AAe?$AAr?$AA?5?$AAc?$AAo?$AAn?$AAn?$AAe?$AAc?$AAt?$AAi?$AAo?$AAn?$AA?5?$AAl@ 004442a8     board_monitor.obj
 0002:000042f0       ??_C@_1M@EAOAGOOA@?$AA?$CK?$AA?$CK?$AA?$CK?$AA?$CK?$AA?5?$AA?$AA@ 004442f0     board_monitor.obj
 0002:000042fc       ??_C@_19FCCGIDMN@?$AA?5?$AA?$CK?$AA?$CK?$AA?$CK?$AA?$AA@ 004442fc     board_monitor.obj
 0002:00004308       ??_C@_1BG@MBHEBDKC@?$AA?5?$AA0?$AA?5?$AAS?$AAe?$AAc?$AAo?$AAn?$AAd?$AAs?$AA?$AA@ 00444308     board_monitor.obj
 0002:00004320       ??_C@_1BO@JBJKMGNM@?$AAW?$AAS?$AAA?$AAS?$AAY?$AAS?$AAN?$AAO?$AAT?$AAR?$AAE?$AAA?$AAD?$AAY?$AA?$AA@ 00444320     board_monitor.obj
 0002:00004340       ??_C@_1CG@COMGHCBP@?$AAW?$AAS?$AAA?$AAV?$AAE?$AAR?$AAN?$AAO?$AAT?$AAS?$AAU?$AAP?$AAP?$AAO?$AAR?$AAT?$AAE?$AAD?$AA?$AA@ 00444340     board_monitor.obj
 0002:00004368       ??_C@_1BO@BGJCGDBK@?$AAW?$AAS?$AAA?$AAN?$AAO?$AA_?$AAR?$AAE?$AAC?$AAO?$AAV?$AAE?$AAR?$AAY?$AA?$AA@ 00444368     board_monitor.obj
 0002:00004388       ??_C@_1BG@DFCNAPCP@?$AAW?$AAS?$AAA?$AAS?$AAt?$AAa?$AAr?$AAt?$AAu?$AAp?$AA?$AA@ 00444388     board_monitor.obj
 0002:000043a0       ??_C@_1O@OJLJEJGD@?$AAs?$AAo?$AAc?$AAk?$AAe?$AAt?$AA?$AA@ 004443a0     board_monitor.obj
 0002:000043b0       ??_C@_19IAHJPGCK@?$AAb?$AAi?$AAn?$AAd?$AA?$AA@ 004443b0     board_monitor.obj
 0002:000043bc       __real@00000000            004443bc     board_monitor.obj
 0002:000043c0       ??_C@_1CI@NKPHHPMM@?$AAD?$AAd?$AAe?$AAP?$AAa?$AAr?$AAa?$AAm?$AAS?$AAh?$AAo?$AAw?$AAM?$AAa?$AAc?$AAh?$AAi?$AAn?$AAe?$AA?$AA@ 004443c0     shotsave.obj
 0002:000043e8       ??_C@_1CC@GBLPFCLO@?$AAD?$AAd?$AAe?$AAP?$AAa?$AAr?$AAa?$AAm?$AAS?$AAh?$AAo?$AAw?$AAP?$AAa?$AAr?$AAt?$AA?$AA@ 004443e8     shotsave.obj
 0002:0000440c       ??_C@_1CC@HBAGKAML@?$AAD?$AAd?$AAe?$AAP?$AAa?$AAr?$AAa?$AAm?$AAS?$AAh?$AAo?$AAw?$AAD?$AAa?$AAt?$AAe?$AA?$AA@ 0044440c     shotsave.obj
 0002:00004430       ??_C@_1CC@KBJEGJMF@?$AAD?$AAd?$AAe?$AAP?$AAa?$AAr?$AAa?$AAm?$AAS?$AAh?$AAo?$AAw?$AAT?$AAi?$AAm?$AAe?$AA?$AA@ 00444430     shotsave.obj
 0002:00004454       ??_C@_1CC@CKIPODND@?$AAD?$AAd?$AAe?$AAP?$AAa?$AAr?$AAa?$AAm?$AAS?$AAh?$AAo?$AAw?$AAS?$AAh?$AAo?$AAt?$AA?$AA@ 00444454     shotsave.obj
 0002:00004478       ??_C@_1CC@EEAOGBNO@?$AAD?$AAd?$AAe?$AAP?$AAa?$AAr?$AAa?$AAm?$AAP?$AAa?$AAr?$AAm?$AAL?$AAi?$AAs?$AAt?$AA?$AA@ 00444478     shotsave.obj
 0002:0000449c       ??_C@_1BI@HJLMGOGP@?$AAE?$AAo?$AAs?$AAC?$AAo?$AAm?$AAS?$AAp?$AAe?$AAe?$AAd?$AA?$AA@ 0044449c     shotsave.obj
 0002:000044b4       ??_C@_1BK@CEIPKEJA@?$AAE?$AAo?$AAs?$AAC?$AAo?$AAm?$AAP?$AAa?$AAr?$AAi?$AAt?$AAy?$AA?$AA@ 004444b4     shotsave.obj
 0002:000044d0       ??_C@_1BG@HBLEGLJH@?$AAE?$AAo?$AAs?$AAC?$AAo?$AAm?$AAB?$AAi?$AAt?$AAs?$AA?$AA@ 004444d0     shotsave.obj
 0002:000044e8       ??_C@_1BG@CFMCPIAN@?$AAE?$AAo?$AAs?$AAC?$AAo?$AAm?$AAS?$AAt?$AAo?$AAp?$AA?$AA@ 004444e8     shotsave.obj
 0002:00004500       ??_C@_1BE@EGOFEJA@?$AAE?$AAo?$AAs?$AAC?$AAo?$AAm?$AAC?$AAt?$AAs?$AA?$AA@ 00444500     shotsave.obj
 0002:00004514       ??_C@_1BE@KLBCAKFE@?$AAE?$AAo?$AAs?$AAC?$AAo?$AAm?$AAD?$AAs?$AAr?$AA?$AA@ 00444514     shotsave.obj
 0002:00004528       ??_C@_1BM@FLENHPDM@?$AAE?$AAo?$AAs?$AAC?$AAo?$AAm?$AAX?$AAo?$AAn?$AAX?$AAo?$AAf?$AAf?$AA?$AA@ 00444528     shotsave.obj
 0002:00004544       ??_C@_1CE@ONHAPIEC@?$AAS?$AAa?$AAv?$AAe?$AAA?$AAl?$AAl?$AAA?$AAl?$AAa?$AAr?$AAm?$AAS?$AAh?$AAo?$AAt?$AAs?$AA?$AA@ 00444544     shotsave.obj
 0002:00004568       ??_C@_1CE@NPGJAKKC@?$AAD?$AAd?$AAe?$AAP?$AAa?$AAr?$AAa?$AAm?$AAD?$AAe?$AAl?$AAi?$AAm?$AAi?$AAt?$AAe?$AAr?$AA?$AA@ 00444568     shotsave.obj
 0002:0000458c       ??_C@_1CA@IIDNOFMD@?$AAS?$AAh?$AAo?$AAt?$AAs?$AAa?$AAv?$AAe?$AAL?$AAo?$AAg?$AA?4?$AAt?$AAx?$AAt?$AA?$AA@ 0044458c     shotsave.obj
 0002:000045ac       ??_C@_1BG@NPAOOIGB@?$AAE?$AAo?$AAs?$AAC?$AAo?$AAm?$AAP?$AAo?$AAr?$AAt?$AA?$AA@ 004445ac     shotsave.obj
 0002:000045c4       ??_C@_1BO@GFKEDLDF@?$AAE?$AAo?$AAs?$AAM?$AAa?$AAc?$AAh?$AAi?$AAn?$AAe?$AAN?$AAa?$AAm?$AAe?$AA?$AA@ 004445c4     shotsave.obj
 0002:000045e4       ??_C@_13PNBDBPLL@?$AAA?$AA?$AA@ 004445e4     shotsave.obj
 0002:000045e8       ??_C@_13IIGBBHPI@?$AAW?$AA?$AA@ 004445e8     shotsave.obj
 0002:000045ec       ??_C@_13NIHIEAGH@?$AAG?$AA?$AA@ 004445ec     shotsave.obj
 0002:000045f0       ??_C@_1BO@POLPLGMO@?$AAE?$AAo?$AAs?$AAN?$AAe?$AAe?$AAd?$AAs?$AAS?$AAt?$AAx?$AAE?$AAt?$AAx?$AA?$AA@ 004445f0     shotsave.obj
 0002:00004610       ??_C@_1CE@HMKNHNCO@?$AAE?$AAo?$AAs?$AAO?$AAn?$AAl?$AAy?$AAI?$AAf?$AAN?$AAo?$AAA?$AAl?$AAa?$AAr?$AAm?$AAs?$AA?$AA@ 00444610     shotsave.obj
 0002:00004634       ??_C@_1BM@BEMODJOH@?$AAE?$AAo?$AAs?$AAF?$AAi?$AAx?$AAe?$AAd?$AAW?$AAi?$AAd?$AAt?$AAh?$AA?$AA@ 00444634     shotsave.obj
 0002:00004650       ??_C@_1CA@KJHKJALC@?$AAE?$AAo?$AAs?$AAP?$AAy?$AAr?$AAa?$AAm?$AAi?$AAd?$AAL?$AAi?$AAn?$AAe?$AAs?$AA?$AA@ 00444650     shotsave.obj
 0002:00004670       ??_C@_1CE@HEEHEGDC@?$AAE?$AAo?$AAs?$AAC?$AAo?$AAm?$AAD?$AAe?$AAl?$AAi?$AAm?$AAi?$AAt?$AAC?$AAh?$AAa?$AAr?$AA?$AA@ 00444670     shotsave.obj
 0002:00004694       ??_C@_1BE@KDGKOIIG@?$AAE?$AAo?$AAs?$AAC?$AAo?$AAm?$AAE?$AAo?$AAl?$AA?$AA@ 00444694     shotsave.obj
 0002:000046a8       ??_C@_1BE@BKBIIBB@?$AAs?$AAh?$AAo?$AAt?$AA_?$AAn?$AAa?$AAm?$AAe?$AA?$AA@ 004446a8     shotsave.obj
 0002:000046bc       ??_C@_1BE@NOKEKPNO@?$AAc?$AAo?$AAu?$AAn?$AAt?$AA?4?$AAt?$AAx?$AAt?$AA?$AA@ 004446bc     shotsave.obj
 0002:000046d0       ??_C@_15BIHCKBAD@?$AAs?$AAn?$AA?$AA@ 004446d0     shotsave.obj
 0002:000046d8       ??_C@_19GGNHIDOH@?$AA?4?$AAt?$AAx?$AAt?$AA?$AA@ 004446d8     shotsave.obj
 0002:000046e8       ??_C@_1GM@PBEILIAO@?$AAu?$AAp?$AAd?$AAa?$AAt?$AAe?$AA_?$AAf?$AAt?$AAi?$AAi?$AA_?$AAp?$AAa?$AAr?$AAa?$AAm?$AAe?$AAt?$AAe?$AAr?$AA_?$AAr?$AAe?$AAc?$AAo?$AAr?$AAd?$AA_?$AAw?$AAi?$AAt@ 004446e8     shotsave.obj
 0002:00004754       ??_C@_1CM@FKAOEKDH@?$AAw?$AAr?$AAi?$AAt?$AAe?$AA_?$AAf?$AAt?$AAi?$AAi?$AA_?$AAp?$AAa?$AAr?$AAa?$AAm?$AAe?$AAt?$AAe?$AAr?$AAs?$AA?$AA@ 00444754     shotsave.obj
 0002:00004780       ??_C@_19NAGHIDJN@?$AA?4?$AAc?$AAs?$AAv?$AA?$AA@ 00444780     shotsave.obj
 0002:0000478c       ??_C@_17BODHOPJC@?$AA1?$AA?4?$AA0?$AA?$AA@ 0044478c     shotsave.obj
 0002:00004794       ??_C@_17EFHJECLO@?$AAV?$AA0?$AA1?$AA?$AA@ 00444794     shotsave.obj
 0002:0000479c       ??_C@_17FHMMONFA@?$AAV?$AA0?$AA2?$AA?$AA@ 0044479c     shotsave.obj
 0002:000047a4       ??_C@_13HOIJIPNN@?$AA?5?$AA?$AA@ 004447a4     shotsave.obj
 0002:000047a8       ??_C@_1DM@FKMALDJI@?$AAB?$AAe?$AAg?$AAi?$AAn?$AA?5?$AAS?$AAh?$AAo?$AAt?$AA?5?$AAD?$AAa?$AAt?$AAa?$AA?3?$AA?5?$AAS?$AAh?$AAo?$AAt?$AA?5?$AAN?$AAu?$AAm?$AAb?$AAe?$AAr?$AA?5?$AA?$AA@ 004447a8     shotsave.obj
 0002:000047e8       ??_C@_1HA@BBLPMGNF@?$AA?9?$AA?9?$AA?9?$AA?9?$AA?9?$AA?9?$AA?9?$AA?9?$AA?9?$AA?9?$AA?9?$AA?9?$AA?9?$AA?9?$AA?9?$AA?5?$AAA?$AAt?$AA?5?$AAt?$AAh?$AAe?$AA?5?$AAS?$AAt?$AAa?$AAr?$AAt?$AA?5?$AAo?$AAf?$AA?5@ 004447e8     shotsave.obj
 0002:00004858       ??_C@_1CC@JDGBLDMP@?$AAI?$AAm?$AAp?$AAa?$AAc?$AAt?$AA?5?$AAa?$AAt?$AA?5?$AAt?$AAi?$AAm?$AAe?$AA?3?$AA?5?$AA?$AA@ 00444858     shotsave.obj
 0002:00004880       ??_C@_1HA@NPMLEMPO@?$AA?9?$AA?9?$AA?9?$AA?9?$AA?9?$AA?9?$AA?9?$AA?9?$AA?9?$AA?9?$AA?9?$AA?9?$AA?9?$AA?9?$AA?9?$AA?9?$AA?9?$AA?9?$AA?9?$AA?9?$AA?9?$AA?9?$AA?9?$AA?9?$AA?9?$AA?9?$AA?9?$AA?9?$AA?9?$AA?9?$AA?9?$AA?9@ 00444880     shotsave.obj
 0002:000048f0       ??_C@_1CC@CNFELEMD@?$AAE?$AAn?$AAd?$AA?5?$AAo?$AAf?$AA?5?$AAS?$AAh?$AAo?$AAt?$AA?5?$AAD?$AAa?$AAt?$AAa?$AA?$AA@ 004448f0     shotsave.obj
 0002:00004914       ??_C@_1CA@IEMAAPKB@?$AAP?$AAo?$AAs?$AA?1?$AAT?$AAi?$AAm?$AAe?$AA?0?$AAC?$AAo?$AAu?$AAn?$AAt?$AA?0?$AA?$AA@ 00444914     shotsave.obj
 0002:00004934       ??_C@_1CG@JCDEFIGI@?$AA?0?$AAH?$AAe?$AAx?$AA?5?$AAB?$AAi?$AAt?$AAs?$AA?0?$AAH?$AAe?$AAx?$AA?5?$AAB?$AAi?$AAt?$AAs?$AA?$AA@ 00444934     shotsave.obj
 0002:0000495c       ??_C@_15KIFHEGCN@?$AAP?$AA?0?$AA?$AA@ 0044495c     shotsave.obj
 0002:00004964       ??_C@_15DDMGAEDL@?$AAT?$AA?0?$AA?$AA@ 00444964     shotsave.obj
 0002:00004970       ??_C@_1EA@CACOENAI@?$AA?5?$AAU?$AAn?$AAa?$AAb?$AAl?$AAe?$AA?5?$AAt?$AAo?$AA?5?$AAu?$AAp?$AAd?$AAa?$AAt?$AAe?$AA?5?$AAS?$AAH?$AAO?$AAT?$AAP?$AAA?$AAR?$AAM?$AA?4?$AAC?$AAS?$AAV?$AA?5?$AA?$AA@ 00444970     shotsave.obj
 0002:000049b0       ??_C@_1FO@GECCKHLF@?$AA?5?$AAC?$AAy?$AAc?$AAl?$AAe?$AA?5?$AAS?$AAt?$AAa?$AAr?$AAt?$AA?5?$AAb?$AAe?$AAf?$AAo?$AAr?$AAe?$AA?5?$AAe?$AAx?$AAt?$AAe?$AAr?$AAn?$AAa?$AAl?$AA_?$AAp?$AAa?$AAr@ 004449b0     shotsave.obj
 0002:00004a10       ??_C@_1CA@FGLFKNEJ@?$AAu?$AAp?$AAl?$AAo?$AAa?$AAd?$AA_?$AAc?$AAo?$AAp?$AAy?$AA?4?$AAt?$AAx?$AAt?$AA?$AA@ 00444a10     upload_copy_class.obj
 0002:00004a30       ??_C@_19MOLCELM@?$AA?5?$AA?$CL?$AA?9?$AA?4?$AA?$AA@ 00444a30     v5subs:stringcl.obj
 0002:00004a3c       ??_C@_1BG@PGBNDIAE@?$AA0?$AA1?$AA2?$AA3?$AA4?$AA5?$AA6?$AA7?$AA8?$AA9?$AA?$AA@ 00444a3c     v5subs:stringcl.obj
 0002:00004a54       ??_C@_1M@HEICHGGN@?$AA?4?$AAs?$AAt?$AAb?$AAl?$AA?$AA@ 00444a54     v5subs:nameclas.obj
 0002:00004a60       ??_C@_1DG@FFFODPPN@?$AAS?$AAT?$AAA?$AAT?$AAI?$AAC?$AA_?$AAT?$AAE?$AAX?$AAT?$AA_?$AAP?$AAA?$AAR?$AAA?$AAM?$AAE?$AAT?$AAE?$AAR?$AAS?$AA?4?$AAC?$AAS?$AAV?$AA?$AA@ 00444a60     v5subs:nameclas.obj
 0002:00004aa0       ??_C@_1BI@KINCFLCD@?$AAA?$AAS?$AAE?$AAN?$AAS?$AAO?$AAR?$AA?4?$AAC?$AAS?$AAV?$AA?$AA@ 00444aa0     v5subs:asensor.obj
 0002:00004ab8       ??_C@_1BC@PGICHKIC@?$AAN?$AAo?$AAt?$AA?5?$AAU?$AAs?$AAe?$AAd?$AA?$AA@ 00444ab8     v5subs:asensor.obj
 0002:00004ad0       __real@0000000000000000    00444ad0     v5subs:asensor.obj
 0002:00004ad8       __real@4004000000000000    00444ad8     v5subs:asensor.obj
 0002:00004ae0       __real@4004020c49ba5e35    00444ae0     v5subs:asensor.obj
 0002:00004ae8       __real@4014010624dd2f1b    00444ae8     v5subs:asensor.obj
 0002:00004af0       __xmm@3ff00000000000004024000000000000 00444af0     v5subs:asensor.obj
 0002:00004b10       ??_C@_1FE@FBJEEEAL@?$AAU?$AAn?$AAa?$AAb?$AAl?$AAe?$AA?5?$AAt?$AAo?$AA?5?$AAA?$AAL?$AAL?$AAO?$AAC?$AAA?$AAT?$AAE?$AA?5?$AAD?$AAB?$AA_?$AAT?$AAA?$AAB?$AAL?$AAE?$AA?5?$AAr?$AAe?$AAc?$AAo@ 00444b10     v5subs:dbsubs.obj
 0002:00004b64       ??_C@_1CM@DAOKOCDE@?$AAd?$AAe?$AAt?$AAe?$AAr?$AAm?$AAi?$AAn?$AAe?$AA_?$AAc?$AAo?$AAl?$AAu?$AAm?$AAn?$AA_?$AAi?$AAn?$AAf?$AAo?$AA?$AA@ 00444b64     v5subs:dbsubs.obj
 0002:00004b90       ??_C@_1CO@ENKMJGPE@?$AAC?$AAa?$AAn?$AA?8?$AAt?$AA?5?$AAs?$AAe?$AAt?$AA?5?$AAf?$AAi?$AAl?$AAe?$AA?5?$AAp?$AAo?$AAi?$AAn?$AAt?$AAe?$AAr?$AA?$AA@ 00444b90     v5subs:dbsubs.obj
 0002:00004bc0       ??_C@_1CM@HDOHBAN@?$AAU?$AAn?$AAa?$AAb?$AAl?$AAe?$AA?5?$AAt?$AAo?$AA?5?$AAl?$AAo?$AAc?$AAk?$AA?5?$AAr?$AAe?$AAc?$AAo?$AAr?$AAd?$AA?$AA@ 00444bc0     v5subs:dbsubs.obj
 0002:00004bec       ??_C@_1M@LFIEEOKG@?$AA0?$AAx?$AA?$CF?$AAl?$AAX?$AA?$AA@ 00444bec     v5subs:dbsubs.obj
 0002:00004bf8       ??_C@_1BC@MEDEOAMB@?$AAU?$AAN?$AAK?$AAN?$AAO?$AAW?$AAN?$AA0?$AA?$AA@ 00444bf8     v5subs:evclass.obj
 0002:00004c0c       ??_C@_1BK@KFPBILGH@?$AAC?$AAO?$AAM?$AAP?$AAU?$AAT?$AAE?$AAR?$AA?4?$AAC?$AAS?$AAV?$AA?$AA@ 00444c0c     v5subs:computer.obj
 0002:00004c28       ??_C@_1CO@EEJENGEH@?$AAl?$AAi?$AAm?$AAi?$AAt?$AA_?$AAs?$AAw?$AAi?$AAt?$AAc?$AAh?$AA_?$AAw?$AAi?$AAr?$AAe?$AAs?$AA?4?$AAd?$AAa?$AAt?$AA?$AA@ 00444c28     v5subs:limit_switch_class.obj
 0002:00004cb8       ??_C@_1DI@HGCLPLCJ@?$AAm?$AAu?$AAl?$AAt?$AAi?$AAp?$AAa?$AAr?$AAt?$AA_?$AAr?$AAu?$AAn?$AAl?$AAi?$AAs?$AAt?$AA_?$AAs?$AAe?$AAt?$AAu?$AAp?$AA?4?$AAc?$AAs?$AAv?$AA?$AA@ 00444cb8     v5subs:multipart_runlist.obj
 0002:00004cf0       ??_C@_1DI@GGICOOAC@?$AAm?$AAu?$AAl?$AAt?$AAi?$AAp?$AAa?$AAr?$AAt?$AA_?$AAr?$AAu?$AAn?$AAl?$AAi?$AAs?$AAt?$AA_?$AAw?$AAi?$AAr?$AAe?$AAs?$AA?4?$AAc?$AAs?$AAv?$AA?$AA@ 00444cf0     v5subs:multipart_runlist.obj
 0002:00004d54       ??_C@_1BK@IOEOFHEM@?$AAM?$AAa?$AAc?$AAh?$AAi?$AAn?$AAe?$AA?5?$AAT?$AAy?$AAp?$AAe?$AA?$AA@ 00444d54     v5subs:machine.obj
 0002:00004d70       ??_C@_1CO@GGMLBMKL@?$AAF?$AAa?$AAs?$AAt?$AA?5?$AAT?$AAr?$AAa?$AAk?$AA?5?$AAB?$AAo?$AAa?$AAr?$AAd?$AA?5?$AAN?$AAu?$AAm?$AAb?$AAe?$AAr?$AA?$AA@ 00444d70     v5subs:machine.obj
 0002:00004da0       ??_C@_1DM@IJBBEHFE@?$AAM?$AAu?$AAx?$AA?5?$AAC?$AAh?$AAa?$AAn?$AAn?$AAe?$AAl?$AA?5?$AAN?$AAu?$AAm?$AAb?$AAe?$AAr?$AA?5?$AA?$CI?$AAF?$AAT?$AA1?$AA?5?$AAO?$AAn?$AAl?$AAy?$AA?$CJ?$AA?$AA@ 00444da0     v5subs:machine.obj
 0002:00004ddc       ??_C@_1CI@EHIJFNDM@?$AAI?$AAs?$AA?5?$AAS?$AAu?$AAr?$AAe?$AAT?$AAr?$AAa?$AAk?$AA?5?$AAC?$AAo?$AAn?$AAt?$AAr?$AAo?$AAl?$AA?$AA@ 00444ddc     v5subs:machine.obj
 0002:00004e04       ??_C@_1CE@GGCJKONB@?$AAC?$AAu?$AAr?$AAr?$AAe?$AAn?$AAt?$AA?5?$AAP?$AAa?$AAr?$AAt?$AA?5?$AAN?$AAa?$AAm?$AAe?$AA?$AA@ 00444e04     v5subs:machine.obj
 0002:00004e28       ??_C@_1BE@JHBLIEOJ@?$AAR?$AAo?$AAd?$AA?5?$AAP?$AAi?$AAt?$AAc?$AAh?$AA?$AA@ 00444e28     v5subs:machine.obj
 0002:00004e3c       ??_C@_1CG@ECHBBMDE@?$AAP?$AAr?$AAo?$AAf?$AAi?$AAl?$AAe?$AA?5?$AAS?$AAk?$AAi?$AAp?$AA?5?$AAC?$AAo?$AAu?$AAn?$AAt?$AA?$AA@ 00444e3c     v5subs:machine.obj
 0002:00004e64       ??_C@_1CM@FMLPHFJB@?$AAP?$AAr?$AAo?$AAf?$AAi?$AAl?$AAe?$AA?5?$AAA?$AAc?$AAq?$AAu?$AAi?$AAr?$AAe?$AA?5?$AAC?$AAo?$AAu?$AAn?$AAt?$AA?$AA@ 00444e64     v5subs:machine.obj
 0002:00004e90       ??_C@_1DC@HHOKMCFD@?$AAP?$AAr?$AAo?$AAf?$AAi?$AAl?$AAe?$AA?5?$AAT?$AAi?$AAm?$AAe?$AA?5?$AAS?$AAk?$AAi?$AAp?$AA?5?$AA?$CI?$AAS?$AAe?$AAc?$AA?4?$AA?$CJ?$AA?$AA@ 00444e90     v5subs:machine.obj
 0002:00004ec4       ??_C@_1BM@DAMONPCA@?$AAP?$AAr?$AAo?$AAf?$AAi?$AAl?$AAe?$AA?5?$AAF?$AAl?$AAa?$AAg?$AAs?$AA?$AA@ 00444ec4     v5subs:machine.obj
 0002:00004ee0       ??_C@_1CE@FAJJDNEG@?$AAP?$AAr?$AAo?$AAf?$AAi?$AAl?$AAe?$AA?5?$AAM?$AAa?$AAx?$AA?5?$AAS?$AAa?$AAv?$AAe?$AAd?$AA?$AA@ 00444ee0     v5subs:machine.obj
 0002:00004f04       ??_C@_1CC@CKKKJOKO@?$AAP?$AAa?$AAr?$AAa?$AAm?$AA?5?$AAS?$AAk?$AAi?$AAp?$AA?5?$AAC?$AAo?$AAu?$AAn?$AAt?$AA?$AA@ 00444f04     v5subs:machine.obj
 0002:00004f28       ??_C@_1CI@JMPFAHEG@?$AAP?$AAa?$AAr?$AAa?$AAm?$AA?5?$AAA?$AAc?$AAq?$AAu?$AAi?$AAr?$AAe?$AA?5?$AAC?$AAo?$AAu?$AAn?$AAt?$AA?$AA@ 00444f28     v5subs:machine.obj
 0002:00004f50       ??_C@_1CO@JOMFHDHC@?$AAP?$AAa?$AAr?$AAa?$AAm?$AA?5?$AAT?$AAi?$AAm?$AAe?$AA?5?$AAS?$AAk?$AAi?$AAp?$AA?5?$AA?$CI?$AAS?$AAe?$AAc?$AA?4?$AA?$CJ?$AA?$AA@ 00444f50     v5subs:machine.obj
 0002:00004f80       ??_C@_1BI@MEDFOHML@?$AAP?$AAa?$AAr?$AAa?$AAm?$AA?5?$AAF?$AAl?$AAa?$AAg?$AAs?$AA?$AA@ 00444f80     v5subs:machine.obj
 0002:00004f98       ??_C@_1CA@NHEOPAAD@?$AAP?$AAa?$AAr?$AAa?$AAm?$AA?5?$AAM?$AAa?$AAx?$AA?5?$AAS?$AAa?$AAv?$AAe?$AAd?$AA?$AA@ 00444f98     v5subs:machine.obj
 0002:00004fb8       ??_C@_1BM@OJNOGCJK@?$AAM?$AAo?$AAn?$AAi?$AAt?$AAo?$AAr?$AA?5?$AAF?$AAl?$AAa?$AAg?$AAs?$AA?$AA@ 00444fb8     v5subs:machine.obj
 0002:00004fd4       ??_C@_1DC@PDAOCBEF@?$AAA?$AAu?$AAt?$AAo?$AA?5?$AAS?$AAh?$AAo?$AAt?$AA?5?$AAT?$AAi?$AAm?$AAe?$AAo?$AAu?$AAt?$AA?5?$AA?$CI?$AAS?$AAe?$AAc?$AA?4?$AA?$CJ?$AA?$AA@ 00444fd4     v5subs:machine.obj
 0002:00005008       ??_C@_1DA@DFCEGLGH@?$AAD?$AAo?$AAw?$AAn?$AAt?$AAi?$AAm?$AAe?$AA?5?$AAT?$AAi?$AAm?$AAe?$AAo?$AAu?$AAt?$AA?5?$AA?$CI?$AAS?$AAe?$AAc?$AA?4?$AA?$CJ?$AA?$AA@ 00445008     v5subs:machine.obj
 0002:00005038       ??_C@_1DE@FJHGAEFH@?$AAD?$AAi?$AAf?$AAf?$AAe?$AAr?$AAe?$AAn?$AAt?$AAi?$AAa?$AAl?$AA?5?$AAC?$AAu?$AAr?$AAv?$AAe?$AA?5?$AAN?$AAu?$AAm?$AAb?$AAe?$AAr?$AA?$AA@ 00445038     v5subs:machine.obj
 0002:0000506c       ??_C@_1DI@OLEOJOJB@?$AAP?$AAo?$AAs?$AAi?$AAt?$AAi?$AAo?$AAn?$AA?5?$AAB?$AAa?$AAs?$AAe?$AA?5?$AAI?$AAm?$AAp?$AAa?$AAc?$AAt?$AA?5?$AAP?$AAo?$AAi?$AAn?$AAt?$AAs?$AA?$AA@ 0044506c     v5subs:machine.obj
 0002:000050a4       ??_C@_1DA@NNGICMAD@?$AAT?$AAi?$AAm?$AAe?$AA?5?$AAB?$AAa?$AAs?$AAe?$AA?5?$AAI?$AAm?$AAp?$AAa?$AAc?$AAt?$AA?5?$AAP?$AAo?$AAi?$AAn?$AAt?$AAs?$AA?$AA@ 004450a4     v5subs:machine.obj
 0002:000050d4       ??_C@_1DC@LMJBJMOG@?$AAP?$AAr?$AAe?$AA?5?$AAI?$AAm?$AAp?$AAa?$AAc?$AAt?$AA?5?$AAP?$AAr?$AAe?$AAs?$AAs?$AAu?$AAr?$AAe?$AA?5?$AAT?$AAy?$AAp?$AAe?$AA?$AA@ 004450d4     v5subs:machine.obj
 0002:00005108       ??_C@_1DE@JNCHNEEO@?$AAP?$AAo?$AAs?$AAt?$AA?5?$AAI?$AAm?$AAp?$AAa?$AAc?$AAt?$AA?5?$AAP?$AAr?$AAe?$AAs?$AAs?$AAu?$AAr?$AAe?$AA?5?$AAT?$AAy?$AAp?$AAe?$AA?$AA@ 00445108     v5subs:machine.obj
 0002:0000513c       ??_C@_1CA@JGPCCIDO@?$AAO?$AAp?$AAe?$AAr?$AAa?$AAt?$AAo?$AAr?$AA?5?$AAN?$AAu?$AAm?$AAb?$AAe?$AAr?$AA?$AA@ 0044513c     v5subs:machine.obj
 0002:0000515c       ??_C@_1CG@NCAEKDPL@?$AAQ?$AAu?$AAa?$AAd?$AAr?$AAa?$AAt?$AAu?$AAr?$AAe?$AA?5?$AAD?$AAi?$AAv?$AAi?$AAs?$AAo?$AAr?$AA?$AA@ 0044515c     v5subs:machine.obj
 0002:00005184       ??_C@_1DA@LDECIIID@?$AAB?$AAi?$AAn?$AAa?$AAr?$AAy?$AA?5?$AAV?$AAa?$AAl?$AAv?$AAe?$AA?5?$AAP?$AAu?$AAl?$AAs?$AAe?$AA?5?$AAT?$AAi?$AAm?$AAe?$AA?$AA@ 00445184     v5subs:machine.obj
 0002:000051b4       ??_C@_1DC@GBIHGEOD@?$AAB?$AAi?$AAn?$AAa?$AAr?$AAy?$AA?5?$AAV?$AAa?$AAl?$AAv?$AAe?$AA?5?$AAD?$AAe?$AAv?$AAe?$AAn?$AAt?$AA?5?$AAT?$AAi?$AAm?$AAe?$AA?$AA@ 004451b4     v5subs:machine.obj
 0002:000051e8       ??_C@_1DA@KKPFIDMO@?$AAB?$AAi?$AAn?$AAa?$AAr?$AAy?$AA?5?$AAV?$AAa?$AAl?$AAv?$AAe?$AA?5?$AAP?$AAu?$AAl?$AAs?$AAe?$AA?5?$AAW?$AAi?$AAr?$AAe?$AA?$AA@ 004451e8     v5subs:machine.obj
 0002:00005218       ??_C@_1DK@OEOIBJNP@?$AAV?$AAa?$AAl?$AAv?$AAe?$AA?5?$AAS?$AAe?$AAt?$AAt?$AAi?$AAn?$AAg?$AA?5?$AAa?$AAf?$AAt?$AAe?$AAr?$AA?5?$AAJ?$AAo?$AAg?$AA?5?$AAS?$AAh?$AAo?$AAt?$AA?$AA@ 00445218     v5subs:machine.obj
 0002:00005254       ??_C@_1DC@NEGFOPPH@?$AAd?$AAe?$AAf?$AAa?$AAu?$AAl?$AAt?$AA_?$AAh?$AAm?$AAi?$AA_?$AAs?$AAe?$AAt?$AAt?$AAi?$AAn?$AAg?$AAs?$AA?4?$AAc?$AAs?$AAv?$AA?$AA@ 00445254     v5subs:machine.obj
 0002:00005288       ??_C@_1BE@COHOPBAA@?$AAD?$AAS?$AAT?$AAA?$AAT?$AA?4?$AAT?$AAX?$AAT?$AA?$AA@ 00445288     v5subs:machine.obj
 0002:0000529c       ??_C@_1BK@EAEMOGJN@?$AAS?$AAE?$AAM?$AAA?$AAP?$AAH?$AAO?$AAR?$AA?4?$AAT?$AAX?$AAT?$AA?$AA@ 0044529c     v5subs:machine.obj
 0002:000052b8       ??_C@_15CJLJAKDA@?$AA?4?$AA2?$AA?$AA@ 004452b8     v5subs:machine.obj
 0002:000052c0       ??_C@_15GKHDDIOC@?$AA2?$AA7?$AA?$AA@ 004452c0     v5subs:machine.obj
 0002:000052c8       ??_C@_1CA@JEODIJDH@?$AAc?$AAo?$AAn?$AAt?$AAr?$AAo?$AAl?$AA_?$AAa?$AAl?$AAl?$AA?4?$AAt?$AAx?$AAt?$AA?$AA@ 004452c8     v5subs:machine.obj
 0002:000052e8       ??_C@_17CHOLIMHJ@?$AA1?$AA0?$AA0?$AA?$AA@ 004452e8     v5subs:machine.obj
 0002:000052f0       __real@412e848000000000    004452f0     v5subs:machine.obj
 0002:000052f8       ??_C@_1M@KAKMLIHO@?$AAA?$AAr?$AAi?$AAa?$AAl?$AA?$AA@ 004452f8     v5subs:optocontrol.obj
 0002:00005304       ??_C@_13KBPCEPBF@?$AA4?$AA?$AA@ 00445304     v5subs:optocontrol.obj
 0002:00005308       ??_C@_13IEJJBAMJ@?$AA2?$AA?$AA@ 00445308     v5subs:optocontrol.obj
 0002:0000530c       ??_C@_13DMCFHHKM@?$AA3?$AA?$AA@ 0044530c     v5subs:optocontrol.obj
 0002:00005310       ??_C@_13JGCMLPCH@?$AA1?$AA?$AA@ 00445310     v5subs:optocontrol.obj
 0002:00005314       ??_C@_19OEEGEPMG@?$AA?4?$AAT?$AAM?$AAP?$AA?$AA@ 00445314     v5subs:static_text_parameter.obj
 0002:00005320       ??_C@_1BK@PELOEGII@?$AAP?$AAA?$AAR?$AAM?$AAL?$AAI?$AAS?$AAT?$AA?4?$AAC?$AAS?$AAV?$AA?$AA@ 00445320     v5subs:param.obj
 0002:0000533c       ??_C@_1BK@ECAOEGPC@?$AAP?$AAA?$AAR?$AAM?$AAL?$AAI?$AAS?$AAT?$AA?4?$AAT?$AAX?$AAT?$AA?$AA@ 0044533c     v5subs:param.obj
 0002:00005358       ??_C@_1BI@CEAKHHAB@?$AAN?$AAO?$AAP?$AAA?$AAR?$AAA?$AAM?$AAE?$AAT?$AAE?$AAR?$AA?$AA@ 00445358     v5subs:param.obj
 0002:00005370       ??_C@_1DG@HGLMFEMC@?$AAP?$AAa?$AAr?$AAt?$AA?5?$AAS?$AAe?$AAt?$AAu?$AAp?$AA?3?$AA?5?$AAU?$AAn?$AAa?$AAb?$AAl?$AAe?$AA?5?$AAt?$AAo?$AA?5?$AAs?$AAa?$AAv?$AAe?$AA?$AA@ 00445370     v5subs:param.obj
 0002:000053a8       ??_C@_1BG@FIHCLNNM@?$AAF?$AAT?$AAC?$AAH?$AAA?$AAN?$AA?4?$AAT?$AAX?$AAT?$AA?$AA@ 004453a8     v5subs:part.obj
 0002:000053c0       ??_C@_1CI@KJJNKCHF@?$AAg?$AAo?$AAo?$AAd?$AA_?$AAs?$AAh?$AAo?$AAt?$AA_?$AAs?$AAe?$AAt?$AAu?$AAp?$AA?4?$AAc?$AAs?$AAv?$AA?$AA@ 004453c0     v5subs:part.obj
 0002:000053e8       ??_C@_1BO@EHLBDBAF@?$AAp?$AAa?$AAr?$AAt?$AA_?$AAs?$AAe?$AAt?$AAu?$AAp?$AA?4?$AAc?$AAs?$AAv?$AA?$AA@ 004453e8     v5subs:part.obj
 0002:00005408       ??_C@_1BI@OACMEBED@?$AAP?$AAS?$AAE?$AAN?$AAS?$AAO?$AAR?$AA?4?$AAT?$AAX?$AAT?$AA?$AA@ 00445408     v5subs:part.obj
 0002:00005420       ??_C@_1CA@KLEIHIOM@?$AAs?$AAh?$AAo?$AAt?$AA_?$AAe?$AAv?$AAe?$AAn?$AAt?$AAs?$AA?4?$AAc?$AAs?$AAv?$AA?$AA@ 00445420     v5subs:part.obj
 0002:00005440       __real@3fe921ff2e48e8a7    00445440     v5subs:part.obj
 0002:00005448       __real@4054000000000000    00445448     v5subs:part.obj
 0002:00005480       ??_C@_1BI@KDMFNNJN@?$AAS?$AAT?$AAP?$AAA?$AAR?$AAA?$AAM?$AA?4?$AAD?$AAA?$AAT?$AA?$AA@ 00445480     v5subs:stparam.obj
 0002:00005498       ??_C@_1BG@LPMEAEOE@?$AAS?$AAT?$AAP?$AAR?$AAE?$AAS?$AA?4?$AAD?$AAA?$AAT?$AA?$AA@ 00445498     v5subs:stpres.obj
 0002:000054b0       ??_C@_15MAHKPAGJ@?$AA2?$AA5?$AA?$AA@ 004454b0     v5subs:stpres.obj
 0002:000054b8       ??_C@_17KDKBICID@?$AA5?$AA0?$AA0?$AA?$AA@ 004454b8     v5subs:stpres.obj
 0002:000054c0       ??_C@_15OKKBDAOD@?$AA5?$AA0?$AA?$AA@ 004454c0     v5subs:stpres.obj
 0002:000054c8       ??_C@_17NCJNOPAM@?$AA0?$AA?4?$AA0?$AA?$AA@ 004454c8     v5subs:stpres.obj
 0002:000054d8       ??_C@_1CE@JLENKCOM@?$AAD?$AAd?$AAe?$AAC?$AAo?$AAn?$AAn?$AAe?$AAc?$AAt?$AA?5?$AAF?$AAa?$AAi?$AAl?$AAe?$AAd?$AA?$AA@ 004454d8     v5subs:client.obj
 0002:000054fc       ??_C@_1BM@DAJBFGHB@?$AAD?$AAd?$AAe?$AAI?$AAn?$AAi?$AAt?$AAi?$AAa?$AAl?$AAi?$AAz?$AAe?$AA?$AA@ 004454fc     v5subs:client.obj
 0002:00005518       ??_C@_1O@GCADHOOL@?$AAF?$AAa?$AAi?$AAl?$AAe?$AAd?$AA?$AA@ 00445518     v5subs:client.obj
 0002:00005528       ??_C@_1CM@JLPCGICM@?$AAD?$AAd?$AAe?$AAC?$AAr?$AAe?$AAa?$AAt?$AAe?$AAS?$AAt?$AAr?$AAi?$AAn?$AAg?$AAH?$AAa?$AAn?$AAd?$AAl?$AAe?$AA?$AA@ 00445528     v5subs:client.obj
 0002:00005554       ??_C@_1BG@DHAGCPGH@?$AAD?$AAC?$AAU?$AAR?$AAV?$AAE?$AA?4?$AAT?$AAX?$AAT?$AA?$AA@ 00445554     v5subs:dcurve.obj
 0002:00005578       __real@3f40624dd2f1a9fc    00445578     v5subs:ftoasc.obj
 0002:00005580       __real@3f747ae147ae147b    00445580     v5subs:ftoasc.obj
 0002:00005588       __real@3fa999999999999a    00445588     v5subs:ftoasc.obj
 0002:00005590       __xmm@80000000000000008000000000000000 00445590     v5subs:ftoasc.obj
 0002:000055b0       ??_C@_1BA@CIHEGHHL@?$AAL?$AAi?$AAs?$AAt?$AAB?$AAo?$AAx?$AA?$AA@ 004455b0     v5subs:winsubs.obj
 0002:000055f0       ??_C@_17MBGCMIPB@?$AAS?$AAu?$AAn?$AA?$AA@ 004455f0     v5subs:time.obj
 0002:000055f8       ??_C@_17KBOMKBF@?$AAM?$AAo?$AAn?$AA?$AA@ 004455f8     v5subs:time.obj
 0002:00005600       ??_C@_17BMKGEGOJ@?$AAT?$AAu?$AAe?$AA?$AA@ 00445600     v5subs:time.obj
 0002:00005608       ??_C@_17CJEDCEPE@?$AAW?$AAe?$AAd?$AA?$AA@ 00445608     v5subs:time.obj
 0002:00005610       ??_C@_17GOCADIIK@?$AAT?$AAh?$AAr?$AA?$AA@ 00445610     v5subs:time.obj
 0002:00005618       ??_C@_17HFOLPPLP@?$AAF?$AAr?$AAi?$AA?$AA@ 00445618     v5subs:time.obj
 0002:00005620       ??_C@_17GGIBDPIH@?$AAS?$AAa?$AAt?$AA?$AA@ 00445620     v5subs:time.obj
 0002:00005628       ??_C@_17JLFEDMMI@?$AA?$DP?$AA?$DP?$AA?$DP?$AA?$AA@ 00445628     v5subs:time.obj
 0002:00005638       ??_C@_15DIPENLJF@?$AAS?$AAU?$AA?$AA@ 00445638     v5subs:shift.obj
 0002:00005640       ??_C@_15DOIMAPIF@?$AAM?$AAO?$AA?$AA@ 00445640     v5subs:shift.obj
 0002:00005648       ??_C@_15CFPBOLCN@?$AAT?$AAU?$AA?$AA@ 00445648     v5subs:shift.obj
 0002:00005650       ??_C@_15PDHMMOBM@?$AAW?$AAE?$AA?$AA@ 00445650     v5subs:shift.obj
 0002:00005658       ??_C@_15IHICGEGP@?$AAT?$AAH?$AA?$AA@ 00445658     v5subs:shift.obj
 0002:00005660       ??_C@_15PGDIHAAE@?$AAF?$AAR?$AA?$AA@ 00445660     v5subs:shift.obj
 0002:00005668       ??_C@_15OHIPBLFN@?$AAS?$AAA?$AA?$AA@ 00445668     v5subs:shift.obj
 0002:00005670       ??_C@_1BE@HGCIAFMH@?$AAS?$AAH?$AAI?$AAF?$AAT?$AA?4?$AAT?$AAX?$AAT?$AA?$AA@ 00445670     v5subs:shift.obj
 0002:00005684       ??_C@_1BE@PDDDFNJ@?$AAU?$AAN?$AAI?$AAT?$AAS?$AA?4?$AAT?$AAX?$AAT?$AA?$AA@ 00445684     v5subs:units.obj
 0002:00005698       ??_C@_17MDKHMACK@?$AAj?$AAa?$AAn?$AA?$AA@ 00445698     v5subs:timeclas.obj
 0002:000056a0       ??_C@_17EFEPCIML@?$AAf?$AAe?$AAb?$AA?$AA@ 004456a0     v5subs:timeclas.obj
 0002:000056a8       ??_C@_17NDKNCBBE@?$AAm?$AAa?$AAr?$AA?$AA@ 004456a8     v5subs:timeclas.obj
 0002:000056b0       ??_C@_17EMIIOFGF@?$AAa?$AAp?$AAr?$AA?$AA@ 004456b0     v5subs:timeclas.obj
 0002:000056b8       ??_C@_17EKMKGBF@?$AAm?$AAa?$AAy?$AA?$AA@ 004456b8     v5subs:timeclas.obj
 0002:000056c0       ??_C@_17FLOAIAKH@?$AAj?$AAu?$AAn?$AA?$AA@ 004456c0     v5subs:timeclas.obj
 0002:000056c8       ??_C@_17PBOJEICM@?$AAj?$AAu?$AAl?$AA?$AA@ 004456c8     v5subs:timeclas.obj
 0002:000056d0       ??_C@_17HLICNDHL@?$AAa?$AAu?$AAg?$AA?$AA@ 004456d0     v5subs:timeclas.obj
 0002:000056d8       ??_C@_17ILAEIIJA@?$AAs?$AAe?$AAp?$AA?$AA@ 004456d8     v5subs:timeclas.obj
 0002:000056e0       ??_C@_17PJCLNILO@?$AAo?$AAc?$AAt?$AA?$AA@ 004456e0     v5subs:timeclas.obj
 0002:000056e8       ??_C@_17OIEKNANA@?$AAn?$AAo?$AAv?$AA?$AA@ 004456e8     v5subs:timeclas.obj
 0002:000056f0       ??_C@_17LPNGEIND@?$AAd?$AAe?$AAc?$AA?$AA@ 004456f0     v5subs:timeclas.obj
 0002:000056f8       ??_C@_1BA@MFCAPLMI@?$AAS?$AAu?$AAb?$AAM?$AAe?$AAn?$AAu?$AA?$AA@ 004456f8     v5subs:menuctrl.obj
 0002:00005708       ??_C@_1BI@BCCAMBPE@?$AAC?$AAO?$AAN?$AAT?$AAR?$AAO?$AAL?$AA?4?$AAT?$AAM?$AAP?$AA?$AA@ 00445708     v5subs:ftiiclas.obj
 0002:00005724       ??_7FTII_ARRAY_DATA@@6B@   00445724     v5subs:ftii_shot_data.obj
 0002:0000572c       ??_7FTII_PROFILE@@6B@      0044572c     v5subs:ftii_shot_data.obj
 0002:00005730       __real@4000000000000000    00445730     v5subs:ftii_shot_data.obj
 0002:00005740       ??_C@_15BAGFGJNL@?$AA0?$AA2?$AA?$AA@ 00445740     v5subs:dstat.obj
 0002:00005748       ??_C@_1EA@BNFAFGNP@?$AAE?$AAX?$AAT?$AAE?$AAR?$AAN?$AAA?$AAL?$AA_?$AAP?$AAA?$AAR?$AAA?$AAM?$AAE?$AAT?$AAE?$AAR?$AA_?$AAS?$AAE?$AAT?$AAT?$AAI?$AAN?$AAG?$AAS?$AA?4?$AAC?$AAS?$AAV?$AA?$AA@ 00445748     v5subs:external_parameter.obj
 0002:00005788       ??_C@_1BE@PELFGBHM@?$AAF?$AAi?$AAl?$AAe?$AA?5?$AAN?$AAa?$AAm?$AAe?$AA?$AA@ 00445788     v5subs:external_parameter.obj
 0002:0000579c       ??_C@_1O@PFBIKACK@?$AAE?$AAn?$AAa?$AAb?$AAl?$AAe?$AA?$AA@ 0044579c     v5subs:external_parameter.obj
 0002:000057ac       ??_C@_1BK@MBNPGOAF@?$AAF?$AAT?$AAA?$AAN?$AAA?$AAL?$AAO?$AAG?$AA?4?$AAT?$AAX?$AAT?$AA?$AA@ 004457ac     v5subs:ftanalog.obj
 0002:000057c8       ??_C@_1BK@HHGPGOHP@?$AAF?$AAT?$AAA?$AAN?$AAA?$AAL?$AAO?$AAG?$AA?4?$AAC?$AAS?$AAV?$AA?$AA@ 004457c8     v5subs:ftanalog.obj
 0002:000057e4       ??_C@_17HDJNGKHG@?$AAM?$AAS?$AAL?$AA?$AA@ 004457e4     v5subs:ftanalog.obj
 0002:000057ec       ??_C@_1BG@BKOMMCMN@?$AAF?$AAT?$AAC?$AAA?$AAL?$AAC?$AA?4?$AAC?$AAS?$AAV?$AA?$AA@ 004457ec     v5subs:ftcalc.obj
 0002:00005808       __real@400921f9f01b866e    00445808     v5subs:ftcalc.obj
 0002:00005810       ??_C@_1BI@HLBOKLFO@?$AAR?$AAU?$AAN?$AAL?$AAI?$AAS?$AAT?$AA?4?$AAC?$AAS?$AAV?$AA?$AA@ 00445810     v5subs:runlist.obj
 0002:00005828       ??_C@_1BA@BHDJAPNN@?$AAP?$AAa?$AAt?$AAt?$AAe?$AAr?$AAn?$AA?$AA@ 00445828     v5subs:shot_name.obj
 0002:00005838       ??_C@_1BK@IOJPDJIO@?$AAF?$AAi?$AAe?$AAl?$AAd?$AA?5?$AAL?$AAe?$AAn?$AAg?$AAt?$AAh?$AA?$AA@ 00445838     v5subs:shot_name.obj
 0002:00005854       ??_C@_19NHABCBNP@?$AAP?$AAa?$AAt?$AAh?$AA?$AA@ 00445854     v5subs:shot_name.obj
 0002:00005860       ??_C@_13LPLIHJO@?$AA6?$AA?$AA@ 00445860     v5subs:shot_name.obj
 0002:00005864       ??_C@_19HLHFODGE@?$AA?$HL?$AAs?$AA6?$AA?$HN?$AA?$AA@ 00445864     v5subs:shot_name.obj
 0002:00005870       ??_C@_11LOCGONAA@?$AA?$AA@ 00445870     v5subs:shot_name.obj
 0002:00005874       ??_C@_1BA@MGKEIBAA@?$AAC?$AAo?$AAm?$AAm?$AAa?$AAn?$AAd?$AA?$AA@ 00445874     v5subs:shot_name.obj
 0002:00005884       ??_C@_13KFHAAPON@?$AAN?$AA?$AA@ 00445884     v5subs:shot_name.obj
 0002:0000594c       ??_C@_1DI@FNJFAIPC@?$AAE?$AAX?$AAT?$AAE?$AAR?$AAN?$AAA?$AAL?$AA_?$AAS?$AAH?$AAO?$AAT?$AA_?$AAN?$AAA?$AAM?$AAE?$AA_?$AAF?$AAI?$AAL?$AAE?$AA?4?$AAC?$AAS?$AAV?$AA?$AA@ 0044594c     v5subs:shot_name.obj
 0002:00005984       ??_C@_1BM@CGDNLNFE@?$AAS?$AAH?$AAO?$AAT?$AA_?$AAN?$AAA?$AAM?$AAE?$AA?4?$AAC?$AAS?$AAV?$AA?$AA@ 00445984     v5subs:shot_name.obj
 0002:000059a0       ??_C@_19KLMLHLJG@?$AAN?$AAo?$AAn?$AAe?$AA?$AA@ 004459a0     v5subs:shot_name.obj
 0002:000059ac       ??_C@_1BC@OMJOLAJH@?$AAN?$AAO?$AAT?$AA?9?$AAU?$AAS?$AAE?$AAD?$AA?$AA@ 004459ac     v5subs:shot_name.obj
 0002:000059c0       ??_C@_1BI@LHPFEHJD@?$AAS?$AAT?$AAD?$AAD?$AAO?$AAW?$AAN?$AA?4?$AAT?$AAX?$AAT?$AA?$AA@ 004459c0     v5subs:stddown.obj
 0002:000059d8       ??_C@_1BI@FCNNEMDH@?$AAD?$AAO?$AAW?$AAN?$AAC?$AAA?$AAT?$AA?4?$AAT?$AAX?$AAT?$AA?$AA@ 004459d8     v5subs:downsubs.obj
 0002:000059f0       ??_C@_1BK@OPGLOFCN@?$AAD?$AAO?$AAW?$AAN?$AAS?$AAC?$AAA?$AAT?$AA?4?$AAT?$AAX?$AAT?$AA?$AA@ 004459f0     v5subs:downsubs.obj
 0002:00005a0c       ??_C@_1BM@OBHKLCDF@?$AAD?$AAo?$AAw?$AAn?$AAs?$AAc?$AAa?$AAt?$AAc?$AA?4?$AAt?$AAx?$AAt?$AA?$AA@ 00445a0c     v5subs:downsubs.obj
 0002:00005a38       __real@3eb0c6f7a0b5ed8d    00445a38     v5subs:zero.obj
 0002:00005a40       __real@3f1a36e2eb1c432d    00445a40     v5subs:zero.obj
 0002:00005a48       __real@beb0c6f7a0b5ed8d    00445a48     v5subs:zero.obj
 0002:00005a50       __real@bf1a36e2eb1c432d    00445a50     v5subs:zero.obj
 0002:00005a58       ??_C@_1BK@KFOIBPIC@?$AAT?$AAE?$AAM?$AAP?$AAG?$AAL?$AAS?$AAT?$AA?4?$AAT?$AAX?$AAT?$AA?$AA@ 00445a58     v5subs:dbupsize.obj
 0002:00005a74       ??_C@_1CC@LIKBEOFH@?$AAE?$AAf?$AAf?$AAP?$AAe?$AAa?$AAk?$AAS?$AAk?$AAi?$AAp?$AAC?$AAo?$AAu?$AAn?$AAt?$AA?$AA@ 00445a74     v5subs:ftii_parameters.obj
 0002:00005a98       ??_C@_1BO@NDLMALJO@?$AAL?$AAa?$AAs?$AAt?$AA?5?$AAS?$AAh?$AAo?$AAt?$AA?5?$AAN?$AAa?$AAm?$AAe?$AA?$AA@ 00445a98     v5subs:plookup.obj
 0002:00005ab8       ??_C@_1CC@JKLEDCMI@?$AAL?$AAa?$AAs?$AAt?$AA?5?$AAS?$AAh?$AAo?$AAt?$AA?5?$AAN?$AAu?$AAm?$AAb?$AAe?$AAr?$AA?$AA@ 00445ab8     v5subs:plookup.obj
 0002:00005adc       ??_C@_19LCONIJA@?$AAD?$AAa?$AAt?$AAe?$AA?$AA@ 00445adc     v5subs:plookup.obj
 0002:00005ae8       ??_C@_19NLLMBBJO@?$AAT?$AAi?$AAm?$AAe?$AA?$AA@ 00445ae8     v5subs:plookup.obj
 0002:00005af4       ??_C@_1BM@NGDIIBBD@?$AAU?$AAp?$AAd?$AAa?$AAt?$AAe?$AA?5?$AAS?$AAt?$AAa?$AAt?$AAu?$AAs?$AA?$AA@ 00445af4     v5subs:plookup.obj
 0002:00005b10       ??_C@_1BI@PLENEINP@?$AAp?$AAl?$AAo?$AAo?$AAk?$AAu?$AAp?$AA?4?$AAc?$AAs?$AAv?$AA?$AA@ 00445b10     v5subs:plookup.obj
 0002:00005b28       ??_C@_1BO@DPOKDGKA@?$AAP?$AAu?$AAr?$AAg?$AAe?$AA?5?$AAO?$AAn?$AA?5?$AAR?$AAe?$AAs?$AAe?$AAt?$AA?$AA@ 00445b28     v5subs:shot_name_reset.obj
 0002:00005b48       ??_C@_1M@BIKMDNBF@?$AA0?$AA0?$AA?3?$AA0?$AA0?$AA?$AA@ 00445b48     v5subs:shot_name_reset.obj
 0002:00005b54       ??_C@_1CI@IMDALGJO@?$AAS?$AAH?$AAO?$AAT?$AA_?$AAN?$AAA?$AAM?$AAE?$AA_?$AAR?$AAE?$AAS?$AAE?$AAT?$AA?4?$AAC?$AAS?$AAV?$AA?$AA@ 00445b54     v5subs:shot_name_reset.obj
 0002:00005b84       ??_C@_15GJBMHDEE@?$AAd?$AAd?$AA?$AA@ 00445b84     v5subs:dynamic_file_name.obj
 0002:00005b8c       ??_C@_17KMBFKGKG@?$AAm?$AAm?$AAm?$AA?$AA@ 00445b8c     v5subs:dynamic_file_name.obj
 0002:00005b94       ??_C@_15DDBLGNAG@?$AAm?$AAm?$AA?$AA@ 00445b94     v5subs:dynamic_file_name.obj
 0002:00005b9c       ??_C@_15FEAIAMIH@?$AAh?$AAh?$AA?$AA@ 00445b9c     v5subs:dynamic_file_name.obj
 0002:00005ba4       ??_C@_15LMHJPKFB@?$AAm?$AAi?$AA?$AA@ 00445ba4     v5subs:dynamic_file_name.obj
 0002:00005bac       ??_C@_13BHPHAPDN@?$AAm?$AA?$AA@ 00445bac     v5subs:dynamic_file_name.obj
 0002:00005bb0       ??_C@_13LFIEIAHP@?$AAp?$AA?$AA@ 00445bb0     v5subs:dynamic_file_name.obj
 0002:00005bb4       ??_C@_13PHCIHIAO@?$AAc?$AA?$AA@ 00445bb4     v5subs:dynamic_file_name.obj
 0002:00005bb8       ??_C@_19JPCMAAHP@?$AAy?$AAy?$AAy?$AAy?$AA?$AA@ 00445bb8     v5subs:dynamic_file_name.obj
 0002:00005bc4       ??_C@_15HECHONED@?$AAy?$AAy?$AA?$AA@ 00445bc4     v5subs:dynamic_file_name.obj
 0002:00005bcc       ??_C@_13KHDBCPJB@?$AAs?$AA?$AA@ 00445bcc     v5subs:dynamic_file_name.obj
 0002:00005bd0       ??_C@_15BDFJADND@?$AA?$DP?$AA?$DP?$AA?$AA@ 00445bd0     v5subs:dynamic_file_name.obj
 0002:00005bd8       ??_C@_1BG@OPKOGDAO@?$AAM?$AAO?$AAN?$AAA?$AAL?$AAL?$AA?4?$AAI?$AAN?$AAI?$AA?$AA@ 00445bd8     v5subs:write_shotparm_log.obj
 0002:00005bf0       ??_C@_1BK@HEDDEFIC@?$AAO?$AAP?$AAE?$AAR?$AAA?$AAT?$AAO?$AAR?$AA?4?$AAT?$AAX?$AAT?$AA?$AA@ 00445bf0     v5subs:workclas.obj
 0002:00005c0c       ??_C@_1M@ILHOPKA@?$AAE?$AAr?$AAr?$AAo?$AAr?$AA?$AA@ 00445c0c     v5subs:error_ms.obj
 0002:00005c18       ??_C@_1BG@JPIOGIHO@?$AAV?$AAi?$AAs?$AAi?$AAE?$AAr?$AAr?$AAo?$AAr?$AAs?$AA?$AA@ 00445c18     v5subs:error_ms.obj
 0002:00005c30       ??_C@_13BJEOCIHA@?$AA5?$AA?$AA@ 00445c30     v5subs:wire_class.obj
 0002:00005c34       ??_C@_13LDEHOAPL@?$AA7?$AA?$AA@ 00445c34     v5subs:wire_class.obj
 0002:00005c38       ??_C@_13OLCEPAKN@?$AA8?$AA?$AA@ 00445c38     v5subs:wire_class.obj
 0002:00005c3c       ??_C@_13FDJIJHMI@?$AA9?$AA?$AA@ 00445c3c     v5subs:wire_class.obj
 0002:00005c40       ??_C@_15HBDAHCPF@?$AA1?$AA0?$AA?$AA@ 00445c40     v5subs:wire_class.obj
 0002:00005c48       ??_C@_15NLDJLKHO@?$AA1?$AA2?$AA?$AA@ 00445c48     v5subs:wire_class.obj
 0002:00005c50       ??_C@_15GDIFNNBL@?$AA1?$AA3?$AA?$AA@ 00445c50     v5subs:wire_class.obj
 0002:00005c58       ??_C@_15POFCOFKC@?$AA1?$AA4?$AA?$AA@ 00445c58     v5subs:wire_class.obj
 0002:00005c60       ??_C@_15EGOOICMH@?$AA1?$AA5?$AA?$AA@ 00445c60     v5subs:wire_class.obj
 0002:00005c68       ??_C@_15FEFLCNCJ@?$AA1?$AA6?$AA?$AA@ 00445c68     v5subs:wire_class.obj
 0002:00005c70       ??_C@_15OMOHEKEM@?$AA1?$AA7?$AA?$AA@ 00445c70     v5subs:wire_class.obj
 0002:00005c78       ??_C@_17CHEEDONC@?$AA6?$AA1?$AAB?$AA?$AA@ 00445c78     v5subs:wire_class.obj
 0002:00005c80       ??_C@_17MLBHLMLP@?$AA6?$AA9?$AAB?$AA?$AA@ 00445c80     v5subs:wire_class.obj
 0002:00005c88       ??_C@_15LEIEFKBK@?$AA1?$AA8?$AA?$AA@ 00445c88     v5subs:wire_class.obj
 0002:00005c90       ??_C@_17DFPBJBDM@?$AA6?$AA1?$AAA?$AA?$AA@ 00445c90     v5subs:wire_class.obj
 0002:00005c98       ??_C@_17NJKCBDFB@?$AA6?$AA9?$AAA?$AA?$AA@ 00445c98     v5subs:wire_class.obj
 0002:00005ca0       ??_C@_15MDIDNHP@?$AA1?$AA9?$AA?$AA@ 00445ca0     v5subs:wire_class.obj
 0002:00005ca8       ??_C@_17OMBIONHH@?$AA6?$AA0?$AAB?$AA?$AA@ 00445ca8     v5subs:wire_class.obj
 0002:00005cb0       ??_C@_17ELGPBK@?$AA6?$AA8?$AAB?$AA?$AA@ 00445cb0     v5subs:wire_class.obj
 0002:00005cb8       ??_C@_15PHKEAAFL@?$AA2?$AA0?$AA?$AA@ 00445cb8     v5subs:wire_class.obj
 0002:00005cc0       ??_C@_17POKNECJJ@?$AA6?$AA0?$AAA?$AA?$AA@ 00445cc0     v5subs:wire_class.obj
 0002:00005cc8       ??_C@_17BCPOMAPE@?$AA6?$AA8?$AAA?$AA?$AA@ 00445cc8     v5subs:wire_class.obj
 0002:00005cd0       ??_C@_15EPBIGHDO@?$AA2?$AA1?$AA?$AA@ 00445cd0     v5subs:wire_class.obj
 0002:00005cd8       ??_C@_17EFJILLFM@?$AA5?$AA9?$AAB?$AA?$AA@ 00445cd8     v5subs:wire_class.obj
 0002:00005ce0       ??_C@_17PBBNNNMP@?$AA6?$AA7?$AAB?$AA?$AA@ 00445ce0     v5subs:wire_class.obj
 0002:00005ce8       ??_C@_15FNKNMINA@?$AA2?$AA2?$AA?$AA@ 00445ce8     v5subs:wire_class.obj
 0002:00005cf0       ??_C@_17FHCNBELC@?$AA5?$AA9?$AAA?$AA?$AA@ 00445cf0     v5subs:wire_class.obj
 0002:00005cf8       ??_C@_17ODKIHCCB@?$AA6?$AA7?$AAA?$AA?$AA@ 00445cf8     v5subs:wire_class.obj
 0002:00005d00       ??_C@_15OFBBKPLF@?$AA2?$AA3?$AA?$AA@ 00445d00     v5subs:wire_class.obj
 0002:00005d08       ??_C@_17IOMEGIPJ@?$AA5?$AA8?$AAB?$AA?$AA@ 00445d08     v5subs:wire_class.obj
 0002:00005d10       ??_C@_17DKEBAOGK@?$AA6?$AA6?$AAB?$AA?$AA@ 00445d10     v5subs:wire_class.obj
 0002:00005d18       ??_C@_15HIMGJHAM@?$AA2?$AA4?$AA?$AA@ 00445d18     v5subs:wire_class.obj
 0002:00005d20       ??_C@_17JMHBMHBH@?$AA5?$AA8?$AAA?$AA?$AA@ 00445d20     v5subs:wire_class.obj
 0002:00005d28       ??_C@_17CIPEKBIE@?$AA6?$AA6?$AAA?$AA?$AA@ 00445d28     v5subs:wire_class.obj
 0002:00005d30       ??_C@_17HPJCNKCM@?$AA5?$AA7?$AAB?$AA?$AA@ 00445d30     v5subs:wire_class.obj
 0002:00005d38       ??_C@_17LMNFHMME@?$AA6?$AA5?$AAB?$AA?$AA@ 00445d38     v5subs:wire_class.obj
 0002:00005d40       ??_C@_15NCMPFPIH@?$AA2?$AA6?$AA?$AA@ 00445d40     v5subs:wire_class.obj
 0002:00005d48       ??_C@_17GNCHHFMC@?$AA5?$AA7?$AAA?$AA?$AA@ 00445d48     v5subs:wire_class.obj
 0002:00005d50       ??_C@_17KOGANDCK@?$AA6?$AA5?$AAA?$AA?$AA@ 00445d50     v5subs:wire_class.obj
 0002:00005d58       ??_C@_17LEMOAJIJ@?$AA5?$AA6?$AAB?$AA?$AA@ 00445d58     v5subs:wire_class.obj
 0002:00005d60       ??_C@_17HHIJKPGB@?$AA6?$AA4?$AAB?$AA?$AA@ 00445d60     v5subs:wire_class.obj
 0002:00005d68       ??_C@_15DCBACILE@?$AA2?$AA8?$AA?$AA@ 00445d68     v5subs:wire_class.obj
 0002:00005d70       ??_C@_17KGHLKGGH@?$AA5?$AA6?$AAA?$AA?$AA@ 00445d70     v5subs:wire_class.obj
 0002:00005d78       ??_C@_17GFDMAAIP@?$AA6?$AA4?$AAA?$AA?$AA@ 00445d78     v5subs:wire_class.obj
 0002:00005d80       ??_C@_15IKKMEPNB@?$AA2?$AA9?$AA?$AA@ 00445d80     v5subs:wire_class.obj
 0002:00005d88       ??_C@_17DCFKHLCH@?$AA5?$AA5?$AAB?$AA?$AA@ 00445d88     v5subs:wire_class.obj
 0002:00005d90       ??_C@_17GKIMJPNJ@?$AA6?$AA3?$AAB?$AA?$AA@ 00445d90     v5subs:wire_class.obj
 0002:00005d98       ??_C@_15DMPINDPO@?$AA3?$AA0?$AA?$AA@ 00445d98     v5subs:wire_class.obj
 0002:00005da0       ??_C@_17CAOPNEMJ@?$AA5?$AA5?$AAA?$AA?$AA@ 00445da0     v5subs:wire_class.obj
 0002:00005da8       ??_C@_17HIDJDADH@?$AA6?$AA3?$AAA?$AA?$AA@ 00445da8     v5subs:wire_class.obj
 0002:00005db0       ??_C@_15IEEELEJL@?$AA3?$AA1?$AA?$AA@ 00445db0     v5subs:wire_class.obj
 0002:00005db8       ??_C@_17PJAGKIIC@?$AA5?$AA4?$AAB?$AA?$AA@ 00445db8     v5subs:wire_class.obj
 0002:00005dc0       ??_C@_17KBNAEMHM@?$AA6?$AA2?$AAB?$AA?$AA@ 00445dc0     v5subs:wire_class.obj
 0002:00005dc8       ??_C@_15JGPBBLHF@?$AA3?$AA2?$AA?$AA@ 00445dc8     v5subs:wire_class.obj
 0002:00005dd0       ??_C@_17OLLDAHGM@?$AA5?$AA4?$AAA?$AA?$AA@ 00445dd0     v5subs:wire_class.obj
 0002:00005dd8       ??_C@_17LDGFODJC@?$AA6?$AA2?$AAA?$AA?$AA@ 00445dd8     v5subs:wire_class.obj
 0002:00005de4       ??_7bad_alloc@std@@6B@     00445de4     LIBCMT:new.obj
 0002:00005dec       ??_C@_0P@GHFPNOJB@bad?5allocation?$AA@ 00445dec     LIBCMT:new.obj
 0002:00005e00       ??_7type_info@@6B@         00445e00     LIBCMT:typinfo.obj
 0002:00005e04       __FPinit                   00445e04     LIBCMT:fpinit.obj
 0002:00005f3c       ??_7exception@std@@6B@     00445f3c     LIBCMT:stdexcpt.obj
 0002:00005f44       ??_C@_0BC@EOODALEL@Unknown?5exception?$AA@ 00445f44     LIBCMT:stdexcpt.obj
 0002:00005f78       ??_C@_1BI@BGOHAHKC@?$AAm?$AAs?$AAc?$AAo?$AAr?$AAe?$AAe?$AA?4?$AAd?$AAl?$AAl?$AA?$AA@ 00445f78     LIBCMT:crt0dat.obj
 0002:00005f90       ??_C@_0P@MIGLKIOC@CorExitProcess?$AA@ 00445f90     LIBCMT:crt0dat.obj
 0002:00005fa0       ??_C@_05KLBDPFGC@e?$CL000?$AA@ 00445fa0     LIBCMT:cvt.obj
 0002:00005fa8       __XcptActTab               00445fa8     LIBCMT:winxfltr.obj
 0002:00006038       __XcptActTabCount          00446038     LIBCMT:winxfltr.obj
 0002:0000603c       __XcptActTabSize           0044603c     LIBCMT:winxfltr.obj
 0002:00006040       __First_FPE_Indx           00446040     LIBCMT:winxfltr.obj
 0002:00006044       __Num_FPE                  00446044     LIBCMT:winxfltr.obj
 0002:00006048       ??_C@_1BK@MGMFAEKH@?$AAk?$AAe?$AAr?$AAn?$AAe?$AAl?$AA3?$AA2?$AA?4?$AAd?$AAl?$AAl?$AA?$AA@ 00446048     LIBCMT:winapisupp.obj
 0002:00006064       ??_C@_08KNHFBNJ@FlsAlloc?$AA@ 00446064     LIBCMT:winapisupp.obj
 0002:00006070       ??_C@_07PEJMOBNF@FlsFree?$AA@ 00446070     LIBCMT:winapisupp.obj
 0002:00006078       ??_C@_0M@GDNOONDI@FlsGetValue?$AA@ 00446078     LIBCMT:winapisupp.obj
 0002:00006084       ??_C@_0M@JCPCPOEF@FlsSetValue?$AA@ 00446084     LIBCMT:winapisupp.obj
 0002:00006090       ??_C@_0BM@HCFOFFN@InitializeCriticalSectionEx?$AA@ 00446090     LIBCMT:winapisupp.obj
 0002:000060ac       ??_C@_0P@DLHPPCNH@CreateEventExW?$AA@ 004460ac     LIBCMT:winapisupp.obj
 0002:000060bc       ??_C@_0BD@KIEEOEEH@CreateSemaphoreExW?$AA@ 004460bc     LIBCMT:winapisupp.obj
 0002:000060d0       ??_C@_0BI@BKLFFAPO@SetThreadStackGuarantee?$AA@ 004460d0     LIBCMT:winapisupp.obj
 0002:000060e8       ??_C@_0BG@OGFAJCKC@CreateThreadpoolTimer?$AA@ 004460e8     LIBCMT:winapisupp.obj
 0002:00006100       ??_C@_0BD@LPLEMMDI@SetThreadpoolTimer?$AA@ 00446100     LIBCMT:winapisupp.obj
 0002:00006114       ??_C@_0CA@FMNJENH@WaitForThreadpoolTimerCallbacks?$AA@ 00446114     LIBCMT:winapisupp.obj
 0002:00006134       ??_C@_0BF@DCFCCNOC@CloseThreadpoolTimer?$AA@ 00446134     LIBCMT:winapisupp.obj
 0002:0000614c       ??_C@_0BF@FLABGKKM@CreateThreadpoolWait?$AA@ 0044614c     LIBCMT:winapisupp.obj
 0002:00006164       ??_C@_0BC@MGCOHNA@SetThreadpoolWait?$AA@ 00446164     LIBCMT:winapisupp.obj
 0002:00006178       ??_C@_0BE@OCIOMIMP@CloseThreadpoolWait?$AA@ 00446178     LIBCMT:winapisupp.obj
 0002:0000618c       ??_C@_0BJ@LKGHFHBO@FlushProcessWriteBuffers?$AA@ 0044618c     LIBCMT:winapisupp.obj
 0002:000061a8       ??_C@_0BP@KALKKPMO@FreeLibraryWhenCallbackReturns?$AA@ 004461a8     LIBCMT:winapisupp.obj
 0002:000061c8       ??_C@_0BK@DFNBACLA@GetCurrentProcessorNumber?$AA@ 004461c8     LIBCMT:winapisupp.obj
 0002:000061e4       ??_C@_0BP@KHGALBC@GetLogicalProcessorInformation?$AA@ 004461e4     LIBCMT:winapisupp.obj
 0002:00006204       ??_C@_0BE@FKKLLFLM@CreateSymbolicLinkW?$AA@ 00446204     LIBCMT:winapisupp.obj
 0002:00006218       ??_C@_0BJ@OHNKDLIJ@SetDefaultDllDirectories?$AA@ 00446218     LIBCMT:winapisupp.obj
 0002:00006234       ??_C@_0BE@LJANKFHF@EnumSystemLocalesEx?$AA@ 00446234     LIBCMT:winapisupp.obj
 0002:00006248       ??_C@_0BA@IHGNDAEB@CompareStringEx?$AA@ 00446248     LIBCMT:winapisupp.obj
 0002:00006258       ??_C@_0BA@EPCJIIPD@GetDateFormatEx?$AA@ 00446258     LIBCMT:winapisupp.obj
 0002:00006268       ??_C@_0BA@ONOKGCMP@GetLocaleInfoEx?$AA@ 00446268     LIBCMT:winapisupp.obj
 0002:00006278       ??_C@_0BA@CIJJKCJJ@GetTimeFormatEx?$AA@ 00446278     LIBCMT:winapisupp.obj
 0002:00006288       ??_C@_0BJ@PBCCBIPI@GetUserDefaultLocaleName?$AA@ 00446288     LIBCMT:winapisupp.obj
 0002:000062a4       ??_C@_0BC@CELBKLLA@IsValidLocaleName?$AA@ 004462a4     LIBCMT:winapisupp.obj
 0002:000062b8       ??_C@_0O@KKBNKAPF@LCMapStringEx?$AA@ 004462b8     LIBCMT:winapisupp.obj
 0002:000062c8       ??_C@_0BE@JOGNEJCI@GetCurrentPackageId?$AA@ 004462c8     LIBCMT:winapisupp.obj
 0002:000062dc       ??_C@_0P@CDHHOHKP@GetTickCount64?$AA@ 004462dc     LIBCMT:winapisupp.obj
 0002:000062ec       ??_C@_0BO@KPCLFDJJ@GetFileInformationByHandleExW?$AA@ 004462ec     LIBCMT:winapisupp.obj
 0002:0000630c       ??_C@_0BM@MHIDLABK@SetFileInformationByHandleW?$AA@ 0044630c     LIBCMT:winapisupp.obj
 0002:000063e0       ??_C@_1FK@PGACCAFB@?$AAR?$AA6?$AA0?$AA0?$AA2?$AA?$AN?$AA?6?$AA?9?$AA?5?$AAf?$AAl?$AAo?$AAa?$AAt?$AAi?$AAn?$AAg?$AA?5?$AAp?$AAo?$AAi?$AAn?$AAt?$AA?5?$AAs?$AAu?$AAp?$AAp?$AAo?$AAr?$AAt?$AA?5@ 004463e0     LIBCMT:crt0msg.obj
 0002:00006440       ??_C@_1FE@LLNEDJMD@?$AAR?$AA6?$AA0?$AA0?$AA8?$AA?$AN?$AA?6?$AA?9?$AA?5?$AAn?$AAo?$AAt?$AA?5?$AAe?$AAn?$AAo?$AAu?$AAg?$AAh?$AA?5?$AAs?$AAp?$AAa?$AAc?$AAe?$AA?5?$AAf?$AAo?$AAr?$AA?5?$AAa?$AAr@ 00446440     LIBCMT:crt0msg.obj
 0002:00006498       ??_C@_1FI@HONFMGBI@?$AAR?$AA6?$AA0?$AA0?$AA9?$AA?$AN?$AA?6?$AA?9?$AA?5?$AAn?$AAo?$AAt?$AA?5?$AAe?$AAn?$AAo?$AAu?$AAg?$AAh?$AA?5?$AAs?$AAp?$AAa?$AAc?$AAe?$AA?5?$AAf?$AAo?$AAr?$AA?5?$AAe?$AAn@ 00446498     LIBCMT:crt0msg.obj
 0002:000064f0       ??_C@_1EG@BEHAGFJD@?$AAR?$AA6?$AA0?$AA1?$AA0?$AA?$AN?$AA?6?$AA?9?$AA?5?$AAa?$AAb?$AAo?$AAr?$AAt?$AA?$CI?$AA?$CJ?$AA?5?$AAh?$AAa?$AAs?$AA?5?$AAb?$AAe?$AAe?$AAn?$AA?5?$AAc?$AAa?$AAl?$AAl?$AAe?$AAd@ 004464f0     LIBCMT:crt0msg.obj
 0002:00006538       ??_C@_1FI@LOGNIKDM@?$AAR?$AA6?$AA0?$AA1?$AA6?$AA?$AN?$AA?6?$AA?9?$AA?5?$AAn?$AAo?$AAt?$AA?5?$AAe?$AAn?$AAo?$AAu?$AAg?$AAh?$AA?5?$AAs?$AAp?$AAa?$AAc?$AAe?$AA?5?$AAf?$AAo?$AAr?$AA?5?$AAt?$AAh@ 00446538     LIBCMT:crt0msg.obj
 0002:00006590       ??_C@_1FK@BEOGODMC@?$AAR?$AA6?$AA0?$AA1?$AA7?$AA?$AN?$AA?6?$AA?9?$AA?5?$AAu?$AAn?$AAe?$AAx?$AAp?$AAe?$AAc?$AAt?$AAe?$AAd?$AA?5?$AAm?$AAu?$AAl?$AAt?$AAi?$AAt?$AAh?$AAr?$AAe?$AAa?$AAd?$AA?5@ 00446590     LIBCMT:crt0msg.obj
 0002:000065f0       ??_C@_1EC@JIBHAOPH@?$AAR?$AA6?$AA0?$AA1?$AA8?$AA?$AN?$AA?6?$AA?9?$AA?5?$AAu?$AAn?$AAe?$AAx?$AAp?$AAe?$AAc?$AAt?$AAe?$AAd?$AA?5?$AAh?$AAe?$AAa?$AAp?$AA?5?$AAe?$AAr?$AAr?$AAo?$AAr?$AA?$AN?$AA?6@ 004465f0     LIBCMT:crt0msg.obj
 0002:00006638       ??_C@_1FC@ECHBIFBC@?$AAR?$AA6?$AA0?$AA1?$AA9?$AA?$AN?$AA?6?$AA?9?$AA?5?$AAu?$AAn?$AAa?$AAb?$AAl?$AAe?$AA?5?$AAt?$AAo?$AA?5?$AAo?$AAp?$AAe?$AAn?$AA?5?$AAc?$AAo?$AAn?$AAs?$AAo?$AAl?$AAe?$AA?5@ 00446638     LIBCMT:crt0msg.obj
 0002:00006690       ??_C@_1GK@FHCKBEFA@?$AAR?$AA6?$AA0?$AA2?$AA4?$AA?$AN?$AA?6?$AA?9?$AA?5?$AAn?$AAo?$AAt?$AA?5?$AAe?$AAn?$AAo?$AAu?$AAg?$AAh?$AA?5?$AAs?$AAp?$AAa?$AAc?$AAe?$AA?5?$AAf?$AAo?$AAr?$AA?5?$AA_?$AAo@ 00446690     LIBCMT:crt0msg.obj
 0002:00006700       ??_C@_1EM@MAADIHMB@?$AAR?$AA6?$AA0?$AA2?$AA5?$AA?$AN?$AA?6?$AA?9?$AA?5?$AAp?$AAu?$AAr?$AAe?$AA?5?$AAv?$AAi?$AAr?$AAt?$AAu?$AAa?$AAl?$AA?5?$AAf?$AAu?$AAn?$AAc?$AAt?$AAi?$AAo?$AAn?$AA?5?$AAc@ 00446700     LIBCMT:crt0msg.obj
 0002:00006750       ??_C@_1GK@MCAAGJMO@?$AAR?$AA6?$AA0?$AA2?$AA6?$AA?$AN?$AA?6?$AA?9?$AA?5?$AAn?$AAo?$AAt?$AA?5?$AAe?$AAn?$AAo?$AAu?$AAg?$AAh?$AA?5?$AAs?$AAp?$AAa?$AAc?$AAe?$AA?5?$AAf?$AAo?$AAr?$AA?5?$AAs?$AAt@ 00446750     LIBCMT:crt0msg.obj
 0002:000067c0       ??_C@_1GK@MFGOKLAG@?$AAR?$AA6?$AA0?$AA2?$AA7?$AA?$AN?$AA?6?$AA?9?$AA?5?$AAn?$AAo?$AAt?$AA?5?$AAe?$AAn?$AAo?$AAu?$AAg?$AAh?$AA?5?$AAs?$AAp?$AAa?$AAc?$AAe?$AA?5?$AAf?$AAo?$AAr?$AA?5?$AAl?$AAo@ 004467c0     LIBCMT:crt0msg.obj
 0002:00006830       ??_C@_1EK@HHFLMAOL@?$AAR?$AA6?$AA0?$AA2?$AA8?$AA?$AN?$AA?6?$AA?9?$AA?5?$AAu?$AAn?$AAa?$AAb?$AAl?$AAe?$AA?5?$AAt?$AAo?$AA?5?$AAi?$AAn?$AAi?$AAt?$AAi?$AAa?$AAl?$AAi?$AAz?$AAe?$AA?5?$AAh?$AAe@ 00446830     LIBCMT:crt0msg.obj
 0002:0000687c       ??_C@_1DO@BMFCDCD@?$AAR?$AA6?$AA0?$AA3?$AA0?$AA?$AN?$AA?6?$AA?9?$AA?5?$AAC?$AAR?$AAT?$AA?5?$AAn?$AAo?$AAt?$AA?5?$AAi?$AAn?$AAi?$AAt?$AAi?$AAa?$AAl?$AAi?$AAz?$AAe?$AAd?$AA?$AN?$AA?6?$AA?$AA@ 0044687c     LIBCMT:crt0msg.obj
 0002:000068c0       ??_C@_1MG@ENCOOIDF@?$AAR?$AA6?$AA0?$AA3?$AA1?$AA?$AN?$AA?6?$AA?9?$AA?5?$AAA?$AAt?$AAt?$AAe?$AAm?$AAp?$AAt?$AA?5?$AAt?$AAo?$AA?5?$AAi?$AAn?$AAi?$AAt?$AAi?$AAa?$AAl?$AAi?$AAz?$AAe?$AA?5?$AAt@ 004468c0     LIBCMT:crt0msg.obj
 0002:00006988       ??_C@_1GG@GOPILAJP@?$AAR?$AA6?$AA0?$AA3?$AA2?$AA?$AN?$AA?6?$AA?9?$AA?5?$AAn?$AAo?$AAt?$AA?5?$AAe?$AAn?$AAo?$AAu?$AAg?$AAh?$AA?5?$AAs?$AAp?$AAa?$AAc?$AAe?$AA?5?$AAf?$AAo?$AAr?$AA?5?$AAl?$AAo@ 00446988     LIBCMT:crt0msg.obj
 0002:000069f0       ??_C@_1BOO@KGEDBGAJ@?$AAR?$AA6?$AA0?$AA3?$AA3?$AA?$AN?$AA?6?$AA?9?$AA?5?$AAA?$AAt?$AAt?$AAe?$AAm?$AAp?$AAt?$AA?5?$AAt?$AAo?$AA?5?$AAu?$AAs?$AAe?$AA?5?$AAM?$AAS?$AAI?$AAL?$AA?5?$AAc?$AAo?$AAd@ 004469f0     LIBCMT:crt0msg.obj
 0002:00006be0       ??_C@_1GG@MKFPEKFO@?$AAR?$AA6?$AA0?$AA3?$AA4?$AA?$AN?$AA?6?$AA?9?$AA?5?$AAi?$AAn?$AAc?$AAo?$AAn?$AAs?$AAi?$AAs?$AAt?$AAe?$AAn?$AAt?$AA?5?$AAo?$AAn?$AAe?$AAx?$AAi?$AAt?$AA?5?$AAb?$AAe?$AAg@ 00446be0     LIBCMT:crt0msg.obj
 0002:00006c48       ??_C@_1BO@BFCDCGC@?$AAD?$AAO?$AAM?$AAA?$AAI?$AAN?$AA?5?$AAe?$AAr?$AAr?$AAo?$AAr?$AA?$AN?$AA?6?$AA?$AA@ 00446c48     LIBCMT:crt0msg.obj
 0002:00006c68       ??_C@_1BK@KMOMNAAI@?$AAS?$AAI?$AAN?$AAG?$AA?5?$AAe?$AAr?$AAr?$AAo?$AAr?$AA?$AN?$AA?6?$AA?$AA@ 00446c68     LIBCMT:crt0msg.obj
 0002:00006c84       ??_C@_1BM@JBBEPPHI@?$AAT?$AAL?$AAO?$AAS?$AAS?$AA?5?$AAe?$AAr?$AAr?$AAo?$AAr?$AA?$AN?$AA?6?$AA?$AA@ 00446c84     LIBCMT:crt0msg.obj
 0002:00006ca0       ??_C@_15JNBOKNOG@?$AA?$AN?$AA?6?$AA?$AA@ 00446ca0     LIBCMT:crt0msg.obj
 0002:00006ca8       ??_C@_1BO@BKOMIGKJ@?$AAr?$AAu?$AAn?$AAt?$AAi?$AAm?$AAe?$AA?5?$AAe?$AAr?$AAr?$AAo?$AAr?$AA?5?$AA?$AA@ 00446ca8     LIBCMT:crt0msg.obj
 0002:00006cc8       ??_C@_1DE@JNGNBFGO@?$AAR?$AAu?$AAn?$AAt?$AAi?$AAm?$AAe?$AA?5?$AAE?$AAr?$AAr?$AAo?$AAr?$AA?$CB?$AA?6?$AA?6?$AAP?$AAr?$AAo?$AAg?$AAr?$AAa?$AAm?$AA?3?$AA?5?$AA?$AA@ 00446cc8     LIBCMT:crt0msg.obj
 0002:00006cfc       ??_C@_1CO@EAEJAADC@?$AA?$DM?$AAp?$AAr?$AAo?$AAg?$AAr?$AAa?$AAm?$AA?5?$AAn?$AAa?$AAm?$AAe?$AA?5?$AAu?$AAn?$AAk?$AAn?$AAo?$AAw?$AAn?$AA?$DO?$AA?$AA@ 00446cfc     LIBCMT:crt0msg.obj
 0002:00006d2c       ??_C@_17LGKOMLJ@?$AA?4?$AA?4?$AA?4?$AA?$AA@ 00446d2c     LIBCMT:crt0msg.obj
 0002:00006d34       ??_C@_15IABLJNFO@?$AA?6?$AA?6?$AA?$AA@ 00446d34     LIBCMT:crt0msg.obj
 0002:00006d40       ??_C@_1EK@MBDPDCGA@?$AAM?$AAi?$AAc?$AAr?$AAo?$AAs?$AAo?$AAf?$AAt?$AA?5?$AAV?$AAi?$AAs?$AAu?$AAa?$AAl?$AA?5?$AAC?$AA?$CL?$AA?$CL?$AA?5?$AAR?$AAu?$AAn?$AAt?$AAi?$AAm?$AAe?$AA?5?$AAL?$AAi?$AAb@ 00446d40     LIBCMT:crt0msg.obj
 0002:00006d8a       ??_C@_00CNPNBAHC@?$AA@     00446d8a     LIBCMT:wincmdln.obj
 0002:00006d9c       ??_C@_1M@HPNHIDJI@?$AAj?$AAa?$AA?9?$AAJ?$AAP?$AA?$AA@ 00446d9c     LIBCMT:mbctype.obj
 0002:00006da8       ??_C@_1M@BIBDDEMK@?$AAz?$AAh?$AA?9?$AAC?$AAN?$AA?$AA@ 00446da8     LIBCMT:mbctype.obj
 0002:00006db4       ??_C@_1M@JLOOOEGK@?$AAk?$AAo?$AA?9?$AAK?$AAR?$AA?$AA@ 00446db4     LIBCMT:mbctype.obj
 0002:00006dc0       ??_C@_1M@CLNBBOPM@?$AAz?$AAh?$AA?9?$AAT?$AAW?$AA?$AA@ 00446dc0     LIBCMT:mbctype.obj
 0002:00006dcc       ??_C@_03KOEHGMDN@Sun?$AA@  00446dcc     LIBCMT:nlsdata.obj
 0002:00006dd0       ??_C@_03PDAGKDH@Mon?$AA@   00446dd0     LIBCMT:nlsdata.obj
 0002:00006dd4       ??_C@_03NAGEINEP@Tue?$AA@  00446dd4     LIBCMT:nlsdata.obj
 0002:00006dd8       ??_C@_03MHOMLAJA@Wed?$AA@  00446dd8     LIBCMT:nlsdata.obj
 0002:00006ddc       ??_C@_03IOFIKPDN@Thu?$AA@  00446ddc     LIBCMT:nlsdata.obj
 0002:00006de0       ??_C@_03IDIOELNC@Fri?$AA@  00446de0     LIBCMT:nlsdata.obj
 0002:00006de4       ??_C@_03FEFJNEK@Sat?$AA@   00446de4     LIBCMT:nlsdata.obj
 0002:00006de8       ??_C@_06OOPIFAJ@Sunday?$AA@ 00446de8     LIBCMT:nlsdata.obj
 0002:00006df0       ??_C@_06JLEDEDGH@Monday?$AA@ 00446df0     LIBCMT:nlsdata.obj
 0002:00006df8       ??_C@_07BAAGCFCM@Tuesday?$AA@ 00446df8     LIBCMT:nlsdata.obj
 0002:00006e00       ??_C@_09DLIGFAKA@Wednesday?$AA@ 00446e00     LIBCMT:nlsdata.obj
 0002:00006e0c       ??_C@_08HACCIKIA@Thursday?$AA@ 00446e0c     LIBCMT:nlsdata.obj
 0002:00006e18       ??_C@_06JECMNKMI@Friday?$AA@ 00446e18     LIBCMT:nlsdata.obj
 0002:00006e20       ??_C@_08INBOOONO@Saturday?$AA@ 00446e20     LIBCMT:nlsdata.obj
 0002:00006e2c       ??_C@_03JIHJHPIE@Jan?$AA@  00446e2c     LIBCMT:nlsdata.obj
 0002:00006e30       ??_C@_03HJBDCHOM@Feb?$AA@  00446e30     LIBCMT:nlsdata.obj
 0002:00006e34       ??_C@_03ODNJBKGA@Mar?$AA@  00446e34     LIBCMT:nlsdata.obj
 0002:00006e38       ??_C@_03LEOLGMJP@Apr?$AA@  00446e38     LIBCMT:nlsdata.obj
 0002:00006e3c       ??_C@_03CNMDKL@May?$AA@    00446e3c     LIBCMT:nlsdata.obj
 0002:00006e40       ??_C@_03IDFGHECI@Jun?$AA@  00446e40     LIBCMT:nlsdata.obj
 0002:00006e44       ??_C@_03LBGABGKK@Jul?$AA@  00446e44     LIBCMT:nlsdata.obj
 0002:00006e48       ??_C@_03IFJFEIGA@Aug?$AA@  00446e48     LIBCMT:nlsdata.obj
 0002:00006e4c       ??_C@_03GGCAPAJC@Sep?$AA@  00446e4c     LIBCMT:nlsdata.obj
 0002:00006e50       ??_C@_03BMAOKBAD@Oct?$AA@  00446e50     LIBCMT:nlsdata.obj
 0002:00006e54       ??_C@_03JPJOFNIA@Nov?$AA@  00446e54     LIBCMT:nlsdata.obj
 0002:00006e58       ??_C@_03MKABNOCG@Dec?$AA@  00446e58     LIBCMT:nlsdata.obj
 0002:00006e5c       ??_C@_07CGJPFGJA@January?$AA@ 00446e5c     LIBCMT:nlsdata.obj
 0002:00006e64       ??_C@_08GNJGEPFN@February?$AA@ 00446e64     LIBCMT:nlsdata.obj
 0002:00006e70       ??_C@_05HPCKOFNC@March?$AA@ 00446e70     LIBCMT:nlsdata.obj
 0002:00006e78       ??_C@_05DMJDNLEJ@April?$AA@ 00446e78     LIBCMT:nlsdata.obj
 0002:00006e80       ??_C@_04CNLMGBGM@June?$AA@ 00446e80     LIBCMT:nlsdata.obj
 0002:00006e88       ??_C@_04MIEPOIFP@July?$AA@ 00446e88     LIBCMT:nlsdata.obj
 0002:00006e90       ??_C@_06LBBHFDDG@August?$AA@ 00446e90     LIBCMT:nlsdata.obj
 0002:00006e98       ??_C@_09BHHEALKD@September?$AA@ 00446e98     LIBCMT:nlsdata.obj
 0002:00006ea4       ??_C@_07JJNFCEND@October?$AA@ 00446ea4     LIBCMT:nlsdata.obj
 0002:00006eac       ??_C@_08HCHEGEOA@November?$AA@ 00446eac     LIBCMT:nlsdata.obj
 0002:00006eb8       ??_C@_08EDHMEBNP@December?$AA@ 00446eb8     LIBCMT:nlsdata.obj
 0002:00006ec4       ??_C@_02DEDBPAFC@AM?$AA@   00446ec4     LIBCMT:nlsdata.obj
 0002:00006ec8       ??_C@_02CJNFDJBF@PM?$AA@   00446ec8     LIBCMT:nlsdata.obj
 0002:00006ecc       ??_C@_08BPBNCDIB@MM?1dd?1yy?$AA@ 00446ecc     LIBCMT:nlsdata.obj
 0002:00006ed8       ??_C@_0BE@CKGJFCPC@dddd?0?5MMMM?5dd?0?5yyyy?$AA@ 00446ed8     LIBCMT:nlsdata.obj
 0002:00006eec       ??_C@_08JCCMCCIL@HH?3mm?3ss?$AA@ 00446eec     LIBCMT:nlsdata.obj
 0002:00006ef8       ??_C@_17PDPHAADD@?$AAT?$AAh?$AAu?$AA?$AA@ 00446ef8     LIBCMT:nlsdata.obj
 0002:00006f00       ??_C@_1O@IHNHDHPB@?$AAS?$AAu?$AAn?$AAd?$AAa?$AAy?$AA?$AA@ 00446f00     LIBCMT:nlsdata.obj
 0002:00006f10       ??_C@_1O@MMNBFLIA@?$AAM?$AAo?$AAn?$AAd?$AAa?$AAy?$AA?$AA@ 00446f10     LIBCMT:nlsdata.obj
 0002:00006f20       ??_C@_1BA@ENFBFFEK@?$AAT?$AAu?$AAe?$AAs?$AAd?$AAa?$AAy?$AA?$AA@ 00446f20     LIBCMT:nlsdata.obj
 0002:00006f30       ??_C@_1BE@EBOGMDOH@?$AAW?$AAe?$AAd?$AAn?$AAe?$AAs?$AAd?$AAa?$AAy?$AA?$AA@ 00446f30     LIBCMT:nlsdata.obj
 0002:00006f44       ??_C@_1BC@HHMNLIHE@?$AAT?$AAh?$AAu?$AAr?$AAs?$AAd?$AAa?$AAy?$AA?$AA@ 00446f44     LIBCMT:nlsdata.obj
 0002:00006f58       ??_C@_1O@PDICJHAG@?$AAF?$AAr?$AAi?$AAd?$AAa?$AAy?$AA?$AA@ 00446f58     LIBCMT:nlsdata.obj
 0002:00006f68       ??_C@_1BC@ENMNNPAJ@?$AAS?$AAa?$AAt?$AAu?$AAr?$AAd?$AAa?$AAy?$AA?$AA@ 00446f68     LIBCMT:nlsdata.obj
 0002:00006f7c       ??_C@_17DKNBKCHM@?$AAJ?$AAa?$AAn?$AA?$AA@ 00446f7c     LIBCMT:nlsdata.obj
 0002:00006f84       ??_C@_17LMDJEKJN@?$AAF?$AAe?$AAb?$AA?$AA@ 00446f84     LIBCMT:nlsdata.obj
 0002:00006f8c       ??_C@_17CKNLEDEC@?$AAM?$AAa?$AAr?$AA?$AA@ 00446f8c     LIBCMT:nlsdata.obj
 0002:00006f94       ??_C@_17LFPOIHDD@?$AAA?$AAp?$AAr?$AA?$AA@ 00446f94     LIBCMT:nlsdata.obj
 0002:00006f9c       ??_C@_17PNNKMEED@?$AAM?$AAa?$AAy?$AA?$AA@ 00446f9c     LIBCMT:nlsdata.obj
 0002:00006fa4       ??_C@_17KCJGOCPB@?$AAJ?$AAu?$AAn?$AA?$AA@ 00446fa4     LIBCMT:nlsdata.obj
 0002:00006fac       ??_C@_17IJPCKHK@?$AAJ?$AAu?$AAl?$AA?$AA@ 00446fac     LIBCMT:nlsdata.obj
 0002:00006fb4       ??_C@_17ICPELBCN@?$AAA?$AAu?$AAg?$AA?$AA@ 00446fb4     LIBCMT:nlsdata.obj
 0002:00006fbc       ??_C@_17HCHCOKMG@?$AAS?$AAe?$AAp?$AA?$AA@ 00446fbc     LIBCMT:nlsdata.obj
 0002:00006fc4       ??_C@_17FNLKOI@?$AAO?$AAc?$AAt?$AA?$AA@ 00446fc4     LIBCMT:nlsdata.obj
 0002:00006fcc       ??_C@_17BBDMLCIG@?$AAN?$AAo?$AAv?$AA?$AA@ 00446fcc     LIBCMT:nlsdata.obj
 0002:00006fd4       ??_C@_17EGKACKIF@?$AAD?$AAe?$AAc?$AA?$AA@ 00446fd4     LIBCMT:nlsdata.obj
 0002:00006fdc       ??_C@_1BA@EFMEIEBA@?$AAJ?$AAa?$AAn?$AAu?$AAa?$AAr?$AAy?$AA?$AA@ 00446fdc     LIBCMT:nlsdata.obj
 0002:00006fec       ??_C@_1BC@JGDDFFAM@?$AAF?$AAe?$AAb?$AAr?$AAu?$AAa?$AAr?$AAy?$AA?$AA@ 00446fec     LIBCMT:nlsdata.obj
 0002:00007000       ??_C@_1M@IKEENEDF@?$AAM?$AAa?$AAr?$AAc?$AAh?$AA?$AA@ 00447000     LIBCMT:nlsdata.obj
 0002:0000700c       ??_C@_1M@GJNLMHFD@?$AAA?$AAp?$AAr?$AAi?$AAl?$AA?$AA@ 0044700c     LIBCMT:nlsdata.obj
 0002:00007018       ??_C@_19EPFLPGAP@?$AAJ?$AAu?$AAn?$AAe?$AA?$AA@ 00447018     LIBCMT:nlsdata.obj
 0002:00007024       ??_C@_19BIFMLPCD@?$AAJ?$AAu?$AAl?$AAy?$AA?$AA@ 00447024     LIBCMT:nlsdata.obj
 0002:00007030       ??_C@_1O@PAHLKOAC@?$AAA?$AAu?$AAg?$AAu?$AAs?$AAt?$AA?$AA@ 00447030     LIBCMT:nlsdata.obj
 0002:00007040       ??_C@_1BE@DKAAMBJL@?$AAS?$AAe?$AAp?$AAt?$AAe?$AAm?$AAb?$AAe?$AAr?$AA?$AA@ 00447040     LIBCMT:nlsdata.obj
 0002:00007054       ??_C@_1BA@EPANDLNG@?$AAO?$AAc?$AAt?$AAo?$AAb?$AAe?$AAr?$AA?$AA@ 00447054     LIBCMT:nlsdata.obj
 0002:00007064       ??_C@_1BC@BGLIFPF@?$AAN?$AAo?$AAv?$AAe?$AAm?$AAb?$AAe?$AAr?$AA?$AA@ 00447064     LIBCMT:nlsdata.obj
 0002:00007078       ??_C@_1BC@FEMKIFH@?$AAD?$AAe?$AAc?$AAe?$AAm?$AAb?$AAe?$AAr?$AA?$AA@ 00447078     LIBCMT:nlsdata.obj
 0002:0000708c       ??_C@_15ODEHAHHF@?$AAA?$AAM?$AA?$AA@ 0044708c     LIBCMT:nlsdata.obj
 0002:00007094       ??_C@_15CLMNNGEL@?$AAP?$AAM?$AA?$AA@ 00447094     LIBCMT:nlsdata.obj
 0002:0000709c       ??_C@_1BC@IEBCMHCM@?$AAM?$AAM?$AA?1?$AAd?$AAd?$AA?1?$AAy?$AAy?$AA?$AA@ 0044709c     LIBCMT:nlsdata.obj
 0002:000070b0       ??_C@_1CI@KNAKOEBC@?$AAd?$AAd?$AAd?$AAd?$AA?0?$AA?5?$AAM?$AAM?$AAM?$AAM?$AA?5?$AAd?$AAd?$AA?0?$AA?5?$AAy?$AAy?$AAy?$AAy?$AA?$AA@ 004470b0     LIBCMT:nlsdata.obj
 0002:000070d8       ??_C@_1BC@GDGBMEMK@?$AAH?$AAH?$AA?3?$AAm?$AAm?$AA?3?$AAs?$AAs?$AA?$AA@ 004470d8     LIBCMT:nlsdata.obj
 0002:000070ec       ??_C@_1M@BMHNFIME@?$AAe?$AAn?$AA?9?$AAU?$AAS?$AA?$AA@ 004470ec     LIBCMT:nlsdata.obj
 0002:000071e0       ??_C@_03MGHMBJCF@log?$AA@  004471e0     LIBCMT:libm_error.obj
 0002:000071e4       ??_C@_05HGHHAHAP@log10?$AA@ 004471e4     LIBCMT:libm_error.obj
 0002:000071ec       ??_C@_03KHJOGHMM@exp?$AA@  004471ec     LIBCMT:libm_error.obj
 0002:000071f0       ??_C@_03JGHBODFD@pow?$AA@  004471f0     LIBCMT:libm_error.obj
 0002:000071f4       ??_C@_04FIHNOPOL@asin?$AA@ 004471f4     LIBCMT:libm_error.obj
 0002:000071fc       ??_C@_04PDIFKINK@acos?$AA@ 004471fc     LIBCMT:libm_error.obj
 0002:00007204       ??_C@_05EOHGHCHD@exp10?$AA@ 00447204     LIBCMT:libm_error.obj
 0002:0000720c       ??_C@_04MLLJIGOK@atan?$AA@ 0044720c     LIBCMT:libm_error.obj
 0002:00007214       ??_C@_04GFPJNGEK@ceil?$AA@ 00447214     LIBCMT:libm_error.obj
 0002:0000721c       ??_C@_05PBJFFIGL@floor?$AA@ 0044721c     LIBCMT:libm_error.obj
 0002:00007224       ??_C@_04EHEDPDJG@modf?$AA@ 00447224     LIBCMT:libm_error.obj
 0002:0000722c       ??_C@_03BLEJJJBH@sin?$AA@  0044722c     LIBCMT:libm_error.obj
 0002:00007230       ??_C@_03LALBNOCG@cos?$AA@  00447230     LIBCMT:libm_error.obj
 0002:00007234       ??_C@_03IIINPABG@tan?$AA@  00447234     LIBCMT:libm_error.obj
 0002:00007238       ??_C@_04EIAKFFMI@sqrt?$AA@ 00447238     LIBCMT:libm_error.obj
 0002:00007240       ??_C@_04FJHINJAO@tanh?$AA@ 00447240     LIBCMT:fpexcept.obj
 0002:00007248       ??_C@_05KNGEOGJB@atan2?$AA@ 00447248     LIBCMT:fpexcept.obj
 0002:00007250       ??_C@_04ODHECPBC@fabs?$AA@ 00447250     LIBCMT:fpexcept.obj
 0002:00007258       ??_C@_05CEJMAHNP@ldexp?$AA@ 00447258     LIBCMT:fpexcept.obj
 0002:00007260       ??_C@_05KBKMEMPO@_cabs?$AA@ 00447260     LIBCMT:fpexcept.obj
 0002:00007268       ??_C@_06MEIMCGCF@_hypot?$AA@ 00447268     LIBCMT:fpexcept.obj
 0002:00007270       ??_C@_04KEPJIHGP@fmod?$AA@ 00447270     LIBCMT:fpexcept.obj
 0002:00007278       ??_C@_05GKKHEGJL@frexp?$AA@ 00447278     LIBCMT:fpexcept.obj
 0002:00007280       ??_C@_03MJLDFKDL@_y0?$AA@  00447280     LIBCMT:fpexcept.obj
 0002:00007284       ??_C@_03NAKIGLHK@_y1?$AA@  00447284     LIBCMT:fpexcept.obj
 0002:00007288       ??_C@_03ONILCKOB@_yn?$AA@  00447288     LIBCMT:fpexcept.obj
 0002:0000728c       ??_C@_05JGDBENOH@_logb?$AA@ 0044728c     LIBCMT:fpexcept.obj
 0002:00007294       ??_C@_0L@KDOEJCKC@_nextafter?$AA@ 00447294     LIBCMT:fpexcept.obj
 0002:000072a0       ??_C@_04COOMCNPB@sinh?$AA@ 004472a0     LIBCMT:fpexcept.obj
 0002:000072a8       ??_C@_04HPJJNFIM@cosh?$AA@ 004472a8     LIBCMT:fpexcept.obj
 0002:000072b0       __indefinite               004472b0     LIBCMT:87disp.obj
 0002:000072ba       __piby2                    004472ba     LIBCMT:87disp.obj
 0002:000072e8       __DEFAULT_CW_in_mem        004472e8     LIBCMT:common.obj
 0002:000072ea       __pi_by_2_to_61            004472ea     LIBCMT:common.obj
 0002:000074b4       ??_C@_08EHJDFFNH@__based?$CI?$AA@ 004474b4     LIBCMT:undname.obj
 0002:000074c0       ??_C@_07KOLFKCDI@__cdecl?$AA@ 004474c0     LIBCMT:undname.obj
 0002:000074c8       ??_C@_08GHMPAG@__pascal?$AA@ 004474c8     LIBCMT:undname.obj
 0002:000074d4       ??_C@_09IFJBGAPI@__stdcall?$AA@ 004474d4     LIBCMT:undname.obj
 0002:000074e0       ??_C@_0L@NPHFGOKO@__thiscall?$AA@ 004474e0     LIBCMT:undname.obj
 0002:000074ec       ??_C@_0L@JMKHOMEK@__fastcall?$AA@ 004474ec     LIBCMT:undname.obj
 0002:000074f8       ??_C@_0N@BCKKPABJ@__vectorcall?$AA@ 004474f8     LIBCMT:undname.obj
 0002:00007508       ??_C@_09HIJEGCPM@__clrcall?$AA@ 00447508     LIBCMT:undname.obj
 0002:00007514       ??_C@_06GHPCKEAG@__eabi?$AA@ 00447514     LIBCMT:undname.obj
 0002:0000751c       ??_C@_07JOMMBBKO@__ptr64?$AA@ 0044751c     LIBCMT:undname.obj
 0002:00007524       ??_C@_0L@PILCLIHE@__restrict?$AA@ 00447524     LIBCMT:undname.obj
 0002:00007530       ??_C@_0M@GFIIJFMG@__unaligned?$AA@ 00447530     LIBCMT:undname.obj
 0002:0000753c       ??_C@_09DHDLOLLB@restrict?$CI?$AA@ 0044753c     LIBCMT:undname.obj
 0002:00007548       ??_C@_04NIHEBCM@?5new?$AA@ 00447548     LIBCMT:undname.obj
 0002:00007550       ??_C@_07FPCDHGMM@?5delete?$AA@ 00447550     LIBCMT:undname.obj
 0002:00007558       ??_C@_01NEMOKFLO@?$DN?$AA@ 00447558     LIBCMT:undname.obj
 0002:0000755c       ??_C@_02GPIOPFAK@?$DO?$DO?$AA@ 0044755c     LIBCMT:undname.obj
 0002:00007560       ??_C@_02FODMEDOG@?$DM?$DM?$AA@ 00447560     LIBCMT:undname.obj
 0002:00007564       ??_C@_01DCLJPIOD@?$CB?$AA@ 00447564     LIBCMT:undname.obj
 0002:00007568       ??_C@_02EGOFBIJA@?$DN?$DN?$AA@ 00447568     LIBCMT:undname.obj
 0002:0000756c       ??_C@_02FDNJECIE@?$CB?$DN?$AA@ 0044756c     LIBCMT:undname.obj
 0002:00007570       ??_C@_02GPECMEKF@?$FL?$FN?$AA@ 00447570     LIBCMT:undname.obj
 0002:00007574       ??_C@_08LHJFAFGD@operator?$AA@ 00447574     LIBCMT:undname.obj
 0002:00007580       ??_C@_02HBOOOICD@?9?$DO?$AA@ 00447580     LIBCMT:undname.obj
 0002:00007584       ??_C@_01NBENCBCI@?$CK?$AA@ 00447584     LIBCMT:undname.obj
 0002:00007588       ??_C@_02ECNGHCIF@?$CL?$CL?$AA@ 00447588     LIBCMT:undname.obj
 0002:0000758c       ??_C@_02BAABKJLB@?9?9?$AA@ 0044758c     LIBCMT:undname.obj
 0002:00007590       ??_C@_01JOAMLHOP@?9?$AA@   00447590     LIBCMT:undname.obj
 0002:00007594       ??_C@_01MIFGBAGJ@?$CL?$AA@ 00447594     LIBCMT:undname.obj
 0002:00007598       ??_C@_01HNPIGOCE@?$CG?$AA@ 00447598     LIBCMT:undname.obj
 0002:0000759c       ??_C@_03MNHNFDLC@?9?$DO?$CK?$AA@ 0044759c     LIBCMT:undname.obj
 0002:000075a0       ??_C@_01KMDKNFGN@?1?$AA@   004475a0     LIBCMT:undname.obj
 0002:000075a4       ??_C@_01FGNFDNOH@?$CF?$AA@ 004475a4     LIBCMT:undname.obj
 0002:000075a8       ??_C@_01MNNFJEPP@?$DM?$AA@ 004475a8     LIBCMT:undname.obj
 0002:000075ac       ??_C@_02EHCHHCKH@?$DM?$DN?$AA@ 004475ac     LIBCMT:undname.obj
 0002:000075b0       ??_C@_01PPODPGHN@?$DO?$AA@ 004475b0     LIBCMT:undname.obj
 0002:000075b4       ??_C@_02EEKDKGMJ@?$DO?$DN?$AA@ 004475b4     LIBCMT:undname.obj
 0002:000075b8       ??_C@_01IHBHIGKO@?0?$AA@   004475b8     LIBCMT:undname.obj
 0002:000075bc       ??_C@_02HCKGKOFO@?$CI?$CJ?$AA@ 004475bc     LIBCMT:undname.obj
 0002:000075c0       ??_C@_01PJKLJHI@?$HO?$AA@  004475c0     LIBCMT:undname.obj
 0002:000075c4       ??_C@_01JKBOJNNK@?$FO?$AA@ 004475c4     LIBCMT:undname.obj
 0002:000075c8       ??_C@_01DNKMNLPK@?$HM?$AA@ 004475c8     LIBCMT:undname.obj
 0002:000075cc       ??_C@_02PPKAJPJL@?$CG?$CG?$AA@ 004475cc     LIBCMT:undname.obj
 0002:000075d0       ??_C@_02NONPIBCD@?$HM?$HM?$AA@ 004475d0     LIBCMT:undname.obj
 0002:000075d4       ??_C@_02FPIMKNGF@?$CK?$DN?$AA@ 004475d4     LIBCMT:undname.obj
 0002:000075d8       ??_C@_02FOEOMHFC@?$CL?$DN?$AA@ 004475d8     LIBCMT:undname.obj
 0002:000075dc       ??_C@_02FKMDLLOA@?9?$DN?$AA@ 004475dc     LIBCMT:undname.obj
 0002:000075e0       ??_C@_02FJEHGPIO@?1?$DN?$AA@ 004475e0     LIBCMT:undname.obj
 0002:000075e4       ??_C@_02FENAOKFI@?$CF?$DN?$AA@ 004475e4     LIBCMT:undname.obj
 0002:000075e8       ??_C@_03IKFCCPFF@?$DO?$DO?$DN?$AA@ 004475e8     LIBCMT:undname.obj
 0002:000075ec       ??_C@_03CDNPDDLA@?$DM?$DM?$DN?$AA@ 004475ec     LIBCMT:undname.obj
 0002:000075f0       ??_C@_02FGJGFEAB@?$CG?$DN?$AA@ 004475f0     LIBCMT:undname.obj
 0002:000075f4       ??_C@_02DHLNPPGH@?$HM?$DN?$AA@ 004475f4     LIBCMT:undname.obj
 0002:000075f8       ??_C@_02MHEGNOJ@?$FO?$DN?$AA@ 004475f8     LIBCMT:undname.obj
 0002:000075fc       ??_C@_09IFPLHPGF@?$GAvftable?8?$AA@ 004475fc     LIBCMT:undname.obj
 0002:00007608       ??_C@_09BLBHBJP@?$GAvbtable?8?$AA@ 00447608     LIBCMT:undname.obj
 0002:00007614       ??_C@_07FEEIOKP@?$GAvcall?8?$AA@ 00447614     LIBCMT:undname.obj
 0002:0000761c       ??_C@_08LLFFHHDJ@?$GAtypeof?8?$AA@ 0044761c     LIBCMT:undname.obj
 0002:00007628       ??_C@_0BF@KDPPACIK@?$GAlocal?5static?5guard?8?$AA@ 00447628     LIBCMT:undname.obj
 0002:00007640       ??_C@_08OBABFOLI@?$GAstring?8?$AA@ 00447640     LIBCMT:undname.obj
 0002:0000764c       ??_C@_0BD@JDLKDPAB@?$GAvbase?5destructor?8?$AA@ 0044764c     LIBCMT:undname.obj
 0002:00007660       ??_C@_0BN@DEGPLNFK@?$GAvector?5deleting?5destructor?8?$AA@ 00447660     LIBCMT:undname.obj
 0002:00007680       ??_C@_0BO@OBMKPJIG@?$GAdefault?5constructor?5closure?8?$AA@ 00447680     LIBCMT:undname.obj
 0002:000076a0       ??_C@_0BN@IMDCHIKM@?$GAscalar?5deleting?5destructor?8?$AA@ 004476a0     LIBCMT:undname.obj
 0002:000076c0       ??_C@_0BO@PFGOCPJJ@?$GAvector?5constructor?5iterator?8?$AA@ 004476c0     LIBCMT:undname.obj
 0002:000076e0       ??_C@_0BN@LFPFMEDL@?$GAvector?5destructor?5iterator?8?$AA@ 004476e0     LIBCMT:undname.obj
 0002:00007700       ??_C@_0CE@IKBNEHA@?$GAvector?5vbase?5constructor?5iterat@ 00447700     LIBCMT:undname.obj
 0002:00007724       ??_C@_0BL@NILFHHPC@?$GAvirtual?5displacement?5map?8?$AA@ 00447724     LIBCMT:undname.obj
 0002:00007740       ??_C@_0CB@JONCMFFK@?$GAeh?5vector?5constructor?5iterator?8@ 00447740     LIBCMT:undname.obj
 0002:00007764       ??_C@_0CA@GCEOPDGL@?$GAeh?5vector?5destructor?5iterator?8?$AA@ 00447764     LIBCMT:undname.obj
 0002:00007784       ??_C@_0CH@OOJPLCPH@?$GAeh?5vector?5vbase?5constructor?5ite@ 00447784     LIBCMT:undname.obj
 0002:000077ac       ??_C@_0BL@LLKPOHJI@?$GAcopy?5constructor?5closure?8?$AA@ 004477ac     LIBCMT:undname.obj
 0002:000077c8       ??_C@_0BA@KBCDOMBN@?$GAudt?5returning?8?$AA@ 004477c8     LIBCMT:undname.obj
 0002:000077d8       ??_C@_03KLGMFNMG@?$GAEH?$AA@ 004477d8     LIBCMT:undname.obj
 0002:000077dc       ??_C@_05KHLCHHI@?$GARTTI?$AA@ 004477dc     LIBCMT:undname.obj
 0002:000077e4       ??_C@_0BA@KKLDJDLB@?$GAlocal?5vftable?8?$AA@ 004477e4     LIBCMT:undname.obj
 0002:000077f4       ??_C@_0CE@IIHCMGGL@?$GAlocal?5vftable?5constructor?5closu@ 004477f4     LIBCMT:undname.obj
 0002:00007818       ??_C@_06FHBGPFGH@?5new?$FL?$FN?$AA@ 00447818     LIBCMT:undname.obj
 0002:00007820       ??_C@_09LBNFPBCA@?5delete?$FL?$FN?$AA@ 00447820     LIBCMT:undname.obj
 0002:0000782c       ??_C@_0P@HJKNJFNN@?$GAomni?5callsig?8?$AA@ 0044782c     LIBCMT:undname.obj
 0002:0000783c       ??_C@_0BL@CNOONJFP@?$GAplacement?5delete?5closure?8?$AA@ 0044783c     LIBCMT:undname.obj
 0002:00007858       ??_C@_0BN@CKNJLHMB@?$GAplacement?5delete?$FL?$FN?5closure?8?$AA@ 00447858     LIBCMT:undname.obj
 0002:00007878       ??_C@_0CG@CFDHKGGD@?$GAmanaged?5vector?5constructor?5iter@ 00447878     LIBCMT:undname.obj
 0002:000078a0       ??_C@_0CF@IMGKMJNO@?$GAmanaged?5vector?5destructor?5itera@ 004478a0     LIBCMT:undname.obj
 0002:000078c8       ??_C@_0CG@HLDDJMAG@?$GAeh?5vector?5copy?5constructor?5iter@ 004478c8     LIBCMT:undname.obj
 0002:000078f0       ??_C@_0CM@FCBBDIGB@?$GAeh?5vector?5vbase?5copy?5constructo@ 004478f0     LIBCMT:undname.obj
 0002:0000791c       ??_C@_0BL@CLIPGLGB@?$GAdynamic?5initializer?5for?5?8?$AA@ 0044791c     LIBCMT:undname.obj
 0002:00007938       ??_C@_0CB@PDBIFEP@?$GAdynamic?5atexit?5destructor?5for?5?8@ 00447938     LIBCMT:undname.obj
 0002:0000795c       ??_C@_0CD@CGAJBKEJ@?$GAvector?5copy?5constructor?5iterato@ 0044795c     LIBCMT:undname.obj
 0002:00007980       ??_C@_0CJ@GJELGAMM@?$GAvector?5vbase?5copy?5constructor?5i@ 00447980     LIBCMT:undname.obj
 0002:000079ac       ??_C@_0CL@FGIJHLCE@?$GAmanaged?5vector?5copy?5constructor@ 004479ac     LIBCMT:undname.obj
 0002:000079d8       ??_C@_0BM@PMGGMLDN@?$GAlocal?5static?5thread?5guard?8?$AA@ 004479d8     LIBCMT:undname.obj
 0002:000079f4       ??_C@_0BC@DAFEJGAK@?5Type?5Descriptor?8?$AA@ 004479f4     LIBCMT:undname.obj
 0002:00007a08       ??_C@_0BM@LDKODKLH@?5Base?5Class?5Descriptor?5at?5?$CI?$AA@ 00447a08     LIBCMT:undname.obj
 0002:00007a24       ??_C@_0BD@LGICGFMM@?5Base?5Class?5Array?8?$AA@ 00447a24     LIBCMT:undname.obj
 0002:00007a38       ??_C@_0BN@MECKDCOJ@?5Class?5Hierarchy?5Descriptor?8?$AA@ 00447a38     LIBCMT:undname.obj
 0002:00007a58       ??_C@_0BK@CFCOFLF@?5Complete?5Object?5Locator?8?$AA@ 00447a58     LIBCMT:undname.obj
 0002:00007a74       ??_C@_1BG@GOEBHBDC@?$AAU?$AAS?$AAE?$AAR?$AA3?$AA2?$AA?4?$AAD?$AAL?$AAL?$AA?$AA@ 00447a74     LIBCMT:crtmboxw.obj
 0002:00007a8c       ??_C@_0M@DLDCCGNP@MessageBoxW?$AA@ 00447a8c     LIBCMT:crtmboxw.obj
 0002:00007a98       ??_C@_0BA@HNOPNCHB@GetActiveWindow?$AA@ 00447a98     LIBCMT:crtmboxw.obj
 0002:00007aa8       ??_C@_0BD@HHGDFDBJ@GetLastActivePopup?$AA@ 00447aa8     LIBCMT:crtmboxw.obj
 0002:00007abc       ??_C@_0BK@DEKFELLI@GetUserObjectInformationW?$AA@ 00447abc     LIBCMT:crtmboxw.obj
 0002:00007ad8       ??_C@_0BI@DFKBFLJE@GetProcessWindowStation?$AA@ 00447ad8     LIBCMT:crtmboxw.obj
 0002:00007af0       ___newctype                00447af0     LIBCMT:ctype.obj
 0002:00007df0       __wctype                   00447df0     LIBCMT:ctype.obj
 0002:00007ff8       ___newclmap                00447ff8     LIBCMT:ctype.obj
 0002:00008178       ___newcumap                00448178     LIBCMT:ctype.obj
 0002:000082f8       ??_C@_15PJPFLCCM@?$AAu?$AAk?$AA?$AA@ 004482f8     LIBCMT:getqloc.obj
 0002:00008300       ___rg_language_count       00448300     LIBCMT:getqloc.obj
 0002:00008304       ___rg_country_count        00448304     LIBCMT:getqloc.obj
 0002:00008308       _LcidToLocaleNameTable     00448308     LIBCMT:winapinls.obj
 0002:00008a28       _LocaleNameToIndexTable    00448a28     LIBCMT:winapinls.obj
 0002:00009148       ??_C@_15EMKDOKLE@?$AAa?$AAr?$AA?$AA@ 00449148     LIBCMT:winapinls.obj
 0002:00009150       ??_C@_15KNPADPLH@?$AAb?$AAg?$AA?$AA@ 00449150     LIBCMT:winapinls.obj
 0002:00009158       ??_C@_15EDMHLDMO@?$AAc?$AAa?$AA?$AA@ 00449158     LIBCMT:winapinls.obj
 0002:00009160       ??_C@_1O@BPEAJADD@?$AAz?$AAh?$AA?9?$AAC?$AAH?$AAS?$AA?$AA@ 00449160     LIBCMT:winapinls.obj
 0002:00009170       ??_C@_15LJNHCMNK@?$AAc?$AAs?$AA?$AA@ 00449170     LIBCMT:winapinls.obj
 0002:00009178       ??_C@_15FOMCIDHG@?$AAd?$AAa?$AA?$AA@ 00449178     LIBCMT:winapinls.obj
 0002:00009180       ??_C@_15NBKABECB@?$AAd?$AAe?$AA?$AA@ 00449180     LIBCMT:winapinls.obj
 0002:00009188       ??_C@_15GHPEIIAO@?$AAe?$AAl?$AA?$AA@ 00449188     LIBCMT:winapinls.obj
 0002:00009190       ??_C@_15MNPNEAIF@?$AAe?$AAn?$AA?$AA@ 00449190     LIBCMT:winapinls.obj
 0002:00009198       ??_C@_15GPIOMPMH@?$AAe?$AAs?$AA?$AA@ 00449198     LIBCMT:winapinls.obj
 0002:000091a0       ??_C@_15NGLOAKJC@?$AAf?$AAi?$AA?$AA@ 004491a0     LIBCMT:winapinls.obj
 0002:000091a8       ??_C@_15FBKGNKAM@?$AAf?$AAr?$AA?$AA@ 004491a8     LIBCMT:winapinls.obj
 0002:000091b0       ??_C@_15KGGCNEFK@?$AAh?$AAe?$AA?$AA@ 004491b0     LIBCMT:winapinls.obj
 0002:000091b8       ??_C@_15PGHLIDMF@?$AAh?$AAu?$AA?$AA@ 004491b8     LIBCMT:winapinls.obj
 0002:000091c0       ??_C@_15BIEMAPLM@?$AAi?$AAs?$AA?$AA@ 004491c0     LIBCMT:winapinls.obj
 0002:000091c8       ??_C@_15IFJLDHAF@?$AAi?$AAt?$AA?$AA@ 004491c8     LIBCMT:winapinls.obj
 0002:000091d0       ??_C@_15GEMIOCAG@?$AAj?$AAa?$AA?$AA@ 004491d0     LIBCMT:winapinls.obj
 0002:000091d8       ??_C@_15EPELEGJA@?$AAk?$AAo?$AA?$AA@ 004491d8     LIBCMT:winapinls.obj
 0002:000091e0       ??_C@_15NDDHIMN@?$AAn?$AAl?$AA?$AA@ 004491e0     LIBCMT:winapinls.obj
 0002:000091e8       ??_C@_15BPIGNHCD@?$AAn?$AAo?$AA?$AA@ 004491e8     LIBCMT:winapinls.obj
 0002:000091f0       ??_C@_15DEOPBLCG@?$AAp?$AAl?$AA?$AA@ 004491f0     LIBCMT:winapinls.obj
 0002:000091f8       ??_C@_15KBECGEFG@?$AAp?$AAt?$AA?$AA@ 004491f8     LIBCMT:winapinls.obj
 0002:00009200       ??_C@_15GLJCBFMD@?$AAr?$AAo?$AA?$AA@ 00449200     LIBCMT:winapinls.obj
 0002:00009208       ??_C@_15FEDGKCDI@?$AAr?$AAu?$AA?$AA@ 00449208     LIBCMT:winapinls.obj
 0002:00009210       ??_C@_15GLKMLLHM@?$AAh?$AAr?$AA?$AA@ 00449210     LIBCMT:winapinls.obj
 0002:00009218       ??_C@_15CPKMFBDB@?$AAs?$AAk?$AA?$AA@ 00449218     LIBCMT:winapinls.obj
 0002:00009220       ??_C@_15BAAIOGMK@?$AAs?$AAq?$AA?$AA@ 00449220     LIBCMT:winapinls.obj
 0002:00009228       ??_C@_15INNPNOHD@?$AAs?$AAv?$AA?$AA@ 00449228     LIBCMT:winapinls.obj
 0002:00009230       ??_C@_15CABMMOGH@?$AAt?$AAh?$AA?$AA@ 00449230     LIBCMT:winapinls.obj
 0002:00009238       ??_C@_15BPLIHJJM@?$AAt?$AAr?$AA?$AA@ 00449238     LIBCMT:winapinls.obj
 0002:00009240       ??_C@_15NEOEKKDJ@?$AAu?$AAr?$AA?$AA@ 00449240     LIBCMT:winapinls.obj
 0002:00009248       ??_C@_15NFICGAJK@?$AAi?$AAd?$AA?$AA@ 00449248     LIBCMT:winapinls.obj
 0002:00009250       ??_C@_15HPJPHDM@?$AAb?$AAe?$AA?$AA@ 00449250     LIBCMT:winapinls.obj
 0002:00009258       ??_C@_15LCHLGJII@?$AAs?$AAl?$AA?$AA@ 00449258     LIBCMT:winapinls.obj
 0002:00009260       ??_C@_15PCFJPHHO@?$AAe?$AAt?$AA?$AA@ 00449260     LIBCMT:winapinls.obj
 0002:00009268       ??_C@_15HPFPGODN@?$AAl?$AAv?$AA?$AA@ 00449268     LIBCMT:winapinls.obj
 0002:00009270       ??_C@_15NFFGKGLG@?$AAl?$AAt?$AA?$AA@ 00449270     LIBCMT:winapinls.obj
 0002:00009278       ??_C@_15BDAKCCHN@?$AAf?$AAa?$AA?$AA@ 00449278     LIBCMT:winapinls.obj
 0002:00009280       ??_C@_15NFGIAIAJ@?$AAv?$AAi?$AA?$AA@ 00449280     LIBCMT:winapinls.obj
 0002:00009288       ??_C@_15LMKNDMHN@?$AAh?$AAy?$AA?$AA@ 00449288     LIBCMT:winapinls.obj
 0002:00009290       ??_C@_15IJBHMCFL@?$AAa?$AAz?$AA?$AA@ 00449290     LIBCMT:winapinls.obj
 0002:00009298       ??_C@_15EKOFJABL@?$AAe?$AAu?$AA?$AA@ 00449298     LIBCMT:winapinls.obj
 0002:000092a0       ??_C@_15BGHADCNK@?$AAm?$AAk?$AA?$AA@ 004492a0     LIBCMT:winapinls.obj
 0002:000092a8       ??_C@_15JDNICKHM@?$AAa?$AAf?$AA?$AA@ 004492a8     LIBCMT:winapinls.obj
 0002:000092b0       ??_C@_15KPJEDBKD@?$AAk?$AAa?$AA?$AA@ 004492b0     LIBCMT:winapinls.obj
 0002:000092b8       ??_C@_15PDNFFFEO@?$AAf?$AAo?$AA?$AA@ 004492b8     LIBCMT:winapinls.obj
 0002:000092c0       ??_C@_15OMLEGLOC@?$AAh?$AAi?$AA?$AA@ 004492c0     LIBCMT:winapinls.obj
 0002:000092c8       ??_C@_15IDNNENKK@?$AAm?$AAs?$AA?$AA@ 004492c8     LIBCMT:winapinls.obj
 0002:000092d0       ??_C@_15MACJNBMH@?$AAk?$AAk?$AA?$AA@ 004492d0     LIBCMT:winapinls.obj
 0002:000092d8       ??_C@_15DKDJEOND@?$AAk?$AAy?$AA?$AA@ 004492d8     LIBCMT:winapinls.obj
 0002:000092e0       ??_C@_15DFGDLJBG@?$AAs?$AAw?$AA?$AA@ 004492e0     LIBCMT:winapinls.obj
 0002:000092e8       ??_C@_15BBFAICNG@?$AAu?$AAz?$AA?$AA@ 004492e8     LIBCMT:winapinls.obj
 0002:000092f0       ??_C@_15DKNDCGEA@?$AAt?$AAt?$AA?$AA@ 004492f0     LIBCMT:winapinls.obj
 0002:000092f8       ??_C@_15MGIFMDPL@?$AAp?$AAa?$AA?$AA@ 004492f8     LIBCMT:winapinls.obj
 0002:00009300       ??_C@_15HCNDBBA@?$AAg?$AAu?$AA?$AA@ 00449300     LIBCMT:winapinls.obj
 0002:00009308       ??_C@_15FNBEIBON@?$AAt?$AAa?$AA?$AA@ 00449308     LIBCMT:winapinls.obj
 0002:00009310       ??_C@_15NCHGBGLK@?$AAt?$AAe?$AA?$AA@ 00449310     LIBCMT:winapinls.obj
 0002:00009318       ??_C@_15PHPHCBPF@?$AAk?$AAn?$AA?$AA@ 00449318     LIBCMT:winapinls.obj
 0002:00009320       ??_C@_15DLGBCKMP@?$AAm?$AAr?$AA?$AA@ 00449320     LIBCMT:winapinls.obj
 0002:00009328       ??_C@_15EABBLBFF@?$AAs?$AAa?$AA?$AA@ 00449328     LIBCMT:winapinls.obj
 0002:00009330       ??_C@_15CBKOMCOI@?$AAm?$AAn?$AA?$AA@ 00449330     LIBCMT:winapinls.obj
 0002:00009338       ??_C@_15CKDMCJAF@?$AAg?$AAl?$AA?$AA@ 00449338     LIBCMT:winapinls.obj
 0002:00009340       ??_C@_17CNJFBPG@?$AAk?$AAo?$AAk?$AA?$AA@ 00449340     LIBCMT:winapinls.obj
 0002:00009348       ??_C@_17FFBJICPL@?$AAs?$AAy?$AAr?$AA?$AA@ 00449348     LIBCMT:winapinls.obj
 0002:00009350       ??_C@_17KPNDCPAF@?$AAd?$AAi?$AAv?$AA?$AA@ 00449350     LIBCMT:winapinls.obj
 0002:00009358       ??_C@_1M@OKAHONE@?$AAa?$AAr?$AA?9?$AAS?$AAA?$AA?$AA@ 00449358     LIBCMT:winapinls.obj
 0002:00009364       ??_C@_1M@FFFIGIGK@?$AAb?$AAg?$AA?9?$AAB?$AAG?$AA?$AA@ 00449364     LIBCMT:winapinls.obj
 0002:00009370       ??_C@_1M@BJNKEDC@?$AAc?$AAa?$AA?9?$AAE?$AAS?$AA?$AA@ 00449370     LIBCMT:winapinls.obj
 0002:0000937c       ??_C@_1M@IJJHFJHA@?$AAc?$AAs?$AA?9?$AAC?$AAZ?$AA?$AA@ 0044937c     LIBCMT:winapinls.obj
 0002:00009388       ??_C@_1M@CLPEOBGI@?$AAd?$AAa?$AA?9?$AAD?$AAK?$AA?$AA@ 00449388     LIBCMT:winapinls.obj
 0002:00009394       ??_C@_1M@MCMADGCB@?$AAd?$AAe?$AA?9?$AAD?$AAE?$AA?$AA@ 00449394     LIBCMT:winapinls.obj
 0002:000093a0       ??_C@_1M@OOCKEMAM@?$AAe?$AAl?$AA?9?$AAG?$AAR?$AA?$AA@ 004493a0     LIBCMT:winapinls.obj
 0002:000093ac       ??_C@_1M@DDNJFGID@?$AAf?$AAi?$AA?9?$AAF?$AAI?$AA?$AA@ 004493ac     LIBCMT:winapinls.obj
 0002:000093b8       ??_C@_1M@GLIPPMAC@?$AAf?$AAr?$AA?9?$AAF?$AAR?$AA?$AA@ 004493b8     LIBCMT:winapinls.obj
 0002:000093c4       ??_C@_1M@GFMCHPE@?$AAh?$AAe?$AA?9?$AAI?$AAL?$AA?$AA@ 004493c4     LIBCMT:winapinls.obj
 0002:000093d0       ??_C@_1M@MHLPGNKM@?$AAh?$AAu?$AA?9?$AAH?$AAU?$AA?$AA@ 004493d0     LIBCMT:winapinls.obj
 0002:000093dc       ??_C@_1M@LPDDNNPN@?$AAi?$AAs?$AA?9?$AAI?$AAS?$AA?$AA@ 004493dc     LIBCMT:winapinls.obj
 0002:000093e8       ??_C@_1M@MADIPODN@?$AAi?$AAt?$AA?9?$AAI?$AAT?$AA?$AA@ 004493e8     LIBCMT:winapinls.obj
 0002:000093f4       ??_C@_1M@IHBJJGG@?$AAn?$AAl?$AA?9?$AAN?$AAL?$AA?$AA@ 004493f4     LIBCMT:winapinls.obj
 0002:00009400       ??_C@_1M@EANAGDL@?$AAn?$AAb?$AA?9?$AAN?$AAO?$AA?$AA@ 00449400     LIBCMT:winapinls.obj
 0002:0000940c       ??_C@_1M@NEIEMEGP@?$AAp?$AAl?$AA?9?$AAP?$AAL?$AA?$AA@ 0044940c     LIBCMT:winapinls.obj
 0002:00009418       ??_C@_1M@BOCFIGEP@?$AAp?$AAt?$AA?9?$AAB?$AAR?$AA?$AA@ 00449418     LIBCMT:winapinls.obj
 0002:00009424       ??_C@_1M@IMPFOPBG@?$AAr?$AAo?$AA?9?$AAR?$AAO?$AA?$AA@ 00449424     LIBCMT:winapinls.obj
 0002:00009430       ??_C@_1M@IDNNEJMM@?$AAr?$AAu?$AA?9?$AAR?$AAU?$AA?$AA@ 00449430     LIBCMT:winapinls.obj
 0002:0000943c       ??_C@_1M@LILEEOGM@?$AAh?$AAr?$AA?9?$AAH?$AAR?$AA?$AA@ 0044943c     LIBCMT:winapinls.obj
 0002:00009448       ??_C@_1M@FKIFEHPB@?$AAs?$AAk?$AA?9?$AAS?$AAK?$AA?$AA@ 00449448     LIBCMT:winapinls.obj
 0002:00009454       ??_C@_1M@LJMAMNPJ@?$AAs?$AAq?$AA?9?$AAA?$AAL?$AA?$AA@ 00449454     LIBCMT:winapinls.obj
 0002:00009460       ??_C@_1M@GIAKDKJK@?$AAs?$AAv?$AA?9?$AAS?$AAE?$AA?$AA@ 00449460     LIBCMT:winapinls.obj
 0002:0000946c       ??_C@_1M@MKJKIKCL@?$AAt?$AAh?$AA?9?$AAT?$AAH?$AA?$AA@ 0044946c     LIBCMT:winapinls.obj
 0002:00009478       ??_C@_1M@MFLCCMPB@?$AAt?$AAr?$AA?9?$AAT?$AAR?$AA?$AA@ 00449478     LIBCMT:winapinls.obj
 0002:00009484       ??_C@_1M@OIJHDKJN@?$AAu?$AAr?$AA?9?$AAP?$AAK?$AA?$AA@ 00449484     LIBCMT:winapinls.obj
 0002:00009490       ??_C@_1M@LHIPCIEK@?$AAi?$AAd?$AA?9?$AAI?$AAD?$AA?$AA@ 00449490     LIBCMT:winapinls.obj
 0002:0000949c       ??_C@_1M@MFMOBGI@?$AAu?$AAk?$AA?9?$AAU?$AAA?$AA?$AA@ 0044949c     LIBCMT:winapinls.obj
 0002:000094a8       ??_C@_1M@OBGLJIPL@?$AAb?$AAe?$AA?9?$AAB?$AAY?$AA?$AA@ 004494a8     LIBCMT:winapinls.obj
 0002:000094b4       ??_C@_1M@BCFAJEAD@?$AAs?$AAl?$AA?9?$AAS?$AAI?$AA?$AA@ 004494b4     LIBCMT:winapinls.obj
 0002:000094c0       ??_C@_1M@FKFFEDDN@?$AAe?$AAt?$AA?9?$AAE?$AAE?$AA?$AA@ 004494c0     LIBCMT:winapinls.obj
 0002:000094cc       ??_C@_1M@KGKKAACI@?$AAl?$AAv?$AA?9?$AAL?$AAV?$AA?$AA@ 004494cc     LIBCMT:winapinls.obj
 0002:000094d8       ??_C@_1M@IFGBIJO@?$AAl?$AAt?$AA?9?$AAL?$AAT?$AA?$AA@ 004494d8     LIBCMT:winapinls.obj
 0002:000094e4       ??_C@_1M@FGEAHEDM@?$AAf?$AAa?$AA?9?$AAI?$AAR?$AA?$AA@ 004494e4     LIBCMT:winapinls.obj
 0002:000094f0       ??_C@_1M@KBMAIBFN@?$AAv?$AAi?$AA?9?$AAV?$AAN?$AA?$AA@ 004494f0     LIBCMT:winapinls.obj
 0002:000094fc       ??_C@_1M@GPCBKDJK@?$AAh?$AAy?$AA?9?$AAA?$AAM?$AA?$AA@ 004494fc     LIBCMT:winapinls.obj
 0002:00009508       ??_C@_1BG@BECMDDJB@?$AAa?$AAz?$AA?9?$AAA?$AAZ?$AA?9?$AAL?$AAa?$AAt?$AAn?$AA?$AA@ 00449508     LIBCMT:winapinls.obj
 0002:00009520       ??_C@_1M@MAOFCAEA@?$AAe?$AAu?$AA?9?$AAE?$AAS?$AA?$AA@ 00449520     LIBCMT:winapinls.obj
 0002:0000952c       ??_C@_1M@IGHABKPI@?$AAm?$AAk?$AA?9?$AAM?$AAK?$AA?$AA@ 0044952c     LIBCMT:winapinls.obj
 0002:00009538       ??_C@_1M@IAIGNEJG@?$AAt?$AAn?$AA?9?$AAZ?$AAA?$AA?$AA@ 00449538     LIBCMT:winapinls.obj
 0002:00009544       ??_C@_1M@IIJCOJFA@?$AAx?$AAh?$AA?9?$AAZ?$AAA?$AA?$AA@ 00449544     LIBCMT:winapinls.obj
 0002:00009550       ??_C@_1M@LGPJHNJH@?$AAz?$AAu?$AA?9?$AAZ?$AAA?$AA?$AA@ 00449550     LIBCMT:winapinls.obj
 0002:0000955c       ??_C@_1M@HOKAOIO@?$AAa?$AAf?$AA?9?$AAZ?$AAA?$AA?$AA@ 0044955c     LIBCMT:winapinls.obj
 0002:00009568       ??_C@_1M@DPCLHLIE@?$AAk?$AAa?$AA?9?$AAG?$AAE?$AA?$AA@ 00449568     LIBCMT:winapinls.obj
 0002:00009574       ??_C@_1M@BLKMHJBI@?$AAf?$AAo?$AA?9?$AAF?$AAO?$AA?$AA@ 00449574     LIBCMT:winapinls.obj
 0002:00009580       ??_C@_1M@LGGJAPPB@?$AAh?$AAi?$AA?9?$AAI?$AAN?$AA?$AA@ 00449580     LIBCMT:winapinls.obj
 0002:0000958c       ??_C@_1M@FIKPIHFE@?$AAm?$AAt?$AA?9?$AAM?$AAT?$AA?$AA@ 0044958c     LIBCMT:winapinls.obj
 0002:00009598       ??_C@_1M@HEGGPBFA@?$AAs?$AAe?$AA?9?$AAN?$AAO?$AA?$AA@ 00449598     LIBCMT:winapinls.obj
 0002:000095a4       ??_C@_1M@EIBJEEPA@?$AAm?$AAs?$AA?9?$AAM?$AAY?$AA?$AA@ 004495a4     LIBCMT:winapinls.obj
 0002:000095b0       ??_C@_1M@FHLBGMPP@?$AAk?$AAk?$AA?9?$AAK?$AAZ?$AA?$AA@ 004495b0     LIBCMT:winapinls.obj
 0002:000095bc       ??_C@_1M@NGJJLCGI@?$AAk?$AAy?$AA?9?$AAK?$AAG?$AA?$AA@ 004495bc     LIBCMT:winapinls.obj
 0002:000095c8       ??_C@_1M@GIENNBFC@?$AAs?$AAw?$AA?9?$AAK?$AAE?$AA?$AA@ 004495c8     LIBCMT:winapinls.obj
 0002:000095d4       ??_C@_1BG@NDGMJIMJ@?$AAu?$AAz?$AA?9?$AAU?$AAZ?$AA?9?$AAL?$AAa?$AAt?$AAn?$AA?$AA@ 004495d4     LIBCMT:winapinls.obj
 0002:000095ec       ??_C@_1M@IDCCIHBC@?$AAt?$AAt?$AA?9?$AAR?$AAU?$AA?$AA@ 004495ec     LIBCMT:winapinls.obj
 0002:000095f8       ??_C@_1M@LOICPMOJ@?$AAb?$AAn?$AA?9?$AAI?$AAN?$AA?$AA@ 004495f8     LIBCMT:winapinls.obj
 0002:00009604       ??_C@_1M@KPKKNEAH@?$AAp?$AAa?$AA?9?$AAI?$AAN?$AA?$AA@ 00449604     LIBCMT:winapinls.obj
 0002:00009610       ??_C@_1M@PJGPPBOG@?$AAg?$AAu?$AA?9?$AAI?$AAN?$AA?$AA@ 00449610     LIBCMT:winapinls.obj
 0002:0000961c       ??_C@_1M@KMKMOPHI@?$AAt?$AAa?$AA?9?$AAI?$AAN?$AA?$AA@ 0044961c     LIBCMT:winapinls.obj
 0002:00009628       ??_C@_1M@KFEHEPAC@?$AAt?$AAe?$AA?9?$AAI?$AAN?$AA?$AA@ 00449628     LIBCMT:winapinls.obj
 0002:00009634       ??_C@_1M@CDCLMGHI@?$AAk?$AAn?$AA?9?$AAI?$AAN?$AA?$AA@ 00449634     LIBCMT:winapinls.obj
 0002:00009640       ??_C@_1M@MIODLDKF@?$AAm?$AAl?$AA?9?$AAI?$AAN?$AA?$AA@ 00449640     LIBCMT:winapinls.obj
 0002:0000964c       ??_C@_1M@PBIEACPO@?$AAm?$AAr?$AA?9?$AAI?$AAN?$AA?$AA@ 0044964c     LIBCMT:winapinls.obj
 0002:00009658       ??_C@_1M@NIDEAGPH@?$AAs?$AAa?$AA?9?$AAI?$AAN?$AA?$AA@ 00449658     LIBCMT:winapinls.obj
 0002:00009664       ??_C@_1M@FHIHCBIO@?$AAm?$AAn?$AA?9?$AAM?$AAN?$AA?$AA@ 00449664     LIBCMT:winapinls.obj
 0002:00009670       ??_C@_1M@JAIJPENP@?$AAc?$AAy?$AA?9?$AAG?$AAB?$AA?$AA@ 00449670     LIBCMT:winapinls.obj
 0002:0000967c       ??_C@_1M@PHGFBEPN@?$AAg?$AAl?$AA?9?$AAE?$AAS?$AA?$AA@ 0044967c     LIBCMT:winapinls.obj
 0002:00009688       ??_C@_1O@KPIPDNCP@?$AAk?$AAo?$AAk?$AA?9?$AAI?$AAN?$AA?$AA@ 00449688     LIBCMT:winapinls.obj
 0002:00009698       ??_C@_1O@KNHJLDJA@?$AAs?$AAy?$AAr?$AA?9?$AAS?$AAY?$AA?$AA@ 00449698     LIBCMT:winapinls.obj
 0002:000096a8       ??_C@_1O@MKEKBLAH@?$AAd?$AAi?$AAv?$AA?9?$AAM?$AAV?$AA?$AA@ 004496a8     LIBCMT:winapinls.obj
 0002:000096b8       ??_C@_1O@OHDCKDDF@?$AAq?$AAu?$AAz?$AA?9?$AAB?$AAO?$AA?$AA@ 004496b8     LIBCMT:winapinls.obj
 0002:000096c8       ??_C@_1M@LEPJNLFD@?$AAn?$AAs?$AA?9?$AAZ?$AAA?$AA?$AA@ 004496c8     LIBCMT:winapinls.obj
 0002:000096d4       ??_C@_1M@OMLEIIJB@?$AAm?$AAi?$AA?9?$AAN?$AAZ?$AA?$AA@ 004496d4     LIBCMT:winapinls.obj
 0002:000096e0       ??_C@_1M@PMPEAILG@?$AAa?$AAr?$AA?9?$AAI?$AAQ?$AA?$AA@ 004496e0     LIBCMT:winapinls.obj
 0002:000096ec       ??_C@_1M@CNKPNOEE@?$AAd?$AAe?$AA?9?$AAC?$AAH?$AA?$AA@ 004496ec     LIBCMT:winapinls.obj
 0002:000096f8       ??_C@_1M@LKMGMLKO@?$AAe?$AAn?$AA?9?$AAG?$AAB?$AA?$AA@ 004496f8     LIBCMT:winapinls.obj
 0002:00009704       ??_C@_1M@PGKJFFGL@?$AAe?$AAs?$AA?9?$AAM?$AAX?$AA?$AA@ 00449704     LIBCMT:winapinls.obj
 0002:00009710       ??_C@_1M@DNNANBDC@?$AAf?$AAr?$AA?9?$AAB?$AAE?$AA?$AA@ 00449710     LIBCMT:winapinls.obj
 0002:0000971c       ??_C@_1M@HLGMDFHM@?$AAi?$AAt?$AA?9?$AAC?$AAH?$AA?$AA@ 0044971c     LIBCMT:winapinls.obj
 0002:00009728       ??_C@_1M@CLLBGJH@?$AAn?$AAl?$AA?9?$AAB?$AAE?$AA?$AA@ 00449728     LIBCMT:winapinls.obj
 0002:00009734       ??_C@_1M@BODBOGLF@?$AAn?$AAn?$AA?9?$AAN?$AAO?$AA?$AA@ 00449734     LIBCMT:winapinls.obj
 0002:00009740       ??_C@_1M@HFFAHKAD@?$AAp?$AAt?$AA?9?$AAP?$AAT?$AA?$AA@ 00449740     LIBCMT:winapinls.obj
 0002:0000974c       ??_C@_1BG@LNOAKHIE@?$AAs?$AAr?$AA?9?$AAS?$AAP?$AA?9?$AAL?$AAa?$AAt?$AAn?$AA?$AA@ 0044974c     LIBCMT:winapinls.obj
 0002:00009764       ??_C@_1M@HBMHBGAK@?$AAs?$AAv?$AA?9?$AAF?$AAI?$AA?$AA@ 00449764     LIBCMT:winapinls.obj
 0002:00009770       ??_C@_1BG@DGCJGJBE@?$AAa?$AAz?$AA?9?$AAA?$AAZ?$AA?9?$AAC?$AAy?$AAr?$AAl?$AA?$AA@ 00449770     LIBCMT:winapinls.obj
 0002:00009788       ??_C@_1M@KEJDAAHB@?$AAs?$AAe?$AA?9?$AAS?$AAE?$AA?$AA@ 00449788     LIBCMT:winapinls.obj
 0002:00009794       ??_C@_1M@HEIBJJAD@?$AAm?$AAs?$AA?9?$AAB?$AAN?$AA?$AA@ 00449794     LIBCMT:winapinls.obj
 0002:000097a0       ??_C@_1BG@PBGJMCEM@?$AAu?$AAz?$AA?9?$AAU?$AAZ?$AA?9?$AAC?$AAy?$AAr?$AAl?$AA?$AA@ 004497a0     LIBCMT:winapinls.obj
 0002:000097b8       ??_C@_1O@LAOBCMDF@?$AAq?$AAu?$AAz?$AA?9?$AAE?$AAC?$AA?$AA@ 004497b8     LIBCMT:winapinls.obj
 0002:000097c8       ??_C@_1M@POEEMAIO@?$AAa?$AAr?$AA?9?$AAE?$AAG?$AA?$AA@ 004497c8     LIBCMT:winapinls.obj
 0002:000097d4       ??_C@_1M@EFAKDEDL@?$AAz?$AAh?$AA?9?$AAH?$AAK?$AA?$AA@ 004497d4     LIBCMT:winapinls.obj
 0002:000097e0       ??_C@_1M@HKKIJHGI@?$AAd?$AAe?$AA?9?$AAA?$AAT?$AA?$AA@ 004497e0     LIBCMT:winapinls.obj
 0002:000097ec       ??_C@_1M@KBFBEHJF@?$AAe?$AAn?$AA?9?$AAA?$AAU?$AA?$AA@ 004497ec     LIBCMT:winapinls.obj
 0002:000097f8       ??_C@_1M@MNPLFAAH@?$AAe?$AAs?$AA?9?$AAE?$AAS?$AA?$AA@ 004497f8     LIBCMT:winapinls.obj
 0002:00009804       ??_C@_1M@HJOOJFMA@?$AAf?$AAr?$AA?9?$AAC?$AAA?$AA?$AA@ 00449804     LIBCMT:winapinls.obj
 0002:00009810       ??_C@_1BG@JPOFPNAB@?$AAs?$AAr?$AA?9?$AAS?$AAP?$AA?9?$AAC?$AAy?$AAr?$AAl?$AA?$AA@ 00449810     LIBCMT:winapinls.obj
 0002:00009828       ??_C@_1M@LNFOCMOB@?$AAs?$AAe?$AA?9?$AAF?$AAI?$AA?$AA@ 00449828     LIBCMT:winapinls.obj
 0002:00009834       ??_C@_1O@MGJBOAMB@?$AAq?$AAu?$AAz?$AA?9?$AAP?$AAE?$AA?$AA@ 00449834     LIBCMT:winapinls.obj
 0002:00009844       ??_C@_1M@GJINLBOK@?$AAa?$AAr?$AA?9?$AAL?$AAY?$AA?$AA@ 00449844     LIBCMT:winapinls.obj
 0002:00009850       ??_C@_1M@GGMNHJNL@?$AAz?$AAh?$AA?9?$AAS?$AAG?$AA?$AA@ 00449850     LIBCMT:winapinls.obj
 0002:0000985c       ??_C@_1M@HOIKODND@?$AAd?$AAe?$AA?9?$AAL?$AAU?$AA?$AA@ 0044985c     LIBCMT:winapinls.obj
 0002:00009868       ??_C@_1M@DDOCCGFG@?$AAe?$AAn?$AA?9?$AAC?$AAA?$AA?$AA@ 00449868     LIBCMT:winapinls.obj
 0002:00009874       ??_C@_1M@BNOEMJLF@?$AAe?$AAs?$AA?9?$AAG?$AAT?$AA?$AA@ 00449874     LIBCMT:winapinls.obj
 0002:00009880       ??_C@_1M@EOGNKEK@?$AAf?$AAr?$AA?9?$AAC?$AAH?$AA?$AA@ 00449880     LIBCMT:winapinls.obj
 0002:0000988c       ??_C@_1M@FLIDJFHL@?$AAh?$AAr?$AA?9?$AAB?$AAA?$AA?$AA@ 0044988c     LIBCMT:winapinls.obj
 0002:00009898       ??_C@_1O@FMCELNAJ@?$AAs?$AAm?$AAj?$AA?9?$AAN?$AAO?$AA?$AA@ 00449898     LIBCMT:winapinls.obj
 0002:000098a8       ??_C@_1M@JHGLJMGJ@?$AAa?$AAr?$AA?9?$AAD?$AAZ?$AA?$AA@ 004498a8     LIBCMT:winapinls.obj
 0002:000098b4       ??_C@_1M@JKKFDCNP@?$AAz?$AAh?$AA?9?$AAM?$AAO?$AA?$AA@ 004498b4     LIBCMT:winapinls.obj
 0002:000098c0       ??_C@_1M@GEEFALPE@?$AAd?$AAe?$AA?9?$AAL?$AAI?$AA?$AA@ 004498c0     LIBCMT:winapinls.obj
 0002:000098cc       ??_C@_1M@IGEOFBG@?$AAe?$AAn?$AA?9?$AAN?$AAZ?$AA?$AA@ 004498cc     LIBCMT:winapinls.obj
 0002:000098d8       ??_C@_1M@KDBONEHP@?$AAe?$AAs?$AA?9?$AAC?$AAR?$AA?$AA@ 004498d8     LIBCMT:winapinls.obj
 0002:000098e4       ??_C@_1M@FHMDOHNN@?$AAf?$AAr?$AA?9?$AAL?$AAU?$AA?$AA@ 004498e4     LIBCMT:winapinls.obj
 0002:000098f0       ??_C@_1BG@NFKKMAFG@?$AAb?$AAs?$AA?9?$AAB?$AAA?$AA?9?$AAL?$AAa?$AAt?$AAn?$AA?$AA@ 004498f0     LIBCMT:winapinls.obj
 0002:00009908       ??_C@_1O@IMNBEMCI@?$AAs?$AAm?$AAj?$AA?9?$AAS?$AAE?$AA?$AA@ 00449908     LIBCMT:winapinls.obj
 0002:00009918       ??_C@_1M@DHHMBNDP@?$AAa?$AAr?$AA?9?$AAM?$AAA?$AA?$AA@ 00449918     LIBCMT:winapinls.obj
 0002:00009924       ??_C@_1M@BNBLJCGH@?$AAe?$AAn?$AA?9?$AAI?$AAE?$AA?$AA@ 00449924     LIBCMT:winapinls.obj
 0002:00009930       ??_C@_1M@GEPAFMDL@?$AAe?$AAs?$AA?9?$AAP?$AAA?$AA?$AA@ 00449930     LIBCMT:winapinls.obj
 0002:0000993c       ??_C@_1M@OJONDMDL@?$AAf?$AAr?$AA?9?$AAM?$AAC?$AA?$AA@ 0044993c     LIBCMT:winapinls.obj
 0002:00009948       ??_C@_1BG@OBCNFJB@?$AAs?$AAr?$AA?9?$AAB?$AAA?$AA?9?$AAL?$AAa?$AAt?$AAn?$AA?$AA@ 00449948     LIBCMT:winapinls.obj
 0002:00009960       ??_C@_1O@KEMEEGPO@?$AAs?$AAm?$AAa?$AA?9?$AAN?$AAO?$AA?$AA@ 00449960     LIBCMT:winapinls.obj
 0002:00009970       ??_C@_1M@ELMGFODK@?$AAa?$AAr?$AA?9?$AAT?$AAN?$AA?$AA@ 00449970     LIBCMT:winapinls.obj
 0002:0000997c       ??_C@_1M@BHDLHFAF@?$AAe?$AAn?$AA?9?$AAZ?$AAA?$AA?$AA@ 0044997c     LIBCMT:winapinls.obj
 0002:00009988       ??_C@_1M@BMGIGLIF@?$AAe?$AAs?$AA?9?$AAD?$AAO?$AA?$AA@ 00449988     LIBCMT:winapinls.obj
 0002:00009994       ??_C@_1BG@CMBHIPBE@?$AAs?$AAr?$AA?9?$AAB?$AAA?$AA?9?$AAC?$AAy?$AAr?$AAl?$AA?$AA@ 00449994     LIBCMT:winapinls.obj
 0002:000099ac       ??_C@_1O@HEDBLHNP@?$AAs?$AAm?$AAa?$AA?9?$AAS?$AAE?$AA?$AA@ 004499ac     LIBCMT:winapinls.obj
 0002:000099bc       ??_C@_1M@DAGCADIM@?$AAa?$AAr?$AA?9?$AAO?$AAM?$AA?$AA@ 004499bc     LIBCMT:winapinls.obj
 0002:000099c8       ??_C@_1M@FODLMICG@?$AAe?$AAn?$AA?9?$AAJ?$AAM?$AA?$AA@ 004499c8     LIBCMT:winapinls.obj
 0002:000099d4       ??_C@_1M@DNMLCIHB@?$AAe?$AAs?$AA?9?$AAV?$AAE?$AA?$AA@ 004499d4     LIBCMT:winapinls.obj
 0002:000099e0       ??_C@_1O@EOKHMKJK@?$AAs?$AAm?$AAs?$AA?9?$AAF?$AAI?$AA?$AA@ 004499e0     LIBCMT:winapinls.obj
 0002:000099f0       ??_C@_1M@CAFJMKOF@?$AAa?$AAr?$AA?9?$AAY?$AAE?$AA?$AA@ 004499f0     LIBCMT:winapinls.obj
 0002:000099fc       ??_C@_1M@CBFHIJLI@?$AAe?$AAn?$AA?9?$AAC?$AAB?$AA?$AA@ 004499fc     LIBCMT:winapinls.obj
 0002:00009a08       ??_C@_1M@BGNFLDN@?$AAe?$AAs?$AA?9?$AAC?$AAO?$AA?$AA@ 00449a08     LIBCMT:winapinls.obj
 0002:00009a14       ??_C@_1O@JMPHMAMC@?$AAs?$AAm?$AAn?$AA?9?$AAF?$AAI?$AA?$AA@ 00449a14     LIBCMT:winapinls.obj
 0002:00009a24       ??_C@_1M@JLANABKE@?$AAa?$AAr?$AA?9?$AAS?$AAY?$AA?$AA@ 00449a24     LIBCMT:winapinls.obj
 0002:00009a30       ??_C@_1M@HPKGCFGN@?$AAe?$AAn?$AA?9?$AAB?$AAZ?$AA?$AA@ 00449a30     LIBCMT:winapinls.obj
 0002:00009a3c       ??_C@_1M@OLJCMLGM@?$AAe?$AAs?$AA?9?$AAP?$AAE?$AA?$AA@ 00449a3c     LIBCMT:winapinls.obj
 0002:00009a48       ??_C@_1M@MKKGFKLE@?$AAa?$AAr?$AA?9?$AAJ?$AAO?$AA?$AA@ 00449a48     LIBCMT:winapinls.obj
 0002:00009a54       ??_C@_1M@EKPGLDNI@?$AAe?$AAn?$AA?9?$AAT?$AAT?$AA?$AA@ 00449a54     LIBCMT:winapinls.obj
 0002:00009a60       ??_C@_1M@OONGHFHE@?$AAe?$AAs?$AA?9?$AAA?$AAR?$AA?$AA@ 00449a60     LIBCMT:winapinls.obj
 0002:00009a6c       ??_C@_1M@OOJFGBHE@?$AAa?$AAr?$AA?9?$AAL?$AAB?$AA?$AA@ 00449a6c     LIBCMT:winapinls.obj
 0002:00009a78       ??_C@_1M@GCEJHNEG@?$AAe?$AAn?$AA?9?$AAZ?$AAW?$AA?$AA@ 00449a78     LIBCMT:winapinls.obj
 0002:00009a84       ??_C@_1M@JNOCAHJI@?$AAe?$AAs?$AA?9?$AAE?$AAC?$AA?$AA@ 00449a84     LIBCMT:winapinls.obj
 0002:00009a90       ??_C@_1M@JEFHPGGB@?$AAa?$AAr?$AA?9?$AAK?$AAW?$AA?$AA@ 00449a90     LIBCMT:winapinls.obj
 0002:00009a9c       ??_C@_1M@MLKIBJOJ@?$AAe?$AAn?$AA?9?$AAP?$AAH?$AA?$AA@ 00449a9c     LIBCMT:winapinls.obj
 0002:00009aa8       ??_C@_1M@BDNIPEND@?$AAe?$AAs?$AA?9?$AAC?$AAL?$AA?$AA@ 00449aa8     LIBCMT:winapinls.obj
 0002:00009ab4       ??_C@_1M@MPNMEKBD@?$AAa?$AAr?$AA?9?$AAA?$AAE?$AA?$AA@ 00449ab4     LIBCMT:winapinls.obj
 0002:00009ac0       ??_C@_1M@KBJALCPI@?$AAe?$AAs?$AA?9?$AAU?$AAY?$AA?$AA@ 00449ac0     LIBCMT:winapinls.obj
 0002:00009acc       ??_C@_1M@LLCCOAGA@?$AAa?$AAr?$AA?9?$AAB?$AAH?$AA?$AA@ 00449acc     LIBCMT:winapinls.obj
 0002:00009ad8       ??_C@_1M@PBFNCDEL@?$AAe?$AAs?$AA?9?$AAP?$AAY?$AA?$AA@ 00449ad8     LIBCMT:winapinls.obj
 0002:00009ae4       ??_C@_1M@EDGINPNP@?$AAa?$AAr?$AA?9?$AAQ?$AAA?$AA?$AA@ 00449ae4     LIBCMT:winapinls.obj
 0002:00009af0       ??_C@_1M@MKDBIIJI@?$AAe?$AAs?$AA?9?$AAB?$AAO?$AA?$AA@ 00449af0     LIBCMT:winapinls.obj
 0002:00009afc       ??_C@_1M@CPKKEBLD@?$AAe?$AAs?$AA?9?$AAS?$AAV?$AA?$AA@ 00449afc     LIBCMT:winapinls.obj
 0002:00009b08       ??_C@_1M@NDBGMMJL@?$AAe?$AAs?$AA?9?$AAH?$AAN?$AA?$AA@ 00449b08     LIBCMT:winapinls.obj
 0002:00009b14       ??_C@_1M@JIJIBHDP@?$AAe?$AAs?$AA?9?$AAN?$AAI?$AA?$AA@ 00449b14     LIBCMT:winapinls.obj
 0002:00009b20       ??_C@_1M@CGFMKEEK@?$AAe?$AAs?$AA?9?$AAP?$AAR?$AA?$AA@ 00449b20     LIBCMT:winapinls.obj
 0002:00009b2c       ??_C@_1O@ICJHKIIK@?$AAz?$AAh?$AA?9?$AAC?$AAH?$AAT?$AA?$AA@ 00449b2c     LIBCMT:winapinls.obj
 0002:00009b3c       ??_C@_15CLNEJCE@?$AAs?$AAr?$AA?$AA@ 00449b3c     LIBCMT:winapinls.obj
 0002:00009b44       ??_C@_1M@KAHEKEIG@?$AAa?$AAf?$AA?9?$AAz?$AAa?$AA?$AA@ 00449b44     LIBCMT:winapinls.obj
 0002:00009b50       ??_C@_1M@GIECOABL@?$AAa?$AAr?$AA?9?$AAa?$AAe?$AA?$AA@ 00449b50     LIBCMT:winapinls.obj
 0002:00009b5c       ??_C@_1M@BMLMEKGI@?$AAa?$AAr?$AA?9?$AAb?$AAh?$AA?$AA@ 00449b5c     LIBCMT:winapinls.obj
 0002:00009b68       ??_C@_1M@DAPFDGGB@?$AAa?$AAr?$AA?9?$AAd?$AAz?$AA?$AA@ 00449b68     LIBCMT:winapinls.obj
 0002:00009b74       ??_C@_1M@FJNKGKIG@?$AAa?$AAr?$AA?9?$AAe?$AAg?$AA?$AA@ 00449b74     LIBCMT:winapinls.obj
 0002:00009b80       ??_C@_1M@FLGKKCLO@?$AAa?$AAr?$AA?9?$AAi?$AAq?$AA?$AA@ 00449b80     LIBCMT:winapinls.obj
 0002:00009b8c       ??_C@_1M@GNDIPALM@?$AAa?$AAr?$AA?9?$AAj?$AAo?$AA?$AA@ 00449b8c     LIBCMT:winapinls.obj
 0002:00009b98       ??_C@_1M@DDMJFMGJ@?$AAa?$AAr?$AA?9?$AAk?$AAw?$AA?$AA@ 00449b98     LIBCMT:winapinls.obj
 0002:00009ba4       ??_C@_1M@EJALMLHM@?$AAa?$AAr?$AA?9?$AAl?$AAb?$AA?$AA@ 00449ba4     LIBCMT:winapinls.obj
 0002:00009bb0       ??_C@_1M@MOBDBLOC@?$AAa?$AAr?$AA?9?$AAl?$AAy?$AA?$AA@ 00449bb0     LIBCMT:winapinls.obj
 0002:00009bbc       ??_C@_1M@JAOCLHDH@?$AAa?$AAr?$AA?9?$AAm?$AAa?$AA?$AA@ 00449bbc     LIBCMT:winapinls.obj
 0002:00009bc8       ??_C@_1M@JHPMKJIE@?$AAa?$AAr?$AA?9?$AAo?$AAm?$AA?$AA@ 00449bc8     LIBCMT:winapinls.obj
 0002:00009bd4       ??_C@_1M@OEPGHFNH@?$AAa?$AAr?$AA?9?$AAq?$AAa?$AA?$AA@ 00449bd4     LIBCMT:winapinls.obj
 0002:00009be0       ??_C@_1M@KJDONENM@?$AAa?$AAr?$AA?9?$AAs?$AAa?$AA?$AA@ 00449be0     LIBCMT:winapinls.obj
 0002:00009bec       ??_C@_1M@DMJDKLKM@?$AAa?$AAr?$AA?9?$AAs?$AAy?$AA?$AA@ 00449bec     LIBCMT:winapinls.obj
 0002:00009bf8       ??_C@_1M@OMFIPEDC@?$AAa?$AAr?$AA?9?$AAt?$AAn?$AA?$AA@ 00449bf8     LIBCMT:winapinls.obj
 0002:00009c04       ??_C@_1M@IHMHGAON@?$AAa?$AAr?$AA?9?$AAy?$AAe?$AA?$AA@ 00449c04     LIBCMT:winapinls.obj
 0002:00009c10       ??_C@_1BG@KDCPGJGB@?$AAa?$AAz?$AA?9?$AAa?$AAz?$AA?9?$AAc?$AAy?$AAr?$AAl?$AA?$AA@ 00449c10     LIBCMT:winapinls.obj
 0002:00009c28       ??_C@_1BG@IBCKDDOE@?$AAa?$AAz?$AA?9?$AAa?$AAz?$AA?9?$AAl?$AAa?$AAt?$AAn?$AA?$AA@ 00449c28     LIBCMT:winapinls.obj
 0002:00009c40       ??_C@_1M@EGPFDCPD@?$AAb?$AAe?$AA?9?$AAb?$AAy?$AA?$AA@ 00449c40     LIBCMT:winapinls.obj
 0002:00009c4c       ??_C@_1M@PCMGMCGC@?$AAb?$AAg?$AA?9?$AAb?$AAg?$AA?$AA@ 00449c4c     LIBCMT:winapinls.obj
 0002:00009c58       ??_C@_1M@BJBMFGOB@?$AAb?$AAn?$AA?9?$AAi?$AAn?$AA?$AA@ 00449c58     LIBCMT:winapinls.obj
 0002:00009c64       ??_C@_1BG@EAKMMACD@?$AAb?$AAs?$AA?9?$AAb?$AAa?$AA?9?$AAl?$AAa?$AAt?$AAn?$AA?$AA@ 00449c64     LIBCMT:winapinls.obj
 0002:00009c7c       ??_C@_1M@KGADAODK@?$AAc?$AAa?$AA?9?$AAe?$AAs?$AA?$AA@ 00449c7c     LIBCMT:winapinls.obj
 0002:00009c88       ??_C@_1M@COAJPDHI@?$AAc?$AAs?$AA?9?$AAc?$AAz?$AA?$AA@ 00449c88     LIBCMT:winapinls.obj
 0002:00009c94       ??_C@_1M@DHBHFONH@?$AAc?$AAy?$AA?9?$AAg?$AAb?$AA?$AA@ 00449c94     LIBCMT:winapinls.obj
 0002:00009ca0       ??_C@_1M@IMGKELGA@?$AAd?$AAa?$AA?9?$AAd?$AAk?$AA?$AA@ 00449ca0     LIBCMT:winapinls.obj
 0002:00009cac       ??_C@_1M@NNDGDNGA@?$AAd?$AAe?$AA?9?$AAa?$AAt?$AA?$AA@ 00449cac     LIBCMT:winapinls.obj
 0002:00009cb8       ??_C@_1M@IKDBHEEM@?$AAd?$AAe?$AA?9?$AAc?$AAh?$AA?$AA@ 00449cb8     LIBCMT:winapinls.obj
 0002:00009cc4       ??_C@_1M@GFFOJMCJ@?$AAd?$AAe?$AA?9?$AAd?$AAe?$AA?$AA@ 00449cc4     LIBCMT:winapinls.obj
 0002:00009cd0       ??_C@_1M@MDNLKBPM@?$AAd?$AAe?$AA?9?$AAl?$AAi?$AA?$AA@ 00449cd0     LIBCMT:winapinls.obj
 0002:00009cdc       ??_C@_1M@NJBEEJNL@?$AAd?$AAe?$AA?9?$AAl?$AAu?$AA?$AA@ 00449cdc     LIBCMT:winapinls.obj
 0002:00009ce8       ??_C@_1O@GNNELBAP@?$AAd?$AAi?$AAv?$AA?9?$AAm?$AAv?$AA?$AA@ 00449ce8     LIBCMT:winapinls.obj
 0002:00009cf8       ??_C@_1M@EJLEOGAE@?$AAe?$AAl?$AA?9?$AAg?$AAr?$AA?$AA@ 00449cf8     LIBCMT:winapinls.obj
 0002:00009d04       ??_C@_1M@GMPONJN@?$AAe?$AAn?$AA?9?$AAa?$AAu?$AA?$AA@ 00449d04     LIBCMT:winapinls.obj
 0002:00009d10       ??_C@_1M@NIDIIPGF@?$AAe?$AAn?$AA?9?$AAb?$AAz?$AA?$AA@ 00449d10     LIBCMT:winapinls.obj
 0002:00009d1c       ??_C@_1M@JEHMIMFO@?$AAe?$AAn?$AA?9?$AAc?$AAa?$AA?$AA@ 00449d1c     LIBCMT:winapinls.obj
 0002:00009d28       ??_C@_1M@IGMJCDLA@?$AAe?$AAn?$AA?9?$AAc?$AAb?$AA?$AA@ 00449d28     LIBCMT:winapinls.obj
 0002:00009d34       ??_C@_1M@BNFIGBKG@?$AAe?$AAn?$AA?9?$AAg?$AAb?$AA?$AA@ 00449d34     LIBCMT:winapinls.obj
 0002:00009d40       ??_C@_1M@LKIFDIGP@?$AAe?$AAn?$AA?9?$AAi?$AAe?$AA?$AA@ 00449d40     LIBCMT:winapinls.obj
 0002:00009d4c       ??_C@_1M@PJKFGCCO@?$AAe?$AAn?$AA?9?$AAj?$AAm?$AA?$AA@ 00449d4c     LIBCMT:winapinls.obj
 0002:00009d58       ??_C@_1M@KPPKEPBO@?$AAe?$AAn?$AA?9?$AAn?$AAz?$AA?$AA@ 00449d58     LIBCMT:winapinls.obj
 0002:00009d64       ??_C@_1M@GMDGLDOB@?$AAe?$AAn?$AA?9?$AAp?$AAh?$AA?$AA@ 00449d64     LIBCMT:winapinls.obj
 0002:00009d70       ??_C@_1M@ONGIBJNA@?$AAe?$AAn?$AA?9?$AAt?$AAt?$AA?$AA@ 00449d70     LIBCMT:winapinls.obj
 0002:00009d7c       ??_C@_1M@LLODPCMM@?$AAe?$AAn?$AA?9?$AAu?$AAs?$AA?$AA@ 00449d7c     LIBCMT:winapinls.obj
 0002:00009d88       ??_C@_1M@LAKFNPAN@?$AAe?$AAn?$AA?9?$AAz?$AAa?$AA?$AA@ 00449d88     LIBCMT:winapinls.obj
 0002:00009d94       ??_C@_1M@MFNHNHEO@?$AAe?$AAn?$AA?9?$AAz?$AAw?$AA?$AA@ 00449d94     LIBCMT:winapinls.obj
 0002:00009da0       ??_C@_1M@EJEINPHM@?$AAe?$AAs?$AA?9?$AAa?$AAr?$AA?$AA@ 00449da0     LIBCMT:winapinls.obj
 0002:00009dac       ??_C@_1M@GNKPCCJA@?$AAe?$AAs?$AA?9?$AAb?$AAo?$AA?$AA@ 00449dac     LIBCMT:winapinls.obj
 0002:00009db8       ??_C@_1M@LEEGFONL@?$AAe?$AAs?$AA?9?$AAc?$AAl?$AA?$AA@ 00449db8     LIBCMT:winapinls.obj
 0002:00009dc4       ??_C@_1M@KGPDPBDF@?$AAe?$AAs?$AA?9?$AAc?$AAo?$AA?$AA@ 00449dc4     LIBCMT:winapinls.obj
 0002:00009dd0       ??_C@_1M@EIAHOHH@?$AAe?$AAs?$AA?9?$AAc?$AAr?$AA?$AA@ 00449dd0     LIBCMT:winapinls.obj
 0002:00009ddc       ??_C@_1M@LLPGMBIN@?$AAe?$AAs?$AA?9?$AAd?$AAo?$AA?$AA@ 00449ddc     LIBCMT:winapinls.obj
 0002:00009de8       ??_C@_1M@DKHMKNJA@?$AAe?$AAs?$AA?9?$AAe?$AAc?$AA?$AA@ 00449de8     LIBCMT:winapinls.obj
 0002:00009df4       ??_C@_1M@GKGFPKAP@?$AAe?$AAs?$AA?9?$AAe?$AAs?$AA?$AA@ 00449df4     LIBCMT:winapinls.obj
 0002:00009e00       ??_C@_1M@LKHKGDLN@?$AAe?$AAs?$AA?9?$AAg?$AAt?$AA?$AA@ 00449e00     LIBCMT:winapinls.obj
 0002:00009e0c       ??_C@_1M@HEIIGGJD@?$AAe?$AAs?$AA?9?$AAh?$AAn?$AA?$AA@ 00449e0c     LIBCMT:winapinls.obj
 0002:00009e18       ??_C@_1M@FBDHPPGD@?$AAe?$AAs?$AA?9?$AAm?$AAx?$AA?$AA@ 00449e18     LIBCMT:winapinls.obj
 0002:00009e24       ??_C@_1M@DPAGLNDH@?$AAe?$AAs?$AA?9?$AAn?$AAi?$AA?$AA@ 00449e24     LIBCMT:winapinls.obj
 0002:00009e30       ??_C@_1M@MDGOPGDD@?$AAe?$AAs?$AA?9?$AAp?$AAa?$AA?$AA@ 00449e30     LIBCMT:winapinls.obj
 0002:00009e3c       ??_C@_1M@EMAMGBGE@?$AAe?$AAs?$AA?9?$AAp?$AAe?$AA?$AA@ 00449e3c     LIBCMT:winapinls.obj
 0002:00009e48       ??_C@_1M@IBMCAOEC@?$AAe?$AAs?$AA?9?$AAp?$AAr?$AA?$AA@ 00449e48     LIBCMT:winapinls.obj
 0002:00009e54       ??_C@_1M@FGMDIJED@?$AAe?$AAs?$AA?9?$AAp?$AAy?$AA?$AA@ 00449e54     LIBCMT:winapinls.obj
 0002:00009e60       ??_C@_1M@IIDEOLLL@?$AAe?$AAs?$AA?9?$AAs?$AAv?$AA?$AA@ 00449e60     LIBCMT:winapinls.obj
 0002:00009e6c       ??_C@_1M@GAOBIPA@?$AAe?$AAs?$AA?9?$AAu?$AAy?$AA?$AA@ 00449e6c     LIBCMT:winapinls.obj
 0002:00009e78       ??_C@_1M@JKFFICHJ@?$AAe?$AAs?$AA?9?$AAv?$AAe?$AA?$AA@ 00449e78     LIBCMT:winapinls.obj
 0002:00009e84       ??_C@_1M@PNMLOJDF@?$AAe?$AAt?$AA?9?$AAe?$AAe?$AA?$AA@ 00449e84     LIBCMT:winapinls.obj
 0002:00009e90       ??_C@_1M@GHHLIKEI@?$AAe?$AAu?$AA?9?$AAe?$AAs?$AA?$AA@ 00449e90     LIBCMT:winapinls.obj
 0002:00009e9c       ??_C@_1M@PBNONODE@?$AAf?$AAa?$AA?9?$AAi?$AAr?$AA?$AA@ 00449e9c     LIBCMT:winapinls.obj
 0002:00009ea8       ??_C@_1M@JEEHPMIL@?$AAf?$AAi?$AA?9?$AAf?$AAi?$AA?$AA@ 00449ea8     LIBCMT:winapinls.obj
 0002:00009eb4       ??_C@_1M@LMDCNDBA@?$AAf?$AAo?$AA?9?$AAf?$AAo?$AA?$AA@ 00449eb4     LIBCMT:winapinls.obj
 0002:00009ec0       ??_C@_1M@JKEOHLDK@?$AAf?$AAr?$AA?9?$AAb?$AAe?$AA?$AA@ 00449ec0     LIBCMT:winapinls.obj
 0002:00009ecc       ??_C@_1M@NOHADPMI@?$AAf?$AAr?$AA?9?$AAc?$AAa?$AA?$AA@ 00449ecc     LIBCMT:winapinls.obj
 0002:00009ed8       ??_C@_1M@KDHIHAEC@?$AAf?$AAr?$AA?9?$AAc?$AAh?$AA?$AA@ 00449ed8     LIBCMT:winapinls.obj
 0002:00009ee4       ??_C@_1M@MMBBFGAK@?$AAf?$AAr?$AA?9?$AAf?$AAr?$AA?$AA@ 00449ee4     LIBCMT:winapinls.obj
 0002:00009ef0       ??_C@_1M@PAFNENNF@?$AAf?$AAr?$AA?9?$AAl?$AAu?$AA?$AA@ 00449ef0     LIBCMT:winapinls.obj
 0002:00009efc       ??_C@_1M@EOHDJGDD@?$AAf?$AAr?$AA?9?$AAm?$AAc?$AA?$AA@ 00449efc     LIBCMT:winapinls.obj
 0002:00009f08       ??_C@_1M@FAPLLOPF@?$AAg?$AAl?$AA?9?$AAe?$AAs?$AA?$AA@ 00449f08     LIBCMT:winapinls.obj
 0002:00009f14       ??_C@_1M@FOPBFLOO@?$AAg?$AAu?$AA?9?$AAi?$AAn?$AA?$AA@ 00449f14     LIBCMT:winapinls.obj
 0002:00009f20       ??_C@_1M@KBMCINPM@?$AAh?$AAe?$AA?9?$AAi?$AAl?$AA?$AA@ 00449f20     LIBCMT:winapinls.obj
 0002:00009f2c       ??_C@_1M@BBPHKFPJ@?$AAh?$AAi?$AA?9?$AAi?$AAn?$AA?$AA@ 00449f2c     LIBCMT:winapinls.obj
 0002:00009f38       ??_C@_1M@PMBNDPHD@?$AAh?$AAr?$AA?9?$AAb?$AAa?$AA?$AA@ 00449f38     LIBCMT:winapinls.obj
 0002:00009f44       ??_C@_1M@BPCKOEGE@?$AAh?$AAr?$AA?9?$AAh?$AAr?$AA?$AA@ 00449f44     LIBCMT:winapinls.obj
 0002:00009f50       ??_C@_1M@GACBMHKE@?$AAh?$AAu?$AA?9?$AAh?$AAu?$AA?$AA@ 00449f50     LIBCMT:winapinls.obj
 0002:00009f5c       ??_C@_1M@MILPAJJC@?$AAh?$AAy?$AA?9?$AAa?$AAm?$AA?$AA@ 00449f5c     LIBCMT:winapinls.obj
 0002:00009f68       ??_C@_1M@BABBICEC@?$AAi?$AAd?$AA?9?$AAi?$AAd?$AA?$AA@ 00449f68     LIBCMT:winapinls.obj
 0002:00009f74       ??_C@_1M@BIKNHHPF@?$AAi?$AAs?$AA?9?$AAi?$AAs?$AA?$AA@ 00449f74     LIBCMT:winapinls.obj
 0002:00009f80       ??_C@_1M@NMPCJPHE@?$AAi?$AAt?$AA?9?$AAc?$AAh?$AA?$AA@ 00449f80     LIBCMT:winapinls.obj
 0002:00009f8c       ??_C@_1M@GHKGFEDF@?$AAi?$AAt?$AA?9?$AAi?$AAt?$AA?$AA@ 00449f8c     LIBCMT:winapinls.obj
 0002:00009f98       ??_C@_1M@NIEJCJJA@?$AAj?$AAa?$AA?9?$AAj?$AAp?$AA?$AA@ 00449f98     LIBCMT:winapinls.obj
 0002:00009fa4       ??_C@_1M@JILFNBIM@?$AAk?$AAa?$AA?9?$AAg?$AAe?$AA?$AA@ 00449fa4     LIBCMT:winapinls.obj
 0002:00009fb0       ??_C@_1M@PACPMGPH@?$AAk?$AAk?$AA?9?$AAk?$AAz?$AA?$AA@ 00449fb0     LIBCMT:winapinls.obj
 0002:00009fbc       ??_C@_1M@IELFGMHA@?$AAk?$AAn?$AA?9?$AAi?$AAn?$AA?$AA@ 00449fbc     LIBCMT:winapinls.obj
 0002:00009fc8       ??_C@_1O@IBBJHCH@?$AAk?$AAo?$AAk?$AA?9?$AAi?$AAn?$AA?$AA@ 00449fc8     LIBCMT:winapinls.obj
 0002:00009fd8       ??_C@_1M@DMHAEOGC@?$AAk?$AAo?$AA?9?$AAk?$AAr?$AA?$AA@ 00449fd8     LIBCMT:winapinls.obj
 0002:00009fe4       ??_C@_1M@HBAHBIGA@?$AAk?$AAy?$AA?9?$AAk?$AAg?$AA?$AA@ 00449fe4     LIBCMT:winapinls.obj
 0002:00009ff0       ??_C@_1M@KPMILCJG@?$AAl?$AAt?$AA?9?$AAl?$AAt?$AA?$AA@ 00449ff0     LIBCMT:winapinls.obj
 0002:00009ffc       ??_C@_1M@BDEKKCA@?$AAl?$AAv?$AA?9?$AAl?$AAv?$AA?$AA@ 00449ffc     LIBCMT:winapinls.obj
 0002:0000a008       ??_C@_1M@ELCKCCJJ@?$AAm?$AAi?$AA?9?$AAn?$AAz?$AA?$AA@ 0044a008     LIBCMT:winapinls.obj
 0002:0000a014       ??_C@_1M@CBOOLAPA@?$AAm?$AAk?$AA?9?$AAm?$AAk?$AA?$AA@ 0044a014     LIBCMT:winapinls.obj
 0002:0000a020       ??_C@_1M@GPHNBJKN@?$AAm?$AAl?$AA?9?$AAi?$AAn?$AA?$AA@ 0044a020     LIBCMT:winapinls.obj
 0002:0000a02c       ??_C@_1M@PABJILIG@?$AAm?$AAn?$AA?9?$AAm?$AAn?$AA?$AA@ 0044a02c     LIBCMT:winapinls.obj
 0002:0000a038       ??_C@_1M@FGBKKIPG@?$AAm?$AAr?$AA?9?$AAi?$AAn?$AA?$AA@ 0044a038     LIBCMT:winapinls.obj
 0002:0000a044       ??_C@_1M@NDBPDDAL@?$AAm?$AAs?$AA?9?$AAb?$AAn?$AA?$AA@ 0044a044     LIBCMT:winapinls.obj
 0002:0000a050       ??_C@_1M@OPIHOOPI@?$AAm?$AAs?$AA?9?$AAm?$AAy?$AA?$AA@ 0044a050     LIBCMT:winapinls.obj
 0002:0000a05c       ??_C@_1M@PPDBCNFM@?$AAm?$AAt?$AA?9?$AAm?$AAt?$AA?$AA@ 0044a05c     LIBCMT:winapinls.obj
 0002:0000a068       ??_C@_1M@KDJDKMDD@?$AAn?$AAb?$AA?9?$AAn?$AAo?$AA?$AA@ 0044a068     LIBCMT:winapinls.obj
 0002:0000a074       ??_C@_1M@KFCFLMJP@?$AAn?$AAl?$AA?9?$AAb?$AAe?$AA?$AA@ 0044a074     LIBCMT:winapinls.obj
 0002:0000a080       ??_C@_1M@KPOPDDGO@?$AAn?$AAl?$AA?9?$AAn?$AAl?$AA?$AA@ 0044a080     LIBCMT:winapinls.obj
 0002:0000a08c       ??_C@_1M@LJKPEMLN@?$AAn?$AAn?$AA?9?$AAn?$AAo?$AA?$AA@ 0044a08c     LIBCMT:winapinls.obj
 0002:0000a098       ??_C@_1M@BDGHHBFL@?$AAn?$AAs?$AA?9?$AAz?$AAa?$AA?$AA@ 0044a098     LIBCMT:winapinls.obj
 0002:0000a0a4       ??_C@_1M@IDEHOAP@?$AAp?$AAa?$AA?9?$AAi?$AAn?$AA?$AA@ 0044a0a4     LIBCMT:winapinls.obj
 0002:0000a0b0       ??_C@_1M@HDBKGOGH@?$AAp?$AAl?$AA?9?$AAp?$AAl?$AA?$AA@ 0044a0b0     LIBCMT:winapinls.obj
 0002:0000a0bc       ??_C@_1M@LJLLCMEH@?$AAp?$AAt?$AA?9?$AAb?$AAr?$AA?$AA@ 0044a0bc     LIBCMT:winapinls.obj
 0002:0000a0c8       ??_C@_1M@NCMONAAL@?$AAp?$AAt?$AA?9?$AAp?$AAt?$AA?$AA@ 0044a0c8     LIBCMT:winapinls.obj
 0002:0000a0d4       ??_C@_1O@EAKMAJDN@?$AAq?$AAu?$AAz?$AA?9?$AAb?$AAo?$AA?$AA@ 0044a0d4     LIBCMT:winapinls.obj
 0002:0000a0e4       ??_C@_1O@BHHPIGDN@?$AAq?$AAu?$AAz?$AA?9?$AAe?$AAc?$AA?$AA@ 0044a0e4     LIBCMT:winapinls.obj
 0002:0000a0f4       ??_C@_1O@GBAPEKMJ@?$AAq?$AAu?$AAz?$AA?9?$AAp?$AAe?$AA?$AA@ 0044a0f4     LIBCMT:winapinls.obj
 0002:0000a104       ??_C@_1M@CLGLEFBO@?$AAr?$AAo?$AA?9?$AAr?$AAo?$AA?$AA@ 0044a104     LIBCMT:winapinls.obj
 0002:0000a110       ??_C@_1M@CEEDODME@?$AAr?$AAu?$AA?9?$AAr?$AAu?$AA?$AA@ 0044a110     LIBCMT:winapinls.obj
 0002:0000a11c       ??_C@_1M@HPKKKMPP@?$AAs?$AAa?$AA?9?$AAi?$AAn?$AA?$AA@ 0044a11c     LIBCMT:winapinls.obj
 0002:0000a128       ??_C@_1M@BKMAIGOJ@?$AAs?$AAe?$AA?9?$AAf?$AAi?$AA?$AA@ 0044a128     LIBCMT:winapinls.obj
 0002:0000a134       ??_C@_1M@NDPIFLFI@?$AAs?$AAe?$AA?9?$AAn?$AAo?$AA?$AA@ 0044a134     LIBCMT:winapinls.obj
 0002:0000a140       ??_C@_1M@DANKKHJ@?$AAs?$AAe?$AA?9?$AAs?$AAe?$AA?$AA@ 0044a140     LIBCMT:winapinls.obj
 0002:0000a14c       ??_C@_1M@PNBLONPJ@?$AAs?$AAk?$AA?9?$AAs?$AAk?$AA?$AA@ 0044a14c     LIBCMT:winapinls.obj
 0002:0000a158       ??_C@_1M@LFMODOAL@?$AAs?$AAl?$AA?9?$AAs?$AAi?$AA?$AA@ 0044a158     LIBCMT:winapinls.obj
 0002:0000a164       ??_C@_1O@DFKOMPG@?$AAs?$AAm?$AAa?$AA?9?$AAn?$AAo?$AA?$AA@ 0044a164     LIBCMT:winapinls.obj
 0002:0000a174       ??_C@_1O@NDKPBNNH@?$AAs?$AAm?$AAa?$AA?9?$AAs?$AAe?$AA?$AA@ 0044a174     LIBCMT:winapinls.obj
 0002:0000a184       ??_C@_1O@PLLKBHAB@?$AAs?$AAm?$AAj?$AA?9?$AAn?$AAo?$AA?$AA@ 0044a184     LIBCMT:winapinls.obj
 0002:0000a194       ??_C@_1O@CLEPOGCA@?$AAs?$AAm?$AAj?$AA?9?$AAs?$AAe?$AA?$AA@ 0044a194     LIBCMT:winapinls.obj
 0002:0000a1a4       ??_C@_1O@DLGJGKMK@?$AAs?$AAm?$AAn?$AA?9?$AAf?$AAi?$AA?$AA@ 0044a1a4     LIBCMT:winapinls.obj
 0002:0000a1b4       ??_C@_1O@OJDJGAJC@?$AAs?$AAm?$AAs?$AA?9?$AAf?$AAi?$AA?$AA@ 0044a1b4     LIBCMT:winapinls.obj
 0002:0000a1c4       ??_C@_1M@BOFOGHPB@?$AAs?$AAq?$AA?9?$AAa?$AAl?$AA?$AA@ 0044a1c4     LIBCMT:winapinls.obj
 0002:0000a1d0       ??_C@_1BG@LJBBIPGB@?$AAs?$AAr?$AA?9?$AAb?$AAa?$AA?9?$AAc?$AAy?$AAr?$AAl?$AA?$AA@ 0044a1d0     LIBCMT:winapinls.obj
 0002:0000a1e8       ??_C@_1BG@JLBENFOE@?$AAs?$AAr?$AA?9?$AAb?$AAa?$AA?9?$AAl?$AAa?$AAt?$AAn?$AA?$AA@ 0044a1e8     LIBCMT:winapinls.obj
 0002:0000a200       ??_C@_1BG@KODPNHE@?$AAs?$AAr?$AA?9?$AAs?$AAp?$AA?9?$AAc?$AAy?$AAr?$AAl?$AA?$AA@ 0044a200     LIBCMT:winapinls.obj
 0002:0000a218       ??_C@_1BG@CIOGKHPB@?$AAs?$AAr?$AA?9?$AAs?$AAp?$AA?9?$AAl?$AAa?$AAt?$AAn?$AA?$AA@ 0044a218     LIBCMT:winapinls.obj
 0002:0000a230       ??_C@_1M@NGFJLMAC@?$AAs?$AAv?$AA?9?$AAf?$AAi?$AA?$AA@ 0044a230     LIBCMT:winapinls.obj
 0002:0000a23c       ??_C@_1M@MPJEJAJC@?$AAs?$AAv?$AA?9?$AAs?$AAe?$AA?$AA@ 0044a23c     LIBCMT:winapinls.obj
 0002:0000a248       ??_C@_1M@MPNDHLFK@?$AAs?$AAw?$AA?9?$AAk?$AAe?$AA?$AA@ 0044a248     LIBCMT:winapinls.obj
 0002:0000a254       ??_C@_1O@KOHBJJI@?$AAs?$AAy?$AAr?$AA?9?$AAs?$AAy?$AA?$AA@ 0044a254     LIBCMT:winapinls.obj
 0002:0000a264       ??_C@_1M@LDCEFHA@?$AAt?$AAa?$AA?9?$AAi?$AAn?$AA?$AA@ 0044a264     LIBCMT:winapinls.obj
 0002:0000a270       ??_C@_1M@CNJOFAK@?$AAt?$AAe?$AA?9?$AAi?$AAn?$AA?$AA@ 0044a270     LIBCMT:winapinls.obj
 0002:0000a27c       ??_C@_1M@GNAECACD@?$AAt?$AAh?$AA?9?$AAt?$AAh?$AA?$AA@ 0044a27c     LIBCMT:winapinls.obj
 0002:0000a288       ??_C@_1M@CHBIHOJO@?$AAt?$AAn?$AA?9?$AAz?$AAa?$AA?$AA@ 0044a288     LIBCMT:winapinls.obj
 0002:0000a294       ??_C@_1M@GCCMIGPJ@?$AAt?$AAr?$AA?9?$AAt?$AAr?$AA?$AA@ 0044a294     LIBCMT:winapinls.obj
 0002:0000a2a0       ??_C@_1M@CELMCNBK@?$AAt?$AAt?$AA?9?$AAr?$AAu?$AA?$AA@ 0044a2a0     LIBCMT:winapinls.obj
 0002:0000a2ac       ??_C@_1M@KLMCELGA@?$AAu?$AAk?$AA?9?$AAu?$AAa?$AA?$AA@ 0044a2ac     LIBCMT:winapinls.obj
 0002:0000a2b8       ??_C@_1M@EPAJJAJF@?$AAu?$AAr?$AA?9?$AAp?$AAk?$AA?$AA@ 0044a2b8     LIBCMT:winapinls.obj
 0002:0000a2c4       ??_C@_1BG@GEGPMCDJ@?$AAu?$AAz?$AA?9?$AAu?$AAz?$AA?9?$AAc?$AAy?$AAr?$AAl?$AA?$AA@ 0044a2c4     LIBCMT:winapinls.obj
 0002:0000a2dc       ??_C@_1BG@EGGKJILM@?$AAu?$AAz?$AA?9?$AAu?$AAz?$AA?9?$AAl?$AAa?$AAt?$AAn?$AA?$AA@ 0044a2dc     LIBCMT:winapinls.obj
 0002:0000a2f4       ??_C@_1M@GFOCLFF@?$AAv?$AAi?$AA?9?$AAv?$AAn?$AA?$AA@ 0044a2f4     LIBCMT:winapinls.obj
 0002:0000a300       ??_C@_1M@CPAMEDFI@?$AAx?$AAh?$AA?9?$AAz?$AAa?$AA?$AA@ 0044a300     LIBCMT:winapinls.obj
 0002:0000a30c       ??_C@_1O@EBKIFIGN@?$AAz?$AAh?$AA?9?$AAc?$AAh?$AAs?$AA?$AA@ 0044a30c     LIBCMT:winapinls.obj
 0002:0000a31c       ??_C@_1O@NMHPGANE@?$AAz?$AAh?$AA?9?$AAc?$AAh?$AAt?$AA?$AA@ 0044a31c     LIBCMT:winapinls.obj
 0002:0000a32c       ??_C@_1M@LPINJOMC@?$AAz?$AAh?$AA?9?$AAc?$AAn?$AA?$AA@ 0044a32c     LIBCMT:winapinls.obj
 0002:0000a338       ??_C@_1M@OCJEJODD@?$AAz?$AAh?$AA?9?$AAh?$AAk?$AA?$AA@ 0044a338     LIBCMT:winapinls.obj
 0002:0000a344       ??_C@_1M@DNDLJINH@?$AAz?$AAh?$AA?9?$AAm?$AAo?$AA?$AA@ 0044a344     LIBCMT:winapinls.obj
 0002:0000a350       ??_C@_1M@MBFDNDND@?$AAz?$AAh?$AA?9?$AAs?$AAg?$AA?$AA@ 0044a350     LIBCMT:winapinls.obj
 0002:0000a35c       ??_C@_1M@IMEPLEPE@?$AAz?$AAh?$AA?9?$AAt?$AAw?$AA?$AA@ 0044a35c     LIBCMT:winapinls.obj
 0002:0000a368       ??_C@_1M@BBGHNHJP@?$AAz?$AAu?$AA?9?$AAz?$AAa?$AA?$AA@ 0044a368     LIBCMT:winapinls.obj
 0002:0000a374       ??_C@_06PGGFOGJG@1?$CDSNAN?$AA@ 0044a374     LIBCMT:x10fout.obj
 0002:0000a37c       ??_C@_05PHHOCPM@1?$CDIND?$AA@ 0044a37c     LIBCMT:x10fout.obj
 0002:0000a384       ??_C@_05DNEBIAHO@1?$CDINF?$AA@ 0044a384     LIBCMT:x10fout.obj
 0002:0000a38c       ??_C@_06IMKFLFPG@1?$CDQNAN?$AA@ 0044a38c     LIBCMT:x10fout.obj
 0002:0000a394       ??_C@_1BA@BALFACEM@?$AAC?$AAO?$AAN?$AAO?$AAU?$AAT?$AA$?$AA?$AA@ 0044a394     LIBCMT:initcon.obj
 0002:0000a3a8       __load_config_used         0044a3a8     LIBCMT:loadcfg.obj
 0002:0000a3f0       ??_R4WINDOW_CLASS@@6B@     0044a3f0     ft2.obj
 0002:0000a404       ??_R3WINDOW_CLASS@@8       0044a404     ft2.obj
 0002:0000a414       ??_R2WINDOW_CLASS@@8       0044a414     ft2.obj
 0002:0000a41c       ??_R1A@?0A@EA@WINDOW_CLASS@@8 0044a41c     ft2.obj
 0002:0000a438       ??_R4FTII_VAR@@6B@         0044a438     ft2.obj
 0002:0000a44c       ??_R3FTII_VAR@@8           0044a44c     ft2.obj
 0002:0000a45c       ??_R2FTII_VAR@@8           0044a45c     ft2.obj
 0002:0000a464       ??_R1A@?0A@EA@FTII_VAR@@8  0044a464     ft2.obj
 0002:0000a480       ??_R4FTII_VAR_ARRAY@@6B@   0044a480     ft2.obj
 0002:0000a494       ??_R3FTII_VAR_ARRAY@@8     0044a494     ft2.obj
 0002:0000a4a4       ??_R2FTII_VAR_ARRAY@@8     0044a4a4     ft2.obj
 0002:0000a4b0       ??_R1A@?0A@EA@FTII_VAR_ARRAY@@8 0044a4b0     ft2.obj
 0002:0000a4cc       ??_R4FTII_ARRAY_DATA@@6B@  0044a4cc     v5subs:ftii_shot_data.obj
 0002:0000a4e0       ??_R3FTII_ARRAY_DATA@@8    0044a4e0     v5subs:ftii_shot_data.obj
 0002:0000a4f0       ??_R2FTII_ARRAY_DATA@@8    0044a4f0     v5subs:ftii_shot_data.obj
 0002:0000a4f8       ??_R1A@?0A@EA@FTII_ARRAY_DATA@@8 0044a4f8     v5subs:ftii_shot_data.obj
 0002:0000a514       ??_R4FTII_PROFILE@@6B@     0044a514     v5subs:ftii_shot_data.obj
 0002:0000a528       ??_R3FTII_PROFILE@@8       0044a528     v5subs:ftii_shot_data.obj
 0002:0000a538       ??_R2FTII_PROFILE@@8       0044a538     v5subs:ftii_shot_data.obj
 0002:0000a544       ??_R1A@?0A@EA@FTII_PROFILE@@8 0044a544     v5subs:ftii_shot_data.obj
 0002:0000a560       ??_R1A@?0A@EA@exception@std@@8 0044a560     LIBCMT:new.obj
 0002:0000a57c       ??_R3exception@std@@8      0044a57c     LIBCMT:new.obj
 0002:0000a58c       ??_R2exception@std@@8      0044a58c     LIBCMT:new.obj
 0002:0000a594       ??_R4bad_alloc@std@@6B@    0044a594     LIBCMT:new.obj
 0002:0000a5a8       ??_R3bad_alloc@std@@8      0044a5a8     LIBCMT:new.obj
 0002:0000a5b8       ??_R2bad_alloc@std@@8      0044a5b8     LIBCMT:new.obj
 0002:0000a5c4       ??_R1A@?0A@EA@bad_alloc@std@@8 0044a5c4     LIBCMT:new.obj
 0002:0000a5e0       ??_R4type_info@@6B@        0044a5e0     LIBCMT:typinfo.obj
 0002:0000a5f4       ??_R3type_info@@8          0044a5f4     LIBCMT:typinfo.obj
 0002:0000a604       ??_R2type_info@@8          0044a604     LIBCMT:typinfo.obj
 0002:0000a60c       ??_R1A@?0A@EA@type_info@@8 0044a60c     LIBCMT:typinfo.obj
 0002:0000a628       ??_R4exception@std@@6B@    0044a628     LIBCMT:stdexcpt.obj
 0002:0000a640       ___safe_se_handler_table   0044a640     <linker-defined>
 0002:0000a64c       ___rtc_iaa                 0044a64c     LIBCMT:initsect.obj
 0002:0000a650       ___rtc_izz                 0044a650     LIBCMT:initsect.obj
 0002:0000a654       ___rtc_taa                 0044a654     LIBCMT:initsect.obj
 0002:0000a658       ___rtc_tzz                 0044a658     LIBCMT:initsect.obj
 0002:0000a660       __TI2?AVbad_alloc@std@@    0044a660     LIBCMT:new.obj
 0002:0000a670       __CTA2?AVbad_alloc@std@@   0044a670     LIBCMT:new.obj
 0002:0000a67c       __CT??_R0?AVbad_alloc@std@@@8??0bad_alloc@std@@QAE@ABV01@@Z12 0044a67c     LIBCMT:new.obj
 0002:0000a698       __CT??_R0?AVexception@std@@@8??0exception@std@@QAE@ABV01@@Z12 0044a698     LIBCMT:new.obj
 0002:0000a9cc       __IMPORT_DESCRIPTOR_KERNEL32 0044a9cc     kernel32:KERNEL32.dll
 0002:0000a9e0       __IMPORT_DESCRIPTOR_USER32 0044a9e0     user32:USER32.dll
 0002:0000a9f4       __IMPORT_DESCRIPTOR_GDI32  0044a9f4     gdi32:GDI32.dll
 0002:0000aa08       __IMPORT_DESCRIPTOR_COMCTL32 0044aa08     comctl32:COMCTL32.dll
 0002:0000aa1c       __IMPORT_DESCRIPTOR_WSOCK32 0044aa1c     wsock32:WSOCK32.dll
 0002:0000aa30       __IMPORT_DESCRIPTOR_SHELL32 0044aa30     shell32:SHELL32.dll
 0002:0000aa44       __NULL_IMPORT_DESCRIPTOR   0044aa44     kernel32:KERNEL32.dll
 0003:00000000       ?RedColor@@3KA             0044c000     ft2.obj
 0003:00000004       ?CurrentOpStatusIsEmpty@@3_NA 0044c004     ft2.obj
 0003:00000008       ?ShotparmLogFile@@3PA_WA   0044c008     ft2.obj
 0003:00000030       ?NofItems@@3HA             0044c030     ft2.obj
 0003:00000034       ?MyClassName@@3PA_WA       0044c034     ft2.obj
 0003:00000048       ?ItemList@@3PAUITEM_ENTRY@@A 0044c048     ft2.obj
 0003:00000480       ?TerminalClassName@@3PA_WA 0044c480     ft2.obj
 0003:00000498       ?StatusClassName@@3PA_WA   0044c498     ft2.obj
 0003:000004ac       ?AccelName@@3PA_WA         0044c4ac     ft2.obj
 0003:000006e0       ?Button@@3PAURESOURCE_TEXT_ENTRY@@A 0044c6e0     ft2.obj
 0003:00000754       ?AChar@@3_WA               0044c754     ft2.obj
 0003:00000758       ?BChar@@3_WA               0044c758     ft2.obj
 0003:0000076c       ?CChar@@3_WA               0044c76c     ft2.obj
 0003:00000770       ?DChar@@3_WA               0044c770     ft2.obj
 0003:00000774       ?EChar@@3_WA               0044c774     ft2.obj
 0003:00000778       ?FChar@@3_WA               0044c778     ft2.obj
 0003:0000077c       ?GChar@@3_WA               0044c77c     ft2.obj
 0003:00000780       ?HChar@@3_WA               0044c780     ft2.obj
 0003:00000784       ?IChar@@3_WA               0044c784     ft2.obj
 0003:00000788       ?JChar@@3_WA               0044c788     ft2.obj
 0003:0000078c       ?KChar@@3_WA               0044c78c     ft2.obj
 0003:00000790       ?LChar@@3_WA               0044c790     ft2.obj
 0003:00000794       ?MChar@@3_WA               0044c794     ft2.obj
 0003:00000798       ?NChar@@3_WA               0044c798     ft2.obj
 0003:0000079c       ?OChar@@3_WA               0044c79c     ft2.obj
 0003:000007a0       ?PChar@@3_WA               0044c7a0     ft2.obj
 0003:000007a4       ?QChar@@3_WA               0044c7a4     ft2.obj
 0003:000007a8       ?RChar@@3_WA               0044c7a8     ft2.obj
 0003:000007ac       ?SChar@@3_WA               0044c7ac     ft2.obj
 0003:000007b0       ?TChar@@3_WA               0044c7b0     ft2.obj
 0003:000007b4       ?UChar@@3_WA               0044c7b4     ft2.obj
 0003:000007b8       ?VChar@@3_WA               0044c7b8     ft2.obj
 0003:000007bc       ?WChar@@3_WA               0044c7bc     ft2.obj
 0003:000007c0       ?XChar@@3_WA               0044c7c0     ft2.obj
 0003:000007c4       ?YChar@@3_WA               0044c7c4     ft2.obj
 0003:000007c8       ?ZChar@@3_WA               0044c7c8     ft2.obj
 0003:000007cc       ?ACharLow@@3_WA            0044c7cc     ft2.obj
 0003:000007d0       ?BCharLow@@3_WA            0044c7d0     ft2.obj
 0003:000007d4       ?CCharLow@@3_WA            0044c7d4     ft2.obj
 0003:000007d8       ?DCharLow@@3_WA            0044c7d8     ft2.obj
 0003:000007dc       ?ECharLow@@3_WA            0044c7dc     ft2.obj
 0003:000007e0       ?FCharLow@@3_WA            0044c7e0     ft2.obj
 0003:000007e4       ?GCharLow@@3_WA            0044c7e4     ft2.obj
 0003:000007e8       ?HCharLow@@3_WA            0044c7e8     ft2.obj
 0003:000007ec       ?ICharLow@@3_WA            0044c7ec     ft2.obj
 0003:000007f0       ?JCharLow@@3_WA            0044c7f0     ft2.obj
 0003:000007f4       ?KCharLow@@3_WA            0044c7f4     ft2.obj
 0003:000007f8       ?LCharLow@@3_WA            0044c7f8     ft2.obj
 0003:000007fc       ?MCharLow@@3_WA            0044c7fc     ft2.obj
 0003:00000800       ?NCharLow@@3_WA            0044c800     ft2.obj
 0003:00000804       ?OCharLow@@3_WA            0044c804     ft2.obj
 0003:00000808       ?PCharLow@@3_WA            0044c808     ft2.obj
 0003:0000080c       ?QCharLow@@3_WA            0044c80c     ft2.obj
 0003:00000810       ?RCharLow@@3_WA            0044c810     ft2.obj
 0003:00000814       ?SCharLow@@3_WA            0044c814     ft2.obj
 0003:00000818       ?TCharLow@@3_WA            0044c818     ft2.obj
 0003:0000081c       ?UCharLow@@3_WA            0044c81c     ft2.obj
 0003:00000820       ?VCharLow@@3_WA            0044c820     ft2.obj
 0003:00000824       ?WCharLow@@3_WA            0044c824     ft2.obj
 0003:00000828       ?XCharLow@@3_WA            0044c828     ft2.obj
 0003:0000082c       ?YCharLow@@3_WA            0044c82c     ft2.obj
 0003:00000830       ?ZCharLow@@3_WA            0044c830     ft2.obj
 0003:00000834       ?AsterixChar@@3_WA         0044c834     ft2.obj
 0003:00000838       ?BackSlashChar@@3_WA       0044c838     ft2.obj
 0003:0000083c       ?CaretChar@@3_WA           0044c83c     ft2.obj
 0003:00000840       ?CloseParen@@3_WA          0044c840     ft2.obj
 0003:00000844       ?ColonChar@@3_WA           0044c844     ft2.obj
 0003:00000848       ?CommaChar@@3_WA           0044c848     ft2.obj
 0003:0000084c       ?CrChar@@3_WA              0044c84c     ft2.obj
 0003:00000850       ?DoubleQuoteChar@@3_WA     0044c850     ft2.obj
 0003:00000854       ?EqualsChar@@3_WA          0044c854     ft2.obj
 0003:00000858       ?EtxChar@@3_WA             0044c858     ft2.obj
 0003:0000085c       ?ForwardSlashChar@@3_WA    0044c85c     ft2.obj
 0003:00000860       ?LeftBracketChar@@3_WA     0044c860     ft2.obj
 0003:00000864       ?LeftCurlyBracket@@3_WA    0044c864     ft2.obj
 0003:00000868       ?LeftParen@@3_WA           0044c868     ft2.obj
 0003:0000086c       ?LfChar@@3_WA              0044c86c     ft2.obj
 0003:00000870       ?MinusChar@@3_WA           0044c870     ft2.obj
 0003:00000874       ?OpenParen@@3_WA           0044c874     ft2.obj
 0003:00000878       ?PercentChar@@3_WA         0044c878     ft2.obj
 0003:0000087c       ?PeriodChar@@3_WA          0044c87c     ft2.obj
 0003:00000880       ?PlusChar@@3_WA            0044c880     ft2.obj
 0003:00000884       ?PoundChar@@3_WA           0044c884     ft2.obj
 0003:00000888       ?QuoteChar@@3_WA           0044c888     ft2.obj
 0003:0000088c       ?RightBracketChar@@3_WA    0044c88c     ft2.obj
 0003:00000890       ?RightCurlyBracket@@3_WA   0044c890     ft2.obj
 0003:00000894       ?RightParen@@3_WA          0044c894     ft2.obj
 0003:00000898       ?SemiColonChar@@3_WA       0044c898     ft2.obj
 0003:0000089c       ?SpaceChar@@3_WA           0044c89c     ft2.obj
 0003:000008a0       ?TabChar@@3_WA             0044c8a0     ft2.obj
 0003:000008a4       ?TildaChar@@3_WA           0044c8a4     ft2.obj
 0003:000008a8       ?UnderScoreChar@@3_WA      0044c8a8     ft2.obj
 0003:000008ac       ?ZeroChar@@3_WA            0044c8ac     ft2.obj
 0003:000008b0       ?OneChar@@3_WA             0044c8b0     ft2.obj
 0003:000008b4       ?TwoChar@@3_WA             0044c8b4     ft2.obj
 0003:000008b8       ?ThreeChar@@3_WA           0044c8b8     ft2.obj
 0003:000008bc       ?FourChar@@3_WA            0044c8bc     ft2.obj
 0003:000008c0       ?FiveChar@@3_WA            0044c8c0     ft2.obj
 0003:000008c4       ?SixChar@@3_WA             0044c8c4     ft2.obj
 0003:000008c8       ?SevenChar@@3_WA           0044c8c8     ft2.obj
 0003:000008cc       ?StxChar@@3_WA             0044c8cc     ft2.obj
 0003:000008d0       ?EightChar@@3_WA           0044c8d0     ft2.obj
 0003:000008d4       ?NineChar@@3_WA            0044c8d4     ft2.obj
 0003:000008d8       ?AsterixString@@3PA_WA     0044c8d8     ft2.obj
 0003:000008dc       ?CommaString@@3PA_WA       0044c8dc     ft2.obj
 0003:000008e0       ?CrLfString@@3PA_WA        0044c8e0     ft2.obj
 0003:000008e8       ?SpaceString@@3PA_WA       0044c8e8     ft2.obj
 0003:000008ec       ?StarDotStar@@3PA_WA       0044c8ec     ft2.obj
 0003:000008f4       ?ZeroPointZero@@3PA_WA     0044c8f4     ft2.obj
 0003:00000908       ?NofRows@@3HA              0044c908     ft2.obj
 0003:00000928       ?Char_Width@@3HA           0044c928     ft2.obj
 0003:0000092c       ?Line_Height@@3HA          0044c92c     ft2.obj
 0003:00000930       ?CurrentBoardIndex@@3HA    0044c930     ft2.obj
 0003:00000934       ?RetractWireMask@@3IA      0044c934     ft2.obj
 0003:00000954       ?AlsLogIsEnabledKey@@3PA_WA 0044c954     ft2.obj
 0003:00000964       ?NetworkLogIsEnabledKey@@3PA_WA 0044c964     ft2.obj
 0003:00000990       ?SentCommandsLogIsEnabledKey@@3PA_WA 0044c990     ft2.obj
 0003:000009b0       ?NOT_CONNECTED_STATE@@3IA  0044c9b0     ft2.obj
 0003:000009b4       ?NOT_MONITORED_STATE@@3IA  0044c9b4     ft2.obj
 0003:000009b8       ?CONNECTING_STATE@@3IA     0044c9b8     ft2.obj
 0003:000009bc       ?CONNECTED_STATE@@3IA      0044c9bc     ft2.obj
 0003:000009c0       ?ZERO_STROKE_LENGTH_STATE@@3IA 0044c9c0     ft2.obj
 0003:000009c4       ?UPLOAD_WAS_ABORTED_STATE@@3IA 0044c9c4     ft2.obj
 0003:000009c8       ?HistoryShotCount@@3HA     0044c9c8     ft2.obj
 0003:000009cc       ?ConfigSection@@3PA_WA     0044c9cc     ft2.obj
 0003:000009dc       ?CurrentValuesSection@@3PA_WA 0044c9dc     ft2.obj
 0003:000009f8       ?CommonResourceFile@@3PA_WA 0044c9f8     ft2.obj
 0003:00000a08       ?DisplayIniFile@@3PA_WA    0044ca08     ft2.obj
 0003:00000a20       ?EditPartResourceFile@@3PA_WA 0044ca20     ft2.obj
 0003:00000a34       ?FtiiIniFile@@3PA_WA       0044ca34     ft2.obj
 0003:00000a48       ?MonallIniFile@@3PA_WA     0044ca48     ft2.obj
 0003:00000a60       ?MyMenuFile@@3PA_WA        0044ca60     ft2.obj
 0003:00000a70       ?MyResourceFile@@3PA_WA    0044ca70     ft2.obj
 0003:00000a78       ?SureTrakIniFile@@3PA_WA   0044ca78     ft2.obj
 0003:00000a94       ?TerminalMenuFile@@3PA_WA  0044ca94     ft2.obj
 0003:00000ab4       ?VisiTrakIniFile@@3PA_WA   0044cab4     ft2.obj
 0003:00000ad0       ?ClearAlarmsEachShotKey@@3PA_WA 0044cad0     ft2.obj
 0003:00000af8       ?ClearDownWireFromPopupKey@@3PA_WA 0044caf8     ft2.obj
 0003:00000b28       ?ClearMonitorWireOnDownKey@@3PA_WA 0044cb28     ft2.obj
 0003:00000b58       ?CurrentChannelModeKey@@3PA_WA 0044cb58     ft2.obj
 0003:00000b80       ?CurrentLanguageKey@@3PA_WA 0044cb80     ft2.obj
 0003:00000ba0       ?DownTimeAlarmWireKey@@3PA_WA 0044cba0     ft2.obj
 0003:00000bc4       ?ExitEnableLevelKey@@3PA_WA 0044cbc4     ft2.obj
 0003:00000be4       ?FlashVersionKey@@3PA_WA   0044cbe4     ft2.obj
 0003:00000c00       ?Ft2F10LevelKey@@3PA_WA    0044cc00     ft2.obj
 0003:00000c18       ?Ft2F2LevelKey@@3PA_WA     0044cc18     ft2.obj
 0003:00000c30       ?Ft2F3LevelKey@@3PA_WA     0044cc30     ft2.obj
 0003:00000c48       ?Ft2F4LevelKey@@3PA_WA     0044cc48     ft2.obj
 0003:00000c60       ?Ft2F5LevelKey@@3PA_WA     0044cc60     ft2.obj
 0003:00000c78       ?Ft2F6LevelKey@@3PA_WA     0044cc78     ft2.obj
 0003:00000c90       ?Ft2F7LevelKey@@3PA_WA     0044cc90     ft2.obj
 0003:00000ca8       ?Ft2F8LevelKey@@3PA_WA     0044cca8     ft2.obj
 0003:00000cc0       ?Ft2F9LevelKey@@3PA_WA     0044ccc0     ft2.obj
 0003:00000cd8       ?Ft2StartScreenKey@@3PA_WA 0044ccd8     ft2.obj
 0003:00000cf8       ?HavePressureControlKey@@3PA_WA 0044ccf8     ft2.obj
 0003:00000d20       ?HaveSureTrakKey@@3PA_WA   0044cd20     ft2.obj
 0003:00000d3c       ?IsHiresSensorKey@@3PA_WA  0044cd3c     ft2.obj
 0003:00000d58       ?LastNKey@@3PA_WA          0044cd58     ft2.obj
 0003:00000d64       ?MonitorWireKey@@3PA_WA    0044cd64     ft2.obj
 0003:00000d7c       ?NoUploadWireKey@@3PA_WA   0044cd7c     ft2.obj
 0003:00000d98       ?RetractWireKey@@3PA_WA    0044cd98     ft2.obj
 0003:00000db0       ?SaveAllAlarmShotsKey@@3PA_WA 0044cdb0     ft2.obj
 0003:00000dd4       ?SavepartExeName@@3PA_WA   0044cdd4     ft2.obj
 0003:00000df0       ?ServiceToolsGrayLevelKey@@3PA_WA 0044cdf0     ft2.obj
 0003:00000e1c       ?SubtractTimeoutKey@@3PA_WA 0044ce1c     ft2.obj
 0003:00000e3c       ?TurnOffAlarmsOnDownKey@@3PA_WA 0044ce3c     ft2.obj
 0003:00000e64       ?UploadRetractTimeoutKey@@3PA_WA 0044ce64     ft2.obj
 0003:00000e90       ?UploadStartShotTimeoutKey@@3PA_WA 0044ce90     ft2.obj
 0003:00000ec0       ?UseNullValveOutputKey@@3PA_WA 0044cec0     ft2.obj
 0003:00000ee8       ?UseValveTestOutputKey@@3PA_WA 0044cee8     ft2.obj
 0003:00000f10       ?StartControlPgmCmd@@3PA_WA 0044cf10     ft2.obj
 0003:00000f18       ?EnableShotXmitCmd@@3PA_WA 0044cf18     ft2.obj
 0003:00000f24       ?DisableShotXmitCmd@@3PA_WA 0044cf24     ft2.obj
 0003:00000f30       ?ShotXmitCmdLen@@3HA       0044cf30     ft2.obj
 0003:00000f34       ?ShotSaveCompleteMessage@@3PA_WA 0044cf34     ft2.obj
 0003:00000f58       ?ShotSaveCompleteMessageLen@@3HA 0044cf58     ft2.obj
 0003:00000f5c       ?START_OF_UPLOAD@@3PA_WA   0044cf5c     ft2.obj
 0003:00000f7c       ?END_OF_UPLOAD@@3PA_WA     0044cf7c     ft2.obj
 0003:00000f98       ?RESET_MACHINE_CMD@@3PA_WA 0044cf98     ft2.obj
 0003:00000fb4       ?CLEAR_NO_UPLOAD_FLAG_CMD@@3PA_WA 0044cfb4     ft2.obj
 0003:00000fe0       ?DONT_SEND_OP_DATA_PACKETS@@3PA_WA 0044cfe0     ft2.obj
 0003:00000fec       ?SEND_OP_DATA_PACKETS@@3PA_WA 0044cfec     ft2.obj
 0003:00000ff8       ?CLEAR_CONTROL_FILE_DATE_CMD@@3PA_WA 0044cff8     ft2.obj
 0003:00001008       ?NormalCellColor@@3KA      0044d008     ft2.obj
 0003:0000100c       ?GreenColor@@3KA           0044d00c     ft2.obj
 0003:00001010       ?OrangeColor@@3KA          0044d010     ft2.obj
 0003:00001014       ?CurrentWindow@@3VWINDOW_CLASS@@A 0044d014     ft2.obj
 0003:0000101c       ?MainWindow@@3VWINDOW_CLASS@@A 0044d01c     ft2.obj
 0003:00001024       ?AutoShotDisplayWindow@@3VWINDOW_CLASS@@A 0044d024     ft2.obj
 0003:0000102c       ?CompareVariablesDialog@@3VWINDOW_CLASS@@A 0044d02c     ft2.obj
 0003:00001034       ?CurrentDacDialog@@3VWINDOW_CLASS@@A 0044d034     ft2.obj
 0003:0000103c       ?CurrentValuesDialog@@3VWINDOW_CLASS@@A 0044d03c     ft2.obj
 0003:00001044       ?GlobalParameterDialog@@3VWINDOW_CLASS@@A 0044d044     ft2.obj
 0003:0000104c       ?ControlModsDialog@@3VWINDOW_CLASS@@A 0044d04c     ft2.obj
 0003:00001054       ?SetNullDialog@@3VWINDOW_CLASS@@A 0044d054     ft2.obj
 0003:0000105c       ?SetDacDialog@@3VWINDOW_CLASS@@A 0044d05c     ft2.obj
 0003:00001064       ?StatusWindow@@3VWINDOW_CLASS@@A 0044d064     ft2.obj
 0003:0000106c       ?TerminalWindow@@3VWINDOW_CLASS@@A 0044d06c     ft2.obj
 0003:00001074       ?TestAlarmOutputsDialog@@3VWINDOW_CLASS@@A 0044d074     ft2.obj
 0003:0000107c       ?UploadFlashDialog@@3VWINDOW_CLASS@@A 0044d07c     ft2.obj
 0003:00001084       ?ValveTestDialog@@3VWINDOW_CLASS@@A 0044d084     ft2.obj
 0003:0000108c       ?HiresSensorTestDialog@@3VWINDOW_CLASS@@A 0044d08c     ft2.obj
 0003:00001094       ?UploadAbortedDialog@@3VWINDOW_CLASS@@A 0044d094     ft2.obj
 0003:0000109c       ?ShutdownStatusDialog@@3VWINDOW_CLASS@@A 0044d09c     ft2.obj
 0003:000010a4       ?OutputListDialog@@3VWINDOW_CLASS@@A 0044d0a4     ft2.obj
 0003:000010ac       ?NullStatusMessage@@3VWINDOW_CLASS@@A 0044d0ac     ft2.obj
 0003:000010b4       ?ManualInfoTbox@@3VWINDOW_CLASS@@A 0044d0b4     ft2.obj
 0003:000010bc       ?FtiiAutoNull@@3VFTII_VAR_ARRAY@@A 0044d0bc     ft2.obj
 0003:000010d8       ?CurrentMachineVars@@3VFTII_VAR_ARRAY@@A 0044d0d8     ft2.obj
 0003:0000111c       ?GlobalParameters@@3VFTII_VAR_ARRAY@@A 0044d11c     ft2.obj
 0003:00002820       ?FileTimeoutError@@3PA_WA  0044e820     v5subs:dbsubs.obj
 0003:00002844       ?FileNotFoundError@@3PA_WA 0044e844     v5subs:dbsubs.obj
 0003:00002864       ?PathNotFoundError@@3PA_WA 0044e864     v5subs:dbsubs.obj
 0003:0000306c       ?PATTERN_INDEX@@3PB_WB     0044f06c     v5subs:shot_name.obj
 0003:00003070       ?FIELD_LENGTH_INDEX@@3PB_WB 0044f070     v5subs:shot_name.obj
 0003:000032a0       ?ResultsString@@3PA_WA     0044f2a0     v5subs:partlist.obj
 0003:00003540       ___security_cookie         0044f540     LIBCMT:gs_cookie.obj
 0003:00003544       ___security_cookie_complement 0044f544     LIBCMT:gs_cookie.obj
 0003:00003548       __fltused                  0044f548     LIBCMT:fpinit.obj
 0003:0000354c       __ldused                   0044f54c     LIBCMT:fpinit.obj
 0003:000036d0       __cfltcvt_tab              0044f6d0     LIBCMT:cmiscdat.obj
 0003:000036f8       ___isa_enabled             0044f6f8     LIBCMT:cpu_disp.obj
 0003:000036fc       ___flsindex                0044f6fc     LIBCMT:tidtable.obj
 0003:00003708       ___badioinfo               0044f708     LIBCMT:ioinit.obj
 0003:00003748       __mbctype                  0044f748     LIBCMT:mbctype.obj
 0003:00003850       __mbcasemap                0044f850     LIBCMT:mbctype.obj
 0003:00003950       ___initialmbcinfo          0044f950     LIBCMT:mbctype.obj
 0003:00003b74       ___ptmbcinfo               0044fb74     LIBCMT:mbctype.obj
 0003:00003c68       ___mb_cur_max              0044fc68     LIBCMT:nlsdata.obj
 0003:00003c6c       ___wclocalestr             0044fc6c     LIBCMT:nlsdata.obj
 0003:00003c70       ___lc_time_c               0044fc70     LIBCMT:nlsdata.obj
 0003:00003dd4       ___ptlocinfo               0044fdd4     LIBCMT:nlsdata.obj
 0003:00003dd8       ___initiallocinfo          0044fdd8     LIBCMT:nlsdata.obj
 0003:00003e90       ___initiallocalestructinfo 0044fe90     LIBCMT:nlsdata.obj
 0003:00003e98       ___globallocalestatus      0044fe98     LIBCMT:glstatus.obj
 0003:00003ea0       __HUGE                     0044fea0     LIBCMT:huge.obj
 0003:00003fa8       __d_inf                    0044ffa8     LIBCMT:util.obj
 0003:00003fb0       __d_ind                    0044ffb0     LIBCMT:util.obj
 0003:00003fb8       __d_max                    0044ffb8     LIBCMT:util.obj
 0003:00003fc0       __d_min                    0044ffc0     LIBCMT:util.obj
 0003:00003fc8       __d_mzero                  0044ffc8     LIBCMT:util.obj
 0003:00004110       __iob                      00450110     LIBCMT:_file.obj
 0003:000043c0       ___lconv                   004503c0     LIBCMT:lconv.obj
 0003:000043c4       ___lconv_static_decimal    004503c4     LIBCMT:lconv.obj
 0003:000043c8       ___lconv_c                 004503c8     LIBCMT:lconv.obj
 0003:00004418       ___lconv_static_W_decimal  00450418     LIBCMT:lconv.obj
 0003:0000441c       __pctype                   0045041c     LIBCMT:ctype.obj
 0003:00004420       __pwctype                  00450420     LIBCMT:ctype.obj
 0003:00004424       __matherr_flag             00450424     LIBCMT:matherr.obj
 0003:00004428       ___abort_behavior          00450428     LIBCMT:abort.obj
 0003:00004430       __NLG_Destination          00450430     LIBCMT:exsup.obj
 0003:00004440       __pow10pos                 00450440     LIBCMT:constpow.obj
 0003:000045a0       __pow10neg                 004505a0     LIBCMT:constpow.obj
 0003:00004700       __confh                    00450700     LIBCMT:initcon.obj
 0003:00004704       ??_R0?AVWINDOW_CLASS@@@8   00450704     ft2.obj
 0003:00004720       ??_R0?AVFTII_VAR@@@8       00450720     ft2.obj
 0003:00004738       ??_R0?AVFTII_VAR_ARRAY@@@8 00450738     ft2.obj
 0003:00004758       ??_R0?AVFTII_ARRAY_DATA@@@8 00450758     v5subs:ftii_shot_data.obj
 0003:00004778       ??_R0?AVFTII_PROFILE@@@8   00450778     v5subs:ftii_shot_data.obj
 0003:00004794       ??_R0?AVbad_alloc@std@@@8  00450794     LIBCMT:new.obj
 0003:000047b0       ??_R0?AVexception@std@@@8  004507b0     LIBCMT:new.obj
 0003:000047cc       ??_R0?AVtype_info@@@8      004507cc     LIBCMT:typinfo.obj
 0003:00004800       ?CurrentAnalogValue@@3PAIA 00450800     ft2.obj
 0003:00004860       ?SaveShotNameFiles@@3EA    00450860     ft2.obj
 0003:00004861       ?ManualNullInProgress@@3_NA 00450861     ft2.obj
 0003:00004864       ?ShotSaveEvent@@3PAXA      00450864     ft2.obj
 0003:00004868       ?BufPtr@@3PAPAVSHOT_BUFFER_ENTRY@@A 00450868     ft2.obj
 0003:00004908       ?AccelHandle@@3PAUHACCEL__@@A 00450908     ft2.obj
 0003:0000490c       ?Dnu@@3PAPAUHWND__@@A      0045090c     ft2.obj
 0003:00004914       ?MyDc@@3PAUHDC__@@A        00450914     ft2.obj
 0003:00004918       ?MasterPen@@3PAUHPEN__@@A  00450918     ft2.obj
 0003:00004a00       ?NullChar@@3_WA            00450a00     ft2.obj
 0003:00004a04       ?EmptyString@@3PA_WA       00450a04     ft2.obj
 0003:00004a08       ?MainInstance@@3PAUHINSTANCE__@@A 00450a08     ft2.obj
 0003:00004a14       ?OriEditControlProc@@3P6GJPAUHWND__@@IIJ@ZA 00450a14     ft2.obj
 0003:00004a18       ?MainPushButton@@3PAUCONTROL_INFO@@A 00450a18     ft2.obj
 0003:00004a1c       ?AddressTbox@@3PAUCONTROL_INFO@@A 00450a1c     ft2.obj
 0003:00004a20       ?ConnectedTbox@@3PAUCONTROL_INFO@@A 00450a20     ft2.obj
 0003:00004a24       ?MachineTbox@@3PAUCONTROL_INFO@@A 00450a24     ft2.obj
 0003:00004a28       ?PartTbox@@3PAUCONTROL_INFO@@A 00450a28     ft2.obj
 0003:00004a2c       ?MonitorStatusTbox@@3PAUCONTROL_INFO@@A 00450a2c     ft2.obj
 0003:00004a30       ?MainEbox@@3PAUHWND__@@A   00450a30     ft2.obj
 0003:00004a34       ?CurrentValuesCommStatusTb@@3PAUHWND__@@A 00450a34     ft2.obj
 0003:00004a38       ?CurrentValuesMonitorStatusTb@@3PAUHWND__@@A 00450a38     ft2.obj
 0003:00004a3c       ?TerminalIsVisible@@3EA    00450a3c     ft2.obj
 0003:00004a3d       ?BoardMonitorIsRunning@@3_NA 00450a3d     ft2.obj
 0003:00004a3e       ?ShotSaveIsRunning@@3_NA   00450a3e     ft2.obj
 0003:00004a3f       ?ClearAlarmsEachShot@@3EA  00450a3f     ft2.obj
 0003:00004a40       ?ClearMonitorWireOnDown@@3EA 00450a40     ft2.obj
 0003:00004a41       ?ClearDownWireFromPopup@@3EA 00450a41     ft2.obj
 0003:00004a42       ?SaveAllAlarmShots@@3EA    00450a42     ft2.obj
 0003:00004a43       ?SubtractTimeoutFromAutoDown@@3EA 00450a43     ft2.obj
 0003:00004a44       ?HasDigitalServoAmp@@3EA   00450a44     ft2.obj
 0003:00004a45       ?IsHiresSensor@@3EA        00450a45     ft2.obj
 0003:00004a46       ?IsRemoteMonitor@@3EA      00450a46     ft2.obj
 0003:00004a47       ?TurnOffAlarmsOnDown@@3EA  00450a47     ft2.obj
 0003:00004a48       ?DownTimeAlarmWire@@3HA    00450a48     ft2.obj
 0003:00004a4c       ?MonitorWire@@3HA          00450a4c     ft2.obj
 0003:00004a50       ?NoUploadWire@@3IA         00450a50     ft2.obj
 0003:00004a54       ?NoUploadWireMask@@3IA     00450a54     ft2.obj
 0003:00004a58       ?RetractWire@@3IA          00450a58     ft2.obj
 0003:00004a5c       ?ExternalParameterAlarms@@3PAVEXTERNAL_PARAMETER_ALARM_CLASS@@A 00450a5c     ft2.obj
 0003:00004a60       ?NofExternalParameterAlarms@@3HA 00450a60     ft2.obj
 0003:00004a64       ?AlsLogIsEnabled@@3EA      00450a64     ft2.obj
 0003:00004a65       ?ErrorLogIsEnabled@@3EA    00450a65     ft2.obj
 0003:00004a66       ?NetworkLogIsEnabled@@3EA  00450a66     ft2.obj
 0003:00004a67       ?SentCommandsLogIsEnabled@@3EA 00450a67     ft2.obj
 0003:00004a68       ?UploadRetractTimeout@@3IA 00450a68     ft2.obj
 0003:00004a6c       ?UploadStartShotTimeout@@3IA 00450a6c     ft2.obj
 0003:00004a70       ?NO_FT2_CONNECT_STATE@@3IA 00450a70     ft2.obj
 0003:00004a74       ?ShutdownState@@3HA        00450a74     ft2.obj
 0003:00004a78       ?MainListBox@@3VLISTBOX_CLASS@@A 00450a78     ft2.obj
 0003:00004a8c       ?CycleStartString@@3VSTRING_CLASS@@A 00450a8c     ft2.obj
 0003:00004a94       ?CycleStartRaceTrack@@3VRACETRACK_CLASS@@A 00450a94     ft2.obj
 0003:00004aa4       ?ExternalAlarmsRaceTrack@@3VRACETRACK_CLASS@@A 00450aa4     ft2.obj
 0003:00004ab4       ?AnalogSensor@@3VANALOG_SENSOR@@A 00450ab4     ft2.obj
 0003:00004ab8       ?CurrentMachine@@3VMACHINE_CLASS@@A 00450ab8     ft2.obj
 0003:00004b60       ?CurrentPart@@3VPART_CLASS@@A 00450b60     ft2.obj
 0003:00004cb0       ?ComputerName@@3VSTRING_CLASS@@A 00450cb0     ft2.obj
 0003:00004cb8       ?NoConnectState@@3VSTRING_CLASS@@A 00450cb8     ft2.obj
 0003:00004cc0       ?NoResponse@@3VSTRING_CLASS@@A 00450cc0     ft2.obj
 0003:00004cc8       ?NotMonitored@@3VSTRING_CLASS@@A 00450cc8     ft2.obj
 0003:00004cd0       ?NotConnected@@3VSTRING_CLASS@@A 00450cd0     ft2.obj
 0003:00004cd8       ?Connected@@3VSTRING_CLASS@@A 00450cd8     ft2.obj
 0003:00004ce0       ?Connecting@@3VSTRING_CLASS@@A 00450ce0     ft2.obj
 0003:00004ce8       ?SavingString@@3VSTRING_CLASS@@A 00450ce8     ft2.obj
 0003:00004cf0       ?ZeroStrokeLength@@3VSTRING_CLASS@@A 00450cf0     ft2.obj
 0003:00004cf8       ?UploadFailed@@3VSTRING_CLASS@@A 00450cf8     ft2.obj
 0003:00004d00       ?AlsLogFile@@3VNAME_CLASS@@A 00450d00     ft2.obj
 0003:00004d08       ?ErrorLogFile@@3VNAME_CLASS@@A 00450d08     ft2.obj
 0003:00004d10       ?NetworkLogFile@@3VNAME_CLASS@@A 00450d10     ft2.obj
 0003:00004d18       ?SentCommandsLogFile@@3VNAME_CLASS@@A 00450d18     ft2.obj
 0003:00004d20       ?CurrentOpStatus@@3UFTII_OP_STATUS_DATA@@A 00450d20     ft2.obj
 0003:00004d84       ?StepMessage@@3VBLOCK_MESSAGE_CLASS@@A 00450d84     ft2.obj
 0003:00004d90       ?ShutdownStatusListbox@@3VLISTBOX_CLASS@@A 00450d90     ft2.obj
 0003:00004da4       ?OutputListbox@@3VLISTBOX_CLASS@@A 00450da4     ft2.obj
 0003:00004e38       ?MainMenu@@3VMENU_CONTROL_ENTRY@@A 00450e38     ft2.obj
 0003:00004f1c       ?FontList@@3VFONT_LIST_CLASS@@A 00450f1c     ft2.obj
 0003:00004f20       ?TerminalMenu@@3VMENU_CONTROL_ENTRY@@A 00450f20     ft2.obj
 0003:00005004       ?MainWindowClientRect@@3VRECTANGLE_CLASS@@A 00451004     ft2.obj
 0003:00005020       ?StringTable@@3VSTRINGTABLE_CLASS@@A 00451020     ft2.obj
 0003:00005098       ?MainWindowMoveRect@@3VRECTANGLE_CLASS@@A 00451098     ft2.obj
 0003:000080f0       ?UploadAbortedList@@3VTEXT_LIST_CLASS@@A 004540f0     ft2.obj
 0003:00008178       ?InputBitControl@@3PAUBIT_CONTROL@@A 00454178     ft2.obj
 0003:000082a8       ?OutputBitControl@@3PAUBIT_CONTROL@@A 004542a8     ft2.obj
 0003:0000c58c       ?Boards@@3PAVFTII_BOARD_ENTRY@@A 0045858c     board_monitor.obj
 0003:0000c590       ?NofBoards@@3HA            00458590     board_monitor.obj
 0003:0000c708       ?Worker@@3VWORKER_LIST_CLASS@@A 00458708     shotsave.obj
 0003:0000c79c       ?SkipList@@3VGENERIC_LIST_CLASS@@A 0045879c     skip.obj
 0003:0000c7ac       ___@@_PchSym_@00@UhlfixvhUevihrlmICFxUvnkgbUfuivvUvnkgbOlyq@6B73A80F87A14A31 004587ac     empty.obj
 0003:0000c868       ?emptystring@STRING_CLASS@@0PA_WA 00458868     v5subs:stringcl.obj
 0003:0000d47c       ?Shifts@@3PAUSHIFT@@A      0045947c     v5subs:shift.obj
 0003:0000d480       ?NofShifts@@3FA            00459480     v5subs:shift.obj
 0003:0000d900       ___fastflag                00459900     LIBCMT:fpinit.obj
 0003:0000dc28       __aenvptr                  00459c28     LIBCMT:wincrt0.obj
 0003:0000dc2c       __wenvptr                  00459c2c     LIBCMT:wincrt0.obj
 0003:0000dc30       ?_pnhHeap@@3P6AHI@ZA       00459c30     LIBCMT:handler.obj
 0003:0000dc34       __C_Exit_Done              00459c34     LIBCMT:crt0dat.obj
 0003:0000dc38       ___argc                    00459c38     LIBCMT:crt0dat.obj
 0003:0000dc3c       ___argv                    00459c3c     LIBCMT:crt0dat.obj
 0003:0000dc40       ___wargv                   00459c40     LIBCMT:crt0dat.obj
 0003:0000dc44       __environ                  00459c44     LIBCMT:crt0dat.obj
 0003:0000dc48       __wenviron                 00459c48     LIBCMT:crt0dat.obj
 0003:0000dc4c       __pgmptr                   00459c4c     LIBCMT:crt0dat.obj
 0003:0000dc50       __wpgmptr                  00459c50     LIBCMT:crt0dat.obj
 0003:0000dc54       __umaskval                 00459c54     LIBCMT:crt0dat.obj
 0003:0000dc58       __exitflag                 00459c58     LIBCMT:crt0dat.obj
 0003:0000dc5c       __C_Termination_Done       00459c5c     LIBCMT:crt0dat.obj
 0003:0000dc60       ___winitenv                00459c60     LIBCMT:crt0dat.obj
 0003:0000dc64       ___initenv                 00459c64     LIBCMT:crt0dat.obj
 0003:0000dc68       __maxwait                  00459c68     LIBCMT:crtheap.obj
 0003:0000dc74       ___isa_available           00459c74     LIBCMT:cpu_disp.obj
 0003:0000dc78       ___favor                   00459c78     LIBCMT:cpu_disp.obj
 0003:0000dc7c       ___pInvalidArgHandler      00459c7c     LIBCMT:invarg.obj
 0003:0000dc80       __crtheap                  00459c80     LIBCMT:heapinit.obj
 0003:0000dc88       ___pioinfo                 00459c88     LIBCMT:ioinit.obj
 0003:0000de90       ___app_type                00459e90     LIBCMT:crt0msg.obj
 0003:0000e4c0       ___error_mode              0045a4c0     LIBCMT:errmode.obj
 0003:0000e4c4       ___mbcodepage              0045a4c4     LIBCMT:mbctype.obj
 0003:0000e4c8       ___ismbcodepage            0045a4c8     LIBCMT:mbctype.obj
 0003:0000e4cc       ___mbulinfo                0045a4cc     LIBCMT:mbctype.obj
 0003:0000e4d8       ___mblocalename            0045a4d8     LIBCMT:mbctype.obj
 0003:0000e4e0       ___locale_changed          0045a4e0     LIBCMT:wsetloca.obj
 0003:0000e4e8       __newmode                  0045a4e8     LIBCMT:_newmode.obj
 0003:0000e640       ?__pInconsistency@@3P6AXXZA 0045a640     LIBCMT:hooks.obj
 0003:0000e644       ___pPurecall               0045a644     LIBCMT:inithelp.obj
 0003:0000e660       __stdbuf                   0045a660     LIBCMT:_sftbuf.obj
 0003:0000e668       ?pArgList@UnDecorator@@0PAVReplicator@@A 0045a668     LIBCMT:undname.obj
 0003:0000e66c       ?pZNameList@UnDecorator@@0PAVReplicator@@A 0045a66c     LIBCMT:undname.obj
 0003:0000e670       ?pTemplateArgList@UnDecorator@@0PAVReplicator@@A 0045a670     LIBCMT:undname.obj
 0003:0000e674       ?gName@UnDecorator@@0PBDB  0045a674     LIBCMT:undname.obj
 0003:0000e678       ?name@UnDecorator@@0PBDB   0045a678     LIBCMT:undname.obj
 0003:0000e67c       ?outputString@UnDecorator@@0PADA 0045a67c     LIBCMT:undname.obj
 0003:0000e680       ?maxStringLength@UnDecorator@@0HA 0045a680     LIBCMT:undname.obj
 0003:0000e684       ?disableFlags@UnDecorator@@0KA 0045a684     LIBCMT:undname.obj
 0003:0000e688       ?fExplicitTemplateParams@UnDecorator@@0_NA 0045a688     LIBCMT:undname.obj
 0003:0000e689       ?fGetTemplateArgumentList@UnDecorator@@0_NA 0045a689     LIBCMT:undname.obj
 0003:0000e68c       ?m_pGetParameter@UnDecorator@@0P6APADJ@ZA 0045a68c     LIBCMT:undname.obj
 0003:0000e6a4       __outputformat             0045a6a4     LIBCMT:outputformat.obj
 0003:0000e6a8       __cflush                   0045a6a8     LIBCMT:_file.obj
 0003:0000e6c0       ___lconv_static_null       0045a6c0     LIBCMT:lconv.obj
 0003:0000e6c4       ___lconv_static_W_null     0045a6c4     LIBCMT:lconv.obj
 0003:0000e6e0       __bufin                    0045a6e0     <common>
 0003:0000f6e0       ___piob                    0045b6e0     <common>
 0003:0000f6e4       __nstream                  0045b6e4     <common>
 0003:0000f6e8       ___use_sse2_mathfcns       0045b6e8     <common>
 0003:0000f6ec       __pmatherr                 0045b6ec     <common>
 0003:0000f6f0       __nhandle                  0045b6f0     <common>
 0003:0000f6f4       __debugger_hook_dummy      0045b6f4     <common>
 0003:0000f700       _encodedKERNEL32Functions  0045b700     <common>
 0003:0000f784       __pDestructExceptionObject 0045b784     <common>
 0003:0000f788       ___dyn_tls_init_callback   0045b788     <common>
 0003:0000f78c       ___onexitend               0045b78c     <common>
 0003:0000f790       ___onexitbegin             0045b790     <common>
 0003:0000f794       ___mbctype_initialized     0045b794     <common>
 0003:0000f798       ___env_initialized         0045b798     <common>
 0003:0000f79c       __acmdln                   0045b79c     <common>

 entry point at        0001:000322e0

 Static symbols

 0002:fffc0000       .idata$6                   00400000     comdlg32:COMDLG32.dll
 0001:00000000       ??__EAlsLogFile@@YAXXZ     00401000 f   ft2.obj
 0001:00000016       ??__EAltStepAcc@@YAXXZ     00401016 f   ft2.obj
 0001:0000002c       ??__EAltStepAccPrefix@@YAXXZ 0040102c f   ft2.obj
 0001:00000042       ??__EAltStepEnd@@YAXXZ     00401042 f   ft2.obj
 0001:00000058       ??__EAltStepNum@@YAXXZ     00401058 f   ft2.obj
 0001:0000006e       ??__EAltStepPos@@YAXXZ     0040106e f   ft2.obj
 0001:00000084       ??__EAltStepPosPrefix@@YAXXZ 00401084 f   ft2.obj
 0001:0000009a       ??__EAltStepVel@@YAXXZ     0040109a f   ft2.obj
 0001:000000b0       ??__EAltStepVelPrefix@@YAXXZ 004010b0 f   ft2.obj
 0001:000000c6       ??__EAnalogSensor@@YAXXZ   004010c6 f   ft2.obj
 0001:000000dc       ??__EAutoBack@@YAXXZ       004010dc f   ft2.obj
 0001:000000f2       ??__EAutoShotDisplayWindow@@YAXXZ 004010f2 f   ft2.obj
 0001:000000fe       ??__EBoardVariable@@YAXXZ  004010fe f   ft2.obj
 0001:00000125       ??__EBoardVariableDescription@@YAXXZ 00401125 f   ft2.obj
 0001:0000014c       ??__ECVCurrentVariableTb@@YAXXZ 0040114c f   ft2.obj
 0001:00000158       ??__ECVGettingTb@@YAXXZ    00401158 f   ft2.obj
 0001:00000164       ??__ECVLb@@YAXXZ           00401164 f   ft2.obj
 0001:00000170       ??__ECVofTb@@YAXXZ         00401170 f   ft2.obj
 0001:0000017c       ??__ECmdString@@YAXXZ      0040117c f   ft2.obj
 0001:00000192       ??__ECompareVariablesDialog@@YAXXZ 00401192 f   ft2.obj
 0001:0000019e       ??__EComputerName@@YAXXZ   0040119e f   ft2.obj
 0001:000001b4       ??__EConnected@@YAXXZ      004011b4 f   ft2.obj
 0001:000001ca       ??__EConnecting@@YAXXZ     004011ca f   ft2.obj
 0001:000001e0       ??__EControlModsDialog@@YAXXZ 004011e0 f   ft2.obj
 0001:000001ec       ??__ECurrentDacDialog@@YAXXZ 004011ec f   ft2.obj
 0001:000001f8       ??__ECurrentMachine@@YAXXZ 004011f8 f   ft2.obj
 0001:0000020e       ??__ECurrentMachineVars@@YAXXZ 0040120e f   ft2.obj
 0001:0000021a       ??__ECurrentOpStatus@@YAXXZ 0040121a f   ft2.obj
 0001:00000224       ??__ECurrentPart@@YAXXZ    00401224 f   ft2.obj
 0001:0000023a       ??__ECurrentValuesDialog@@YAXXZ 0040123a f   ft2.obj
 0001:00000246       ??__ECurrentWindow@@YAXXZ  00401246 f   ft2.obj
 0001:00000252       ??__ECycleStartRaceTrack@@YAXXZ 00401252 f   ft2.obj
 0001:00000268       ??__ECycleStartString@@YAXXZ 00401268 f   ft2.obj
 0001:0000027e       ??__EErrorLog@@YAXXZ       0040127e f   ft2.obj
 0001:00000294       ??__EErrorLogFile@@YAXXZ   00401294 f   ft2.obj
 0001:000002aa       ??__EErrorLogTempFile@@YAXXZ 004012aa f   ft2.obj
 0001:000002c0       ??__EErrorLogZipFile@@YAXXZ 004012c0 f   ft2.obj
 0001:000002d6       ??__EExternalAlarmsRaceTrack@@YAXXZ 004012d6 f   ft2.obj
 0001:000002ec       ??__EFontList@@YAXXZ       004012ec f   ft2.obj
 0001:00000302       ??__EFt2TestDialog@@YAXXZ  00401302 f   ft2.obj
 0001:0000030e       ??__EFtiiAutoNull@@YAXXZ   0040130e f   ft2.obj
 0001:0000031a       ??__EGlobalParameterDialog@@YAXXZ 0040131a f   ft2.obj
 0001:00000326       ??__EGlobalParameters@@YAXXZ 00401326 f   ft2.obj
 0001:00000332       ??__EHiresSensorTestDialog@@YAXXZ 00401332 f   ft2.obj
 0001:0000033e       ??__EInputBitControl@@YAXXZ 0040133e f   ft2.obj
 0001:00000363       ??__EInputOpto@@YAXXZ      00401363 f   ft2.obj
 0001:00000387       ??__ELvdtString@@YAXXZ     00401387 f   ft2.obj
 0001:0000039d       ??__EMainListBox@@YAXXZ    0040139d f   ft2.obj
 0001:000003a9       ??__EMainMenu@@YAXXZ       004013a9 f   ft2.obj
 0001:000003bf       ??__EMainWindow@@YAXXZ     004013bf f   ft2.obj
 0001:000003cb       ??__EMainWindowClientRect@@YAXXZ 004013cb f   ft2.obj
 0001:000003e1       ??__EMainWindowMoveRect@@YAXXZ 004013e1 f   ft2.obj
 0001:000003f7       ??__EManualInfoTbox@@YAXXZ 004013f7 f   ft2.obj
 0001:00000403       ??__EMeasString@@YAXXZ     00401403 f   ft2.obj
 0001:00000419       ??__EMonitorStatusControl@@YAXXZ 00401419 f   ft2.obj
 0001:00000444       ??__ENetworkLogFile@@YAXXZ 00401444 f   ft2.obj
 0001:0000045a       ??__ENoConnectState@@YAXXZ 0040145a f   ft2.obj
 0001:00000470       ??__ENoResponse@@YAXXZ     00401470 f   ft2.obj
 0001:00000486       ??__ENotConnected@@YAXXZ   00401486 f   ft2.obj
 0001:0000049c       ??__ENotMonitored@@YAXXZ   0040149c f   ft2.obj
 0001:000004b2       ??__ENullStatusMessage@@YAXXZ 004014b2 f   ft2.obj
 0001:000004be       ??__EOutputBitControl@@YAXXZ 004014be f   ft2.obj
 0001:000004e3       ??__EOutputListDialog@@YAXXZ 004014e3 f   ft2.obj
 0001:000004ef       ??__EOutputListbox@@YAXXZ  004014ef f   ft2.obj
 0001:000004fb       ??__EOutputOpto@@YAXXZ     004014fb f   ft2.obj
 0001:0000051f       ??__EParkStep2Num@@YAXXZ   0040151f f   ft2.obj
 0001:00000535       ??__EParkStepNum@@YAXXZ    00401535 f   ft2.obj
 0001:0000054b       ??__EParkStepVolts@@YAXXZ  0040154b f   ft2.obj
 0001:00000561       ??__EParkStepVoltsPrefix@@YAXXZ 00401561 f   ft2.obj
 0001:00000577       ??__EResumeDialog@@YAXXZ   00401577 f   ft2.obj
 0001:00000583       ??__ESavingString@@YAXXZ   00401583 f   ft2.obj
 0001:00000599       ??__ESentCommandsLogFile@@YAXXZ 00401599 f   ft2.obj
 0001:000005af       ??__ESetDacDialog@@YAXXZ   004015af f   ft2.obj
 0001:000005bb       ??__ESetNullDialog@@YAXXZ  004015bb f   ft2.obj
 0001:000005c7       ??__EShutdownStatusDialog@@YAXXZ 004015c7 f   ft2.obj
 0001:000005d3       ??__EShutdownStatusListbox@@YAXXZ 004015d3 f   ft2.obj
 0001:000005df       ??__EStartScreen@@YAXXZ    004015df f   ft2.obj
 0001:000005f5       ??__EStartStepNum@@YAXXZ   004015f5 f   ft2.obj
 0001:0000060b       ??__EStartStepVolts@@YAXXZ 0040160b f   ft2.obj
 0001:00000621       ??__EStartStepVoltsPrefix@@YAXXZ 00401621 f   ft2.obj
 0001:00000637       ??__EStatusWindow@@YAXXZ   00401637 f   ft2.obj
 0001:00000643       ??__EStepMessage@@YAXXZ    00401643 f   ft2.obj
 0001:00000659       ??__EStringTable@@YAXXZ    00401659 f   ft2.obj
 0001:0000066f       ??__ETerminalMenu@@YAXXZ   0040166f f   ft2.obj
 0001:00000685       ??__ETerminalWindow@@YAXXZ 00401685 f   ft2.obj
 0001:00000691       ??__ETestAlarmOpto@@YAXXZ  00401691 f   ft2.obj
 0001:000006b5       ??__ETestAlarmOutputsDialog@@YAXXZ 004016b5 f   ft2.obj
 0001:000006c1       ??__EUploadAbortedDialog@@YAXXZ 004016c1 f   ft2.obj
 0001:000006cd       ??__EUploadAbortedList@@YAXXZ 004016cd f   ft2.obj
 0001:000006e3       ??__EUploadFailed@@YAXXZ   004016e3 f   ft2.obj
 0001:000006f9       ??__EUploadFlashDialog@@YAXXZ 004016f9 f   ft2.obj
 0001:00000705       ??__EValveTestDialog@@YAXXZ 00401705 f   ft2.obj
 0001:00000711       ??__EWireString@@YAXXZ     00401711 f   ft2.obj
 0001:00000727       ??__EZeroStrokeLength@@YAXXZ 00401727 f   ft2.obj
 0001:0000073d       ??__EAckList@@YAXXZ        0040173d f   board_monitor.obj
 0001:00000753       ??__EAckMessageStore@@YAXXZ 00401753 f   board_monitor.obj
 0001:00000769       ??__ENewData@@YAXXZ        00401769 f   board_monitor.obj
 0001:0000077f       ??__EReceivedAcks@@YAXXZ   0040177f f   board_monitor.obj
 0001:00000795       ??__ESocketMessageStore@@YAXXZ 00401795 f   board_monitor.obj
 0001:000007ab       ??__EStdDown@@YAXXZ        004017ab f   board_monitor.obj
 0001:000007b7       ??__EEosEndFile@@YAXXZ     004017b7 f   shotsave.obj
 0001:000007cd       ??__EEosPyramidLines@@YAXXZ 004017cd f   shotsave.obj
 0001:000007da       ??__EEosStartFile@@YAXXZ   004017da f   shotsave.obj
 0001:000007f0       ??__EShotsaveLogFile@@YAXXZ 004017f0 f   shotsave.obj
 0001:00000806       ??__EWorker@@YAXXZ         00401806 f   shotsave.obj
 0001:00000812       ??__ESkipList@@YAXXZ       00401812 f   skip.obj
 0001:0000081e       ??__EEmptyString@@YAXXZ    0040181e f   v5subs:nameclas.obj
 0001:00000834       ??__EMyComputer@@YAXXZ     00401834 f   v5subs:nameclas.obj
 0001:0000083e       ??__EEmptySensor@@YAXXZ    0040183e f   v5subs:asensor.obj
 0001:00000854       ??__EMyComputer@@YAXXZ     00401854 f   v5subs:computer.obj
 0001:0000086a       ??__ENoComputer@@YAXXZ     0040186a f   v5subs:computer.obj
 0001:00000880       ??__EEmptyString@@YAXXZ    00401880 f   v5subs:machname.obj
 0001:00000896       ??__EFontList@@YAXXZ       00401896 f   v5subs:optocontrol.obj
 0001:000008ac       ??__Eempty_entry@@YAXXZ    004018ac f   v5subs:setpoint.obj
 0001:000008cc       ??__EFontList@@YAXXZ       004018cc f   v5subs:stringtable.obj
 0001:000008e2       ??__EEventList@@YAXXZ      004018e2 f   v5subs:client.obj
 0001:000008ee       ??__EExeDirectory@@YAXXZ   004018ee f   v5subs:gexedir.obj
 0001:00000904       ??__EFontList@@YAXXZ       00401904 f   v5subs:menuctrl.obj
 0001:0000091a       ??__EEmpty@@YAXXZ          0040191a f   v5subs:runlist.obj
 0001:00000937       ??__EMyEmptyString@@YAXXZ  00401937 f   v5subs:shot_name_reset.obj
 0001:0000094d       ??__ET@@YAXXZ              0040194d f   v5subs:semaphor.obj
 0001:00000af9       ?add_board_variable_to_list@@YAXPA_W@Z 00401af9 f   ft2.obj
 0001:00000c2f       ?add_wire_description@@YAXAAVSTRING_CLASS@@PA_WHI@Z 00401c2f f   ft2.obj
 0001:00000d33       ?ascii_0_to_5_volts@@YAPA_WI@Z 00401d33 f   ft2.obj
 0001:00000d6f       ?ascii_dac_volts@@YAPA_WI@Z 00401d6f f   ft2.obj
 0001:00000db3       ?ascii_dac_volts_3@@YAPA_WI@Z 00401db3 f   ft2.obj
 0001:00000f57       ?check_disk_free_space@@YAXXZ 00401f57 f   ft2.obj
 0001:00000f92       ?check_for_new_board@@YAXXZ 00401f92 f   ft2.obj
 0001:00000fe4       ?check_for_savepart_updates@@YAXXZ 00401fe4 f   ft2.obj
 0001:0000113a       ?check_for_workstation@@YAXXZ 0040213a f   ft2.obj
 0001:0000118d       ?check_terminal_position@@YAXXZ 0040218d f   ft2.obj
 0001:000015af       ?copy_mods_to_screen@@YAXXZ 004025af f   ft2.obj
 0001:0000175b       ?create_controls@@YAXH@Z   0040275b f   ft2.obj
 0001:000020ca       ?create_diagnostic_dialogs@@YAXXZ 004030ca f   ft2.obj
 0001:000021ad       ?create_tooltips@@YAXXZ    004031ad f   ft2.obj
 0001:00002b2c       ?digital_pot_setting@@YAIH@Z 00403b2c f   ft2.obj
 0001:00002b71       ?do_alt_step_type_select@@YAXXZ 00403b71 f   ft2.obj
 0001:00002bd1       ?do_config_word@@YAXPA_W@Z 00403bd1 f   ft2.obj
 0001:00002c4b       ?do_hires_sensor_test_timer@@YAXPAUHWND__@@@Z 00403c4b f   ft2.obj
 0001:00002d3e       ?do_new_alarm_output_values@@YAXXZ 00403d3e f   ft2.obj
 0001:00002d87       ?do_new_current_values@@YAXXZ 00403d87 f   ft2.obj
 0001:000039cd       ?do_new_ft2_connect_state@@YAXIJ@Z 004049cd f   ft2.obj
 0001:00003b0c       ?do_new_oscilloscope_data@@YAXJ@Z 00404b0c f   ft2.obj
 0001:00003b76       ?do_new_rt_data@@YAXIJ@Z   00404b76 f   ft2.obj
 0001:00003c57       ?do_new_set_dac_values@@YAXXZ 00404c57 f   ft2.obj
 0001:00004042       ?do_new_set_null_values@@YAXXZ 00405042 f   ft2.obj
 0001:000040e2       ?do_opto_click@@YAXIJ@Z    004050e2 f   ft2.obj
 0001:00004132       ?do_updown@@YAXH@Z         00405132 f   ft2.obj
 0001:000041e5       ?dock_terminal@@YAXXZ      004051e5 f   ft2.obj
 0001:00004454       ?exit_main_proc@@YAXXZ     00405454 f   ft2.obj
 0001:00004499       ?extract_alt_step_velocity@@YAXAAVSTRING_CLASS@@@Z 00405499 f   ft2.obj
 0001:00004558       ?fill_global_parameters@@YAXXZ 00405558 f   ft2.obj
 0001:00004a09       ?fill_machine_listbox@@YAEPAUHWND__@@@Z 00405a09 f   ft2.obj
 0001:00004c52       ?get_alt_step_from_line@@YAXPA_W@Z 00405c52 f   ft2.obj
 0001:00004d64       ?get_alt_step_velocity_for_ebox@@YAXAAVSTRING_CLASS@@@Z 00405d64 f   ft2.obj
 0001:00004e99       ?get_ascii_rt_data@@YAXJ@Z 00405e99 f   ft2.obj
 0001:0000516f       ?get_board_variable_descriptions@@YAXXZ 0040616f f   ft2.obj
 0001:000053a2       ?get_history_length@@YAXXZ 004063a2 f   ft2.obj
 0001:00005426       ?get_next_upload_aborted_machine@@YA_NXZ 00406426 f   ft2.obj
 0001:00005474       ?get_string_value_from_line@@YAPA_WPA_W@Z 00406474 f   ft2.obj
 0001:00005525       ?hide_terminal_window@@YAXXZ 00406525 f   ft2.obj
 0001:000056ec       ?id_enabled@@YAEH@Z        004066ec f   ft2.obj
 0001:00005f0d       ?init_control_mods_dialog@@YAXXZ 00406f0d f   ft2.obj
 0001:00005ff5       ?init_current_values_dialog@@YAXXZ 00406ff5 f   ft2.obj
 0001:0000645a       ?init_set_dac_dialog@@YAXXZ 0040745a f   ft2.obj
 0001:00006588       ?init_valve_test_data@@YAXXZ 00407588 f   ft2.obj
 0001:00006760       ?load_control_mods_from_file@@YA_NXZ 00407760 f   ft2.obj
 0001:00006a72       ?load_current_part@@YAXXZ  00407a72 f   ft2.obj
 0001:00006b02       ?load_limit_switch_wires_for_realtime_output_display@@YAXXZ 00407b02 f   ft2.obj
 0001:00006bb1       ?load_machine_vars@@YAEXZ  00407bb1 f   ft2.obj
 0001:00006c8e       ?load_main_menu@@YAXXZ     00407c8e f   ft2.obj
 0001:00006cd3       ?load_master_trace@@YAXXZ  00407cd3 f   ft2.obj
 0001:00006ee2       ?load_resources@@YAXXZ     00407ee2 f   ft2.obj
 0001:00006ffe       ?load_terminal_menu@@YAXXZ 00407ffe f   ft2.obj
 0001:000070dc       ?log_input_bits@@YAXXZ     004080dc f   ft2.obj
 0001:00007176       ?log_output_bits@@YAXXZ    00408176 f   ft2.obj
 0001:000078e6       $LN167                     004088e6     ft2.obj
 0001:0000790a       ?mv_from_percent@@YAHAAVSTRING_CLASS@@@Z 0040890a f   ft2.obj
 0001:00007980       ?mv_from_percent@@YAHN@Z   00408980 f   ft2.obj
 0001:000079fb       ?need_monitor_brush@@YAPAUHBRUSH__@@PAUHWND__@@@Z 004089fb f   ft2.obj
 0001:00007d6b       ?nof_ft2_boards@@YAHXZ     00408d6b f   ft2.obj
 0001:00007e55       ?output_list_update@@YAXXZ 00408e55 f   ft2.obj
 0001:000083c9       ?percent_from_mv@@YAPA_WH@Z 004093c9 f   ft2.obj
 0001:000083ea       ?percent_to_hex@@YAPA_WN@Z 004093ea f   ft2.obj
 0001:0000845d       ?plot_oscilloscope_data@@YAXPAH@Z 0040945d f   ft2.obj
 0001:000087b3       ?position_button_child@@YAXAAVWINDOW_CLASS@@@Z 004097b3 f   ft2.obj
 0001:0000889f       ?position_ft2_test_dialog@@YAXXZ 0040989f f   ft2.obj
 0001:00008940       ?position_main_window@@YAXXZ 00409940 f   ft2.obj
 0001:00008a3b       ?position_shutdown_status_dialog@@YAXPAUHWND__@@@Z 00409a3b f   ft2.obj
 0001:00008b52       ?put_byte@@YAXAAIIH@Z      00409b52 f   ft2.obj
 0001:00008c22       ?refresh_current_machine@@YAXAAVSTRING_CLASS@@@Z 00409c22 f   ft2.obj
 0001:00008c50       ?refresh_current_values@@YAXXZ 00409c50 f   ft2.obj
 0001:00008e0d       ?refresh_set_dac_dialog@@YAXXZ 00409e0d f   ft2.obj
 0001:00008ef8       ?refresh_valve_test_screen@@YAXXZ 00409ef8 f   ft2.obj
 0001:00008f6d       ?remote_shutdown@@YAXXZ    00409f6d f   ft2.obj
 0001:000090fd       ?restore_saved_board_variables@@YAEXZ 0040a0fd f   ft2.obj
 0001:0000922c       ?retry_upload_to_aborted_machine@@YAXXZ 0040a22c f   ft2.obj
 0001:00009281       ?save_board_variables@@YAXXZ 0040a281 f   ft2.obj
 0001:00009341       ?save_channel_mode@@YAXH@Z 0040a341 f   ft2.obj
 0001:000093bb       ?save_control_mod_changes@@YAXXZ 0040a3bb f   ft2.obj
 0001:0000959e       ?save_global_parameters@@YAXXZ 0040a59e f   ft2.obj
 0001:000099dc       ?save_listbox@@YAXXZ       0040a9dc f   ft2.obj
 0001:00009a3f       ?save_machine_vars@@YAEXZ  0040aa3f f   ft2.obj
 0001:00009aeb       ?save_master_trace@@YAXXZ  0040aaeb f   ft2.obj
 0001:00009bc3       ?save_null_value@@YAXXZ    0040abc3 f   ft2.obj
 0001:00009c4f       ?scroll_listbox_to_last_entry@@YAXXZ 0040ac4f f   ft2.obj
 0001:00009c7e       ?send_channel_mode_command@@YAHXZ 0040ac7e f   ft2.obj
 0001:00009cfb       ?send_channel_mode_command@@YAXH@Z 0040acfb f   ft2.obj
 0001:00009d4c       ?send_command@@YAXPA_W0_N@Z 0040ad4c f   ft2.obj
 0001:00009d8a       ?send_command_to_current_machine@@YAXPA_W_N@Z 0040ad8a f   ft2.obj
 0001:00009e2e       ?send_current_digital_pot_command@@YAXXZ 0040ae2e f   ft2.obj
 0001:00009ef7       ?send_data_server_down_notification@@YAXPA_W@Z 0040aef7 f   ft2.obj
 0001:00009f52       ?send_data_server_shot_notification@@YAXPA_W0@Z 0040af52 f   ft2.obj
 0001:00009fc1       ?send_lvdt_digital_pot_command@@YAXE@Z 0040afc1 f   ft2.obj
 0001:0000a19f       ?send_manual_null_command@@YAXXZ 0040b19f f   ft2.obj
 0001:0000a54b       ?send_test_message@@YAXH@Z 0040b54b f   ft2.obj
 0001:0000a6f7       $LN23                      0040b6f7     ft2.obj
 0001:0000a72f       ?set_channel_5_8_labels@@YAXH@Z 0040b72f f   ft2.obj
 0001:0000ac67       ?set_current_window@@YAXAAVWINDOW_CLASS@@@Z 0040bc67 f   ft2.obj
 0001:0000b4d6       ?set_globals_from_eboxes@@YAXPAUHWND__@@@Z 0040c4d6 f   ft2.obj
 0001:0000b648       ?set_gray_menu_items@@YAXXZ 0040c648 f   ft2.obj
 0001:0000b80e       ?set_output_list_setup_strings@@YAXPAUHWND__@@@Z 0040c80e f   ft2.obj
 0001:0000b881       ?should_be_hex@@YAEPA_W0@Z 0040c881 f   ft2.obj
 0001:0000b92e       ?show_alt_step@@YAXXZ      0040c92e f   ft2.obj
 0001:0000b95a       ?show_alt_step_controls@@YAXXZ 0040c95a f   ft2.obj
 0001:0000b9ce       ?show_buttons@@YAXXZ       0040c9ce f   ft2.obj
 0001:0000ba21       ?show_park_step@@YAXXZ     0040ca21 f   ft2.obj
 0001:0000ba8d       ?show_revision_d_controls@@YAXXZ 0040ca8d f   ft2.obj
 0001:0000bb18       ?show_start_step@@YAXXZ    0040cb18 f   ft2.obj
 0001:0000bb84       ?show_upload_aborted_dialog@@YAXH@Z 0040cb84 f   ft2.obj
 0001:0000bc47       ?show_valve_test_revision_d_controls@@YAXXZ 0040cc47 f   ft2.obj
 0001:0000bca4       ?showbits@@YAPA_WPA_WI@Z   0040cca4 f   ft2.obj
 0001:0000bd42       ?shutdown@@YAXXZ           0040cd42 f   ft2.obj
 0001:0000beea       ?size_opto_button@@YAXXZ   0040ceea f   ft2.obj
 0001:0000c05d       ?size_output_list_dialog@@YAXXZ 0040d05d f   ft2.obj
 0001:0000c0c4       ?size_terminal@@YAXXZ      0040d0c4 f   ft2.obj
 0001:0000c179       ?start_acquiring_all_board_variables@@YAEH@Z 0040d179 f   ft2.obj
 0001:0000c5bc       ?stop_hires_sensor_test@@YAXXZ 0040d5bc f   ft2.obj
 0001:0000c814       ?toggle_io_display@@YAXXZ  0040d814 f   ft2.obj
 0001:0000c99c       ?toggle_logging_sent_commands@@YAXXZ 0040d99c f   ft2.obj
 0001:0000ca48       ?ultohexstring@@YAPA_WPA_WI@Z 0040da48 f   ft2.obj
 0001:0000caa6       ?update_alt_step@@YAXH@Z   0040daa6 f   ft2.obj
 0001:0000cb71       ?update_current_variables_listbox@@YAXXZ 0040db71 f   ft2.obj
 0001:0000cced       ?update_park_step@@YAXXZ   0040dced f   ft2.obj
 0001:0000cd4c       ?update_start_step@@YAXXZ  0040dd4c f   ft2.obj
 0001:0000d0f6       ?view_errorlog@@YAXXZ      0040e0f6 f   ft2.obj
 0001:0000d184       ?write_log@@YAXPA_W@Z      0040e184 f   ft2.obj
 0001:0000da2d       ?add_board_data@@YAPA_WPA_WG@Z 0040ea2d f   board_monitor.obj
 0001:0000db15       ?ascii_strings_are_equal@@YAEPBD0H@Z 0040eb15 f   board_monitor.obj
 0001:0000dbbf       ?board_index@@YAHAAUsockaddr_in@@@Z 0040ebbf f   board_monitor.obj
 0001:0000dbf2       ?board_index@@YAHABVSTRING_CLASS@@@Z 0040ebf2 f   board_monitor.obj
 0001:0000dc34       ?board_index@@YAHPBVFTII_BOARD_ENTRY@@@Z 0040ec34 f   board_monitor.obj
 0001:0000dc56       ?check_alarms@@YAXPAVFTII_BOARD_ENTRY@@PAN@Z 0040ec56 f   board_monitor.obj
 0001:0000e0ac       ?check_for_cycle_start@@YA_NPAVFTII_BOARD_ENTRY@@PA_W@Z 0040f0ac f   board_monitor.obj
 0001:0000e65c       ?check_for_timeouts@@YAXXZ 0040f65c f   board_monitor.obj
 0001:0000eb66       ?check_one_alarm@@YAXAA_NAAIMMFMM@Z 0040fb66 f   board_monitor.obj
 0001:0000ecbd       ?connect_one_board@@YAXH@Z 0040fcbd f   board_monitor.obj
 0001:0000edee       ?connect_to_boards@@YAXXZ  0040fdee f   board_monitor.obj
 0001:0000ee35       ?continue_connecting_one_board@@YAXH@Z 0040fe35 f   board_monitor.obj
 0001:0000f198       ?disconnect_from_boards@@YAXXZ 00410198 f   board_monitor.obj
 0001:0000f45c       ?do_ack_message@@YAXPAUSOCKET_MESSAGE@@@Z 0041045c f   board_monitor.obj
 0001:0000f5bc       ?do_ascii_message@@YAXHPAUSOCKET_MESSAGE@@@Z 004105bc f   board_monitor.obj
 0001:0000f618       ?do_ascii_message@@YAXHPA_W@Z 00410618 f   board_monitor.obj
 0001:0000fa3d       ?do_newsetup@@YAXAAVSTRING_CLASS@@@Z 00410a3d f   board_monitor.obj
 0001:0000fd2c       ?get_channel_mode@@YAXHPAD@Z 00410d2c f   board_monitor.obj
 0001:0000fff1       ?get_socket_message@@YAPAUSOCKET_MESSAGE@@XZ 00410ff1 f   board_monitor.obj
 0001:0001100f       ?log_network_error_string@@YAXAAVSTRING_CLASS@@@Z 0041200f f   board_monitor.obj
 0001:00011028       ?log_network_error_string@@YAXPA_W@Z 00412028 f   board_monitor.obj
 0001:000110a4       ?make_line@@YAXAAVSTRING_CLASS@@IAAVTIME_CLASS@@@Z 004120a4 f   board_monitor.obj
 0001:000110e1       ?needs_impact_parameter_file@@YA_NAAVPART_CLASS@@@Z 004120e1 f   board_monitor.obj
 0001:0001195a       ?save_alarm_summary_counts@@YAXPAVFTII_BOARD_ENTRY@@@Z 0041295a f   board_monitor.obj
 0001:00011f0e       ?send_ack@@YAXAAUsockaddr_in@@@Z 00412f0e f   board_monitor.obj
 0001:00012143       ?send_machine_state_event_string@@YAXAAVSTRING_CLASS@@GG@Z 00413143 f   board_monitor.obj
 0001:00012b66       ?start_chars_are_equal@@YA_NPB_WPBD@Z 00413b66 f   board_monitor.obj
 0001:00012ba8       ?start_of_binary_data@@YAXHPAUBINARY_HEADER@@@Z 00413ba8 f   board_monitor.obj
 0001:00012cd5       ?start_socket@@YAXXZ       00413cd5 f   board_monitor.obj
 0001:00012e90       ?truncate_control_file_line@@YAXPA_W@Z 00413e90 f   board_monitor.obj
 0001:00012ed8       ?update_config_word@@YAXAAVSTRING_CLASS@@K@Z 00413ed8 f   board_monitor.obj
 0001:00012f61       ?update_config_word@@YAXAAVSTRING_CLASS@@KK@Z 00413f61 f   board_monitor.obj
 0001:000130d6       ?update_monitor_status@@YAXPAVFTII_BOARD_ENTRY@@PA_W@Z 004140d6 f   board_monitor.obj
 0001:00013203       ?update_one_board_display@@YAXHPA_W@Z 00414203 f   board_monitor.obj
 0001:0001330f       ?update_pc_digital_pot_gain@@YAXAAVSTRING_CLASS@@AAVPRESSURE_CONTROL_CLASS@@@Z 0041430f f   board_monitor.obj
 0001:00013dca       ?write_als_bit_changes@@YAXII@Z 00414dca f   board_monitor.obj
 0001:00013fa1       ?write_sent_command@@YAXHPAD@Z 00414fa1 f   board_monitor.obj
 0001:000141e0       ?convert_control_chars@@YAXPA_W@Z 004151e0 f   shotsave.obj
 0001:000142a6       ?delete_shot_name_file@@YAXAAVNAME_CLASS@@AAUPROFILE_NAME_ENTRY@@@Z 004152a6 f   shotsave.obj
 0001:00014404       ?freebuf@@YAXH@Z           00415404 f   shotsave.obj
 0001:00014550       ?get_dde_parameter_list@@YAXXZ 00415550 f   shotsave.obj
 0001:000149d2       ?log_shotsave_error@@YAXAAVSTRING_CLASS@@@Z 004159d2 f   shotsave.obj
 0001:00014a45       ?make_line@@YAXAAVSTRING_CLASS@@INH@Z 00415a45 f   shotsave.obj
 0001:00014ac5       ?make_output_line@@YAPA_WPAVSHOT_BUFFER_ENTRY@@PA_WAAVPARAMETER_CLASS@@@Z 00415ac5 f   shotsave.obj
 0001:0001546d       ?make_parameter_event_string@@YAPA_WPAVSHOT_BUFFER_ENTRY@@@Z 0041646d f   shotsave.obj
 0001:00015a88       ?post_newshot_message@@YAXAAUPROFILE_NAME_ENTRY@@@Z 00416a88 f   shotsave.obj
 0001:00016205       ?save_this_machine@@YAXAAVSTRING_CLASS@@@Z 00417205 f   shotsave.obj
 0001:000165df       ?shot_name_from_file_is_good@@YA_NAAVSTRING_CLASS@@AAVSHOT_NAME_CLASS@@@Z 004175df f   shotsave.obj
 0001:000167f2       ?shutdown@@YAXXZ           004177f2 f   shotsave.obj
 0001:0001688d       ?startup@@YAXXZ            0041788d f   shotsave.obj
 0001:00016d9a       ?update_ftii_parameter_record_with_external_parameters@@YA_NPAVSHOT_BUFFER_ENTRY@@AAVPARAMETER_CLASS@@@Z 00417d9a f   shotsave.obj
 0001:00016fcd       ?write_als_log@@YAXPA_WAAVFTII_FILE_DATA@@@Z 00417fcd f   shotsave.obj
 0001:0001745c       ?write_bytes_to_serial_port@@YAEPAXK@Z 0041845c f   shotsave.obj
 0001:000174a6       ?write_eos_param_file@@YAXPAVSHOT_BUFFER_ENTRY@@AAVPARAMETER_CLASS@@@Z 004184a6 f   shotsave.obj
 0001:00017c30       ?write_ftii_parameters@@YAEPAVSHOT_BUFFER_ENTRY@@AAU_SYSTEMTIME@@G@Z 00418c30 f   shotsave.obj
 0001:00017e94       ?write_hex_file_to_serial_port@@YAEAAVNAME_CLASS@@@Z 00418e94 f   shotsave.obj
 0001:0001802a       ?write_output_file@@YAXPAVSHOT_BUFFER_ENTRY@@AAVPARAMETER_CLASS@@@Z 0041902a f   shotsave.obj
 0001:00018178       ?write_serial_port_info@@YAXPAVSHOT_BUFFER_ENTRY@@AAVPARAMETER_CLASS@@@Z 00419178 f   shotsave.obj
 0001:00018825       ?fill_skip_entry@@YAXPAUSKIP_ENTRY@@AAVSETPOINT_CLASS@@H@Z 00419825 f   skip.obj
 0001:0001892b       ?find@@YAPAUMACH_SKIP_ENTRY@@AAVSTRING_CLASS@@@Z 0041992b f   skip.obj
 0001:00018a1f       ?increment_shot_entry@@YAEPAUSKIP_ENTRY@@U_FILETIME@@@Z 00419a1f f   skip.obj
 0001:00018ae7       ?reset@@YAEPAUMACH_SKIP_ENTRY@@@Z 00419ae7 f   skip.obj
 0001:00019315       ?file_type@@YAHPA_W@Z      0041a315 f   v5subs:exists.obj
 0001:0001963a       ?numberlen@@YAFPB_W@Z      0041a63a f   v5subs:extract.obj
 0001:0001ad33       ?kill_sensor_array@@YAXXZ  0041bd33 f   v5subs:asensor.obj
 0001:0001b127       ?add_field_delimiter@@YAXPA_W@Z 0041c127 f   v5subs:dbsubs.obj
 0001:0001b585       ?fieldlength@@YAFPB_W@Z    0041c585 f   v5subs:dbsubs.obj
 0001:0001c2c4       ?trim_text@@YAFPA_WF@Z     0041d2c4 f   v5subs:dbsubs.obj
 0001:0001d0a4       ?goto_next_string@@YAPA_WPA_W@Z 0041e0a4 f   v5subs:fontclas.obj
 0001:0001d0b8       ?long_from_text@@YAJPB_W@Z 0041e0b8 f   v5subs:fontclas.obj
 0001:0001d3ef       ?check_for_unicode_ini_file@@YAXPB_W0@Z 0041e3ef f   v5subs:iniclass.obj
 0001:0001e5d0       ?get_binary_valve_settings_from_control_all@@YAXAAVMACHINE_CLASS@@@Z 0041f5d0 f   v5subs:machine.obj
 0001:0001f34d       ?create_my_font@@YAXXZ     0042034d f   v5subs:optocontrol.obj
 0001:0001f3ba       ?paint_me@@YAXPAUHWND__@@J@Z 004203ba f   v5subs:optocontrol.obj
 0001:0001f780       ?send_click_message_to_parent@@YAXPAUHWND__@@J@Z 00420780 f   v5subs:optocontrol.obj
 0001:0001ff78       ?is_out@@YAEMMM@Z          00420f78 f   v5subs:param.obj
 0001:00021dcf       ?strip_whitespace_from_eol@@YAXPA_W@Z 00422dcf f   v5subs:stringtable.obj
 0001:00022e25       ?find_existing_event_item@@YAPAUEVENT_ITEM_ENTRY@@PAUEVENT_ENTRY@@F@Z 00423e25 f   v5subs:client.obj
 0001:00022e5e       ?find_existing_event_topic@@YAPAUEVENT_ENTRY@@PA_W@Z 00423e5e f   v5subs:client.obj
 0001:000231c7       ?cleanup_dcurves@@YAXXZ    004241c7 f   v5subs:dcurve.obj
 0001:00023255       ?reload_dcurves@@YAEXZ     00424255 f   v5subs:dcurve.obj
 0001:0002345b       ?get_static_exe_directory@@YAXXZ 0042445b f   v5subs:gexedir.obj
 0001:00024331       ?add_seconds_to_systemtime@@YAEAAU_SYSTEMTIME@@J@Z 00425331 f   v5subs:shift.obj
 0001:000245cf       ?shift_from_rec@@YAXPAFFAAVDB_TABLE@@@Z 004255cf f   v5subs:shift.obj
 0001:00024690       ?shift_index@@YAFABU_SYSTEMTIME@@@Z 00425690 f   v5subs:shift.obj
 0001:0002491d       ?units_index@@YAFF@Z       0042591d f   v5subs:units.obj
 0001:00024b4b       ?paint_temp_message@@YAXXZ 00425b4b f   v5subs:temp_message.obj
 0001:00024be8       ?position_temp_message@@YAXPAUHWND__@@@Z 00425be8 f   v5subs:temp_message.obj
 0001:00025327       ?init_systemtime@@YAXAAU_SYSTEMTIME@@@Z 00426327 f   v5subs:timeclas.obj
 0001:000253ac       ?leap_index@@YAHH@Z        004263ac f   v5subs:timeclas.obj
 0001:000260a8       ?do_nothing_paint_me@@YAXPAUHWND__@@@Z 004270a8 f   v5subs:menuctrl.obj
 0001:0002643e       ?get_current_colors@@YAXPA_W@Z 0042743e f   v5subs:menuctrl.obj
 0001:00027d30       ?variable_number@@YAHPB_W@Z 00428d30 f   v5subs:ftiiclas.obj
 0001:0002b35b       ?downstate@@YAHPA_W0@Z     0042c35b f   v5subs:dstat.obj
 0001:0002b95b       ?get_ft_target_list@@YA_NPA_NAAVSTRING_CLASS@@11@Z 0042c95b f   v5subs:ftanalog.obj
 0001:0002c797       ?append_check_digit@@YAEAAVSTRING_CLASS@@@Z 0042d797 f   v5subs:shot_name.obj
 0001:0002fb17       ?get_position@@YANPANHNAAVSTRING_CLASS@@@Z 00430b17 f   v5subs:ftii_parameters.obj
 0001:0002fb85       ?set_source_data@@YAXPAVSOURCE_DATA@@HHAAVFTII_PROFILE@@AAVPART_CLASS@@@Z 00430b85 f   v5subs:ftii_parameters.obj
 0001:0002fc20       ?set_source_data@@YAXPAVSOURCE_DATA@@HNAAVFTII_PROFILE@@AAVPART_CLASS@@@Z 00430c20 f   v5subs:ftii_parameters.obj
 0001:00030e7e       ?add_err_number@@YAXPA_WF@Z 00431e7e f   v5subs:error_ms.obj
 0001:00030f00       ?add_string@@YAXPA_W@Z     00431f00 f   v5subs:error_ms.obj
 0001:00030f80       ?wait_for_key@@YAXXZ       00431f80 f   v5subs:error_ms.obj
 0001:00031645       __onexit_nolock            00432645 f   LIBCMT:onexit.obj
 0001:00031730       $$000000                   00432730     LIBCMT:chkstk.obj
 0001:00031800       $$000000                   00432800     LIBCMT:memcpy.obj
 0001:00031a50       LeadUpVec                  00432a50     LIBCMT:memcpy.obj
 0001:00031acc       UnwindUpVec                00432acc     LIBCMT:memcpy.obj
 0001:00031b38       TrailUpVec                 00432b38     LIBCMT:memcpy.obj
 0001:00031bdc       LeadDownVec                00432bdc     LIBCMT:memcpy.obj
 0001:00031c68       UnwindDownVec              00432c68     LIBCMT:memcpy.obj
 0001:00031cd4       TrailDownVec               00432cd4     LIBCMT:memcpy.obj
 0001:00031f6b       __callthreadstart          00432f6b f   LIBCMT:thread.obj
 0001:00031fd7       __threadstart@4            00432fd7 f   LIBCMT:thread.obj
 0001:00032250       $$000000                   00433250     LIBCMT:memset.obj
 0001:000322ea       ___tmainCRTStartup         004332ea f   LIBCMT:wincrt0.obj
 0001:0003243a       _fast_error_exit           0043343a f   LIBCMT:wincrt0.obj
 0001:00032615       ?strtoxl@@YAKPAUlocaleinfo_struct@@PBDPAPBDHH@Z 00433615 f   LIBCMT:strtol.obj
 0001:00032890       $$000000                   00433890     LIBCMT:floor_pentium4.obj
 0001:000329c0       $$000000                   004339c0     LIBCMT:ulldiv.obj
 0001:00032a30       $$000000                   00433a30     LIBCMT:memmove.obj
 0001:00032c80       LeadUpVec                  00433c80     LIBCMT:memmove.obj
 0001:00032cfc       UnwindUpVec                00433cfc     LIBCMT:memmove.obj
 0001:00032d68       TrailUpVec                 00433d68     LIBCMT:memmove.obj
 0001:00032e0c       LeadDownVec                00433e0c     LIBCMT:memmove.obj
 0001:00032e98       UnwindDownVec              00433e98     LIBCMT:memmove.obj
 0001:00032f04       TrailDownVec               00433f04     LIBCMT:memmove.obj
 0001:00033080       $$000000                   00434080     LIBCMT:ftol2.obj
 0001:00033130       $$000000                   00434130     LIBCMT:ftol3.obj
 0001:00033500       $$000000                   00434500     LIBCMT:sqrt.obj
 0001:000335c0       $$000000                   004345c0     LIBCMT:ceil_pentium4.obj
 0001:000336e0       $$000000                   004346e0     LIBCMT:lldiv.obj
 0001:00033790       $$000000                   00434790     LIBCMT:llmul.obj
 0001:00033b80       __initterm                 00434b80 f   LIBCMT:crt0dat.obj
 0001:00033bea       _doexit                    00434bea f   LIBCMT:crt0dat.obj
 0001:00033e40       $$000000                   00434e40     LIBCMT:sehprolg4.obj
 0001:00034040       $$000000                   00435040     LIBCMT:strcmp.obj
 0001:0003455e       __cftoe2_l                 0043555e f   LIBCMT:cvt.obj
 0001:0003477d       __cftof2_l                 0043577d f   LIBCMT:cvt.obj
 0001:00034bb3       __shift                    00435bb3 f   LIBCMT:cvt.obj
 0001:00035c47       _parse_cmdline             00436c47 f   LIBCMT:stdargv.obj
 0001:000366f2       ?CPtoLocaleName@@YAPB_WH@Z 004376f2 f   LIBCMT:mbctype.obj
 0001:0003672c       ?getSystemCP@@YAHH@Z       0043772c f   LIBCMT:mbctype.obj
 0001:0003679a       ?setSBCS@@YAXPAUthreadmbcinfostruct@@@Z 0043779a f   LIBCMT:mbctype.obj
 0001:000367f9       ?setSBUpLow@@YAXPAUthreadmbcinfostruct@@@Z 004377f9 f   LIBCMT:mbctype.obj
 0001:00037388       $LN79                      00438388     LIBCMT:libm_error.obj
 0001:00037bb0       $$000000                   00438bb0     LIBCMT:87disp.obj
 0001:00037d80       $$000000                   00438d80     LIBCMT:genexcep.obj
 0001:00037de0       $$000000                   00438de0     LIBCMT:common.obj
 0001:00038310       $$000000                   00439310     LIBCMT:strlen.obj
 0001:00038897       _siglookup                 00439897 f   LIBCMT:winsig.obj
 0001:00038a10       $$000000                   00439a10     LIBCMT:exsup4.obj
 0001:00038aa0       __unwind_handler4          00439aa0 f   LIBCMT:exsup4.obj
 0001:00038d50       $$000000                   00439d50     LIBCMT:strrchr.obj
 0001:00038fe0       $$000000                   00439fe0     LIBCMT:lldvrm.obj
 0001:000390c0       $$000000                   0043a0c0     LIBCMT:ullshr.obj
 0001:000392b5       ?x_ismbbtype_l@@YAHPAUlocaleinfo_struct@@IHH@Z 0043a2b5 f   LIBCMT:ismbbyte.obj
 0001:0003a908       $LN333                     0043b908     LIBCMT:strgtold.obj
 0001:0003ae1b       ?__crtLCMapStringA_stat@@YAHPAUlocaleinfo_struct@@PB_WKPBDHPADHHH@Z 0043be1b f   LIBCMT:a_map.obj
 0001:0003b083       ?__crtGetStringTypeA_stat@@YAHPAUlocaleinfo_struct@@KPBDHPAGHH@Z 0043c083 f   LIBCMT:a_str.obj
 0001:0003bf9a       _flsall                    0043cf9a f   LIBCMT:fflush.obj
 0001:0003c080       $$000000                   0043d080     LIBCMT:exsup.obj
 0001:0003c0a0       __unwind_handler           0043d0a0 f   LIBCMT:exsup.obj
 0001:0003c1c0       $$000000                   0043d1c0     LIBCMT:ulldvrm.obj
 0001:0003c255       ___hw_cw_sse2              0043d255 f   LIBCMT:ieee87.obj
 0001:0003c600       __hw_cw                    0043d600 f   LIBCMT:ieee87.obj
 0001:0003c920       $$000000                   0043d920     LIBCMT:alloca16.obj
 0001:0003d9e8       ??__FAlsLogFile@@YAXXZ     0043e9e8 f   ft2.obj
 0001:0003d9f2       ??__FAltStepAcc@@YAXXZ     0043e9f2 f   ft2.obj
 0001:0003d9fc       ??__FAltStepAccPrefix@@YAXXZ 0043e9fc f   ft2.obj
 0001:0003da06       ??__FAltStepEnd@@YAXXZ     0043ea06 f   ft2.obj
 0001:0003da10       ??__FAltStepNum@@YAXXZ     0043ea10 f   ft2.obj
 0001:0003da1a       ??__FAltStepPos@@YAXXZ     0043ea1a f   ft2.obj
 0001:0003da24       ??__FAltStepPosPrefix@@YAXXZ 0043ea24 f   ft2.obj
 0001:0003da2e       ??__FAltStepVel@@YAXXZ     0043ea2e f   ft2.obj
 0001:0003da38       ??__FAltStepVelPrefix@@YAXXZ 0043ea38 f   ft2.obj
 0001:0003da42       ??__FAnalogSensor@@YAXXZ   0043ea42 f   ft2.obj
 0001:0003da4c       ??__FAutoBack@@YAXXZ       0043ea4c f   ft2.obj
 0001:0003da56       ??__FAutoShotDisplayWindow@@YAXXZ 0043ea56 f   ft2.obj
 0001:0003da61       ??__FBoardVariable@@YAXXZ  0043ea61 f   ft2.obj
 0001:0003da7d       ??__FBoardVariableDescription@@YAXXZ 0043ea7d f   ft2.obj
 0001:0003da99       ??__FCVCurrentVariableTb@@YAXXZ 0043ea99 f   ft2.obj
 0001:0003daa4       ??__FCVGettingTb@@YAXXZ    0043eaa4 f   ft2.obj
 0001:0003daaf       ??__FCVLb@@YAXXZ           0043eaaf f   ft2.obj
 0001:0003dab9       ??__FCVofTb@@YAXXZ         0043eab9 f   ft2.obj
 0001:0003dac4       ??__FCmdString@@YAXXZ      0043eac4 f   ft2.obj
 0001:0003dace       ??__FCompareVariablesDialog@@YAXXZ 0043eace f   ft2.obj
 0001:0003dad9       ??__FComputerName@@YAXXZ   0043ead9 f   ft2.obj
 0001:0003dae3       ??__FConnected@@YAXXZ      0043eae3 f   ft2.obj
 0001:0003daed       ??__FConnecting@@YAXXZ     0043eaed f   ft2.obj
 0001:0003daf7       ??__FControlModsDialog@@YAXXZ 0043eaf7 f   ft2.obj
 0001:0003db02       ??__FCurrentDacDialog@@YAXXZ 0043eb02 f   ft2.obj
 0001:0003db0d       ??__FCurrentMachine@@YAXXZ 0043eb0d f   ft2.obj
 0001:0003db17       ??__FCurrentMachineVars@@YAXXZ 0043eb17 f   ft2.obj
 0001:0003db21       ??__FCurrentPart@@YAXXZ    0043eb21 f   ft2.obj
 0001:0003db2b       ??__FCurrentValuesDialog@@YAXXZ 0043eb2b f   ft2.obj
 0001:0003db36       ??__FCurrentWindow@@YAXXZ  0043eb36 f   ft2.obj
 0001:0003db41       ??__FCycleStartRaceTrack@@YAXXZ 0043eb41 f   ft2.obj
 0001:0003db4b       ??__FCycleStartString@@YAXXZ 0043eb4b f   ft2.obj
 0001:0003db55       ??__FErrorLog@@YAXXZ       0043eb55 f   ft2.obj
 0001:0003db5f       ??__FErrorLogFile@@YAXXZ   0043eb5f f   ft2.obj
 0001:0003db69       ??__FErrorLogTempFile@@YAXXZ 0043eb69 f   ft2.obj
 0001:0003db73       ??__FErrorLogZipFile@?5??init@@YAEH@Z@YAXXZ 0043eb73 f   ft2.obj
 0001:0003db7d       ??__FErrorLogZipFile@@YAXXZ 0043eb7d f   ft2.obj
 0001:0003db87       ??__FExternalAlarmsRaceTrack@@YAXXZ 0043eb87 f   ft2.obj
 0001:0003db91       ??__FFontList@@YAXXZ       0043eb91 f   ft2.obj
 0001:0003db9b       ??__FFt2TestDialog@@YAXXZ  0043eb9b f   ft2.obj
 0001:0003dba6       ??__FFtiiAutoNull@@YAXXZ   0043eba6 f   ft2.obj
 0001:0003dbb0       ??__FGlobalParameterDialog@@YAXXZ 0043ebb0 f   ft2.obj
 0001:0003dbbb       ??__FGlobalParameters@@YAXXZ 0043ebbb f   ft2.obj
 0001:0003dbc5       ??__FHiresSensorTestDialog@@YAXXZ 0043ebc5 f   ft2.obj
 0001:0003dbd0       ??__FInputBitControl@@YAXXZ 0043ebd0 f   ft2.obj
 0001:0003dbf1       ??__FInputOpto@@YAXXZ      0043ebf1 f   ft2.obj
 0001:0003dc06       ??__FLvdtString@@YAXXZ     0043ec06 f   ft2.obj
 0001:0003dc10       ??__FMainListBox@@YAXXZ    0043ec10 f   ft2.obj
 0001:0003dc1a       ??__FMainMenu@@YAXXZ       0043ec1a f   ft2.obj
 0001:0003dc24       ??__FMainWindow@@YAXXZ     0043ec24 f   ft2.obj
 0001:0003dc2f       ??__FMainWindowClientRect@@YAXXZ 0043ec2f f   ft2.obj
 0001:0003dc39       ??__FMainWindowMoveRect@@YAXXZ 0043ec39 f   ft2.obj
 0001:0003dc43       ??__FManualInfoTbox@@YAXXZ 0043ec43 f   ft2.obj
 0001:0003dc4e       ??__FMeasString@@YAXXZ     0043ec4e f   ft2.obj
 0001:0003dc58       ??__FMonitorStatusControl@@YAXXZ 0043ec58 f   ft2.obj
 0001:0003dc6d       ??__FNetworkLogFile@@YAXXZ 0043ec6d f   ft2.obj
 0001:0003dc77       ??__FNoConnectState@@YAXXZ 0043ec77 f   ft2.obj
 0001:0003dc81       ??__FNoResponse@@YAXXZ     0043ec81 f   ft2.obj
 0001:0003dc8b       ??__FNotConnected@@YAXXZ   0043ec8b f   ft2.obj
 0001:0003dc95       ??__FNotMonitored@@YAXXZ   0043ec95 f   ft2.obj
 0001:0003dc9f       ??__FNullStatusMessage@@YAXXZ 0043ec9f f   ft2.obj
 0001:0003dcaa       ??__FOutputBitControl@@YAXXZ 0043ecaa f   ft2.obj
 0001:0003dccb       ??__FOutputListDialog@@YAXXZ 0043eccb f   ft2.obj
 0001:0003dcd6       ??__FOutputListbox@@YAXXZ  0043ecd6 f   ft2.obj
 0001:0003dce0       ??__FOutputOpto@@YAXXZ     0043ece0 f   ft2.obj
 0001:0003dcf5       ??__FParkStep2Num@@YAXXZ   0043ecf5 f   ft2.obj
 0001:0003dcff       ??__FParkStepNum@@YAXXZ    0043ecff f   ft2.obj
 0001:0003dd09       ??__FParkStepVolts@@YAXXZ  0043ed09 f   ft2.obj
 0001:0003dd13       ??__FParkStepVoltsPrefix@@YAXXZ 0043ed13 f   ft2.obj
 0001:0003dd1d       ??__FResumeDialog@@YAXXZ   0043ed1d f   ft2.obj
 0001:0003dd28       ??__FSavingString@@YAXXZ   0043ed28 f   ft2.obj
 0001:0003dd32       ??__FSentCommandsLogFile@@YAXXZ 0043ed32 f   ft2.obj
 0001:0003dd3c       ??__FSetDacDialog@@YAXXZ   0043ed3c f   ft2.obj
 0001:0003dd47       ??__FSetNullDialog@@YAXXZ  0043ed47 f   ft2.obj
 0001:0003dd52       ??__FShutdownStatusDialog@@YAXXZ 0043ed52 f   ft2.obj
 0001:0003dd5d       ??__FShutdownStatusListbox@@YAXXZ 0043ed5d f   ft2.obj
 0001:0003dd67       ??__FStartScreen@@YAXXZ    0043ed67 f   ft2.obj
 0001:0003dd71       ??__FStartStepNum@@YAXXZ   0043ed71 f   ft2.obj
 0001:0003dd7b       ??__FStartStepVolts@@YAXXZ 0043ed7b f   ft2.obj
 0001:0003dd85       ??__FStartStepVoltsPrefix@@YAXXZ 0043ed85 f   ft2.obj
 0001:0003dd8f       ??__FStatusWindow@@YAXXZ   0043ed8f f   ft2.obj
 0001:0003dd9a       ??__FStepMessage@@YAXXZ    0043ed9a f   ft2.obj
 0001:0003dda4       ??__FStringTable@@YAXXZ    0043eda4 f   ft2.obj
 0001:0003ddae       ??__FTerminalMenu@@YAXXZ   0043edae f   ft2.obj
 0001:0003ddb8       ??__FTerminalWindow@@YAXXZ 0043edb8 f   ft2.obj
 0001:0003ddc3       ??__FTestAlarmOpto@@YAXXZ  0043edc3 f   ft2.obj
 0001:0003ddd8       ??__FTestAlarmOutputsDialog@@YAXXZ 0043edd8 f   ft2.obj
 0001:0003dde3       ??__FUploadAbortedDialog@@YAXXZ 0043ede3 f   ft2.obj
 0001:0003ddee       ??__FUploadAbortedList@@YAXXZ 0043edee f   ft2.obj
 0001:0003ddf8       ??__FUploadFailed@@YAXXZ   0043edf8 f   ft2.obj
 0001:0003de02       ??__FUploadFlashDialog@@YAXXZ 0043ee02 f   ft2.obj
 0001:0003de0d       ??__FValveTestDialog@@YAXXZ 0043ee0d f   ft2.obj
 0001:0003de18       ??__FWireString@@YAXXZ     0043ee18 f   ft2.obj
 0001:0003de22       ??__FZeroStrokeLength@@YAXXZ 0043ee22 f   ft2.obj
 0001:0003de2c       ??__Ff@?1??write_log@@YAXPA_W@Z@YAXXZ 0043ee2c f   ft2.obj
 0001:0003de36       ??__Flastcommand@?1??edit_control_proc@@YGJPAUHWND__@@IIJ@Z@YAXXZ 0043ee36 f   ft2.obj
 0001:0003de40       ??__Flogs@?1??do_new_current_values@@YAXXZ@YAXXZ 0043ee40 f   ft2.obj
 0001:0003de4a       ??__Fmy_machine@?1??check_for_new_board@@YAXXZ@YAXXZ 0043ee4a f   ft2.obj
 0001:0003de54       ??__Fns@?1??do_new_current_values@@YAXXZ@YAXXZ 0043ee54 f   ft2.obj
 0001:0003de5e       ??__Fns@?1??do_new_set_dac_values@@YAXXZ@YAXXZ 0043ee5e f   ft2.obj
 0001:0003de68       ??__Fns@?1??do_new_set_null_values@@YAXXZ@YAXXZ 0043ee68 f   ft2.obj
 0001:0003de72       ??__Fos@?1??do_new_current_values@@YAXXZ@YAXXZ 0043ee72 f   ft2.obj
 0001:0003de7c       ??__Fos@?1??do_new_set_dac_values@@YAXXZ@YAXXZ 0043ee7c f   ft2.obj
 0001:0003de86       ??__Fs@?1??do_new_current_values@@YAXXZ@YAXXZ 0043ee86 f   ft2.obj
 0001:0003de90       ??__Fs@?1??edit_control_proc@@YGJPAUHWND__@@IIJ@Z@YAXXZ 0043ee90 f   ft2.obj
 0001:0003de9a       ??__Fs@?1??log_input_bits@@YAXXZ@YAXXZ 0043ee9a f   ft2.obj
 0001:0003dea4       ??__Fs@?1??log_output_bits@@YAXXZ@YAXXZ 0043eea4 f   ft2.obj
 0001:0003deae       ??__Fs@?1??push_log_message@@YAXPA_W@Z@YAXXZ 0043eeae f   ft2.obj
 0001:0003deb8       ??__Fs@?1??send_command_to_current_machine@@YAXPA_W_N@Z@YAXXZ 0043eeb8 f   ft2.obj
 0001:0003dec2       ??__Fs@?1??send_data_server_shot_notification@@YAXPA_W0@Z@YAXXZ 0043eec2 f   ft2.obj
 0001:0003decc       ??__Fs@?1??write_log@@YAXPA_W@Z@YAXXZ 0043eecc f   ft2.obj
 0001:0003ded6       ??__Fsc@?1??get_ascii_rt_data@@YAXJ@Z@YAXXZ 0043eed6 f   ft2.obj
 0001:0003dee0       ??__Fwc@?1??do_new_current_values@@YAXXZ@YAXXZ 0043eee0 f   ft2.obj
 0001:0003deeb       ??__Fwc@?1??do_new_set_dac_values@@YAXXZ@YAXXZ 0043eeeb f   ft2.obj
 0001:0003def6       ??__FAckList@@YAXXZ        0043eef6 f   board_monitor.obj
 0001:0003df00       ??__FAckMessageStore@@YAXXZ 0043ef00 f   board_monitor.obj
 0001:0003df0a       ??__FNewData@@YAXXZ        0043ef0a f   board_monitor.obj
 0001:0003df14       ??__FReceivedAcks@@YAXXZ   0043ef14 f   board_monitor.obj
 0001:0003df1e       ??__FSocketMessageStore@@YAXXZ 0043ef1e f   board_monitor.obj
 0001:0003df28       ??__FStdDown@@YAXXZ        0043ef28 f   board_monitor.obj
 0001:0003df32       ??__Fs@?1??continue_connecting_one_board@@YAXH@Z@YAXXZ 0043ef32 f   board_monitor.obj
 0001:0003df3c       ??__FAnalogSensor@?1??write_std_units_csv_file@@YAEAAVSTRING_CLASS@@PAVSHOT_BUFFER_ENTRY@@@Z@YAXXZ 0043ef3c f   shotsave.obj
 0001:0003df46       ??__FEosEndFile@@YAXXZ     0043ef46 f   shotsave.obj
 0001:0003df50       ??__FEosStartFile@@YAXXZ   0043ef50 f   shotsave.obj
 0001:0003df5a       ??__FShotsaveLogFile@@YAXXZ 0043ef5a f   shotsave.obj
 0001:0003df64       ??__FWorker@@YAXXZ         0043ef64 f   shotsave.obj
 0001:0003df6e       ??__FSkipList@@YAXXZ       0043ef6e f   skip.obj
 0001:0003df78       ??__FEmptyString@@YAXXZ    0043ef78 f   v5subs:nameclas.obj
 0001:0003df82       ??__FEmptySensor@@YAXXZ    0043ef82 f   v5subs:asensor.obj
 0001:0003df8c       ??__FMyComputer@@YAXXZ     0043ef8c f   v5subs:computer.obj
 0001:0003df96       ??__FNoComputer@@YAXXZ     0043ef96 f   v5subs:computer.obj
 0001:0003dfa0       ??__FEmptyString@@YAXXZ    0043efa0 f   v5subs:machname.obj
 0001:0003dfaa       ??__FFontList@@YAXXZ       0043efaa f   v5subs:optocontrol.obj
 0001:0003dfb4       ??__Fempty_entry@@YAXXZ    0043efb4 f   v5subs:setpoint.obj
 0001:0003dfc8       ??__FFontList@@YAXXZ       0043efc8 f   v5subs:stringtable.obj
 0001:0003dfd2       ??__FEventList@@YAXXZ      0043efd2 f   v5subs:client.obj
 0001:0003dfdc       ??__Fs@?1??one_hot_link@@YAXPAUHCONV__@@FI@Z@YAXXZ 0043efdc f   v5subs:client.obj
 0001:0003dfe6       ??__FExeDirectory@@YAXXZ   0043efe6 f   v5subs:gexedir.obj
 0001:0003dff0       ??__FFontList@@YAXXZ       0043eff0 f   v5subs:menuctrl.obj
 0001:0003dffa       ??__FEmpty@@YAXXZ          0043effa f   v5subs:runlist.obj
 0001:0003e004       ??__FMyEmptyString@@YAXXZ  0043f004 f   v5subs:shot_name_reset.obj
 0001:0003e00e       ??__FT@@YAXXZ              0043f00e f   v5subs:semaphor.obj
 0002:00000390       _CurrentWindow$initializer$ 00440390     ft2.obj
 0002:00000394       _MainWindow$initializer$   00440394     ft2.obj
 0002:00000398       _AutoShotDisplayWindow$initializer$ 00440398     ft2.obj
 0002:0000039c       _CompareVariablesDialog$initializer$ 0044039c     ft2.obj
 0002:000003a0       _CurrentDacDialog$initializer$ 004403a0     ft2.obj
 0002:000003a4       _CurrentValuesDialog$initializer$ 004403a4     ft2.obj
 0002:000003a8       _GlobalParameterDialog$initializer$ 004403a8     ft2.obj
 0002:000003ac       _ControlModsDialog$initializer$ 004403ac     ft2.obj
 0002:000003b0       _SetNullDialog$initializer$ 004403b0     ft2.obj
 0002:000003b4       _SetDacDialog$initializer$ 004403b4     ft2.obj
 0002:000003b8       _StatusWindow$initializer$ 004403b8     ft2.obj
 0002:000003bc       _TerminalWindow$initializer$ 004403bc     ft2.obj
 0002:000003c0       _TestAlarmOutputsDialog$initializer$ 004403c0     ft2.obj
 0002:000003c4       _UploadFlashDialog$initializer$ 004403c4     ft2.obj
 0002:000003c8       _ValveTestDialog$initializer$ 004403c8     ft2.obj
 0002:000003cc       _HiresSensorTestDialog$initializer$ 004403cc     ft2.obj
 0002:000003d0       _UploadAbortedDialog$initializer$ 004403d0     ft2.obj
 0002:000003d4       _MainListBox$initializer$  004403d4     ft2.obj
 0002:000003d8       _CycleStartString$initializer$ 004403d8     ft2.obj
 0002:000003dc       _CycleStartRaceTrack$initializer$ 004403dc     ft2.obj
 0002:000003e0       _ExternalAlarmsRaceTrack$initializer$ 004403e0     ft2.obj
 0002:000003e4       _CurrentMachine$initializer$ 004403e4     ft2.obj
 0002:000003e8       _CurrentPart$initializer$  004403e8     ft2.obj
 0002:000003ec       _ComputerName$initializer$ 004403ec     ft2.obj
 0002:000003f0       _NoConnectState$initializer$ 004403f0     ft2.obj
 0002:000003f4       _NoResponse$initializer$   004403f4     ft2.obj
 0002:000003f8       _NotMonitored$initializer$ 004403f8     ft2.obj
 0002:000003fc       _NotConnected$initializer$ 004403fc     ft2.obj
 0002:00000400       _Connected$initializer$    00440400     ft2.obj
 0002:00000404       _Connecting$initializer$   00440404     ft2.obj
 0002:00000408       _SavingString$initializer$ 00440408     ft2.obj
 0002:0000040c       _ZeroStrokeLength$initializer$ 0044040c     ft2.obj
 0002:00000410       _UploadFailed$initializer$ 00440410     ft2.obj
 0002:00000414       _AlsLogFile$initializer$   00440414     ft2.obj
 0002:00000418       _ErrorLogFile$initializer$ 00440418     ft2.obj
 0002:0000041c       _NetworkLogFile$initializer$ 0044041c     ft2.obj
 0002:00000420       _SentCommandsLogFile$initializer$ 00440420     ft2.obj
 0002:00000424       _AnalogSensor$initializer$ 00440424     ft2.obj
 0002:00000428       _CurrentOpStatus$initializer$ 00440428     ft2.obj
 0002:0000042c       _StepMessage$initializer$  0044042c     ft2.obj
 0002:00000430       _ShutdownStatusListbox$initializer$ 00440430     ft2.obj
 0002:00000434       _ShutdownStatusDialog$initializer$ 00440434     ft2.obj
 0002:00000438       _OutputListbox$initializer$ 00440438     ft2.obj
 0002:0000043c       _OutputListDialog$initializer$ 0044043c     ft2.obj
 0002:00000440       _NullStatusMessage$initializer$ 00440440     ft2.obj
 0002:00000444       _ManualInfoTbox$initializer$ 00440444     ft2.obj
 0002:00000448       _InputOpto$initializer$    00440448     ft2.obj
 0002:0000044c       _OutputOpto$initializer$   0044044c     ft2.obj
 0002:00000450       _TestAlarmOpto$initializer$ 00440450     ft2.obj
 0002:00000454       _MainMenu$initializer$     00440454     ft2.obj
 0002:00000458       _TerminalMenu$initializer$ 00440458     ft2.obj
 0002:0000045c       _FontList$initializer$     0044045c     ft2.obj
 0002:00000460       _StringTable$initializer$  00440460     ft2.obj
 0002:00000464       _MainWindowClientRect$initializer$ 00440464     ft2.obj
 0002:00000468       _MainWindowMoveRect$initializer$ 00440468     ft2.obj
 0002:0000046c       _WireString$initializer$   0044046c     ft2.obj
 0002:00000470       _StartScreen$initializer$  00440470     ft2.obj
 0002:00000474       _AutoBack$initializer$     00440474     ft2.obj
 0002:00000478       _FtiiAutoNull$initializer$ 00440478     ft2.obj
 0002:0000047c       _CurrentMachineVars$initializer$ 0044047c     ft2.obj
 0002:00000480       _ErrorLog$initializer$     00440480     ft2.obj
 0002:00000484       _BoardVariable$initializer$ 00440484     ft2.obj
 0002:00000488       _BoardVariableDescription$initializer$ 00440488     ft2.obj
 0002:0000048c       _CVLb$initializer$         0044048c     ft2.obj
 0002:00000490       _CVGettingTb$initializer$  00440490     ft2.obj
 0002:00000494       _CVCurrentVariableTb$initializer$ 00440494     ft2.obj
 0002:00000498       _CVofTb$initializer$       00440498     ft2.obj
 0002:0000049c       _ResumeDialog$initializer$ 0044049c     ft2.obj
 0002:000004a0       _Ft2TestDialog$initializer$ 004404a0     ft2.obj
 0002:000004a4       _UploadAbortedList$initializer$ 004404a4     ft2.obj
 0002:000004a8       _GlobalParameters$initializer$ 004404a8     ft2.obj
 0002:000004ac       _AltStepNum$initializer$   004404ac     ft2.obj
 0002:000004b0       _AltStepEnd$initializer$   004404b0     ft2.obj
 0002:000004b4       _AltStepVel$initializer$   004404b4     ft2.obj
 0002:000004b8       _AltStepAcc$initializer$   004404b8     ft2.obj
 0002:000004bc       _AltStepPos$initializer$   004404bc     ft2.obj
 0002:000004c0       _AltStepVelPrefix$initializer$ 004404c0     ft2.obj
 0002:000004c4       _AltStepAccPrefix$initializer$ 004404c4     ft2.obj
 0002:000004c8       _AltStepPosPrefix$initializer$ 004404c8     ft2.obj
 0002:000004cc       _ParkStepNum$initializer$  004404cc     ft2.obj
 0002:000004d0       _ParkStep2Num$initializer$ 004404d0     ft2.obj
 0002:000004d4       _ParkStepVolts$initializer$ 004404d4     ft2.obj
 0002:000004d8       _ParkStepVoltsPrefix$initializer$ 004404d8     ft2.obj
 0002:000004dc       _StartStepNum$initializer$ 004404dc     ft2.obj
 0002:000004e0       _StartStepVolts$initializer$ 004404e0     ft2.obj
 0002:000004e4       _StartStepVoltsPrefix$initializer$ 004404e4     ft2.obj
 0002:000004e8       _InputBitControl$initializer$ 004404e8     ft2.obj
 0002:000004ec       _CmdString$initializer$    004404ec     ft2.obj
 0002:000004f0       _LvdtString$initializer$   004404f0     ft2.obj
 0002:000004f4       _MeasString$initializer$   004404f4     ft2.obj
 0002:000004f8       _ErrorLogTempFile$initializer$ 004404f8     ft2.obj
 0002:000004fc       _ErrorLogZipFile$initializer$ 004404fc     ft2.obj
 0002:00000500       _OutputBitControl$initializer$ 00440500     ft2.obj
 0002:00000504       _MonitorStatusControl$initializer$ 00440504     ft2.obj
 0002:00000508       _ReceivedAcks$initializer$ 00440508     board_monitor.obj
 0002:0000050c       _AckList$initializer$      0044050c     board_monitor.obj
 0002:00000510       _NewData$initializer$      00440510     board_monitor.obj
 0002:00000514       _SocketMessageStore$initializer$ 00440514     board_monitor.obj
 0002:00000518       _AckMessageStore$initializer$ 00440518     board_monitor.obj
 0002:0000051c       _StdDown$initializer$      0044051c     board_monitor.obj
 0002:00000520       _EosPyramidLines$initializer$ 00440520     shotsave.obj
 0002:00000524       _EosEndFile$initializer$   00440524     shotsave.obj
 0002:00000528       _EosStartFile$initializer$ 00440528     shotsave.obj
 0002:0000052c       _ShotsaveLogFile$initializer$ 0044052c     shotsave.obj
 0002:00000530       _Worker$initializer$       00440530     shotsave.obj
 0002:00000534       _SkipList$initializer$     00440534     skip.obj
 0002:00000538       _EmptyString$initializer$  00440538     v5subs:nameclas.obj
 0002:0000053c       _MyComputer$initializer$   0044053c     v5subs:nameclas.obj
 0002:00000540       _EmptySensor$initializer$  00440540     v5subs:asensor.obj
 0002:00000544       _MyComputer$initializer$   00440544     v5subs:computer.obj
 0002:00000548       _NoComputer$initializer$   00440548     v5subs:computer.obj
 0002:0000054c       _EmptyString$initializer$  0044054c     v5subs:machname.obj
 0002:00000550       _FontList$initializer$     00440550     v5subs:optocontrol.obj
 0002:00000554       _empty_entry$initializer$  00440554     v5subs:setpoint.obj
 0002:00000558       _FontList$initializer$     00440558     v5subs:stringtable.obj
 0002:0000055c       _EventList$initializer$    0044055c     v5subs:client.obj
 0002:00000560       _ExeDirectory$initializer$ 00440560     v5subs:gexedir.obj
 0002:00000564       _FontList$initializer$     00440564     v5subs:menuctrl.obj
 0002:00000568       _Empty$initializer$        00440568     v5subs:runlist.obj
 0002:0000056c       _MyEmptyString$initializer$ 0044056c     v5subs:shot_name_reset.obj
 0002:00000570       _T$initializer$            00440570     v5subs:semaphor.obj
 0002:0000057c       _pinit                     0044057c     LIBCMT:onexit.obj
 0002:00000580       _pinit                     00440580     LIBCMT:cpu_disp.obj
 0002:00000584       _pinit                     00440584     LIBCMT:mbctype.obj
 0002:00000588       _pinit                     00440588     LIBCMT:mathfcns.obj
 0002:0000058c       _pinit                     0044058c     LIBCMT:_file.obj
 0002:00000590       _pinit                     00440590     LIBCMT:wincrt0.obj
 0002:0000059c       _pterm                     0044059c     LIBCMT:wsetloca.obj
 0002:000005a0       _pterm                     004405a0     LIBCMT:initcon.obj
 0002:000005a4       _pterm                     004405a4     LIBCMT:_file.obj
 0002:00000674       _InputBitControlId         00440674     ft2.obj
 0002:0000069c       _OutputBitControlId        0044069c     ft2.obj
 0002:00001a04       ?analog_response@?1??get_ascii_rt_data@@YAXJ@Z@4QB_WB 00441a04     ft2.obj
 0002:00001a10       ?null_response@?1??get_ascii_rt_data@@YAXJ@Z@4QB_WB 00441a10     ft2.obj
 0002:00001a20       ?osw1_response@?1??get_ascii_rt_data@@YAXJ@Z@4QB_WB 00441a20     ft2.obj
 0002:00003a30       _CrString                  00443a30     board_monitor.obj
 0002:00003a34       _ConfigSetString           00443a34     board_monitor.obj
 0002:00003a44       _INPUT_BITS_RESPONSE       00443a44     board_monitor.obj
 0002:000041b4       ?ANALOG_RESPONSE@?1??do_ascii_message@@YAXHPA_W@Z@4QB_WB 004441b4     board_monitor.obj
 0002:000041c0       ?TIMER_FREQ_RESPONSE@?1??do_ascii_message@@YAXHPA_W@Z@4QB_WB 004441c0     board_monitor.obj
 0002:000041cc       ?AT_HOME_RESPONSE@?1??do_ascii_message@@YAXHPA_W@Z@4QB_WB 004441cc     board_monitor.obj
 0002:000041e0       ?POS_AT_IMPACT_RESPONSE@?1??do_ascii_message@@YAXHPA_W@Z@4QB_WB 004441e0     board_monitor.obj
 0002:000041f4       ?VERSION_RESPONSE@?1??do_ascii_message@@YAXHPA_W@Z@4QB_WB 004441f4     board_monitor.obj
 0002:00004208       ?VERSION_RESPONSE2@?1??do_ascii_message@@YAXHPA_W@Z@4QB_WB 00444208     board_monitor.obj
 0002:0000421c       ?FATAL_OR_WARNING_RESPONSE@?1??do_ascii_message@@YAXHPA_W@Z@4QB_WB 0044421c     board_monitor.obj
 0002:00004a98       _MAX_RAW_COUNTS            00444a98     v5subs:asensor.obj
 0002:00004b00       _RECORD_DELIMITER_STRING   00444b00     v5subs:dbsubs.obj
 0002:00004b08       _EmptyString               00444b08     v5subs:dbsubs.obj
 0002:00004c58       _ResetCmd                  00444c58     v5subs:listbox.obj
 0002:00004c60       _AddCmd                    00444c60     v5subs:listbox.obj
 0002:00004c68       _DeleteCmd                 00444c68     v5subs:listbox.obj
 0002:00004c70       _GetCurSelCmd              00444c70     v5subs:listbox.obj
 0002:00004c78       _SetCurSelCmd              00444c78     v5subs:listbox.obj
 0002:00004c80       _FindStringCmd             00444c80     v5subs:listbox.obj
 0002:00004c88       _FindPrefixCmd             00444c88     v5subs:listbox.obj
 0002:00004c90       _GetCountCmd               00444c90     v5subs:listbox.obj
 0002:00004c98       _GetTextCmd                00444c98     v5subs:listbox.obj
 0002:00004ca0       _GetTextLenCmd             00444ca0     v5subs:listbox.obj
 0002:00004ca8       _InsertCmd                 00444ca8     v5subs:listbox.obj
 0002:00004cb0       _CmdError                  00444cb0     v5subs:listbox.obj
 0002:00004d28       _ConfigSection             00444d28     v5subs:machine.obj
 0002:00004d38       _FlashVersionKey           00444d38     v5subs:machine.obj
 0002:00005450       _Cursors                   00445450     v5subs:rectclas.obj
 0002:000054d0       _CrLf                      004454d0     v5subs:client.obj
 0002:0000556c       _PeriodString              0044556c     v5subs:ftoasc.obj
 0002:00005570       _ZeroPointZero             00445570     v5subs:ftoasc.obj
 0002:000055a0       _UnknownString             004455a0     v5subs:winsubs.obj
 0002:000055c0       ?s@?1??is_hex_char@@YAE_W@Z@4QB_WB 004455c0     v5subs:hex.obj
 0002:00005630       _ZeroPointZero             00445630     v5subs:dtotchar.obj
 0002:00005738       _RECORD_DELIMITER_STRING   00445738     v5subs:vdbclass.obj
 0002:00005888       _CheckDigitTag             00445888     v5subs:shot_name.obj
 0002:000058a4       _HondaYearTag              004458a4     v5subs:shot_name.obj
 0002:000058b0       _YearTag                   004458b0     v5subs:shot_name.obj
 0002:000058bc       _ShiftYearTag              004458bc     v5subs:shot_name.obj
 0002:000058c8       _ShiftHondaYearTag         004458c8     v5subs:shot_name.obj
 0002:000058d4       _HexMonthTag               004458d4     v5subs:shot_name.obj
 0002:000058e0       _MonthTag                  004458e0     v5subs:shot_name.obj
 0002:000058ec       _ShiftHexMonthTag          004458ec     v5subs:shot_name.obj
 0002:000058f8       _ShiftMonthTag             004458f8     v5subs:shot_name.obj
 0002:00005904       _DayTag                    00445904     v5subs:shot_name.obj
 0002:00005910       _ShiftDayTag               00445910     v5subs:shot_name.obj
 0002:0000591c       _ShiftTag                  0044591c     v5subs:shot_name.obj
 0002:0000592c       _JulianTag                 0044592c     v5subs:shot_name.obj
 0002:00005934       _ShiftJulianTag            00445934     v5subs:shot_name.obj
 0002:00005940       _HoursTag                  00445940     v5subs:shot_name.obj
 0002:00005a28       _MinPosDouble              00445a28     v5subs:zero.obj
 0002:00005a30       _MinNegDouble              00445a30     v5subs:zero.obj
 0002:00005b7c       _ShiftTag                  00445b7c     v5subs:dynamic_file_name.obj
 0002:00005e08       _GS_ExceptionPointers      00445e08     LIBCMT:gs_report.obj
 0002:00005e10       _One                       00445e10     LIBCMT:floor_pentium4.obj
 0002:00005e20       _Bns                       00445e20     LIBCMT:floor_pentium4.obj
 0002:00005e30       _NegOne                    00445e30     LIBCMT:floor_pentium4.obj
 0002:00005e40       _NegZero                   00445e40     LIBCMT:floor_pentium4.obj
 0002:00005e50       _S                         00445e50     LIBCMT:floor_pentium4.obj
 0002:00005e60       _Int32ToUInt32             00445e60     LIBCMT:ftol3.obj
 0002:00005e70       _MantissaMask              00445e70     LIBCMT:ftol3.obj
 0002:00005e78       _IntegerBit                00445e78     LIBCMT:ftol3.obj
 0002:00005e80       _SignBit64                 00445e80     LIBCMT:ftol3.obj
 0002:00005e88       _MinFP64                   00445e88     LIBCMT:ftol3.obj
 0002:00005e90       _MinInt64                  00445e90     LIBCMT:ftol3.obj
 0002:00005e98       _MaxInt64                  00445e98     LIBCMT:ftol3.obj
 0002:00005ea0       _MaxUInt64                 00445ea0     LIBCMT:ftol3.obj
 0002:00005ea8       _MaxFP32                   00445ea8     LIBCMT:ftol3.obj
 0002:00005eb0       _MinFP32                   00445eb0     LIBCMT:ftol3.obj
 0002:00005eb8       _MinSubInexact             00445eb8     LIBCMT:ftol3.obj
 0002:00005ec0       _FpExcptTable              00445ec0     LIBCMT:ftol3.obj
 0002:00005ed0       _i1075                     00445ed0     LIBCMT:ftol3.obj
 0002:00005ed4       _i1087                     00445ed4     LIBCMT:ftol3.obj
 0002:00005ed8       _x0800                     00445ed8     LIBCMT:ftol3.obj
 0002:00005edc       _x17FF                     00445edc     LIBCMT:ftol3.obj
 0002:00005ee0       _CWMask                    00445ee0     LIBCMT:ftol3.obj
 0002:00005ef0       _One                       00445ef0     LIBCMT:ceil_pentium4.obj
 0002:00005f00       _Bns                       00445f00     LIBCMT:ceil_pentium4.obj
 0002:00005f10       _Zero                      00445f10     LIBCMT:ceil_pentium4.obj
 0002:00005f20       _S                         00445f20     LIBCMT:ceil_pentium4.obj
 0002:00005f30       _NegZero                   00445f30     LIBCMT:ceil_pentium4.obj
 0002:00005f58       ?ExceptionTemplate@?1??_CxxThrowException@@9@8@4UEHExceptionRecord@@B 00445f58     LIBCMT:throw.obj
 0002:00006328       _rterrs                    00446328     LIBCMT:crt0msg.obj
 0002:00006d8c       __mb_locale_names          00446d8c     LIBCMT:mbctype.obj
 0002:000070f8       __first_127char            004470f8     LIBCMT:wsetloca.obj
 0002:00007178       _INF                       00447178     LIBCMT:libm_error.obj
 0002:00007188       _BIG                       00447188     LIBCMT:libm_error.obj
 0002:00007198       _ZERO                      00447198     LIBCMT:libm_error.obj
 0002:000071a8       _INF_32                    004471a8     LIBCMT:libm_error.obj
 0002:000071b0       _NAN_32                    004471b0     LIBCMT:libm_error.obj
 0002:000071b8       _ZERO_32                   004471b8     LIBCMT:libm_error.obj
 0002:000071c0       _libm_largef               004471c0     LIBCMT:libm_error.obj
 0002:000071c8       _libm_smallf               004471c8     LIBCMT:libm_error.obj
 0002:000071d0       _libm_small                004471d0     LIBCMT:libm_error.obj
 0002:000072c4       One                        004472c4     LIBCMT:87disp.obj
 0002:000072cc       XAMtoTagTab                004472cc     LIBCMT:87disp.obj
 0002:000072e0       One                        004472e0     LIBCMT:common.obj
 0002:000072f4       DblMax                     004472f4     LIBCMT:common.obj
 0002:000072fc       DblMin                     004472fc     LIBCMT:common.obj
 0002:00007304       IeeeAdjO                   00447304     LIBCMT:common.obj
 0002:0000730c       IeeeAdjU                   0044730c     LIBCMT:common.obj
 0002:00007314       _infinity                  00447314     LIBCMT:common.obj
 0002:0000731c       _zero                      0044731c     LIBCMT:common.obj
 0002:00007328       _tokenTable                00447328     LIBCMT:undname.obj
 0002:00007360       _nameTable                 00447360     LIBCMT:undname.obj
 0002:000074a0       _rttiTable                 004474a0     LIBCMT:undname.obj
 0002:0000a6b8       __sehtable$__onexit        0044a6b8     LIBCMT:onexit.obj
 0002:0000a6d8       __sehtable$__callthreadstart 0044a6d8     LIBCMT:thread.obj
 0002:0000a6f8       __sehtable$___tmainCRTStartup 0044a6f8     LIBCMT:wincrt0.obj
 0002:0000a718       __sehtable$_doexit         0044a718     LIBCMT:crt0dat.obj
 0002:0000a738       __sehtable$?_Type_info_dtor@type_info@@CAXPAV1@@Z 0044a738     LIBCMT:typname.obj
 0002:0000a758       __sehtable$__freefls@4     0044a758     LIBCMT:tidtable.obj
 0002:0000a780       __sehtable$__initptd       0044a780     LIBCMT:tidtable.obj
 0002:0000a7a8       __sehtable$__ioinit        0044a7a8     LIBCMT:ioinit.obj
 0002:0000a7c8       __sehtable$___updatetlocinfo 0044a7c8     LIBCMT:localref.obj
 0002:0000a7e8       __sehtable$___updatetmbcinfo 0044a7e8     LIBCMT:mbctype.obj
 0002:0000a808       __sehtable$__setmbcp       0044a808     LIBCMT:mbctype.obj
 0002:0000a828       __sehtable$__locterm       0044a828     LIBCMT:wsetloca.obj
 0002:0000a848       __sehtable$___set_fpsr_sse2 0044a848     LIBCMT:fpctrl.obj
 0002:0000a868       __sehtable$__mtinitlocknum 0044a868     LIBCMT:mlock.obj
 0002:0000a888       __sehtable$__IsNonwritableInCurrentImage 0044a888     LIBCMT:pesect.obj
 0002:0000a8a8       __sehtable$?terminate@@YAXXZ 0044a8a8     LIBCMT:hooks.obj
 0002:0000a8c8       __sehtable$_raise          0044a8c8     LIBCMT:winsig.obj
 0002:0000a8e8       __sehtable$_flsall         0044a8e8     LIBCMT:fflush.obj
 0002:0000a910       __sehtable$__fcloseall     0044a910     LIBCMT:closeall.obj
 0002:0000a930       __sehtable$__commit        0044a930     LIBCMT:commit.obj
 0002:0000a950       __sehtable$__write         0044a950     LIBCMT:write.obj
 0002:0000a970       __sehtable$_fclose         0044a970     LIBCMT:fclose.obj
 0002:0000a990       __sehtable$___lock_fhandle 0044a990     LIBCMT:osfinfo.obj
 0002:0000a9b0       __sehtable$__close         0044a9b0     LIBCMT:close.obj
 0002:0000af4a       .idata$6                   0044af4a     kernel32:KERNEL32.dll
 0002:0000b1e4       .idata$6                   0044b1e4     user32:USER32.dll
 0002:0000b254       .idata$6                   0044b254     gdi32:GDI32.dll
 0002:0000b25e       .idata$6                   0044b25e     comctl32:COMCTL32.dll
 0002:0000b26c       .idata$6                   0044b26c     wsock32:WSOCK32.dll
 0002:0000bbee       .idata$6                   0044bbee     shell32:SHELL32.dll
 0003:00000005       _NeedToRefreshAnalogs      0044c005     ft2.obj
 0003:00000006       _NeedRefresh               0044c006     ft2.obj
 0003:000004c0       _DotMsg                    0044c4c0     ft2.obj
 0003:000004cc       _DotTxt                    0044c4cc     ft2.obj
 0003:000004d8       _OffString                 0044c4d8     ft2.obj
 0003:000004e4       _OnString                  0044c4e4     ft2.obj
 0003:000004ec       _PoundString               0044c4ec     ft2.obj
 0003:000004f0       _ResetString               0044c4f0     ft2.obj
 0003:000004fc       _TString                   0044c4fc     ft2.obj
 0003:00000500       _TwoSpacesString           0044c500     ft2.obj
 0003:00000508       _SpacePoundString          0044c508     ft2.obj
 0003:00000510       _ZeroString                0044c510     ft2.obj
 0003:00000514       _ChannelModeSetString      0044c514     ft2.obj
 0003:00000520       _ConfigWordMsg             0044c520     ft2.obj
 0003:0000052c       _ConfigWord2Msg            0044c52c     ft2.obj
 0003:00000538       _ConfigWordMsgLen          0044c538     ft2.obj
 0003:0000053c       _OpenValve_1_Loop          0044c53c     ft2.obj
 0003:0000054c       _CloseValve_1_Loop         0044c54c     ft2.obj
 0003:0000055c       _OpenValve_2_Loop          0044c55c     ft2.obj
 0003:0000056c       _CloseValve_2_Loop         0044c56c     ft2.obj
 0003:0000057c       _ClearControlFileDate      0044c57c     ft2.obj
 0003:0000058c       _HaltString                0044c58c     ft2.obj
 0003:00000594       _CycleString               0044c594     ft2.obj
 0003:000005a0       _CycleStringLen            0044c5a0     ft2.obj
 0003:000005a4       _FatalString               0044c5a4     ft2.obj
 0003:000005b0       _FatalStringLen            0044c5b0     ft2.obj
 0003:000005b4       _MainMenuWindowName        0044c5b4     ft2.obj
 0003:000005cc       _NoFileString              0044c5cc     ft2.obj
 0003:000005ec       _NoFileStringLen           0044c5ec     ft2.obj
 0003:000005f0       _TerminalMenuWindowName    0044c5f0     ft2.obj
 0003:00000610       _WarningString             0044c610     ft2.obj
 0003:00000620       _WarningStringLen          0044c620     ft2.obj
 0003:00000624       _ZeroPositionCmd           0044c624     ft2.obj
 0003:00000634       _ArialFontName             0044c634     ft2.obj
 0003:00000640       _MyFont                    0044c640     ft2.obj
 0003:00000644       _ValveMasterMax            0044c644     ft2.obj
 0003:00000648       _ValveTestMax              0044c648     ft2.obj
 0003:0000064c       _CVListFileName            0044c64c     ft2.obj
 0003:00000684       _HiresSensorConfigFile     0044c684     ft2.obj
 0003:000006c0       _HIRES_SENSOR_FOLLOW_THRU_WIRE_INDEX 0044c6c0     ft2.obj
 0003:000006c4       _HIRES_SENSOR_RETRACT_WIRE_INDEX 0044c6c4     ft2.obj
 0003:000006c8       _HIRES_SENSOR_CYCLE_TIME_INDEX 0044c6c8     ft2.obj
 0003:000006cc       _HIRES_SENSOR_FOLLOW_THRU_TIME_INDEX 0044c6cc     ft2.obj
 0003:000006d0       _HIRES_SENSOR_RETRACT_TIME_INDEX 0044c6d0     ft2.obj
 0003:000006d4       _HIRES_SENSOR_RETRACT_END_TIME_INDEX 0044c6d4     ft2.obj
 0003:000006d8       _HIRES_SENSOR_SETPOINT_COUNT 0044c6d8     ft2.obj
 0003:000006dc       _CurrentHiresSensorPeriod  0044c6dc     ft2.obj
 0003:00000728       _LVDT_DAC_INDEX            0044c728     ft2.obj
 0003:0000072c       _JOG_SHOT_VALVE_INDEX      0044c72c     ft2.obj
 0003:00000730       _FT_VALVE_INDEX            0044c730     ft2.obj
 0003:00000734       _RETRACT_VALVE_INDEX       0044c734     ft2.obj
 0003:00000738       _ZERO_SPEED_CHECK_INDEX    0044c738     ft2.obj
 0003:0000073c       _VC_DITHER_FREQ_INDEX      0044c73c     ft2.obj
 0003:00000740       _VC_DITHER_AMPL_INDEX      0044c740     ft2.obj
 0003:00000744       _PC_DITHER_FREQ_INDEX      0044c744     ft2.obj
 0003:00000748       _PC_DITHER_AMPL_INDEX      0044c748     ft2.obj
 0003:0000074c       _NULL_DAC_2_INDEX          0044c74c     ft2.obj
 0003:00000750       _LVDT_DAC_2_INDEX          0044c750     ft2.obj
 0003:0000075c       _NormalStep                0044c75c     ft2.obj
 0003:000008fc       _SLOW_SHOT_OUTPUT_MASK     0044c8fc     ft2.obj
 0003:00000900       _ACCUMULATOR_OUTPUT_MASK   0044c900     ft2.obj
 0003:00000904       _MANUAL_MODE_MASK          0044c904     ft2.obj
 0003:0000090c       _MachineVars               0044c90c     ft2.obj
 0003:00000918       _Lindex                    0044c918     ft2.obj
 0003:0000091c       _CurrentChannelMode        0044c91c     ft2.obj
 0003:00000920       _CurrentFlashVersion       0044c920     ft2.obj
 0003:00000924       _MainEboxHeight            0044c924     ft2.obj
 0003:00000938       _CHANNEL_MODE_1            0044c938     ft2.obj
 0003:0000093c       _CHANNEL_MODE_2            0044c93c     ft2.obj
 0003:00000940       _CHANNEL_MODE_3            0044c940     ft2.obj
 0003:00000944       _CHANNEL_MODE_4            0044c944     ft2.obj
 0003:00000948       _CHANNEL_MODE_5            0044c948     ft2.obj
 0003:0000094c       _CHANNEL_MODE_6            0044c94c     ft2.obj
 0003:00000950       _CHANNEL_MODE_7            0044c950     ft2.obj
 0003:000010f4       _CVGettingTb               0044d0f4     ft2.obj
 0003:000010fc       _CVCurrentVariableTb       0044d0fc     ft2.obj
 0003:00001104       _CVofTb                    0044d104     ft2.obj
 0003:0000110c       _ResumeDialog              0044d10c     ft2.obj
 0003:00001114       _Ft2TestDialog             0044d114     ft2.obj
 0003:00001138       ?rsn@?1??resource_string@@YAPA_WI@Z@4PAURESOURCE_TEXT_ENTRY@@A 0044d138     ft2.obj
 0003:00001410       ?item@?1??set_gray_menu_items@@YAXXZ@4PAIA 0044d410     ft2.obj
 0003:00001434       ?s@?1??get_help@@YAXXZ@4PADA 0044d434     ft2.obj
 0003:00001448       ?info@?1??get_help@@YAXXZ@4U_STARTUPINFOW@@A 0044d448     ft2.obj
 0003:0000148c       ?id@?1??fatal_error_string@@YAPA_WH@Z@4PAIA 0044d48c     ft2.obj
 0003:000014a4       ?fatal_error_number@?1??fatal_error_string@@YAPA_WH@Z@4PAHA 0044d4a4     ft2.obj
 0003:000014bc       ?id@?1??warning_error_string@@YAPA_WH@Z@4PAIA 0044d4bc     ft2.obj
 0003:000014d4       ?warning_number@?1??warning_error_string@@YAPA_WH@Z@4PAHA 0044d4d4     ft2.obj
 0003:000014ec       ?mask@?1??put_byte@@YAXAAIIH@Z@4PAIA 0044d4ec     ft2.obj
 0003:000014fc       ?control4c@?1??ft2_control_program_name@@YAPA_WHAAVMACHINE_CLASS@@@Z@4PA_WA 0044d4fc     ft2.obj
 0003:00001518       ?control4m@?1??ft2_control_program_name@@YAPA_WHAAVMACHINE_CLASS@@@Z@4PA_WA 0044d518     ft2.obj
 0003:00001534       ?control5c@?1??ft2_control_program_name@@YAPA_WHAAVMACHINE_CLASS@@@Z@4PA_WA 0044d534     ft2.obj
 0003:00001550       ?control5m@?1??ft2_control_program_name@@YAPA_WHAAVMACHINE_CLASS@@@Z@4PA_WA 0044d550     ft2.obj
 0003:0000156c       ?control5e@?1??ft2_control_program_name@@YAPA_WHAAVMACHINE_CLASS@@@Z@4PA_WA 0044d56c     ft2.obj
 0003:00001588       ?control5p@?1??ft2_control_program_name@@YAPA_WHAAVMACHINE_CLASS@@@Z@4PA_WA 0044d588     ft2.obj
 0003:000015a4       ?controlall@?1??ft2_control_program_name@@YAPA_WHAAVMACHINE_CLASS@@@Z@4PA_WA 0044d5a4     ft2.obj
 0003:000015c4       ?firstime@?1??set_current_window@@YAXAAVWINDOW_CLASS@@@Z@4_NA 0044d5c4     ft2.obj
 0003:000015c8       ?buf@?1??percent_to_hex@@YAPA_WN@Z@4PA_WA 0044d5c8     ft2.obj
 0003:000015dc       ?equalspad@?1??should_be_hex@@YAEPA_W0@Z@4PA_WA 0044d5dc     ft2.obj
 0003:000015e4       ?pluspad@?1??should_be_hex@@YAEPA_W0@Z@4PA_WA 0044d5e4     ft2.obj
 0003:000015ec       ?ColWidth@?1??create_controls@@YAXH@Z@4PAHA 0044d5ec     ft2.obj
 0003:00001604       ?rsn@?1??set_upload_aborted_setup_strings@@YAXPAUHWND__@@@Z@4PAURESOURCE_TEXT_ENTRY@@A 0044d604     ft2.obj
 0003:0000162c       ?box@?1??set_upload_aborted_setup_strings@@YAXPAUHWND__@@@Z@4PAIA 0044d62c     ft2.obj
 0003:00001630       ?default_text@?1??create_tooltips@@YAXXZ@4PA_WA 0044d630     ft2.obj
 0003:0000163c       ?NullMessage@?1??send_command_to_current_machine@@YAXPA_W_N@Z@4PA_WA 0044d63c     ft2.obj
 0003:00001648       ?rsn@?1??set_deactivate_setup_strings@@YAXPAUHWND__@@@Z@4PAURESOURCE_TEXT_ENTRY@@A 0044d648     ft2.obj
 0003:00001660       ?rsn@?1??set_choose_monitor_setup_strings@@YAXPAUHWND__@@@Z@4PAURESOURCE_TEXT_ENTRY@@A 0044d660     ft2.obj
 0003:00001678       ?box@?1??set_choose_monitor_setup_strings@@YAXPAUHWND__@@@Z@4PAIA 0044d678     ft2.obj
 0003:0000167c       ?OnString@?1??send_output_bits_to_current_machine@@YAXIE@Z@4PA_WA 0044d67c     ft2.obj
 0003:00001688       ?OffString@?1??send_output_bits_to_current_machine@@YAXIE@Z@4PA_WA 0044d688     ft2.obj
 0003:00001694       ?Description@?1??put_hires_sensor_test_config@@YAXPAUHWND__@@@Z@4PAPA_WA 0044d694     ft2.obj
 0003:000016b0       ?firstime@?1??do_new_set_null_values@@YAXXZ@4_NA 0044d6b0     ft2.obj
 0003:000016b4       ?response@?1??do_new_set_null_ascii_data@@YAXJ@Z@4PAUMY_ENTRY@?1??1@YAXJ@Z@A 0044d6b4     ft2.obj
 0003:000016d4       ?rsn@?1??set_null_setup_strings@@YAXPAUHWND__@@@Z@4PAURESOURCE_TEXT_ENTRY@@A 0044d6d4     ft2.obj
 0003:000016fc       ?box@?1??set_null_setup_strings@@YAXPAUHWND__@@@Z@4PAIA 0044d6fc     ft2.obj
 0003:00001700       ?id@?1??show_revision_d_controls@@YAXXZ@4PAIA 0044d700     ft2.obj
 0003:00001724       ?accel@?1??init_set_dac_dialog@@YAXXZ@4U_UDACCEL@@A 0044d724     ft2.obj
 0003:0000172c       ?firstime@?1??do_new_set_dac_values@@YAXXZ@4_NA 0044d72c     ft2.obj
 0003:00001730       ?amp_1_cmd@?1??send_lvdt_digital_pot_command@@YAXE@Z@4PA_WA 0044d730     ft2.obj
 0003:0000173c       ?amp_2_cmd@?1??send_lvdt_digital_pot_command@@YAXE@Z@4PA_WA 0044d73c     ft2.obj
 0003:00001748       ?amp_1_cmd@?1??send_set_dac_command@@YAXH@Z@4PA_WA 0044d748     ft2.obj
 0003:00001754       ?amp_2_cmd@?1??send_set_dac_command@@YAXH@Z@4PA_WA 0044d754     ft2.obj
 0003:00001760       ?rsn@?1??set_dac_setup_strings@@YAXPAUHWND__@@@Z@4PAURESOURCE_TEXT_ENTRY@@A 0044d760     ft2.obj
 0003:000017d8       ?box@?1??set_dac_setup_strings@@YAXPAUHWND__@@@Z@4PAIA 0044d7d8     ft2.obj
 0003:000017e0       ?vars@?1??fill_global_parameters@@YAXXZ@4PAHA 0044d7e0     ft2.obj
 0003:00001810       ?rsn@?1??set_global_parameter_setup_strings@@YAXPAUHWND__@@@Z@4PAURESOURCE_TEXT_ENTRY@@A 0044d810     ft2.obj
 0003:00001898       ?rsn@?1??set_compare_variables_setup_strings@@YAXPAUHWND__@@@Z@4PAURESOURCE_TEXT_ENTRY@@A 0044d898     ft2.obj
 0003:000018e8       ?box@?1??set_compare_variables_setup_strings@@YAXPAUHWND__@@@Z@4PAIA 0044d8e8     ft2.obj
 0003:000018f4       ?zerostring@?1??get_string_value_from_line@@YAPA_WPA_W@Z@4PA_WA 0044d8f4     ft2.obj
 0003:000018f8       ?ids@?1??show_alt_step_controls@@YAXXZ@4PAIA 0044d8f8     ft2.obj
 0003:00001910       ?rsn@?1??set_control_mods_setup_strings@@YAXPAUHWND__@@@Z@4PAURESOURCE_TEXT_ENTRY@@A 0044d910     ft2.obj
 0003:00001990       ?amp_1_cmd@?1??send_current_digital_pot_command@@YAXXZ@4PA_WA 0044d990     ft2.obj
 0003:0000199c       ?id@?1??show_valve_test_revision_d_controls@@YAXXZ@4PAIA 0044d99c     ft2.obj
 0003:000019a8       ?accel@?1??init_valve_test_data@@YAXXZ@4U_UDACCEL@@A 0044d9a8     ft2.obj
 0003:000019b0       ?rsn@?1??set_valve_test_setup_strings@@YAXPAUHWND__@@@Z@4PAURESOURCE_TEXT_ENTRY@@A 0044d9b0     ft2.obj
 0003:000019d0       ?instring@?1??log_input_bits@@YAXXZ@4PAPA_WA 0044d9d0     ft2.obj
 0003:00001a50       ?outstring@?1??log_output_bits@@YAXXZ@4PAPA_WA 0044da50     ft2.obj
 0003:00001ad0       ?rsn@?1??set_test_alarm_setup_strings@@YAXPAUHWND__@@@Z@4PAURESOURCE_TEXT_ENTRY@@A 0044dad0     ft2.obj
 0003:00001b38       ?rsn@?1??set_current_values_setup_strings@@YAXPAUHWND__@@@Z@4PAURESOURCE_TEXT_ENTRY@@A 0044db38     ft2.obj
 0003:00001cb0       ?box@?1??set_current_values_setup_strings@@YAXPAUHWND__@@@Z@4PAIA 0044dcb0     ft2.obj
 0003:00001ce0       ?firstime@?1??current_values_dialog_proc@@YGHPAUHWND__@@IIJ@Z@4EA 0044dce0     ft2.obj
 0003:00001ce8       ?ButtonLevel@?1??id_enabled@@YAEH@Z@4PAUBUTTON_ENABLE_ENTRY@?1??1@YAEH@Z@A 0044dce8     ft2.obj
 0003:00001d30       ?id@?1??show_buttons@@YAXXZ@4PAIA 0044dd30     ft2.obj
 0003:00001d54       ?ns@?1??send_data_server_shot_notification@@YAXPA_W0@Z@4PA_WA 0044dd54     ft2.obj
 0003:00001d60       ?s@?1??send_data_server_down_notification@@YAXPA_W@Z@4PA_WA 0044dd60     ft2.obj
 0003:00001d68       _ALS_BITS                  0044dd68     board_monitor.obj
 0003:00001d6c       _FOLLOW_THROUGH_MASK       0044dd6c     board_monitor.obj
 0003:00001d70       _CHANNEL_MODE_1            0044dd70     board_monitor.obj
 0003:00001d74       _START_SHOT_MASK           0044dd74     board_monitor.obj
 0003:00001d78       _CHANNEL_MODE_2            0044dd78     board_monitor.obj
 0003:00001d7c       _RETRACT_MASK              0044dd7c     board_monitor.obj
 0003:00001d80       _CHANNEL_MODE_3            0044dd80     board_monitor.obj
 0003:00001d84       _ACCUMULATOR_MASK          0044dd84     board_monitor.obj
 0003:00001d88       _CHANNEL_MODE_4            0044dd88     board_monitor.obj
 0003:00001d8c       _SLOW_SHOT_MASK            0044dd8c     board_monitor.obj
 0003:00001d90       _CHANNEL_MODE_5            0044dd90     board_monitor.obj
 0003:00001d94       _CHANNEL_MODE_6            0044dd94     board_monitor.obj
 0003:00001d98       _CHANNEL_MODE_7            0044dd98     board_monitor.obj
 0003:00001d9c       _MySocket                  0044dd9c     board_monitor.obj
 0003:00001da0       _ControlFileDateString     0044dda0     board_monitor.obj
 0003:00001dac       _ControlStatusString       0044ddac     board_monitor.obj
 0003:00001db8       _FlashVariablesString      0044ddb8     board_monitor.obj
 0003:00001dc0       _GoString                  0044ddc0     board_monitor.obj
 0003:00001dc8       _IsControlSetString        0044ddc8     board_monitor.obj
 0003:00001dd8       _DigitalPotGainSetString   0044ddd8     board_monitor.obj
 0003:00001de8       _GetAllAnalogInputs        0044dde8     board_monitor.obj
 0003:00001df4       _GetControlFileDateString  0044ddf4     board_monitor.obj
 0003:00001e00       _GetControlStatusString    0044de00     board_monitor.obj
 0003:00001e0c       _GetMonitorStatusString    0044de0c     board_monitor.obj
 0003:00001e18       _GetMSLString              0044de18     board_monitor.obj
 0003:00001e24       _GetTimerFrequencyString   0044de24     board_monitor.obj
 0003:00001e30       _GetInputBitsString        0044de30     board_monitor.obj
 0003:00001e3c       _GetUploadCopyDateString   0044de3c     board_monitor.obj
 0003:00001e48       _GetVersionString          0044de48     board_monitor.obj
 0003:00001e50       _MonitorStatusString       0044de50     board_monitor.obj
 0003:00001e5c       _ConfigWord2SetString      0044de5c     board_monitor.obj
 0003:00001e6c       _TimeoutString             0044de6c     board_monitor.obj
 0003:00001e7c       _UploadCopyDateString      0044de7c     board_monitor.obj
 0003:00001e88       _PrinceCharOffset          0044de88     board_monitor.obj
 0003:00001e8c       _RetctlCharOffset          0044de8c     board_monitor.obj
 0003:00001e90       _ChannelModeSetString      0044de90     board_monitor.obj
 0003:00001e9c       _OpDataPacketString        0044de9c     board_monitor.obj
 0003:00001ea8       _ChannelModeSetStringLen   0044dea8     board_monitor.obj
 0003:00001eac       _VarLineStart              0044deac     board_monitor.obj
 0003:00001eb0       _OldStVarLineStart         0044deb0     board_monitor.obj
 0003:00001eb8       _ShutdownMessage           0044deb8     board_monitor.obj
 0003:00001ec4       _ShutdownMessageLen        0044dec4     board_monitor.obj
 0003:00001ec8       ?se@?1??log_network_error@@YAXH@Z@4PAUSOCKET_ERROR_ENTRY@?1??1@YAXH@Z@A 0044dec8     board_monitor.obj
 0003:00002030       ?space_equals_space@?1??log_network_error@@YAXH@Z@4PA_WA 0044e030     board_monitor.obj
 0003:00002038       ?On@?1??bit_state@@YAPA_WI@Z@4PA_WA 0044e038     board_monitor.obj
 0003:00002044       ?Off@?1??bit_state@@YAPA_WI@Z@4PA_WA 0044e044     board_monitor.obj
 0003:00002050       ?getanalog@?1??check_inputs@FTII_BOARD_ENTRY@@QAEXPA_W@Z@4PA_WA 0044e050     board_monitor.obj
 0003:0000205c       ?OnString@?1??send_bits@FTII_BOARD_ENTRY@@QAEXI_N@Z@4PA_WA 0044e05c     board_monitor.obj
 0003:00002068       ?OffString@?1??send_bits@FTII_BOARD_ENTRY@@QAEXI_N@Z@4PA_WA 0044e068     board_monitor.obj
 0003:00002074       ?UnicodeIntroducer@?1??upload_control_file@FTII_BOARD_ENTRY@@QAE_NXZ@4_WA 0044e074     board_monitor.obj
 0003:00002078       ?POS_AT_IMPACT_DISABLE@?1??continue_connecting_one_board@@YAXH@Z@4PA_WA 0044e078     board_monitor.obj
 0003:00002088       ?POS_AT_IMPACT_ENABLE@?1??continue_connecting_one_board@@YAXH@Z@4PA_WA 0044e088     board_monitor.obj
 0003:00002098       ?set_input_bitmask_string@?1??continue_connecting_one_board@@YAXH@Z@4PA_WA 0044e098     board_monitor.obj
 0003:000020a8       ?CYCLE_START@?1??check_for_cycle_start@@YA_NPAVFTII_BOARD_ENTRY@@PA_W@Z@4PA_WA 0044e0a8     board_monitor.obj
 0003:000020c0       ?TIMEOUT@?1??check_for_cycle_start@@YA_NPAVFTII_BOARD_ENTRY@@PA_W@Z@4PA_WA 0044e0c0     board_monitor.obj
 0003:000020d0       ?lfchar@?1??do_ascii_message@@YAXHPAUSOCKET_MESSAGE@@@Z@4_WA 0044e0d0     board_monitor.obj
 0003:000020d4       _HaveDelimitChar           0044e0d4     shotsave.obj
 0003:000020d5       _ShowMachine               0044e0d5     shotsave.obj
 0003:000020d6       _ShowPart                  0044e0d6     shotsave.obj
 0003:000020d7       _ShowDate                  0044e0d7     shotsave.obj
 0003:000020d8       _EtxBuf                    0044e0d8     shotsave.obj
 0003:000020da       _ShowTime                  0044e0da     shotsave.obj
 0003:000020db       _ShowShot                  0044e0db     shotsave.obj
 0003:000020dc       _StxBuf                    0044e0dc     shotsave.obj
 0003:000020de       _EosKillOutputFile         0044e0de     shotsave.obj
 0003:000020e0       _EosAsciiToSerialKey       0044e0e0     shotsave.obj
 0003:00002104       _EosComSetupKey            0044e104     shotsave.obj
 0003:0000211c       _EosEndFileKey             0044e11c     shotsave.obj
 0003:00002134       _EosHaveAlarmParameterKey  0044e134     shotsave.obj
 0003:00002160       _EosHaveGoodParameterKey   0044e160     shotsave.obj
 0003:0000218c       _EosHaveWarningParameterKey 0044e18c     shotsave.obj
 0003:000021bc       _EosHaveAlarmShotKey       0044e1bc     shotsave.obj
 0003:000021e0       _EosHaveGoodShotKey        0044e1e0     shotsave.obj
 0003:00002200       _EosHaveWarningShotKey     0044e200     shotsave.obj
 0003:00002228       _EosKillOutputFileKey      0044e228     shotsave.obj
 0003:0000224c       _EosMachineNameKey         0044e24c     shotsave.obj
 0003:0000226c       _EosOutputFileKey          0044e26c     shotsave.obj
 0003:00002288       _EosOutputFileSetupKey     0044e288     shotsave.obj
 0003:000022b0       _EosStartFileKey           0044e2b0     shotsave.obj
 0003:000022cc       _EosParamFileDirKey        0044e2cc     shotsave.obj
 0003:000022ec       _EosParamFileNameKey       0044e2ec     shotsave.obj
 0003:00002310       _EosParamFileSetupKey      0044e310     shotsave.obj
 0003:00002334       _EosParamFileInfoSetupKey  0044e334     shotsave.obj
 0003:00002360       _ShotsaveLogEnableKey      0044e360     shotsave.obj
 0003:00002384       _ShotparmLogFile           0044e384     shotsave.obj
 0003:000023b0       _DelimitChar               0044e3b0     shotsave.obj
 0003:000023b4       _EosComDelimitChar         0044e3b4     shotsave.obj
 0003:000023b8       _EosComEol                 0044e3b8     shotsave.obj
 0003:000023c0       ?FileName@?1??get@WRITE_CSV_SHOT_FILE@@QAEEAAUPROFILE_NAME_ENTRY@@@Z@4PA_WA 0044e3c0     shotsave.obj
 0003:000023f0       ?sbe@?1??init_serial_port@@YAXXZ@4PAUSTOP_BIT_ENTRY@?1??1@YAXXZ@A 0044e3f0     shotsave.obj
 0003:00002414       ?pe@?1??init_serial_port@@YAXXZ@4PAUPARITY_ENTRY@?1??1@YAXXZ@A 0044e414     shotsave.obj
 0003:00002450       ?check_digit_tag@?1??shot_name_from_file_is_good@@YA_NAAVSTRING_CLASS@@AAVSHOT_NAME_CLASS@@@Z@4PA_WA 0044e450     shotsave.obj
 0003:0000246c       ?param_number_tag@?1??write_eos_param_file@@YAXPAVSHOT_BUFFER_ENTRY@@AAVPARAMETER_CLASS@@@Z@4PA_WA 0044e46c     shotsave.obj
 0003:0000248c       ?param_name_tag@?1??write_eos_param_file@@YAXPAVSHOT_BUFFER_ENTRY@@AAVPARAMETER_CLASS@@@Z@4PA_WA 0044e48c     shotsave.obj
 0003:000024a8       ?param_value_tag@?1??write_eos_param_file@@YAXPAVSHOT_BUFFER_ENTRY@@AAVPARAMETER_CLASS@@@Z@4PA_WA 0044e4a8     shotsave.obj
 0003:000024c4       ?param_units_tag@?1??write_eos_param_file@@YAXPAVSHOT_BUFFER_ENTRY@@AAVPARAMETER_CLASS@@@Z@4PA_WA 0044e4c4     shotsave.obj
 0003:000024e0       ?param_high_alarm_tag@?1??write_eos_param_file@@YAXPAVSHOT_BUFFER_ENTRY@@AAVPARAMETER_CLASS@@@Z@4PA_WA 0044e4e0     shotsave.obj
 0003:00002508       ?param_low_alarm_tag@?1??write_eos_param_file@@YAXPAVSHOT_BUFFER_ENTRY@@AAVPARAMETER_CLASS@@@Z@4PA_WA 0044e508     shotsave.obj
 0003:0000252c       ?param_high_warning_tag@?1??write_eos_param_file@@YAXPAVSHOT_BUFFER_ENTRY@@AAVPARAMETER_CLASS@@@Z@4PA_WA 0044e52c     shotsave.obj
 0003:00002558       ?param_low_warning_tag@?1??write_eos_param_file@@YAXPAVSHOT_BUFFER_ENTRY@@AAVPARAMETER_CLASS@@@Z@4PA_WA 0044e558     shotsave.obj
 0003:00002580       ?param_goodness_tag@?1??write_eos_param_file@@YAXPAVSHOT_BUFFER_ENTRY@@AAVPARAMETER_CLASS@@@Z@4PA_WA 0044e580     shotsave.obj
 0003:000025a4       ?part_name_tag@?1??write_eos_param_file@@YAXPAVSHOT_BUFFER_ENTRY@@AAVPARAMETER_CLASS@@@Z@4PA_WA 0044e5a4     shotsave.obj
 0003:000025bc       ?shot_name_tag@?1??write_eos_param_file@@YAXPAVSHOT_BUFFER_ENTRY@@AAVPARAMETER_CLASS@@@Z@4PA_WA 0044e5bc     shotsave.obj
 0003:000025d4       ?shot_date_tag@?1??write_eos_param_file@@YAXPAVSHOT_BUFFER_ENTRY@@AAVPARAMETER_CLASS@@@Z@4PA_WA 0044e5d4     shotsave.obj
 0003:000025ec       ?shot_time_tag@?1??write_eos_param_file@@YAXPAVSHOT_BUFFER_ENTRY@@AAVPARAMETER_CLASS@@@Z@4PA_WA 0044e5ec     shotsave.obj
 0003:00002604       ?On@?1??bit_state@@YAPA_WI@Z@4PA_WA 0044e604     shotsave.obj
 0003:0000260c       ?Off@?1??bit_state@@YAPA_WI@Z@4PA_WA 0044e60c     shotsave.obj
 0003:00002618       ?slow_shot_output_mask@?1??write_als_log@@YAXPA_WAAVFTII_FILE_DATA@@@Z@4IA 0044e618     shotsave.obj
 0003:0000261c       ?accumulator_output_mask@?1??write_als_log@@YAXPA_WAAVFTII_FILE_DATA@@@Z@4IA 0044e61c     shotsave.obj
 0003:00002620       ?retract_mask@?1??write_als_log@@YAXPA_WAAVFTII_FILE_DATA@@@Z@4IA 0044e620     shotsave.obj
 0003:00002624       ?follow_through_mask@?1??write_als_log@@YAXPA_WAAVFTII_FILE_DATA@@@Z@4IA 0044e624     shotsave.obj
 0003:00002628       ?start_shot_mask@?1??write_als_log@@YAXPA_WAAVFTII_FILE_DATA@@@Z@4IA 0044e628     shotsave.obj
 0003:0000262c       ?accumulator_mask@?1??write_als_log@@YAXPA_WAAVFTII_FILE_DATA@@@Z@4IA 0044e62c     shotsave.obj
 0003:00002630       ?slow_shot_mask@?1??write_als_log@@YAXPA_WAAVFTII_FILE_DATA@@@Z@4IA 0044e630     shotsave.obj
 0003:00002638       ?title@?1??write_std_units_csv_file@@YAEAAVSTRING_CLASS@@PAVSHOT_BUFFER_ENTRY@@@Z@4PA_WA 0044e638     shotsave.obj
 0003:000026c2       ?have_enough_disk_space@?1??save_shot@@YAXPAVSHOT_BUFFER_ENTRY@@@Z@4EA 0044e6c2     shotsave.obj
 0003:000026c4       _BackSlashChar             0044e6c4     v5subs:path.obj
 0003:000026c8       _ColonChar                 0044e6c8     v5subs:path.obj
 0003:000026cc       _BackSlashString           0044e6cc     v5subs:path.obj
 0003:000026d0       _ExeString                 0044e6d0     v5subs:path.obj
 0003:000026dc       _ExeStringLength           0044e6dc     v5subs:path.obj
 0003:000026e0       _MinusChar                 0044e6e0     v5subs:extract.obj
 0003:000026e4       _PlusChar                  0044e6e4     v5subs:extract.obj
 0003:000026e8       _DotChar                   0044e6e8     v5subs:extract.obj
 0003:000026ec       _SpaceChar                 0044e6ec     v5subs:extract.obj
 0003:000026f0       _ZeroChar                  0044e6f0     v5subs:extract.obj
 0003:000026f4       _NineChar                  0044e6f4     v5subs:extract.obj
 0003:000026f8       _FinalChar                 0044e6f8     v5subs:stringcl.obj
 0003:000026fc       _BackSlashChar             0044e6fc     v5subs:stringcl.obj
 0003:00002700       _CommaChar                 0044e700     v5subs:stringcl.obj
 0003:00002704       _CrChar                    0044e704     v5subs:stringcl.obj
 0003:00002708       _DoubleQuoteChar           0044e708     v5subs:stringcl.obj
 0003:0000270c       _LfChar                    0044e70c     v5subs:stringcl.obj
 0003:00002710       _OneChar                   0044e710     v5subs:stringcl.obj
 0003:00002714       _SpaceChar                 0044e714     v5subs:stringcl.obj
 0003:00002718       _ZeroChar                  0044e718     v5subs:stringcl.obj
 0003:0000271c       _BackSlashString           0044e71c     v5subs:stringcl.obj
 0003:00002720       _FalseString               0044e720     v5subs:stringcl.obj
 0003:00002724       _TrueString                0044e724     v5subs:stringcl.obj
 0003:00002728       _BackSlashChar             0044e728     v5subs:nameclas.obj
 0003:0000272c       _ForwardSlashChar          0044e72c     v5subs:nameclas.obj
 0003:00002730       _PeriodChar                0044e730     v5subs:nameclas.obj
 0003:00002734       _SpaceChar                 0044e734     v5subs:nameclas.obj
 0003:00002738       _ZeroChar                  0044e738     v5subs:nameclas.obj
 0003:0000273c       _Data                      0044e73c     v5subs:nameclas.obj
 0003:00002748       _Display                   0044e748     v5subs:nameclas.obj
 0003:00002758       _Log                       0044e758     v5subs:nameclas.obj
 0003:00002760       _Exes                      0044e760     v5subs:nameclas.obj
 0003:0000276c       _Results                   0044e76c     v5subs:nameclas.obj
 0003:0000277c       _Resources                 0044e77c     v5subs:nameclas.obj
 0003:00002790       _VisiTrakIniFile           0044e790     v5subs:nameclas.obj
 0003:000027ac       _ConfigSection             0044e7ac     v5subs:nameclas.obj
 0003:000027bc       _ThisComputerKey           0044e7bc     v5subs:nameclas.obj
 0003:000027d8       _AutoBackupDirKey          0044e7d8     v5subs:autoback.obj
 0003:000027f4       _BackupSection             0044e7f4     v5subs:autoback.obj
 0003:00002804       _VisitrakIniFile           0044e804     v5subs:autoback.obj
 0003:00002884       _SecurityAttributes        0044e884     v5subs:dbsubs.obj
 0003:00002890       _FILE_SIZE_ERROR           0044e890     v5subs:fileclas.obj
 0003:00002894       _CrLf                      0044e894     v5subs:fileclas.obj
 0003:0000289c       _LfChar                    0044e89c     v5subs:fileclas.obj
 0003:000028a0       _CrChar                    0044e8a0     v5subs:fileclas.obj
 0003:000028a4       _Data                      0044e8a4     v5subs:computer.obj
 0003:000028b0       _Exes                      0044e8b0     v5subs:computer.obj
 0003:000028bc       _VisiTrakIniFile           0044e8bc     v5subs:computer.obj
 0003:000028d8       _ConfigSection             0044e8d8     v5subs:computer.obj
 0003:000028e8       _ThisComputerKey           0044e8e8     v5subs:computer.obj
 0003:00002904       _BackSlashChar             0044e904     v5subs:computer.obj
 0003:00002908       _CommaChar                 0044e908     v5subs:computer.obj
 0003:0000290c       _CommaString               0044e90c     v5subs:computer.obj
 0003:00002910       _LeftBracket               0044e910     v5subs:iniclass.obj
 0003:00002914       _RightBracket              0044e914     v5subs:iniclass.obj
 0003:00002918       _NChar                     0044e918     v5subs:iniclass.obj
 0003:0000291c       _YChar                     0044e91c     v5subs:iniclass.obj
 0003:00002920       _LowerYChar                0044e920     v5subs:iniclass.obj
 0003:00002924       _UnknownString             0044e924     v5subs:iniclass.obj
 0003:00002934       _UnknownLen                0044e934     v5subs:iniclass.obj
 0003:00002938       ?checkedchar@?1??put_boolean@INI_CLASS@@QAEEPB_W0E@Z@4PA_WA 0044e938     v5subs:iniclass.obj
 0003:0000293c       _CHANNEL_MODE_1            0044e93c     v5subs:limit_switch_class.obj
 0003:00002940       _CHANNEL_MODE_2            0044e940     v5subs:limit_switch_class.obj
 0003:00002944       _CHANNEL_MODE_3            0044e944     v5subs:limit_switch_class.obj
 0003:00002948       _CHANNEL_MODE_4            0044e948     v5subs:limit_switch_class.obj
 0003:0000294c       _CHANNEL_MODE_5            0044e94c     v5subs:limit_switch_class.obj
 0003:00002950       _CHANNEL_MODE_6            0044e950     v5subs:limit_switch_class.obj
 0003:00002954       _CHANNEL_MODE_7            0044e954     v5subs:limit_switch_class.obj
 0003:00002958       ?maskvn@?1??get@LIMIT_SWITCH_WIRE_CLASS@@QAEEAAVSTRING_CLASS@@00@Z@4PAHA 0044e958     v5subs:limit_switch_class.obj
 0003:00002970       _ConfigSection             0044e970     v5subs:multipart_runlist.obj
 0003:00002980       _EnabledString             0044e980     v5subs:multipart_runlist.obj
 0003:00002990       _InputWiresString          0044e990     v5subs:multipart_runlist.obj
 0003:000029a8       _PartSelectionNumberString 0044e9a8     v5subs:multipart_runlist.obj
 0003:000029d4       _VisiTrakIniFile           0044e9d4     v5subs:multipart_runlist.obj
 0003:000029f0       _ZeroString                0044e9f0     v5subs:multipart_runlist.obj
 0003:000029f4       ?HaveMultipartRunlistKey@?1??get@MULTIPART_RUNLIST_SETTINGS_CLASS@@QAE_NAAVSTRING_CLASS@@0@Z@4PA_WA 0044e9f4     v5subs:multipart_runlist.obj
 0003:00002a20       ?MultipartBaseWireKey@?1??get@MULTIPART_RUNLIST_SETTINGS_CLASS@@QAE_NAAVSTRING_CLASS@@0@Z@4PA_WA 0044ea20     v5subs:multipart_runlist.obj
 0003:00002a2c       ?MultipartSetupSection@?1??get@MULTIPART_RUNLIST_SETTINGS_CLASS@@QAE_NAAVSTRING_CLASS@@0@Z@4PA_WA 0044ea2c     v5subs:multipart_runlist.obj
 0003:00002a40       _Description               0044ea40     v5subs:machine.obj
 0003:00002ab8       _NofDescriptions           0044eab8     v5subs:machine.obj
 0003:00002abc       ?DEVENT_TIME_INTRO@?1??get_binary_valve_settings_from_control_all@@YAXAAVMACHINE_CLASS@@@Z@4PA_WA 0044eabc     v5subs:machine.obj
 0003:00002ac8       ?PULSE_TIME_INTRO@?1??get_binary_valve_settings_from_control_all@@YAXAAVMACHINE_CLASS@@@Z@4PA_WA 0044eac8     v5subs:machine.obj
 0003:00002ad4       ?PULSE_WIRE_INTRO@?1??get_binary_valve_settings_from_control_all@@YAXAAVMACHINE_CLASS@@@Z@4PA_WA 0044ead4     v5subs:machine.obj
 0003:00002ae0       ?inifile@?1??read_machset_db@MACHINE_CLASS@@QAEEAAVSTRING_CLASS@@@Z@4PA_WA 0044eae0     v5subs:machine.obj
 0003:00002b14       _ResultsString             0044eb14     v5subs:machname.obj
 0003:00002b24       _FontHandle                0044eb24     v5subs:optocontrol.obj
 0003:00002b28       _IChar                     0044eb28     v5subs:optocontrol.obj
 0003:00002b2c       _VtwwOptoClassName         0044eb2c     v5subs:optocontrol.obj
 0003:00002b48       ?firstime@?1??register_vtww_opto_control@@YAXXZ@4_NA 0044eb48     v5subs:optocontrol.obj
 0003:00002b4c       _CommaChar                 0044eb4c     v5subs:param.obj
 0003:00002b50       _PChar                     0044eb50     v5subs:param.obj
 0003:00002b54       _PCharLow                  0044eb54     v5subs:param.obj
 0003:00002b58       _CommaChar                 0044eb58     v5subs:setpoint.obj
 0003:00002b5c       _CommaString               0044eb5c     v5subs:setpoint.obj
 0003:00002b60       _YChar                     0044eb60     v5subs:part.obj
 0003:00002b64       _BackSlashString           0044eb64     v5subs:part.obj
 0003:00002b68       _CommaString               0044eb68     v5subs:part.obj
 0003:00002b6c       _DefaultLanguage           0044eb6c     v5subs:stringtable.obj
 0003:00002b7c       ?UnicodeIntroducer@?1??append@STRINGTABLE_CLASS@@QAE_NAAVSTRING_CLASS@@@Z@4_WA 0044eb7c     v5subs:stringtable.obj
 0003:00002b80       _IS_GOOSE_STRING           0044eb80     v5subs:stpres.obj
 0003:00002b8c       _IS_OPEN_STRING            0044eb8c     v5subs:stpres.obj
 0003:00002b98       _NChar                     0044eb98     v5subs:stpres.obj
 0003:00002b9c       _PercentChar               0044eb9c     v5subs:stpres.obj
 0003:00002ba0       _YChar                     0044eba0     v5subs:stpres.obj
 0003:00002ba4       _YChar                     0044eba4     v5subs:get_ini.obj
 0003:00002ba8       _NChar                     0044eba8     v5subs:get_ini.obj
 0003:00002bac       _UnknownString             0044ebac     v5subs:get_ini.obj
 0003:00002bbc       _SpaceChar                 0044ebbc     v5subs:mem.obj
 0003:00002bc0       _NineChar                  0044ebc0     v5subs:mem.obj
 0003:00002bc4       _TabChar                   0044ebc4     v5subs:mem.obj
 0003:00002bc8       _TildaChar                 0044ebc8     v5subs:mem.obj
 0003:00002bcc       _ZeroChar                  0044ebcc     v5subs:mem.obj
 0003:00002bd0       _ServerName                0044ebd0     v5subs:client.obj
 0003:00002be4       _CodePageId                0044ebe4     v5subs:client.obj
 0003:00002be8       _DdeClipFormat             0044ebe8     v5subs:client.obj
 0003:00002bec       _First_Time                0044ebec     v5subs:gexedir.obj
 0003:00002bf0       _DefaultDirectory          0044ebf0     v5subs:gexedir.obj
 0003:00002bf8       _ColonChar                 0044ebf8     v5subs:fix.obj
 0003:00002bfc       _CrChar                    0044ebfc     v5subs:fix.obj
 0003:00002c00       _LfChar                    0044ec00     v5subs:fix.obj
 0003:00002c04       _SpaceChar                 0044ec04     v5subs:fix.obj
 0003:00002c08       _TabChar                   0044ec08     v5subs:fix.obj
 0003:00002c0c       _ZeroChar                  0044ec0c     v5subs:fix.obj
 0003:00002c10       ?path@?1??free_megabytes@@YAJPB_W@Z@4PA_WA 0044ec10     v5subs:winsubs.obj
 0003:00002c18       _Radix                     0044ec18     v5subs:hex.obj
 0003:00002c1c       _Days                      0044ec1c     v5subs:time.obj
 0003:00002c3c       ?days@?1??dofyr@@YAGGGG@Z@4PAY0L@GA 0044ec3c     v5subs:time.obj
 0003:00002c68       _YChar                     0044ec68     v5subs:misc.obj
 0003:00002c6c       _LowYChar                  0044ec6c     v5subs:misc.obj
 0003:00002c70       _s                         0044ec70     v5subs:misc.obj
 0003:00002c80       _YString                   0044ec80     v5subs:misc.obj
 0003:00002c84       _NString                   0044ec84     v5subs:misc.obj
 0003:00002c88       _Days                      0044ec88     v5subs:shift.obj
 0003:00002ca4       _CurrentShiftDow           0044eca4     v5subs:shift.obj
 0003:00002ca8       _CurrentShiftNumber        0044eca8     v5subs:shift.obj
 0003:00002cac       _TempMessageClassName      0044ecac     v5subs:temp_message.obj
 0003:00002cd0       _TempMessageMargin         0044ecd0     v5subs:temp_message.obj
 0003:00002cd4       ?mycolor@?1??paint_temp_message@@YAXXZ@4KA 0044ecd4     v5subs:temp_message.obj
 0003:00002cd8       ?firstime@?1??register_temp_message@@YAXXZ@4_NA 0044ecd8     v5subs:temp_message.obj
 0003:00002cdc       _DotChar                   0044ecdc     v5subs:textlist.obj
 0003:00002ce0       _StarDotStar               0044ece0     v5subs:textlist.obj
 0003:00002ce8       _DaysPerMonth              0044ece8     v5subs:timeclas.obj
 0003:00002d18       _MonthAbreviation          0044ed18     v5subs:timeclas.obj
 0003:00002d4c       _DefaultLanguage           0044ed4c     v5subs:menuctrl.obj
 0003:00002d5c       _MenuClassName             0044ed5c     v5subs:menuctrl.obj
 0003:00002d78       _SubMenuClassName          0044ed78     v5subs:menuctrl.obj
 0003:00002d98       _BackGroundColor           0044ed98     v5subs:menuctrl.obj
 0003:00002d9c       _CurrentColor              0044ed9c     v5subs:menuctrl.obj
 0003:00002db4       ?firstime@?1??register_window@MENU_CONTROL_ENTRY@@SAXXZ@4_NA 0044edb4     v5subs:menuctrl.obj
 0003:00002db8       ?UnicodeIntroducer@?1??read@MENU_CONTROL_ENTRY@@QAEEAAVNAME_CLASS@@H@Z@4_WA 0044edb8     v5subs:menuctrl.obj
 0003:00002dbc       ?READ_COMPLETE@?1??read@MENU_CONTROL_ENTRY@@QAEEAAVNAME_CLASS@@H@Z@4_WA 0044edbc     v5subs:menuctrl.obj
 0003:00002dc0       _StaticsFont               0044edc0     v5subs:statics.obj
 0003:00002dc4       ?lParam@?1??set_statics_font@@YAXAAVWINDOW_CLASS@@@Z@4JA 0044edc4     v5subs:statics.obj
 0003:00002dc8       _CHANNEL_MODE_1            0044edc8     v5subs:ftiiclas.obj
 0003:00002dcc       _CHANNEL_MODE_2            0044edcc     v5subs:ftiiclas.obj
 0003:00002dd0       _CHANNEL_MODE_3            0044edd0     v5subs:ftiiclas.obj
 0003:00002dd4       _CHANNEL_MODE_4            0044edd4     v5subs:ftiiclas.obj
 0003:00002dd8       _CHANNEL_MODE_5            0044edd8     v5subs:ftiiclas.obj
 0003:00002ddc       _CHANNEL_MODE_6            0044eddc     v5subs:ftiiclas.obj
 0003:00002de0       _CHANNEL_MODE_7            0044ede0     v5subs:ftiiclas.obj
 0003:00002de4       _EqualsString              0044ede4     v5subs:ftiiclas.obj
 0003:00002de8       _OrHexString               0044ede8     v5subs:ftiiclas.obj
 0003:00002df0       _HString                   0044edf0     v5subs:ftiiclas.obj
 0003:00002df4       _VString                   0044edf4     v5subs:ftiiclas.obj
 0003:00002df8       _HChar                     0044edf8     v5subs:ftiiclas.obj
 0003:00002dfc       _MinusChar                 0044edfc     v5subs:ftiiclas.obj
 0003:00002e00       _PoundChar                 0044ee00     v5subs:ftiiclas.obj
 0003:00002e04       _OrChar                    0044ee04     v5subs:ftiiclas.obj
 0003:00002e08       _SpaceChar                 0044ee08     v5subs:ftiiclas.obj
 0003:00002e0c       _TabChar                   0044ee0c     v5subs:ftiiclas.obj
 0003:00002e10       _Bit30                     0044ee10     v5subs:ftiiclas.obj
 0003:00002e14       _Bit31                     0044ee14     v5subs:ftiiclas.obj
 0003:00002e18       _HighMask                  0044ee18     v5subs:ftiiclas.obj
 0003:00002e1c       _LowMask                   0044ee1c     v5subs:ftiiclas.obj
 0003:00002e20       _types                     0044ee20     v5subs:ftiiclas.obj
 0003:00003020       _CommaChar                 0044f020     v5subs:ftii_shot_data.obj
 0003:00003024       _YChar                     0044f024     v5subs:ftii_shot_data.obj
 0003:00003028       _CommaString               0044f028     v5subs:ftii_shot_data.obj
 0003:0000302c       _FtAnalogCurveType         0044f02c     v5subs:structs.obj
 0003:0000303c       _SecurityAttributes        0044f03c     v5subs:vdbclass.obj
 0003:00003048       _BackslashChar             0044f048     v5subs:dstat.obj
 0003:0000304c       _CommaChar                 0044f04c     v5subs:ftanalog.obj
 0003:00003050       _CommaString               0044f050     v5subs:ftanalog.obj
 0003:00003054       _OnePointZeroString        0044f054     v5subs:ftanalog.obj
 0003:0000305c       _ZeroPointZero             0044f05c     v5subs:ftanalog.obj
 0003:00003064       _ZeroString                0044f064     v5subs:ftanalog.obj
 0003:00003068       _ZeroString                0044f068     v5subs:runlist.obj
 0003:00003074       _Description               0044f074     v5subs:shot_name.obj
 0003:00003080       _DefaultValue              0044f080     v5subs:shot_name.obj
 0003:0000308c       _ExternalShotNameDescription 0044f08c     v5subs:shot_name.obj
 0003:00003098       _ExternalShotNameDefaultValue 0044f098     v5subs:shot_name.obj
 0003:000030a4       _AChar                     0044f0a4     v5subs:shot_name.obj
 0003:000030a8       _AsterixChar               0044f0a8     v5subs:shot_name.obj
 0003:000030ac       _LeftCurlyBracket          0044f0ac     v5subs:shot_name.obj
 0003:000030b0       _RightCurlyBracket         0044f0b0     v5subs:shot_name.obj
 0003:000030b4       _PChar                     0044f0b4     v5subs:shot_name.obj
 0003:000030b8       _PCharLow                  0044f0b8     v5subs:shot_name.obj
 0003:000030bc       _SChar                     0044f0bc     v5subs:shot_name.obj
 0003:000030c0       _SCharLow                  0044f0c0     v5subs:shot_name.obj
 0003:000030c4       _SpaceChar                 0044f0c4     v5subs:shot_name.obj
 0003:000030c8       _ZChar                     0044f0c8     v5subs:shot_name.obj
 0003:000030cc       _ZeroChar                  0044f0cc     v5subs:shot_name.obj
 0003:000030d0       ?pattern@?1??shot_number_length@SHOT_NAME_CLASS@@QAEHXZ@4PA_WA 0044f0d0     v5subs:shot_name.obj
 0003:000030d8       ?ConfigSection@?1??get@EXTERNAL_SHOT_NAME_CLASS@@QAEHXZ@4PA_WA 0044f0d8     v5subs:shot_name.obj
 0003:000030e8       ?GettingShotNameFromFileKey@?1??get@EXTERNAL_SHOT_NAME_CLASS@@QAEHXZ@4PA_WA 0044f0e8     v5subs:shot_name.obj
 0003:00003118       ?GetShotNameCommandKey@?1??get@EXTERNAL_SHOT_NAME_CLASS@@QAEHXZ@4PA_WA 0044f118     v5subs:shot_name.obj
 0003:00003140       ?MonallIniFile@?1??get@EXTERNAL_SHOT_NAME_CLASS@@QAEHXZ@4PA_WA 0044f140     v5subs:shot_name.obj
 0003:00003158       ?ShotNameFileKey@?1??get@EXTERNAL_SHOT_NAME_CLASS@@QAEHXZ@4PA_WA 0044f158     v5subs:shot_name.obj
 0003:00003174       _SpaceChar                 0044f174     v5subs:downsubs.obj
 0003:00003178       _TabChar                   0044f178     v5subs:downsubs.obj
 0003:0000317c       _AChar                     0044f17c     v5subs:ftii_parameters.obj
 0003:00003180       _PChar                     0044f180     v5subs:ftii_parameters.obj
 0003:00003184       _IstName                   0044f184     v5subs:ftii_parameters.obj
 0003:0000318c       ?firstime@?1??calculate_ftii_parameters@@YAPANAAVFTII_PROFILE@@AAVMACHINE_CLASS@@AAVPART_CLASS@@AAVPARAMETER_CLASS@@AAVANALOG_SENSOR@@AAVFTANALOG_CLASS@@AAVFTCALC_CLASS@@@Z@4_NA 0044f18c     v5subs:ftii_parameters.obj
 0003:00003190       ?epi_skip_count@?1??calculate_ftii_parameters@@YAPANAAVFTII_PROFILE@@AAVMACHINE_CLASS@@AAVPART_CLASS@@AAVPARAMETER_CLASS@@AAVANALOG_SENSOR@@AAVFTANALOG_CLASS@@AAVFTCALC_CLASS@@@Z@4HA 0044f190     v5subs:ftii_parameters.obj
 0003:00003194       _Description               0044f194     v5subs:plookup.obj
 0003:000031a8       _AChar                     0044f1a8     v5subs:plookup.obj
 0003:000031ac       _SpaceChar                 0044f1ac     v5subs:plookup.obj
 0003:000031b0       _ZChar                     0044f1b0     v5subs:plookup.obj
 0003:000031b4       _ZeroChar                  0044f1b4     v5subs:plookup.obj
 0003:000031b8       _Description               0044f1b8     v5subs:shot_name_reset.obj
 0003:000031c4       _DefaultValue              0044f1c4     v5subs:shot_name_reset.obj
 0003:000031d0       _AChar                     0044f1d0     v5subs:shot_name_reset.obj
 0003:000031d4       _AsterixChar               0044f1d4     v5subs:shot_name_reset.obj
 0003:000031d8       _LeftCurlyBracket          0044f1d8     v5subs:shot_name_reset.obj
 0003:000031dc       _RightCurlyBracket         0044f1dc     v5subs:shot_name_reset.obj
 0003:000031e0       _SChar                     0044f1e0     v5subs:shot_name_reset.obj
 0003:000031e4       _SCharLow                  0044f1e4     v5subs:shot_name_reset.obj
 0003:000031e8       _ZChar                     0044f1e8     v5subs:shot_name_reset.obj
 0003:000031ec       _ZeroChar                  0044f1ec     v5subs:shot_name_reset.obj
 0003:000031f0       _BackslashChar             0044f1f0     v5subs:semaphor.obj
 0003:000031f4       ?all_profiles@?1??purge_shot_data@@YAXAAVSTRING_CLASS@@00@Z@4PA_WA 0044f1f4     v5subs:purge.obj
 0003:00003200       _ConfigSection             0044f200     v5subs:write_shotparm_log.obj
 0003:00003210       _LogShotparmAccessKey      0044f210     v5subs:write_shotparm_log.obj
 0003:00003234       ?FirstTime@?1??write_shotparm_log@@YAXAAVSTRING_CLASS@@0PA_W_NVTIME_CLASS@@31@Z@4_NA 0044f234     v5subs:write_shotparm_log.obj
 0003:00003238       _UnknownWorker             0044f238     v5subs:workclas.obj
 0003:00003248       _RoutinesFile              0044f248     v5subs:error_ms.obj
 0003:00003264       _ErrMsgFile                0044f264     v5subs:error_ms.obj
 0003:00003280       _FtErrMsgFile              0044f280     v5subs:error_ms.obj
 0003:0000329c       _NullChar                  0044f29c     v5subs:is_empty.obj
 0003:000032b0       _CommaChar                 0044f2b0     v5subs:wire_class.obj
 0003:000032b8       _DefaultWireList           0044f2b8     v5subs:wire_class.obj
 0003:000034b8       ?ic@?1??dups_to_vu@@YANFF@Z@4PANA 0044f4b8     v5subs:unitadj.obj
 0003:000034d8       ?ft@?1??dups_to_vu@@YANFF@Z@4PANA 0044f4d8     v5subs:unitadj.obj
 0003:000034f8       ?mm@?1??dups_to_vu@@YANFF@Z@4PANA 0044f4f8     v5subs:unitadj.obj
 0003:00003518       ?cm@?1??dups_to_vu@@YANFF@Z@4PANA 0044f518     v5subs:unitadj.obj
 0003:00003538       _StarDotStar               0044f538     v5subs:killdir.obj
 0003:00003550       _errtable                  0044f550     LIBCMT:dosmap.obj
 0003:000036b8       _ErrnoNoMem                0044f6b8     LIBCMT:dosmap.obj
 0003:000036bc       _DoserrorNoMem             0044f6bc     LIBCMT:dosmap.obj
 0003:000036c0       _NAME_                     0044f6c0     LIBCMT:sqrt.obj
 0003:00003700       ?isPackaged@?1??__crtIsPackagedApp@@9@9 0044f700     LIBCMT:winapisupp.obj
 0003:00003b70       ___rgctypeflag             0044fb70     LIBCMT:mbctype.obj
 0003:00003b78       ___rgcode_page_info        0044fb78     LIBCMT:mbctype.obj
 0003:00003ea8       __ctype_loc_style          0044fea8     LIBCMT:wsetloca.obj
 0003:00003eac       _newcw                     0044feac     LIBCMT:floor.obj
 0003:00003eb0       ?_names@?1??_get_fname@@9@9 0044feb0     LIBCMT:fpexcept.obj
 0003:00003fa0       _newcw                     0044ffa0     LIBCMT:ceil.obj
 0003:00003fd0       _over                      0044ffd0     LIBCMT:fpctrl.obj
 0003:00003fdc       _under                     0044ffdc     LIBCMT:fpctrl.obj
 0003:00003fe8       ?__DAZ_ENABLED@?1??__set_fpsr_sse2@@9@9 0044ffe8     LIBCMT:fpctrl.obj
 0003:00003ff0       __locktable                0044fff0     LIBCMT:mlock.obj
 0003:00004390       _DoubleFormat              00450390     LIBCMT:intrncvt.obj
 0003:000043a8       _FloatFormat               004503a8     LIBCMT:intrncvt.obj
 0003:00004862       _HaveValveMasterData       00450862     ft2.obj
 0003:00004863       _HasPressureControl        00450863     ft2.obj
 0003:00004910       _ToolTipWindow             00450910     ft2.obj
 0003:0000491c       _ValveMasterMin            0045091c     ft2.obj
 0003:00004920       _ValveTestMin              00450920     ft2.obj
 0003:00004924       _CurrentListIndex          00450924     ft2.obj
 0003:00004928       _CurrentBoardVariable      00450928     ft2.obj
 0003:0000492c       _SendingBoardVariableRequests 0045092c     ft2.obj
 0003:0000492d       _ShowDifOnly               0045092d     ft2.obj
 0003:0000492e       _WaitingToResume           0045092e     ft2.obj
 0003:0000492f       _ClosingAfterRemote        0045092f     ft2.obj
 0003:00004930       _Start_Shot_Tbox_Handle    00450930     ft2.obj
 0003:00004934       _Follow_Thru_Tbox_Handle   00450934     ft2.obj
 0003:00004938       _Retract_Tbox_Handle       00450938     ft2.obj
 0003:0000493c       _HIRES_SENSOR_START_SHOT_WIRE_INDEX 0045093c     ft2.obj
 0003:00004940       _CurrentPasswordLevel      00450940     ft2.obj
 0003:00004944       _ServiceToolsGrayLevel     00450944     ft2.obj
 0003:00004948       _HiresSensorPeriodMs       00450948     ft2.obj
 0003:0000495c       _HiresSensorStartShotWire  0045095c     ft2.obj
 0003:00004960       _HiresSensorFollowThruWire 00450960     ft2.obj
 0003:00004964       _HiresSensorRetractWire    00450964     ft2.obj
 0003:00004968       _ShutdownAnyway            00450968     ft2.obj
 0003:00004969       _NeedToCloseMainWindow     00450969     ft2.obj
 0003:0000496a       _UpdatingControlModsDialog 0045096a     ft2.obj
 0003:0000496b       _OptoMode                  0045096b     ft2.obj
 0003:0000496c       _SwitchChannelsXbox        0045096c     ft2.obj
 0003:00004970       _AbortedMachineNameTbox    00450970     ft2.obj
 0003:00004974       _MyMonitorSetupCount       00450974     ft2.obj
 0003:00004978       _GreenBackgroundBrush      00450978     ft2.obj
 0003:0000497c       _OrangeBackgroundBrush     0045097c     ft2.obj
 0003:00004980       _RedBackgroundBrush        00450980     ft2.obj
 0003:00004984       _Max_Position              00450984     ft2.obj
 0003:00004988       _Max_Velocity              00450988     ft2.obj
 0003:0000498c       _Control_Status            0045098c     ft2.obj
 0003:00004990       _Monitor_Status            00450990     ft2.obj
 0003:00004994       _LastInputBits             00450994     ft2.obj
 0003:00004998       _LastOutputBits            00450998     ft2.obj
 0003:0000499c       _NULL_DAC_INDEX            0045099c     ft2.obj
 0003:000049a0       _AnalogValue               004509a0     ft2.obj
 0003:00004a02       _UpdatingSetDacScreen      00450a02     ft2.obj
 0003:00004a03       _UpdatingValveTestScreen   00450a03     ft2.obj
 0003:00004a06       _UsingValveTestOutput      00450a06     ft2.obj
 0003:00004a07       _UsingNullValveOutput      00450a07     ft2.obj
 0003:00004a0c       _TopOfListBox              00450a0c     ft2.obj
 0003:00004a10       _MainClientWidth           00450a10     ft2.obj
 0003:00004a89       _UsingAltStep              00450a89     ft2.obj
 0003:00004db8       _InputOpto                 00450db8     ft2.obj
 0003:00004dd8       _OutputOpto                00450dd8     ft2.obj
 0003:00004df8       _TestAlarmOpto             00450df8     ft2.obj
 0003:00005014       _AutoBack                  00451014     ft2.obj
 0003:000050a8       _WireString                004510a8     ft2.obj
 0003:000050b0       _StartScreen               004510b0     ft2.obj
 0003:000050b8       _ErrorLog                  004510b8     ft2.obj
 0003:000050dc       _CVLb                      004510dc     ft2.obj
 0003:000050f0       _BoardVariable             004510f0     ft2.obj
 0003:000070f0       _BoardVariableDescription  004530f0     ft2.obj
 0003:00008100       _AltStepNum                00454100     ft2.obj
 0003:00008108       _AltStepEnd                00454108     ft2.obj
 0003:00008110       _AltStepVel                00454110     ft2.obj
 0003:00008118       _AltStepAcc                00454118     ft2.obj
 0003:00008120       _AltStepPos                00454120     ft2.obj
 0003:00008128       _AltStepVelPrefix          00454128     ft2.obj
 0003:00008130       _AltStepAccPrefix          00454130     ft2.obj
 0003:00008138       _AltStepPosPrefix          00454138     ft2.obj
 0003:00008140       _ParkStepNum               00454140     ft2.obj
 0003:00008148       _ParkStep2Num              00454148     ft2.obj
 0003:00008150       _ParkStepVolts             00454150     ft2.obj
 0003:00008158       _ParkStepVoltsPrefix       00454158     ft2.obj
 0003:00008160       _StartStepNum              00454160     ft2.obj
 0003:00008168       _StartStepVolts            00454168     ft2.obj
 0003:00008170       _StartStepVoltsPrefix      00454170     ft2.obj
 0003:0000824c       _CmdString                 0045424c     ft2.obj
 0003:00008254       _LvdtString                00454254     ft2.obj
 0003:0000825c       _MeasString                0045425c     ft2.obj
 0003:00008264       _ErrorLogTempFile          00454264     ft2.obj
 0003:0000826c       _ErrorLogZipFile           0045426c     ft2.obj
 0003:00008274       _MonitorStatusControl      00454274     ft2.obj
 0003:00008350       _ValveMasterData           00454350     ft2.obj
 0003:0000a290       _ValveTestData             00456290     ft2.obj
 0003:0000c1d0       ?f@?1??write_log@@YAXPA_W@Z@4VFILE_CLASS@@A 004581d0     ft2.obj
 0003:0000c1f4       ?$S1@?1??write_log@@YAXPA_W@Z@4IA 004581f4     ft2.obj
 0003:0000c1f8       ?t@?1??write_log@@YAXPA_W@Z@4VTIME_CLASS@@A 004581f8     ft2.obj
 0003:0000c1fc       ?s@?1??write_log@@YAXPA_W@Z@4VSTRING_CLASS@@A 004581fc     ft2.obj
 0003:0000c204       ?cp@?1??write_log@@YAXPA_W@Z@4PA_WA 00458204     ft2.obj
 0003:0000c208       ?t@?1??push_log_message@@YAXPA_W@Z@4VTIME_CLASS@@A 00458208     ft2.obj
 0003:0000c20c       ?$S2@?1??push_log_message@@YAXPA_W@Z@4IA 0045820c     ft2.obj
 0003:0000c210       ?s@?1??push_log_message@@YAXPA_W@Z@4VSTRING_CLASS@@A 00458210     ft2.obj
 0003:0000c218       ?lastcommand@?1??edit_control_proc@@YGJPAUHWND__@@IIJ@Z@4VSTRING_CLASS@@A 00458218     ft2.obj
 0003:0000c220       ?$S3@?1??edit_control_proc@@YGJPAUHWND__@@IIJ@Z@4IA 00458220     ft2.obj
 0003:0000c224       ?s@?1??edit_control_proc@@YGJPAUHWND__@@IIJ@Z@4VSTRING_CLASS@@A 00458224     ft2.obj
 0003:0000c22c       ?new_is_diagnostic_window@?1??set_current_window@@YAXAAVWINDOW_CLASS@@@Z@4_NA 0045822c     ft2.obj
 0003:0000c22d       ?current_is_diagnostic_window@?1??set_current_window@@YAXAAVWINDOW_CLASS@@@Z@4_NA 0045822d     ft2.obj
 0003:0000c230       ?mybuf@?1??get_ascii_rt_data@@YAXJ@Z@4PA_WA 00458230     ft2.obj
 0003:0000c35c       ?sc@?1??get_ascii_rt_data@@YAXJ@Z@4VSTRING_CLASS@@A 0045835c     ft2.obj
 0003:0000c364       ?$S4@?1??get_ascii_rt_data@@YAXJ@Z@4IA 00458364     ft2.obj
 0003:0000c368       ?NcButtonDown@?1??terminal_proc@@YGJPAUHWND__@@IIJ@Z@4EA 00458368     ft2.obj
 0003:0000c369       ?Moving@?1??terminal_proc@@YGJPAUHWND__@@IIJ@Z@4EA 00458369     ft2.obj
 0003:0000c36c       ?id@?1??terminal_proc@@YGJPAUHWND__@@IIJ@Z@4HA 0045836c     ft2.obj
 0003:0000c370       ?cmd@?1??terminal_proc@@YGJPAUHWND__@@IIJ@Z@4HA 00458370     ft2.obj
 0003:0000c374       ?id@?1??upload_aborted_dialog_proc@@YGHPAUHWND__@@IIJ@Z@4HA 00458374     ft2.obj
 0003:0000c378       ?s@?1??send_command_to_current_machine@@YAXPA_W_N@Z@4VSTRING_CLASS@@A 00458378     ft2.obj
 0003:0000c380       ?$S5@?1??send_command_to_current_machine@@YAXPA_W_N@Z@4IA 00458380     ft2.obj
 0003:0000c384       ?id@?1??deactivate_control_dialog_proc@@YGHPAUHWND__@@IIJ@Z@4HA 00458384     ft2.obj
 0003:0000c388       ?id@?1??choose_monitor_machine_dialog_proc@@YGHPAUHWND__@@IIJ@Z@4HA 00458388     ft2.obj
 0003:0000c38c       ?i@?1??do_new_set_null_values@@YAXXZ@4HA 0045838c     ft2.obj
 0003:0000c390       ?w@?1??do_new_set_null_values@@YAXXZ@4PAUHWND__@@A 00458390     ft2.obj
 0003:0000c394       ?x@?1??do_new_set_null_values@@YAXXZ@4IA 00458394     ft2.obj
 0003:0000c398       ?ns@?1??do_new_set_null_values@@YAXXZ@4VSTRING_CLASS@@A 00458398     ft2.obj
 0003:0000c3a0       ?$S6@?1??do_new_set_null_values@@YAXXZ@4IA 004583a0     ft2.obj
 0003:0000c3a4       ?id@?1??set_null_dialog_proc@@YGHPAUHWND__@@IIJ@Z@4HA 004583a4     ft2.obj
 0003:0000c3a8       ?ns@?1??do_new_set_dac_values@@YAXXZ@4VSTRING_CLASS@@A 004583a8     ft2.obj
 0003:0000c3b0       ?$S7@?1??do_new_set_dac_values@@YAXXZ@4IA 004583b0     ft2.obj
 0003:0000c3b4       ?os@?1??do_new_set_dac_values@@YAXXZ@4VSTRING_CLASS@@A 004583b4     ft2.obj
 0003:0000c3bc       ?wc@?1??do_new_set_dac_values@@YAXXZ@4VWINDOW_CLASS@@A 004583bc     ft2.obj
 0003:0000c3c4       ?w@?1??do_new_set_dac_values@@YAXXZ@4PAUHWND__@@A 004583c4     ft2.obj
 0003:0000c3c8       ?i@?1??do_new_set_dac_values@@YAXXZ@4HA 004583c8     ft2.obj
 0003:0000c3d0       ?d@?1??do_new_set_dac_values@@YAXXZ@4NA 004583d0     ft2.obj
 0003:0000c3d8       ?x@?1??do_new_set_dac_values@@YAXXZ@4IA 004583d8     ft2.obj
 0003:0000c3dc       ?last_id@?1??send_test_message@@YAXH@Z@4HA 004583dc     ft2.obj
 0003:0000c3e0       ?id@?1??set_dac_dialog_proc@@YGHPAUHWND__@@IIJ@Z@4HA 004583e0     ft2.obj
 0003:0000c3e4       ?cmd@?1??set_dac_dialog_proc@@YGHPAUHWND__@@IIJ@Z@4HA 004583e4     ft2.obj
 0003:0000c3e8       ?buf@?1??ft2_volts_toascii@@YAPA_WPA_W@Z@4PA_WA 004583e8     ft2.obj
 0003:0000c3f8       ?buf@?1??ascii_volts_to_ft2_volts@@YAPA_WPA_W@Z@4PA_WA 004583f8     ft2.obj
 0003:0000c408       ?buf@?1??alt_step_text@@YAPA_WXZ@4PA_WA 00458408     ft2.obj
 0003:0000c4d0       ?my_machine@?1??check_for_new_board@@YAXXZ@4VSTRING_CLASS@@A 004584d0     ft2.obj
 0003:0000c4d8       ?$S8@?1??check_for_new_board@@YAXXZ@4IA 004584d8     ft2.obj
 0003:0000c4dc       ?timer_id@?1??valve_test_dialog_proc@@YGHPAUHWND__@@IIJ@Z@4IA 004584dc     ft2.obj
 0003:0000c4e0       ?s@?1??log_input_bits@@YAXXZ@4VSTRING_CLASS@@A 004584e0     ft2.obj
 0003:0000c4e8       ?$S9@?1??log_input_bits@@YAXXZ@4IA 004584e8     ft2.obj
 0003:0000c4ec       ?s@?1??log_output_bits@@YAXXZ@4VSTRING_CLASS@@A 004584ec     ft2.obj
 0003:0000c4f4       ?$S10@?1??log_output_bits@@YAXXZ@4IA 004584f4     ft2.obj
 0003:0000c4f8       ?ns@?1??do_new_current_values@@YAXXZ@4VSTRING_CLASS@@A 004584f8     ft2.obj
 0003:0000c500       ?$S11@?1??do_new_current_values@@YAXXZ@4IA 00458500     ft2.obj
 0003:0000c504       ?os@?1??do_new_current_values@@YAXXZ@4VSTRING_CLASS@@A 00458504     ft2.obj
 0003:0000c50c       ?wc@?1??do_new_current_values@@YAXXZ@4VWINDOW_CLASS@@A 0045850c     ft2.obj
 0003:0000c514       ?w@?1??do_new_current_values@@YAXXZ@4PAUHWND__@@A 00458514     ft2.obj
 0003:0000c518       ?i@?1??do_new_current_values@@YAXXZ@4HA 00458518     ft2.obj
 0003:0000c51c       ?chan@?1??do_new_current_values@@YAXXZ@4HA 0045851c     ft2.obj
 0003:0000c520       ?x@?1??do_new_current_values@@YAXXZ@4IA 00458520     ft2.obj
 0003:0000c528       ?d@?1??do_new_current_values@@YAXXZ@4NA 00458528     ft2.obj
 0003:0000c530       ?should_be_visible@?1??do_new_current_values@@YAXXZ@4_NA 00458530     ft2.obj
 0003:0000c531       ?show_channels_17_20@?1??do_new_current_values@@YAXXZ@4EA 00458531     ft2.obj
 0003:0000c534       ?channel_mode@?1??do_new_current_values@@YAXXZ@4HA 00458534     ft2.obj
 0003:0000c538       ?cmdchan@?1??do_new_current_values@@YAXXZ@4HA 00458538     ft2.obj
 0003:0000c53c       ?lvdtchan@?1??do_new_current_values@@YAXXZ@4HA 0045853c     ft2.obj
 0003:0000c540       ?s@?1??do_new_current_values@@YAXXZ@4VSTRING_CLASS@@A 00458540     ft2.obj
 0003:0000c548       ?logs@?1??do_new_current_values@@YAXXZ@4VSTRING_CLASS@@A 00458548     ft2.obj
 0003:0000c550       ?Last_Osw1@?1??do_new_alarm_output_values@@YAXXZ@4IA 00458550     ft2.obj
 0003:0000c554       ?w@?1??current_values_dialog_proc@@YGHPAUHWND__@@IIJ@Z@4PAU2@A 00458554     ft2.obj
 0003:0000c558       ?id@?1??current_values_dialog_proc@@YGHPAUHWND__@@IIJ@Z@4HA 00458558     ft2.obj
 0003:0000c55c       ?error_log_tbox_handle@?1??current_values_dialog_proc@@YGHPAUHWND__@@IIJ@Z@4PAU2@A 0045855c     ft2.obj
 0003:0000c560       ?s@?1??send_data_server_shot_notification@@YAXPA_W0@Z@4VSTRING_CLASS@@A 00458560     ft2.obj
 0003:0000c568       ?$S12@?1??send_data_server_shot_notification@@YAXPA_W0@Z@4IA 00458568     ft2.obj
 0003:0000c56c       ?id@?1??main_proc@@YGJPAUHWND__@@IIJ@Z@4HA 0045856c     ft2.obj
 0003:0000c570       ?cmd@?1??main_proc@@YGJPAUHWND__@@IIJ@Z@4HA 00458570     ft2.obj
 0003:0000c574       ?ErrorLogZipFile@?5??init@@YAEH@Z@4VNAME_CLASS@@A 00458574     ft2.obj
 0003:0000c57c       ?$S13@?5??init@@YAEH@Z@4IA 0045857c     ft2.obj
 0003:0000c580       _SendEvent                 00458580     board_monitor.obj
 0003:0000c584       _NewDataEvent              00458584     board_monitor.obj
 0003:0000c588       _Wsa_Is_Started            00458588     board_monitor.obj
 0003:0000c589       _Read_Thread_Is_Running    00458589     board_monitor.obj
 0003:0000c58a       _ShuttingDown              0045858a     board_monitor.obj
 0003:0000c594       _ReceivedAcks              00458594     board_monitor.obj
 0003:0000c5b8       _AckList                   004585b8     board_monitor.obj
 0003:0000c5dc       _NewData                   004585dc     board_monitor.obj
 0003:0000c600       _SocketMessageStore        00458600     board_monitor.obj
 0003:0000c624       _AckMessageStore           00458624     board_monitor.obj
 0003:0000c648       _StdDown                   00458648     board_monitor.obj
 0003:0000c654       _MyAddress                 00458654     board_monitor.obj
 0003:0000c664       ?CycleStartIsVisible@?1??update_monitor_status@@YAXPAVFTII_BOARD_ENTRY@@PA_W@Z@4EA 00458664     board_monitor.obj
 0003:0000c668       ?empty@?1???ABOARD_EXTENDED_ANALOG_ARRAY@@QAEAAUBOARD_EXTENDED_ANALOG_ENTRY@@H@Z@4U2@A 00458668     board_monitor.obj
 0003:0000c67c       ?$S2@?1???ABOARD_EXTENDED_ANALOG_ARRAY@@QAEAAUBOARD_EXTENDED_ANALOG_ENTRY@@H@Z@4IA 0045867c     board_monitor.obj
 0003:0000c680       ?opnumber@?1??current_operator@@YAPA_WAAVSTRING_CLASS@@0@Z@4PA_WA 00458680     board_monitor.obj
 0003:0000c694       ?InputOnBackgroundBrush@?1??AutoShotDisplayProc@@YGHPAUHWND__@@IIJ@Z@4PAUHBRUSH__@@A 00458694     board_monitor.obj
 0003:0000c698       ?s@?1??continue_connecting_one_board@@YAXH@Z@4VSTRING_CLASS@@A 00458698     board_monitor.obj
 0003:0000c6a0       ?$S4@?1??continue_connecting_one_board@@YAXH@Z@4IA 004586a0     board_monitor.obj
 0003:0000c6a4       ?finished@?1??new_data_thread@@YAXPAX@Z@4_NA 004586a4     board_monitor.obj
 0003:0000c6a8       ?last_check_time@?1??send_thread@@YAXPAX@Z@4IA 004586a8     board_monitor.obj
 0003:0000c6b0       _SaveAllAlarmShots         004586b0     shotsave.obj
 0003:0000c6b1       _ShotsaveLogIsEnabled      004586b1     shotsave.obj
 0003:0000c6b2       _EosAsciiToSerial          004586b2     shotsave.obj
 0003:0000c6b3       _EosNeedsStxEtx            004586b3     shotsave.obj
 0003:0000c6b4       _SerialFile                004586b4     shotsave.obj
 0003:0000c6b8       _EosComPort                004586b8     shotsave.obj
 0003:0000c6bc       _EosComSetup               004586bc     shotsave.obj
 0003:0000c6c0       _EosHaveAlarmShot          004586c0     shotsave.obj
 0003:0000c6c4       _EosHaveWarningShot        004586c4     shotsave.obj
 0003:0000c6c8       _EosHaveGoodShot           004586c8     shotsave.obj
 0003:0000c6cc       _EosHaveAlarmParameter     004586cc     shotsave.obj
 0003:0000c6d0       _EosHaveWarningParameter   004586d0     shotsave.obj
 0003:0000c6d4       _EosHaveGoodParameter      004586d4     shotsave.obj
 0003:0000c6d8       _EosMachineName            004586d8     shotsave.obj
 0003:0000c6dc       _EosOutputFile             004586dc     shotsave.obj
 0003:0000c6e0       _EosOutputFileSetup        004586e0     shotsave.obj
 0003:0000c6e4       _EosFixedWidth             004586e4     shotsave.obj
 0003:0000c6e8       _EosOnlyIfNoAlarms         004586e8     shotsave.obj
 0003:0000c6ec       _EosPyramidLines           004586ec     shotsave.obj
 0003:0000c6f0       _EosEndFile                004586f0     shotsave.obj
 0003:0000c6f8       _EosStartFile              004586f8     shotsave.obj
 0003:0000c700       _ShotsaveLogFile           00458700     shotsave.obj
 0003:0000c718       _ShowParam                 00458718     shotsave.obj
 0003:0000c790       ?AnalogSensor@?1??write_std_units_csv_file@@YAEAAVSTRING_CLASS@@PAVSHOT_BUFFER_ENTRY@@@Z@4VANALOG_SENSOR@@A 00458790     shotsave.obj
 0003:0000c794       ?$S2@?1??write_std_units_csv_file@@YAEAAVSTRING_CLASS@@PAVSHOT_BUFFER_ENTRY@@@Z@4IA 00458794     shotsave.obj
 0003:0000c798       ?current_index@?1??save_all_shots@@YAXXZ@4HA 00458798     shotsave.obj
 0003:0000c7a8       ?mse@?1??find@@YAPAUMACH_SKIP_ENTRY@@AAVSTRING_CLASS@@@Z@4PAU2@A 004587a8     skip.obj
 0003:0000c7b0       _NullChar                  004587b0     v5subs:path.obj
 0003:0000c7b4       _DriveName                 004587b4     v5subs:exists.obj
 0003:0000c7c0       ?s@?1??ascii_double@@YAPA_WN@Z@4PA_WA 004587c0     v5subs:ascfloat.obj
 0003:0000c814       _NullChar                  00458814     v5subs:extract.obj
 0003:0000c818       ?s@?1??int32toasc@@YAPA_WJ@Z@4PA_WA 00458818     v5subs:itoasc.obj
 0003:0000c840       ?s@?1??ultoascii@@YAPA_WKK@Z@4PA_WA 00458840     v5subs:itoasc.obj
 0003:0000c86c       _NullChar                  0045886c     v5subs:stringcl.obj
 0003:0000c870       _NullChar                  00458870     v5subs:nameclas.obj
 0003:0000c874       _EmptyString               00458874     v5subs:nameclas.obj
 0003:0000c87c       _MyComputer                0045887c     v5subs:nameclas.obj
 0003:0000c888       _SensorArray               00458888     v5subs:asensor.obj
 0003:0000c88c       _NofSensors                0045888c     v5subs:asensor.obj
 0003:0000c890       _EmptySensor               00458890     v5subs:asensor.obj
 0003:0000c8dc       _NullChar                  004588dc     v5subs:fileclas.obj
 0003:0000c8e0       _NullChar                  004588e0     v5subs:computer.obj
 0003:0000c8e4       _First                     004588e4     v5subs:computer.obj
 0003:0000c8e8       _MyComputer                004588e8     v5subs:computer.obj
 0003:0000c8f0       _NoComputer                004588f0     v5subs:computer.obj
 0003:0000c8f8       _NofComputers              004588f8     v5subs:computer.obj
 0003:0000c8fc       _NullChar                  004588fc     v5subs:iniclass.obj
 0003:0000c900       ?empty_string@?1??get_string@INI_CLASS@@QAEPA_WXZ@4PA_WA 00458900     v5subs:iniclass.obj
 0003:0000c904       _EmptyString               00458904     v5subs:listbox.obj
 0003:0000c908       _NullChar                  00458908     v5subs:machname.obj
 0003:0000c90c       _EmptyString               0045890c     v5subs:machname.obj
 0003:0000c914       _EmptyString               00458914     v5subs:msgclas.obj
 0003:0000c918       _RedBrush                  00458918     v5subs:optocontrol.obj
 0003:0000c91c       _YellowBrush               0045891c     v5subs:optocontrol.obj
 0003:0000c920       _FontList                  00458920     v5subs:optocontrol.obj
 0003:0000c924       _NullChar                  00458924     v5subs:param.obj
 0003:0000c928       _NullChar                  00458928     v5subs:setpoint.obj
 0003:0000c92c       _empty_entry               0045892c     v5subs:setpoint.obj
 0003:0000c93c       _EmptyStringtableText      0045893c     v5subs:stringtable.obj
 0003:0000c940       _FontList                  00458940     v5subs:stringtable.obj
 0003:0000c944       _NullChar                  00458944     v5subs:stpres.obj
 0003:0000c948       _NullChar                  00458948     v5subs:get_ini.obj
 0003:0000c950       _Buf                       00458950     v5subs:get_ini.obj
 0003:0000d154       _NullChar                  00459154     v5subs:mem.obj
 0003:0000d158       _MyMainWindow              00459158     v5subs:client.obj
 0003:0000d15c       _EventList                 0045915c     v5subs:client.obj
 0003:0000d168       _ServerNameHandle          00459168     v5subs:client.obj
 0003:0000d16c       _DdeId                     0045916c     v5subs:client.obj
 0003:0000d170       _ServerHandle              00459170     v5subs:client.obj
 0003:0000d174       ?s@?1??one_hot_link@@YAXPAUHCONV__@@FI@Z@4VSTRING_CLASS@@A 00459174     v5subs:client.obj
 0003:0000d17c       ?$S1@?1??one_hot_link@@YAXPAUHCONV__@@FI@Z@4IA 0045917c     v5subs:client.obj
 0003:0000d180       _NofDCurves                00459180     v5subs:dcurve.obj
 0003:0000d184       _DCurve                    00459184     v5subs:dcurve.obj
 0003:0000d188       _EmptyString               00459188     v5subs:execwait.obj
 0003:0000d18c       _ExeDirectory              0045918c     v5subs:gexedir.obj
 0003:0000d194       _NullChar                  00459194     v5subs:fix.obj
 0003:0000d198       ?s@?1??fixed_string@@YAPA_WNJJ@Z@4PA_WA 00459198     v5subs:ftoasc.obj
 0003:0000d1f0       ?s@?1??position_string@@YAPA_WN@Z@4PA_WA 004591f0     v5subs:ftoasc.obj
 0003:0000d248       ?s@?1??resource_string@@YAPA_WPAUHINSTANCE__@@I@Z@4PA_WA 00459248     v5subs:winsubs.obj
 0003:0000d448       _NullChar                  00459448     v5subs:hex.obj
 0003:0000d44c       _NullChar                  0045944c     v5subs:insalph.obj
 0003:0000d450       ?s@?1??alphadate@@YAPA_WABU_SYSTEMTIME@@@Z@4PA_WA 00459450     v5subs:time.obj
 0003:0000d468       ?s@?1??alphatime@@YAPA_WABU_SYSTEMTIME@@@Z@4PA_WA 00459468     v5subs:time.obj
 0003:0000d484       _NullChar                  00459484     v5subs:shift.obj
 0003:0000d488       _EmptyString               00459488     v5subs:units.obj
 0003:0000d48c       _UnitsArray                0045948c     v5subs:units.obj
 0003:0000d490       _NofUnits                  00459490     v5subs:units.obj
 0003:0000d494       _OldCursor                 00459494     v5subs:hourglas.obj
 0003:0000d498       _RefCount                  00459498     v5subs:hourglas.obj
 0003:0000d49c       _TempMessageWindow         0045949c     v5subs:temp_message.obj
 0003:0000d4a0       _TempMessage               004594a0     v5subs:temp_message.obj
 0003:0000d4a4       _TempMessageLen            004594a4     v5subs:temp_message.obj
 0003:0000d4a8       _TempMessageTimeoutMs      004594a8     v5subs:temp_message.obj
 0003:0000d4ac       _CenterTempMessage         004594ac     v5subs:temp_message.obj
 0003:0000d4b0       ?timer_id@?1??temp_message_proc@@YGJPAUHWND__@@IIJ@Z@4IA 004594b0     v5subs:temp_message.obj
 0003:0000d4b4       _NullChar                  004594b4     v5subs:textlist.obj
 0003:0000d4b8       ?st@?1??system_time@TIME_CLASS@@QAEAAU_SYSTEMTIME@@XZ@4U3@A 004594b8     v5subs:timeclas.obj
 0003:0000d4c8       ?ft@?1??file_time@TIME_CLASS@@QAEAAU_FILETIME@@XZ@4U3@A 004594c8     v5subs:timeclas.obj
 0003:0000d4d0       ?s@?1??text@TIME_CLASS@@QAEPA_WXZ@4PA_WA 004594d0     v5subs:timeclas.obj
 0003:0000d4f8       ?s@?1??jjj@TIME_CLASS@@QAEPA_WXZ@4PA_WA 004594f8     v5subs:timeclas.obj
 0003:0000d500       ?s@?1??mmddyyyy@TIME_CLASS@@QAEPA_WXZ@4PA_WA 00459500     v5subs:timeclas.obj
 0003:0000d518       ?s@?1??hhmmss@TIME_CLASS@@QAEPA_WXZ@4PA_WA 00459518     v5subs:timeclas.obj
 0003:0000d52c       _BorderHeight              0045952c     v5subs:menuctrl.obj
 0003:0000d530       _BorderWidth               00459530     v5subs:menuctrl.obj
 0003:0000d534       _FontList                  00459534     v5subs:menuctrl.obj
 0003:0000d538       ?hex@?1??append_value@FTII_VAR@@QAE_NAAVSTRING_CLASS@@@Z@4PA_WA 00459538     v5subs:ftiiclas.obj
 0003:0000d560       _NullChar                  00459560     v5subs:ftii_shot_data.obj
 0003:0000d564       _EmptyString               00459564     v5subs:ftii_shot_data.obj
 0003:0000d568       ?empty_double@?1???ADOUBLE_ARRAY_CLASS@@QAEAANJ@Z@4NA 00459568     v5subs:array.obj
 0003:0000d570       ?empty_int@?1???AINT_ARRAY_CLASS@@QAEAAHH@Z@4HA 00459570     v5subs:array.obj
 0003:0000d574       _EmptyString               00459574     v5subs:ftanalog.obj
 0003:0000d578       _Empty                     00459578     v5subs:runlist.obj
 0003:0000d584       _NullChar                  00459584     v5subs:shot_name.obj
 0003:0000d588       ?es@?1??cat@STDDOWN_CLASS@@QAEPA_WXZ@4PA_WA 00459588     v5subs:stddown.obj
 0003:0000d58c       ?es@?1??subcat@STDDOWN_CLASS@@QAEPA_WXZ@4PA_WA 0045958c     v5subs:stddown.obj
 0003:0000d590       ?name@?1??category_name@@YAPA_WPA_W@Z@4PA_WA 00459590     v5subs:downsubs.obj
 0003:0000d5b0       ?number@?1??category_name@@YAPA_WPA_W@Z@4PA_WA 004595b0     v5subs:downsubs.obj
 0003:0000d5b8       ?cat@?1??subcategory_name@@YAPA_WPA_W0@Z@4PA_WA 004595b8     v5subs:downsubs.obj
 0003:0000d5c0       ?subcat@?1??subcategory_name@@YAPA_WPA_W0@Z@4PA_WA 004595c0     v5subs:downsubs.obj
 0003:0000d5c8       ?name@?1??subcategory_name@@YAPA_WPA_W0@Z@4PA_WA 004595c8     v5subs:downsubs.obj
 0003:0000d5e8       _NullChar                  004595e8     v5subs:plookup.obj
 0003:0000d5ec       _NullChar                  004595ec     v5subs:shot_name_reset.obj
 0003:0000d5f0       _MyEmptyString             004595f0     v5subs:shot_name_reset.obj
 0003:0000d5f8       ?name@?1??dynamic_file_name@@YAPA_WAAVTIME_CLASS@@AAUPART_NAME_ENTRY@@PB_W@Z@4PA_WA 004595f8     v5subs:dynamic_file_name.obj
 0003:0000d804       _T                         00459804     v5subs:semaphor.obj
 0003:0000d840       ?s@?1??full_name@WORKER_LIST_CLASS@@QAEPA_WXZ@4PA_WA 00459840     v5subs:workclas.obj
 0003:0000d880       _Msg                       00459880     v5subs:error_ms.obj
 0003:0000d8fc       _OVERWRITE_EXISTING        004598fc     v5subs:callfile.obj
 0003:0000d908       _GS_ExceptionRecord        00459908     LIBCMT:gs_report.obj
 0003:0000d958       _GS_ContextRecord          00459958     LIBCMT:gs_report.obj
 0003:0000dc24       _DebuggerWasPresent        00459c24     LIBCMT:gs_report.obj
 0003:0000dc6c       ___type_info_root_node     00459c6c     LIBCMT:typname.obj
 0003:0000dd88       ?_pgmname@?1??_setargv@@9@9 00459d88     LIBCMT:stdargv.obj
 0003:0000de98       ?outmsg@?8??_NMSG_WRITE@@9@9 00459e98     LIBCMT:crt0msg.obj
 0003:0000e4dc       _fSystemSet                0045a4dc     LIBCMT:mbctype.obj
 0003:0000e4e4       __pmatherr_set             0045a4e4     LIBCMT:libm_error.obj
 0003:0000e4f0       _lclcritsects              0045a4f0     LIBCMT:mlock.obj
 0003:0000e648       _ctrlc_action              0045a648     LIBCMT:winsig.obj
