 profile

 Timestamp is 565081e5 (Sat Nov 21 09:38:29 2015)

 Preferred load address is 00400000

 Start         Length     Name                   Class
 0001:00000000 0000073aH .text$di                CODE
 0001:00000740 00059b2aH .text$mn                CODE
 0001:0005a26a 000003efH .text$yd                CODE
 0002:00000000 00000450H .idata$5                DATA
 0002:00000450 00000004H .CRT$XCA                DATA
 0002:00000454 00000160H .CRT$XCU                DATA
 0002:000005b4 00000004H .CRT$XCZ                DATA
 0002:000005b8 00000004H .CRT$XIA                DATA
 0002:000005bc 00000014H .CRT$XIC                DATA
 0002:000005d0 00000004H .CRT$XIY                DATA
 0002:000005d4 00000004H .CRT$XIZ                DATA
 0002:000005d8 00000004H .CRT$XPA                DATA
 0002:000005dc 00000008H .CRT$XPX                DATA
 0002:000005e4 00000004H .CRT$XPXA               DATA
 0002:000005e8 00000004H .CRT$XPZ                DATA
 0002:000005ec 00000004H .CRT$XTA                DATA
 0002:000005f0 00000004H .CRT$XTZ                DATA
 0002:00000600 00007ce0H .rdata                  DATA
 0002:000082e0 000008e0H .rdata$r                DATA
 0002:00008bc0 0000000cH .rdata$sxdata           DATA
 0002:00008bcc 00000004H .rtc$IAA                DATA
 0002:00008bd0 00000004H .rtc$IZZ                DATA
 0002:00008bd4 00000004H .rtc$TAA                DATA
 0002:00008bd8 00000004H .rtc$TZZ                DATA
 0002:00008be0 0000034cH .xdata$x                DATA
 0002:00008f2c 00000000H .edata                  DATA
 0002:00008f2c 0000008cH .idata$2                DATA
 0002:00008fb8 00000014H .idata$3                DATA
 0002:00008fcc 00000450H .idata$4                DATA
 0002:0000941c 000011c6H .idata$6                DATA
 0003:00000000 00002d64H .data                   DATA
 0003:00002d64 00000358H .data$r                 DATA
 0003:000030c0 0008eb44H .bss                    DATA
 0004:00000000 00001234H .rsrc$01                DATA
 0004:00001240 0000b8a0H .rsrc$02                DATA

  Address         Publics by Value              Rva+Base       Lib:Object

 0000:00000000       ___guard_fids_table        00000000     <absolute>
 0000:00000000       __except_list              00000000     <absolute>
 0000:00000000       ___guard_fids_count        00000000     <absolute>
 0000:00000000       ___guard_flags             00000000     <absolute>
 0000:00000003       ___safe_se_handler_count   00000003     <absolute>
 0000:00000000       ___ImageBase               00400000     <linker-defined>
 0001:00000740       ??0FTANALOG_CLASS@@QAE@XZ  00401740 f i profile.obj
 0001:0000075d       ??0FTANALOG_ENTRY@@QAE@XZ  0040175d f i profile.obj
 0001:00000787       ??0FTCALC_CLASS@@QAE@XZ    00401787 f i profile.obj
 0001:000007af       ??0PROFILE_NAME_ENTRY@@QAE@XZ 004017af f i profile.obj
 0001:000007d3       ??1FTANALOG_CLASS@@QAE@XZ  004017d3 f i profile.obj
 0001:000007f6       ??1FTCALC_CLASS@@QAE@XZ    004017f6 f i profile.obj
 0001:00000818       ??1MACHINE_CLASS@@QAE@XZ   00401818 f i profile.obj
 0001:00000869       ??1MARKS_CLASS@@QAE@XZ     00401869 f i profile.obj
 0001:0000089e       ??1PART_NAME_ENTRY@@QAE@XZ 0040189e f i profile.obj
 0001:0000089e       ??1PARAMETER_CLASS@@QAE@XZ 0040189e f i profile.obj
 0001:000008b9       ??1PROFILE_NAME_ENTRY@@QAE@XZ 004018b9 f i profile.obj
 0001:000008dc       ??4REGION_ENTRY@@QAEXABU0@@Z 004018dc f   profile.obj
 0001:000008ff       ?IsWindowsVersionOrGreater@@YA_NGGG@Z 004018ff f i profile.obj
 0001:000009c3       ?about_dialog_proc@@YGHPAUHWND__@@IIJ@Z 004019c3 f   profile.obj
 0001:00000a19       ?add_to_backup_list@@YAXXZ 00401a19 f   profile.obj
 0001:00000c5d       ?adjust_all_y_axis_limits@@YAXXZ 00401c5d f   profile.obj
 0001:00000e5d       ?alarm_log_setup_proc@@YGHPAUHWND__@@IIJ@Z 00401e5d f   profile.obj
 0001:00000e9b       ?alarm_summary_proc@@YGHPAUHWND__@@IIJ@Z 00401e9b f   profile.obj
 0001:000018af       ?check_print_to_clipboard_setup@@YAXXZ 004028af f   profile.obj
 0001:000019f7       ?choose_corner_parameters@@YAXXZ 004029f7 f   profile.obj
 0001:00001a1d       ?choose_downtime_machine_dialog_proc@@YGHPAUHWND__@@IIJ@Z 00402a1d f   profile.obj
 0001:00001b26       ?choose_language_dialog_proc@@YGHPAUHWND__@@IIJ@Z 00402b26 f   profile.obj
 0001:00001bf5       ?close_dialog@@YAXPAUHWND__@@@Z 00402bf5 f   profile.obj
 0001:00001f55       ?corner_param_dialog_proc@@YGHPAUHWND__@@IIJ@Z 00402f55 f   profile.obj
 0001:0000204c       ?countchars@STRING_CLASS@@QAEJD@Z 0040304c f i profile.obj
 0001:0000255a       ?create_menu_help_box@@YAXXZ 0040355a f   profile.obj
 0001:000026f6       ?csv_shot_file_dialog_proc@@YGHPAUHWND__@@IIJ@Z 004036f6 f   profile.obj
 0001:00002918       ?date_and_shift_string@@YAPADAAVTIME_CLASS@@J@Z 00403918 f   profile.obj
 0001:000029b9       ?day_param_eb_sub_proc@@YGJPAUHWND__@@IIJ@Z 004039b9 f   profile.obj
 0001:00002aa3       ?delete_file@NAME_CLASS@@QAEEXZ 00403aa3 f i profile.obj
 0001:00002af3       ?do_language_selection@@YAXPAUHWND__@@@Z 00403af3 f   profile.obj
 0001:00003295       ?do_view_parameters_menu@@YAXXZ 00404295 f   profile.obj
 0001:0000334a       ?do_zoom_arrow_keys@@YAEH@Z 0040434a f   profile.obj
 0001:000035c7       ?down_data_callback@@YAXPADFPAUHDDEDATA__@@@Z 004045c7 f   profile.obj
 0001:0000372b       ?downtime_entry_dialog_proc@@YGHPAUHWND__@@IIJ@Z 0040472b f   profile.obj
 0001:00003862       ?downtime_entry_sub_proc@@YGJPAUHWND__@@IIJ@Z 00404862 f   profile.obj
 0001:000038d8       ?draw_axis@@YAXHFAAUtagRECT@@IGFF@Z 004048d8 f   profile.obj
 0001:00003b76       ?draw_grid@@YAXH@Z         00404b76 f   profile.obj
 0001:00003cda       ?draw_mark@@YAXMHPAUMARKLIST_ENTRY@@@Z 00404cda f   profile.obj
 0001:0000402d       ?draw_vertical_tics@@YAXAAUtagRECT@@HPAUHPEN__@@1@Z 0040502d f   profile.obj
 0001:000042a4       ?enable_prev_next_buttons@@YAXPAUHWND__@@@Z 004052a4 f   profile.obj
 0001:00004497       ?file_exists@NAME_CLASS@@QAEEXZ 00405497 f i profile.obj
 0001:00004798       ?fill_languages@@YAXPAUHWND__@@@Z 00405798 f   profile.obj
 0001:000049ff       ?fill_version@@YAXPAUHWND__@@@Z 004059ff f   profile.obj
 0001:00004a5f       ?find_index@@YAHMHH@Z      00405a5f f   profile.obj
 0001:00004aec       ?fix_decimals@@YAXPADF@Z   00405aec f   profile.obj
 0001:00004f17       ?get_alarm_period_type@@YAXAAE0@Z 00405f17 f   profile.obj
 0001:00004f52       ?get_current_shot@@YAEXZ   00405f52 f   profile.obj
 0001:00004fa2       ?get_default_printer_dc@@YAPAUHDC__@@XZ 00405fa2 f   profile.obj
 0001:000050f9       ?get_ft2_help@@YAXXZ       004060f9 f   profile.obj
 0001:0000525f       ?get_printer_dc@@YAPAUHDC__@@XZ 0040625f f   profile.obj
 0001:0000535f       ?gethelp@@YAXIK@Z          0040635f f   profile.obj
 0001:00005375       ?gethelp@@YAXPADIK@Z       00406375 f   profile.obj
 0001:00005583       ?high_index@@YAHMH@Z       00406583 f   profile.obj
 0001:000055dd       ?init@@YAXH@Z              004065dd f   profile.obj
 0001:00005e24       ?is_current_shot@@YAEPAUPROFILE_NAME_ENTRY@@@Z 00406e24 f   profile.obj
 0001:00005e64       ?kill_print_to_clip_fonts@@YAXXZ 00406e64 f   profile.obj
 0001:00006513       ?load_realtime_machine_list@@YAXXZ 00407513 f   profile.obj
 0001:0000671a       ?machine_list_dialog_proc@@YGHPAUHWND__@@IIJ@Z 0040771a f   profile.obj
 0001:000067a4       ?main_plot_proc@@YGJPAUHWND__@@IIJ@Z 004077a4 f   profile.obj
 0001:00006d1c       ?main_proc@@YGJPAUHWND__@@IIJ@Z 00407d1c f   profile.obj
 0001:00007b5a       ?monitor_setup_callback@@YAXPADFPAUHDDEDATA__@@@Z 00408b5a f   profile.obj
 0001:00007bff       ?my_desktop_client_rect@@YAAAUtagRECT@@XZ 00408bff f   profile.obj
 0001:00007c58       ?my_enum_windows_proc@@YGHPAUHWND__@@J@Z 00408c58 f   profile.obj
 0001:00007cb8       ?new_machine_setup_callback@@YAXPADFPAUHDDEDATA__@@@Z 00408cb8 f   profile.obj
 0001:00007d26       ?new_machine_state_callback@@YAXPADFPAUHDDEDATA__@@@Z 00408d26 f   profile.obj
 0001:00007d9d       ?new_part_setup_callback@@YAXPADFPAUHDDEDATA__@@@Z 00408d9d f   profile.obj
 0001:00007e93       ?new_shot_callback@@YAXPADFPAUHDDEDATA__@@@Z 00408e93 f   profile.obj
 0001:0000820c       ?operator_signon_proc@@YGHPAUHWND__@@IIJ@Z 0040920c f   profile.obj
 0001:00008301       ?overlaying@@YA_NXZ        00409301 f   profile.obj
 0001:000087b7       ?paint_plot_background@@YAXPAUHWND__@@PAUHDC__@@@Z 004097b7 f   profile.obj
 0001:000089aa       ?password_level_callback@@YAXPADFPAUHDDEDATA__@@@Z 004099aa f   profile.obj
 0001:00008c3c       ?position_downtime_entry_dialog@@YAXXZ 00409c3c f   profile.obj
 0001:00008da5       ?position_main_plot_window@@YAXXZ 00409da5 f   profile.obj
 0001:00008e47       ?position_xdcr_window@@YAXXZ 00409e47 f   profile.obj
 0001:00008f58       ?pressure_display_check@@YAXXZ 00409f58 f   profile.obj
 0001:000096ac       ?print_me@@YAXXZ           0040a6ac f   profile.obj
 0001:000099c9       ?print_to_clipboard@@YAXXZ 0040a9c9 f   profile.obj
 0001:00009ebc       ?redisplay_last_shot@@YAEXZ 0040aebc f   profile.obj
 0001:0000a116       ?resource_string@@YAPADI@Z 0040b116 f   profile.obj
 0001:0000ae9a       ?restore_focus_to_hmi@@YAXXZ 0040be9a f   profile.obj
 0001:0000b3e5       ?save_class_name@@YAXPAUHWND__@@@Z 0040c3e5 f   profile.obj
 0001:0000b44b       ?save_last_shot_name@@YAXXZ 0040c44b f   profile.obj
 0001:0000ba4a       ?set_cat_and_subcat_tabs@@YAXXZ 0040ca4a f   profile.obj
 0001:0000bbfd       ?set_current_directory@@YAXXZ 0040cbfd f   profile.obj
 0001:0000c037       ?set_full_screen@@YAXXZ    0040d037 f   profile.obj
 0001:0000c0c0       ?set_info_box_type@@YAXH@Z 0040d0c0 f   profile.obj
 0001:0000c29a       ?set_plot_curves@@YAXXZ    0040d29a f   profile.obj
 0001:0000c4b1       ?set_realtime_menu_string@@YAXXZ 0040d4b1 f   profile.obj
 0001:0000c6ac       ?set_tsl_dialog_proc@@YGHPAUHWND__@@IIJ@Z 0040d6ac f   profile.obj
 0001:0000c913       ?set_zoom_box_labels@@YAXPAUHWND__@@@Z 0040d913 f   profile.obj
 0001:0000cb66       ?show_all_windows@@YAXXZ   0040db66 f   profile.obj
 0001:0000cce1       ?show_curve@@YAXFFFFFK@Z   0040dce1 f   profile.obj
 0001:0000cf93       ?show_downtime_entry_time@@YAXXZ 0040df93 f   profile.obj
 0001:0000d0d5       ?show_fixed_axis_message@@YAXXZ 0040e0d5 f   profile.obj
 0001:0000d1f0       ?show_ft2_in_lower_left_corner@@YAXXZ 0040e1f0 f   profile.obj
 0001:0000d34c       ?show_left_axes@@YAXXZ     0040e34c f   profile.obj
 0001:0000d6f5       ?show_menu_help_text@@YAXI@Z 0040e6f5 f   profile.obj
 0001:0000d74a       ?show_offline_info@@YAXXZ  0040e74a f   profile.obj
 0001:0000de45       ?show_right_axes@@YAXXZ    0040ee45 f   profile.obj
 0001:0000e0d3       ?show_shot_info@@YAXXZ     0040f0d3 f   profile.obj
 0001:0000e42d       ?show_x_axes@@YAXXZ        0040f42d f   profile.obj
 0001:0000e6f5       ?show_zoom_info@@YAXXZ     0040f6f5 f   profile.obj
 0001:0000e827       ?show_zoom_value@@YAXHGHHF@Z 0040f827 f   profile.obj
 0001:0000ee75       ?start_alarm_summary_dialog@@YAXXZ 0040fe75 f   profile.obj
 0001:0000ef96       ?stop_printing_to_clipboard@@YAXXZ 0040ff96 f   profile.obj
 0001:0000efb1       ?text_out@@YAXJJI@Z        0040ffb1 f   profile.obj
 0001:0000efe1       ?text_out@@YAXJJPAD@Z      0040ffe1 f   profile.obj
 0001:0000f0bc       ?toggle_big_param_display_type@@YAXXZ 004100bc f   profile.obj
 0001:0000f16e       ?toggle_menu_view_state@@YAXAAEI@Z 0041016e f   profile.obj
 0001:0000f18d       ?toggle_pos_time_display_type@@YAXXZ 0041018d f   profile.obj
 0001:0000f1d6       ?toggle_realtime@@YAXXZ    004101d6 f   profile.obj
 0001:0000f626       ?update_screen_type@@YAXF@Z 00410626 f   profile.obj
 0001:0000f800       ?viewing_reference@@YA_NXZ 00410800 f   profile.obj
 0001:0000f825       ?write_std_units_csv_file@@YAEAAVSTRING_CLASS@@0@Z 00410825 f   profile.obj
 0001:0000fc1a       ?x_value@@YAEAAMAAHH@Z     00410c1a f   profile.obj
 0001:0000ff56       _WinMain@16                00410f56 f   profile.obj
 0001:000100a6       ?copy_int32_w_char@@YAPADPADAAVDB_TABLE@@G@Z 004110a6 f   alarmexp.obj
 0001:000102dd       ?export_alarms_dialog_proc@@YGHPAUHWND__@@IIJ@Z 004112dd f   alarmexp.obj
 0001:000107b1       ??0BITMAP_CLASS@@QAE@XZ    004117b1 f   bitmapcl.obj
 0001:000107c4       ??1BITMAP_CLASS@@QAE@XZ    004117c4 f   bitmapcl.obj
 0001:000107c9       ?cleanup@BITMAP_CLASS@@QAEXXZ 004117c9 f   bitmapcl.obj
 0001:000107de       ?get@BITMAP_CLASS@@QAEEPAUHDC__@@JJ@Z 004117de f   bitmapcl.obj
 0001:00010844       ?init@BITMAP_CLASS@@QAEEPAUHDC__@@JJ@Z 00411844 f   bitmapcl.obj
 0001:0001087e       ?restore@BITMAP_CLASS@@QAEEPAUHDC__@@@Z 0041187e f   bitmapcl.obj
 0001:000108d6       ??0STATUSBOX_ENTRY@@QAE@XZ 004118d6 f   box.obj
 0001:00010907       ??_ESTATUSBOX_ENTRY@@QAEPAXI@Z 00411907 f i box.obj
 0001:00010960       ?alarm_rect@STATUSBOX_ENTRY@@QAEPAUtagRECT@@XZ 00411960 f   box.obj
 0001:000109a6       ?begin_box_display@@YAEXZ  004119a6 f   box.obj
 0001:00010ce1       ?bounds@STATUSBOX_ENTRY@@QAEPAUtagRECT@@XZ 00411ce1 f   box.obj
 0001:00010ec6       ?box_display_shutdown@@YAXXZ 00411ec6 f   box.obj
 0001:00010ee3       ?box_display_startup@@YAEXZ 00411ee3 f   box.obj
 0001:00010ef2       ?box_screen_down_data_change@@YAXAAVSTRING_CLASS@@PAD1@Z 00411ef2 f   box.obj
 0001:00010fea       ?box_screen_left_button_up@@YAXAAUtagPOINT@@@Z 00411fea f   box.obj
 0001:000110ff       ?box_screen_new_machine_status@@YAXAAVSTRING_CLASS@@G@Z 004120ff f   box.obj
 0001:0001113e       ?box_screen_new_monitor_setup@@YAXAAVSTRING_CLASS@@@Z 0041213e f   box.obj
 0001:00011183       ?box_screen_new_shot@@YAXAAVSTRING_CLASS@@@Z 00412183 f   box.obj
 0001:00011260       ?choose_box_font@@YAEXZ    00412260 f   box.obj
 0001:0001133e       ?date_rect@STATUSBOX_ENTRY@@QAEPAUtagRECT@@XZ 0041233e f   box.obj
 0001:00011382       ?delete_tooltips@@YAXXZ    00412382 f   box.obj
 0001:00011432       ?down_rect@STATUSBOX_ENTRY@@QAEPAUtagRECT@@XZ 00412432 f   box.obj
 0001:00011477       ?empty_status_boxes@@YAXXZ 00412477 f   box.obj
 0001:0001149c       ?end_box_display@@YAXXZ    0041249c f   box.obj
 0001:000114b6       ?find_status_box@@YAPAVSTATUSBOX_ENTRY@@AAVSTRING_CLASS@@@Z 004124b6 f   box.obj
 0001:000114d2       ?get@BOXSET_CLASS@@QAEHXZ  004124d2 f   box.obj
 0001:0001150b       ?get_alarm_info@STATUSBOX_ENTRY@@QAEXXZ 0041250b f   box.obj
 0001:00011580       ?get_downtime_status@STATUSBOX_ENTRY@@QAEXXZ 00412580 f   box.obj
 0001:00011618       ?get_part_info@STATUSBOX_ENTRY@@QAEEXZ 00412618 f   box.obj
 0001:0001173d       ?get_shot_info@STATUSBOX_ENTRY@@QAEXXZ 0041273d f   box.obj
 0001:00011843       ?machine_rect@STATUSBOX_ENTRY@@QAEPAUtagRECT@@XZ 00412843 f   box.obj
 0001:00011887       ?make_status_boxes@@YAEXZ  00412887 f   box.obj
 0001:0001190a       ?paint_box_display@@YAXAAUtagPAINTSTRUCT@@@Z 0041290a f   box.obj
 0001:000119d2       ?part_rect@STATUSBOX_ENTRY@@QAEPAUtagRECT@@XZ 004129d2 f   box.obj
 0001:00011a16       ?put@BOXSET_CLASS@@QAEEXZ  00412a16 f   box.obj
 0001:00011aaf       ?read_alarm_info@STATUSBOX_ENTRY@@QAEXXZ 00412aaf f   box.obj
 0001:00011cec       ?refresh@STATUSBOX_ENTRY@@QAEXXZ 00412cec f   box.obj
 0001:00011fce       ?shot_rect@STATUSBOX_ENTRY@@QAEPAUtagRECT@@XZ 00412fce f   box.obj
 0001:00012012       ?show_border@STATUSBOX_ENTRY@@QAEXPAUHDC__@@@Z 00413012 f   box.obj
 0001:000120c2       ?show_text@STATUSBOX_ENTRY@@QAEXPAUHDC__@@@Z 004130c2 f   box.obj
 0001:00012368       ?status_box_index@@YAJAAVSTRING_CLASS@@@Z 00413368 f   box.obj
 0001:000123af       ?tiptext@@YAPADJPAD0@Z     004133af f   box.obj
 0001:00012431       ?chospart_proc@@YGHPAUHWND__@@IIJ@Z 00413431 f   chospart.obj
 0001:0001295c       ?chosshot_proc@@YGHPAUHWND__@@IIJ@Z 0041395c f   chosshot.obj
 0001:00012b56       ?copy_selections_to_extern@@YAXXZ 00413b56 f   chosshot.obj
 0001:00013504       ?set_listbox_style@@YAXXZ  00414504 f   chosshot.obj
 0001:00013544       ?choose_one_color@@YAKI@Z  00414544 f   colordef.obj
 0001:000135e0       ?color_definition_dialog_proc@@YGHPAUHWND__@@IIJ@Z 004145e0 f   colordef.obj
 0001:00013763       ?get_color@@YAKI@Z         00414763 f   colordef.obj
 0001:000138ce       ?restore_original_colors@@YAXXZ 004148ce f   colordef.obj
 0001:00013936       ?save_original_colors@@YAXXZ 00414936 f   colordef.obj
 0001:0001399e       ?set_one_color@@YAXIK@Z    0041499e f   colordef.obj
 0001:00013b22       ?restore_colors@@YAXXZ     00414b22 f   colors.obj
 0001:00013c20       ?save_colors@@YAXXZ        00414c20 f   colors.obj
 0001:00013cd1       ?read_corner_parameters@@YAXPAHAAH@Z 00414cd1 f   corner.obj
 0001:00013dd3       ?save_corner_parameters@@YAXPAHH@Z 00414dd3 f   corner.obj
 0001:00013ed4       ??1CONTROL_LIMIT_CLASS@@QAE@XZ 00414ed4 f   ctrlimit.obj
 0001:00013ee5       ?add@CONTROL_LIMIT_CLASS@@QAEEJMM@Z 00414ee5 f   ctrlimit.obj
 0001:00013f87       ?empty@CONTROL_LIMIT_CLASS@@QAEXXZ 00414f87 f   ctrlimit.obj
 0001:00013fba       ?find@CONTROL_LIMIT_CLASS@@QAEEJ@Z 00414fba f   ctrlimit.obj
 0001:00013ff1       ?read@CONTROL_LIMIT_CLASS@@QAEEAAVSTRING_CLASS@@00@Z 00414ff1 f   ctrlimit.obj
 0001:00014041       ?read@CONTROL_LIMIT_CLASS@@QAEEPAD@Z 00415041 f   ctrlimit.obj
 0001:000140ed       ?read@CONTROL_LIMIT_ENTRY@@QAEEAAVDB_TABLE@@@Z 004150ed f   ctrlimit.obj
 0001:0001411f       ?write@CONTROL_LIMIT_CLASS@@QAEEAAVSTRING_CLASS@@00@Z 0041511f f   ctrlimit.obj
 0001:0001416f       ?write@CONTROL_LIMIT_CLASS@@QAEEPAD@Z 0041516f f   ctrlimit.obj
 0001:000141fb       ?write@CONTROL_LIMIT_ENTRY@@QAEEAAVDB_TABLE@@@Z 004151fb f   ctrlimit.obj
 0001:00014243       ??0DOWNBAR_CONFIG_CLASS@@QAE@XZ 00415243 f   dbarcfg.obj
 0001:0001428a       ?downtime_report_setup_proc@@YGHPAUHWND__@@IIJ@Z 0041528a f   dbarcfg.obj
 0001:000148f3       ?get_from_screen@DOWNBAR_SCREEN_CONFIG_CLASS@@QAEXPAUHWND__@@@Z 004158f3 f   dbarcfg.obj
 0001:000149c1       ?get_new_start_time@@YAXPAUHWND__@@H@Z 004159c1 f   dbarcfg.obj
 0001:00014d4d       ?listbox_line@@YAPADAAVDB_TABLE@@@Z 00415d4d f   dbarcfg.obj
 0001:00014fac       ?put_to_screen@DOWNBAR_SCREEN_CONFIG_CLASS@@QAEXPAUHWND__@@@Z 00415fac f   dbarcfg.obj
 0001:0001508a       ?read@DOWNBAR_CONFIG_CLASS@@QAEXXZ 0041608a f   dbarcfg.obj
 0001:0001510c       ?resource_message_box@@YAXII@Z 0041610c f   dbarcfg.obj
 0001:000151f4       ?write@DOWNBAR_CONFIG_CLASS@@QAEXXZ 004161f4 f   dbarcfg.obj
 0001:000153c0       ?directory_exists@NAME_CLASS@@QAEEXZ 004163c0 f i dconfig.obj
 0001:000153d5       ?display_configuration_dialog_proc@@YGHPAUHWND__@@IIJ@Z 004163d5 f   dconfig.obj
 0001:00015508       ?get_curve_types_from_screen@@YAXAAGH@Z 00416508 f   dconfig.obj
 0001:00015571       ?get_from_screen@FIXED_SCREEN_CLASS@@QAEXXZ 00416571 f   dconfig.obj
 0001:00015774       ?init_global_curve_types@@YAXXZ 00416774 f   dconfig.obj
 0001:00015ba3       ?load_the_other_config@@YAXXZ 00416ba3 f   dconfig.obj
 0001:00015bf3       ?put_to_screen@FIXED_SCREEN_CLASS@@QAEXXZ 00416bf3 f   dconfig.obj
 0001:0001639e       ?set_fixed_axes@FIXED_SCREEN_CLASS@@QAEXXZ 0041739e f   dconfig.obj
 0001:00016416       ?set_one_fixed_axis@FIXED_SCREEN_CLASS@@QAEXJJ@Z 00417416 f   dconfig.obj
 0001:00016475       ?toggle_pressure_display_type@@YAXXZ 00417475 f   dconfig.obj
 0001:0001652e       ??0CAT_BASE_CLASS@@QAE@XZ  0041752e f   downbar.obj
 0001:00016541       ??0DOWNTIME_BASE_CLASS@@QAE@PAD0@Z 00417541 f   downbar.obj
 0001:00016567       ??0DOWNTIME_BASE_CLASS@@QAE@XZ 00417567 f   downbar.obj
 0001:00016567       ??0DSTAT_CLASS@@QAE@XZ     00417567 f   profile.obj
 0001:00016588       ??0DOWNTIME_SUM_ENTRY@@QAE@XZ 00417588 f   downbar.obj
 0001:00016598       ??4DOWNTIME_BASE_CLASS@@QAEXABV0@@Z 00417598 f   downbar.obj
 0001:000165c1       ??4DOWNTIME_RECORD_CLASS@@QAEXABV0@@Z 004175c1 f   downbar.obj
 0001:000165da       ??8CAT_BASE_CLASS@@QAEEPBD@Z 004175da f   downbar.obj
 0001:000165ee       ??8DOWNTIME_BASE_CLASS@@QAEEABV0@@Z 004175ee f   downbar.obj
 0001:0001661f       ??8DOWNTIME_SUM_CLASS@@QAEEABVDOWNTIME_BASE_CLASS@@@Z 0041761f f   downbar.obj
 0001:0001664c       ??9DOWNTIME_BASE_CLASS@@QAEEABV0@@Z 0041764c f   downbar.obj
 0001:0001667d       ??9DOWNTIME_SUM_CLASS@@QAEEABVDOWNTIME_BASE_CLASS@@@Z 0041767d f   downbar.obj
 0001:000166aa       ?add@CAT_SUM_CLASS@@QAEPAVCAT_SUM_ENTRY@@PAD@Z 004176aa f   downbar.obj
 0001:00016706       ?begin_downbar_display@@YAEXZ 00417706 f   downbar.obj
 0001:0001677e       ?category@DOWNTIME_SUM_CLASS@@QAEPADXZ 0041777e f   downbar.obj
 0001:00016791       ?cleanup@CAT_SUM_CLASS@@QAEXXZ 00417791 f   downbar.obj
 0001:000167b9       ?cleanup@DOWNTIME_SUM_CLASS@@QAEXXZ 004177b9 f   downbar.obj
 0001:000167d5       ?do_downbar_button@@YAXH@Z 004177d5 f   downbar.obj
 0001:00016805       ?do_new_dtr_config@@YAXXZ  00417805 f   downbar.obj
 0001:00016820       ?down_seconds@DOWNTIME_SUM_CLASS@@QAEJXZ 00417820 f   downbar.obj
 0001:0001687a       ?downbar_left_button_up@@YAXAAUtagPOINT@@@Z 0041787a f   downbar.obj
 0001:00016918       ?empty@DOWNTIME_SUM_CLASS@@QAEEXZ 00417918 f   downbar.obj
 0001:00016940       ?end_downbar_display@@YAXXZ 00417940 f   downbar.obj
 0001:0001696f       ?fill_times@@YAEXZ         0041796f f   downbar.obj
 0001:00016cc8       ?find@CAT_SUM_CLASS@@QAEPAVCAT_SUM_ENTRY@@PAD@Z 00417cc8 f   downbar.obj
 0001:00016cee       ?get@DOWNTIME_RECORD_CLASS@@QAEEAAVDB_TABLE@@@Z 00417cee f   downbar.obj
 0001:00016d64       ?max_title_pixels@@YAHH@Z  00417d64 f   downbar.obj
 0001:00016e06       ?next@CAT_SUM_CLASS@@QAEEXZ 00417e06 f   downbar.obj
 0001:00016e1c       ?next@DOWNTIME_SUM_CLASS@@QAEEPAD@Z 00417e1c f   downbar.obj
 0001:00016eb3       ?paint_downbar_display@@YAXXZ 00417eb3 f   downbar.obj
 0001:000175de       ?read@DOWNTIME_SUM_CLASS@@QAEEXZ 004185de f   downbar.obj
 0001:000177a4       ?seconds@CAT_SUM_CLASS@@QAEAAJPAD@Z 004187a4 f   downbar.obj
 0001:000177d1       ?seconds@DOWNTIME_SUM_CLASS@@QAEAAJPAD0@Z 004187d1 f   downbar.obj
 0001:00017830       ?seconds@DOWNTIME_SUM_CLASS@@QAEJXZ 00418830 f   downbar.obj
 0001:00017842       ?set_category_titles@@YAXXZ 00418842 f   downbar.obj
 0001:00017899       ?set_subcategory_titles@@YAXXZ 00418899 f   downbar.obj
 0001:00017900       ?show_title_and_hours@@YAXHPAD0HE@Z 00418900 f   downbar.obj
 0001:00017a09       ?show_title_and_hours@@YAXHPADHE@Z 00418a09 f   downbar.obj
 0001:00017aed       ?sort@CAT_SUM_CLASS@@QAEXXZ 00418aed f   downbar.obj
 0001:00017b48       ?title@CAT_SUM_CLASS@@QAEPADXZ 00418b48 f   downbar.obj
 0001:00017b5c       ?title@DOWNTIME_SUM_CLASS@@QAEPADXZ 00418b5c f   downbar.obj
 0001:00017b90       ?total_seconds@DOWNTIME_SUM_CLASS@@QAEJXZ 00418b90 f   downbar.obj
 0001:00017bc7       ??0EDITOP_GRID_CLASS@@QAE@XZ 00418bc7 f   editop.obj
 0001:00017be9       ??1EDITOP_GRID_CLASS@@UAE@XZ 00418be9 f   editop.obj
 0001:00017c11       ??_EOP_NUMBER_INDEX@?1??save_changes@@YAEXZ@QAEPAXI@Z 00418c11 f i editop.obj
 0001:00017c6a       ??_GEDITOP_GRID_CLASS@@UAEPAXI@Z 00418c6a f i editop.obj
 0001:00017c6a       ??_EEDITOP_GRID_CLASS@@UAEPAXI@Z 00418c6a f i editop.obj
 0001:00017c86       ?OnCharDown@GRID_CLASS@@UAEXPAIH@Z 00418c86 f   gridclas.obj
 0001:00017c86       ?OnCharDown@EDITOP_GRID_CLASS@@UAEXPAIH@Z 00418c86 f   editop.obj
 0001:00017c9b       ?OnEditFinish@EDITOP_GRID_CLASS@@UAEHHJPAUHWND__@@PBDH@Z 00418c9b f   editop.obj
 0001:00017d39       ?OnKeyDown@EDITOP_GRID_CLASS@@UAEXPAIH@Z 00418d39 f   editop.obj
 0001:00017d55       ?OnLClicked@GRID_CLASS@@UAEXHJHPAUtagRECT@@PAUtagPOINT@@H@Z 00418d55 f   gridclas.obj
 0001:00017d55       ?OnLClicked@PW_GRID_CLASS@@UAEXHJHPAUtagRECT@@PAUtagPOINT@@H@Z 00418d55 f   password.obj
 0001:00017d55       ?OnLClicked@EDITOP_GRID_CLASS@@UAEXHJHPAUtagRECT@@PAUtagPOINT@@H@Z 00418d55 f   editop.obj
 0001:00017d64       ?OnSH_LClicked@EDITOP_GRID_CLASS@@UAEXHJHPAUtagRECT@@PAUtagPOINT@@H@Z 00418d64 f   editop.obj
 0001:00017dda       ?OnSetup@EDITOP_GRID_CLASS@@UAEXXZ 00418dda f   editop.obj
 0001:00017e52       ?createfont@EDITOP_GRID_CLASS@@QAEXXZ 00418e52 f   editop.obj
 0001:00017ecd       ?delete_highlighted_rows@EDITOP_GRID_CLASS@@QAEXXZ 00418ecd f   editop.obj
 0001:00017f72       ?edit_operators_dialog_proc@@YGHPAUHWND__@@IIJ@Z 00418f72 f   editop.obj
 0001:00018013       ?input_error_dialog_proc@@YGHPAUHWND__@@IIJ@Z 00419013 f   editop.obj
 0001:0001805e       ?insert_row@EDITOP_GRID_CLASS@@QAEXXZ 0041905e f   editop.obj
 0001:000180c9       ?is_row_selected@EDITOP_GRID_CLASS@@QAEEH@Z 004190c9 f   editop.obj
 0001:00018385       ?refresh_row_labels@EDITOP_GRID_CLASS@@QAEXXZ 00419385 f   editop.obj
 0001:000183ef       ?save_changes@@YAEXZ       004193ef f   editop.obj
 0001:00018711       ?select_row@EDITOP_GRID_CLASS@@QAEXJ@Z 00419711 f   editop.obj
 0001:0001874f       ??4EDIT_SHIFT_CLASS@@QAEXAAV0@@Z 0041974f f   editshif.obj
 0001:0001890d       ?day_name_from_index@@YAPADJ@Z 0041990d f   editshif.obj
 0001:00018b5a       ?edit_shifts_dialog_proc@@YGHPAUHWND__@@IIJ@Z 00419b5a f   editshif.obj
 0001:00018c96       ?fill_editboxes@EDIT_SHIFT_CLASS@@QAEXXZ 00419c96 f   editshif.obj
 0001:00018ddd       ?index_from_day_name@@YAJPAD@Z 00419ddd f   editshif.obj
 0001:00018e04       ?lbline@EDIT_SHIFT_CLASS@@QAEPADXZ 00419e04 f   editshif.obj
 0001:00018e7c       ?read@EDIT_SHIFT_CLASS@@QAEEAAVDB_TABLE@@@Z 00419e7c f   editshif.obj
 0001:00018f05       ?read@EDIT_SHIFT_CLASS@@QAEEPAD@Z 00419f05 f   editshif.obj
 0001:00018fbe       ?read_editboxes@EDIT_SHIFT_CLASS@@QAEEXZ 00419fbe f   editshif.obj
 0001:000190e5       ?saveall@EDIT_SHIFT_CLASS@@QAEEXZ 0041a0e5 f   editshif.obj
 0001:00019b11       ?export_shots_proc@@YGHPAUHWND__@@IIJ@Z 0041ab11 f   export.obj
 0001:0001a103       ?empty@FIXED_AXIS_CLASS@@QAEXXZ 0041b103 f   fixaxis.obj
 0001:0001a120       ?init@FIXED_AXIS_CLASS@@QAEEJ@Z 0041b120 f   fixaxis.obj
 0001:0001a137       ?read@FIXED_AXIS_CLASS@@QAEEPAD@Z 0041b137 f   fixaxis.obj
 0001:0001a1f5       ?read@FIXED_AXIS_ENTRY@@QAEEAAVDB_TABLE@@@Z 0041b1f5 f   fixaxis.obj
 0001:0001a227       ?setsize@FIXED_AXIS_CLASS@@QAEEJ@Z 0041b227 f   fixaxis.obj
 0001:0001a2df       ?write@FIXED_AXIS_CLASS@@QAEEPAD@Z 0041b2df f   fixaxis.obj
 0001:0001a36c       ?write@FIXED_AXIS_ENTRY@@QAEEAAVDB_TABLE@@@Z 0041b36c f   fixaxis.obj
 0001:0001a3b4       ??0GRID_CLASS@@QAE@XZ      0041b3b4 f   gridclas.obj
 0001:0001a3d6       ??1GRID_CLASS@@UAE@XZ      0041b3d6 f   gridclas.obj
 0001:0001a3fe       ??_GGRID_CLASS@@UAEPAXI@Z  0041b3fe f i gridclas.obj
 0001:0001a3fe       ??_EGRID_CLASS@@UAEPAXI@Z  0041b3fe f i gridclas.obj
 0001:0001a41a       ?OnEditFinish@GRID_CLASS@@UAEHHJPAUHWND__@@PBDH@Z 0041b41a f   gridclas.obj
 0001:0001a450       ?OnEditStart@GRID_CLASS@@UAEHHJPAPAUHWND__@@@Z 0041b450 f   gridclas.obj
 0001:0001a468       ?OnSH_LClicked@GRID_CLASS@@UAEXHJHPAUtagRECT@@PAUtagPOINT@@H@Z 0041b468 f   gridclas.obj
 0001:0001a48a       ?OnSetup@GRID_CLASS@@UAEXXZ 0041b48a f   gridclas.obj
 0001:0001a4f9       ?createfont@GRID_CLASS@@QAEXXZ 0041b4f9 f   gridclas.obj
 0001:0001a574       ?get_alarm_state@@YAHXZ    0041b574 f   isalarm.obj
 0001:0001a67f       ?is_alarm@@YAEFM@Z         0041b67f f   isalarm.obj
 0001:0001a743       ?is_warning@@YAEFM@Z       0041b743 f   isalarm.obj
 0001:0001a760       ?save_as_master_trace@@YAXXZ 0041b760 f   master.obj
 0001:0001a8d1       ??0SINGLE_PLOT_CLASS@@QAE@XZ 0041b8d1 f   mplot.obj
 0001:0001a915       ??1SINGLE_PLOT_CLASS@@QAE@XZ 0041b915 f   mplot.obj
 0001:0001a944       ??AMULTI_PLOT_CLASS@@QAEAAVSINGLE_PLOT_CLASS@@J@Z 0041b944 f   mplot.obj
 0001:0001a960       ??_ESINGLE_PLOT_CLASS@@QAEPAXI@Z 0041b960 f i mplot.obj
 0001:0001a9b5       ?add@DATA_ARRAY_CLASS@@QAEEM@Z 0041b9b5 f   mplot.obj
 0001:0001a9ec       ?add@DATA_POINT_ENTRY@@QAEXM@Z 0041b9ec f   mplot.obj
 0001:0001aa3f       ?average@DATA_ARRAY_CLASS@@QAEMXZ 0041ba3f f i mplot.obj
 0001:0001aa54       ?avg@DATA_POINT_ENTRY@@QAEMXZ 0041ba54 f   mplot.obj
 0001:0001aa7d       ?cleanup@MULTI_PLOT_CLASS@@QAEXXZ 0041ba7d f   mplot.obj
 0001:0001aabc       ?get_text_size@@YAXAAJ0PAUHDC__@@PBD@Z 0041babc f   mplot.obj
 0001:0001aaef       ?info_box_x_position@SINGLE_PLOT_CLASS@@AAEJJ@Z 0041baef f   mplot.obj
 0001:0001ab15       ?init@DATA_ARRAY_CLASS@@UAEEJ@Z 0041bb15 f   mplot.obj
 0001:0001ab8b       ?init@MULTI_PLOT_CLASS@@QAEEJ@Z 0041bb8b f   mplot.obj
 0001:0001abff       ?init@SINGLE_PLOT_CLASS@@UAEEJ@Z 0041bbff f   mplot.obj
 0001:0001acc1       ?left_shift@DATA_ARRAY_CLASS@@QAEJAAVDATA_POINT_ENTRY@@@Z 0041bcc1 f   mplot.obj
 0001:0001ad37       ?left_shift@DATA_ARRAY_CLASS@@QAEJM@Z 0041bd37 f   mplot.obj
 0001:0001aeb1       ?next@SHOT_ARRAY_CLASS@@QAEEXZ 0041beb1 f   xaxis.obj
 0001:0001aeb1       ?next@DATA_ARRAY_CLASS@@QAEEXZ 0041beb1 f   mplot.obj
 0001:0001aed0       ?paint@SINGLE_PLOT_CLASS@@QAEXPAUHDC__@@@Z 0041bed0 f   mplot.obj
 0001:0001b62a       ?restore_info_box@SINGLE_PLOT_CLASS@@QAEEPAUHDC__@@@Z 0041c62a f   mplot.obj
 0001:0001b73d       ?show_info_box@SINGLE_PLOT_CLASS@@QAEEPAUHDC__@@JJE@Z 0041c73d f   mplot.obj
 0001:0001b890       ?show_units@SINGLE_PLOT_CLASS@@AAEXPAUHDC__@@@Z 0041c890 f   mplot.obj
 0001:0001ba20       ?begin_printing@@YAXXZ     0041ca20 f   mulprint.obj
 0001:0001bc81       ?fill_machines@@YAXPAUHWND__@@I@Z 0041cc81 f   mulprint.obj
 0001:0001bfc5       ?get_current_part@@YAEAAUPART_NAME_ENTRY@@@Z 0041cfc5 f   mulprint.obj
 0001:0001c079       ?print_multiple_shots_proc@@YGHPAUHWND__@@IIJ@Z 0041d079 f   mulprint.obj
 0001:0001c198       ?print_next_shot@@YAXXZ    0041d198 f   mulprint.obj
 0001:0001c321       ?write_counts_file@@YAEAAVSTRING_CLASS@@0@Z 0041d321 f   olmsted.obj
 0001:0001c37f       ?write_olmsted_file@@YAEAAVSTRING_CLASS@@0@Z 0041d37f f   olmsted.obj
 0001:0001c40f       ?ParamHistoryProc@@YGHPAUHWND__@@IIJ@Z 0041d40f f   paramhis.obj
 0001:0001cb05       ?new_history_choice@@YAXXZ 0041db05 f   paramhis.obj
 0001:0001cc3e       ?position_param_history_window@@YAXXZ 0041dc3e f   paramhis.obj
 0001:0001cd91       ?read_parameters_from_parmlist@@YAJJH@Z 0041dd91 f   paramhis.obj
 0001:0001d00c       ?load_parameter_list_titles@@YAXXZ 0041e00c f   paramwin.obj
 0001:0001d66e       ?parameter_window_proc@@YGHPAUHWND__@@IIJ@Z 0041e66e f   paramwin.obj
 0001:0001d726       ?position_parameter_window@@YAXXZ 0041e726 f   paramwin.obj
 0001:0001d853       ??0PW_GRID_CLASS@@QAE@XZ   0041e853 f   password.obj
 0001:0001d86c       ??1PW_GRID_CLASS@@UAE@XZ   0041e86c f   password.obj
 0001:0001d888       ??APASSWORD_CLASS@@QAEAAUPASSWORD_ENTRY@@J@Z 0041e888 f   password.obj
 0001:0001d8db       ??_GPW_GRID_CLASS@@UAEPAXI@Z 0041e8db f i password.obj
 0001:0001d8db       ??_EPW_GRID_CLASS@@UAEPAXI@Z 0041e8db f i password.obj
 0001:0001d8f7       ?OnCharDown@PW_GRID_CLASS@@UAEXPAIH@Z 0041e8f7 f   password.obj
 0001:0001d956       ?OnEditContinue@PW_GRID_CLASS@@UAEHHJPAHPAJ@Z 0041e956 f   password.obj
 0001:0001d96c       ?OnEditFinish@PW_GRID_CLASS@@UAEHHJPAUHWND__@@PBDH@Z 0041e96c f   password.obj
 0001:0001da01       ?OnKeyDown@PW_GRID_CLASS@@UAEXPAIH@Z 0041ea01 f   password.obj
 0001:0001da20       ?OnSetup@PW_GRID_CLASS@@UAEXXZ 0041ea20 f   password.obj
 0001:0001dc87       ?check_for_password_logging@@YA_NXZ 0041ec87 f   password.obj
 0001:0001dd1c       ?cleanup@PASSWORD_CLASS@@QAEXXZ 0041ed1c f   password.obj
 0001:0001dd39       ?co_options_dialog_proc@@YGHPAUHWND__@@IIJ@Z 0041ed39 f   password.obj
 0001:0001e037       ?create@DB_TABLE@@QAEEAAVSTRING_CLASS@@@Z 0041f037 f i password.obj
 0001:0001e051       ?createfont@PW_GRID_CLASS@@AAEXXZ 0041f051 f   password.obj
 0001:0001e120       ?default_level@PASSWORD_CLASS@@QAEJXZ 0041f120 f   password.obj
 0001:0001e143       ?default_password_level@@YAHXZ 0041f143 f   password.obj
 0001:0001e172       ?delete_row@PW_GRID_CLASS@@QAEXXZ 0041f172 f   password.obj
 0001:0001e1ae       ?edit_passwords_proc@@YGHPAUHWND__@@IIJ@Z 0041f1ae f   password.obj
 0001:0001e2f1       ?encrypt_password@@YAXPAD@Z 0041f2f1 f   password.obj
 0001:0001e338       ?enter_password_proc@@YGHPAUHWND__@@IIJ@Z 0041f338 f   password.obj
 0001:0001eca9       ?fill_grid@PW_GRID_CLASS@@QAEXXZ 0041fca9 f   password.obj
 0001:0001ed89       ?find@PASSWORD_CLASS@@QAEJPAD@Z 0041fd89 f   password.obj
 0001:0001ee12       ?highest_level@PASSWORD_CLASS@@QAEJXZ 0041fe12 f   password.obj
 0001:0001ee34       ?ini_name@@YAPADPBD@Z      0041fe34 f   password.obj
 0001:0001ee61       ?insert_row@PW_GRID_CLASS@@QAEXXZ 0041fe61 f   password.obj
 0001:0001eeef       ?load@PASSWORD_CLASS@@QAE_NXZ 0041feef f   password.obj
 0001:0001f26b       ?save@PASSWORD_CLASS@@QAE_NXZ 0042026b f   password.obj
 0001:0001fef2       ?set_default_password_level@@YAX_N@Z 00420ef2 f   password.obj
 0001:000200b0       ?set_row_colors@PW_GRID_CLASS@@QAEXXZ 004210b0 f   password.obj
 0001:000200fe       ?set_row_numbers@PW_GRID_CLASS@@QAEXXZ 004210fe f   password.obj
 0001:00020167       ?setsize@PASSWORD_CLASS@@QAE_NJ@Z 00421167 f   password.obj
 0001:0002029f       ??0MACHINE_CLASS@@QAE@ABV0@@Z 0042129f f i plot.obj
 0001:000204a8       ?fill_differential_curve@@YAEVMACHINE_CLASS@@AAVPART_CLASS@@AAUPROFILE_HEADER@@QAY0DGLA@M@Z 004214a8 f   plot.obj
 0001:000206ee       ?load_profile@@YAXPAD@Z    004216ee f   plot.obj
 0001:000209b5       ?load_profile@@YAXPAUPROFILE_NAME_ENTRY@@@Z 004219b5 f   plot.obj
 0001:00020a08       ?load_profile@@YAXXZ       00421a08 f   plot.obj
 0001:00020a56       ?load_reference_trace@@YAEXZ 00421a56 f   plot.obj
 0001:000213f8       ?load@REALTIME_MACHINE_LIST_CLASS@@QAEEXZ 004223f8 f   rtmlist.obj
 0001:00021528       ?realtime_machine_list_proc@@YGHPAUHWND__@@IIJ@Z 00422528 f   rtmlist.obj
 0001:0002167c       ?save@REALTIME_MACHINE_LIST_CLASS@@QAEEXZ 0042267c f   rtmlist.obj
 0001:000217e8       ?sub_proc@@YGJPAUHWND__@@IIJ@Z 004227e8 f   rtmlist.obj
 0001:00021940       ?toggle_profile_save_flags@@YAXXZ 00422940 f   savepro.obj
 0001:00021a05       ??0STATUS_SCREEN_ROW_ENTRY@@QAE@XZ 00422a05 f   status.obj
 0001:00021a78       ??1STATUS_SCREEN_ROW_ENTRY@@QAE@XZ 00422a78 f i status.obj
 0001:00021aae       ??_ESTATUS_SCREEN_COLUMN_ENTRY@@QAEPAXI@Z 00422aae f i status.obj
 0001:00021b05       ??_ESTATUS_SCREEN_ROW_ENTRY@@QAEPAXI@Z 00422b05 f i status.obj
 0001:00021b60       ?add_down_seconds@STATUS_SCREEN_ROW_ENTRY@@QAEXAAVDOWNTIME_RECORD_CLASS@@0@Z 00422b60 f   status.obj
 0001:00021be4       ?begin_status_display@@YAEXZ 00422be4 f   status.obj
 0001:00021bff       ?choose_status_screen_font@@YAXXZ 00422bff f   status.obj
 0001:000222c3       ?end_status_display@@YAXXZ 004232c3 f   status.obj
 0001:00022395       ?get@STATUS_SCREEN_COLUMN_ENTRY@@QAEEPBD@Z 00423395 f   status.obj
 0001:00022432       ?get_alarm_summary_info@STATUS_SCREEN_ROW_ENTRY@@QAEXXZ 00423432 f   status.obj
 0001:000224a3       ?get_downtime_status@STATUS_SCREEN_ROW_ENTRY@@QAEXXZ 004234a3 f   status.obj
 0001:00022554       ?get_shot_info@STATUS_SCREEN_ROW_ENTRY@@QAEXXZ 00423554 f   status.obj
 0001:0002263f       ?paint_status_display@@YAXAAUtagPAINTSTRUCT@@@Z 0042363f f   status.obj
 0001:000226d4       ?put@STATUS_SCREEN_COLUMN_ENTRY@@QAEPADXZ 004236d4 f   status.obj
 0001:0002274f       ?read_alarm_info@STATUS_SCREEN_ROW_ENTRY@@QAEXXZ 0042374f f   status.obj
 0001:000228d8       ?read_downtimes@STATUS_SCREEN_ROW_ENTRY@@QAEXXZ 004238d8 f   status.obj
 0001:00022b8f       ?read_parameters@STATUS_SCREEN_ROW_ENTRY@@QAEXXZ 00423b8f f   status.obj
 0001:00022c16       ?save_status_config@@YAXXZ 00423c16 f   status.obj
 0001:00022ea2       ?show_one_row@@YAXPAUHDC__@@H@Z 00423ea2 f   status.obj
 0001:000235d1       ?status_screen_down_data_change@@YAXAAVSTRING_CLASS@@PAD1@Z 004245d1 f   status.obj
 0001:000236b0       ?status_screen_left_button_up@@YAXAAUtagPOINT@@@Z 004246b0 f   status.obj
 0001:00023956       ?status_screen_new_machine_status@@YAXAAVSTRING_CLASS@@G@Z 00424956 f   status.obj
 0001:000239fe       ?status_screen_new_shot@@YAXAAVSTRING_CLASS@@@Z 004249fe f   status.obj
 0001:00023a9a       ?status_screen_timer_update@@YAXXZ 00424a9a f   status.obj
 0001:00023c39       ??0FIXED_PARAM_CLASS@@QAE@XZ 00424c39 f   tcconfig.obj
 0001:00023c46       ??0TREND_CONFIG_CLASS@@QAE@XZ 00424c46 f   tcconfig.obj
 0001:00023c91       ?Moved@CUGCnrBtn@@QAEXXZ   00424c91 f   dundas:ugcnrbtn.obj
 0001:00023c91       ??1TREND_CONFIG_CLASS@@QAE@XZ 00424c91 f   tcconfig.obj
 0001:00023c91       ??1FONT_CLASS@@QAE@XZ      00424c91 f   v5subs:fontclas.obj
 0001:00023c91       ??1PARAM_INDEX_CLASS@@QAE@XZ 00424c91 f   v5subs:param_index_class.obj
 0001:00023c91       ?OnSetup@CUGCtrl@@UAEXXZ   00424c91 f   dundas:ugctrl.obj
 0001:00023c91       ??1ANALOG_SENSOR@@QAE@XZ   00424c91 f   v5subs:asensor.obj
 0001:00023c91       ??1FIXED_PARAM_CLASS@@QAE@XZ 00424c91 f   tcconfig.obj
 0001:00023c91       ??1RECTANGLE_CLASS@@QAE@XZ 00424c91 f   v5subs:rectclas.obj
 0001:00023c91       ??1DOWNBAR_CONFIG_CLASS@@QAE@XZ 00424c91 f   dbarcfg.obj
 0001:00023c92       ??4TREND_CONFIG_CLASS@@QAEXABV0@@Z 00424c92 f   tcconfig.obj
 0001:00023cfe       ??8TREND_CONFIG_CLASS@@QAEEABV0@@Z 00424cfe f   tcconfig.obj
 0001:00023d7b       ??9TREND_CONFIG_CLASS@@QAEEABV0@@Z 00424d7b f   tcconfig.obj
 0001:00024139       ?get_from_line@FIXED_PARAM_CLASS@@QAEXPAD@Z 00425139 f   tcconfig.obj
 0001:000241ea       ?get_from_screen@TREND_SCREEN_CONFIG_CLASS@@QAEXPAUHWND__@@@Z 004251ea f   tcconfig.obj
 0001:00024304       ?lbline@FIXED_PARAM_CLASS@@QAEPADPAD@Z 00425304 f   tcconfig.obj
 0001:0002435a       ?n_visible@TREND_CONFIG_CLASS@@QAEJXZ 0042535a f   tcconfig.obj
 0001:0002436d       ?put_to_screen@TREND_SCREEN_CONFIG_CLASS@@QAEXPAUHWND__@@@Z 0042536d f   tcconfig.obj
 0001:0002442e       ?read@FIXED_PARAM_CLASS@@QAEXPAD@Z 0042542e f   tcconfig.obj
 0001:00024562       ?read@TREND_CONFIG_CLASS@@QAEXXZ 00425562 f   tcconfig.obj
 0001:00024a11       ?set@INT32_ARRAY_CLASS@@UAEXJ@Z 00425a11 f i tcconfig.obj
 0001:00024a33       ?tc_visible_dialog_proc@@YGHPAUHWND__@@IIJ@Z 00425a33 f   tcconfig.obj
 0001:00024a80       ?trend_config_dialog_proc@@YGHPAUHWND__@@IIJ@Z 00425a80 f   tcconfig.obj
 0001:00024be5       ?write@FIXED_PARAM_CLASS@@QAEXPAD@Z 00425be5 f   tcconfig.obj
 0001:00024c9e       ?write@TREND_CONFIG_CLASS@@QAEXXZ 00425c9e f   tcconfig.obj
 0001:00024e66       ?write_from_line@FIXED_PARAM_CLASS@@QAEXPAD@Z 00425e66 f   tcconfig.obj
 0001:00024ec3       ??0STAT_ENTRY@@QAE@XZ      00425ec3 f   trend.obj
 0001:00024eea       ?add@STAT_ENTRY@@QAEXM@Z   00425eea f   trend.obj
 0001:00024fa2       ?avg@STAT_ENTRY@@QAEMXZ    00425fa2 f   trend.obj
 0001:00024fe0       ?begin_trend_display@@YAEXZ 00425fe0 f   trend.obj
 0001:00025038       ?celltext@@YAPADJJ@Z       00426038 f   trend.obj
 0001:000251d7       ?do_new_control_limits@@YAXXZ 004261d7 f   trend.obj
 0001:000251e1       ?do_new_tc_config@@YAXI@Z  004261e1 f   trend.obj
 0001:000254d5       ?end_trend_display@@YAXXZ  004264d5 f   trend.obj
 0001:00025595       ?get_nof_points_from_shot_range@@YAJAAJ@Z 00426595 f   trend.obj
 0001:000262c3       ?mouse_to_trend@@YAXJJ@Z   004272c3 f   trend.obj
 0001:00026384       ?paint_trend_display@@YAXABUtagRECT@@@Z 00427384 f   trend.obj
 0001:00026762       ?percent_out@STAT_ENTRY@@QAEMXZ 00427762 f   trend.obj
 0001:000267a3       ?print_statistical_summary@@YAXABUtagRECT@@@Z 004277a3 f   trend.obj
 0001:00026db6       ?reload_tc_data@@YAXXZ     00427db6 f   trend.obj
 0001:00026de8       ?save_control_limits@@YAXXZ 00427de8 f   trend.obj
 0001:000270a4       ?show_one_parameter@@YAXJ@Z 004280a4 f   trend.obj
 0001:00027141       ?stdev@STAT_ENTRY@@QAEMXZ  00428141 f   trend.obj
 0001:000271f4       ?trend_allshots@@YAXXZ     004281f4 f   trend.obj
 0001:00027332       ?trend_escape@@YAXXZ       00428332 f   trend.obj
 0001:00027353       ?trend_left_button_up@@YAXAAUtagPOINT@@@Z 00428353 f   trend.obj
 0001:0002745c       ?trend_realtime@@YAXXZ     0042845c f   trend.obj
 0001:0002749e       ?trend_screen_new_shot@@YAXXZ 0042849e f   trend.obj
 0001:00027668       ?trend_screen_reset@@YAXXZ 00428668 f   trend.obj
 0001:00027681       ?z@STAT_ENTRY@@QAEMM@Z     00428681 f   trend.obj
 0001:000278c6       ?fill_view_parameters_listbox@@YAXXZ 004288c6 f   viewpara.obj
 0001:00027999       ?position_view_parameters_window@@YAXXZ 00428999 f   viewpara.obj
 0001:000279fc       ?view_parameters_dialog_proc@@YGHPAUHWND__@@IIJ@Z 004289fc f   viewpara.obj
 0001:00027a70       ??0VIRTUAL_LISTBOX_CLASS@@QAE@XZ 00428a70 f   vlbclass.obj
 0001:00027aa1       ?do_keypress@VIRTUAL_LISTBOX_CLASS@@QAEHHH@Z 00428aa1 f   vlbclass.obj
 0001:00027b71       ?do_select@VIRTUAL_LISTBOX_CLASS@@QAEXXZ 00428b71 f   vlbclass.obj
 0001:00027b90       ?do_vscroll@VIRTUAL_LISTBOX_CLASS@@QAEXI@Z 00428b90 f   vlbclass.obj
 0001:00027bf6       ?fill_listbox@VIRTUAL_LISTBOX_CLASS@@QAEXXZ 00428bf6 f   vlbclass.obj
 0001:00027c85       ?goto_end@VIRTUAL_LISTBOX_CLASS@@QAEXXZ 00428c85 f   vlbclass.obj
 0001:00027ca5       ?scroll_down_one_line@VIRTUAL_LISTBOX_CLASS@@QAEXXZ 00428ca5 f   vlbclass.obj
 0001:00027ccf       ?scroll_down_one_page@VIRTUAL_LISTBOX_CLASS@@QAEXXZ 00428ccf f   vlbclass.obj
 0001:00027d0e       ?scroll_up_one_line@VIRTUAL_LISTBOX_CLASS@@QAEXXZ 00428d0e f   vlbclass.obj
 0001:00027d2b       ?scroll_up_one_page@VIRTUAL_LISTBOX_CLASS@@QAEXXZ 00428d2b f   vlbclass.obj
 0001:00027d66       ?set_scrollbar@VIRTUAL_LISTBOX_CLASS@@QAEXXZ 00428d66 f   vlbclass.obj
 0001:00027dbf       ?set_scrollbar_pos@VIRTUAL_LISTBOX_CLASS@@QAEXXZ 00428dbf f   vlbclass.obj
 0001:00027e08       ?shutdown@VIRTUAL_LISTBOX_CLASS@@QAEXXZ 00428e08 f   vlbclass.obj
 0001:00027e21       ?startup@VIRTUAL_LISTBOX_CLASS@@QAEEPADFPAUHWND__@@IIP6APADAAVDB_TABLE@@@Z@Z 00428e21 f   vlbclass.obj
 0001:00027eb0       ??0X_AXIS_CLASS@@QAE@XZ    00428eb0 f   xaxis.obj
 0001:00027f1b       ??1X_AXIS_CLASS@@QAE@XZ    00428f1b f   xaxis.obj
 0001:00027f42       ??ASHOT_ARRAY_CLASS@@QAEAAVSHOT_DATA_ENTRY@@J@Z 00428f42 f   xaxis.obj
 0001:00027f80       ?cleanup@DATA_ARRAY_CLASS@@QAEXXZ 00428f80 f   mplot.obj
 0001:00027f80       ?cleanup@SHOT_ARRAY_CLASS@@QAEXXZ 00428f80 f   xaxis.obj
 0001:00027fa5       ?draw_line@X_AXIS_CLASS@@AAEXHHHH@Z 00428fa5 f   xaxis.obj
 0001:00027fd0       ?info_box_x_position@X_AXIS_CLASS@@AAEJJ@Z 00428fd0 f   xaxis.obj
 0001:00027ff6       ?init@SHOT_ARRAY_CLASS@@UAEEJ@Z 00428ff6 f   xaxis.obj
 0001:0002805a       ?init@X_AXIS_CLASS@@UAEEJ@Z 0042905a f   xaxis.obj
 0001:0002810f       ?left_shift@SHOT_ARRAY_CLASS@@QAEJAAVSHOT_DATA_ENTRY@@@Z 0042910f f   xaxis.obj
 0001:00028185       ?left_shift@SHOT_ARRAY_CLASS@@QAEJJAAU_SYSTEMTIME@@@Z 00429185 f   xaxis.obj
 0001:000281b4       ?left_shift@X_AXIS_CLASS@@QAEXJAAU_SYSTEMTIME@@@Z 004291b4 f   xaxis.obj
 0001:00028243       ?max_shot_number@SHOT_ARRAY_CLASS@@QAEJXZ 00429243 f   xaxis.obj
 0001:00028268       ?min_shot_number@SHOT_ARRAY_CLASS@@QAEJXZ 00429268 f   xaxis.obj
 0001:0002828d       ?next_set@SHOT_ARRAY_CLASS@@QAEEXZ 0042928d f   xaxis.obj
 0001:0002828d       ?next_set@DATA_ARRAY_CLASS@@QAEEXZ 0042928d f   mplot.obj
 0001:000282ac       ?paint@X_AXIS_CLASS@@QAEEPAUHDC__@@@Z 004292ac f   xaxis.obj
 0001:00028518       ?restore_info_box@X_AXIS_CLASS@@QAEEPAUHDC__@@@Z 00429518 f   xaxis.obj
 0001:00028520       ?set@SHOT_ARRAY_CLASS@@QAEEJAAU_SYSTEMTIME@@@Z 00429520 f   xaxis.obj
 0001:00028569       ?set@X_AXIS_CLASS@@QAEXJAAU_SYSTEMTIME@@@Z 00429569 f   xaxis.obj
 0001:000285aa       ?show_info_box@X_AXIS_CLASS@@QAEEPAUHDC__@@JJE@Z 004295aa f   xaxis.obj
 0001:0002875f       ?x_index@X_AXIS_CLASS@@QAEJJ@Z 0042975f f   xaxis.obj
 0001:000287d7       ?x_pos@X_AXIS_CLASS@@QAEJJ@Z 004297d7 f   xaxis.obj
 0001:00028806       ?x_pos_from_index@X_AXIS_CLASS@@QAEJJ@Z 00429806 f   xaxis.obj
 0001:00028fff       ?xdcr_proc@@YGJPAUHWND__@@IIJ@Z 00429fff f   xdcrplot.obj
 0001:0002913a       _DdeGetData@16             0042a13a f   user32:USER32.dll
 0001:00029140       _OpenPrinterA@12           0042a140 f   winspool:WINSPOOL.DRV
 0001:00029146       _GetPrinterA@20            0042a146 f   winspool:WINSPOOL.DRV
 0001:0002914c       _ClosePrinter@4            0042a14c f   winspool:WINSPOOL.DRV
 0001:00029152       ?directory_exists@@YAEPAD@Z 0042a152 f   v5subs:exists.obj
 0001:00029175       ?disk_is_in_drive@@YAEPAD@Z 0042a175 f   v5subs:exists.obj
 0001:000291ad       ?file_exists@@YAEPAD@Z     0042a1ad f   v5subs:exists.obj
 0001:0002923e       ?get_drive_name@@YAEPAD@Z  0042a23e f   v5subs:exists.obj
 0001:0002926e       ?is_removable@@YAEPAD@Z    0042a26e f   v5subs:exists.obj
 0001:00029298       ?char_to_tchar@@YAXPAD0H@Z 0042a298 f   v5subs:mem.obj
 0001:000292d2       ?charlen@@YAFPBDF@Z        0042a2d2 f   v5subs:mem.obj
 0001:000292f5       ?compare@@YAFPBD0@Z        0042a2f5 f   v5subs:mem.obj
 0001:00029370       ?compare@@YAFPBD0F@Z       0042a370 f   v5subs:mem.obj
 0001:000293d4       ?copy_w_char@@YAPADPAD0D@Z 0042a3d4 f   v5subs:mem.obj
 0001:000293eb       ?copychars@@YAXPADPBDF@Z   0042a3eb f   v5subs:mem.obj
 0001:0002940d       ?copyfromstr@@YAXPADPBDF@Z 0042a40d f   v5subs:mem.obj
 0001:0002944d       ?copystring@@YAPADPADPBD@Z 0042a44d f   v5subs:mem.obj
 0001:00029486       ?countchars@@YAJDPBD@Z     0042a486 f   v5subs:mem.obj
 0001:000294a7       ?fillchars@@YAXPADDF@Z     0042a4a7 f   v5subs:mem.obj
 0001:000294c6       ?findchar@@YAPADDPAD@Z     0042a4c6 f   v5subs:mem.obj
 0001:000294c6       ?findchar@@YAPBDDPBD@Z     0042a4c6 f   v5subs:mem.obj
 0001:000294e2       ?findchar@@YAPADDPADF@Z    0042a4e2 f   v5subs:mem.obj
 0001:000294e2       ?findchar@@YAPBDDPBDF@Z    0042a4e2 f   v5subs:mem.obj
 0001:0002950d       ?findstring@@YAPADPBDPAD@Z 0042a50d f   v5subs:mem.obj
 0001:0002957c       ?maketext@@YAPADJ@Z        0042a57c f   v5subs:mem.obj
 0001:00029595       ?maketext@@YAPADPBD@Z      0042a595 f   v5subs:mem.obj
 0001:000295a3       ?maketext@@YAPADPBDJ@Z     0042a5a3 f   v5subs:mem.obj
 0001:000295d6       ?move_string_forward@@YAXPADH@Z 0042a5d6 f   v5subs:mem.obj
 0001:00029606       ?nextstring@@YAPADPAD@Z    0042a606 f   v5subs:mem.obj
 0001:00029617       ?remove_all_occurances@@YAXPADD@Z 0042a617 f   v5subs:mem.obj
 0001:00029644       ?remove_char@@YAXPAD@Z     0042a644 f   v5subs:mem.obj
 0001:0002965f       ?replace_char_with_null@@YAEPADD@Z 0042a65f f   v5subs:mem.obj
 0001:0002968c       ?replace_char_with_null@@YAEPADPBD@Z 0042a68c f   v5subs:mem.obj
 0001:000296ca       ?replace_tab_with_null@@YAEPAD@Z 0042a6ca f   v5subs:mem.obj
 0001:000296de       ?start_chars_are_equal@@YA_NPBD0@Z 0042a6de f   v5subs:mem.obj
 0001:00029709       ?strings_are_equal@@YAEPBD0@Z 0042a709 f   v5subs:mem.obj
 0001:0002973e       ?strings_are_equal@@YAEPBD0F@Z 0042a73e f   v5subs:mem.obj
 0001:0002975a       ?strip@@YAXPAD@Z           0042a75a f   v5subs:mem.obj
 0001:00029787       ?trim@@YAXPAD@Z            0042a787 f   v5subs:mem.obj
 0001:000297b5       ?upper_case@@YAXAAD@Z      0042a7b5 f   v5subs:mem.obj
 0001:000297d6       ?upper_case@@YAXPAD@Z      0042a7d6 f   v5subs:mem.obj
 0001:000297ff       ?asctoint32@@YAJPBD@Z      0042a7ff f   v5subs:extract.obj
 0001:0002981c       ?asctoul@@YAKPBD@Z         0042a81c f   v5subs:extract.obj
 0001:00029839       ?extdouble@@YANPBD@Z       0042a839 f   v5subs:extract.obj
 0001:00029850       ?extdouble@@YANPBDF@Z      0042a850 f   v5subs:extract.obj
 0001:000298b8       ?extfloat@@YAMPBD@Z        0042a8b8 f   v5subs:extract.obj
 0001:000298dd       ?extlong@@YAJPBDF@Z        0042a8dd f   v5subs:extract.obj
 0001:000298dd       ?extshort@@YAFPBDF@Z       0042a8dd f   v5subs:extract.obj
 0001:000298f0       ?extlong@@YAJPBDFH@Z       0042a8f0 f   v5subs:extract.obj
 0001:00029956       ?extul@@YAKPBDFH@Z         0042a956 f   v5subs:extract.obj
 0001:000299bc       ?is_real_char@@YAED@Z      0042a9bc f   v5subs:extract.obj
 0001:00029a5f       ?int32toasc@@YAPADJ@Z      0042aa5f f   v5subs:itoasc.obj
 0001:00029a78       ?int32toasc@@YAXPADJJ@Z    0042aa78 f   v5subs:itoasc.obj
 0001:00029ab9       ?ultoascii@@YAPADK@Z       0042aab9 f   v5subs:itoasc.obj
 0001:00029ac7       ?ultoascii@@YAPADKK@Z      0042aac7 f   v5subs:itoasc.obj
 0001:00029ae2       ?ultoascii@@YAXPADKK@Z     0042aae2 f   v5subs:itoasc.obj
 0001:00029b11       ??0STRING_CLASS@@QAE@ABV0@@Z 0042ab11 f   v5subs:stringcl.obj
 0001:00029b2d       ??0STRING_CLASS@@QAE@XZ    0042ab2d f   v5subs:stringcl.obj
 0001:00029b37       ??1STRING_CLASS@@QAE@XZ    0042ab37 f   v5subs:stringcl.obj
 0001:00029b3c       ??4STRING_CLASS@@QAEXABV0@@Z 0042ab3c f   v5subs:stringcl.obj
 0001:00029b4b       ??4STRING_CLASS@@QAEXE@Z   0042ab4b f   v5subs:stringcl.obj
 0001:00029b66       ??4STRING_CLASS@@QAEXH@Z   0042ab66 f   v5subs:stringcl.obj
 0001:00029b8e       ??4STRING_CLASS@@QAEXN@Z   0042ab8e f   v5subs:stringcl.obj
 0001:00029bbd       ??4STRING_CLASS@@QAEXPBD@Z 0042abbd f   v5subs:stringcl.obj
 0001:00029c08       ??8STRING_CLASS@@QAEEABV0@@Z 0042ac08 f   v5subs:stringcl.obj
 0001:00029c30       ??8STRING_CLASS@@QAEEPBD@Z 0042ac30 f   v5subs:stringcl.obj
 0001:00029c57       ??MSTRING_CLASS@@QAEEABV0@@Z 0042ac57 f   v5subs:stringcl.obj
 0001:00029c7e       ??OSTRING_CLASS@@QAEEABV0@@Z 0042ac7e f   v5subs:stringcl.obj
 0001:00029ca5       ??YSTRING_CLASS@@QAEXABV0@@Z 0042aca5 f   v5subs:stringcl.obj
 0001:00029cb4       ??YSTRING_CLASS@@QAEXD@Z   0042acb4 f   v5subs:stringcl.obj
 0001:00029ce7       ??YSTRING_CLASS@@QAEXH@Z   0042ace7 f   v5subs:stringcl.obj
 0001:00029d1e       ??YSTRING_CLASS@@QAEXI@Z   0042ad1e f   v5subs:stringcl.obj
 0001:00029d55       ??YSTRING_CLASS@@QAEXN@Z   0042ad55 f   v5subs:stringcl.obj
 0001:00029d93       ??YSTRING_CLASS@@QAEXPBD@Z 0042ad93 f   v5subs:stringcl.obj
 0001:00029dd4       ?boolean_value@STRING_CLASS@@QAEEXZ 0042add4 f   v5subs:stringcl.obj
 0001:00029df3       ?cat_path@STRING_CLASS@@QAEXPBD@Z 0042adf3 f   v5subs:stringcl.obj
 0001:00029e5f       ?cat_w_char@STRING_CLASS@@QAEXPBDD@Z 0042ae5f f   v5subs:stringcl.obj
 0001:00029eb4       ?compare@STRING_CLASS@@QAEHPAD@Z 0042aeb4 f   v5subs:stringcl.obj
 0001:00029ee0       ?contains@STRING_CLASS@@QAE_NPBD@Z 0042aee0 f   v5subs:stringcl.obj
 0001:00029ef1       ?empty@STRING_CLASS@@QAEXXZ 0042aef1 f   v5subs:stringcl.obj
 0001:00029f0c       ?find@STRING_CLASS@@QAEPADD@Z 0042af0c f   v5subs:stringcl.obj
 0001:00029f35       ?find@STRING_CLASS@@QAEPADPBD@Z 0042af35 f   v5subs:stringcl.obj
 0001:00029f53       ?get_text@STRING_CLASS@@QAE_NPAUHWND__@@@Z 0042af53 f   v5subs:stringcl.obj
 0001:00029fa7       ?init@STRING_CLASS@@QAEEJ@Z 0042afa7 f   v5subs:stringcl.obj
 0001:00029feb       ?isempty@STRING_CLASS@@QAEEXZ 0042afeb f   v5subs:stringcl.obj
 0001:0002a007       ?len@STRING_CLASS@@QAEJXZ  0042b007 f   v5subs:stringcl.obj
 0001:0002a01a       ?next_field@STRING_CLASS@@QAE_ND@Z 0042b01a f   v5subs:stringcl.obj
 0001:0002a0f1       ?next_field@STRING_CLASS@@QAE_NXZ 0042b0f1 f   v5subs:stringcl.obj
 0001:0002a0ff       ?null@STRING_CLASS@@QAEXXZ 0042b0ff f   v5subs:stringcl.obj
 0001:0002a10e       ?null_first_control_char@STRING_CLASS@@QAEXXZ 0042b10e f   v5subs:stringcl.obj
 0001:0002a134       ?real_value@STRING_CLASS@@QAENXZ 0042b134 f   v5subs:stringcl.obj
 0001:0002a18b       ?release@STRING_CLASS@@QAEPADXZ 0042b18b f   v5subs:stringcl.obj
 0001:0002a196       ?replace@STRING_CLASS@@QAEEPBD0@Z 0042b196 f   v5subs:stringcl.obj
 0001:0002a24b       ?rjust@STRING_CLASS@@QAEEJ@Z 0042b24b f   v5subs:stringcl.obj
 0001:0002a25f       ?rjust@STRING_CLASS@@QAEEJD@Z 0042b25f f   v5subs:stringcl.obj
 0001:0002a2ae       ?set_text@STRING_CLASS@@QAE_NPAUHWND__@@@Z 0042b2ae f   v5subs:stringcl.obj
 0001:0002a2d3       ?strip@STRING_CLASS@@QAEXXZ 0042b2d3 f   v5subs:stringcl.obj
 0001:0002a32c       ?strip_crlf@STRING_CLASS@@QAEXXZ 0042b32c f   v5subs:stringcl.obj
 0001:0002a36f       ?uppercase@STRING_CLASS@@QAEXXZ 0042b36f f   v5subs:stringcl.obj
 0001:0002a37f       ?upsize@STRING_CLASS@@QAEEJ@Z 0042b37f f   v5subs:stringcl.obj
 0001:0002a3d3       ?add_ending_backslash@NAME_CLASS@@QAEXXZ 0042b3d3 f   v5subs:nameclas.obj
 0001:0002a406       ?convert_to_data_dir@NAME_CLASS@@QAEEXZ 0042b406 f   v5subs:nameclas.obj
 0001:0002a44b       ?copyto@NAME_CLASS@@QAEEAAVSTRING_CLASS@@@Z 0042b44b f   v5subs:nameclas.obj
 0001:0002a47a       ?get_data_dir_file_name@NAME_CLASS@@QAEEAAVSTRING_CLASS@@PBD@Z 0042b47a f   v5subs:nameclas.obj
 0001:0002a4bd       ?get_data_dir_file_name@NAME_CLASS@@QAEEPBD@Z 0042b4bd f   v5subs:nameclas.obj
 0001:0002a4da       ?get_display_dir_file_name@NAME_CLASS@@QAEEAAVSTRING_CLASS@@0PBD@Z 0042b4da f   v5subs:nameclas.obj
 0001:0002a537       ?get_exe_dir_file_name@NAME_CLASS@@QAEEAAVSTRING_CLASS@@PBD@Z 0042b537 f   v5subs:nameclas.obj
 0001:0002a57a       ?get_exe_dir_file_name@NAME_CLASS@@QAEEPBD@Z 0042b57a f   v5subs:nameclas.obj
 0001:0002a5b3       ?get_machine_dir_file_name@NAME_CLASS@@QAEEAAVSTRING_CLASS@@0PBD@Z 0042b5b3 f   v5subs:nameclas.obj
 0001:0002a5fc       ?get_machine_list_file_name@NAME_CLASS@@QAEEAAVSTRING_CLASS@@@Z 0042b5fc f   v5subs:nameclas.obj
 0001:0002a65f       ?get_machine_results_dir_file_name@NAME_CLASS@@QAEEAAVSTRING_CLASS@@0PBD@Z 0042b65f f   v5subs:nameclas.obj
 0001:0002a69d       ?get_part_dir_file_name@NAME_CLASS@@QAEEAAVSTRING_CLASS@@00PBD@Z 0042b69d f   v5subs:nameclas.obj
 0001:0002a6e9       ?get_part_results_dir_file_name@NAME_CLASS@@QAEEAAVSTRING_CLASS@@00PBD@Z 0042b6e9 f   v5subs:nameclas.obj
 0001:0002a72a       ?get_profile_name@NAME_CLASS@@QAEEAAVSTRING_CLASS@@00JPBD@Z 0042b72a f   v5subs:nameclas.obj
 0001:0002a798       ?get_profile_name@NAME_CLASS@@QAEEAAVSTRING_CLASS@@00PBD1@Z 0042b798 f   v5subs:nameclas.obj
 0001:0002a82a       ?get_stringtable_name@NAME_CLASS@@QAEEPBD@Z 0042b82a f   v5subs:nameclas.obj
 0001:0002a87b       ?moveto@NAME_CLASS@@QAEEAAVSTRING_CLASS@@@Z 0042b87b f   v5subs:nameclas.obj
 0001:0002a8a8       ??0ANALOG_SENSOR@@QAE@XZ   0042b8a8 f   v5subs:asensor.obj
 0001:0002a8ae       ??0ANALOG_SENSOR_ENTRY@@QAE@XZ 0042b8ae f   v5subs:asensor.obj
 0001:0002a8fe       ??1ANALOG_SENSOR_ENTRY@@QAE@XZ 0042b8fe f   v5subs:asensor.obj
 0001:0002a92a       ??AANALOG_SENSOR@@QAEAAUANALOG_SENSOR_ENTRY@@H@Z 0042b92a f   v5subs:asensor.obj
 0001:0002a94d       ??_EANALOG_SENSOR_ENTRY@@QAEPAXI@Z 0042b94d f i v5subs:asensor.obj
 0001:0002a9a2       ?converted_value@ANALOG_SENSOR_ENTRY@@QAENI@Z 0042b9a2 f   v5subs:asensor.obj
 0001:0002a9d6       ?get@ANALOG_SENSOR@@SAEXZ  0042b9d6 f   v5subs:asensor.obj
 0001:0002abd4       ?get@ANALOG_SENSOR_ENTRY@@QAEEPAD@Z 0042bbd4 f   v5subs:asensor.obj
 0001:0002ad31       ?raw_count@ANALOG_SENSOR_ENTRY@@QAENN@Z 0042bd31 f   v5subs:asensor.obj
 0001:0002ad74       ?shutdown@ANALOG_SENSOR@@SAXXZ 0042bd74 f   v5subs:asensor.obj
 0001:0002ad79       ?update@ANALOG_SENSOR_ENTRY@@QAEEXZ 0042bd79 f   v5subs:asensor.obj
 0001:0002ae67       ??0AUTO_BACKUP_CLASS@@QAE@XZ 0042be67 f   v5subs:autoback.obj
 0001:0002ae79       ??1AUTO_BACKUP_CLASS@@QAE@XZ 0042be79 f   v5subs:autoback.obj
 0001:0002ae7f       ?backup_data_dir@AUTO_BACKUP_CLASS@@QAEEXZ 0042be7f f   v5subs:autoback.obj
 0001:0002af21       ?backup_part@AUTO_BACKUP_CLASS@@QAEEAAVSTRING_CLASS@@0@Z 0042bf21 f   v5subs:autoback.obj
 0001:0002b178       ?get_backup_dir@AUTO_BACKUP_CLASS@@QAEEXZ 0042c178 f   v5subs:autoback.obj
 0001:0002b216       ??0DOWNCAT_NAME_ENTRY@@QAE@XZ 0042c216 f   v5subs:catclass.obj
 0001:0002b238       ??0DOWNSCAT_NAME_ENTRY@@QAE@XZ 0042c238 f   v5subs:catclass.obj
 0001:0002b268       ??ADOWNSCAT_NAME_CLASS@@QAEAAUDOWNSCAT_NAME_ENTRY@@J@Z 0042c268 f   v5subs:catclass.obj
 0001:0002b289       ?cleanup@DOWNCAT_NAME_CLASS@@QAEXXZ 0042c289 f   v5subs:catclass.obj
 0001:0002b289       ?cleanup@DOWNSCAT_NAME_CLASS@@QAEXXZ 0042c289 f   v5subs:catclass.obj
 0001:0002b2a2       ?index@DOWNSCAT_NAME_CLASS@@QAEJPAD0@Z 0042c2a2 f   v5subs:catclass.obj
 0001:0002b2f3       ?name@DOWNCAT_NAME_CLASS@@QAEPADPAD@Z 0042c2f3 f   v5subs:catclass.obj
 0001:0002b338       ?name@DOWNSCAT_NAME_CLASS@@QAEPADPAD0@Z 0042c338 f   v5subs:catclass.obj
 0001:0002b362       ?read@DOWNCAT_NAME_CLASS@@QAEEXZ 0042c362 f   v5subs:catclass.obj
 0001:0002b491       ?read@DOWNSCAT_NAME_CLASS@@QAEEXZ 0042c491 f   v5subs:catclass.obj
 0001:0002b66b       ??1CHAXIS_LABEL_CLASS@@QAE@XZ 0042c66b f   v5subs:chaxis.obj
 0001:0002b670       ??ACHAXIS_LABEL_CLASS@@QAEPADH@Z 0042c670 f   v5subs:chaxis.obj
 0001:0002b68e       ?cleanup@CHAXIS_LABEL_CLASS@@QAEXXZ 0042c68e f   v5subs:chaxis.obj
 0001:0002b6cd       ?get@CHAXIS_LABEL_CLASS@@QAEEAAVSTRING_CLASS@@00@Z 0042c6cd f   v5subs:chaxis.obj
 0001:0002b79e       ?init@CHAXIS_LABEL_CLASS@@QAEEH@Z 0042c79e f   v5subs:chaxis.obj
 0001:0002b7ec       ??0COLORS_CLASS@@QAE@XZ    0042c7ec f   v5subs:color.obj
 0001:0002b801       ??1COLORS_CLASS@@QAE@XZ    0042c801 f   v5subs:color.obj
 0001:0002b806       ??ACOLORS_CLASS@@QAEKF@Z   0042c806 f   v5subs:color.obj
 0001:0002b82d       ?clear@@YAXXZ              0042c82d f   v5subs:color.obj
 0001:0002b84d       ?index@COLORS_CLASS@@QAEFPAD@Z 0042c84d f   v5subs:color.obj
 0001:0002b891       ?reload@COLORS_CLASS@@QAEEXZ 0042c891 f   v5subs:color.obj
 0001:0002b9ed       ??0DB_TABLE@@QAE@XZ        0042c9ed f   v5subs:dbsubs.obj
 0001:0002ba08       ??1DB_TABLE@@QAE@XZ        0042ca08 f   v5subs:dbsubs.obj
 0001:0002ba4c       ?close@DB_TABLE@@QAEXXZ    0042ca4c f   v5subs:dbsubs.obj
 0001:0002ba69       ?compare_date@@YAFPAD0@Z   0042ca69 f   v5subs:dbsubs.obj
 0001:0002ba9f       ?compare_int32@@YAFPAD0J@Z 0042ca9f f   v5subs:dbsubs.obj
 0001:0002bad3       ?compare_one_record@DB_TABLE@@AAEEPAFJJ@Z 0042cad3 f   v5subs:dbsubs.obj
 0001:0002bba0       ?create@DB_TABLE@@QAEEPAD@Z 0042cba0 f   v5subs:dbsubs.obj
 0001:0002bc00       ?empty@DB_TABLE@@QAEEXZ    0042cc00 f   v5subs:dbsubs.obj
 0001:0002bc27       ?ensure_existance@DB_TABLE@@QAEEAAVSTRING_CLASS@@@Z 0042cc27 f   v5subs:dbsubs.obj
 0001:0002bc73       ?fill_searchbuf@DB_TABLE@@AAEEF@Z 0042cc73 f   v5subs:dbsubs.obj
 0001:0002bcc1       ?get_alpha@DB_TABLE@@QAEEAAVSTRING_CLASS@@GF@Z 0042ccc1 f   v5subs:dbsubs.obj
 0001:0002bd21       ?get_alpha@DB_TABLE@@QAEEPADGF@Z 0042cd21 f   v5subs:dbsubs.obj
 0001:0002bd37       ?get_alpha@DB_TABLE@@QAEEPADGFG@Z 0042cd37 f   v5subs:dbsubs.obj
 0001:0002bd90       ?get_boolean@DB_TABLE@@QAEEG@Z 0042cd90 f   v5subs:dbsubs.obj
 0001:0002bdbe       ?get_char@DB_TABLE@@QAEDG@Z 0042cdbe f   v5subs:dbsubs.obj
 0001:0002bdd8       ?get_current_record@DB_TABLE@@QAEEE@Z 0042cdd8 f   v5subs:dbsubs.obj
 0001:0002be1e       ?get_date@DB_TABLE@@QAEEAAU_SYSTEMTIME@@G@Z 0042ce1e f   v5subs:dbsubs.obj
 0001:0002be37       ?get_double@DB_TABLE@@QAENG@Z 0042ce37 f   v5subs:dbsubs.obj
 0001:0002be73       ?get_long@DB_TABLE@@QAEJG@Z 0042ce73 f   v5subs:dbsubs.obj
 0001:0002be9c       ?get_next_key_match@DB_TABLE@@QAEEFE@Z 0042ce9c f   v5subs:dbsubs.obj
 0001:0002bf09       ?get_next_record@DB_TABLE@@QAEEE@Z 0042cf09 f   v5subs:dbsubs.obj
 0001:0002bf57       ?get_prev_record@DB_TABLE@@QAEEE@Z 0042cf57 f   v5subs:dbsubs.obj
 0001:0002bfb3       ?get_rec@DB_TABLE@@QAEEXZ  0042cfb3 f   v5subs:dbsubs.obj
 0001:0002bffd       ?get_time@DB_TABLE@@QAEEAAU_SYSTEMTIME@@G@Z 0042cffd f   v5subs:dbsubs.obj
 0001:0002c016       ?goto_first_equal_or_greater_date@DB_TABLE@@QAEEGAAU_SYSTEMTIME@@@Z 0042d016 f   v5subs:dbsubs.obj
 0001:0002c13c       ?goto_first_equal_or_greater_record@DB_TABLE@@QAEEF@Z 0042d13c f   v5subs:dbsubs.obj
 0001:0002c215       ?goto_first_greater_than_record@DB_TABLE@@QAEEF@Z 0042d215 f   v5subs:dbsubs.obj
 0001:0002c2e6       ?goto_first_key_record@DB_TABLE@@AAEEF@Z 0042d2e6 f   v5subs:dbsubs.obj
 0001:0002c301       ?goto_key_record@DB_TABLE@@AAEEFJJ@Z 0042d301 f   v5subs:dbsubs.obj
 0001:0002c42d       ?goto_record_number@DB_TABLE@@QAEEJ@Z 0042d42d f   v5subs:dbsubs.obj
 0001:0002c4c0       ?initbuf@DB_TABLE@@AAEEPAPADPAFF@Z 0042d4c0 f   v5subs:dbsubs.obj
 0001:0002c548       ?lock_record@DB_TABLE@@QAEEXZ 0042d548 f   v5subs:dbsubs.obj
 0001:0002c5c2       ?nof_recs@DB_TABLE@@QAEKXZ 0042d5c2 f   v5subs:dbsubs.obj
 0001:0002c5ea       ?open@DB_TABLE@@QAEEPADFF@Z 0042d5ea f   v5subs:dbsubs.obj
 0001:0002c600       ?open@DB_TABLE@@QAEEPADFFF@Z 0042d600 f   v5subs:dbsubs.obj
 0001:0002c77b       ?open_status@DB_TABLE@@QAEEXZ 0042d77b f   v5subs:dbsubs.obj
 0001:0002c783       ?point_to_start_of_field@DB_TABLE@@AAEPADG@Z 0042d783 f   v5subs:dbsubs.obj
 0001:0002c79a       ?post_error@@YAXPAD0@Z     0042d79a f   v5subs:dbsubs.obj
 0001:0002c7ad       ?post_error@@YAXPAD@Z      0042d7ad f   v5subs:dbsubs.obj
 0001:0002c7c1       ?put_alpha@DB_TABLE@@QAEEGPBDF@Z 0042d7c1 f   v5subs:dbsubs.obj
 0001:0002c808       ?put_boolean@DB_TABLE@@QAEEGE@Z 0042d808 f   v5subs:dbsubs.obj
 0001:0002c831       ?put_date@DB_TABLE@@QAEEGABU_SYSTEMTIME@@@Z 0042d831 f   v5subs:dbsubs.obj
 0001:0002c862       ?put_float@DB_TABLE@@QAEEGMF@Z 0042d862 f   v5subs:dbsubs.obj
 0001:0002c8a9       ?put_long@DB_TABLE@@QAEEGJF@Z 0042d8a9 f   v5subs:dbsubs.obj
 0001:0002c8ea       ?put_time@DB_TABLE@@QAEEGAAU_SYSTEMTIME@@@Z 0042d8ea f   v5subs:dbsubs.obj
 0001:0002c91b       ?rec_append@DB_TABLE@@QAEEXZ 0042d91b f   v5subs:dbsubs.obj
 0001:0002c941       ?rec_delete@DB_TABLE@@QAEEJ@Z 0042d941 f   v5subs:dbsubs.obj
 0001:0002ca88       ?rec_update@DB_TABLE@@QAEEXZ 0042da88 f   v5subs:dbsubs.obj
 0001:0002caa9       ?restore_from_searchbuf@DB_TABLE@@AAEXXZ 0042daa9 f   v5subs:dbsubs.obj
 0001:0002caf0       ?unlock_record@DB_TABLE@@QAEEXZ 0042daf0 f   v5subs:dbsubs.obj
 0001:0002cb30       ?write_record@DB_TABLE@@AAEEXZ 0042db30 f   v5subs:dbsubs.obj
 0001:0002cb86       ?down_state@DSTAT_CLASS@@QAEHXZ 0042db86 f   v5subs:dstat.obj
 0001:0002cc52       ?get@DSTAT_CLASS@@QAEEAAVSTRING_CLASS@@0@Z 0042dc52 f   v5subs:dstat.obj
 0001:0002cd5b       ?put@DSTAT_CLASS@@QAEEAAVSTRING_CLASS@@0@Z 0042dd5b f   v5subs:dstat.obj
 0001:0002cf19       ?same_code@DSTAT_CLASS@@QAEEPAD0@Z 0042df19 f   v5subs:dstat.obj
 0001:0002cf51       ??0DOWN_DATA_CLASS@@QAE@XZ 0042df51 f   v5subs:evclass.obj
 0001:0002cfad       ?set@DOWN_DATA_CLASS@@QAEEPAUHDDEDATA__@@@Z 0042dfad f   v5subs:evclass.obj
 0001:0002d165       ?set@NEW_MACHINE_STATE_CLASS@@QAEEPAUHDDEDATA__@@@Z 0042e165 f   v5subs:evclass.obj
 0001:0002d208       ??0FILE_CLASS@@QAE@XZ      0042e208 f   v5subs:fileclas.obj
 0001:0002d22c       ?cleanup@FILE_CLASS@@QAEXXZ 0042e22c f   v5subs:fileclas.obj
 0001:0002d25a       ?cleanup_memory@FILE_CLASS@@QAEXXZ 0042e25a f   v5subs:fileclas.obj
 0001:0002d286       ??1FILE_CLASS@@QAE@XZ      0042e286 f   v5subs:fileclas.obj
 0001:0002d286       ?close@FILE_CLASS@@QAEXXZ  0042e286 f   v5subs:fileclas.obj
 0001:0002d28b       ?get_creation_time@FILE_CLASS@@QAEEPAU_FILETIME@@@Z 0042e28b f   v5subs:fileclas.obj
 0001:0002d2af       ?get_file_size@FILE_CLASS@@QAEEAAK@Z 0042e2af f   v5subs:fileclas.obj
 0001:0002d2dc       ?insertbinary@FILE_CLASS@@QAEEPAXK@Z 0042e2dc f   v5subs:fileclas.obj
 0001:0002d399       ?insertline@FILE_CLASS@@QAEEPAD@Z 0042e399 f   v5subs:fileclas.obj
 0001:0002d422       ?make_path@FILE_CLASS@@QAEEPAD@Z 0042e422 f   v5subs:fileclas.obj
 0001:0002d46d       ?nof_lines@FILE_CLASS@@QAEHXZ 0042e46d f   v5subs:fileclas.obj
 0001:0002d537       ?open@FILE_CLASS@@QAEEPADK@Z 0042e537 f   v5subs:fileclas.obj
 0001:0002d5ba       ?open_for_append@FILE_CLASS@@QAEEPAD@Z 0042e5ba f   v5subs:fileclas.obj
 0001:0002d5f0       ?open_for_read@FILE_CLASS@@QAEEAAVSTRING_CLASS@@@Z 0042e5f0 f   v5subs:fileclas.obj
 0001:0002d60a       ?open_for_read@FILE_CLASS@@QAEEPAD@Z 0042e60a f   v5subs:fileclas.obj
 0001:0002d624       ?open_for_update@FILE_CLASS@@QAEEPAD@Z 0042e624 f   v5subs:fileclas.obj
 0001:0002d640       ?open_for_write@FILE_CLASS@@QAEEAAVSTRING_CLASS@@@Z 0042e640 f   v5subs:fileclas.obj
 0001:0002d65a       ?open_for_write@FILE_CLASS@@QAEEPAD@Z 0042e65a f   v5subs:fileclas.obj
 0001:0002d673       ?readbinary@FILE_CLASS@@QAEKPAXK@Z 0042e673 f   v5subs:fileclas.obj
 0001:0002d6d9       ?readline@FILE_CLASS@@QAEPADXZ 0042e6d9 f   v5subs:fileclas.obj
 0001:0002d7b4       ?setpos@FILE_CLASS@@QAEEJ@Z 0042e7b4 f   v5subs:fileclas.obj
 0001:0002d7f7       ?writebinary@FILE_CLASS@@QAEEPAXK@Z 0042e7f7 f   v5subs:fileclas.obj
 0001:0002d85f       ?writeline@FILE_CLASS@@QAEEAAVSTRING_CLASS@@@Z 0042e85f f   v5subs:fileclas.obj
 0001:0002d879       ?writeline@FILE_CLASS@@QAEEPAD@Z 0042e879 f   v5subs:fileclas.obj
 0001:0002d90c       ??0FONT_CLASS@@QAE@XZ      0042e90c f   v5subs:fontclas.obj
 0001:0002d928       ??0FONT_LIST_CLASS@@QAE@XZ 0042e928 f   v5subs:fontclas.obj
 0001:0002d92e       ??0FONT_LIST_ENTRY@@QAE@XZ 0042e92e f   v5subs:fontclas.obj
 0001:0002d948       ??1FONT_LIST_CLASS@@QAE@XZ 0042e948 f   v5subs:fontclas.obj
 0001:0002d971       ??1FONT_LIST_ENTRY@@QAE@XZ 0042e971 f   v5subs:fontclas.obj
 0001:0002d989       ??4FONT_CLASS@@QAEXABUtagLOGFONTA@@@Z 0042e989 f   v5subs:fontclas.obj
 0001:0002d9ec       ??4FONT_CLASS@@QAEXABV0@@Z 0042e9ec f   v5subs:fontclas.obj
 0001:0002da28       ??8FONT_CLASS@@QAE_NABUtagLOGFONTA@@@Z 0042ea28 f   v5subs:fontclas.obj
 0001:0002daad       ??8FONT_CLASS@@QAE_NABV0@@Z 0042eaad f   v5subs:fontclas.obj
 0001:0002db4a       ?choose@FONT_CLASS@@QAE_NPAUHWND__@@@Z 0042eb4a f   v5subs:fontclas.obj
 0001:0002dbc1       ?free_handle@FONT_LIST_CLASS@@QAEXPAUHFONT__@@@Z 0042ebc1 f   v5subs:fontclas.obj
 0001:0002dc04       ?get@FONT_CLASS@@QAE_NPAD@Z 0042ec04 f   v5subs:fontclas.obj
 0001:0002dd9c       ?get_font@FONT_LIST_CLASS@@QAE_NAAVFONT_CLASS@@PAUHFONT__@@@Z 0042ed9c f   v5subs:fontclas.obj
 0001:0002ddc7       ?get_handle@FONT_LIST_CLASS@@QAEPAUHFONT__@@ABVFONT_CLASS@@@Z 0042edc7 f   v5subs:fontclas.obj
 0001:0002ded8       ?put@FONT_CLASS@@QAEPADXZ  0042eed8 f   v5subs:fontclas.obj
 0001:0002dfe6       ?load@FTANALOG_CLASS@@QAEEAAVSTRING_CLASS@@00@Z 0042efe6 f   v5subs:ftanalog.obj
 0001:0002e297       ??0CUGDrawHint@@QAE@XZ     0042f297 f   dundas:ugdrwhnt.obj
 0001:0002e297       ??0SETPOINT_CLASS@@QAE@XZ  0042f297 f   v5subs:setpoint.obj
 0001:0002e2a1       ??1SETPOINT_CLASS@@QAE@XZ  0042f2a1 f   v5subs:setpoint.obj
 0001:0002e2a6       ??ASETPOINT_CLASS@@QAEAAUSETPOINT_ENTRY@@H@Z 0042f2a6 f   v5subs:setpoint.obj
 0001:0002e2c2       ??_ESETPOINT_ENTRY@@QAEPAXI@Z 0042f2c2 f i v5subs:setpoint.obj
 0001:0002e32b       ?cleanup@SETPOINT_CLASS@@QAEXXZ 0042f32b f   v5subs:setpoint.obj
 0001:0002e346       ?get@SETPOINT_CLASS@@QAEHAAVSTRING_CLASS@@@Z 0042f346 f   v5subs:setpoint.obj
 0001:0002e35d       ?get_one_value@SETPOINT_CLASS@@QAEEAAVSTRING_CLASS@@0H@Z 0042f35d f   v5subs:setpoint.obj
 0001:0002e3e5       ?getfrom@SETPOINT_CLASS@@QAEHAAVSTRING_CLASS@@@Z 0042f3e5 f   v5subs:setpoint.obj
 0001:0002e4de       ?put@SETPOINT_CLASS@@QAEEAAVSTRING_CLASS@@@Z 0042f4de f   v5subs:setpoint.obj
 0001:0002e5c5       ?setsize@SETPOINT_CLASS@@QAEEH@Z 0042f5c5 f   v5subs:setpoint.obj
 0001:0002e6c2       ?cleanup@FTCALC_CLASS@@QAEXXZ 0042f6c2 f   v5subs:ftcalc.obj
 0001:0002e6d9       ?load@FTCALC_CLASS@@QAEEAAVSTRING_CLASS@@00@Z 0042f6d9 f   v5subs:ftcalc.obj
 0001:0002e7f5       ?value@FTCALC_CLASS@@QAENHPAN@Z 0042f7f5 f   v5subs:ftcalc.obj
 0001:0002ea9c       ??0COMPUTER_CLASS@@QAE@XZ  0042fa9c f   v5subs:computer.obj
 0001:0002eaa7       ?add@COMPUTER_CLASS@@QAEEPAD@Z 0042faa7 f   v5subs:computer.obj
 0001:0002eb5e       ?count@COMPUTER_CLASS@@QAEHXZ 0042fb5e f   v5subs:computer.obj
 0001:0002eb64       ?empty@COMPUTER_CLASS@@QAEXXZ 0042fb64 f   v5subs:computer.obj
 0001:0002eb98       ?find@COMPUTER_CLASS@@QAEEPAD@Z 0042fb98 f   v5subs:computer.obj
 0001:0002ebc8       ?is_present@COMPUTER_CLASS@@QAEEXZ 0042fbc8 f   v5subs:computer.obj
 0001:0002ebe9       ?is_this_computer@COMPUTER_CLASS@@QAEEXZ 0042fbe9 f   v5subs:computer.obj
 0001:0002ec06       ?load@COMPUTER_CLASS@@QAEEXZ 0042fc06 f   v5subs:computer.obj
 0001:0002ed34       ?name@COMPUTER_CLASS@@QAEAAVSTRING_CLASS@@XZ 0042fd34 f   v5subs:computer.obj
 0001:0002ed44       ?next@COMPUTER_CLASS@@QAEEXZ 0042fd44 f   v5subs:computer.obj
 0001:0002ed66       ?online_status@COMPUTER_CLASS@@QAEEAAVSTRING_CLASS@@@Z 0042fd66 f   v5subs:computer.obj
 0001:0002edaf       ?online_status@COMPUTER_CLASS@@QAEEXZ 0042fdaf f   v5subs:computer.obj
 0001:0002edbc       ?rewind@COMPUTER_CLASS@@QAEXXZ 0042fdbc f   v5subs:computer.obj
 0001:0002edc3       ?set_online_status@COMPUTER_CLASS@@QAEEAAVSTRING_CLASS@@E@Z 0042fdc3 f   v5subs:computer.obj
 0001:0002ee16       ?startup@COMPUTER_CLASS@@QAEEXZ 0042fe16 f   v5subs:computer.obj
 0001:0002ee2b       ?whoami@COMPUTER_CLASS@@QAEAAVSTRING_CLASS@@XZ 0042fe2b f   v5subs:computer.obj
 0001:0002ee31       ??1INI_CLASS@@QAE@XZ       0042fe31 f   v5subs:iniclass.obj
 0001:0002ee36       ?cleanup@INI_CLASS@@QAEXXZ 0042fe36 f   v5subs:iniclass.obj
 0001:0002ee71       ?find@INI_CLASS@@QAEEPBD0@Z 0042fe71 f   v5subs:iniclass.obj
 0001:0002eed4       ?find@INI_CLASS@@QAEEPBD@Z 0042fed4 f   v5subs:iniclass.obj
 0001:0002eeed       ?get_boolean@INI_CLASS@@QAEEPBD0@Z 0042feed f   v5subs:iniclass.obj
 0001:0002ef10       ?get_boolean@INI_CLASS@@QAEEPBD@Z 0042ff10 f   v5subs:iniclass.obj
 0001:0002ef29       ?get_boolean@INI_CLASS@@QAEEXZ 0042ff29 f   v5subs:iniclass.obj
 0001:0002ef48       ?get_double@INI_CLASS@@QAENPBD@Z 0042ff48 f   v5subs:iniclass.obj
 0001:0002ef67       ?get_double@INI_CLASS@@QAENXZ 0042ff67 f   v5subs:iniclass.obj
 0001:0002ef8c       ?get_int@INI_CLASS@@QAEHPBD0@Z 0042ff8c f   v5subs:iniclass.obj
 0001:0002efaf       ?get_int@INI_CLASS@@QAEHPBD@Z 0042ffaf f   v5subs:iniclass.obj
 0001:0002efc8       ?get_int@INI_CLASS@@QAEHXZ 0042ffc8 f   v5subs:iniclass.obj
 0001:0002efd9       ?get_string@INI_CLASS@@QAEPADPBD@Z 0042ffd9 f   v5subs:iniclass.obj
 0001:0002f006       ?get_string@INI_CLASS@@QAEPADXZ 00430006 f   v5subs:iniclass.obj
 0001:0002f014       ?put_boolean@INI_CLASS@@QAEEPBD0E@Z 00430014 f   v5subs:iniclass.obj
 0001:0002f045       ?put_boolean@INI_CLASS@@QAEEPBDE@Z 00430045 f   v5subs:iniclass.obj
 0001:0002f062       ?put_double@INI_CLASS@@QAEEPBDN@Z 00430062 f   v5subs:iniclass.obj
 0001:0002f0c0       ?put_int@INI_CLASS@@QAEEPBDH@Z 004300c0 f   v5subs:iniclass.obj
 0001:0002f106       ?put_string@INI_CLASS@@QAEEPBD00@Z 00430106 f   v5subs:iniclass.obj
 0001:0002f147       ?put_string@INI_CLASS@@QAEEPBD0@Z 00430147 f   v5subs:iniclass.obj
 0001:0002f164       ?remove_key@INI_CLASS@@QAEXPBD0@Z 00430164 f   v5subs:iniclass.obj
 0001:0002f179       ?remove_key@INI_CLASS@@QAEXPBD@Z 00430179 f   v5subs:iniclass.obj
 0001:0002f18e       ?set_file@INI_CLASS@@QAEEPBD@Z 0043018e f   v5subs:iniclass.obj
 0001:0002f1d0       ?set_section@INI_CLASS@@QAEEPBD@Z 004301d0 f   v5subs:iniclass.obj
 0001:0002f204       ??1LISTBOX_CLASS@@QAE@XZ   00430204 f   v5subs:listbox.obj
 0001:0002f214       ?add@LISTBOX_CLASS@@QAEHPAD@Z 00430214 f   v5subs:listbox.obj
 0001:0002f255       ?check_buf_size@LISTBOX_CLASS@@AAEEH@Z 00430255 f   v5subs:listbox.obj
 0001:0002f294       ?check_buf_size@LISTBOX_CLASS@@AAEEPAD@Z 00430294 f   v5subs:listbox.obj
 0001:0002f2ad       ?check_item_size@LISTBOX_CLASS@@AAEEH@Z 004302ad f   v5subs:listbox.obj
 0001:0002f2e4       ?convert_tab_array_to_dialog_units@LISTBOX_CLASS@@AAE_NPAHH@Z 004302e4 f   v5subs:listbox.obj
 0001:0002f360       ?count@LISTBOX_CLASS@@QAEHXZ 00430360 f   v5subs:listbox.obj
 0001:0002f38a       ?current_index@LISTBOX_CLASS@@QAEHXZ 0043038a f   v5subs:listbox.obj
 0001:0002f3a9       ?empty@LISTBOX_CLASS@@QAEXXZ 004303a9 f   v5subs:listbox.obj
 0001:0002f3c0       ?findprefix@LISTBOX_CLASS@@QAEEPAD@Z 004303c0 f   v5subs:listbox.obj
 0001:0002f403       ?get_select_list@LISTBOX_CLASS@@QAEHPAPAH@Z 00430403 f   v5subs:listbox.obj
 0001:0002f46b       ?init@LISTBOX_CLASS@@QAEEPAUHWND__@@@Z 0043046b f   v5subs:listbox.obj
 0001:0002f4cc       ?init@LISTBOX_CLASS@@QAEEPAUHWND__@@H@Z 004304cc f   v5subs:listbox.obj
 0001:0002f4e9       ?insert@LISTBOX_CLASS@@QAEHHPAD@Z 004304e9 f   v5subs:listbox.obj
 0001:0002f52c       ?is_selected@LISTBOX_CLASS@@QAEEH@Z 0043052c f   v5subs:listbox.obj
 0001:0002f551       ?item_text@LISTBOX_CLASS@@QAEPADH@Z 00430551 f   v5subs:listbox.obj
 0001:0002f599       ?redraw_off@LISTBOX_CLASS@@QAEXXZ 00430599 f   v5subs:listbox.obj
 0001:0002f5a8       ?redraw_on@LISTBOX_CLASS@@QAEXXZ 004305a8 f   v5subs:listbox.obj
 0001:0002f5c7       ?remove@LISTBOX_CLASS@@QAEEH@Z 004305c7 f   v5subs:listbox.obj
 0001:0002f5f3       ?replace@LISTBOX_CLASS@@QAEEPAD@Z 004305f3 f   v5subs:listbox.obj
 0001:0002f64f       ?select_all@LISTBOX_CLASS@@QAEXI@Z 0043064f f   v5subs:listbox.obj
 0001:0002f698       ?select_count@LISTBOX_CLASS@@QAEHXZ 00430698 f   v5subs:listbox.obj
 0001:0002f6c2       ?selected_index@LISTBOX_CLASS@@QAEHXZ 004306c2 f   v5subs:listbox.obj
 0001:0002f6ed       ?selected_text@LISTBOX_CLASS@@QAEPADXZ 004306ed f   v5subs:listbox.obj
 0001:0002f70b       ?set_current_index@LISTBOX_CLASS@@QAEEH@Z 0043070b f   v5subs:listbox.obj
 0001:0002f732       ?set_pixel_tabs@LISTBOX_CLASS@@QAE_NPAHH@Z 00430732 f   v5subs:listbox.obj
 0001:0002f76e       ?set_select@LISTBOX_CLASS@@QAEXHE@Z 0043076e f   v5subs:listbox.obj
 0001:0002f78a       ?set_tabs@LISTBOX_CLASS@@QAE_NHH@Z 0043078a f   v5subs:listbox.obj
 0001:0002f867       ?set_top_index@LISTBOX_CLASS@@QAEEH@Z 00430867 f   v5subs:listbox.obj
 0001:0002f88e       ?setcursel@LISTBOX_CLASS@@QAEEH@Z 0043088e f   v5subs:listbox.obj
 0001:0002f8cf       ?setcursel@LISTBOX_CLASS@@QAEEPAD@Z 004308cf f   v5subs:listbox.obj
 0001:0002f916       ?top_index@LISTBOX_CLASS@@QAEHXZ 00430916 f   v5subs:listbox.obj
 0001:0002f935       ?visible_row_count@LISTBOX_CLASS@@QAEHXZ 00430935 f   v5subs:listbox.obj
 0001:0002f99c       ??0MACHINE_CLASS@@QAE@XZ   0043099c f   v5subs:machine.obj
 0001:0002f9f5       ?find@MACHINE_CLASS@@QAEEAAVSTRING_CLASS@@0@Z 004309f5 f   v5subs:machine.obj
 0001:0002fc44       ?init@MACHINE_CLASS@@QAEXXZ 00430c44 f   v5subs:machine.obj
 0001:0002fcc0       ?init_save_counts@@YAXPAUSAVE_COUNTS@@@Z 00430cc0 f   v5subs:machine.obj
 0001:0002fcd9       ?read_machset_db@MACHINE_CLASS@@QAEEAAVSTRING_CLASS@@@Z 00430cd9 f   v5subs:machine.obj
 0001:00030258       ??1GENERIC_LIST_CLASS@@QAE@XZ 00431258 f   v5subs:genlist.obj
 0001:0003027a       ?append@GENERIC_LIST_CLASS@@QAEEPAX@Z 0043127a f   v5subs:genlist.obj
 0001:000302b0       ?count@GENERIC_LIST_CLASS@@QAEFXZ 004312b0 f   v5subs:genlist.obj
 0001:000302bc       ?find@GENERIC_LIST_CLASS@@QAEEPAX@Z 004312bc f   v5subs:genlist.obj
 0001:000302f4       ?insert@GENERIC_LIST_CLASS@@QAEEPAX@Z 004312f4 f   v5subs:genlist.obj
 0001:00030344       ?next@GENERIC_LIST_CLASS@@QAEPAXXZ 00431344 f   v5subs:genlist.obj
 0001:0003036e       ?remove@GENERIC_LIST_CLASS@@QAEEPAX@Z 0043136e f   v5subs:genlist.obj
 0001:0003038d       ?remove@GENERIC_LIST_CLASS@@QAEEXZ 0043138d f   v5subs:genlist.obj
 0001:000303bc       ?remove_all@GENERIC_LIST_CLASS@@QAEXXZ 004313bc f   v5subs:genlist.obj
 0001:000303e5       ?rewind@GENERIC_LIST_CLASS@@QAEXXZ 004313e5 f   v5subs:genlist.obj
 0001:000303ee       ??0CONTROL_LIMIT_CLASS@@QAE@XZ 004313ee f   ctrlimit.obj
 0001:000303ee       ??0TEXT_LIST_CLASS@@QAE@XZ 004313ee f   v5subs:textlist.obj
 0001:000303ee       ??0MACHINE_NAME_LIST_CLASS@@QAE@XZ 004313ee f   v5subs:machname.obj
 0001:000303fe       ??1MACHINE_NAME_LIST_CLASS@@QAE@XZ 004313fe f   v5subs:machname.obj
 0001:0003040f       ??_GMACHINE_NAME_LIST_ENTRY@@QAEPAXI@Z 0043140f f i v5subs:machname.obj
 0001:00030435       ?add@MACHINE_NAME_LIST_CLASS@@QAEEAAVSTRING_CLASS@@0G@Z 00431435 f   v5subs:machname.obj
 0001:0003048a       ?add@MACHINE_NAME_LIST_CLASS@@QAEEPAUMACHINE_NAME_LIST_ENTRY@@G@Z 0043148a f   v5subs:machname.obj
 0001:0003053c       ?add_computer@MACHINE_NAME_LIST_CLASS@@QAEEAAVSTRING_CLASS@@@Z 0043153c f   v5subs:machname.obj
 0001:0003069e       ?computer_name@MACHINE_NAME_LIST_CLASS@@QAEAAVSTRING_CLASS@@XZ 0043169e f   v5subs:machname.obj
 0001:000306aa       ?empty@MACHINE_NAME_LIST_CLASS@@QAEXXZ 004316aa f   v5subs:machname.obj
 0001:000306d6       ?find@MACHINE_NAME_LIST_CLASS@@QAEEAAVSTRING_CLASS@@@Z 004316d6 f   v5subs:machname.obj
 0001:00030707       ?find@MACHINE_NAME_LIST_CLASS@@QAEEPAD@Z 00431707 f   v5subs:machname.obj
 0001:00030756       ?get_computer_name@MACHINE_NAME_LIST_CLASS@@QAEEAAVSTRING_CLASS@@0@Z 00431756 f   v5subs:machname.obj
 0001:00030789       ?name@MACHINE_NAME_LIST_CLASS@@QAEAAVSTRING_CLASS@@XZ 00431789 f   v5subs:machname.obj
 0001:00030799       ?remove@MACHINE_NAME_LIST_CLASS@@QAEXXZ 00431799 f   v5subs:machname.obj
 0001:000307b7       ??0PARAMETER_CLASS@@QAE@XZ 004317b7 f   v5subs:param.obj
 0001:000307e6       ?count@PARAMETER_CLASS@@QAEFXZ 004317e6 f   v5subs:param.obj
 0001:00030804       ?find@PARAMETER_CLASS@@QAEEAAVSTRING_CLASS@@00@Z 00431804 f   v5subs:param.obj
 0001:0003086a       ?init@PARAMETER_CLASS@@QAEXF@Z 0043186a f   v5subs:param.obj
 0001:000308b4       ?read_param_db@PARAMETER_CLASS@@QAEEAAVSTRING_CLASS@@@Z 004318b4 f   v5subs:param.obj
 0001:00030a1b       ??0PART_CLASS@@QAE@XZ      00431a1b f   v5subs:part.obj
 0001:00030a49       ??1PART_CLASS@@QAE@XZ      00431a49 f   v5subs:part.obj
 0001:00030a6f       ?find@PART_CLASS@@QAEEAAVSTRING_CLASS@@00@Z 00431a6f f   v5subs:part.obj
 0001:00030bbe       ?init@PART_CLASS@@QAEXXZ   00431bbe f   v5subs:part.obj
 0001:00030c91       ?plunger_area@PART_CLASS@@QAENXZ 00431c91 f   v5subs:part.obj
 0001:00030cdc       ?read_ftchan_db@PART_CLASS@@QAEEAAVSTRING_CLASS@@@Z 00431cdc f   v5subs:part.obj
 0001:00030d88       ?read_part_setup@PART_CLASS@@QAEEAAVSTRING_CLASS@@@Z 00431d88 f   v5subs:part.obj
 0001:00030daf       ?read_x4_divisor@PART_CLASS@@QAEEXZ 00431daf f   v5subs:part.obj
 0001:00030ef6       ?update@PART_CLASS@@QAEEXZ 00431ef6 f   v5subs:part.obj
 0001:000312da       ??4TIME_CLASS@@QAEXPBD@Z   004322da f   v5subs:timeclas.obj
 0001:00031364       ??GTIME_CLASS@@QAEJABV0@@Z 00432364 f   v5subs:timeclas.obj
 0001:00031371       ??ZTIME_CLASS@@QAEXK@Z     00432371 f   v5subs:timeclas.obj
 0001:00031387       ?dd@TIME_CLASS@@QAEPADXZ   00432387 f   v5subs:timeclas.obj
 0001:00031394       ?get@TIME_CLASS@@QAEEAAU_SYSTEMTIME@@@Z 00432394 f   v5subs:timeclas.obj
 0001:0003148f       ?get_local_time@TIME_CLASS@@QAEXXZ 0043248f f   v5subs:timeclas.obj
 0001:000314c6       ?hhmmss@TIME_CLASS@@QAEPADXZ 004324c6 f   v5subs:timeclas.obj
 0001:0003156b       ?mmddyyyy@TIME_CLASS@@QAEPADXZ 0043256b f   v5subs:timeclas.obj
 0001:000315b4       ?set@TIME_CLASS@@QAEEABU_FILETIME@@@Z 004325b4 f   v5subs:timeclas.obj
 0001:000315f3       ?set@TIME_CLASS@@QAEEABU_SYSTEMTIME@@@Z 004325f3 f   v5subs:timeclas.obj
 0001:00031694       ?set_time@TIME_CLASS@@QAEXPBD@Z 00432694 f   v5subs:timeclas.obj
 0001:000316e9       ?system_time@TIME_CLASS@@QAEAAU_SYSTEMTIME@@XZ 004326e9 f   v5subs:timeclas.obj
 0001:000316f9       ?text@TIME_CLASS@@QAEPADXZ 004326f9 f   v5subs:timeclas.obj
 0001:00031760       ??0PLOOKUP_CLASS@@QAE@XZ   00432760 f   v5subs:plookup.obj
 0001:00031774       ??1PLOOKUP_CLASS@@QAE@XZ   00432774 f   v5subs:plookup.obj
 0001:00031787       ?get@PLOOKUP_CLASS@@QAEHXZ 00432787 f   v5subs:plookup.obj
 0001:00031791       ?get_last_shot_number@PLOOKUP_CLASS@@QAEHAAVSTRING_CLASS@@00@Z 00432791 f   v5subs:plookup.obj
 0001:000317da       ?get_last_shot_number@PLOOKUP_CLASS@@QAEHXZ 004327da f   v5subs:plookup.obj
 0001:00031800       ?get_time@PLOOKUP_CLASS@@QAEEAAVTIME_CLASS@@@Z 00432800 f   v5subs:plookup.obj
 0001:0003188d       ?init@PLOOKUP_CLASS@@QAEEAAVSTRING_CLASS@@00@Z 0043288d f   v5subs:plookup.obj
 0001:000318a9       ??0PART_NAME_ENTRY@@QAE@XZ 004328a9 f   v5subs:structs.obj
 0001:000318c5       ??4PART_NAME_ENTRY@@QAEXABU0@@Z 004328c5 f   v5subs:structs.obj
 0001:000318f0       ??4PROFILE_NAME_ENTRY@@QAEXABU0@@Z 004328f0 f   v5subs:structs.obj
 0001:00031909       ?ft_channel_number@CURVE_DATA@@QAEFXZ 00432909 f   v5subs:structs.obj
 0001:00031923       ?ft_channel_type@CURVE_DATA@@QAEGXZ 00432923 f   v5subs:structs.obj
 0001:00031944       ?is_equal@PART_NAME_ENTRY@@QAEEABVSTRING_CLASS@@00@Z 00432944 f   v5subs:structs.obj
 0001:0003197d       ?set@PROFILE_NAME_ENTRY@@QAEXABVSTRING_CLASS@@000@Z 0043297d f   v5subs:structs.obj
 0001:000319b1       ??0ALARM_SUMMARY_CLASS@@QAE@XZ 004329b1 f   v5subs:alarmsum.obj
 0001:000319de       ??1ALARM_SUMMARY_CLASS@@QAE@XZ 004329de f   v5subs:alarmsum.obj
 0001:000319f6       ?add@ALARM_SUMMARY_CLASS@@QAEPAUALARM_COUNTS_ENTRY@@J@Z 004329f6 f   v5subs:alarmsum.obj
 0001:00031a4f       ?count@ALARM_SUMMARY_CLASS@@QAEJJJ@Z 00432a4f f   v5subs:alarmsum.obj
 0001:00031a74       ?empty@ALARM_SUMMARY_CLASS@@QAEXXZ 00432a74 f   v5subs:alarmsum.obj
 0001:00031aab       ?find@ALARM_SUMMARY_CLASS@@QAEPAUALARM_COUNTS_ENTRY@@J@Z 00432aab f   v5subs:alarmsum.obj
 0001:00031ada       ?get_counts@ALARM_SUMMARY_CLASS@@QAEEAAU_SYSTEMTIME@@@Z 00432ada f   v5subs:alarmsum.obj
 0001:00031b2f       ?get_counts@ALARM_SUMMARY_CLASS@@QAEEAAU_SYSTEMTIME@@J@Z 00432b2f f   v5subs:alarmsum.obj
 0001:00031b85       ?get_counts@ALARM_SUMMARY_CLASS@@QAEEAAU_SYSTEMTIME@@JPAD@Z 00432b85 f   v5subs:alarmsum.obj
 0001:00031dd8       ?get_counts@ALARM_SUMMARY_CLASS@@QAEEXZ 00432dd8 f   v5subs:alarmsum.obj
 0001:00031e54       ?set_part@ALARM_SUMMARY_CLASS@@QAEXAAVSTRING_CLASS@@00@Z 00432e54 f   v5subs:alarmsum.obj
 0001:00031e7c       ??0MARKS_CLASS@@QAE@XZ     00432e7c f   v5subs:marks.obj
 0001:00031eb5       ?load@MARKS_CLASS@@QAEEAAVSTRING_CLASS@@00@Z 00432eb5 f   v5subs:marks.obj
 0001:000321b9       ??0RECTANGLE_CLASS@@QAE@XZ 004331b9 f   v5subs:rectclas.obj
 0001:000321c9       ??4RECTANGLE_CLASS@@QAEXABUtagRECT@@@Z 004331c9 f   v5subs:rectclas.obj
 0001:000321c9       ??4RECTANGLE_CLASS@@QAEXABV0@@Z 004331c9 f   v5subs:rectclas.obj
 0001:000321e6       ?contains@RECTANGLE_CLASS@@QAEEABUtagPOINT@@@Z 004331e6 f   v5subs:rectclas.obj
 0001:0003220b       ?draw@RECTANGLE_CLASS@@QAEXPAUHDC__@@@Z 0043320b f   v5subs:rectclas.obj
 0001:00032250       ?draw@RECTANGLE_CLASS@@QAEXPAUHDC__@@K@Z 00433250 f   v5subs:rectclas.obj
 0001:00032295       ?fill@RECTANGLE_CLASS@@QAEXPAUHDC__@@K@Z 00433295 f   v5subs:rectclas.obj
 0001:000322d7       ?moveto@RECTANGLE_CLASS@@QAEXJJ@Z 004332d7 f   v5subs:rectclas.obj
 0001:000322f8       ?offset@RECTANGLE_CLASS@@QAEXJJ@Z 004332f8 f   v5subs:rectclas.obj
 0001:0003230e       ?setsize@RECTANGLE_CLASS@@QAEXJJ@Z 0043330e f   v5subs:rectclas.obj
 0001:0003230e       ?setsize@RECTANGLE_CLASS@@QAEXUtagSIZE@@@Z 0043330e f   v5subs:rectclas.obj
 0001:00032324       ?check@TEXT_LEN_CLASS@@QAEXPAD@Z 00433324 f   v5subs:textlen.obj
 0001:00032367       ??1TEXT_LIST_CLASS@@QAE@XZ 00433367 f   v5subs:textlist.obj
 0001:00032378       ?append@TEXT_LIST_CLASS@@QAEEPADJ@Z 00433378 f   v5subs:textlist.obj
 0001:000323e6       ?empty@TEXT_LIST_CLASS@@QAEXXZ 004333e6 f   v5subs:textlist.obj
 0001:00032410       ?find@TEXT_LIST_CLASS@@QAEEPADJ@Z 00433410 f   v5subs:textlist.obj
 0001:0003244a       ?get_directory_list@TEXT_LIST_CLASS@@QAEXPBD@Z 0043344a f   v5subs:textlist.obj
 0001:000324fe       ?next@MACHINE_NAME_LIST_CLASS@@QAEEXZ 004334fe f   v5subs:machname.obj
 0001:000324fe       ?next@CONTROL_LIMIT_CLASS@@QAEEXZ 004334fe f   ctrlimit.obj
 0001:000324fe       ?next@TEXT_LIST_CLASS@@QAEEXZ 004334fe f   v5subs:textlist.obj
 0001:00032512       ?remove@TEXT_LIST_CLASS@@QAEEXZ 00433512 f   v5subs:textlist.obj
 0001:00032535       ??0STRING_ARRAY_CLASS@@QAE@XZ 00433535 f   v5subs:strarray.obj
 0001:0003256b       ??1STRING_ARRAY_CLASS@@QAE@XZ 0043356b f   v5subs:strarray.obj
 0001:000325a9       ??4STRING_ARRAY_CLASS@@QAEAAV0@PBD@Z 004335a9 f   v5subs:strarray.obj
 0001:00032603       ??YSTRING_ARRAY_CLASS@@QAEXPBD@Z 00433603 f   v5subs:strarray.obj
 0001:00032676       ?add@STRING_ARRAY_CLASS@@QAE_NPBD@Z 00433676 f   v5subs:strarray.obj
 0001:000326a9       ?add@STRING_ARRAY_CLASS@@QAE_NXZ 004336a9 f   v5subs:strarray.obj
 0001:000326ee       ?empty@STRING_ENTRY@@QAEXXZ 004336ee f   v5subs:strarray.obj
 0001:0003270a       ?find@STRING_ARRAY_CLASS@@QAE_NH@Z 0043370a f   v5subs:strarray.obj
 0001:00032748       ?init@STRING_ARRAY_CLASS@@QAE_NH@Z 00433748 f   v5subs:strarray.obj
 0001:000327a2       ?join@STRING_ARRAY_CLASS@@QAE_NPBD@Z 004337a2 f   v5subs:strarray.obj
 0001:00032866       ?len@STRING_ARRAY_CLASS@@QAEHXZ 00433866 f   v5subs:strarray.obj
 0001:0003287c       ?next@STRING_ARRAY_CLASS@@QAE_NXZ 0043387c f   v5subs:strarray.obj
 0001:0003289d       ?remove@STRING_ARRAY_CLASS@@QAE_NXZ 0043389d f   v5subs:strarray.obj
 0001:000328fb       ?split@STRING_ARRAY_CLASS@@QAE_NPBD@Z 004338fb f   v5subs:strarray.obj
 0001:00032998       ?swap@STRING_ARRAY_CLASS@@QAEXHH@Z 00433998 f   v5subs:strarray.obj
 0001:00032a73       ??0STRINGTABLE_CLASS@@QAE@XZ 00433a73 f   v5subs:stringtable.obj
 0001:00032ab0       ??1STRINGTABLE_CLASS@@QAE@XZ 00433ab0 f   v5subs:stringtable.obj
 0001:00032ac9       ??_ESTRINGTABLE_ENTRY@@QAEPAXI@Z 00433ac9 f i v5subs:stringtable.obj
 0001:00032b19       ?acquire@STRINGTABLE_ENTRY@@QAEXAAV1@@Z 00433b19 f   v5subs:stringtable.obj
 0001:00032b3a       ?append@STRINGTABLE_CLASS@@QAE_NAAVSTRING_CLASS@@@Z 00433b3a f   v5subs:stringtable.obj
 0001:00032daf       ?cleanup@STRINGTABLE_CLASS@@QAEXXZ 00433daf f   v5subs:stringtable.obj
 0001:00032dce       ?cleanup@STRINGTABLE_ENTRY@@QAEXXZ 00433dce f   v5subs:stringtable.obj
 0001:00032df6       ?find@STRINGTABLE_CLASS@@QAEPADPAD@Z 00433df6 f   v5subs:stringtable.obj
 0001:00032e65       ?read@STRINGTABLE_CLASS@@QAE_NAAVSTRING_CLASS@@@Z 00433e65 f   v5subs:stringtable.obj
 0001:00032eb7       ??0PARAM_INDEX_CLASS@@QAE@XZ 00433eb7 f   v5subs:param_index_class.obj
 0001:00032ec5       ?load@PARAM_INDEX_CLASS@@QAE_NAAVSTRING_CLASS@@00@Z 00433ec5 f   v5subs:param_index_class.obj
 0001:00032fb5       ?parameter_number@PARAM_INDEX_CLASS@@QAEHH@Z 00433fb5 f   v5subs:param_index_class.obj
 0001:00032fc8       ?adjust_for_units@@YAMFMF@Z 00433fc8 f   v5subs:unitadj.obj
 0001:00032ff0       ?adjust_for_units@@YANFNF@Z 00433ff0 f   v5subs:unitadj.obj
 0001:0003352c       ?dups_to_vu@@YANFF@Z       0043452c f   v5subs:unitadj.obj
 0001:000335a3       ?alphadate@@YAEPADABU_SYSTEMTIME@@@Z 004345a3 f   v5subs:time.obj
 0001:000335fb       ?alphadate@@YAPADABU_SYSTEMTIME@@@Z 004345fb f   v5subs:time.obj
 0001:00033611       ?alphatime@@YAEPADABU_SYSTEMTIME@@@Z 00434611 f   v5subs:time.obj
 0001:0003366a       ?alphatime@@YAPADABU_SYSTEMTIME@@@Z 0043466a f   v5subs:time.obj
 0001:00033680       ?exthms@@YAEAAU_SYSTEMTIME@@PBD@Z 00434680 f   v5subs:time.obj
 0001:000336e2       ?extmdy@@YAEAAU_SYSTEMTIME@@PBD@Z 004346e2 f   v5subs:time.obj
 0001:00033752       ?getday@@YAXPADF@Z         00434752 f   v5subs:time.obj
 0001:0003377b       ?hhmm@@YAPADJJ@Z           0043477b f   v5subs:time.obj
 0001:000337ba       ?init_systemtime_struct@@YAXAAU_SYSTEMTIME@@@Z 004347ba f   v5subs:time.obj
 0001:000337ce       ?is_numeric@@YAED@Z        004347ce f   v5subs:time.obj
 0001:000337ef       ?samedate@@YAEABU_SYSTEMTIME@@0@Z 004347ef f   v5subs:time.obj
 0001:00033818       ?ascii_double@@YAPADN@Z    00434818 f   v5subs:ascfloat.obj
 0001:00033838       ?ascii_float@@YAPADM@Z     00434838 f   v5subs:ascfloat.obj
 0001:00033850       ?bool_to_ini@@YAXPBD00_N@Z 00434850 f   v5subs:get_ini.obj
 0001:00033886       ?boolean_from_ini@@YAEPBD00@Z 00434886 f   v5subs:get_ini.obj
 0001:000338a6       ?boolean_to_ini@@YAXPBD00E@Z 004348a6 f   v5subs:get_ini.obj
 0001:000338dc       ?get_ini_string@@YAPADPBD00@Z 004348dc f   v5subs:get_ini.obj
 0001:00033900       ?get_long_ini_string@@YAPADPBD00@Z 00434900 f   v5subs:get_ini.obj
 0001:00033974       ?int32_from_ini@@YAJPBD00@Z 00434974 f   v5subs:get_ini.obj
 0001:0003398f       ?int32_to_ini@@YAXPBD00J@Z 0043498f f   v5subs:get_ini.obj
 0001:000339d9       ?put_ini_string@@YAXPBD000@Z 004349d9 f   v5subs:get_ini.obj
 0001:00033a4c       ?ul_from_ini@@YAKPBD00@Z   00434a4c f   v5subs:get_ini.obj
 0001:00033a67       ?ul_to_ini@@YAXPBD00K@Z    00434a67 f   v5subs:get_ini.obj
 0001:00033ab1       ??0EVENT_ENTRY@@QAE@XZ     00434ab1 f i v5subs:client.obj
 0001:00033ac8       ??_GEVENT_ENTRY@@QAEPAXI@Z 00434ac8 f i v5subs:client.obj
 0001:00033aee       ?client_dde_shutdown@@YAXXZ 00434aee f   v5subs:client.obj
 0001:00033baa       ?client_dde_startup@@YAXPAUHWND__@@@Z 00434baa f   v5subs:client.obj
 0001:00033bb8       ?client_dde_startup@@YAXXZ 00434bb8 f   v5subs:client.obj
 0001:00033c4c       ?connect_to_server@@YAPAUHCONV__@@PAD@Z 00434c4c f   v5subs:client.obj
 0001:00033caf       ?connect_to_server@@YAXXZ  00434caf f   v5subs:client.obj
 0001:00033d17       ?dde_callback@@YGPAUHDDEDATA__@@IIPAUHCONV__@@PAUHSZ__@@1PAU1@KK@Z 00434d17 f   v5subs:client.obj
 0001:00033e0b       ?find_conversation@@YAPAUEVENT_ENTRY@@PAUHCONV__@@@Z 00434e0b f   v5subs:client.obj
 0001:00033ea6       ?get_current_password_level@@YAXXZ 00434ea6 f   v5subs:client.obj
 0001:00033eeb       ?get_dde_data@@YAEAAVSTRING_CLASS@@PAUHDDEDATA__@@@Z 00434eeb f   v5subs:client.obj
 0001:00033f4f       ?hot_links@@YAXPAUEVENT_ENTRY@@I@Z 00434f4f f   v5subs:client.obj
 0001:00033f88       ?one_hot_link@@YAXPAUHCONV__@@FI@Z 00434f88 f   v5subs:client.obj
 0001:00034149       ?poke_data@@YAXPAD00@Z     00435149 f   v5subs:client.obj
 0001:0003423d       ?register_for_event@@YAXPADFP6AX0FPAUHDDEDATA__@@@Z@Z 0043523d f   v5subs:client.obj
 0001:00034304       ?unregister_for_event@@YAXPADF@Z 00435304 f   v5subs:client.obj
 0001:000343a8       ?dcurve_shutdown@@YAXXZ    004353a8 f   v5subs:dcurve.obj
 0001:000343ad       ?dcurve_startup@@YAEXZ     004353ad f   v5subs:dcurve.obj
 0001:000343b2       ?get_dcurve_coefficients@@YAEAAM0F@Z 004353b2 f   v5subs:dcurve.obj
 0001:0003441e       ?get_dcurve_coefficients@@YAEAAN0H@Z 0043541e f   v5subs:dcurve.obj
 0001:000345b8       ?double_to_tchar@@YA_NPADNH@Z 004355b8 f   v5subs:dtotchar.obj
 0001:000346bf       ?rounded_double_to_tchar@@YA_NPADN@Z 004356bf f   v5subs:dtotchar.obj
 0001:00034721       ?append_backslash_to_path@@YAXPAD@Z 00435721 f   v5subs:path.obj
 0001:0003474a       ?append_filename_to_path@@YAXPADPBD@Z 0043574a f   v5subs:path.obj
 0001:00034763       ?catpath@@YAPADPADPBD@Z    00435763 f   v5subs:path.obj
 0001:000347a7       ?create_directory@@YAEPAD@Z 004357a7 f   v5subs:path.obj
 0001:000348b9       ?dir_from_command_line@@YAEPAD@Z 004358b9 f   v5subs:path.obj
 0001:000348e1       ?dir_from_filename@@YAEPAD@Z 004358e1 f   v5subs:path.obj
 0001:00034930       ?execute@@YAEPAD@Z         00435930 f   v5subs:path.obj
 0001:0003495c       ?remove_backslash_from_path@@YAXPAD@Z 0043595c f   v5subs:path.obj
 0001:00034986       ?root_from_path@@YAEAAVSTRING_CLASS@@@Z 00435986 f   v5subs:path.obj
 0001:00034a0d       ?get_time_class_from_db@@YAEAAVTIME_CLASS@@AAVDB_TABLE@@G@Z 00435a0d f   v5subs:get_tc.obj
 0001:00034a75       ?fix_dde_name@@YAXPAD@Z    00435a75 f   v5subs:fix.obj
 0001:00034aa5       ?fix_shotname@@YAXPAD@Z    00435aa5 f   v5subs:fix.obj
 0001:00034afc       ?free_shotsave_semaphore@@YAXXZ 00435afc f   v5subs:semaphor.obj
 0001:00034b06       ?get_shotsave_semaphore@@YAEAAVSTRING_CLASS@@0@Z 00435b06 f   v5subs:semaphor.obj
 0001:00034b92       ?waitfor_shotsave_semaphor@@YAEAAVSTRING_CLASS@@0@Z 00435b92 f   v5subs:semaphor.obj
 0001:00034c05       ?fixed_string@@YAPADNJJ@Z  00435c05 f   v5subs:ftoasc.obj
 0001:00034d28       ?ftoasc@@YAXPADM@Z         00435d28 f   v5subs:ftoasc.obj
 0001:00034e40       ?exe_directory@@YAPBDXZ    00435e40 f   v5subs:gexedir.obj
 0001:00034e66       ?get_exe_directory@@YAEPAD@Z 00435e66 f   v5subs:gexedir.obj
 0001:00034f21       ?insalph@@YAXPADJJDJ@Z     00435f21 f   v5subs:insalph.obj
 0001:00034f72       ?insalph@@YAXPADMJD@Z      00435f72 f   v5subs:insalph.obj
 0001:00034fc8       ?machine_computer_name@@YAEAAVSTRING_CLASS@@0@Z 00435fc8 f   v5subs:machcomp.obj
 0001:00035027       ?machine_exists@@YAEAAVSTRING_CLASS@@0@Z 00436027 f   v5subs:mexists.obj
 0001:0003506d       ?category_name@@YAPADPAD@Z 0043606d f   v5subs:downsubs.obj
 0001:0003512e       ?make_downtime_event_string@@YAPADAAVSTRING_CLASS@@0AAU_SYSTEMTIME@@PAD22@Z 0043612e f   v5subs:downsubs.obj
 0001:00035244       ?subcategory_name@@YAPADPAD0@Z 00436244 f   v5subs:downsubs.obj
 0001:0003536f       ?maxfloat@@YAXAAMM@Z       0043636f f   v5subs:maximize.obj
 0001:00035383       ?maxint32@@YAXAAJJ@Z       00436383 f   v5subs:maximize.obj
 0001:00035383       ?maxint@@YAXAAHH@Z         00436383 f   v5subs:maximize.obj
 0001:00035392       ?maxunsigned@@YAXAAII@Z    00436392 f   v5subs:maximize.obj
 0001:000353a1       ?minfloat@@YAXAAMM@Z       004363a1 f   v5subs:maximize.obj
 0001:000353b9       ?minint@@YAXAAHH@Z         004363b9 f   v5subs:maximize.obj
 0001:000353c8       ?is_float_zero@@YAEM@Z     004363c8 f   v5subs:zero.obj
 0001:000353f8       ?not_float_zero@@YAEM@Z    004363f8 f   v5subs:zero.obj
 0001:00035428       ?not_zero@@YA_NN@Z         00436428 f   v5subs:zero.obj
 0001:0003544b       ?pixel_equation@@YAXAAM0JJMM@Z 0043644b f   v5subs:plotsubs.obj
 0001:000354e2       ?plot_data@@YAXPAUHDC__@@AAUtagRECT@@MMMMPAM2J@Z 004364e2 f   v5subs:plotsubs.obj
 0001:00035662       ?running_average@@YAMPAMJJ@Z 00436662 f   v5subs:plotsubs.obj
 0001:00035728       ?set_smooth@@YAXJM@Z       00436728 f   v5subs:plotsubs.obj
 0001:00035765       ?mask_from_wire@@YAII@Z    00436765 f   v5subs:misc.obj
 0001:00035774       ?round@@YANNN@Z            00436774 f   v5subs:misc.obj
 0001:000357b8       ?unknown@@YAEPAD@Z         004367b8 f   v5subs:misc.obj
 0001:0003581a       ?dow_from_string@@YAFPAD@Z 0043681a f   v5subs:shift.obj
 0001:00035869       ?get_shift_number_and_date@@YAXPAFPAU_SYSTEMTIME@@ABU1@@Z 00436869 f   v5subs:shift.obj
 0001:000358d9       ?minutes_past_sunday@@YAFABU_SYSTEMTIME@@@Z 004368d9 f   v5subs:shift.obj
 0001:00035a2a       ?shift_number@@YAFPAFABU_SYSTEMTIME@@@Z 00436a2a f   v5subs:shift.obj
 0001:00035a7f       ?shifts_shutdown@@YAXXZ    00436a7f f   v5subs:shift.obj
 0001:00035a90       ?shifts_startup@@YAEXZ     00436a90 f   v5subs:shift.obj
 0001:00035c42       ?start_of_shift@@YAAAU_SYSTEMTIME@@ABU1@@Z 00436c42 f   v5subs:shift.obj
 0001:00035ca8       ?hextoul@@YAKPBD@Z         00436ca8 f   v5subs:hex.obj
 0001:00035d1a       ?is_hex_char@@YAED@Z       00436d1a f   v5subs:hex.obj
 0001:00035d34       ?ultohex@@YAPADK@Z         00436d34 f   v5subs:hex.obj
 0001:00035d79       ?units_name@@YAPADF@Z      00436d79 f   v5subs:units.obj
 0001:00035da0       ?units_shutdown@@YAXXZ     00436da0 f   v5subs:units.obj
 0001:00035db8       ?units_startup@@YAEXZ      00436db8 f   v5subs:units.obj
 0001:00035f09       ?average_character_width@@YAJPAUHDC__@@@Z 00436f09 f   v5subs:winsubs.obj
 0001:00035f38       ?character_height@@YAJPAUHDC__@@@Z 00436f38 f   v5subs:winsubs.obj
 0001:00035f67       ?create_font@@YAPAUHFONT__@@PAUHDC__@@JJPAD@Z 00436f67 f   v5subs:winsubs.obj
 0001:00035ffd       ?desktop_client_rect@@YA?AUtagRECT@@XZ 00436ffd f   v5subs:winsubs.obj
 0001:0003601e       ?draw_rectangle@@YAXPAUHDC__@@AAUtagRECT@@K@Z 0043701e f   v5subs:winsubs.obj
 0001:0003605c       ?eb_select_all@@YAXPAUHWND__@@@Z 0043705c f   v5subs:winsubs.obj
 0001:00036070       ?fill_rectangle@@YAXPAUHDC__@@AAUtagRECT@@K@Z 00437070 f   v5subs:winsubs.obj
 0001:000360ae       ?get_text@@YAEPADPAUHWND__@@H@Z 004370ae f   v5subs:winsubs.obj
 0001:000360d5       ?get_text@@YAEPADPAUHWND__@@HH@Z 004370d5 f   v5subs:winsubs.obj
 0001:000360f5       ?is_a_listbox@@YAEPAUHWND__@@@Z 004370f5 f   v5subs:winsubs.obj
 0001:0003615f       ?is_checked@@YAEPAUHWND__@@H@Z 0043715f f   v5subs:winsubs.obj
 0001:00036175       ?is_previous_instance@@YAEPAD0@Z 00437175 f   v5subs:winsubs.obj
 0001:000361a2       ?limit_text@@YAXPAUHWND__@@H@Z 004371a2 f   v5subs:winsubs.obj
 0001:000361b8       ?limit_text@@YAXPAUHWND__@@HH@Z 004371b8 f   v5subs:winsubs.obj
 0001:000361d3       ?pixel_width@@YAJPAUHDC__@@PAD@Z 004371d3 f   v5subs:winsubs.obj
 0001:000361f9       ?pixel_width@@YAJPAUHDC__@@PADJ@Z 004371f9 f   v5subs:winsubs.obj
 0001:00036218       ?resource_message_box@@YAHPAUHINSTANCE__@@III@Z 00437218 f   v5subs:winsubs.obj
 0001:00036233       ?resource_message_box@@YAHPAUHWND__@@PAUHINSTANCE__@@III@Z 00437233 f   v5subs:winsubs.obj
 0001:000362cc       ?resource_message_box@@YAXPAUHINSTANCE__@@II@Z 004372cc f   v5subs:winsubs.obj
 0001:000362e8       ?resource_string@@YAPADPAUHINSTANCE__@@I@Z 004372e8 f   v5subs:winsubs.obj
 0001:00036316       ?set_checkbox@@YAXPAUHWND__@@E@Z 00437316 f   v5subs:winsubs.obj
 0001:00036332       ?set_checkbox@@YAXPAUHWND__@@HE@Z 00437332 f   v5subs:winsubs.obj
 0001:0003634d       ?set_listbox_tabs_from_title_positions@@YAXPAUHWND__@@IPAHH@Z 0043734d f   v5subs:winsubs.obj
 0001:00036465       ?set_text@@YAEPAUHWND__@@HPBD@Z 00437465 f   v5subs:winsubs.obj
 0001:00036480       ?set_text@@YAEPAUHWND__@@PBD@Z 00437480 f   v5subs:winsubs.obj
 0001:000364a9       ?shrinkwrap@@YAXPAUHWND__@@0@Z 004374a9 f   v5subs:winsubs.obj
 0001:0003653f       ?hourglass_cursor@@YAXXZ   0043753f f   v5subs:hourglas.obj
 0001:0003656c       ?restore_cursor@@YAXXZ     0043756c f   v5subs:hourglas.obj
 0001:0003658f       ?center_temp_message@@YAXXZ 0043758f f   v5subs:temp_message.obj
 0001:00036758       ?register_temp_message@@YAXXZ 00437758 f   v5subs:temp_message.obj
 0001:000367be       ?temp_message@@YAXPAD@Z    004377be f   v5subs:temp_message.obj
 0001:000367cf       ?temp_message@@YAXPADH@Z   004377cf f   v5subs:temp_message.obj
 0001:00036885       ?temp_message_proc@@YGJPAUHWND__@@IIJ@Z 00437885 f   v5subs:temp_message.obj
 0001:0003694c       ??0FTII_ARRAY_DATA@@QAE@XZ 0043794c f   v5subs:ftii_shot_data.obj
 0001:0003698f       ??0FTII_FILE_DATA@@QAE@XZ  0043798f f   v5subs:ftii_shot_data.obj
 0001:00036a24       ??0FTII_PROFILE@@QAE@XZ    00437a24 f   v5subs:ftii_shot_data.obj
 0001:00036a64       ??1FTII_ARRAY_DATA@@UAE@XZ 00437a64 f   v5subs:ftii_shot_data.obj
 0001:00036a6f       ??1FTII_FILE_DATA@@QAE@XZ  00437a6f f   v5subs:ftii_shot_data.obj
 0001:00036a74       ??1FTII_PROFILE@@UAE@XZ    00437a74 f   v5subs:ftii_shot_data.obj
 0001:00036a90       ??4FTII_ARRAY_DATA@@QAEXABVFTII_FILE_DATA@@@Z 00437a90 f   v5subs:ftii_shot_data.obj
 0001:00037098       ??4FTII_PROFILE@@QAEXABVFTII_FILE_DATA@@@Z 00438098 f   v5subs:ftii_shot_data.obj
 0001:000372e6       ??_GFTII_ARRAY_DATA@@UAEPAXI@Z 004382e6 f i v5subs:ftii_shot_data.obj
 0001:000372e6       ??_EFTII_ARRAY_DATA@@UAEPAXI@Z 004382e6 f i v5subs:ftii_shot_data.obj
 0001:00037308       ??_GFTII_PROFILE@@UAEPAXI@Z 00438308 f i v5subs:ftii_shot_data.obj
 0001:00037308       ??_EFTII_PROFILE@@UAEPAXI@Z 00438308 f i v5subs:ftii_shot_data.obj
 0001:00037324       ?clear@FTII_ARRAY_DATA@@QAEXXZ 00438324 f   v5subs:ftii_shot_data.obj
 0001:000373be       ?clear@FTII_FILE_DATA@@QAEXXZ 004383be f   v5subs:ftii_shot_data.obj
 0001:00037418       ?clear@FTII_PROFILE@@QAEXXZ 00438418 f   v5subs:ftii_shot_data.obj
 0001:0003748c       ?curve_index@FTII_PROFILE@@QAEHH@Z 0043848c f   v5subs:ftii_shot_data.obj
 0001:000374b7       ?get@FTII_FILE_DATA@@QAEEAAVSTRING_CLASS@@@Z 004384b7 f   v5subs:ftii_shot_data.obj
 0001:00037742       ?get@FTII_PROFILE@@QAEEAAVSTRING_CLASS@@@Z 00438742 f   v5subs:ftii_shot_data.obj
 0001:000377b6       ?index_from_position@FTII_ARRAY_DATA@@QAEHN@Z 004387b6 f   v5subs:ftii_shot_data.obj
 0001:000377fa       ?index_from_time@FTII_ARRAY_DATA@@QAEHN@Z 004387fa f   v5subs:ftii_shot_data.obj
 0001:0003787c       ?interpolated_ms@FTII_PROFILE@@QAENN@Z 0043887c f   v5subs:ftii_shot_data.obj
 0001:000378d7       ?interpolated_postion_from_velocity@FTII_PROFILE@@QAENHHH@Z 004388d7 f   v5subs:ftii_shot_data.obj
 0001:00037945       ?interpolated_timer_count@FTII_ARRAY_DATA@@QAEIN@Z 00438945 f   v5subs:ftii_shot_data.obj
 0001:000379e4       ?interpolated_velocity@FTII_ARRAY_DATA@@QAENN@Z 004389e4 f   v5subs:ftii_shot_data.obj
 0001:00037ca2       ?ms@FTII_PROFILE@@QAENH@Z  00438ca2 f   v5subs:ftii_shot_data.obj
 0001:00037cf5       ?ms_between_positions@FTII_PROFILE@@QAENNN@Z 00438cf5 f   v5subs:ftii_shot_data.obj
 0001:00037d73       ?velocity_between_positions@FTII_ARRAY_DATA@@QAENNN@Z 00438d73 f   v5subs:ftii_shot_data.obj
 0001:00037e2d       ?write_csv@FTII_ARRAY_DATA@@QAEXPAD@Z 00438e2d f   v5subs:ftii_shot_data.obj
 0001:00037ff1       ?write_csv@FTII_FILE_DATA@@QAEEAAVSTRING_CLASS@@@Z 00438ff1 f   v5subs:ftii_shot_data.obj
 0001:00038287       ??_EWINDOW_CLASS@@UAEPAXI@Z 00439287 f i v5subs:wclass.obj
 0001:000382d5       ?destroy@WINDOW_CLASS@@QAEXXZ 004392d5 f   v5subs:wclass.obj
 0001:000382ed       ?enable@WINDOW_CLASS@@QAEXE@Z 004392ed f   v5subs:wclass.obj
 0001:00038309       ?get_move_rect@WINDOW_CLASS@@QAEHAAUtagRECT@@@Z 00439309 f   v5subs:wclass.obj
 0001:0003839d       ?getrect@WINDOW_CLASS@@QAEHAAUtagRECT@@@Z 0043939d f   v5subs:wclass.obj
 0001:000383be       ?move@WINDOW_CLASS@@QAEXAAUtagRECT@@@Z 004393be f   v5subs:wclass.obj
 0001:000383e7       ?move@WINDOW_CLASS@@QAEXHHH@Z 004393e7 f   v5subs:wclass.obj
 0001:00038438       ?move@WINDOW_CLASS@@QAEXHHHHH@Z 00439438 f   v5subs:wclass.obj
 0001:0003845d       ?post@WINDOW_CLASS@@QAEXI@Z 0043945d f   v5subs:wclass.obj
 0001:00038477       ?post@WINDOW_CLASS@@QAEXIIJ@Z 00439477 f   v5subs:wclass.obj
 0001:00038495       ?refresh@WINDOW_CLASS@@QAEXXZ 00439495 f   v5subs:wclass.obj
 0001:000384b4       ?set_title@WINDOW_CLASS@@QAEXPAD@Z 004394b4 f   v5subs:wclass.obj
 0001:000384d5       ?show@WINDOW_CLASS@@QAEXH@Z 004394d5 f   v5subs:wclass.obj
 0001:000384eb       ?shrinkwrap@WINDOW_CLASS@@QAEXPAUHWND__@@@Z 004394eb f   v5subs:wclass.obj
 0001:000384fc       ?style@WINDOW_CLASS@@QAEJXZ 004394fc f   v5subs:wclass.obj
 0001:0003850f       ??0MENU_CONTROL_ENTRY@@QAE@XZ 0043950f f   v5subs:menuctrl.obj
 0001:000385c0       ??0MENU_ITEM_ENTRY@@QAE@XZ 004395c0 f   v5subs:menuctrl.obj
 0001:00038610       ??1MENU_CONTROL_ENTRY@@QAE@XZ 00439610 f   v5subs:menuctrl.obj
 0001:0003868a       ??1MENU_ITEM_ENTRY@@QAE@XZ 0043968a f   v5subs:menuctrl.obj
 0001:000386b4       ??_EMENU_ITEM_ENTRY@@QAEPAXI@Z 004396b4 f i v5subs:menuctrl.obj
 0001:00038709       ?create_windows@MENU_CONTROL_ENTRY@@QAEEPADPAUHWND__@@@Z 00439709 f   v5subs:menuctrl.obj
 0001:0003881a       ?destroy_windows@MENU_CONTROL_ENTRY@@QAEXXZ 0043981a f   v5subs:menuctrl.obj
 0001:0003885a       ?do_left_button_down@MENU_CONTROL_ENTRY@@QAEXIJ@Z 0043985a f   v5subs:menuctrl.obj
 0001:0003897b       ?do_left_button_up@MENU_CONTROL_ENTRY@@QAEXIJ@Z 0043997b f   v5subs:menuctrl.obj
 0001:00038a2b       ?do_mousemove@MENU_CONTROL_ENTRY@@QAEXPAUHWND__@@IJ@Z 00439a2b f   v5subs:menuctrl.obj
 0001:00038d49       ?draw@MENU_ITEM_ENTRY@@QAEXPAUHDC__@@@Z 00439d49 f   v5subs:menuctrl.obj
 0001:00038e33       ?draw_rect@MENU_ITEM_ENTRY@@QAEXPAUHDC__@@@Z 00439e33 f   v5subs:menuctrl.obj
 0001:00038ea4       ?draw_submenu_item@MENU_ITEM_ENTRY@@QAEXPAUHDC__@@I@Z 00439ea4 f   v5subs:menuctrl.obj
 0001:00038f65       ?excel_to_csv@@YAXPAD@Z    00439f65 f   v5subs:menuctrl.obj
 0001:00038f99       ?find@MENU_CONTROL_ENTRY@@QAEPAVMENU_ITEM_ENTRY@@I@Z 00439f99 f   v5subs:menuctrl.obj
 0001:00038ff2       ?get@MENU_ITEM_ENTRY@@QAEEPAD@Z 00439ff2 f   v5subs:menuctrl.obj
 0001:00039150       ?menu_control_proc@@YGJPAUHWND__@@IIJ@Z 0043a150 f   v5subs:menuctrl.obj
 0001:000391fe       ?paint_me@MENU_CONTROL_ENTRY@@QAEXPAUHWND__@@@Z 0043a1fe f   v5subs:menuctrl.obj
 0001:000392b9       ?paint_submenu@MENU_CONTROL_ENTRY@@QAEXPAUHWND__@@@Z 0043a2b9 f   v5subs:menuctrl.obj
 0001:0003939a       ?read@MENU_CONTROL_ENTRY@@QAEEAAVNAME_CLASS@@H@Z 0043a39a f   v5subs:menuctrl.obj
 0001:000399d9       ?register_window@MENU_CONTROL_ENTRY@@SAXXZ 0043a9d9 f   v5subs:menuctrl.obj
 0001:00039a8c       ?release_dc@WINDOW_CLASS@@QAEHPAUHDC__@@@Z 0043aa8c f i v5subs:menuctrl.obj
 0001:00039aa6       ?resize@MENU_CONTROL_ENTRY@@QAEEH@Z 0043aaa6 f   v5subs:menuctrl.obj
 0001:00039b3a       ?resize@MENU_CONTROL_ENTRY@@QAEEXZ 0043ab3a f   v5subs:menuctrl.obj
 0001:00039b42       ?set_checkmark@MENU_CONTROL_ENTRY@@QAEEIE@Z 0043ab42 f   v5subs:menuctrl.obj
 0001:00039b6b       ?set_gray@MENU_CONTROL_ENTRY@@QAEEIE@Z 0043ab6b f   v5subs:menuctrl.obj
 0001:00039b94       ?show_submenu@MENU_CONTROL_ENTRY@@QAEXXZ 0043ab94 f   v5subs:menuctrl.obj
 0001:00039c52       ?sub_menu_control_proc@@YGJPAUHWND__@@IIJ@Z 0043ac52 f   v5subs:menuctrl.obj
 0001:00039c8f       ??0POPUP_CONTROL_ENTRY@@QAE@XZ 0043ac8f f   v5subs:popctrl.obj
 0001:00039cfb       ??0POPUP_ITEM_ENTRY@@QAE@XZ 0043acfb f   v5subs:popctrl.obj
 0001:00039d4d       ??1POPUP_CONTROL_ENTRY@@QAE@XZ 0043ad4d f   v5subs:popctrl.obj
 0001:00039d9e       ??1POPUP_ITEM_ENTRY@@QAE@XZ 0043ad9e f   v5subs:popctrl.obj
 0001:00039db2       ??4POPUP_ITEM_ENTRY@@QAEAAV0@ABV0@@Z 0043adb2 f i v5subs:popctrl.obj
 0001:00039e02       ??_EPOPUP_ITEM_ENTRY@@QAEPAXI@Z 0043ae02 f i v5subs:popctrl.obj
 0001:00039e57       ?add@POPUP_CONTROL_ENTRY@@QAEEPADI@Z 0043ae57 f   v5subs:popctrl.obj
 0001:00039f1e       ?calculate_rectangles@POPUP_CONTROL_ENTRY@@QAEEXZ 0043af1e f   v5subs:popctrl.obj
 0001:0003a08a       ?create_windows@POPUP_CONTROL_ENTRY@@QAEEPADPAUHWND__@@@Z 0043b08a f   v5subs:popctrl.obj
 0001:0003a12c       ?destroy_windows@POPUP_CONTROL_ENTRY@@QAEXXZ 0043b12c f   v5subs:popctrl.obj
 0001:0003a15a       ?do_left_button_up@POPUP_CONTROL_ENTRY@@QAEXIJ@Z 0043b15a f   v5subs:popctrl.obj
 0001:0003a1c5       ?do_mousemove@POPUP_CONTROL_ENTRY@@QAEXPAUHWND__@@IJ@Z 0043b1c5 f   v5subs:popctrl.obj
 0001:0003a2a0       ?draw@POPUP_ITEM_ENTRY@@QAEXPAUHDC__@@AAVPOPUP_CONTROL_ENTRY@@@Z 0043b2a0 f   v5subs:popctrl.obj
 0001:0003a3a1       ?draw_rect@POPUP_ITEM_ENTRY@@QAEXPAUHDC__@@@Z 0043b3a1 f   v5subs:popctrl.obj
 0001:0003a412       ?empty@POPUP_CONTROL_ENTRY@@QAEXXZ 0043b412 f   v5subs:popctrl.obj
 0001:0003a42f       ?paint_me@POPUP_CONTROL_ENTRY@@QAEXPAUHWND__@@@Z 0043b42f f   v5subs:popctrl.obj
 0001:0003a4e8       ?popup_control_proc@@YGJPAUHWND__@@IIJ@Z 0043b4e8 f   v5subs:popctrl.obj
 0001:0003a58f       ?register_window@POPUP_CONTROL_ENTRY@@SAXXZ 0043b58f f   v5subs:popctrl.obj
 0001:0003a5f1       ?set_font@POPUP_CONTROL_ENTRY@@QAEEAAVFONT_CLASS@@@Z 0043b5f1 f   v5subs:popctrl.obj
 0001:0003a66a       ?show_menu@POPUP_CONTROL_ENTRY@@QAEXHH@Z 0043b66a f   v5subs:popctrl.obj
 0001:0003a6a6       ?read_parameters_from_parmlist@@YAJPAMAAVSTRING_CLASS@@@Z 0043b6a6 f   v5subs:profiles.obj
 0001:0003a7db       ?read_parameters_from_profile@@YAFPAMAAVSTRING_CLASS@@@Z 0043b7db f   v5subs:profiles.obj
 0001:0003a87f       ?fill_parts_and_counts_listbox@@YAXPAUHWND__@@HAAVSTRING_CLASS@@1D@Z 0043b87f f   v5subs:fillpart.obj
 0001:0003a9ab       ?fill_parts_and_shot_count_listbox@@YAXPAUHWND__@@HAAVSTRING_CLASS@@1@Z 0043b9ab f   v5subs:fillpart.obj
 0001:0003a9ce       ?make_part_and_counts_string@@YAEAAVSTRING_CLASS@@000DE@Z 0043b9ce f   v5subs:fillpart.obj
 0001:0003abad       ?add@WORKER_LIST_CLASS@@QAEEPAD00@Z 0043bbad f   v5subs:workclas.obj
 0001:0003ac33       ?cleanup@WORKER_LIST_CLASS@@QAEXXZ 0043bc33 f   v5subs:workclas.obj
 0001:0003ac50       ?full_name@WORKER_LIST_CLASS@@QAEPADPAD@Z 0043bc50 f   v5subs:workclas.obj
 0001:0003acaf       ?load@WORKER_LIST_CLASS@@QAEEXZ 0043bcaf f   v5subs:workclas.obj
 0001:0003ad72       ?is_empty@@YAEPBD@Z        0043bd72 f   v5subs:is_empty.obj
 0001:0003ad8e       ?calculate_ftii_parameters@@YAPANAAVFTII_PROFILE@@AAVMACHINE_CLASS@@AAVPART_CLASS@@AAVPARAMETER_CLASS@@AAVANALOG_SENSOR@@AAVFTANALOG_CLASS@@AAVFTCALC_CLASS@@@Z 0043bd8e f   v5subs:ftii_parameters.obj
 0001:0003c586       ?current_part_name@@YAEAAVSTRING_CLASS@@00@Z 0043d586 f   v5subs:current.obj
 0001:0003c610       ??1INT32_ARRAY_CLASS@@QAE@XZ 0043d610 f   v5subs:array.obj
 0001:0003c61b       ??4INT32_ARRAY_CLASS@@QAEXABV0@@Z 0043d61b f   v5subs:array.obj
 0001:0003c65a       ??8INT32_ARRAY_CLASS@@QAEEABV0@@Z 0043d65a f   v5subs:array.obj
 0001:0003c698       ??9INT32_ARRAY_CLASS@@QAEEABV0@@Z 0043d698 f   v5subs:array.obj
 0001:0003c6aa       ?cleanup@INT32_ARRAY_CLASS@@QAEXXZ 0043d6aa f   v5subs:array.obj
 0001:0003c6cf       ?init@INT32_ARRAY_CLASS@@UAEEJ@Z 0043d6cf f   v5subs:array.obj
 0001:0003c734       ?left_shift@INT32_ARRAY_CLASS@@UAEXJ@Z 0043d734 f   v5subs:array.obj
 0001:0003c784       ?next@INT32_ARRAY_CLASS@@QAEEXZ 0043d784 f   v5subs:array.obj
 0001:0003c7a7       ?read@INT32_ARRAY_CLASS@@QAEEPAD@Z 0043d7a7 f   v5subs:array.obj
 0001:0003c880       ?write@INT32_ARRAY_CLASS@@QAEEPAD@Z 0043d880 f   v5subs:array.obj
 0001:0003c936       ??0BIT_CLASS@@QAE@XZ       0043d936 f   v5subs:bitclass.obj
 0001:0003c943       ??1BIT_CLASS@@QAE@XZ       0043d943 f   v5subs:bitclass.obj
 0001:0003c948       ??ABIT_CLASS@@QAE_NJ@Z     0043d948 f   v5subs:bitclass.obj
 0001:0003c992       ?cleanup@BIT_CLASS@@AAEXXZ 0043d992 f   v5subs:bitclass.obj
 0001:0003c9ae       ?clearall@BIT_CLASS@@QAEXXZ 0043d9ae f   v5subs:bitclass.obj
 0001:0003c9c7       ?init@BIT_CLASS@@QAE_NJPAI@Z 0043d9c7 f   v5subs:bitclass.obj
 0001:0003ca57       ?set@BIT_CLASS@@QAEXJ@Z    0043da57 f   v5subs:bitclass.obj
 0001:0003ca93       ?reverse@@YAXPAD@Z         0043da93 f   v5subs:reverse.obj
 0001:0003cab6       ?rjust@@YAXPADFD@Z         0043dab6 f   v5subs:rjust.obj
 0001:0003caf9       ?copy_all_files@@YAEPAD00EPAUHWND__@@H@Z 0043daf9 f   v5subs:callfile.obj
 0001:0003cd78       ?error_message@@YAXFF@Z    0043dd78 f   v5subs:error_ms.obj
 0001:0003cdbb       ?day_of_the_week@@YAHHHH@Z 0043ddbb f   v5subs:dow.obj
 0001:0003ce16       ?execute_and_wait@@YAEPAD0K@Z 0043de16 f   v5subs:execwait.obj
 0001:0003ce91       ?get_partlist@@YAEAAVTEXT_LIST_CLASS@@AAVSTRING_CLASS@@1@Z 0043de91 f   v5subs:partlist.obj
 0001:0003cf40       ??0CUGCell@@QAE@XZ         0043df40 f   dundas:ugcell.obj
 0001:0003cf95       ??1CUGCell@@QAE@XZ         0043df95 f   dundas:ugcell.obj
 0001:0003cf9a       ?AddCellInfo@CUGCell@@QAEHPAV1@0@Z 0043df9a f   dundas:ugcell.obj
 0001:0003d0db       ?AddInfoFrom@CUGCell@@QAEHPAV1@@Z 0043e0db f   dundas:ugcell.obj
 0001:0003d0e8       ?AddInfoTo@CUGCell@@QAEHPAV1@@Z 0043e0e8 f   dundas:ugcell.obj
 0001:0003d0f5       ?ClearAll@CUGCell@@QAEXXZ  0043e0f5 f   dundas:ugcell.obj
 0001:0003d133       ?CopyInfoFrom@CUGCell@@QAEHPAV1@@Z 0043e133 f   dundas:ugcell.obj
 0001:0003d145       ?CopyInfoTo@CUGCell@@QAEHPAV1@@Z 0043e145 f   dundas:ugcell.obj
 0001:0003d157       ?GetAlignment@CUGCell@@QAEFXZ 0043e157 f   dundas:ugcell.obj
 0001:0003d167       ?GetBackColor@CUGCell@@QAEKXZ 0043e167 f   dundas:ugcell.obj
 0001:0003d17c       ?GetBitmap@CUGCell@@QAEPAUHBITMAP__@@XZ 0043e17c f   dundas:ugcell.obj
 0001:0003d18b       ?GetBorder@CUGCell@@QAEFXZ 0043e18b f   dundas:ugcell.obj
 0001:0003d19b       ?GetBorderColor@CUGCell@@QAEPAUHPEN__@@XZ 0043e19b f   dundas:ugcell.obj
 0001:0003d1aa       ?GetCellStyle@CUGCell@@QAEPAV1@XZ 0043e1aa f   dundas:ugcell.obj
 0001:0003d1b9       ?GetCellType@CUGCell@@QAEHXZ 0043e1b9 f   dundas:ugcell.obj
 0001:0003d1c5       ?GetCellTypeEx@CUGCell@@QAEJXZ 0043e1c5 f   dundas:ugcell.obj
 0001:0003d1d1       ?GetFont@CUGCell@@QAEPAUHFONT__@@XZ 0043e1d1 f   dundas:ugcell.obj
 0001:0003d1e0       ?GetFormatClass@CUGCell@@QAEPAVCUGCellFormat@@XZ 0043e1e0 f   dundas:ugcell.obj
 0001:0003d1ef       ?GetHBackColor@CUGCell@@QAEKXZ 0043e1ef f   dundas:ugcell.obj
 0001:0003d204       ?GetHTextColor@CUGCell@@QAEKXZ 0043e204 f   dundas:ugcell.obj
 0001:0003d219       ?GetJoinInfo@CUGCell@@QAEHPAH0PAJ@Z 0043e219 f   dundas:ugcell.obj
 0001:0003d247       ?GetLabelText@CUGCell@@QAEPADXZ 0043e247 f   dundas:ugcell.obj
 0001:0003d253       ?GetPropertyFlags@CUGCell@@QAEKXZ 0043e253 f   dundas:ugcell.obj
 0001:0003d256       ?GetReadOnly@CUGCell@@QAEHXZ 0043e256 f   dundas:ugcell.obj
 0001:0003d265       ?GetText@CUGCell@@QAEPADXZ 0043e265 f   dundas:ugcell.obj
 0001:0003d271       ?GetTextColor@CUGCell@@QAEKXZ 0043e271 f   dundas:ugcell.obj
 0001:0003d283       ?GetTextLength@CUGCell@@QAEHXZ 0043e283 f   dundas:ugcell.obj
 0001:0003d299       ?IsPropertySet@CUGCell@@QAEHK@Z 0043e299 f   dundas:ugcell.obj
 0001:0003d2a8       ?SetAlignment@CUGCell@@QAEHF@Z 0043e2a8 f   dundas:ugcell.obj
 0001:0003d2bc       ?SetBackColor@CUGCell@@QAEHK@Z 0043e2bc f   dundas:ugcell.obj
 0001:0003d2ce       ?SetBorder@CUGCell@@QAEHF@Z 0043e2ce f   dundas:ugcell.obj
 0001:0003d2e2       ?SetFont@CUGCell@@QAEHPAUHFONT__@@@Z 0043e2e2 f   dundas:ugcell.obj
 0001:0003d2fd       ?SetJoinInfo@CUGCell@@QAEHHHJ@Z 0043e2fd f   dundas:ugcell.obj
 0001:0003d31f       ?SetPropertyFlags@CUGCell@@QAEHK@Z 0043e31f f   dundas:ugcell.obj
 0001:0003d32a       ?SetText@CUGCell@@QAEHPBD@Z 0043e32a f   dundas:ugcell.obj
 0001:0003d34c       ??0CUGCtrl@@QAE@XZ         0043e34c f   dundas:ugctrl.obj
 0001:0003d7a4       ??1CUGCtrl@@UAE@XZ         0043e7a4 f   dundas:ugctrl.obj
 0001:0003da0a       ??_GCUGCtrl@@UAEPAXI@Z     0043ea0a f i dundas:ugctrl.obj
 0001:0003da0a       ??_ECUGCtrl@@UAEPAXI@Z     0043ea0a f i dundas:ugctrl.obj
 0001:0003da26       ?AddCellType@CUGCtrl@@QAEJPAVCUGCellType@@@Z 0043ea26 f   dundas:ugctrl.obj
 0001:0003da64       ?AddFont@CUGCtrl@@QAEHHHHHHEEEEEEEEPBD@Z 0043ea64 f   dundas:ugctrl.obj
 0001:0003db8c       ?AdjustComponentSizes@CUGCtrl@@QAEXXZ 0043eb8c f   dundas:ugctrl.obj
 0001:0003e1b9       ?AdjustLeftCol@CUGCtrl@@IAEXXZ 0043f1b9 f   dundas:ugctrl.obj
 0001:0003e216       ?AdjustTopRow@CUGCtrl@@IAEXXZ 0043f216 f   dundas:ugctrl.obj
 0001:0003e299       ?AttachGrid@CUGCtrl@@QAEHPAUHWND__@@I@Z 0043f299 f   dundas:ugctrl.obj
 0001:0003e319       ?BestFit@CUGCtrl@@QAEHHHHH@Z 0043f319 f   dundas:ugctrl.obj
 0001:0003e4f0       ?CalcLeftCol@CUGCtrl@@IAEXXZ 0043f4f0 f   dundas:ugctrl.obj
 0001:0003e5c4       ?CalcTopRow@CUGCtrl@@IAEXXZ 0043f5c4 f   dundas:ugctrl.obj
 0001:0003e698       ?ClearAllFonts@CUGCtrl@@QAEHXZ 0043f698 f   dundas:ugctrl.obj
 0001:0003e6a6       ?ClearSelections@CUGCtrl@@QAEHXZ 0043f6a6 f   dundas:ugctrl.obj
 0001:0003e6d6       ?CreateChildWindows@CUGCtrl@@IAEHXZ 0043f6d6 f   dundas:ugctrl.obj
 0001:0003e838       ?CreateCtrlWindow@CUGCtrl@@QAEHKUtagRECT@@PAUHWND__@@I@Z 0043f838 f   dundas:ugctrl.obj
 0001:0003e939       ?CreateGrid@CUGCtrl@@QAEHKABUtagRECT@@PAUHWND__@@I@Z 0043f939 f   dundas:ugctrl.obj
 0001:0003e9b7       ?CtrlWndProc@CUGCtrl@@SGJPAUHWND__@@IIJ@Z 0043f9b7 f   dundas:ugctrl.obj
 0001:0003eaea       ?DeleteRow@CUGCtrl@@QAEHJ@Z 0043faea f   dundas:ugctrl.obj
 0001:0003eb32       ?EditCancel@CUGCtrl@@QAEHXZ 0043fb32 f   dundas:ugctrl.obj
 0001:0003eb80       ?EditCtrlFinished@CUGCtrl@@QAEHPBDHHHJ@Z 0043fb80 f   dundas:ugctrl.obj
 0001:0003ec8c       ?FindNext@CUGCtrl@@QAEHPADPAHPAJH@Z 0043fc8c f   dundas:ugctrl.obj
 0001:0003ecc6       ?GetCell@CUGCtrl@@QAEHHJPAVCUGCell@@@Z 0043fcc6 f   dundas:ugctrl.obj
 0001:0003ed47       ?GetCellFromPoint@CUGCtrl@@QAEHHHPAHPAJ@Z 0043fd47 f   dundas:ugctrl.obj
 0001:0003ed68       ?GetCellFromPoint@CUGCtrl@@QAEHHHPAHPAJPAUtagRECT@@@Z 0043fd68 f   dundas:ugctrl.obj
 0001:0003eec8       ?GetCellIndirect@CUGCtrl@@QAEHHJPAVCUGCell@@@Z 0043fec8 f   dundas:ugctrl.obj
 0001:0003efdd       ?GetCellRect@CUGCtrl@@QAEHHJPAUtagRECT@@@Z 0043ffdd f   dundas:ugctrl.obj
 0001:0003eff3       ?GetCellRect@CUGCtrl@@QAEHPAHPAJPAUtagRECT@@@Z 0043fff3 f   dundas:ugctrl.obj
 0001:0003f16b       ?GetCellType@CUGCtrl@@QAEPAVCUGCellType@@H@Z 0044016b f   dundas:ugctrl.obj
 0001:0003f192       ?GetCellType@CUGCtrl@@QAEPAVCUGCellType@@HJ@Z 00440192 f   dundas:ugctrl.obj
 0001:0003f1d7       ?GetColWidth@CUGCtrl@@QAEHH@Z 004401d7 f   dundas:ugctrl.obj
 0001:0003f1fa       ?GetCurrentCol@CUGCtrl@@QAEHXZ 004401fa f   dundas:ugctrl.obj
 0001:0003f204       ?GetCurrentRow@CUGCtrl@@QAEJXZ 00440204 f   dundas:ugctrl.obj
 0001:0003f20e       ?GetGridDefault@CUGCtrl@@QAEHPAVCUGCell@@@Z 0044020e f   dundas:ugctrl.obj
 0001:0003f225       ?GetJoinRange@CUGCtrl@@QAEHPAHPAJ01@Z 00440225 f   dundas:ugctrl.obj
 0001:0003f2d7       ?GetJoinStartCell@CUGCtrl@@QAEHPAHPAJ@Z 004402d7 f   dundas:ugctrl.obj
 0001:0003f2ee       ?GetJoinStartCell@CUGCtrl@@QAEHPAHPAJPAVCUGCell@@@Z 004402ee f   dundas:ugctrl.obj
 0001:0003f37a       ?GetNumberCols@CUGCtrl@@QAEHXZ 0044037a f   dundas:ugctrl.obj
 0001:0003f384       ?GetNumberRows@CUGCtrl@@QAEJXZ 00440384 f   dundas:ugctrl.obj
 0001:0003f38e       ?GetRowHeight@CUGCtrl@@QAEHJ@Z 0044038e f   dundas:ugctrl.obj
 0001:0003f3b9       ?GetVS_Width@CUGCtrl@@QAEHXZ 004403b9 f   dundas:ugctrl.obj
 0001:0003f3c6       ?GotoCell@CUGCtrl@@QAEHHJ@Z 004403c6 f   dundas:ugctrl.obj
 0001:0003f459       ?GotoCol@CUGCtrl@@QAEHH@Z  00440459 f   dundas:ugctrl.obj
 0001:0003f50d       ?GotoRow@CUGCtrl@@QAEHJ@Z  0044050d f   dundas:ugctrl.obj
 0001:0003f5c1       ?InsertRow@CUGCtrl@@QAEHJ@Z 004405c1 f   dundas:ugctrl.obj
 0001:0003f605       ?IsSelected@CUGCtrl@@QAEHHJPAH@Z 00440605 f   dundas:ugctrl.obj
 0001:0003f616       ?JoinCells@CUGCtrl@@QAEHHJHJ@Z 00440616 f   dundas:ugctrl.obj
 0001:0003f74b       ?MoveColPosition@CUGCtrl@@QAEHHHH@Z 0044074b f   dundas:ugctrl.obj
 0001:0003f8ce       ?MoveCurrentCol@CUGCtrl@@QAEHH@Z 004408ce f   dundas:ugctrl.obj
 0001:0003f992       ?MoveCurrentRow@CUGCtrl@@QAEHH@Z 00440992 f   dundas:ugctrl.obj
 0001:0003fa5b       ?MoveLeftCol@CUGCtrl@@QAEHH@Z 00440a5b f   dundas:ugctrl.obj
 0001:0003fb70       ?MoveTopRow@CUGCtrl@@QAEHH@Z 00440b70 f   dundas:ugctrl.obj
 0001:0003fc86       ?MoveTrackingWindow@CUGCtrl@@IAEXXZ 00440c86 f   dundas:ugctrl.obj
 0001:0003ff81       ?Moved@CUGCtrl@@IAEXXZ     00440f81 f   dundas:ugctrl.obj
 0001:000401bd       ?OnAdjustComponentSizes@CUGCtrl@@UAEXPAUtagRECT@@000000@Z 004411bd f   dundas:ugctrl.obj
 0001:000401c0       ?OnMenuCommand@CUGCtrl@@UAEXHJHH@Z 004411c0 f   dundas:ugctrl.obj
 0001:000401c0       ?OnCB_RClicked@CUGCtrl@@UAEXHPAUtagRECT@@PAUtagPOINT@@H@Z 004411c0 f   dundas:ugctrl.obj
 0001:000401c0       ?OnCB_LClicked@CUGCtrl@@UAEXHPAUtagRECT@@PAUtagPOINT@@H@Z 004411c0 f   dundas:ugctrl.obj
 0001:000401c0       ?OnCellChange@CUGCtrl@@UAEXHHJJ@Z 004411c0 f   dundas:ugctrl.obj
 0001:000401c3       ?OnSideHdgSizing@CUGCtrl@@UAEHPAH@Z 004411c3 f   dundas:ugctrl.obj
 0001:000401c3       ?OnCanSizeCol@CUGCtrl@@UAEHH@Z 004411c3 f   dundas:ugctrl.obj
 0001:000401c3       ?OnTopHdgSized@CUGCtrl@@UAEHPAH@Z 004411c3 f   dundas:ugctrl.obj
 0001:000401c3       ?OnColSwapStart@CUGCtrl@@UAEHH@Z 004411c3 f   dundas:ugctrl.obj
 0001:000401c3       ?OnCanSizeRow@CUGCtrl@@UAEHJ@Z 004411c3 f   dundas:ugctrl.obj
 0001:000401c3       ?OnTopHdgSizing@CUGCtrl@@UAEHPAH@Z 004411c3 f   dundas:ugctrl.obj
 0001:000401c3       ?OnSideHdgSized@CUGCtrl@@UAEHPAH@Z 004411c3 f   dundas:ugctrl.obj
 0001:000401c9       ?OnCanSizeSideHdg@CUGCtrl@@UAEHXZ 004411c9 f   dundas:ugctrl.obj
 0001:000401c9       ?OnCanSizeTopHdg@CUGCtrl@@UAEHXZ 004411c9 f   dundas:ugctrl.obj
 0001:000401cd       ?OnCommand@CUGCtrl@@MAEHIJ@Z 004411cd f   dundas:ugctrl.obj
 0001:0004026a       ?OnDrawFocusRect@CUGCtrl@@UAEXPAUHDC__@@PAUtagRECT@@@Z 0044126a f   dundas:ugctrl.obj
 0001:00040282       ?OnHint@CUGCtrl@@UAEHHJHPAD@Z 00441282 f   dundas:ugctrl.obj
 0001:00040282       ?OnCanMove@CUGCtrl@@UAEHHJAAHAAJ@Z 00441282 f   dundas:ugctrl.obj
 0001:00040282       ?OnEditContinue@CUGCtrl@@UAEHHJPAHPAJ@Z 00441282 f   dundas:ugctrl.obj
 0001:00040282       ?OnCanViewMove@CUGCtrl@@UAEHHJHJ@Z 00441282 f   dundas:ugctrl.obj
 0001:00040282       ?OnEditVerify@CUGCtrl@@UAEHHJPAUHWND__@@PAI@Z 00441282 f   dundas:ugctrl.obj
 0001:00040288       ?OnCellTypeNotify@CUGCtrl@@UAEHJHJJJ@Z 00441288 f   dundas:ugctrl.obj
 0001:00040288       ?OnEditFinish@CUGCtrl@@UAEHHJPAUHWND__@@PBDH@Z 00441288 f   dundas:ugctrl.obj
 0001:0004028e       ?OnGetDefBackColor@CUGCtrl@@UAEKH@Z 0044128e f   dundas:ugctrl.obj
 0001:000402a7       ?OnHScroll@CUGCtrl@@IAEXIIPAUHWND__@@@Z 004412a7 f   dundas:ugctrl.obj
 0001:000402c6       ?OnHScrollHint@CUGCtrl@@UAEHHPAD@Z 004412c6 f   dundas:ugctrl.obj
 0001:000402c6       ?OnVScrollHint@CUGCtrl@@UAEHJPAD@Z 004412c6 f   dundas:ugctrl.obj
 0001:000402c6       ?OnCanColSwap@CUGCtrl@@UAEHHH@Z 004412c6 f   dundas:ugctrl.obj
 0001:000402cc       ?OnSetFocus@CUGCellType@@UAEXHJPAVCUGCell@@@Z 004412cc f   dundas:ugceltyp.obj
 0001:000402cc       ?OnKillFocus@CUGCellType@@UAEXHJPAVCUGCell@@@Z 004412cc f   dundas:ugceltyp.obj
 0001:000402cc       ?OnScreenDCSetup@CUGCtrl@@UAEXPAUHDC__@@0H@Z 004412cc f   dundas:ugctrl.obj
 0001:000402cc       ?OnSetCell@CUGCtrl@@UAEXHJPAVCUGCell@@@Z 004412cc f   dundas:ugctrl.obj
 0001:000402cc       ?OnGetCell@CUGCtrl@@UAEXHJPAVCUGCell@@@Z 004412cc f   dundas:ugctrl.obj
 0001:000402cc       ?OnHitBottom@CUGCtrl@@UAEXJJJ@Z 004412cc f   dundas:ugctrl.obj
 0001:000402cc       ?OnCB_DClicked@CUGCtrl@@UAEXPAUtagRECT@@PAUtagPOINT@@H@Z 004412cc f   dundas:ugctrl.obj
 0001:000402cf       ?OnMenuStart@CUGCtrl@@UAEHHJH@Z 004412cf f   dundas:ugctrl.obj
 0001:000402cf       ?OnEditStart@CUGCtrl@@UAEHHJPAPAUHWND__@@@Z 004412cf f   dundas:ugctrl.obj
 0001:000402d5       ?OnDClicked@CUGCtrl@@UAEXHJPAUtagRECT@@PAUtagPOINT@@H@Z 004412d5 f   dundas:ugctrl.obj
 0001:000402d5       ?OnTH_DClicked@CUGCtrl@@UAEXHJPAUtagRECT@@PAUtagPOINT@@H@Z 004412d5 f   dundas:ugctrl.obj
 0001:000402d5       ?OnMouseMove@CUGCtrl@@UAEXHJPAUtagPOINT@@IH@Z 004412d5 f   dundas:ugctrl.obj
 0001:000402d5       ?OnSH_DClicked@CUGCtrl@@UAEXHJPAUtagRECT@@PAUtagPOINT@@H@Z 004412d5 f   dundas:ugctrl.obj
 0001:000402d8       ?OnPaint@CUGCtrl@@IAEXXZ   004412d8 f   dundas:ugctrl.obj
 0001:00040378       ?OnLeftColChange@CUGCtrl@@UAEXHH@Z 00441378 f   dundas:ugctrl.obj
 0001:00040378       ?OnTopRowChange@CUGCtrl@@UAEXJJ@Z 00441378 f   dundas:ugctrl.obj
 0001:00040378       ?OnTrackingWindowMoved@CUGCtrl@@UAEXPAUtagRECT@@0@Z 00441378 f   dundas:ugctrl.obj
 0001:00040378       ?OnRowSizing@CUGCtrl@@UAEXJPAH@Z 00441378 f   dundas:ugctrl.obj
 0001:00040378       ?OnColChange@CUGCtrl@@UAEXHH@Z 00441378 f   dundas:ugctrl.obj
 0001:00040378       ?OnRowSized@CUGCtrl@@UAEXJPAH@Z 00441378 f   dundas:ugctrl.obj
 0001:00040378       ?OnColChange@CUGDataSource@@UAEXHH@Z 00441378 f   dundas:ugdtasrc.obj
 0001:00040378       ?OnRowChange@CUGCtrl@@UAEXJJ@Z 00441378 f   dundas:ugctrl.obj
 0001:00040378       ?OnHitTop@CUGCtrl@@UAEXJJ@Z 00441378 f   dundas:ugctrl.obj
 0001:00040378       ?OnColSized@CUGCtrl@@UAEXHPAH@Z 00441378 f   dundas:ugctrl.obj
 0001:00040378       ?OnColSizing@CUGCtrl@@UAEXHPAH@Z 00441378 f   dundas:ugctrl.obj
 0001:00040378       ?OnRowChange@CUGDataSource@@UAEXJJ@Z 00441378 f   dundas:ugdtasrc.obj
 0001:00040378       ?OnKeyDown@CUGCtrl@@UAEXPAIH@Z 00441378 f   dundas:ugctrl.obj
 0001:00040378       ?OnCharDown@CUGCtrl@@UAEXPAIH@Z 00441378 f   dundas:ugctrl.obj
 0001:0004037b       ?OnSH_RClicked@CUGCtrl@@UAEXHJHPAUtagRECT@@PAUtagPOINT@@H@Z 0044137b f   dundas:ugctrl.obj
 0001:0004037b       ?OnLClicked@CUGCtrl@@UAEXHJHPAUtagRECT@@PAUtagPOINT@@H@Z 0044137b f   dundas:ugctrl.obj
 0001:0004037b       ?OnTH_LClicked@CUGCtrl@@UAEXHJHPAUtagRECT@@PAUtagPOINT@@H@Z 0044137b f   dundas:ugctrl.obj
 0001:0004037b       ?OnSH_LClicked@CUGCtrl@@UAEXHJHPAUtagRECT@@PAUtagPOINT@@H@Z 0044137b f   dundas:ugctrl.obj
 0001:0004037b       ?OnRClicked@CUGCtrl@@UAEXHJHPAUtagRECT@@PAUtagPOINT@@H@Z 0044137b f   dundas:ugctrl.obj
 0001:0004037b       ?OnTH_RClicked@CUGCtrl@@UAEXHJHPAUtagRECT@@PAUtagPOINT@@H@Z 0044137b f   dundas:ugctrl.obj
 0001:0004037e       ?OnSetFocus@CUGCtrl@@IAEXPAUHWND__@@@Z 0044137e f   dundas:ugctrl.obj
 0001:00040390       ?OnSize@CUGCtrl@@IAEXIHH@Z 00441390 f   dundas:ugctrl.obj
 0001:000403bf       ?OnSortEvaluate@CUGCtrl@@UAEHPAVCUGCell@@0H@Z 004413bf f   dundas:ugctrl.obj
 0001:0004041f       ?OnSysColorChange@CUGCtrl@@IAEXXZ 0044141f f   dundas:ugctrl.obj
 0001:00040463       ?OnVScroll@CUGCtrl@@IAEXIIPAUHWND__@@@Z 00441463 f   dundas:ugctrl.obj
 0001:00040482       ?ProcessFindDialog@CUGCtrl@@QAEJIJ@Z 00441482 f   dundas:ugctrl.obj
 0001:00040605       ?QuickGetText@CUGCtrl@@QAEPBDHJ@Z 00441605 f   dundas:ugctrl.obj
 0001:00040625       ?QuickSetBackColor@CUGCtrl@@QAEHHJK@Z 00441625 f   dundas:ugctrl.obj
 0001:0004065e       ?QuickSetText@CUGCtrl@@QAEHHJPBD@Z 0044165e f   dundas:ugctrl.obj
 0001:00040697       ?RedrawAll@CUGCtrl@@QAEHXZ 00441697 f   dundas:ugctrl.obj
 0001:0004069f       ?RedrawCell@CUGCtrl@@QAEHHJ@Z 0044169f f   dundas:ugctrl.obj
 0001:00040725       ?RedrawRange@CUGCtrl@@QAEHHJHJ@Z 00441725 f   dundas:ugctrl.obj
 0001:00040745       ?RemoveFont@CUGCtrl@@QAEHH@Z 00441745 f   dundas:ugctrl.obj
 0001:000407a1       ?SelectRange@CUGCtrl@@QAEHHJHJ@Z 004417a1 f   dundas:ugctrl.obj
 0001:000407f8       ?Set3DHeight@CUGCtrl@@QAEHH@Z 004417f8 f   dundas:ugctrl.obj
 0001:0004081a       ?SetCell@CUGCtrl@@QAEHHJPAVCUGCell@@@Z 0044181a f   dundas:ugctrl.obj
 0001:00040882       ?SetColWidth@CUGCtrl@@QAEHHH@Z 00441882 f   dundas:ugctrl.obj
 0001:000408db       ?SetDefFont@CUGCtrl@@QAEHH@Z 004418db f   dundas:ugctrl.obj
 0001:000408f9       ?SetDefFont@CUGCtrl@@QAEHPAUHFONT__@@@Z 004418f9 f   dundas:ugctrl.obj
 0001:00040930       ?SetDefRowHeight@CUGCtrl@@QAEHH@Z 00441930 f   dundas:ugctrl.obj
 0001:00040951       ?SetLeftCol@CUGCtrl@@QAEHH@Z 00441951 f   dundas:ugctrl.obj
 0001:000409b7       ?SetLockColWidth@CUGCtrl@@IAEXXZ 004419b7 f   dundas:ugctrl.obj
 0001:00040a02       ?SetLockRowHeight@CUGCtrl@@IAEXXZ 00441a02 f   dundas:ugctrl.obj
 0001:00040a4d       ?SetMultiSelectMode@CUGCtrl@@QAEHH@Z 00441a4d f   dundas:ugctrl.obj
 0001:00040a8e       ?SetNumberCols@CUGCtrl@@QAEHHH@Z 00441a8e f   dundas:ugctrl.obj
 0001:00040c47       ?SetNumberRows@CUGCtrl@@QAEHJH@Z 00441c47 f   dundas:ugctrl.obj
 0001:00040d45       ?SetNumberSheets@CUGCtrl@@QAEHH@Z 00441d45 f   dundas:ugctrl.obj
 0001:00040e77       ?SetRowHeight@CUGCtrl@@QAEHJH@Z 00441e77 f   dundas:ugctrl.obj
 0001:00040eaf       ?SetSH_ColWidth@CUGCtrl@@QAEHHH@Z 00441eaf f   dundas:ugctrl.obj
 0001:00040ee4       ?SetSH_Width@CUGCtrl@@QAEHH@Z 00441ee4 f   dundas:ugctrl.obj
 0001:00040f8b       ?SetSheetNumber@CUGCtrl@@QAEHHH@Z 00441f8b f   dundas:ugctrl.obj
 0001:0004109b       ?SetTH_Height@CUGCtrl@@QAEHH@Z 0044209b f   dundas:ugctrl.obj
 0001:00041139       ?SetTH_NumberRows@CUGCtrl@@QAEHH@Z 00442139 f   dundas:ugctrl.obj
 0001:000411fd       ?SetTH_RowHeight@CUGCtrl@@QAEHHH@Z 004421fd f   dundas:ugctrl.obj
 0001:00041232       ?SetTopRow@CUGCtrl@@QAEHJ@Z 00442232 f   dundas:ugctrl.obj
 0001:00041293       ?SetUniformRowHeight@CUGCtrl@@QAEHH@Z 00442293 f   dundas:ugctrl.obj
 0001:00041335       ?StartEdit@CUGCtrl@@QAEHH@Z 00442335 f   dundas:ugctrl.obj
 0001:0004134d       ?StartEdit@CUGCtrl@@QAEHHJH@Z 0044234d f   dundas:ugctrl.obj
 0001:0004165d       ?StartEdit@CUGCtrl@@QAEHXZ 0044265d f   dundas:ugctrl.obj
 0001:00041671       ?StartMenu@CUGCtrl@@QAEHHJPAUtagPOINT@@H@Z 00442671 f   dundas:ugctrl.obj
 0001:00041707       ?Update@CUGCtrl@@IAEXXZ    00442707 f   dundas:ugctrl.obj
 0001:00041763       ?VerifyCurrentCol@CUGCtrl@@QAEHPAH@Z 00442763 f   dundas:ugctrl.obj
 0001:0004184f       ?VerifyCurrentRow@CUGCtrl@@QAEHPAJ@Z 0044284f f   dundas:ugctrl.obj
 0001:00041976       ?VerifyLeftCol@CUGCtrl@@QAEHPAH@Z 00442976 f   dundas:ugctrl.obj
 0001:000419a0       ?VerifyTopRow@CUGCtrl@@QAEHPAJ@Z 004429a0 f   dundas:ugctrl.obj
 0001:000419ca       ?clear_default_font@CUGCtrl@@AAEXXZ 004429ca f   dundas:ugctrl.obj
 0001:00041a0f       ??0CUGMultiSelect@@QAE@XZ  00442a0f f   dundas:ugmultis.obj
 0001:00041a2d       ??1CUGMultiSelect@@QAE@XZ  00442a2d f   dundas:ugmultis.obj
 0001:00041a36       ?AddTotalRangeToDrawHints@CUGMultiSelect@@QAEXPAVCUGDrawHint@@@Z 00442a36 f   dundas:ugmultis.obj
 0001:00041a6f       ?ClearAll@CUGMultiSelect@@QAEHXZ 00442a6f f   dundas:ugmultis.obj
 0001:00041ab1       ?EndBlock@CUGMultiSelect@@QAEHHJ@Z 00442ab1 f   dundas:ugmultis.obj
 0001:00041c1a       ?GetOrigCell@CUGMultiSelect@@QAEHPAHPAJ@Z 00442c1a f   dundas:ugmultis.obj
 0001:00041c3e       ?GetTotalRange@CUGMultiSelect@@QAEHPAHPAJ01@Z 00442c3e f   dundas:ugmultis.obj
 0001:00041cc6       ?IsSelected@CUGMultiSelect@@QAEHHJPAH@Z 00442cc6 f   dundas:ugmultis.obj
 0001:00041d2c       ?OnKeyMove@CUGMultiSelect@@QAEXHJ@Z 00442d2c f   dundas:ugmultis.obj
 0001:00041d98       ?OnLClick@CUGMultiSelect@@QAEXHJI@Z 00442d98 f   dundas:ugmultis.obj
 0001:00041dfa       ?OnMouseMove@CUGMultiSelect@@QAEXHJI@Z 00442dfa f   dundas:ugmultis.obj
 0001:00041e1c       ?OnRClick@CUGMultiSelect@@QAEXHJI@Z 00442e1c f   dundas:ugmultis.obj
 0001:00041e66       ?SelectMode@CUGMultiSelect@@QAEHH@Z 00442e66 f   dundas:ugmultis.obj
 0001:00041e7b       ?StartBlock@CUGMultiSelect@@QAEHHJ@Z 00442e7b f   dundas:ugmultis.obj
 0001:00041f33       ?AddTwoString@@YAXAAPADPBD@Z 00442f33 f   dundas:ugstring.obj
 0001:00041f98       ?CopyString@@YAXAAPADPBD@Z 00442f98 f   dundas:ugstring.obj
 0001:00041ff1       ??0CUGPtrList@@QAE@XZ      00442ff1 f   dundas:ugptrlst.obj
 0001:00041ffe       ??1CUGPtrList@@QAE@XZ      00442ffe f   dundas:ugptrlst.obj
 0001:00042003       ?AddMoreElements@CUGPtrList@@IAEHXZ 00443003 f   dundas:ugptrlst.obj
 0001:000420c0       ?AddPointer@CUGPtrList@@QAEHPAXJPAUUGID@@@Z 004430c0 f   dundas:ugptrlst.obj
 0001:0004213e       ?DeletePointer@CUGPtrList@@QAEHH@Z 0044313e f   dundas:ugptrlst.obj
 0001:0004216e       ?EmptyList@CUGPtrList@@QAEHXZ 0044316e f   dundas:ugptrlst.obj
 0001:0004218d       ?GetCount@CUGPtrList@@QAEHXZ 0044318d f   dundas:ugptrlst.obj
 0001:00042191       ?GetParam@CUGPtrList@@QAEJH@Z 00443191 f   dundas:ugptrlst.obj
 0001:000421ae       ?GetPointer@CUGPtrList@@QAEPAXH@Z 004431ae f   dundas:ugptrlst.obj
 0001:000421d1       ?GetPointerIndex@CUGPtrList@@QAEHPAX@Z 004431d1 f   dundas:ugptrlst.obj
 0001:00042200       ?UpdateParam@CUGPtrList@@QAEHHJ@Z 00443200 f   dundas:ugptrlst.obj
 0001:0004222f       ??0CUGCnrBtn@@QAE@XZ       0044322f f   dundas:ugcnrbtn.obj
 0001:0004224f       ??_GCUGCnrBtn@@UAEPAXI@Z   0044324f f i dundas:ugcnrbtn.obj
 0001:0004224f       ??_ECUGCnrBtn@@UAEPAXI@Z   0044324f f i dundas:ugcnrbtn.obj
 0001:0004226c       ?CnrBtnWndProc@CUGCnrBtn@@SGJPAUHWND__@@IIJ@Z 0044326c f   dundas:ugcnrbtn.obj
 0001:00042376       ?CreateCnrBtnWindow@CUGCnrBtn@@QAEHKUtagRECT@@PAUHWND__@@I@Z 00443376 f   dundas:ugcnrbtn.obj
 0001:00042470       ?OnLButtonDblClk@CUGCnrBtn@@IAEXIUtagPOINT@@@Z 00443470 f   dundas:ugcnrbtn.obj
 0001:00042492       ?OnLButtonDown@CUGCnrBtn@@IAEXIUtagPOINT@@@Z 00443492 f   dundas:ugcnrbtn.obj
 0001:000424ce       ?OnLButtonUp@CUGCnrBtn@@IAEXIUtagPOINT@@@Z 004434ce f   dundas:ugcnrbtn.obj
 0001:00042502       ?OnMouseMove@CUGCnrBtn@@IAEXIUtagPOINT@@@Z 00443502 f   dundas:ugcnrbtn.obj
 0001:0004261d       ?OnPaint@CUGCnrBtn@@IAEXXZ 0044361d f   dundas:ugcnrbtn.obj
 0001:0004271b       ?OnRButtonDown@CUGCnrBtn@@IAEXIUtagPOINT@@@Z 0044371b f   dundas:ugcnrbtn.obj
 0001:0004276f       ?OnRButtonUp@CUGCnrBtn@@IAEXIUtagPOINT@@@Z 0044376f f   dundas:ugcnrbtn.obj
 0001:00042793       ?OnSetCursor@CUGCnrBtn@@IAEHPAUHWND__@@II@Z 00443793 f   dundas:ugcnrbtn.obj
 0001:000427e9       ?Update@CUGCnrBtn@@QAEXXZ  004437e9 f   dundas:ugcnrbtn.obj
 0001:000427e9       ?Update@CUGTab@@QAEXXZ     004437e9 f   dundas:ugtab.obj
 0001:000427e9       ?Update@CUGGrid@@QAEXXZ    004437e9 f   dundas:uggrid.obj
 0001:00042804       ??$_Pow_int@N@@YANNH@Z     00443804 f i dundas:uggrid.obj
 0001:00042856       ??0CUGGrid@@QAE@XZ         00443856 f   dundas:uggrid.obj
 0001:00042896       ??1CUGGrid@@UAE@XZ         00443896 f   dundas:uggrid.obj
 0001:000428bf       ??_GCUGGrid@@UAEPAXI@Z     004438bf f i dundas:uggrid.obj
 0001:000428bf       ??_ECUGGrid@@UAEPAXI@Z     004438bf f i dundas:uggrid.obj
 0001:000428db       ?CreateGridWindow@CUGGrid@@QAEHKUtagRECT@@PAUHWND__@@I@Z 004438db f   dundas:uggrid.obj
 0001:000429d2       ?CreateToolTipWindow@CUGGrid@@QAEHPAUHWND__@@@Z 004439d2 f   dundas:uggrid.obj
 0001:00042ab0       ?DrawCellsIntern@CUGGrid@@QAEXPAPAUHDC__@@PAU2@@Z 00443ab0 f   dundas:uggrid.obj
 0001:000431b3       ?GridWndProc@CUGGrid@@SGJPAUHWND__@@IIJ@Z 004441b3 f   dundas:uggrid.obj
 0001:000433f7       ?Moved@CUGGrid@@QAEXXZ     004443f7 f   dundas:uggrid.obj
 0001:000436c0       ?OnChar@CUGGrid@@QAEXII@Z  004446c0 f   dundas:uggrid.obj
 0001:000436fe       ?OnGetDlgCode@CUGGrid@@QAEIXZ 004446fe f   dundas:uggrid.obj
 0001:00043723       ?OnKeyDown@CUGGrid@@QAEXII@Z 00444723 f   dundas:uggrid.obj
 0001:0004384f       ?OnKillFocus@CUGGrid@@QAEXPAUHWND__@@@Z 0044484f f   dundas:uggrid.obj
 0001:0004387b       ?OnLButtonDblClk@CUGGrid@@QAEXIUtagPOINT@@@Z 0044487b f   dundas:uggrid.obj
 0001:00043905       ?OnLButtonDown@CUGGrid@@QAEXIUtagPOINT@@@Z 00444905 f   dundas:uggrid.obj
 0001:000439e6       ?OnLButtonUp@CUGGrid@@QAEXIUtagPOINT@@@Z 004449e6 f   dundas:uggrid.obj
 0001:00043a80       ?OnMouseMove@CUGGrid@@QAEXIUtagPOINT@@@Z 00444a80 f   dundas:uggrid.obj
 0001:00043e51       ?OnMouseWheel@CUGGrid@@QAEHIFUtagPOINT@@@Z 00444e51 f   dundas:uggrid.obj
 0001:00043e7a       ?OnPaint@CUGGrid@@QAEXXZ   00444e7a f   dundas:uggrid.obj
 0001:00043f6e       ?OnRButtonDown@CUGGrid@@QAEXIUtagPOINT@@@Z 00444f6e f   dundas:uggrid.obj
 0001:00044077       ?OnRButtonUp@CUGGrid@@QAEXIUtagPOINT@@@Z 00445077 f   dundas:uggrid.obj
 0001:00044104       ?OnSetCursor@CUGGrid@@QAEHPAUHWND__@@II@Z 00445104 f   dundas:uggrid.obj
 0001:00044119       ?OnSetFocus@CUGGrid@@QAEXPAUHWND__@@@Z 00445119 f   dundas:uggrid.obj
 0001:00044155       ?OnSize@CUGGrid@@QAEXIHH@Z 00445155 f   dundas:uggrid.obj
 0001:000441fe       ?OnToolTip@CUGGrid@@QAEHPAUHWND__@@IJ@Z 004451fe f   dundas:uggrid.obj
 0001:000442bc       ?RedrawCell@CUGGrid@@QAEXHJ@Z 004452bc f   dundas:uggrid.obj
 0001:000442da       ?RedrawRange@CUGGrid@@QAEXHJHJ@Z 004452da f   dundas:uggrid.obj
 0001:00044300       ?SetDoubleBufferMode@CUGGrid@@QAEHH@Z 00445300 f   dundas:uggrid.obj
 0001:000443e3       ?ToolTipMessage@CUGGrid@@QAEXPAUHWND__@@IIJ@Z 004453e3 f   dundas:uggrid.obj
 0001:000444f1       ??0CUGHScroll@@QAE@XZ      004454f1 f   dundas:ughscrol.obj
 0001:0004450a       ??_GCUGHScroll@@UAEPAXI@Z  0044550a f i dundas:ughscrol.obj
 0001:0004450a       ??_ECUGHScroll@@UAEPAXI@Z  0044550a f i dundas:ughscrol.obj
 0001:00044527       ?CreateHScrollWindow@CUGHScroll@@QAEHKUtagRECT@@PAUHWND__@@I@Z 00445527 f   dundas:ughscrol.obj
 0001:000445c1       ?HScroll@CUGHScroll@@QAEXII@Z 004455c1 f   dundas:ughscrol.obj
 0001:0004475d       ?HScrollWndProc@CUGHScroll@@SGJPAUHWND__@@IIJ@Z 0044575d f   dundas:ughscrol.obj
 0001:000447df       ?Moved@CUGHScroll@@QAEXXZ  004457df f   dundas:ughscrol.obj
 0001:0004489f       ?OnRButtonDown@CUGHScroll@@UAEXIUtagPOINT@@@Z 0044589f f   dundas:ughscrol.obj
 0001:000448d6       ?Update@CUGHScroll@@QAEXXZ 004458d6 f   dundas:ughscrol.obj
 0001:000448db       ??0CUGSideHdg@@QAE@XZ      004458db f   dundas:ugsidehd.obj
 0001:00044914       ??1CUGSideHdg@@UAE@XZ      00445914 f   dundas:ugsidehd.obj
 0001:0004492e       ??_ECUGSideHdg@@UAEPAXI@Z  0044592e f i dundas:ugsidehd.obj
 0001:0004492e       ??_GCUGSideHdg@@UAEPAXI@Z  0044592e f i dundas:ugsidehd.obj
 0001:0004494a       ?CreateSideHdgWindow@CUGSideHdg@@QAEHKUtagRECT@@PAUHWND__@@I@Z 0044594a f   dundas:ugsidehd.obj
 0001:00044a44       ?DrawCellsIntern@CUGSideHdg@@IAEXPAUHDC__@@@Z 00445a44 f   dundas:ugsidehd.obj
 0001:00044d15       ?GetCellFromPoint@CUGSideHdg@@IAEHPAUtagPOINT@@PAHPAJPAUtagRECT@@@Z 00445d15 f   dundas:ugsidehd.obj
 0001:00044dd6       ?GetCellRect@CUGSideHdg@@IAEHHJPAUtagRECT@@@Z 00445dd6 f   dundas:ugsidehd.obj
 0001:00044dec       ?GetCellRect@CUGSideHdg@@IAEHPAHPAJPAUtagRECT@@@Z 00445dec f   dundas:ugsidehd.obj
 0001:00044f2b       ?GetSHColWidth@CUGSideHdg@@IAEHH@Z 00445f2b f   dundas:ugsidehd.obj
 0001:00044f49       ?Moved@CUGSideHdg@@QAEXXZ  00445f49 f   dundas:ugsidehd.obj
 0001:000450d1       ?OnLButtonDblClk@CUGSideHdg@@IAEXIUtagPOINT@@@Z 004460d1 f   dundas:ugsidehd.obj
 0001:0004514d       ?OnLButtonDown@CUGSideHdg@@IAEXIUtagPOINT@@@Z 0044614d f   dundas:ugsidehd.obj
 0001:00045210       ?OnLButtonUp@CUGSideHdg@@IAEXIUtagPOINT@@@Z 00446210 f   dundas:ugsidehd.obj
 0001:00045308       ?OnMouseMove@CUGSideHdg@@IAEXIUtagPOINT@@@Z 00446308 f   dundas:ugsidehd.obj
 0001:000455db       ?OnPaint@CUGSideHdg@@IAEXXZ 004465db f   dundas:ugsidehd.obj
 0001:00045645       ?OnRButtonDown@CUGSideHdg@@IAEXIUtagPOINT@@@Z 00446645 f   dundas:ugsidehd.obj
 0001:000456f3       ?OnRButtonUp@CUGSideHdg@@IAEXIUtagPOINT@@@Z 004466f3 f   dundas:ugsidehd.obj
 0001:00045771       ?OnSetCursor@CUGSideHdg@@IAEHPAUHWND__@@II@Z 00446771 f   dundas:ugsidehd.obj
 0001:000457a8       ?SideHdgWndProc@CUGSideHdg@@SGJPAUHWND__@@IIJ@Z 004467a8 f   dundas:ugsidehd.obj
 0001:000458c5       ?Update@CUGSideHdg@@QAEXXZ 004468c5 f   dundas:ugsidehd.obj
 0001:00045921       ??0CUGTopHdg@@QAE@XZ       00446921 f   dundas:ugtophdg.obj
 0001:00045970       ??1CUGTopHdg@@UAE@XZ       00446970 f   dundas:ugtophdg.obj
 0001:0004598d       ??_GCUGTopHdg@@UAEPAXI@Z   0044698d f i dundas:ugtophdg.obj
 0001:0004598d       ??_ECUGTopHdg@@UAEPAXI@Z   0044698d f i dundas:ugtophdg.obj
 0001:000459a9       ?CheckForUserResize@CUGTopHdg@@IAEXPAUtagPOINT@@@Z 004469a9 f   dundas:ugtophdg.obj
 0001:00045adf       ?CreateTopHdgWindow@CUGTopHdg@@QAEHKUtagRECT@@PAUHWND__@@I@Z 00446adf f   dundas:ugtophdg.obj
 0001:00045bd6       ?DrawCellsIntern@CUGTopHdg@@IAEXPAUHDC__@@@Z 00446bd6 f   dundas:ugtophdg.obj
 0001:00045e9b       ?GetCellFromPoint@CUGTopHdg@@IAEHPAUtagPOINT@@PAH1PAUtagRECT@@@Z 00446e9b f   dundas:ugtophdg.obj
 0001:00045f69       ?GetCellRect@CUGTopHdg@@IAEHHHPAUtagRECT@@@Z 00446f69 f   dundas:ugtophdg.obj
 0001:00045f7f       ?GetCellRect@CUGTopHdg@@IAEHPAH0PAUtagRECT@@@Z 00446f7f f   dundas:ugtophdg.obj
 0001:000460ae       ?GetJoinRange@CUGTopHdg@@IAEHPAH000@Z 004470ae f   dundas:ugtophdg.obj
 0001:00046187       ?GetTHRowHeight@CUGTopHdg@@IAEHH@Z 00447187 f   dundas:ugtophdg.obj
 0001:000461a5       ?Moved@CUGTopHdg@@QAEXXZ   004471a5 f   dundas:ugtophdg.obj
 0001:000461cb       ?OnLButtonDblClk@CUGTopHdg@@QAEXIUtagPOINT@@@Z 004471cb f   dundas:ugtophdg.obj
 0001:00046278       ?OnLButtonDown@CUGTopHdg@@QAEXIUtagPOINT@@@Z 00447278 f   dundas:ugtophdg.obj
 0001:00046350       ?OnLButtonUp@CUGTopHdg@@QAEXIUtagPOINT@@@Z 00447350 f   dundas:ugtophdg.obj
 0001:000464d0       ?OnMouseMove@CUGTopHdg@@QAEXIUtagPOINT@@@Z 004474d0 f   dundas:ugtophdg.obj
 0001:000467f2       ?OnPaint@CUGTopHdg@@QAEXXZ 004477f2 f   dundas:ugtophdg.obj
 0001:00046860       ?OnRButtonDown@CUGTopHdg@@QAEXIUtagPOINT@@@Z 00447860 f   dundas:ugtophdg.obj
 0001:0004690b       ?OnRButtonUp@CUGTopHdg@@QAEXIUtagPOINT@@@Z 0044790b f   dundas:ugtophdg.obj
 0001:00046986       ?OnSetCursor@CUGTopHdg@@QAEHPAUHWND__@@II@Z 00447986 f   dundas:ugtophdg.obj
 0001:000469b7       ?TopHdgWndProc@CUGTopHdg@@SGJPAUHWND__@@IIJ@Z 004479b7 f   dundas:ugtophdg.obj
 0001:00046ad4       ?Update@CUGTopHdg@@QAEXXZ  00447ad4 f   dundas:ugtophdg.obj
 0001:00046b30       ??0CUGVScroll@@QAE@XZ      00447b30 f   dundas:ugvscrol.obj
 0001:00046b4d       ??_GCUGVScroll@@UAEPAXI@Z  00447b4d f i dundas:ugvscrol.obj
 0001:00046b4d       ??_ECUGVScroll@@UAEPAXI@Z  00447b4d f i dundas:ugvscrol.obj
 0001:00046b6a       ?CreateVScrollWindow@CUGVScroll@@QAEHKUtagRECT@@PAUHWND__@@I@Z 00447b6a f   dundas:ugvscrol.obj
 0001:00046c0e       ?Moved@CUGVScroll@@QAEXXZ  00447c0e f   dundas:ugvscrol.obj
 0001:00046db6       ?OnRButtonDown@CUGVScroll@@UAEXIUtagPOINT@@@Z 00447db6 f   dundas:ugvscrol.obj
 0001:00046ded       ?Update@CUGVScroll@@QAEXXZ 00447ded f   dundas:ugvscrol.obj
 0001:00046df4       ?VScroll@CUGVScroll@@QAEXII@Z 00447df4 f   dundas:ugvscrol.obj
 0001:00047008       ?VScrollWndProc@CUGVScroll@@SGJPAUHWND__@@IIJ@Z 00448008 f   dundas:ugvscrol.obj
 0001:0004708a       ??0CUGDataSource@@QAE@XZ   0044808a f   dundas:ugdtasrc.obj
 0001:0004709b       ??1CUGDataSource@@UAE@XZ   0044809b f   dundas:ugdtasrc.obj
 0001:000470a2       ??_ECUGDataSource@@UAEPAXI@Z 004480a2 f i dundas:ugdtasrc.obj
 0001:000470a2       ??_GCUGDataSource@@UAEPAXI@Z 004480a2 f i dundas:ugdtasrc.obj
 0001:000470bf       ?Empty@CUGDataSource@@UAEHXZ 004480bf f   dundas:ugdtasrc.obj
 0001:000470bf       ?Save@CUGMem@@UAEHXZ       004480bf f   dundas:ugmemman.obj
 0001:000470bf       ?Close@CUGDataSource@@UAEHXZ 004480bf f   dundas:ugdtasrc.obj
 0001:000470bf       ?Close@CUGMem@@UAEHXZ      004480bf f   dundas:ugmemman.obj
 0001:000470bf       ?GetNumCols@CUGMem@@UAEHXZ 004480bf f   dundas:ugmemman.obj
 0001:000470bf       ?StartTransaction@CUGDataSource@@UAEHXZ 004480bf f   dundas:ugdtasrc.obj
 0001:000470bf       ?GetNumRows@CUGDataSource@@UAEJXZ 004480bf f   dundas:ugdtasrc.obj
 0001:000470bf       ?GetNumCols@CUGDataSource@@UAEHXZ 004480bf f   dundas:ugdtasrc.obj
 0001:000470bf       ?FinishTransaction@CUGDataSource@@UAEHXZ 004480bf f   dundas:ugdtasrc.obj
 0001:000470bf       ?Save@CUGDataSource@@UAEHXZ 004480bf f   dundas:ugdtasrc.obj
 0001:000470bf       ?GetNumRows@CUGMem@@UAEJXZ 004480bf f   dundas:ugmemman.obj
 0001:000470bf       ?AppendCol@CUGDataSource@@UAEHXZ 004480bf f   dundas:ugdtasrc.obj
 0001:000470bf       ?AppendRow@CUGDataSource@@UAEHXZ 004480bf f   dundas:ugdtasrc.obj
 0001:000470bf       ?CancelTransaction@CUGDataSource@@UAEHXZ 004480bf f   dundas:ugdtasrc.obj
 0001:000470c3       ?GetColType@CUGMem@@UAEHHPAH@Z 004480c3 f   dundas:ugmemman.obj
 0001:000470c3       ?Open@CUGDataSource@@UAEHPBD0@Z 004480c3 f   dundas:ugdtasrc.obj
 0001:000470c3       ?GetColName@CUGMem@@UAEHHPAPAD@Z 004480c3 f   dundas:ugmemman.obj
 0001:000470c3       ?SetOption@CUGCellType@@UAEHJJ@Z 004480c3 f   dundas:ugceltyp.obj
 0001:000470c3       ?SetPassword@CUGMem@@UAEHPBD0@Z 004480c3 f   dundas:ugmemman.obj
 0001:000470c3       ?SaveAs@CUGMem@@UAEHPBD0@Z 004480c3 f   dundas:ugmemman.obj
 0001:000470c3       ?SortBy@CUGDataSource@@UAEHHH@Z 004480c3 f   dundas:ugdtasrc.obj
 0001:000470c3       ?GetPrevNonBlankCol@CUGDataSource@@UAEHPAHJ@Z 004480c3 f   dundas:ugdtasrc.obj
 0001:000470c3       ?Open@CUGMem@@UAEHPBD0@Z   004480c3 f   dundas:ugmemman.obj
 0001:000470c3       ?DeleteCell@CUGDataSource@@UAEHHJ@Z 004480c3 f   dundas:ugdtasrc.obj
 0001:000470c3       ?SetPassword@CUGDataSource@@UAEHPBD0@Z 004480c3 f   dundas:ugdtasrc.obj
 0001:000470c3       ?GetColType@CUGDataSource@@UAEHHPAH@Z 004480c3 f   dundas:ugdtasrc.obj
 0001:000470c3       ?GetOption@CUGCellType@@UAEHJPAJ@Z 004480c3 f   dundas:ugceltyp.obj
 0001:000470c3       ?AppendRow@CUGMem@@UAEHPAPAVCUGCell@@H@Z 004480c3 f   dundas:ugmemman.obj
 0001:000470c3       ?GetColName@CUGDataSource@@UAEHHPAPAD@Z 004480c3 f   dundas:ugdtasrc.obj
 0001:000470c3       ?GetColFromName@CUGDataSource@@UAEHPBDPAH@Z 004480c3 f   dundas:ugdtasrc.obj
 0001:000470c3       ?AppendRow@CUGDataSource@@UAEHPAPAVCUGCell@@H@Z 004480c3 f   dundas:ugdtasrc.obj
 0001:000470c3       ?SaveAs@CUGDataSource@@UAEHPBD0@Z 004480c3 f   dundas:ugdtasrc.obj
 0001:000470c9       ?InsertRow@CUGDataSource@@UAEHJ@Z 004480c9 f   dundas:ugdtasrc.obj
 0001:000470c9       ?DeleteCol@CUGDataSource@@UAEHH@Z 004480c9 f   dundas:ugdtasrc.obj
 0001:000470c9       ?InsertCol@CUGDataSource@@UAEHH@Z 004480c9 f   dundas:ugdtasrc.obj
 0001:000470c9       ?DeleteRow@CUGDataSource@@UAEHJ@Z 004480c9 f   dundas:ugdtasrc.obj
 0001:000470cf       ?FindNext@CUGDataSource@@UAEHPADPAHPAJH@Z 004480cf f   dundas:ugdtasrc.obj
 0001:000470cf       ?FindFirst@CUGDataSource@@UAEHPADPAHPAJJ@Z 004480cf f   dundas:ugdtasrc.obj
 0001:000470d5       ??0CUGCellType@@QAE@XZ     004480d5 f   dundas:ugceltyp.obj
 0001:000470eb       ??1CUGCellType@@QAE@XZ     004480eb f   dundas:ugceltyp.obj
 0001:000470f2       ?CanOverLap@CUGCellType@@QAEHPAVCUGCell@@@Z 004480f2 f   dundas:ugceltyp.obj
 0001:0004711f       ?GetMaxCount@CUGPtrList@@QAEHXZ 0044811f f   dundas:ugptrlst.obj
 0001:0004711f       ?CanTextEdit@CUGCellType@@QAEHXZ 0044811f f   dundas:ugceltyp.obj
 0001:00047123       ?DrawBitmap@CUGCellType@@QAEHPAUHDC__@@PAUHBITMAP__@@PAUtagRECT@@K@Z 00448123 f   dundas:ugceltyp.obj
 0001:00047271       ?DrawBorder@CUGCellType@@QAEXPAUHDC__@@PAUtagRECT@@1PAVCUGCell@@@Z 00448271 f   dundas:ugceltyp.obj
 0001:000479bb       ?DrawTextA@CUGCellType@@QAEXPAUHDC__@@PAUtagRECT@@HHJPAVCUGCell@@HH@Z 004489bb f   dundas:ugceltyp.obj
 0001:00047daf       ?GetBestSize@CUGCellType@@UAEXPAUHDC__@@PAUtagSIZE@@PAVCUGCell@@@Z 00448daf f   dundas:ugceltyp.obj
 0001:00047e70       ?GetCellOverlapInfo@CUGCellType@@QAEHPAUHDC__@@HJPAHPAVCUGCell@@@Z 00448e70 f   dundas:ugceltyp.obj
 0001:00047fbd       ?GetEditArea@CUGCellType@@UAEHPAUtagRECT@@@Z 00448fbd f   dundas:ugceltyp.obj
 0001:00047fc2       ?GetName@CUGCellType@@UAEPBDXZ 00448fc2 f   dundas:ugceltyp.obj
 0001:00047fc8       ?GetUGID@CUGCellType@@UAEPBUUGID@@XZ 00448fc8 f   dundas:ugceltyp.obj
 0001:00047fce       ?ZoomBoxProc@@YGHPAUHWND__@@IIJ@Z 00448fce f   profile.obj
 0001:00047fce       ?load_from_network_dialog_proc@@YGHPAUHWND__@@IIJ@Z 00448fce f   profile.obj
 0001:00047fce       ?OnMouseMove@CUGCellType@@UAEHHJPAUtagPOINT@@I@Z 00448fce f   dundas:ugceltyp.obj
 0001:00047fce       ?SmallZoomBoxProc@@YGHPAUHWND__@@IIJ@Z 00448fce f   profile.obj
 0001:00047fce       ?OnDClicked@CUGCellType@@UAEHHJPAUtagRECT@@PAUtagPOINT@@@Z 00448fce f   dundas:ugceltyp.obj
 0001:00047fd3       ?OnDraw@CUGCellType@@UAEXPAUHDC__@@PAUtagRECT@@HJPAVCUGCell@@HH@Z 00448fd3 f   dundas:ugceltyp.obj
 0001:000480e7       ?OnKeyDown@CUGCellType@@UAEHHJPAI@Z 004490e7 f   dundas:ugceltyp.obj
 0001:000480e7       ?OnCharDown@CUGCellType@@UAEHHJPAI@Z 004490e7 f   dundas:ugceltyp.obj
 0001:000480ec       ?OnPrint@CUGCellType@@UAEXPAUHDC__@@PAUtagRECT@@HJPAVCUGCell@@@Z 004490ec f   dundas:ugceltyp.obj
 0001:000481e3       ?OnLClicked@CUGCellType@@UAEHHJHPAUtagRECT@@PAUtagPOINT@@@Z 004491e3 f   dundas:ugceltyp.obj
 0001:000481e3       ?OnRClicked@CUGCellType@@UAEHHJHPAUtagRECT@@PAUtagPOINT@@@Z 004491e3 f   dundas:ugceltyp.obj
 0001:000481e8       ?OnSystemChange@CUGCellType@@UAEHXZ 004491e8 f   dundas:ugceltyp.obj
 0001:000481e8       ?AppendRow@CUGMem@@UAEHXZ  004491e8 f   dundas:ugmemman.obj
 0001:000481e8       __matherr                  004491e8 f   LIBCMT:matherr.obj
 0001:000481e8       ?AppendCol@CUGMem@@UAEHXZ  004491e8 f   dundas:ugmemman.obj
 0001:000481eb       ?SetID@CUGCellType@@QAEXH@Z 004491eb f   dundas:ugceltyp.obj
 0001:000481f5       ??0CUGEdit@@QAE@XZ         004491f5 f   dundas:ugedit.obj
 0001:00048205       ??1CUGEdit@@UAE@XZ         00449205 f   dundas:ugedit.obj
 0001:0004820c       ??_GCUGEdit@@UAEPAXI@Z     0044920c f i dundas:ugedit.obj
 0001:0004820c       ??_ECUGEdit@@UAEPAXI@Z     0044920c f i dundas:ugedit.obj
 0001:00048229       ?CalcEditRect@CUGEdit@@IAEXXZ 00449229 f   dundas:ugedit.obj
 0001:000484aa       ?CreateEditWindow@CUGEdit@@QAEHKUtagRECT@@PAUHWND__@@I@Z 004494aa f   dundas:ugedit.obj
 0001:0004852d       ?EditWndProc@CUGEdit@@SGJPAUHWND__@@IIJ@Z 0044952d f   dundas:ugedit.obj
 0001:00048634       ?OnChar@CUGEdit@@IAEHII@Z  00449634 f   dundas:ugedit.obj
 0001:00048686       ?OnGetDlgCode@CUGEdit@@IAEIXZ 00449686 f   dundas:ugedit.obj
 0001:000486bb       ?OnKeyDown@CUGEdit@@IAEXII@Z 004496bb f   dundas:ugedit.obj
 0001:000487d0       ?OnKillFocus@CUGEdit@@IAEXPAUHWND__@@@Z 004497d0 f   dundas:ugedit.obj
 0001:00048877       ?OnSetCursor@CUGEdit@@IAEHPAUHWND__@@II@Z 00449877 f   dundas:ugedit.obj
 0001:00048891       ?OnSetFocus@CUGEdit@@IAEXPAUHWND__@@@Z 00449891 f   dundas:ugedit.obj
 0001:000488f4       ??0CUGTab@@QAE@XZ          004498f4 f   dundas:ugtab.obj
 0001:000489c7       ??1CUGTab@@UAE@XZ          004499c7 f   dundas:ugtab.obj
 0001:00048a28       ??_GCUGTab@@UAEPAXI@Z      00449a28 f i dundas:ugtab.obj
 0001:00048a28       ??_ECUGTab@@UAEPAXI@Z      00449a28 f i dundas:ugtab.obj
 0001:00048a44       ?AdjustScrollBars@CUGTab@@QAEHXZ 00449a44 f   dundas:ugtab.obj
 0001:00048abc       ?CreateTabWindow@CUGTab@@QAEHKUtagRECT@@PAUHWND__@@I@Z 00449abc f   dundas:ugtab.obj
 0001:00048bba       ?MakeCurrentTabVisible@CUGTab@@AAEXXZ 00449bba f   dundas:ugtab.obj
 0001:00048c5d       ?OnCreate@CUGTab@@IAEHXZ   00449c5d f   dundas:ugtab.obj
 0001:00048cd3       ?OnHScroll@CUGTab@@IAEXIIPAUHWND__@@@Z 00449cd3 f   dundas:ugtab.obj
 0001:00048d31       ?OnLButtonDown@CUGTab@@IAEXIUtagPOINT@@@Z 00449d31 f   dundas:ugtab.obj
 0001:00048dc6       ?OnMouseMove@CUGTab@@IAEXIUtagPOINT@@@Z 00449dc6 f   dundas:ugtab.obj
 0001:00048e3a       ?OnPaint@CUGTab@@IAEXXZ    00449e3a f   dundas:ugtab.obj
 0001:00049376       ?OnRButtonDown@CUGTab@@IAEXIUtagPOINT@@@Z 0044a376 f   dundas:ugtab.obj
 0001:000493fa       ?OnSetCursor@CUGTab@@IAEHPAUHWND__@@II@Z 0044a3fa f   dundas:ugtab.obj
 0001:0004942b       ?OnSize@CUGTab@@IAEXIHH@Z  0044a42b f   dundas:ugtab.obj
 0001:00049489       ?OnTabSizing@CUGTab@@QAEXH@Z 0044a489 f   dundas:ugtab.obj
 0001:0004956c       ?TabWndProc@CUGTab@@SGJPAUHWND__@@IIJ@Z 0044a56c f   dundas:ugtab.obj
 0001:0004969b       ??0CUGGridInfo@@QAE@XZ     0044a69b f   dundas:uggdinfo.obj
 0001:00049934       ??1CUGGridInfo@@UAE@XZ     0044a934 f   dundas:uggdinfo.obj
 0001:00049a2d       ??_GCUGGridInfo@@UAEPAXI@Z 0044aa2d f i dundas:uggdinfo.obj
 0001:00049a2d       ??_ECUGGridInfo@@UAEPAXI@Z 0044aa2d f i dundas:uggdinfo.obj
 0001:00049a49       ?OnSheetSetup@CUGCtrl@@UAEXH@Z 0044aa49 f   dundas:ugctrl.obj
 0001:00049a49       ?OnSetFocus@CUGCtrl@@UAEXH@Z 0044aa49 f   dundas:ugctrl.obj
 0001:00049a49       ?ApplyDisplayFormat@CUGCellFormat@@QAEXPAVCUGCell@@@Z 0044aa49 f   dundas:ugformat.obj
 0001:00049a49       ?OnKillFocus@CUGCtrl@@UAEXH@Z 0044aa49 f   dundas:ugctrl.obj
 0001:00049a49       ?OnTabSelected@CUGCtrl@@UAEXH@Z 0044aa49 f   dundas:ugctrl.obj
 0001:00049a4c       ??0CUGPrint@@QAE@XZ        0044aa4c f   dundas:ugprint.obj
 0001:00049a7b       ??1CUGPrint@@QAE@XZ        0044aa7b f   dundas:ugprint.obj
 0001:00049a80       ?ClearPrintList@CUGPrint@@AAEHXZ 0044aa80 f   dundas:ugprint.obj
 0001:00049aa1       ??0CUGHint@@QAE@XZ         0044aaa1 f   dundas:ughint.obj
 0001:00049ad6       ??1CUGHint@@UAE@XZ         0044aad6 f   dundas:ughint.obj
 0001:00049b0b       ??_ECUGHint@@UAEPAXI@Z     0044ab0b f i dundas:ughint.obj
 0001:00049b0b       ??_GCUGHint@@UAEPAXI@Z     0044ab0b f i dundas:ughint.obj
 0001:00049b27       ?CreateHintWindow@CUGHint@@QAEHKUtagRECT@@PAUHWND__@@I@Z 0044ab27 f   dundas:ughint.obj
 0001:00049c20       ?Hide@CUGHint@@QAEHXZ      0044ac20 f   dundas:ughint.obj
 0001:00049c48       ?HintWndProc@CUGHint@@SGJPAUHWND__@@IIJ@Z 0044ac48 f   dundas:ughint.obj
 0001:00049caa       ?MoveHintWindow@CUGHint@@QAEHHHH@Z 0044acaa f   dundas:ughint.obj
 0001:00049e0e       ?OnCreate@CUGHint@@IAEXXZ  0044ae0e f   dundas:ughint.obj
 0001:00049e6f       ?OnPaint@CUGHint@@IAEXXZ   0044ae6f f   dundas:ughint.obj
 0001:00049f59       ?SetText@CUGHint@@QAEHPBDH@Z 0044af59 f   dundas:ughint.obj
 0001:00049f85       ?SetTextAlign@CUGHint@@QAEHH@Z 0044af85 f   dundas:ughint.obj
 0001:00049f91       ?SetWindowAlign@CUGHint@@QAEHH@Z 0044af91 f   dundas:ughint.obj
 0001:00049f9d       ?Show@CUGHint@@QAEHXZ      0044af9d f   dundas:ughint.obj
 0001:00049fbc       ??0CUGDropListType@@QAE@XZ 0044afbc f   dundas:ugdltype.obj
 0001:0004a02b       ??1CUGDropListType@@QAE@XZ 0044b02b f   dundas:ugdltype.obj
 0001:0004a067       ?GetEditArea@CUGDropListType@@UAEHPAUtagRECT@@@Z 0044b067 f   dundas:ugdltype.obj
 0001:0004a07a       ?GetName@CUGDropListType@@UAEPBDXZ 0044b07a f   dundas:ugdltype.obj
 0001:0004a080       ?GetUGID@CUGDropListType@@UAEPBUUGID@@XZ 0044b080 f   dundas:ugdltype.obj
 0001:0004a086       ?OnCharDown@CUGDropListType@@UAEHHJPAI@Z 0044b086 f   dundas:ugdltype.obj
 0001:0004a09f       ?OnDClicked@CUGDropListType@@UAEHHJPAUtagRECT@@PAUtagPOINT@@@Z 0044b09f f   dundas:ugdltype.obj
 0001:0004a0cb       ?OnDraw@CUGDropListType@@UAEXPAUHDC__@@PAUtagRECT@@HJPAVCUGCell@@HH@Z 0044b0cb f   dundas:ugdltype.obj
 0001:0004a2ac       ?OnKeyDown@CUGDropListType@@UAEHHJPAI@Z 0044b2ac f   dundas:ugdltype.obj
 0001:0004a2e3       ?OnKillFocus@CUGDropListType@@UAEXHJPAVCUGCell@@@Z 0044b2e3 f   dundas:ugdltype.obj
 0001:0004a2ee       ?OnLClicked@CUGDropListType@@UAEHHJHPAUtagRECT@@PAUtagPOINT@@@Z 0044b2ee f   dundas:ugdltype.obj
 0001:0004a395       ?OnMouseMove@CUGDropListType@@UAEHHJPAUtagPOINT@@I@Z 0044b395 f   dundas:ugdltype.obj
 0001:0004a3ea       ?StartDropList@CUGDropListType@@IAEHXZ 0044b3ea f   dundas:ugdltype.obj
 0001:0004a8a9       ??0CUGArrowType@@QAE@XZ    0044b8a9 f   dundas:ugctarrw.obj
 0001:0004a8bf       ??1CUGArrowType@@QAE@XZ    0044b8bf f   dundas:ugctarrw.obj
 0001:0004a8ca       ?OnDraw@CUGArrowType@@UAEXPAUHDC__@@PAUtagRECT@@HJPAVCUGCell@@HH@Z 0044b8ca f   dundas:ugctarrw.obj
 0001:0004ac5d       ??1CUGDrawHint@@QAE@XZ     0044bc5d f   dundas:ugdrwhnt.obj
 0001:0004ac62       ?AddHint@CUGDrawHint@@QAEXHJ@Z 0044bc62 f   dundas:ugdrwhnt.obj
 0001:0004ac7a       ?AddHint@CUGDrawHint@@QAEXHJHJ@Z 0044bc7a f   dundas:ugdrwhnt.obj
 0001:0004ad0a       ?AddToHint@CUGDrawHint@@QAEXHJHJ@Z 0044bd0a f   dundas:ugdrwhnt.obj
 0001:0004ad7e       ?ClearHints@CUGDrawHint@@QAEXXZ 0044bd7e f   dundas:ugdrwhnt.obj
 0001:0004adb9       ?IsInvalid@CUGDrawHint@@QAEHHJ@Z 0044bdb9 f   dundas:ugdrwhnt.obj
 0001:0004ae01       ?IsValid@CUGDrawHint@@QAEHHJ@Z 0044be01 f   dundas:ugdrwhnt.obj
 0001:0004ae2a       ?SetAsValid@CUGDrawHint@@QAEXHJ@Z 0044be2a f   dundas:ugdrwhnt.obj
 0001:0004ae68       ??0CUGMem@@QAE@XZ          0044be68 f   dundas:ugmemman.obj
 0001:0004ae8b       ??1CUGMem@@UAE@XZ          0044be8b f   dundas:ugmemman.obj
 0001:0004aea1       ??_ECUGMem@@UAEPAXI@Z      0044bea1 f i dundas:ugmemman.obj
 0001:0004aea1       ??_GCUGMem@@UAEPAXI@Z      0044bea1 f i dundas:ugmemman.obj
 0001:0004aebd       ?DeleteCell@CUGMem@@UAEHHJ@Z 0044bebd f   dundas:ugmemman.obj
 0001:0004af12       ?DeleteCol@CUGMem@@UAEHH@Z 0044bf12 f   dundas:ugmemman.obj
 0001:0004afcc       ?DeleteRow@CUGMem@@UAEHJ@Z 0044bfcc f   dundas:ugmemman.obj
 0001:0004b07e       ?Empty@CUGMem@@UAEHXZ      0044c07e f   dundas:ugmemman.obj
 0001:0004b107       ?FindFirst@CUGMem@@UAEHPADPAHPAJJ@Z 0044c107 f   dundas:ugmemman.obj
 0001:0004b134       ?FindNext@CUGMem@@UAEHPADPAHPAJH@Z 0044c134 f   dundas:ugmemman.obj
 0001:0004b23d       ?GetCell@CUGMem@@UAEHHJPAVCUGCell@@@Z 0044c23d f   dundas:ugmemman.obj
 0001:0004b2f6       ?GetPrevNonBlankCol@CUGMem@@UAEHPAHJ@Z 0044c2f6 f   dundas:ugmemman.obj
 0001:0004b371       ?GotoCol@CUGMem@@AAEHH@Z   0044c371 f   dundas:ugmemman.obj
 0001:0004b3be       ?GotoRow@CUGMem@@AAEHJ@Z   0044c3be f   dundas:ugmemman.obj
 0001:0004b41d       ?InsertCol@CUGMem@@UAEHH@Z 0044c41d f   dundas:ugmemman.obj
 0001:0004b48e       ?InsertRow@CUGMem@@UAEHJ@Z 0044c48e f   dundas:ugmemman.obj
 0001:0004b4d0       ?NextRow@CUGMem@@AAEHXZ    0044c4d0 f   dundas:ugmemman.obj
 0001:0004b4f4       ?PrevCol@CUGMem@@AAEHXZ    0044c4f4 f   dundas:ugmemman.obj
 0001:0004b50f       ?PrevRow@CUGMem@@AAEHXZ    0044c50f f   dundas:ugmemman.obj
 0001:0004b533       ?SetCell@CUGMem@@UAEHHJPAVCUGCell@@@Z 0044c533 f   dundas:ugmemman.obj
 0001:0004b6bb       ?OnHitBottom@CUGDataSource@@UAEHJJPAJ@Z 0044c6bb f   dundas:ugdtasrc.obj
 0001:0004b6bb       ?GetCell@CUGDataSource@@UAEHHJPAVCUGCell@@@Z 0044c6bb f   dundas:ugdtasrc.obj
 0001:0004b6bb       ?SetOption@CUGMem@@UAEHHJJ@Z 0044c6bb f   dundas:ugmemman.obj
 0001:0004b6bb       ?OnHitTop@CUGDataSource@@UAEHJJPAJ@Z 0044c6bb f   dundas:ugdtasrc.obj
 0001:0004b6bb       ?GetOption@CUGDataSource@@UAEHHAAJ0@Z 0044c6bb f   dundas:ugdtasrc.obj
 0001:0004b6bb       ?GetOption@CUGMem@@UAEHHAAJ0@Z 0044c6bb f   dundas:ugmemman.obj
 0001:0004b6bb       ?SetOption@CUGDataSource@@UAEHHJJ@Z 0044c6bb f   dundas:ugdtasrc.obj
 0001:0004b6bb       ?SetCell@CUGDataSource@@UAEHHJPAVCUGCell@@@Z 0044c6bb f   dundas:ugdtasrc.obj
 0001:0004b6bb       ?SortBy@CUGDataSource@@UAEHPAHHH@Z 0044c6bb f   dundas:ugdtasrc.obj
 0001:0004b6c1       ?SortBy@CUGMem@@UAEHHH@Z   0044c6c1 f   dundas:ugmemman.obj
 0001:0004b6d4       ?SortBy@CUGMem@@UAEHPAHHH@Z 0044c6d4 f   dundas:ugmemman.obj
 0001:0004b8b2       ??0CUGLstBox@@QAE@XZ       0044c8b2 f   dundas:uglstbox.obj
 0001:0004b8cf       ??_ECUGLstBox@@UAEPAXI@Z   0044c8cf f i dundas:uglstbox.obj
 0001:0004b8cf       ??_GCUGLstBox@@UAEPAXI@Z   0044c8cf f i dundas:uglstbox.obj
 0001:0004b8ec       ?ListBoxWndProc@CUGLstBox@@SGJPAUHWND__@@IIJ@Z 0044c8ec f   dundas:uglstbox.obj
 0001:0004b9d1       ?OnKeyDown@CUGLstBox@@IAEXPAUHWND__@@II@Z 0044c9d1 f   dundas:uglstbox.obj
 0001:0004ba1e       ?OnKillFocus@CUGLstBox@@IAEXPAUHWND__@@@Z 0044ca1e f   dundas:uglstbox.obj
 0001:0004ba64       ?OnLButtonUp@CUGLstBox@@IAEXPAUHWND__@@IUtagPOINT@@@Z 0044ca64 f   dundas:uglstbox.obj
 0001:0004ba94       ?OnSetFocus@CUGLstBox@@IAEXPAUHWND__@@@Z 0044ca94 f   dundas:uglstbox.obj
 0001:0004bab5       ?Select@CUGLstBox@@AAEXPAUHWND__@@@Z 0044cab5 f   dundas:uglstbox.obj
 0001:0004bbb9       ??0bad_alloc@std@@QAE@ABV01@@Z 0044cbb9 f i LIBCMT:new.obj
 0001:0004bbd4       ??1bad_alloc@std@@UAE@XZ   0044cbd4 f i LIBCMT:new.obj
 0001:0004bbdf       ??2@YAPAXI@Z               0044cbdf f   LIBCMT:new.obj
 0001:0004bc30       ??_Gbad_alloc@std@@UAEPAXI@Z 0044cc30 f i LIBCMT:new.obj
 0001:0004bc30       ??_Ebad_alloc@std@@UAEPAXI@Z 0044cc30 f i LIBCMT:new.obj
 0001:0004bc55       ??3@YAXPAX@Z               0044cc55 f   LIBCMT:delete.obj
 0001:0004bc5a       ___onexitinit              0044cc5a f   LIBCMT:onexit.obj
 0001:0004bc89       __onexit                   0044cc89 f   LIBCMT:onexit.obj
 0001:0004bd85       _atexit                    0044cd85 f   LIBCMT:onexit.obj
 0001:0004bd9a       ___raise_securityfailure   0044cd9a f   LIBCMT:gs_report.obj
 0001:0004bdd7       ___report_gsfailure        0044cdd7 f   LIBCMT:gs_report.obj
 0001:0004bed2       ___report_rangecheckfailure 0044ced2 f   LIBCMT:gs_report.obj
 0001:0004bede       ___report_securityfailure  0044cede f   LIBCMT:gs_report.obj
 0001:0004bfae       @__security_check_cookie@4 0044cfae f   LIBCMT:secchk.obj
 0001:0004bfc0       __ftoui3                   0044cfc0 f   LIBCMT:ftol3.obj
 0001:0004bfcf       __ftoul3                   0044cfcf f   LIBCMT:ftol3.obj
 0001:0004bfde       __ftol3                    0044cfde f   LIBCMT:ftol3.obj
 0001:0004bfeb       __ftol3_NaN                0044cfeb f   LIBCMT:ftol3.obj
 0001:0004c003       __ftol3_work               0044d003 f   LIBCMT:ftol3.obj
 0001:0004c089       __ftol3_common             0044d089 f   LIBCMT:ftol3.obj
 0001:0004c14b       __ftol3_arg_error          0044d14b f   LIBCMT:ftol3.obj
 0001:0004c15d       __ftol3_except             0044d15d f   LIBCMT:ftol3.obj
 0001:0004c1a1       __dtoui3                   0044d1a1 f   LIBCMT:ftol3.obj
 0001:0004c1b0       __dtoul3                   0044d1b0 f   LIBCMT:ftol3.obj
 0001:0004c1bf       __dtol3                    0044d1bf f   LIBCMT:ftol3.obj
 0001:0004c1cc       __dtol3_NaN                0044d1cc f   LIBCMT:ftol3.obj
 0001:0004c1e9       __dtol3_work               0044d1e9 f   LIBCMT:ftol3.obj
 0001:0004c2ce       __ultod3                   0044d2ce f   LIBCMT:ftol3.obj
 0001:0004c35f       __ltod3                    0044d35f f   LIBCMT:ftol3.obj
 0001:0004c390       _memset                    0044d390 f   LIBCMT:memset.obj
 0001:0004c420       ??1type_info@@UAE@XZ       0044d420 f   LIBCMT:typinfo.obj
 0001:0004c42e       ??_Gtype_info@@UAEPAXI@Z   0044d42e f i LIBCMT:typinfo.obj
 0001:0004c42e       ??_Etype_info@@UAEPAXI@Z   0044d42e f i LIBCMT:typinfo.obj
 0001:0004c44d       __fpmath                   0044d44d f   LIBCMT:fpinit.obj
 0001:0004c464       __cfltcvt_init             0044d464 f   LIBCMT:fpinit.obj
 0001:0004c4d0       __CIsqrt                   0044d4d0 f   LIBCMT:sqrt.obj
 0001:0004c4e4       _sqrt                      0044d4e4     LIBCMT:sqrt.obj
 0001:0004c590       __alloca_probe             0044d590 f   LIBCMT:chkstk.obj
 0001:0004c590       __chkstk                   0044d590 f   LIBCMT:chkstk.obj
 0001:0004c5bb       _WinMainCRTStartup         0044d5bb f   LIBCMT:wincrt0.obj
 0001:0004c73c       ??0_LocaleUpdate@@QAE@PAUlocaleinfo_struct@@@Z 0044d73c f i LIBCMT:strtod.obj
 0001:0004c7c4       __strtod_l                 0044d7c4 f   LIBCMT:strtod.obj
 0001:0004c8db       _strtod                    0044d8db f   LIBCMT:strtod.obj
 0001:0004cb16       _strtol                    0044db16 f   LIBCMT:strtol.obj
 0001:0004cb40       _strtoul                   0044db40 f   LIBCMT:strtol.obj
 0001:0004cb70       _memcpy                    0044db70 f   LIBCMT:memcpy.obj
 0001:0004d229       __ecvt_s                   0044e229 f   LIBCMT:fcvt.obj
 0001:0004d2e0       _floor                     0044e2e0 f   LIBCMT:floor_pentium4.obj
 0001:0004d320       __floor_pentium4           0044e320 f   LIBCMT:floor_pentium4.obj
 0001:0004d410       _log10                     0044e410 f   LIBCMT:log10.obj
 0001:0004d450       __CIlog10                  0044e450 f   LIBCMT:log10.obj
 0001:0004d48b       __CIlog10_default          0044e48b f   LIBCMT:log10.obj
 0001:0004d49f       __log10_default            0044e49f     LIBCMT:log10.obj
 0001:0004d560       __aulldiv                  0044e560 f   LIBCMT:ulldiv.obj
 0001:0004d5d0       _ceil                      0044e5d0 f   LIBCMT:ceil_pentium4.obj
 0001:0004d610       __ceil_pentium4            0044e610 f   LIBCMT:ceil_pentium4.obj
 0001:0004d6f0       __alldiv                   0044e6f0 f   LIBCMT:lldiv.obj
 0001:0004d7a0       __allmul                   0044e7a0 f   LIBCMT:llmul.obj
 0001:0004d7e0       _memmove                   0044e7e0 f   LIBCMT:memmove.obj
 0001:0004de24       _memcmp                    0044ee24 f   LIBCMT:memcmp.obj
 0001:0004f5a0       _strstr                    004505a0 f   LIBCMT:strstr.obj
 0001:0004f803       _malloc                    00450803 f   LIBCMT:malloc.obj
 0001:0004f895       ??0exception@std@@QAE@ABQBDH@Z 00450895 f   LIBCMT:stdexcpt.obj
 0001:0004f8b0       ??0exception@std@@QAE@ABV01@@Z 004508b0 f   LIBCMT:stdexcpt.obj
 0001:0004f8d3       ??1exception@std@@UAE@XZ   004508d3 f   LIBCMT:stdexcpt.obj
 0001:0004f8de       ??4exception@std@@QAEAAV01@ABV01@@Z 004508de f   LIBCMT:stdexcpt.obj
 0001:0004f911       ??_Gexception@std@@UAEPAXI@Z 00450911 f i LIBCMT:stdexcpt.obj
 0001:0004f911       ??_Eexception@std@@UAEPAXI@Z 00450911 f i LIBCMT:stdexcpt.obj
 0001:0004f936       ?_Copy_str@exception@std@@AAEXPBD@Z 00450936 f   LIBCMT:stdexcpt.obj
 0001:0004f974       ?_Tidy@exception@std@@AAEXXZ 00450974 f   LIBCMT:stdexcpt.obj
 0001:0004f990       ?what@exception@std@@UBEPBDXZ 00450990 f   LIBCMT:stdexcpt.obj
 0001:0004f99d       __callnewh                 0045099d f   LIBCMT:handler.obj
 0001:0004f9c3       __initp_heap_handler       004509c3 f   LIBCMT:handler.obj
 0001:0004f9d0       __CxxThrowException@8      004509d0 f   LIBCMT:throw.obj
 0001:0004fa33       _free                      00450a33 f   LIBCMT:free.obj
 0001:0004fa6b       ___crtCorExitProcess       00450a6b f   LIBCMT:crt0dat.obj
 0001:0004fa9f       ___crtExitProcess          00450a9f f   LIBCMT:crt0dat.obj
 0001:0004fab5       __amsg_exit                00450ab5 f   LIBCMT:crt0dat.obj
 0001:0004fad1       __c_exit                   00450ad1 f   LIBCMT:crt0dat.obj
 0001:0004fae0       __cexit                    00450ae0 f   LIBCMT:crt0dat.obj
 0001:0004faef       __cinit                    00450aef f   LIBCMT:crt0dat.obj
 0001:0004fb73       __exit                     00450b73 f   LIBCMT:crt0dat.obj
 0001:0004fb87       __init_pointers            00450b87 f   LIBCMT:crt0dat.obj
 0001:0004fbf5       __initterm_e               00450bf5 f   LIBCMT:crt0dat.obj
 0001:0004fc17       __lockexit                 00450c17 f   LIBCMT:crt0dat.obj
 0001:0004fc20       __unlockexit               00450c20 f   LIBCMT:crt0dat.obj
 0001:0004fd58       _exit                      00450d58 f   LIBCMT:crt0dat.obj
 0001:0004fd6c       __msize                    00450d6c f   LIBCMT:msize.obj
 0001:0004fd9d       __calloc_crt               00450d9d f   LIBCMT:crtheap.obj
 0001:0004fde5       __malloc_crt               00450de5 f   LIBCMT:crtheap.obj
 0001:0004fe2c       __realloc_crt              00450e2c f   LIBCMT:crtheap.obj
 0001:0004fe80       __SEH_prolog4              00450e80 f   LIBCMT:sehprolg4.obj
 0001:0004fec5       __SEH_epilog4              00450ec5 f   LIBCMT:sehprolg4.obj
 0001:0004fee0       __except_handler4          00450ee0 f   LIBCMT:chandler4.obj
 0001:00050074       __crt_debugger_hook        00451074 f   LIBCMT:dbghook.obj
 0001:0005007c       ___crtFlsAlloc             0045107c f   LIBCMT:winapisupp.obj
 0001:0005009a       ___crtFlsFree              0045109a f   LIBCMT:winapisupp.obj
 0001:000500b9       ___crtFlsGetValue          004510b9 f   LIBCMT:winapisupp.obj
 0001:000500d8       ___crtFlsSetValue          004510d8 f   LIBCMT:winapisupp.obj
 0001:000500fa       ___crtGetShowWindowMode    004510fa f   LIBCMT:winapisupp.obj
 0001:0005011d       ___crtInitializeCriticalSectionEx 0045111d f   LIBCMT:winapisupp.obj
 0001:0005014b       ___crtIsPackagedApp        0045114b f   LIBCMT:winapisupp.obj
 0001:0005018b       ___crtLoadWinApiPointers   0045118b f   LIBCMT:winapisupp.obj
 0001:00050416       ___crtSetUnhandledExceptionFilter 00451416 f   LIBCMT:winapisupp.obj
 0001:00050424       ___crtSleep                00451424 f   LIBCMT:winapisupp.obj
 0001:00050432       ___crtTerminateProcess     00451432 f   LIBCMT:winapisupp.obj
 0001:00050447       ___crtUnhandledException   00451447 f   LIBCMT:winapisupp.obj
 0001:0005045d       __errcode                  0045145d f   LIBCMT:fpexcept.obj
 0001:0005048f       __except1                  0045148f f   LIBCMT:fpexcept.obj
 0001:00050557       __handle_exc               00451557 f   LIBCMT:fpexcept.obj
 0001:00050735       __handle_qnan1             00451735 f   LIBCMT:fpexcept.obj
 0001:00050785       __raise_exc                00451785 f   LIBCMT:fpexcept.obj
 0001:000507a6       __raise_exc_ex             004517a6 f   LIBCMT:fpexcept.obj
 0001:00050a8b       __set_errno_from_matherr   00451a8b f   LIBCMT:fpexcept.obj
 0001:00050ab8       __umatherr                 00451ab8 f   LIBCMT:fpexcept.obj
 0001:00050b58       __VEC_memset               00451b58 f   LIBCMT:p4_memset.obj
 0001:00050c20       ___isa_available_init      00451c20 f   LIBCMT:cpu_disp.obj
 0001:00050da0       _strcmp                    00451da0 f   LIBCMT:strcmp.obj
 0001:00050e2c       ?_Type_info_dtor@type_info@@CAXPAV1@@Z 00451e2c f   LIBCMT:typname.obj
 0001:00050e9d       __cfltcvt                  00451e9d f   LIBCMT:cvt.obj
 0001:00050ebe       __cfltcvt_l                00451ebe f   LIBCMT:cvt.obj
 0001:00050f44       __cftoa_l                  00451f44 f   LIBCMT:cvt.obj
 0001:000512a0       __cftoe                    004522a0 f   LIBCMT:cvt.obj
 0001:0005140f       __cftoe_l                  0045240f f   LIBCMT:cvt.obj
 0001:000515c9       __cftof_l                  004525c9 f   LIBCMT:cvt.obj
 0001:0005168a       __cftog_l                  0045268a f   LIBCMT:cvt.obj
 0001:00051789       __cropzeros                00452789 f   LIBCMT:cvt.obj
 0001:0005179a       __cropzeros_l              0045279a f   LIBCMT:cvt.obj
 0001:0005181a       __fassign                  0045281a f   LIBCMT:cvt.obj
 0001:00051832       __fassign_l                00452832 f   LIBCMT:cvt.obj
 0001:00051874       __forcdecpt                00452874 f   LIBCMT:cvt.obj
 0001:00051885       __forcdecpt_l              00452885 f   LIBCMT:cvt.obj
 0001:000518f9       __positive                 004528f9 f   LIBCMT:cvt.obj
 0001:0005193b       __setdefaultprecision      0045293b f   LIBCMT:fp8.obj
 0001:00051962       __initp_misc_cfltcvt_tab   00452962 f   LIBCMT:cmiscdat.obj
 0001:00051990       __trandisp1                00452990 f   LIBCMT:87disp.obj
 0001:000519f7       __trandisp2                004529f7 f   LIBCMT:87disp.obj
 0001:00051a83       __rttospopde               00452a83     LIBCMT:87disp.obj
 0001:00051a88       __rttospop                 00452a88     LIBCMT:87disp.obj
 0001:00051a8a       __rtnospop                 00452a8a     LIBCMT:87disp.obj
 0001:00051a8c       __rttosnpop                00452a8c     LIBCMT:87disp.obj
 0001:00051a8d       __rtnospopde               00452a8d     LIBCMT:87disp.obj
 0001:00051a94       __rtzeropop                00452a94     LIBCMT:87disp.obj
 0001:00051a96       __rtzeronpop               00452a96     LIBCMT:87disp.obj
 0001:00051a9b       __rtonepop                 00452a9b     LIBCMT:87disp.obj
 0001:00051a9d       __rtonenpop                00452a9d     LIBCMT:87disp.obj
 0001:00051aa2       __tosnan1                  00452aa2     LIBCMT:87disp.obj
 0001:00051acd       __nosnan2                  00452acd     LIBCMT:87disp.obj
 0001:00051acf       __tosnan2                  00452acf     LIBCMT:87disp.obj
 0001:00051af7       __nan2                     00452af7     LIBCMT:87disp.obj
 0001:00051b36       __rtindfpop                00452b36     LIBCMT:87disp.obj
 0001:00051b38       __rtindfnpop               00452b38     LIBCMT:87disp.obj
 0001:00051b49       __rttosnpopde              00452b49     LIBCMT:87disp.obj
 0001:00051b53       __rtchsifneg               00452b53     LIBCMT:87disp.obj
 0001:00051b60       __startTwoArgErrorHandling 00452b60 f   LIBCMT:genexcep.obj
 0001:00051b77       __startOneArgErrorHandling 00452b77 f   LIBCMT:genexcep.obj
 0001:00051bc0       __twoToTOS                 00452bc0 f   LIBCMT:common.obj
 0001:00051bd5       __load_CW                  00452bd5 f   LIBCMT:common.obj
 0001:00051bec       __convertTOStoQNaN         00452bec f   LIBCMT:common.obj
 0001:00051c05       __fload_withFB             00452c05 f   LIBCMT:common.obj
 0001:00051c48       __checkTOS_withFB          00452c48 f   LIBCMT:common.obj
 0001:00051c5e       __fast_exit                00452c5e f   LIBCMT:common.obj
 0001:00051c6b       __math_exit                00452c6b f   LIBCMT:common.obj
 0001:00051c95       __check_overflow_exit      00452c95 f   LIBCMT:common.obj
 0001:00051ca9       __check_range_exit         00452ca9 f   LIBCMT:common.obj
 0001:00051d4c       __decomp                   00452d4c f   LIBCMT:util.obj
 0001:00051e1e       __set_exp                  00452e1e f   LIBCMT:util.obj
 0001:00051e4d       __sptype                   00452e4d f   LIBCMT:util.obj
 0001:00051ea8       ___set_fpsr_sse2           00452ea8 f   LIBCMT:fpctrl.obj
 0001:00051f1e       __clrfp                    00452f1e f   LIBCMT:fpctrl.obj
 0001:00051f2f       __ctrlfp                   00452f2f f   LIBCMT:fpctrl.obj
 0001:00051f5a       __set_statfp               00452f5a f   LIBCMT:fpctrl.obj
 0001:00051fb2       __statfp                   00452fb2 f   LIBCMT:fpctrl.obj
 0001:00051fc2       ?__CxxUnhandledExceptionFilter@@YGJPAU_EXCEPTION_POINTERS@@@Z 00452fc2 f   LIBCMT:unhandld.obj
 0001:00052003       ___CxxSetUnhandledExceptionFilter 00453003 f   LIBCMT:unhandld.obj
 0001:00052011       __XcptFilter               00453011 f   LIBCMT:winxfltr.obj
 0001:0005216c       __freefls@4                0045316c f   LIBCMT:tidtable.obj
 0001:000522a1       __getptd                   004532a1 f   LIBCMT:tidtable.obj
 0001:000522b9       __getptd_noexit            004532b9 f   LIBCMT:tidtable.obj
 0001:00052328       __initptd                  00453328 f   LIBCMT:tidtable.obj
 0001:000523db       __mtinit                   004533db f   LIBCMT:tidtable.obj
 0001:00052451       __mtterm                   00453451 f   LIBCMT:tidtable.obj
 0001:0005246e       __heap_init                0045346e f   LIBCMT:heapinit.obj
 0001:00052483       __ioinit                   00453483 f   LIBCMT:ioinit.obj
 0001:00052737       __setargv                  00453737 f   LIBCMT:stdargv.obj
 0001:00052966       __setenvp                  00453966 f   LIBCMT:stdenvp.obj
 0001:00052a47       __FF_MSGBANNER             00453a47 f   LIBCMT:crt0msg.obj
 0001:00052a80       __GET_RTERRMSG             00453a80 f   LIBCMT:crt0msg.obj
 0001:00052aa4       __NMSG_WRITE               00453aa4 f   LIBCMT:crt0msg.obj
 0001:00052c61       ___set_app_type            00453c61 f   LIBCMT:errmode.obj
 0001:00052c6e       __set_error_mode           00453c6e f   LIBCMT:errmode.obj
 0001:00052cae       ___security_init_cookie    00453cae f   LIBCMT:gs_support.obj
 0001:00052d4a       __RTC_Initialize           00453d4a f   LIBCMT:initsect.obj
 0001:00052d6a       __RTC_Terminate            00453d6a f   LIBCMT:initsect.obj
 0001:00052d8a       ___crtGetEnvironmentStringsA 00453d8a f   LIBCMT:a_env.obj
 0001:00052e17       __wincmdln                 00453e17 f   LIBCMT:wincmdln.obj
 0001:00052e76       __call_reportfault         00453e76 f   LIBCMT:invarg.obj
 0001:00052f9b       __initp_misc_invarg        00453f9b f   LIBCMT:invarg.obj
 0001:00052fa8       __invalid_parameter        00453fa8 f   LIBCMT:invarg.obj
 0001:00052fd3       __invalid_parameter_noinfo 00453fd3 f   LIBCMT:invarg.obj
 0001:00052fe3       __invoke_watson            00453fe3 f   LIBCMT:invarg.obj
 0001:0005300e       ___doserrno                0045400e f   LIBCMT:dosmap.obj
 0001:00053021       __dosmaperr                00454021 f   LIBCMT:dosmap.obj
 0001:00053042       __errno                    00454042 f   LIBCMT:dosmap.obj
 0001:00053055       __get_errno_from_oserr     00454055 f   LIBCMT:dosmap.obj
 0001:00053096       __fltin2                   00454096 f   LIBCMT:cfin.obj
 0001:0005313d       ___addlocaleref            0045413d f   LIBCMT:localref.obj
 0001:000531d2       ___freetlocinfo            004541d2 f   LIBCMT:localref.obj
 0001:0005332c       ___removelocaleref         0045432c f   LIBCMT:localref.obj
 0001:000533cc       ___updatetlocinfo          004543cc f   LIBCMT:localref.obj
 0001:0005344c       __updatetlocinfoEx_nolock  0045444c f   LIBCMT:localref.obj
 0001:00053497       ___initmbctable            00454497 f   LIBCMT:mbctype.obj
 0001:0005374e       ___updatetmbcinfo          0045474e f   LIBCMT:mbctype.obj
 0001:000537f4       __setmbcp                  004547f4 f   LIBCMT:mbctype.obj
 0001:0005399c       __setmbcp_nolock           0045499c f   LIBCMT:mbctype.obj
 0001:00053b87       __isctype_l                00454b87 f   LIBCMT:isctype.obj
 0001:00053c40       __locterm                  00454c40 f   LIBCMT:wsetloca.obj
 0001:00053c92       __fptostr                  00454c92 f   LIBCMT:_fptostr.obj
 0001:00053d42       ___dtold                   00454d42 f   LIBCMT:cfout.obj
 0001:00053e0a       __fltout2                  00454e0a f   LIBCMT:cfout.obj
 0001:00053e98       ___libm_error_support      00454e98 f   LIBCMT:libm_error.obj
 0001:00054180       __sse2_mathfcns_init       00455180 f   LIBCMT:mathfcns.obj
 0001:0005418f       __floor_default            0045518f f   LIBCMT:floor.obj
 0001:00054270       __CIlog10_pentium4         00455270 f   LIBCMT:log10_pentium4.obj
 0001:00054288       __log10_pentium4           00455288     LIBCMT:log10_pentium4.obj
 0001:00054511       __fFEXP                    00455511     LIBCMT:87tran.obj
 0001:00054568       __rtinfpopse               00455568     LIBCMT:87tran.obj
 0001:0005456a       __rtinfnpopse              0045556a     LIBCMT:87tran.obj
 0001:0005457a       __fFLN                     0045557a     LIBCMT:87tran.obj
 0001:0005462f       __rtinfpop                 0045562f     LIBCMT:87tran.obj
 0001:00054631       __rtinfnpop                00455631     LIBCMT:87tran.obj
 0001:0005464e       __ffexpm1                  0045564e     LIBCMT:87tran.obj
 0001:000546f7       __ceil_default             004556f7 f   LIBCMT:ceil.obj
 0001:000547d0       _strchr                    004557d0 f   LIBCMT:strchr.obj
 0001:0005483e       ___from_strstr_to_strchr   0045583e     LIBCMT:strchr.obj
 0001:000548fb       _strcpy_s                  004558fb f   LIBCMT:strcpy_s.obj
 0001:00054950       _strlen                    00455950 f   LIBCMT:strlen.obj
 0001:000549db       __lock                     004559db f   LIBCMT:mlock.obj
 0001:00054a0f       __mtdeletelocks            00455a0f f   LIBCMT:mlock.obj
 0001:00054a63       __mtinitlocknum            00455a63 f   LIBCMT:mlock.obj
 0001:00054b0c       __mtinitlocks              00455b0c f   LIBCMT:mlock.obj
 0001:00054b45       __unlock                   00455b45 f   LIBCMT:mlock.obj
 0001:00054b60       __FindPESection            00455b60 f   LIBCMT:pesect.obj
 0001:00054bb0       __IsNonwritableInCurrentImage 00455bb0 f   LIBCMT:pesect.obj
 0001:00054c70       __ValidateImageBase        00455c70 f   LIBCMT:pesect.obj
 0001:00054ca1       ?terminate@@YAXXZ          00455ca1 f   LIBCMT:hooks.obj
 0001:00054cd5       __initp_eh_hooks           00455cd5 f   LIBCMT:hooks.obj
 0001:00054ce6       __initp_misc_purevirt      00455ce6 f   LIBCMT:inithelp.obj
 0001:00054cf3       ___get_sigabrt             00455cf3 f   LIBCMT:winsig.obj
 0001:00054d00       __initp_misc_winsig        00455d00 f   LIBCMT:winsig.obj
 0001:00054d1c       _raise                     00455d1c f   LIBCMT:winsig.obj
 0001:00054f11       __initp_misc_rand_s        00455f11 f   LIBCMT:rand_s.obj
 0001:00054f1e       _realloc                   00455f1e f   LIBCMT:realloc.obj
 0001:00054fc9       __calloc_impl              00455fc9 f   LIBCMT:calloc_impl.obj
 0001:00055050       __local_unwind4            00456050 f   LIBCMT:exsup4.obj
 0001:00055126       __seh_longjmp_unwind4@4    00456126 f   LIBCMT:exsup4.obj
 0001:00055142       @_EH4_CallFilterFunc@8     00456142 f   LIBCMT:exsup4.obj
 0001:00055159       @_EH4_TransferToHandler@8  00456159 f   LIBCMT:exsup4.obj
 0001:00055172       @_EH4_GlobalUnwind2@8      00456172 f   LIBCMT:exsup4.obj
 0001:0005518b       @_EH4_LocalUnwind@16       0045618b f   LIBCMT:exsup4.obj
 0001:000551a2       __isdigit_l                004561a2 f i LIBCMT:_ctype.obj
 0001:000551f4       _isdigit                   004561f4 f i LIBCMT:_ctype.obj
 0001:0005521f       __tolower_l                0045621f f   LIBCMT:tolower.obj
 0001:00055362       _tolower                   00456362 f   LIBCMT:tolower.obj
 0001:00055390       _strrchr                   00456390 f   LIBCMT:strrchr.obj
 0001:000554c7       ___crt_atoflt_l            004564c7 f   LIBCMT:atodbl.obj
 0001:0005556b       __atodbl_l                 0045656b f   LIBCMT:atodbl.obj
 0001:000555f9       __atoflt_l                 004565f9 f   LIBCMT:atodbl.obj
 0001:00055620       __alldvrm                  00456620 f   LIBCMT:lldvrm.obj
 0001:00055700       __aullshr                  00456700 f   LIBCMT:ullshr.obj
 0001:0005571f       __controlfp_s              0045671f f   LIBCMT:contrlfp.obj
 0001:0005577c       __fptrap                   0045677c f   LIBCMT:crt0fp.obj
 0001:00055785       __87except                 00456785 f   LIBCMT:87except.obj
 0001:0005588e       ___initstdio               0045688e f   LIBCMT:_file.obj
 0001:00055901       ___endstdio                00456901 f   LIBCMT:_file.obj
 0001:00055928       __lock_file                00456928 f   LIBCMT:_file.obj
 0001:00055967       __lock_file2               00456967 f   LIBCMT:_file.obj
 0001:00055997       __unlock_file              00456997 f   LIBCMT:_file.obj
 0001:000559d1       __unlock_file2             004569d1 f   LIBCMT:_file.obj
 0001:00055a58       __ismbblead                00456a58 f   LIBCMT:ismbbyte.obj
 0001:00055a6e       _wcscat_s                  00456a6e f   LIBCMT:wcscat_s.obj
 0001:00055ada       _wcscpy_s                  00456ada f   LIBCMT:wcscpy_s.obj
 0001:00055b36       _wcslen                    00456b36 f   LIBCMT:wcslen.obj
 0001:00055b4f       _wcsncpy_s                 00456b4f f   LIBCMT:wcsncpy_s.obj
 0001:00055c0d       ___crtMessageBoxW          00456c0d f   LIBCMT:crtmboxw.obj
 0001:00055df3       __ld12tod                  00456df3 f   LIBCMT:intrncvt.obj
 0001:00056365       __ld12tof                  00457365 f   LIBCMT:intrncvt.obj
 0001:000568d7       ___strgtold12_l            004578d7 f   LIBCMT:strgtold.obj
 0001:0005707f       ___free_lconv_mon          0045807f f   LIBCMT:initmon.obj
 0001:0005717b       ___free_lconv_num          0045817b f   LIBCMT:initnum.obj
 0001:000571e2       ___free_lc_time            004581e2 f   LIBCMT:inittime.obj
 0001:00057766       ___crtLCMapStringA         00458766 f   LIBCMT:a_map.obj
 0001:000577ac       __freea                    004587ac f i LIBCMT:a_map.obj
 0001:000578c2       ___crtGetStringTypeA       004588c2 f   LIBCMT:a_str.obj
 0001:00057902       __isleadbyte_l             00458902 f i LIBCMT:_wctype.obj
 0001:0005793c       _isleadbyte                0045893c f i LIBCMT:_wctype.obj
 0001:0005794d       _GetTableIndexFromLocaleName 0045894d f   LIBCMT:winapinls.obj
 0001:0005799b       ___crtDownlevelLocaleNameToLCID 0045899b f   LIBCMT:winapinls.obj
 0001:000579c5       ___crtLCMapStringEx        004589c5 f   LIBCMT:winapinls.obj
 0001:00057a11       ___wcsnicmp_ascii          00458a11 f   LIBCMT:winapinls.obj
 0001:00057a7f       _$I10_OUTPUT               00458a7f f   LIBCMT:x10fout.obj
 0001:00058453       __frnd                     00459453 f   LIBCMT:frnd.obj
 0001:00058467       __d_inttype                00459467 f   LIBCMT:powhlp.obj
 0001:000584cf       __powhlp                   004594cf f   LIBCMT:powhlp.obj
 0001:00058605       _abort                     00459605 f   LIBCMT:abort.obj
 0001:00058648       __fileno                   00459648 f   LIBCMT:fileno.obj
 0001:0005866c       __isatty                   0045966c f   LIBCMT:isatty.obj
 0001:000586c0       __fflush_nolock            004596c0 f   LIBCMT:fflush.obj
 0001:00058706       __flush                    00459706 f   LIBCMT:fflush.obj
 0001:0005876a       __flushall                 0045976a f   LIBCMT:fflush.obj
 0001:00058860       __global_unwind2           00459860 f   LIBCMT:exsup.obj
 0001:000588c5       __local_unwind2            004598c5 f   LIBCMT:exsup.obj
 0001:00058949       __abnormal_termination     00459949 f   LIBCMT:exsup.obj
 0001:0005896c       __NLG_Notify1              0045996c f   LIBCMT:exsup.obj
 0001:00058975       __NLG_Notify               00459975 f   LIBCMT:exsup.obj
 0001:0005898c       __NLG_Dispatch2            0045998c     LIBCMT:exsup.obj
 0001:0005898c       __NLG_Dispatch             0045998c     LIBCMT:exsup.obj
 0001:00058994       __NLG_Call                 00459994 f   LIBCMT:exsup.obj
 0001:00058996       __NLG_Return2              00459996     LIBCMT:exsup.obj
 0001:000589a0       __aulldvrm                 004599a0 f   LIBCMT:ulldvrm.obj
 0001:00058ade       __control87                00459ade f i LIBCMT:ieee87.obj
 0001:00058e77       __fcloseall                00459e77 f   LIBCMT:closeall.obj
 0001:00058f14       ___mtold12                 00459f14 f   LIBCMT:mantold.obj
 0001:00059100       __alloca_probe_16          0045a100 f   LIBCMT:alloca16.obj
 0001:00059116       __alloca_probe_8           0045a116     LIBCMT:alloca16.obj
 0001:0005912c       __fpclass                  0045a12c f   LIBCMT:ieeemisc.obj
 0001:000591c8       __commit                   0045a1c8 f   LIBCMT:commit.obj
 0001:000592b1       __write                    0045a2b1 f   LIBCMT:write.obj
 0001:000593a0       __write_nolock             0045a3a0 f   LIBCMT:write.obj
 0001:00059c05       __fclose_nolock            0045ac05 f   LIBCMT:fclose.obj
 0001:00059c71       _fclose                    0045ac71 f   LIBCMT:fclose.obj
 0001:00059ce8       ___lock_fhandle            0045ace8 f   LIBCMT:osfinfo.obj
 0001:00059d76       __free_osfhnd              0045ad76 f   LIBCMT:osfinfo.obj
 0001:00059dfc       __get_osfhandle            0045adfc f   LIBCMT:osfinfo.obj
 0001:00059e63       __unlock_fhandle           0045ae63 f   LIBCMT:osfinfo.obj
 0001:00059e89       __lseeki64_nolock          0045ae89 f   LIBCMT:lseeki64.obj
 0001:00059efc       __mbtowc_l                 0045aefc f   LIBCMT:mbtowc.obj
 0001:00059ff1       _mbtowc                    0045aff1 f   LIBCMT:mbtowc.obj
 0001:0005a009       __putwch_nolock            0045b009 f   LIBCMT:putwch.obj
 0001:0005a04c       __close                    0045b04c f   LIBCMT:close.obj
 0001:0005a127       __close_nolock             0045b127 f   LIBCMT:close.obj
 0001:0005a1c1       __freebuf                  0045b1c1 f   LIBCMT:_freebuf.obj
 0001:0005a1f1       ___termconout              0045b1f1 f   LIBCMT:initcon.obj
 0001:0005a208       ___initconout              0045b208 f   LIBCMT:initcon.obj
 0001:0005a228       _IsProcessorFeaturePresent@4 0045b228 f   kernel32:KERNEL32.dll
 0001:0005a22e       _RtlUnwind@16              0045b22e f   kernel32:KERNEL32.dll
 0001:0005a234       _DdeInitializeA@16         0045b234 f   user32:USER32.dll
 0001:0005a23a       _DdeUninitialize@4         0045b23a f   user32:USER32.dll
 0001:0005a240       _DdeConnect@16             0045b240 f   user32:USER32.dll
 0001:0005a246       _DdeDisconnect@4           0045b246 f   user32:USER32.dll
 0001:0005a24c       _DdeClientTransaction@32   0045b24c f   user32:USER32.dll
 0001:0005a252       _DdeGetLastError@4         0045b252 f   user32:USER32.dll
 0001:0005a258       _DdeCreateStringHandleA@12 0045b258 f   user32:USER32.dll
 0001:0005a25e       _DdeFreeStringHandle@8     0045b25e f   user32:USER32.dll
 0001:0005a264       _DdeCmpStringHandles@8     0045b264 f   user32:USER32.dll
 0002:00000000       __imp__CreateStatusWindowA@16 0045c000     comctl32:COMCTL32.dll
 0002:00000004       \177COMCTL32_NULL_THUNK_DATA 0045c004     comctl32:COMCTL32.dll
 0002:00000008       __imp__ChooseColorA@4      0045c008     comdlg32:COMDLG32.dll
 0002:0000000c       __imp__PrintDlgA@4         0045c00c     comdlg32:COMDLG32.dll
 0002:00000010       __imp__ChooseFontA@4       0045c010     comdlg32:COMDLG32.dll
 0002:00000014       \177COMDLG32_NULL_THUNK_DATA 0045c014     comdlg32:COMDLG32.dll
 0002:00000018       __imp__GetObjectA@12       0045c018     gdi32:GDI32.dll
 0002:0000001c       __imp__BitBlt@36           0045c01c     gdi32:GDI32.dll
 0002:00000020       __imp__DPtoLP@12           0045c020     gdi32:GDI32.dll
 0002:00000024       __imp__TextOutA@20         0045c024     gdi32:GDI32.dll
 0002:00000028       __imp__MoveToEx@16         0045c028     gdi32:GDI32.dll
 0002:0000002c       __imp__EndPage@4           0045c02c     gdi32:GDI32.dll
 0002:00000030       __imp__StartPage@4         0045c030     gdi32:GDI32.dll
 0002:00000034       __imp__EndDoc@4            0045c034     gdi32:GDI32.dll
 0002:00000038       __imp__StartDocA@8         0045c038     gdi32:GDI32.dll
 0002:0000003c       __imp__GetTextMetricsA@8   0045c03c     gdi32:GDI32.dll
 0002:00000040       __imp__SetTextAlign@8      0045c040     gdi32:GDI32.dll
 0002:00000044       __imp__SetTextColor@8      0045c044     gdi32:GDI32.dll
 0002:00000048       __imp__SetROP2@8           0045c048     gdi32:GDI32.dll
 0002:0000004c       __imp__SetBkMode@8         0045c04c     gdi32:GDI32.dll
 0002:00000050       __imp__SetBkColor@8        0045c050     gdi32:GDI32.dll
 0002:00000054       __imp__SelectObject@8      0045c054     gdi32:GDI32.dll
 0002:00000058       __imp__LineTo@12           0045c058     gdi32:GDI32.dll
 0002:0000005c       __imp__GetTextExtentPoint32A@16 0045c05c     gdi32:GDI32.dll
 0002:00000060       __imp__GetTextColor@4      0045c060     gdi32:GDI32.dll
 0002:00000064       __imp__GetTextAlign@4      0045c064     gdi32:GDI32.dll
 0002:00000068       __imp__GetStockObject@4    0045c068     gdi32:GDI32.dll
 0002:0000006c       __imp__GetDeviceCaps@8     0045c06c     gdi32:GDI32.dll
 0002:00000070       __imp__GetBkMode@4         0045c070     gdi32:GDI32.dll
 0002:00000074       __imp__CreateFontA@56      0045c074     gdi32:GDI32.dll
 0002:00000078       __imp__Polygon@12          0045c078     gdi32:GDI32.dll
 0002:0000007c       __imp__StretchBlt@44       0045c07c     gdi32:GDI32.dll
 0002:00000080       __imp__ExtTextOutA@32      0045c080     gdi32:GDI32.dll
 0002:00000084       __imp__SaveDC@4            0045c084     gdi32:GDI32.dll
 0002:00000088       __imp__RestoreDC@8         0045c088     gdi32:GDI32.dll
 0002:0000008c       __imp__GetClipBox@8        0045c08c     gdi32:GDI32.dll
 0002:00000090       __imp__PolylineTo@12       0045c090     gdi32:GDI32.dll
 0002:00000094       __imp__DeleteObject@4      0045c094     gdi32:GDI32.dll
 0002:00000098       __imp__DeleteDC@4          0045c098     gdi32:GDI32.dll
 0002:0000009c       __imp__CreateSolidBrush@4  0045c09c     gdi32:GDI32.dll
 0002:000000a0       __imp__CreatePen@12        0045c0a0     gdi32:GDI32.dll
 0002:000000a4       __imp__CreateDCA@16        0045c0a4     gdi32:GDI32.dll
 0002:000000a8       __imp__CreateCompatibleDC@4 0045c0a8     gdi32:GDI32.dll
 0002:000000ac       __imp__CreateCompatibleBitmap@12 0045c0ac     gdi32:GDI32.dll
 0002:000000b0       __imp__CreateFontIndirectA@4 0045c0b0     gdi32:GDI32.dll
 0002:000000b4       \177GDI32_NULL_THUNK_DATA  0045c0b4     gdi32:GDI32.dll
 0002:000000b8       __imp__GetStringTypeW@16   0045c0b8     kernel32:KERNEL32.dll
 0002:000000bc       __imp__OutputDebugStringW@4 0045c0bc     kernel32:KERNEL32.dll
 0002:000000c0       __imp__RtlUnwind@16        0045c0c0     kernel32:KERNEL32.dll
 0002:000000c4       __imp__HeapReAlloc@16      0045c0c4     kernel32:KERNEL32.dll
 0002:000000c8       __imp__LoadLibraryExW@12   0045c0c8     kernel32:KERNEL32.dll
 0002:000000cc       __imp__LeaveCriticalSection@4 0045c0cc     kernel32:KERNEL32.dll
 0002:000000d0       __imp__EnterCriticalSection@4 0045c0d0     kernel32:KERNEL32.dll
 0002:000000d4       __imp__GetCPInfo@8         0045c0d4     kernel32:KERNEL32.dll
 0002:000000d8       __imp__GetOEMCP@0          0045c0d8     kernel32:KERNEL32.dll
 0002:000000dc       __imp__GetACP@0            0045c0dc     kernel32:KERNEL32.dll
 0002:000000e0       __imp__IsValidCodePage@4   0045c0e0     kernel32:KERNEL32.dll
 0002:000000e4       __imp__FreeEnvironmentStringsW@4 0045c0e4     kernel32:KERNEL32.dll
 0002:000000e8       __imp__GetEnvironmentStringsW@0 0045c0e8     kernel32:KERNEL32.dll
 0002:000000ec       __imp__GetSystemTimeAsFileTime@4 0045c0ec     kernel32:KERNEL32.dll
 0002:000000f0       __imp__LCMapStringW@24     0045c0f0     kernel32:KERNEL32.dll
 0002:000000f4       __imp__CreateProcessA@40   0045c0f4     kernel32:KERNEL32.dll
 0002:000000f8       __imp__GetModuleFileNameW@12 0045c0f8     kernel32:KERNEL32.dll
 0002:000000fc       __imp__DeleteCriticalSection@4 0045c0fc     kernel32:KERNEL32.dll
 0002:00000100       __imp__GetFileType@4       0045c100     kernel32:KERNEL32.dll
 0002:00000104       __imp__GetStdHandle@4      0045c104     kernel32:KERNEL32.dll
 0002:00000108       __imp__GetProcessHeap@0    0045c108     kernel32:KERNEL32.dll
 0002:0000010c       __imp__GetCurrentThreadId@0 0045c10c     kernel32:KERNEL32.dll
 0002:00000110       __imp__GetModuleHandleW@4  0045c110     kernel32:KERNEL32.dll
 0002:00000114       __imp__GetStartupInfoW@4   0045c114     kernel32:KERNEL32.dll
 0002:00000118       __imp__TlsFree@4           0045c118     kernel32:KERNEL32.dll
 0002:0000011c       __imp__TlsSetValue@8       0045c11c     kernel32:KERNEL32.dll
 0002:00000120       __imp__TlsGetValue@4       0045c120     kernel32:KERNEL32.dll
 0002:00000124       __imp__TlsAlloc@0          0045c124     kernel32:KERNEL32.dll
 0002:00000128       __imp__TerminateProcess@8  0045c128     kernel32:KERNEL32.dll
 0002:0000012c       __imp__GetCurrentProcess@0 0045c12c     kernel32:KERNEL32.dll
 0002:00000130       __imp__InitializeCriticalSectionAndSpinCount@8 0045c130     kernel32:KERNEL32.dll
 0002:00000134       __imp__SetLastError@4      0045c134     kernel32:KERNEL32.dll
 0002:00000138       __imp__SetUnhandledExceptionFilter@4 0045c138     kernel32:KERNEL32.dll
 0002:0000013c       __imp__UnhandledExceptionFilter@4 0045c13c     kernel32:KERNEL32.dll
 0002:00000140       __imp__HeapSize@12         0045c140     kernel32:KERNEL32.dll
 0002:00000144       __imp__WideCharToMultiByte@32 0045c144     kernel32:KERNEL32.dll
 0002:00000148       __imp__MultiByteToWideChar@24 0045c148     kernel32:KERNEL32.dll
 0002:0000014c       __imp__GetProcAddress@8    0045c14c     kernel32:KERNEL32.dll
 0002:00000150       __imp__GetModuleHandleExW@12 0045c150     kernel32:KERNEL32.dll
 0002:00000154       __imp__ExitProcess@4       0045c154     kernel32:KERNEL32.dll
 0002:00000158       __imp__HeapFree@12         0045c158     kernel32:KERNEL32.dll
 0002:0000015c       __imp__RaiseException@16   0045c15c     kernel32:KERNEL32.dll
 0002:00000160       __imp__FlushFileBuffers@4  0045c160     kernel32:KERNEL32.dll
 0002:00000164       __imp__GetConsoleCP@0      0045c164     kernel32:KERNEL32.dll
 0002:00000168       __imp__GetConsoleMode@8    0045c168     kernel32:KERNEL32.dll
 0002:0000016c       __imp__SetStdHandle@8      0045c16c     kernel32:KERNEL32.dll
 0002:00000170       __imp__SetFilePointerEx@20 0045c170     kernel32:KERNEL32.dll
 0002:00000174       __imp__WriteConsoleW@20    0045c174     kernel32:KERNEL32.dll
 0002:00000178       __imp__CreateFileW@28      0045c178     kernel32:KERNEL32.dll
 0002:0000017c       __imp__GetLocalTime@4      0045c17c     kernel32:KERNEL32.dll
 0002:00000180       __imp__GlobalAlloc@8       0045c180     kernel32:KERNEL32.dll
 0002:00000184       __imp__FileTimeToSystemTime@8 0045c184     kernel32:KERNEL32.dll
 0002:00000188       __imp__ReadFile@20         0045c188     kernel32:KERNEL32.dll
 0002:0000018c       __imp__GetFileTime@16      0045c18c     kernel32:KERNEL32.dll
 0002:00000190       __imp__FileTimeToLocalFileTime@8 0045c190     kernel32:KERNEL32.dll
 0002:00000194       __imp__GetComputerNameA@8  0045c194     kernel32:KERNEL32.dll
 0002:00000198       __imp__CloseHandle@4       0045c198     kernel32:KERNEL32.dll
 0002:0000019c       __imp__WriteFile@20        0045c19c     kernel32:KERNEL32.dll
 0002:000001a0       __imp__CreateFileA@28      0045c1a0     kernel32:KERNEL32.dll
 0002:000001a4       __imp__GetUserDefaultLangID@0 0045c1a4     kernel32:KERNEL32.dll
 0002:000001a8       __imp__lstrcmpA@8          0045c1a8     kernel32:KERNEL32.dll
 0002:000001ac       __imp__SystemTimeToFileTime@8 0045c1ac     kernel32:KERNEL32.dll
 0002:000001b0       __imp__VerifyVersionInfoW@16 0045c1b0     kernel32:KERNEL32.dll
 0002:000001b4       __imp__GetProfileStringA@20 0045c1b4     kernel32:KERNEL32.dll
 0002:000001b8       __imp__lstrlenA@4          0045c1b8     kernel32:KERNEL32.dll
 0002:000001bc       __imp__lstrcatA@8          0045c1bc     kernel32:KERNEL32.dll
 0002:000001c0       __imp__lstrcpyA@8          0045c1c0     kernel32:KERNEL32.dll
 0002:000001c4       __imp__lstrcpynA@12        0045c1c4     kernel32:KERNEL32.dll
 0002:000001c8       __imp__GlobalFree@4        0045c1c8     kernel32:KERNEL32.dll
 0002:000001cc       __imp__GlobalUnlock@4      0045c1cc     kernel32:KERNEL32.dll
 0002:000001d0       __imp__GlobalLock@4        0045c1d0     kernel32:KERNEL32.dll
 0002:000001d4       __imp__GetCurrentProcessId@0 0045c1d4     kernel32:KERNEL32.dll
 0002:000001d8       __imp__GlobalReAlloc@12    0045c1d8     kernel32:KERNEL32.dll
 0002:000001dc       __imp__HeapAlloc@12        0045c1dc     kernel32:KERNEL32.dll
 0002:000001e0       __imp__GetCommandLineA@0   0045c1e0     kernel32:KERNEL32.dll
 0002:000001e4       __imp__IsProcessorFeaturePresent@4 0045c1e4     kernel32:KERNEL32.dll
 0002:000001e8       __imp__IsDebuggerPresent@0 0045c1e8     kernel32:KERNEL32.dll
 0002:000001ec       __imp__GetLastError@0      0045c1ec     kernel32:KERNEL32.dll
 0002:000001f0       __imp__DeleteFileA@4       0045c1f0     kernel32:KERNEL32.dll
 0002:000001f4       __imp__CompareFileTime@8   0045c1f4     kernel32:KERNEL32.dll
 0002:000001f8       __imp__SetCurrentDirectoryA@4 0045c1f8     kernel32:KERNEL32.dll
 0002:000001fc       __imp__QueryPerformanceCounter@4 0045c1fc     kernel32:KERNEL32.dll
 0002:00000200       __imp__DecodePointer@4     0045c200     kernel32:KERNEL32.dll
 0002:00000204       __imp__EncodePointer@4     0045c204     kernel32:KERNEL32.dll
 0002:00000208       __imp__FindClose@4         0045c208     kernel32:KERNEL32.dll
 0002:0000020c       __imp__FindFirstFileA@8    0045c20c     kernel32:KERNEL32.dll
 0002:00000210       __imp__GetDriveTypeA@4     0045c210     kernel32:KERNEL32.dll
 0002:00000214       __imp__GetFileAttributesA@4 0045c214     kernel32:KERNEL32.dll
 0002:00000218       __imp__SetErrorMode@4      0045c218     kernel32:KERNEL32.dll
 0002:0000021c       __imp__lstrcmpiA@8         0045c21c     kernel32:KERNEL32.dll
 0002:00000220       __imp__CopyFileA@12        0045c220     kernel32:KERNEL32.dll
 0002:00000224       __imp__MoveFileA@8         0045c224     kernel32:KERNEL32.dll
 0002:00000228       __imp__GetFileSize@8       0045c228     kernel32:KERNEL32.dll
 0002:0000022c       __imp__LockFile@20         0045c22c     kernel32:KERNEL32.dll
 0002:00000230       __imp__SetEndOfFile@4      0045c230     kernel32:KERNEL32.dll
 0002:00000234       __imp__SetFilePointer@16   0045c234     kernel32:KERNEL32.dll
 0002:00000238       __imp__UnlockFile@20       0045c238     kernel32:KERNEL32.dll
 0002:0000023c       __imp__Sleep@4             0045c23c     kernel32:KERNEL32.dll
 0002:00000240       __imp__GetPrivateProfileStringA@24 0045c240     kernel32:KERNEL32.dll
 0002:00000244       __imp__WritePrivateProfileStringA@16 0045c244     kernel32:KERNEL32.dll
 0002:00000248       __imp__FindNextFileA@8     0045c248     kernel32:KERNEL32.dll
 0002:0000024c       __imp__CreateDirectoryA@8  0045c24c     kernel32:KERNEL32.dll
 0002:00000250       __imp__WaitForSingleObject@8 0045c250     kernel32:KERNEL32.dll
 0002:00000254       __imp__CreateEventA@16     0045c254     kernel32:KERNEL32.dll
 0002:00000258       __imp__GetModuleFileNameA@12 0045c258     kernel32:KERNEL32.dll
 0002:0000025c       __imp__VerSetConditionMask@16 0045c25c     kernel32:KERNEL32.dll
 0002:00000260       \177KERNEL32_NULL_THUNK_DATA 0045c260     kernel32:KERNEL32.dll
 0002:00000264       __imp__SHAppBarMessage@8   0045c264     shell32:SHELL32.dll
 0002:00000268       \177SHELL32_NULL_THUNK_DATA 0045c268     shell32:SHELL32.dll
 0002:0000026c       __imp__CloseWindow@4       0045c26c     user32:USER32.dll
 0002:00000270       __imp__GetMessageA@16      0045c270     user32:USER32.dll
 0002:00000274       __imp__TranslateMessage@4  0045c274     user32:USER32.dll
 0002:00000278       __imp__SetScrollInfo@16    0045c278     user32:USER32.dll
 0002:0000027c       __imp__EqualRect@8         0045c27c     user32:USER32.dll
 0002:00000280       __imp__CheckDlgButton@12   0045c280     user32:USER32.dll
 0002:00000284       __imp__SetDlgItemInt@16    0045c284     user32:USER32.dll
 0002:00000288       __imp__IsWindowEnabled@4   0045c288     user32:USER32.dll
 0002:0000028c       __imp__IntersectRect@12    0045c28c     user32:USER32.dll
 0002:00000290       __imp__MapDialogRect@8     0045c290     user32:USER32.dll
 0002:00000294       __imp__DdeGetData@16       0045c294     user32:USER32.dll
 0002:00000298       __imp__SystemParametersInfoA@16 0045c298     user32:USER32.dll
 0002:0000029c       __imp__WinHelpA@16         0045c29c     user32:USER32.dll
 0002:000002a0       __imp__IsDialogMessageA@8  0045c2a0     user32:USER32.dll
 0002:000002a4       __imp__LoadIconA@8         0045c2a4     user32:USER32.dll
 0002:000002a8       __imp__LoadCursorA@8       0045c2a8     user32:USER32.dll
 0002:000002ac       __imp__GetClassNameA@12    0045c2ac     user32:USER32.dll
 0002:000002b0       __imp__EnumWindows@8       0045c2b0     user32:USER32.dll
 0002:000002b4       __imp__FindWindowA@8       0045c2b4     user32:USER32.dll
 0002:000002b8       __imp__GetDesktopWindow@0  0045c2b8     user32:USER32.dll
 0002:000002bc       __imp__SetWindowLongA@12   0045c2bc     user32:USER32.dll
 0002:000002c0       __imp__PtInRect@12         0045c2c0     user32:USER32.dll
 0002:000002c4       __imp__OffsetRect@12       0045c2c4     user32:USER32.dll
 0002:000002c8       __imp__FillRect@12         0045c2c8     user32:USER32.dll
 0002:000002cc       __imp__GetSysColor@4       0045c2cc     user32:USER32.dll
 0002:000002d0       __imp__ClientToScreen@8    0045c2d0     user32:USER32.dll
 0002:000002d4       __imp__GetCursorPos@4      0045c2d4     user32:USER32.dll
 0002:000002d8       __imp__SetCursor@4         0045c2d8     user32:USER32.dll
 0002:000002dc       __imp__MessageBoxA@16      0045c2dc     user32:USER32.dll
 0002:000002e0       __imp__GetWindowRect@8     0045c2e0     user32:USER32.dll
 0002:000002e4       __imp__GetClientRect@8     0045c2e4     user32:USER32.dll
 0002:000002e8       __imp__InvalidateRect@12   0045c2e8     user32:USER32.dll
 0002:000002ec       __imp__GetUpdateRect@12    0045c2ec     user32:USER32.dll
 0002:000002f0       __imp__EndPaint@8          0045c2f0     user32:USER32.dll
 0002:000002f4       __imp__BeginPaint@8        0045c2f4     user32:USER32.dll
 0002:000002f8       __imp__ReleaseDC@8         0045c2f8     user32:USER32.dll
 0002:000002fc       __imp__GetDC@4             0045c2fc     user32:USER32.dll
 0002:00000300       __imp__SetForegroundWindow@4 0045c300     user32:USER32.dll
 0002:00000304       __imp__UpdateWindow@4      0045c304     user32:USER32.dll
 0002:00000308       __imp__GetSystemMetrics@4  0045c308     user32:USER32.dll
 0002:0000030c       __imp__TranslateAcceleratorA@12 0045c30c     user32:USER32.dll
 0002:00000310       __imp__LoadAcceleratorsA@8 0045c310     user32:USER32.dll
 0002:00000314       __imp__EnableWindow@8      0045c314     user32:USER32.dll
 0002:00000318       __imp__KillTimer@8         0045c318     user32:USER32.dll
 0002:0000031c       __imp__SetTimer@16         0045c31c     user32:USER32.dll
 0002:00000320       __imp__GetKeyState@4       0045c320     user32:USER32.dll
 0002:00000324       __imp__GetFocus@0          0045c324     user32:USER32.dll
 0002:00000328       __imp__SetFocus@4          0045c328     user32:USER32.dll
 0002:0000032c       __imp__EmptyClipboard@0    0045c32c     user32:USER32.dll
 0002:00000330       __imp__SetClipboardData@8  0045c330     user32:USER32.dll
 0002:00000334       __imp__CloseClipboard@0    0045c334     user32:USER32.dll
 0002:00000338       __imp__OpenClipboard@4     0045c338     user32:USER32.dll
 0002:0000033c       __imp__GetDialogBaseUnits@0 0045c33c     user32:USER32.dll
 0002:00000340       __imp__SendDlgItemMessageA@20 0045c340     user32:USER32.dll
 0002:00000344       __imp__CheckRadioButton@16 0045c344     user32:USER32.dll
 0002:00000348       __imp__SetDlgItemTextA@12  0045c348     user32:USER32.dll
 0002:0000034c       __imp__GetDlgItem@8        0045c34c     user32:USER32.dll
 0002:00000350       __imp__EndDialog@8         0045c350     user32:USER32.dll
 0002:00000354       __imp__DialogBoxParamA@20  0045c354     user32:USER32.dll
 0002:00000358       __imp__CreateDialogParamA@20 0045c358     user32:USER32.dll
 0002:0000035c       __imp__IsIconic@4          0045c35c     user32:USER32.dll
 0002:00000360       __imp__IsWindowVisible@4   0045c360     user32:USER32.dll
 0002:00000364       __imp__DispatchMessageA@4  0045c364     user32:USER32.dll
 0002:00000368       __imp__MoveWindow@24       0045c368     user32:USER32.dll
 0002:0000036c       __imp__SetWindowPos@28     0045c36c     user32:USER32.dll
 0002:00000370       __imp__ShowWindow@8        0045c370     user32:USER32.dll
 0002:00000374       __imp__DestroyWindow@4     0045c374     user32:USER32.dll
 0002:00000378       __imp__CharUpperA@4        0045c378     user32:USER32.dll
 0002:0000037c       __imp__CharToOemA@8        0045c37c     user32:USER32.dll
 0002:00000380       __imp__GetWindowTextLengthA@4 0045c380     user32:USER32.dll
 0002:00000384       __imp__wsprintfA           0045c384     user32:USER32.dll
 0002:00000388       __imp__GetWindowLongA@8    0045c388     user32:USER32.dll
 0002:0000038c       __imp__GetParent@4         0045c38c     user32:USER32.dll
 0002:00000390       __imp__IsCharAlphaA@4      0045c390     user32:USER32.dll
 0002:00000394       __imp__IsCharAlphaNumericA@4 0045c394     user32:USER32.dll
 0002:00000398       __imp__DdeInitializeA@16   0045c398     user32:USER32.dll
 0002:0000039c       __imp__DdeUninitialize@4   0045c39c     user32:USER32.dll
 0002:000003a0       __imp__DdeConnect@16       0045c3a0     user32:USER32.dll
 0002:000003a4       __imp__DdeDisconnect@4     0045c3a4     user32:USER32.dll
 0002:000003a8       __imp__DdeClientTransaction@32 0045c3a8     user32:USER32.dll
 0002:000003ac       __imp__DdeGetLastError@4   0045c3ac     user32:USER32.dll
 0002:000003b0       __imp__DdeCreateStringHandleA@12 0045c3b0     user32:USER32.dll
 0002:000003b4       __imp__DdeFreeStringHandle@8 0045c3b4     user32:USER32.dll
 0002:000003b8       __imp__DdeCmpStringHandles@8 0045c3b8     user32:USER32.dll
 0002:000003bc       __imp__LoadStringA@16      0045c3bc     user32:USER32.dll
 0002:000003c0       __imp__IsDlgButtonChecked@8 0045c3c0     user32:USER32.dll
 0002:000003c4       __imp__FrameRect@12        0045c3c4     user32:USER32.dll
 0002:000003c8       __imp__ScreenToClient@8    0045c3c8     user32:USER32.dll
 0002:000003cc       __imp__SetCapture@4        0045c3cc     user32:USER32.dll
 0002:000003d0       __imp__ReleaseCapture@0    0045c3d0     user32:USER32.dll
 0002:000003d4       __imp__GetClassInfoA@12    0045c3d4     user32:USER32.dll
 0002:000003d8       __imp__CreatePopupMenu@0   0045c3d8     user32:USER32.dll
 0002:000003dc       __imp__DestroyMenu@4       0045c3dc     user32:USER32.dll
 0002:000003e0       __imp__TrackPopupMenu@28   0045c3e0     user32:USER32.dll
 0002:000003e4       __imp__SetActiveWindow@4   0045c3e4     user32:USER32.dll
 0002:000003e8       __imp__ValidateRect@8      0045c3e8     user32:USER32.dll
 0002:000003ec       __imp__SetWindowTextA@8    0045c3ec     user32:USER32.dll
 0002:000003f0       __imp__GetWindowTextA@12   0045c3f0     user32:USER32.dll
 0002:000003f4       __imp__DrawFocusRect@8     0045c3f4     user32:USER32.dll
 0002:000003f8       __imp__SetParent@8         0045c3f8     user32:USER32.dll
 0002:000003fc       __imp__PeekMessageA@20     0045c3fc     user32:USER32.dll
 0002:00000400       __imp__GetMessageTime@0    0045c400     user32:USER32.dll
 0002:00000404       __imp__IsChild@8           0045c404     user32:USER32.dll
 0002:00000408       __imp__ScrollDC@28         0045c408     user32:USER32.dll
 0002:0000040c       __imp__CopyRect@8          0045c40c     user32:USER32.dll
 0002:00000410       __imp__GetMessagePos@0     0045c410     user32:USER32.dll
 0002:00000414       __imp__SetScrollPos@16     0045c414     user32:USER32.dll
 0002:00000418       __imp__SetScrollRange@20   0045c418     user32:USER32.dll
 0002:0000041c       __imp__DrawTextA@20        0045c41c     user32:USER32.dll
 0002:00000420       __imp__CreateWindowExA@48  0045c420     user32:USER32.dll
 0002:00000424       __imp__RegisterClassA@4    0045c424     user32:USER32.dll
 0002:00000428       __imp__CallWindowProcA@20  0045c428     user32:USER32.dll
 0002:0000042c       __imp__PostQuitMessage@4   0045c42c     user32:USER32.dll
 0002:00000430       __imp__DefWindowProcA@16   0045c430     user32:USER32.dll
 0002:00000434       __imp__PostMessageA@16     0045c434     user32:USER32.dll
 0002:00000438       __imp__SendMessageA@16     0045c438     user32:USER32.dll
 0002:0000043c       \177USER32_NULL_THUNK_DATA 0045c43c     user32:USER32.dll
 0002:00000440       __imp__OpenPrinterA@12     0045c440     winspool:WINSPOOL.DRV
 0002:00000444       __imp__GetPrinterA@20      0045c444     winspool:WINSPOOL.DRV
 0002:00000448       __imp__ClosePrinter@4      0045c448     winspool:WINSPOOL.DRV
 0002:0000044c       \177WINSPOOL_NULL_THUNK_DATA 0045c44c     winspool:WINSPOOL.DRV
 0002:00000450       ___xc_a                    0045c450     LIBCMT:crt0init.obj
 0002:000005b4       ___xc_z                    0045c5b4     LIBCMT:crt0init.obj
 0002:000005b8       ___xi_a                    0045c5b8     LIBCMT:crt0init.obj
 0002:000005d4       ___xi_z                    0045c5d4     LIBCMT:crt0init.obj
 0002:000005d8       ___xp_a                    0045c5d8     LIBCMT:crt0init.obj
 0002:000005e8       ___xp_z                    0045c5e8     LIBCMT:crt0init.obj
 0002:000005ec       ___xt_a                    0045c5ec     LIBCMT:crt0init.obj
 0002:000005f0       ___xt_z                    0045c5f0     LIBCMT:crt0init.obj
 0002:00000610       ??_C@_0N@LPGHLKGH@ALARMSUM?4TXT?$AA@ 0045c610     profile.obj
 0002:00000620       ??_C@_0BA@FECLJCI@backup_list?4csv?$AA@ 0045c620     profile.obj
 0002:00000630       ??_C@_0N@PLHNDNGH@DOWNTIME?4TXT?$AA@ 0045c630     profile.obj
 0002:00000640       ??_C@_0BK@BEKOHKJI@external_program_list?4csv?$AA@ 0045c640     profile.obj
 0002:0000065c       ??_C@_0BA@PDOCLGPK@Ftii_boards?4txt?$AA@ 0045c65c     profile.obj
 0002:0000066c       ??_C@_0N@FGFLILME@GRAPHLST?4TXT?$AA@ 0045c66c     profile.obj
 0002:0000067c       ??_C@_0BC@IGICNJIO@machine_setup?4csv?$AA@ 0045c67c     profile.obj
 0002:00000690       ??_C@_0N@CBJFOMOL@OPERATOR?4TXT?$AA@ 0045c690     profile.obj
 0002:000006a0       ??_C@_0BA@GNMHHLFA@PARTDISPLAY?4INI?$AA@ 0045c6a0     profile.obj
 0002:000006b0       ??_C@_0P@MHFCEEOL@part_setup?4csv?$AA@ 0045c6b0     profile.obj
 0002:000006c0       ??_C@_0N@JBOEGEDG@SHOTPARM?4TXT?$AA@ 0045c6c0     profile.obj
 0002:000006d0       ??_C@_04OGJDIIK@?4PR2?$AA@ 0045c6d0     profile.obj
 0002:000006d8       ??_C@_02PGHGPEOM@?91?$AA@  0045c6d8     profile.obj
 0002:000006e0       ??_7WINDOW_CLASS@@6B@      0045c6e0     profile.obj
 0002:000006e4       ??_C@_0BF@NFAHCEE@LISTBOX_FULL_MESSAGE?$AA@ 0045c6e4     profile.obj
 0002:000006fc       ??_C@_0BE@DACKADPK@CANT_DO_THAT_STRING?$AA@ 0045c6fc     profile.obj
 0002:00000710       ??_C@_0BL@FJBJOJBC@HEAD_PRESSURE_LABEL_STRING?$AA@ 0045c710     profile.obj
 0002:0000072c       ??_C@_0BK@LJOPKHED@ROD_PRESSURE_LABEL_STRING?$AA@ 0045c72c     profile.obj
 0002:00000748       ??_C@_0BL@JCAMNPBI@DIFF_PRESSURE_LABEL_STRING?$AA@ 0045c748     profile.obj
 0002:00000764       ??_C@_0BF@GKAPLIHE@DISTANCE_TYPE_STRING?$AA@ 0045c764     profile.obj
 0002:0000077c       ??_C@_0BF@HOPCLPII@POSITION_TYPE_STRING?$AA@ 0045c77c     profile.obj
 0002:00000794       ??_C@_0BF@MBOPMDN@PRESSURE_TYPE_STRING?$AA@ 0045c794     profile.obj
 0002:000007ac       ??_C@_0BB@FIFHLHOO@TIME_TYPE_STRING?$AA@ 0045c7ac     profile.obj
 0002:000007c0       ??_C@_0BF@CPFBEBBK@VELOCITY_TYPE_STRING?$AA@ 0045c7c0     profile.obj
 0002:000007d8       ??_C@_0BE@KMBBIKLI@CHANNEL_TYPE_STRING?$AA@ 0045c7d8     profile.obj
 0002:000007ec       ??_C@_0BH@ONFNHCFM@CHANNEL_1_LABEL_STRING?$AA@ 0045c7ec     profile.obj
 0002:00000804       ??_C@_0BH@PMCABICF@CHANNEL_2_LABEL_STRING?$AA@ 0045c804     profile.obj
 0002:0000081c       ??_C@_0BH@EFNLMDMN@CHANNEL_3_LABEL_STRING?$AA@ 0045c81c     profile.obj
 0002:00000834       ??_C@_0BH@NONKMMNH@CHANNEL_4_LABEL_STRING?$AA@ 0045c834     profile.obj
 0002:0000084c       ??_C@_0BL@HGNDEGPC@MAX_OVERLAY_REACHED_STRING?$AA@ 0045c84c     profile.obj
 0002:00000868       ??_C@_0BG@IMGBGBGO@DEL_SOME_FIRST_STRING?$AA@ 0045c868     profile.obj
 0002:00000880       ??_C@_0L@HLLKHHOE@EMPTY_LIST?$AA@ 0045c880     profile.obj
 0002:0000088c       ??_C@_0BB@DBMBPMAG@NO_MACHINES_HERE?$AA@ 0045c88c     profile.obj
 0002:000008a0       ??_C@_0BD@CBMKCFJI@OPERATOR_NOT_FOUND?$AA@ 0045c8a0     profile.obj
 0002:000008b4       ??_C@_0BD@NKAFHDJI@SHOT_NUMBER_STRING?$AA@ 0045c8b4     profile.obj
 0002:000008c8       ??_C@_0BB@COEPBDLH@DATE_NAME_STRING?$AA@ 0045c8c8     profile.obj
 0002:000008dc       ??_C@_0BB@HIBNJNKF@TIME_NAME_STRING?$AA@ 0045c8dc     profile.obj
 0002:000008f0       ??_C@_0BB@OGKNNAIH@NO_MEMORY_STRING?$AA@ 0045c8f0     profile.obj
 0002:00000904       ??_C@_0BE@NBKLLNID@PRINTER_LIST_STRING?$AA@ 0045c904     profile.obj
 0002:00000918       ??_C@_0BD@PMLOOPPI@UNITS_TITLE_STRING?$AA@ 0045c918     profile.obj
 0002:0000092c       ??_C@_0BI@BBCHEDNP@REALTIME_ON_MENU_STRING?$AA@ 0045c92c     profile.obj
 0002:00000944       ??_C@_0BA@EKALBPJA@NO_ALARM_STRING?$AA@ 0045c944     profile.obj
 0002:00000954       ??_C@_0P@KONEDDGB@WARNING_STRING?$AA@ 0045c954     profile.obj
 0002:00000964       ??_C@_0N@EINENFJN@ALARM_STRING?$AA@ 0045c964     profile.obj
 0002:00000974       ??_C@_0P@GFOJLAOE@NO_DOWN_STRING?$AA@ 0045c974     profile.obj
 0002:00000984       ??_C@_0BC@CIPHCEGP@HUMAN_DOWN_STRING?$AA@ 0045c984     profile.obj
 0002:00000998       ??_C@_0BB@DAFIBLCC@AUTO_DOWN_STRING?$AA@ 0045c998     profile.obj
 0002:000009ac       ??_C@_0BB@PEJJJGOO@PROG_DOWN_STRING?$AA@ 0045c9ac     profile.obj
 0002:000009c0       ??_C@_0P@BACIICNG@PROG_UP_STRING?$AA@ 0045c9c0     profile.obj
 0002:000009d0       ??_C@_0P@FKLJFAKI@MACH_UP_STRING?$AA@ 0045c9d0     profile.obj
 0002:000009e0       ??_C@_0BC@LOOPMAOG@NO_MONITOR_STRING?$AA@ 0045c9e0     profile.obj
 0002:000009f4       ??_C@_0BH@KDIMKDFI@BOX_SCREEN_MENU_STRING?$AA@ 0045c9f4     profile.obj
 0002:00000a0c       ??_C@_0BC@BFHCDECJ@MACHINE_TT_STRING?$AA@ 0045ca0c     profile.obj
 0002:00000a20       ??_C@_0P@DAHIFIPL@PART_TT_STRING?$AA@ 0045ca20     profile.obj
 0002:00000a30       ??_C@_0P@HMHIALGG@SHOT_TT_STRING?$AA@ 0045ca30     profile.obj
 0002:00000a40       ??_C@_0P@MJDONMJJ@DATE_TT_STRING?$AA@ 0045ca40     profile.obj
 0002:00000a50       ??_C@_0BC@OCBGOF@NO_DOWN_TT_STRING?$AA@ 0045ca50     profile.obj
 0002:00000a64       ??_C@_0BF@CKAJALE@HUMAN_DOWN_TT_STRING?$AA@ 0045ca64     profile.obj
 0002:00000a7c       ??_C@_0BE@GEFFBKHK@AUTO_DOWN_TT_STRING?$AA@ 0045ca7c     profile.obj
 0002:00000a90       ??_C@_0BE@JOKOGBLK@PROG_DOWN_TT_STRING?$AA@ 0045ca90     profile.obj
 0002:00000aa4       ??_C@_0BC@CGBOIBDJ@PROG_UP_TT_STRING?$AA@ 0045caa4     profile.obj
 0002:00000ab8       ??_C@_0BC@EMHHMAGG@MACH_UP_TT_STRING?$AA@ 0045cab8     profile.obj
 0002:00000acc       ??_C@_0BF@MFDKBOJD@NO_MONITOR_TT_STRING?$AA@ 0045cacc     profile.obj
 0002:00000ae4       ??_C@_0BJ@MCDCGCLK@TOTAL_ALARM_SHOTS_STRING?$AA@ 0045cae4     profile.obj
 0002:00000b00       ??_C@_0BL@HNHDIJLK@TOTAL_WARNING_SHOTS_STRING?$AA@ 0045cb00     profile.obj
 0002:00000b1c       ??_C@_0BB@ICICGKIE@LOW_ALARM_STRING?$AA@ 0045cb1c     profile.obj
 0002:00000b30       ??_C@_0BC@BGPNKFAJ@HIGH_ALARM_STRING?$AA@ 0045cb30     profile.obj
 0002:00000b44       ??_C@_0BD@GOAKPODC@LOW_WARNING_STRING?$AA@ 0045cb44     profile.obj
 0002:00000b58       ??_C@_0BE@OLPMFDGK@HIGH_WARNING_STRING?$AA@ 0045cb58     profile.obj
 0002:00000b6c       ??_C@_0BC@KHHLACMB@NEXT_SHIFT_STRING?$AA@ 0045cb6c     profile.obj
 0002:00000b80       ??_C@_0BC@OANNGEDA@PREV_SHIFT_STRING?$AA@ 0045cb80     profile.obj
 0002:00000b94       ??_C@_0BA@NGIFGHFH@NEXT_DAY_STRING?$AA@ 0045cb94     profile.obj
 0002:00000ba4       ??_C@_0BA@HOFHMGEL@PREV_DAY_STRING?$AA@ 0045cba4     profile.obj
 0002:00000bb4       ??_C@_0M@BHMNJEKA@NEXT_STRING?$AA@ 0045cbb4     profile.obj
 0002:00000bc0       ??_C@_0M@IJIPFJNE@PREV_STRING?$AA@ 0045cbc0     profile.obj
 0002:00000bcc       ??_C@_0BF@BLDEKHIP@NO_ALARM_DATA_STRING?$AA@ 0045cbcc     profile.obj
 0002:00000be4       ??_C@_0BK@GGEGKLNI@NOTHING_TO_DISPLAY_STRING?$AA@ 0045cbe4     profile.obj
 0002:00000c00       ??_C@_0N@LGMMJIO@SHIFT_STRING?$AA@ 0045cc00     profile.obj
 0002:00000c10       ??_C@_0BB@NAFOEGLG@PARAMETER_STRING?$AA@ 0045cc10     profile.obj
 0002:00000c24       ??_C@_0BB@IIDKGBBI@LOW_LIMIT_STRING?$AA@ 0045cc24     profile.obj
 0002:00000c38       ??_C@_0BC@BMEFKOJF@HIGH_LIMIT_STRING?$AA@ 0045cc38     profile.obj
 0002:00000c4c       ??_C@_0BH@DMCHEIOI@PARAMETER_VALUE_STRING?$AA@ 0045cc4c     profile.obj
 0002:00000c64       ??_C@_0BA@BLCAJGOE@ALARM_TT_STRING?$AA@ 0045cc64     profile.obj
 0002:00000c74       ??_C@_0BJ@NEFJEBLM@REALTIME_OFF_MENU_STRING?$AA@ 0045cc74     profile.obj
 0002:00000c90       ??_C@_0BM@GDILMNPO@REALTIME_SINGLE_MENU_STRING?$AA@ 0045cc90     profile.obj
 0002:00000cac       ??_C@_0BH@HMJIOPCF@TIME_AXIS_LABEL_STRING?$AA@ 0045ccac     profile.obj
 0002:00000cc4       ??_C@_0BL@PFAKFPFN@TREND_ALLSHOTS_MENU_STRING?$AA@ 0045ccc4     profile.obj
 0002:00000ce0       ??_C@_0BJ@PCAPIEEN@TREND_CONFIG_MENU_STRING?$AA@ 0045cce0     profile.obj
 0002:00000cfc       ??_C@_0BJ@LNJGNFDH@TREND_SCREEN_MENU_STRING?$AA@ 0045ccfc     profile.obj
 0002:00000d18       ??_C@_0BH@OPBCLFJE@NO_GRAPHS_FOUND_STRING?$AA@ 0045cd18     profile.obj
 0002:00000d30       ??_C@_0BL@KPADCNNL@TREND_REALTIME_MENU_STRING?$AA@ 0045cd30     profile.obj
 0002:00000d4c       ??_C@_0BA@MCDPDPCH@N_EQUALS_STRING?$AA@ 0045cd4c     profile.obj
 0002:00000d5c       ??_C@_0BC@GJJLDDBN@END_PARENS_STRING?$AA@ 0045cd5c     profile.obj
 0002:00000d70       ??_C@_0BH@ECCIMIBN@TOO_MANY_GRAPHS_STRING?$AA@ 0045cd70     profile.obj
 0002:00000d88       ??_C@_0P@MMKDFOCH@TIMEOUT_STRING?$AA@ 0045cd88     profile.obj
 0002:00000d98       ??_C@_0BF@CMHGFAOK@DOWNBAR_TITLE_STRING?$AA@ 0045cd98     profile.obj
 0002:00000db0       ??_C@_0BD@KLMGLDNF@TOTAL_HOURS_STRING?$AA@ 0045cdb0     profile.obj
 0002:00000dc4       ??_C@_0BG@BHJJMNCE@TOTAL_HOURS_UP_STRING?$AA@ 0045cdc4     profile.obj
 0002:00000ddc       ??_C@_0BI@DEHAEOGB@TOTAL_HOURS_DOWN_STRING?$AA@ 0045cddc     profile.obj
 0002:00000df4       ??_C@_0BI@LFPLHCIJ@MACH_UTILIZATION_STRING?$AA@ 0045cdf4     profile.obj
 0002:00000e0c       ??_C@_0BK@BGABGGBD@MAX_DOWNTIME_HOURS_STRING?$AA@ 0045ce0c     profile.obj
 0002:00000e28       ??_C@_0BM@FIMEEGOO@MAX_DOWNTIME_PERCENT_STRING?$AA@ 0045ce28     profile.obj
 0002:00000e44       ??_C@_0BF@GGGIKIHP@DOWNTIME_FROM_STRING?$AA@ 0045ce44     profile.obj
 0002:00000e5c       ??_C@_0BD@CCDCFCKH@DOWNTIME_TO_STRING?$AA@ 0045ce5c     profile.obj
 0002:00000e70       ??_C@_0N@MCPCCDCP@HOURS_STRING?$AA@ 0045ce70     profile.obj
 0002:00000e80       ??_C@_0BG@PFKKLHOI@CATEGORY_TITLE_STRING?$AA@ 0045ce80     profile.obj
 0002:00000e98       ??_C@_0BL@GNBPNFND@DOWNBAR_CONFIG_MENU_STRING?$AA@ 0045ce98     profile.obj
 0002:00000eb4       ??_C@_0BI@OOPNDFKP@NO_DOWNTIME_DATA_STRING?$AA@ 0045ceb4     profile.obj
 0002:00000ecc       ??_C@_0BG@ECDDFCO@CHOOSE_PART_MENU_HELP?$AA@ 0045cecc     profile.obj
 0002:00000ee4       ??_C@_0BG@EICDGGLD@CHOOSE_SHOT_MENU_HELP?$AA@ 0045cee4     profile.obj
 0002:00000efc       ??_C@_0P@GDDAMLFF@EXIT_MENU_HELP?$AA@ 0045cefc     profile.obj
 0002:00000f0c       ??_C@_0BD@BDGFAKBL@MINIMIZE_MENU_HELP?$AA@ 0045cf0c     profile.obj
 0002:00000f20       ??_C@_0P@MJIGJBLI@SAVE_MENU_HELP?$AA@ 0045cf20     profile.obj
 0002:00000f30       ??_C@_0BJ@IOHBJPJE@SAVE_AS_MASTER_MENU_HELP?$AA@ 0045cf30     profile.obj
 0002:00000f4c       ??_C@_0BA@MJKMAAJE@PRINT_MENU_HELP?$AA@ 0045cf4c     profile.obj
 0002:00000f5c       ??_C@_0BD@HCENFIBM@POS_TIME_MENU_HELP?$AA@ 0045cf5c     profile.obj
 0002:00000f70       ??_C@_0BD@FJJCLCJF@POS_ONLY_MENU_HELP?$AA@ 0045cf70     profile.obj
 0002:00000f84       ??_C@_0BE@GPCMODDM@TIME_ONLY_MENU_HELP?$AA@ 0045cf84     profile.obj
 0002:00000f98       ??_C@_0BJ@MCLJPMNA@LAST_50_SCREEN_MENU_HELP?$AA@ 0045cf98     profile.obj
 0002:00000fb4       ??_C@_0BF@JLNMHG@STD_SCREEN_MENU_HELP?$AA@ 0045cfb4     profile.obj
 0002:00000fcc       ??_C@_0BP@MODNDBKH@VIEW_REFERENCE_TRACE_MENU_HELP?$AA@ 0045cfcc     profile.obj
 0002:00000fec       ??_C@_0BK@PLMKLOIA@VIEW_PARAMETERS_MENU_HELP?$AA@ 0045cfec     profile.obj
 0002:00001008       ??_C@_0BF@PFJKFGDE@BOX_SCREEN_MENU_HELP?$AA@ 0045d008     profile.obj
 0002:00001020       ??_C@_0BH@HADILPGB@TREND_SCREEN_MENU_HELP?$AA@ 0045d020     profile.obj
 0002:00001038       ??_C@_0BJ@CALOLOLF@PROFILE_SCREEN_MENU_HELP?$AA@ 0045d038     profile.obj
 0002:00001054       ??_C@_0BJ@MPBILFMI@DOWNBAR_SCREEN_MENU_HELP?$AA@ 0045d054     profile.obj
 0002:00001070       ??_C@_0BG@KNLEIACF@PART_EDITOR_MENU_HELP?$AA@ 0045d070     profile.obj
 0002:00001088       ??_C@_0BJ@DDICBKMF@MACHINE_EDITOR_MENU_HELP?$AA@ 0045d088     profile.obj
 0002:000010a4       ??_C@_0BI@IHKOEOFL@BOARD_MONITOR_MENU_HELP?$AA@ 0045d0a4     profile.obj
 0002:000010bc       ??_C@_0BJ@NHEOCBGN@MONITOR_CONFIG_MENU_HELP?$AA@ 0045d0bc     profile.obj
 0002:000010d8       ??_C@_0BN@PIMNGJOI@BACKUP_AND_RESTORE_MENU_HELP?$AA@ 0045d0d8     profile.obj
 0002:000010f8       ??_C@_0BB@DNMPMEKP@SETUPS_MENU_HELP?$AA@ 0045d0f8     profile.obj
 0002:0000110c       ??_C@_0BD@LDCAOGDE@DOWNTIME_MENU_HELP?$AA@ 0045d10c     profile.obj
 0002:00001120       ??_C@_0BD@JOJOEAFA@EDITDOWN_MENU_HELP?$AA@ 0045d120     profile.obj
 0002:00001134       ??_C@_0BL@IHHNCLAC@SURETRAK_CONTROL_MENU_HELP?$AA@ 0045d134     profile.obj
 0002:00001150       ??_C@_0BK@HNDCGAIB@OPERATOR_SIGNON_MENU_HELP?$AA@ 0045d150     profile.obj
 0002:0000116c       ??_C@_0BH@NEIACMMB@EXPORT_SHOTS_MENU_HELP?$AA@ 0045d16c     profile.obj
 0002:00001184       ??_C@_0BI@IAAGNKDF@ALARM_SUMMARY_MENU_HELP?$AA@ 0045d184     profile.obj
 0002:0000119c       ??_C@_0BE@CAOLHMAG@PASSWORDS_MENU_HELP?$AA@ 0045d19c     profile.obj
 0002:000011b0       ??_C@_0BL@MNOHLPAN@RESTORE_PASSWORD_MENU_HELP?$AA@ 0045d1b0     profile.obj
 0002:000011cc       ??_C@_0P@FAFPHNAC@HELP_MENU_HELP?$AA@ 0045d1cc     profile.obj
 0002:000011dc       ??_C@_0BB@OPIIOLJF@UNZOOM_MENU_HELP?$AA@ 0045d1dc     profile.obj
 0002:000011f0       ??_C@_0P@EBPBAJJL@ZOOM_MENU_HELP?$AA@ 0045d1f0     profile.obj
 0002:00001200       ??_C@_0CA@JOJLNAGI@DISPLAY_CONFIGURATION_MENU_HELP?$AA@ 0045d200     profile.obj
 0002:00001220       ??_C@_0BL@MMHIDDLK@COLOR_DEFINITION_MENU_HELP?$AA@ 0045d220     profile.obj
 0002:0000123c       ??_C@_0BN@JNNEFBHB@CHOOSE_RT_MACHINES_MENU_HELP?$AA@ 0045d23c     profile.obj
 0002:0000125c       ??_C@_0BM@HGOICNBE@CORNER_PARAMETERS_MENU_HELP?$AA@ 0045d25c     profile.obj
 0002:00001278       ??_C@_0BC@ECNPECDL@OVERLAY_MENU_HELP?$AA@ 0045d278     profile.obj
 0002:0000128c       ??_C@_0BF@LEAJOMJD@MACHINE_INTRO_STRING?$AA@ 0045d28c     profile.obj
 0002:000012a4       ??_C@_0BC@BDJJMAFN@PART_INTRO_STRING?$AA@ 0045d2a4     profile.obj
 0002:000012b8       ??_C@_0BJ@LOJAHJLO@TOTAL_SHOTS_INTRO_STRING?$AA@ 0045d2b8     profile.obj
 0002:000012d4       ??_C@_0BP@JDNCGGAF@TOTAL_ALARM_SHOTS_INTRO_STRING?$AA@ 0045d2d4     profile.obj
 0002:000012f4       ??_C@_0CB@CBHMBGLO@TOTAL_WARNING_SHOTS_INTRO_STRING@ 0045d2f4     profile.obj
 0002:00001318       ??_C@_0BG@BGPHFNAC@QUANTITY_BELOW_STRING?$AA@ 0045d318     profile.obj
 0002:00001330       ??_C@_0BG@BPMKHOJH@QUANTITY_ABOVE_STRING?$AA@ 0045d330     profile.obj
 0002:00001348       ??_C@_0BF@FAEEEDE@CANNOT_COMPLY_STRING?$AA@ 0045d348     profile.obj
 0002:00001360       ??_C@_0BK@MALMFHFI@PASSWORD_NOT_FOUND_STRING?$AA@ 0045d360     profile.obj
 0002:0000137c       ??_C@_0BF@KDBPAPAJ@MS_TIME_LABEL_STRING?$AA@ 0045d37c     profile.obj
 0002:00001394       ??_C@_0BG@NFMHBNPH@SEC_TIME_LABEL_STRING?$AA@ 0045d394     profile.obj
 0002:000013ac       ??_C@_0BC@KCMDGBJL@SHOT_LABEL_STRING?$AA@ 0045d3ac     profile.obj
 0002:000013c0       ??_C@_0BO@KPLPAEAO@MULTIPLE_SHOT_PRINT_MENU_HELP?$AA@ 0045d3c0     profile.obj
 0002:000013e0       ??_C@_0BG@LGGLHBOC@MULTIPLE_PRINT_STRING?$AA@ 0045d3e0     profile.obj
 0002:000013f8       ??_C@_0BJ@DMNGHNGH@PRINTING_COMPLETE_STRING?$AA@ 0045d3f8     profile.obj
 0002:00001414       ??_C@_0BF@LJLBNEDP@STAT_N_EQUALS_STRING?$AA@ 0045d414     profile.obj
 0002:0000142c       ??_C@_0BE@PKMPKHHB@ALARM_LIMITS_STRING?$AA@ 0045d42c     profile.obj
 0002:00001440       ??_C@_0BI@NMBEPONB@ALARM_SHOT_LABEL_STRING?$AA@ 0045d440     profile.obj
 0002:00001458       ??_C@_0BI@DDEKHNPE@ALARM_DATE_LABEL_STRING?$AA@ 0045d458     profile.obj
 0002:00001470       ??_C@_0BI@MAKFFODC@ALARM_TIME_LABEL_STRING?$AA@ 0045d470     profile.obj
 0002:00001488       ??_C@_0BJ@GDJCFPNH@TREND_REALTIME_MENU_HELP?$AA@ 0045d488     profile.obj
 0002:000014a4       ??_C@_0BJ@HIBEJJBM@TREND_ALLSHOTS_MENU_HELP?$AA@ 0045d4a4     profile.obj
 0002:000014c0       ??_C@_0BH@LKKOGFMO@TREND_CONFIG_MENU_HELP?$AA@ 0045d4c0     profile.obj
 0002:000014d8       ??_C@_0BJ@GGHCCCED@STAT_SUMMARY_MENU_STRING?$AA@ 0045d4d8     profile.obj
 0002:000014f4       ??_C@_0BH@ELBCJNFI@STAT_SUMMARY_MENU_HELP?$AA@ 0045d4f4     profile.obj
 0002:0000150c       ??_C@_0BM@DLDHKLBL@NO_STAT_SUMMARY_MENU_STRING?$AA@ 0045d50c     profile.obj
 0002:00001528       ??_C@_0BK@NLKHOKKH@NO_STAT_SUMMARY_MENU_HELP?$AA@ 0045d528     profile.obj
 0002:00001544       ??_C@_0BL@PDIICINB@ZOOM_PRINT_POSITION_STRING?$AA@ 0045d544     profile.obj
 0002:00001560       ??_C@_0BH@JPKPJBCL@ZOOM_PRINT_TIME_STRING?$AA@ 0045d560     profile.obj
 0002:00001578       ??_C@_0BL@DILKDKLA@ZOOM_PRINT_VELOCITY_STRING?$AA@ 0045d578     profile.obj
 0002:00001594       ??_C@_0BL@KHMJKPAG@ZOOM_PRINT_ROD_PRES_STRING?$AA@ 0045d594     profile.obj
 0002:000015b0       ??_C@_0BM@NMFKAFHK@ZOOM_PRINT_HEAD_PRES_STRING?$AA@ 0045d5b0     profile.obj
 0002:000015cc       ??_C@_0BI@HAIFJOKL@ZOOM_PRINT_START_STRING?$AA@ 0045d5cc     profile.obj
 0002:000015e4       ??_C@_0BG@DCMBBDIB@ZOOM_PRINT_END_STRING?$AA@ 0045d5e4     profile.obj
 0002:000015fc       ??_C@_0BI@OJBKFME@ZOOM_PRINT_DELTA_STRING?$AA@ 0045d5fc     profile.obj
 0002:00001614       ??_C@_0BG@LGOBGNEN@FIELD_TOO_LONG_STRING?$AA@ 0045d614     profile.obj
 0002:0000162c       ??_C@_0BD@JDIDCPOL@INPUT_ERROR_STRING?$AA@ 0045d62c     profile.obj
 0002:00001640       ??_C@_0BH@FMKKGGP@NO_DEL_ALL_ROWS_STRING?$AA@ 0045d640     profile.obj
 0002:00001658       ??_C@_0BM@HOHOIEHB@ATTEMPT_DEL_ALL_ROWS_STRING?$AA@ 0045d658     profile.obj
 0002:00001674       ??_C@_0BI@IJLHNNMB@NOTHING_SELECTED_STRING?$AA@ 0045d674     profile.obj
 0002:0000168c       ??_C@_0BC@LEAHFMGG@SELECT_ROW_STRING?$AA@ 0045d68c     profile.obj
 0002:000016a0       ??_C@_0BD@MHNFKBBF@N_PER_GROUP_STRING?$AA@ 0045d6a0     profile.obj
 0002:000016b4       ??_C@_0BN@JAPEOCPA@KILLING_ALARMSUM_DATA_STRING?$AA@ 0045d6b4     profile.obj
 0002:000016d4       ??_C@_0BF@BFGHMEAB@DIF_PRES_ZOOM_STRING?$AA@ 0045d6d4     profile.obj
 0002:000016ec       ??_C@_0BG@PJPCOGHA@HEAD_PRES_ZOOM_STRING?$AA@ 0045d6ec     profile.obj
 0002:00001704       ??_C@_0BF@FICJEIAP@ROD_PRES_ZOOM_STRING?$AA@ 0045d704     profile.obj
 0002:0000171c       ??_C@_0BC@MCACJJP@FIXED_AXIS_STRING?$AA@ 0045d71c     profile.obj
 0002:00001730       ??_C@_0M@NCCBAGIL@ft2help?4txt?$AA@ 0045d730     profile.obj
 0002:0000173c       ??_C@_0M@GJFNBFGB@ft2help?4exe?$AA@ 0045d73c     profile.obj
 0002:00001748       ??_C@_05PPGDJHGF@Frech?$AA@ 0045d748     profile.obj
 0002:00001750       ??_C@_03KCPJAIHF@MON?$AA@  0045d750     profile.obj
 0002:00001754       ??_C@_02BAHDIOLJ@XX?$AA@   0045d754     profile.obj
 0002:00001758       ??_C@_03KHICJKCI@?4?4?4?$AA@ 0045d758     profile.obj
 0002:0000175c       ??_C@_06CHPEJBOD@device?$AA@ 0045d75c     profile.obj
 0002:00001764       ??_C@_07EKMDLNDL@windows?$AA@ 0045d764     profile.obj
 0002:0000176c       ??_C@_0BG@ONGPNMNP@DIF_AXIS_LABEL_STRING?$AA@ 0045d76c     profile.obj
 0002:00001784       ??_C@_03ELIFGAKH@?$CK?$CK?$CK?$AA@ 0045d784     profile.obj
 0002:00001788       ??_C@_02GFKOMOKH@?5?$CI?$AA@ 0045d788     profile.obj
 0002:0000178c       ??_C@_01PKGAHCOL@?$CJ?$AA@ 0045d78c     profile.obj
 0002:00001790       ??_C@_07KJOIGCPM@0000?400?$AA@ 0045d790     profile.obj
 0002:00001798       ??_C@_02JMLHNFEL@WW?$AA@   0045d798     profile.obj
 0002:0000179c       ??_C@_03MCPBMLDJ@?5?3?5?$AA@ 0045d79c     profile.obj
 0002:000017a0       ??_C@_01CLKCMJKC@?5?$AA@   0045d7a0     profile.obj
 0002:000017a4       ??_C@_01LFCBOECM@?4?$AA@   0045d7a4     profile.obj
 0002:000017a8       ??_C@_07EKEMFJNL@LISTBOX?$AA@ 0045d7a8     profile.obj
 0002:000017b0       ??_C@_0CA@JHCHFEPM@15?334?345?5?52?4344?5?5123?4223?5?545?467?$AA@ 0045d7b0     profile.obj
 0002:000017d0       ??_C@_04BMCEDOKO@EDIT?$AA@ 0045d7d0     profile.obj
 0002:000017d8       ??_C@_0M@CGACFMDG@W?5P?5000000?4?$AA@ 0045d7d8     profile.obj
 0002:000017e4       ??_C@_0BB@IPOKKIME@TrueTrak?5Profile?$AA@ 0045d7e4     profile.obj
 0002:000017f8       ??_C@_0M@FLNALCAF@CHOOSE_PART?$AA@ 0045d7f8     profile.obj
 0002:00001804       ??_C@_0BG@JKODNOOH@CHOOSE_PARAMETER_LIST?$AA@ 0045d804     profile.obj
 0002:0000181c       ??_C@_07NFANNNEC@UNKNOWN?$AA@ 0045d81c     profile.obj
 0002:00001824       ??_C@_04GOLNGIJ@EXIT?$AA@  0045d824     profile.obj
 0002:0000182c       ??_C@_0BG@MMOIBJLG@EDIT_OPERATORS_DIALOG?$AA@ 0045d82c     profile.obj
 0002:00001844       ??_C@_0CE@GJHLFPGH@CHOOSE_DOWNTIME_MACHINE_MENU_STR@ 0045d844     profile.obj
 0002:00001868       ??_C@_0M@JCAJLPME@UNZOOM_MENU?$AA@ 0045d868     profile.obj
 0002:00001874       ??_C@_09CKLAAOCI@ZOOM_MENU?$AA@ 0045d874     profile.obj
 0002:00001880       ??_C@_0BK@NBNBFLBB@STATUS_SCREEN_MENU_STRING?$AA@ 0045d880     profile.obj
 0002:0000189c       ??_C@_0BN@GMBCEPCL@DAY_PARAM_SCREEN_MENU_STRING?$AA@ 0045d89c     profile.obj
 0002:000018bc       ??_C@_0BB@IKPDGBHE@XDCR_MENU_STRING?$AA@ 0045d8bc     profile.obj
 0002:000018d0       ??_C@_0BA@JEIEHBEP@STD_SCREEN_MENU?$AA@ 0045d8d0     profile.obj
 0002:000018e0       ??_C@_0O@BJMNDBKH@POS_TIME_MENU?$AA@ 0045d8e0     profile.obj
 0002:000018f0       ??_C@_0O@MODGNAFF@POS_ONLY_MENU?$AA@ 0045d8f0     profile.obj
 0002:00001900       ??_C@_0P@IHCGBFFP@TIME_ONLY_MENU?$AA@ 0045d900     profile.obj
 0002:00001910       ??_C@_0BP@HOJCJLID@FONT_STATUS_SCREEN_MENU_STRING?$AA@ 0045d910     profile.obj
 0002:00001930       ??_C@_0BP@CGFOGNFN@SAVE_STATUS_SCREEN_MENU_STRING?$AA@ 0045d930     profile.obj
 0002:00001950       ??_C@_0BP@ODALJAFE@EDIT_STATUS_SCREEN_MENU_STRING?$AA@ 0045d950     profile.obj
 0002:00001970       ??_C@_0P@HHPPNHAC@LastScreenType?$AA@ 0045d970     profile.obj
 0002:00001980       ??_C@_0BB@HKOHPAJO@tooltips_class32?$AA@ 0045d980     profile.obj
 0002:00001994       ??_C@_02PLJDPFIO@00?$AA@   0045d994     profile.obj
 0002:00001998       ??_C@_0BG@COFOFIDP@DOWNTIME_ENTRY_DIALOG?$AA@ 0045d998     profile.obj
 0002:000019b0       ??_C@_07NGFJPNPN@Version?$AA@ 0045d9b0     profile.obj
 0002:000019b8       ??_C@_0BA@ELDIJBNE@Pos?1Time?0Count?0?$AA@ 0045d9b8     profile.obj
 0002:000019c8       ??_C@_0BD@MHFMGEKL@?0Hex?5Bits?0Hex?5Bits?$AA@ 0045d9c8     profile.obj
 0002:000019dc       ??_C@_02FFDDGDPD@P?0?$AA@  0045d9dc     profile.obj
 0002:000019e0       ??_C@_02FCDKMLCP@T?0?$AA@  0045d9e0     profile.obj
 0002:000019e4       ??_C@_03GIOIKFCO@C?3?2?$AA@ 0045d9e4     profile.obj
 0002:000019e8       ??_C@_04EBGNMJBD@?4csv?$AA@ 0045d9e8     profile.obj
 0002:000019f0       ??_C@_04IAPJGLOD@SAVE?$AA@ 0045d9f0     profile.obj
 0002:000019f8       ??_C@_06JHILMIHF@CANCEL?$AA@ 0045d9f8     profile.obj
 0002:00001a00       ??_C@_09FJBOBOMP@FILE_NAME?$AA@ 0045da00     profile.obj
 0002:00001a0c       ??_C@_06JIGFBAJC@COUNTS?$AA@ 0045da0c     profile.obj
 0002:00001a14       ??_C@_0L@KFBBLLKO@RAW_COUNTS?$AA@ 0045da14     profile.obj
 0002:00001a20       ??_C@_09LOBNAPNB@STD_UNITS?$AA@ 0045da20     profile.obj
 0002:00001a2c       ??_C@_0BF@HOPJKIJM@USE_SHOT_NUMBER_XBOX?$AA@ 0045da2c     profile.obj
 0002:00001a44       ??_C@_0L@KEHFOJCM@monall?4exe?$AA@ 0045da44     profile.obj
 0002:00001a50       ??_C@_08LDFALHHP@editpart?$AA@ 0045da50     profile.obj
 0002:00001a5c       ??_C@_08FCOCFNLI@emachine?$AA@ 0045da5c     profile.obj
 0002:00001a68       ??_C@_06FMENPPIO@monall?$AA@ 0045da68     profile.obj
 0002:00001a70       ??_C@_07HHPABDOO@monedit?$AA@ 0045da70     profile.obj
 0002:00001a78       ??_C@_07IGGFILCB@esensor?$AA@ 0045da78     profile.obj
 0002:00001a80       ??_C@_06FHLPEKBJ@bupres?$AA@ 0045da80     profile.obj
 0002:00001a88       ??_C@_08NCILAMIM@v5setups?$AA@ 0045da88     profile.obj
 0002:00001a94       ??_C@_08BIHKDAHG@downtime?$AA@ 0045da94     profile.obj
 0002:00001aa0       ??_C@_08HAAJMJDO@editdown?$AA@ 0045daa0     profile.obj
 0002:00001aac       ??_C@_08BFNOOJDN@suretrak?$AA@ 0045daac     profile.obj
 0002:00001ab8       ??_C@_08EOFDKKIO@visiedit?$AA@ 0045dab8     profile.obj
 0002:00001ac1       ??_C@_00CNPNBAHC@?$AA@     0045dac1     profile.obj
 0002:00001ac4       ??_C@_07JGHHABLF@stddown?$AA@ 0045dac4     profile.obj
 0002:00001acc       ??_C@_08MBJDLAIE@shiftrpt?$AA@ 0045dacc     profile.obj
 0002:00001ad8       ??_C@_07ONPFMHHK@convert?$AA@ 0045dad8     profile.obj
 0002:00001ae0       ??_C@_04JLMDILM@?4exe?$AA@ 0045dae0     profile.obj
 0002:00001ae8       ??_C@_09BHNBMIEK@Menu?5Help?$AA@ 0045dae8     profile.obj
 0002:00001af4       ??_C@_0BF@EJBIEODF@ALARM_SUMMARY_DIALOG?$AA@ 0045daf4     profile.obj
 0002:00001b0c       ??_C@_03JMDFPPIA@CFG?$AA@  0045db0c     profile.obj
 0002:00001b10       ??_C@_0BH@NMFHAMKJ@CHOOSE_LANGUAGE_DIALOG?$AA@ 0045db10     profile.obj
 0002:00001b28       ??_C@_01GBGANLPD@0?$AA@    0045db28     profile.obj
 0002:00001b2c       ??_C@_03FBBILEHC@ACT?$AA@  0045db2c     profile.obj
 0002:00001b30       ??_C@_0BE@NPCAEJEJ@TREND_CONFIG_DIALOG?$AA@ 0045db30     profile.obj
 0002:00001b44       ??_C@_0BN@HEFDIJME@DOWNTIME_REPORT_SETUP_DIALOG?$AA@ 0045db44     profile.obj
 0002:00001b64       ??_C@_0BM@OKBHNLNA@PRINT_MULTIPLE_SHOTS_DIALOG?$AA@ 0045db64     profile.obj
 0002:00001b80       ??_C@_0BG@GPFNEKHC@REALTIME_MACHINE_LIST?$AA@ 0045db80     profile.obj
 0002:00001b98       ??_C@_0BG@NDGHIHLP@DISPLAY_CONFIGURATION?$AA@ 0045db98     profile.obj
 0002:00001bb0       ??_C@_0BE@LMBCFHOI@MACHINE_LIST_DIALOG?$AA@ 0045dbb0     profile.obj
 0002:00001bc4       ??_C@_0N@BNEBAGIE@ABOUT_DIALOG?$AA@ 0045dbc4     profile.obj
 0002:00001bd4       ??_C@_0BH@EMLCDPKF@OPERATOR_SIGNON_DIALOG?$AA@ 0045dbd4     profile.obj
 0002:00001bec       ??_C@_0BE@NENPPFEG@EXPORT_SHOTS_DIALOG?$AA@ 0045dbec     profile.obj
 0002:00001c00       ??_C@_0BH@IFGODJEC@ALARM_LOG_SETUP_DIALOG?$AA@ 0045dc00     profile.obj
 0002:00001c18       ??_C@_0P@DDFGHOEM@SET_TSL_DIALOG?$AA@ 0045dc18     profile.obj
 0002:00001c28       ??_C@_0BA@BAEBFNJB@PASSWORD_DIALOG?$AA@ 0045dc28     profile.obj
 0002:00001c38       ??_C@_0BD@KNJAHFCK@EDIT_SHIFTS_DIALOG?$AA@ 0045dc38     profile.obj
 0002:00001c4c       ??_C@_0BF@PBICNPOA@EXPORT_ALARMS_DIALOG?$AA@ 0045dc4c     profile.obj
 0002:00001c64       ??_C@_0BF@CGPIMNNP@CSV_SHOT_FILE_DIALOG?$AA@ 0045dc64     profile.obj
 0002:00001c7c       ??_C@_05NGHNGHMD@LastN?$AA@ 0045dc7c     profile.obj
 0002:00001c84       ??_C@_08CIECPHJB@HideMenu?$AA@ 0045dc84     profile.obj
 0002:00001c90       ??_C@_0BD@MHEPLIHA@LastStdProfileType?$AA@ 0045dc90     profile.obj
 0002:00001ca4       ??_C@_0L@KGFJIICP@03?113?12002?$AA@ 0045dca4     profile.obj
 0002:00001cb0       ??_C@_0BJ@DJNGNMJI@LOAD_FROM_NETWORK_DIALOG?$AA@ 0045dcb0     profile.obj
 0002:00001ccc       ??_C@_07EAJOOGMN@PROFILE?$AA@ 0045dccc     profile.obj
 0002:00001cd4       ??_C@_0BP@BBMLBOEI@CHOOSE_DOWNTIME_MACHINE_DIALOG?$AA@ 0045dcd4     profile.obj
 0002:00001cf4       ??_C@_0BA@FOBLHICH@ZOOM_BOX_DIALOG?$AA@ 0045dcf4     profile.obj
 0002:00001d04       ??_C@_0BG@MLMHCENP@SMALL_ZOOM_BOX_DIALOG?$AA@ 0045dd04     profile.obj
 0002:00001d1c       ??_C@_0BF@ELBCHMC@PARAM_HISTORY_DIALOG?$AA@ 0045dd1c     profile.obj
 0002:00001d34       ??_C@_0BH@HOFFIKJC@VIEW_PARAMETERS_DIALOG?$AA@ 0045dd34     profile.obj
 0002:00001d4c       ??_C@_0BI@CCPJIENH@COLOR_DEFINITION_DIALOG?$AA@ 0045dd4c     profile.obj
 0002:00001d64       __real@00000000            0045dd64     profile.obj
 0002:00001d68       __real@0000000000000000    0045dd68     profile.obj
 0002:00001d70       __real@3fd0000000000000    0045dd70     profile.obj
 0002:00001d78       __real@3ff0000000000000    0045dd78     profile.obj
 0002:00001d80       __real@4059000000000000    0045dd80     profile.obj
 0002:00001d88       __real@408f400000000000    0045dd88     profile.obj
 0002:00001d90       __real@40ed4c0000000000    0045dd90     profile.obj
 0002:00001d98       __real@41200000            0045dd98     profile.obj
 0002:00001d9c       __real@461c4000            0045dd9c     profile.obj
 0002:00001da0       __xmm@00000006000000050000000400000003 0045dda0     profile.obj
 0002:00001db0       __xmm@41f00000000000000000000000000000 0045ddb0     profile.obj
 0002:00001dc0       __xmm@80000000800000008000000080000000 0045ddc0     profile.obj
 0002:00001dd4       ??_C@_04JEPIDPDB@?4PRO?$AA@ 0045ddd4     box.obj
 0002:00001ddc       ??_C@_04IEDBBIIG@Font?$AA@ 0045dddc     box.obj
 0002:00001de4       ??_C@_01FHEEJDEE@A?$AA@    0045dde4     box.obj
 0002:00001de8       ??_C@_0BF@GBAOGICN@MACHINE_LABEL_STRING?$AA@ 0045dde8     chospart.obj
 0002:00001e00       ??_C@_0BC@MGJOEEOD@PART_LABEL_STRING?$AA@ 0045de00     chospart.obj
 0002:00001e14       ??_C@_0BD@DGNHHPDG@SHOTS_LABEL_STRING?$AA@ 0045de14     chospart.obj
 0002:00001e28       ??_C@_0BE@BHJMEKFN@PARAMS_LABEL_STRING?$AA@ 0045de28     chospart.obj
 0002:00001e3c       ??_C@_0BE@HIEPFJEB@CHOOSE_PART_CAPTION?$AA@ 0045de3c     chospart.obj
 0002:00001e50       ??_C@_0BF@PCBGHKNH@CHOOSE_SHOTS_CAPTION?$AA@ 0045de50     chosshot.obj
 0002:00001e68       ??_C@_0M@MMHLIINI@ChooseColor?$AA@ 0045de68     colordef.obj
 0002:00001edc       ??_C@_04OKOFBOPB@Time?$AA@ 0045dedc     colors.obj
 0002:00001ee4       ??_C@_04IAEKAMNC@YPos?$AA@ 0045dee4     colors.obj
 0002:00001eec       ??_C@_04LNCKCFGC@XPos?$AA@ 0045deec     colors.obj
 0002:00001ef4       ??_C@_08LIFBEL@Velocity?$AA@ 0045def4     colors.obj
 0002:00001f00       ??_C@_07NDIJKOKM@Analog1?$AA@ 0045df00     colors.obj
 0002:00001f08       ??_C@_07PIKEPNGP@Analog2?$AA@ 0045df08     colors.obj
 0002:00001f10       ??_C@_07OBLPMMCO@Analog3?$AA@ 0045df10     colors.obj
 0002:00001f18       ??_C@_07KOPOFKOJ@Analog4?$AA@ 0045df18     colors.obj
 0002:00001f20       ??_C@_06BAILCDGA@Backgr?$AA@ 0045df20     colors.obj
 0002:00001f28       ??_C@_06CMOGDIBK@Border?$AA@ 0045df28     colors.obj
 0002:00001f30       ??_C@_04FEKPLKKA@Grid?$AA@ 0045df30     colors.obj
 0002:00001f38       ??_C@_04OJAHODMC@Text?$AA@ 0045df38     colors.obj
 0002:00001f40       ??_C@_05BFBAOIKK@Trend?$AA@ 0045df40     colors.obj
 0002:00001f58       ??_C@_0N@GLCGFAED@CTRLIMIT?4TXT?$AA@ 0045df58     ctrlimit.obj
 0002:00001f68       ??_C@_08HPPJPGGP@00?300?300?$AA@ 0045df68     dbarcfg.obj
 0002:00001f74       ??_C@_0M@CDCMLBNE@FIXPRES?4TXT?$AA@ 0045df74     dconfig.obj
 0002:00001f80       ??_C@_0M@BABNNHNF@FIXCHAN?4TXT?$AA@ 0045df80     dconfig.obj
 0002:00001f8c       ??_C@_0BA@IFDBBJMN@DIF_PRES_STRING?$AA@ 0045df8c     dconfig.obj
 0002:00001f9c       ??_C@_0BB@JLLMBAPE@HEAD_PRES_STRING?$AA@ 0045df9c     dconfig.obj
 0002:00001fb0       ??_C@_0BA@PDBDFOOI@ROD_PRES_STRING?$AA@ 0045dfb0     dconfig.obj
 0002:00001fc8       ??_C@_0N@BPGPHCM@DOWNSCAT?4TXT?$AA@ 0045dfc8     downbar.obj
 0002:00001fd8       ??_C@_0O@HECJKNFL@Downscatc?4txt?$AA@ 0045dfd8     downbar.obj
 0002:00001fe8       ??_C@_02ODEKKOPI@11?$AA@   0045dfe8     downbar.obj
 0002:00001fec       ??_C@_02KLLMIGEE@?$CF?5?$AA@ 0045dfec     downbar.obj
 0002:00001ff0       __real@3f800000            0045dff0     downbar.obj
 0002:00001ff4       __real@40000000            0045dff4     downbar.obj
 0002:00001ff8       __real@40ac200000000000    0045dff8     downbar.obj
 0002:00002004       ??_7EDITOP_GRID_CLASS@@6B@ 0045e004     editop.obj
 0002:00002100       ??_C@_07BPGNIBJB@MS?5?$JG?$LO?$JC?$KJ?$AA@ 0045e100     editop.obj
 0002:00002108       ??_C@_0BD@JPOOOLLJ@INPUT_ERROR_DIALOG?$AA@ 0045e108     editop.obj
 0002:00002120       __xmm@0000000000000000000000000000000e 0045e120     editop.obj
 0002:00002130       ??_C@_06OOPIFAJ@Sunday?$AA@ 0045e130     editshif.obj
 0002:00002138       ??_C@_06JLEDEDGH@Monday?$AA@ 0045e138     editshif.obj
 0002:00002140       ??_C@_07BAAGCFCM@Tuesday?$AA@ 0045e140     editshif.obj
 0002:00002148       ??_C@_09DLIGFAKA@Wednesday?$AA@ 0045e148     editshif.obj
 0002:00002154       ??_C@_08HACCIKIA@Thursday?$AA@ 0045e154     editshif.obj
 0002:00002160       ??_C@_06JECMNKMI@Friday?$AA@ 0045e160     editshif.obj
 0002:00002168       ??_C@_08INBOOONO@Saturday?$AA@ 0045e168     editshif.obj
 0002:00002174       ??_C@_07NBCGADJA@Unknown?$AA@ 0045e174     editshif.obj
 0002:0000217c       ??_C@_09CLOMDGHB@SHIFT?4TXT?$AA@ 0045e17c     editshif.obj
 0002:00002188       ??_C@_09DHHAFPKJ@Alarm?5Low?$AA@ 0045e188     export.obj
 0002:00002194       ??_C@_0L@MONENANA@Alarm?5High?$AA@ 0045e194     export.obj
 0002:000021a0       ??_C@_08GJHLGDEO@Warn?5Low?$AA@ 0045e1a0     export.obj
 0002:000021ac       ??_C@_09PAOEKMDH@Warn?5High?$AA@ 0045e1ac     export.obj
 0002:000021b8       ??_C@_03LLNBGIF@Min?$AA@   0045e1b8     export.obj
 0002:000021bc       ??_C@_03BJDGPCOK@Max?$AA@  0045e1bc     export.obj
 0002:000021c4       ??_7GRID_CLASS@@6B@        0045e1c4     gridclas.obj
 0002:000022c0       __xmm@0000000000000000000000000000000d 0045e2c0     gridclas.obj
 0002:000022d0       __real@38d1b717            0045e2d0     isalarm.obj
 0002:000022d4       ??_C@_04MOJMPAAH@?4MAS?$AA@ 0045e2d4     master.obj
 0002:000022dc       ??_C@_07EHKOIGEK@CURRENT?$AA@ 0045e2dc     master.obj
 0002:000022e4       ??_C@_04LCHKKKOB@?4MA2?$AA@ 0045e2e4     master.obj
 0002:000022f0       ??_7DATA_ARRAY_CLASS@@6B@  0045e2f0     mplot.obj
 0002:000022f8       ??_7SINGLE_PLOT_CLASS@@6B@ 0045e2f8     mplot.obj
 0002:000022fc       ??_C@_07MGPOGLLD@000?4000?$AA@ 0045e2fc     mplot.obj
 0002:00002308       __real@3fe0000000000000    0045e308     mplot.obj
 0002:00002310       __real@bf800000            0045e310     mplot.obj
 0002:00002314       ??_C@_0P@FLNFLGIK@Begin?5Printing?$AA@ 0045e314     mulprint.obj
 0002:00002324       ??_C@_0O@HGKEIJHN@Stop?5Printing?$AA@ 0045e324     mulprint.obj
 0002:00002340       __xmm@0000000800000008000000080000001a 0045e340     paramwin.obj
 0002:00002350       __xmm@0000021f0000021e0000021d0000021c 0045e350     paramwin.obj
 0002:00002360       ??_C@_07NNIBBFDN@ADD?4TXT?$AA@ 0045e360     password.obj
 0002:00002368       ??_C@_0N@KBFDFBCP@PASSWORD?4TXT?$AA@ 0045e368     password.obj
 0002:0000237c       ??_7PW_GRID_CLASS@@6B@     0045e37c     password.obj
 0002:00002478       ??_C@_0BG@OFFJBAEA@No?5Font?5at?5this?5index?$AA@ 0045e478     password.obj
 0002:00002490       ??_C@_0L@PILNPLKN@SetDefFont?$AA@ 0045e490     password.obj
 0002:0000249c       ??_C@_03NFLNALCB@000?$AA@  0045e49c     password.obj
 0002:000024a0       ??_C@_05IEIONIFO@Label?$AA@ 0045e4a0     password.obj
 0002:000024a8       ??_C@_01MCMALHOG@a?$AA@    0045e4a8     password.obj
 0002:000024ac       ??_C@_0BA@PMCIHBD@PasswordLogFile?$AA@ 0045e4ac     password.obj
 0002:000024bc       ??_C@_0BC@NMEIKHCH@PasswordLogFormat?$AA@ 0045e4bc     password.obj
 0002:000024d0       ??_C@_0BN@IOEICDAA@SOME_VERSIONS_TOO_OLD_STRING?$AA@ 0045e4d0     password.obj
 0002:000024f0       ??_C@_0BG@IIFJPOEM@EDIT_PASSWORDS_DIALOG?$AA@ 0045e4f0     password.obj
 0002:00002508       ??_C@_0BC@CCLPAOFK@CO_OPTIONS_DIALOG?$AA@ 0045e508     password.obj
 0002:00002520       __xmm@00000000000000000000000000000012 0045e520     password.obj
 0002:00002534       ??_C@_04JGBGNBFE@?4pr2?$AA@ 0045e534     plot.obj
 0002:0000253c       ??_C@_04JJADPCEN@?4pro?$AA@ 0045e53c     plot.obj
 0002:00002548       __real@3f50624dd2f1a9fc    0045e548     plot.obj
 0002:00002550       __real@4024000000000000    0045e550     plot.obj
 0002:00002558       __real@4034000000000000    0045e558     plot.obj
 0002:00002560       __real@40affe0000000000    0045e560     plot.obj
 0002:00002568       __real@477fff00            0045e568     plot.obj
 0002:00002584       ??_C@_0BJ@HNJMDBKJ@status_screen_config?4dat?$AA@ 0045e584     status.obj
 0002:000025a0       ??_C@_05BOHNMGBD@ALARM?$AA@ 0045e5a0     status.obj
 0002:000025a8       ??_C@_02PNHBFOHM@Ok?$AA@   0045e5a8     status.obj
 0002:000025ac       ??_C@_02KNHHEEKP@?5?5?$AA@ 0045e5ac     status.obj
 0002:000025b0       ??_C@_0M@EPICHJMO@SysHeader32?$AA@ 0045e5b0     status.obj
 0002:000025bc       ??_C@_0N@KENONEOL@TCPARAMS?4DAT?$AA@ 0045e5bc     tcconfig.obj
 0002:000025d0       ??_7INT32_ARRAY_CLASS@@6B@ 0045e5d0     tcconfig.obj
 0002:000025dc       ??_C@_0BC@OPBGNLOC@TC_VISIBLE_DIALOG?$AA@ 0045e5dc     tcconfig.obj
 0002:000025f4       ??_C@_07EFFENOHL@00000?4?5?$AA@ 0045e5f4     trend.obj
 0002:000025fc       ??_C@_0L@CFFJLJAI@00000000?4?5?$AA@ 0045e5fc     trend.obj
 0002:00002608       ??_C@_03MDAFIFFL@0?40?$AA@ 0045e608     trend.obj
 0002:00002610       __real@3f847ae147ae147b    0045e610     trend.obj
 0002:00002618       __real@4008000000000000    0045e618     trend.obj
 0002:00002634       ??_7SHOT_ARRAY_CLASS@@6B@  0045e634     xaxis.obj
 0002:0000263c       ??_7X_AXIS_CLASS@@6B@      0045e63c     xaxis.obj
 0002:00002640       ??_C@_0BL@DHPAFHGD@000000?500?100?10000?500?300?300?$AA@ 0045e640     xaxis.obj
 0002:00002664       ??_C@_05KLKPKMCL@?4stbl?$AA@ 0045e664     v5subs:nameclas.obj
 0002:0000266c       ??_C@_0BC@HCEEAJMH@_machine_list?4txt?$AA@ 0045e66c     v5subs:nameclas.obj
 0002:00002688       ??_C@_0M@PNJEDJJP@ASENSOR?4CSV?$AA@ 0045e688     v5subs:asensor.obj
 0002:00002694       ??_C@_08NPBCJIHM@Not?5Used?$AA@ 0045e694     v5subs:asensor.obj
 0002:000026a0       __real@4004000000000000    0045e6a0     v5subs:asensor.obj
 0002:000026a8       __real@4004020c49ba5e35    0045e6a8     v5subs:asensor.obj
 0002:000026b0       __real@4014000000000000    0045e6b0     v5subs:asensor.obj
 0002:000026b8       __real@4014010624dd2f1b    0045e6b8     v5subs:asensor.obj
 0002:000026c0       __xmm@3ff00000000000004024000000000000 0045e6c0     v5subs:asensor.obj
 0002:000026d0       ??_C@_0M@OLPAACHI@DOWNCAT?4TXT?$AA@ 0045e6d0     v5subs:catclass.obj
 0002:000026dc       ??_C@_0BA@NBCCDBAO@chaxislabel?4dat?$AA@ 0045e6dc     v5subs:chaxis.obj
 0002:000026ec       ??_C@_09GDACHCPK@COLOR?4TXT?$AA@ 0045e6ec     v5subs:color.obj
 0002:000026fc       ??_C@_0CK@JBOPMLIC@Unable?5to?5ALLOCATE?5DB_TABLE?5reco@ 0045e6fc     v5subs:dbsubs.obj
 0002:00002728       ??_C@_0BG@CPBDHLID@Unable?5to?5lock?5record?$AA@ 0045e728     v5subs:dbsubs.obj
 0002:00002740       ??_C@_05CHKGEIOL@0x?$CFlX?$AA@ 0045e740     v5subs:dbsubs.obj
 0002:00002748       ??_C@_0BH@ICEGKPMC@Can?8t?5set?5file?5pointer?$AA@ 0045e748     v5subs:dbsubs.obj
 0002:00002760       ??_C@_09OCBCGKDI@DSTAT?4TXT?$AA@ 0045e760     v5subs:dstat.obj
 0002:0000276c       ??_C@_02OCIIMEMP@01?$AA@   0045e76c     v5subs:dstat.obj
 0002:00002770       ??_C@_02MJKFJHAM@02?$AA@   0045e770     v5subs:dstat.obj
 0002:00002774       ??_C@_08EHEBBLJC@UNKNOWN0?$AA@ 0045e774     v5subs:evclass.obj
 0002:00002780       ??_C@_0N@NEAIHGCO@FTANALOG?4TXT?$AA@ 0045e780     v5subs:ftanalog.obj
 0002:00002790       ??_C@_0N@CHKFJEGL@FTANALOG?4CSV?$AA@ 0045e790     v5subs:ftanalog.obj
 0002:000027a0       ??_C@_0L@GHHOCNHO@FTCALC?4CSV?$AA@ 0045e7a0     v5subs:ftcalc.obj
 0002:000027ac       ??_C@_0N@NNGELIJD@COMPUTER?4CSV?$AA@ 0045e7ac     v5subs:computer.obj
 0002:00002834       ??_C@_0N@MOIHEONP@Machine?5Type?$AA@ 0045e834     v5subs:machine.obj
 0002:00002844       ??_C@_0BH@NNBMAMNI@Fast?5Trak?5Board?5Number?$AA@ 0045e844     v5subs:machine.obj
 0002:0000285c       ??_C@_0BO@HNEENHKI@Mux?5Channel?5Number?5?$CIFT1?5Only?$CJ?$AA@ 0045e85c     v5subs:machine.obj
 0002:0000287c       ??_C@_0BE@DFPNJCJC@Is?5SureTrak?5Control?$AA@ 0045e87c     v5subs:machine.obj
 0002:00002890       ??_C@_0BC@MMHMIFGN@Current?5Part?5Name?$AA@ 0045e890     v5subs:machine.obj
 0002:000028a4       ??_C@_09CCBGKGIC@Rod?5Pitch?$AA@ 0045e8a4     v5subs:machine.obj
 0002:000028b0       ??_C@_0BD@GNBMCJIF@Profile?5Skip?5Count?$AA@ 0045e8b0     v5subs:machine.obj
 0002:000028c4       ??_C@_0BG@FDBEJOGA@Profile?5Acquire?5Count?$AA@ 0045e8c4     v5subs:machine.obj
 0002:000028dc       ??_C@_0BJ@FLJCNELE@Profile?5Time?5Skip?5?$CISec?4?$CJ?$AA@ 0045e8dc     v5subs:machine.obj
 0002:000028f8       ??_C@_0O@LOIAPFOK@Profile?5Flags?$AA@ 0045e8f8     v5subs:machine.obj
 0002:00002908       ??_C@_0BC@FEEHGIBD@Profile?5Max?5Saved?$AA@ 0045e908     v5subs:machine.obj
 0002:0000291c       ??_C@_0BB@JJOLMDBO@Param?5Skip?5Count?$AA@ 0045e91c     v5subs:machine.obj
 0002:00002930       ??_C@_0BE@CFBKLFFM@Param?5Acquire?5Count?$AA@ 0045e930     v5subs:machine.obj
 0002:00002944       ??_C@_0BH@OHCLBIFI@Param?5Time?5Skip?5?$CISec?4?$CJ?$AA@ 0045e944     v5subs:machine.obj
 0002:0000295c       ??_C@_0M@FLCPHCBL@Param?5Flags?$AA@ 0045e95c     v5subs:machine.obj
 0002:00002968       ??_C@_0BA@HHBIKCAF@Param?5Max?5Saved?$AA@ 0045e968     v5subs:machine.obj
 0002:00002978       ??_C@_0O@JBNMJHP@Monitor?5Flags?$AA@ 0045e978     v5subs:machine.obj
 0002:00002988       ??_C@_0BJ@GBHCCOIB@Auto?5Shot?5Timeout?5?$CISec?4?$CJ?$AA@ 0045e988     v5subs:machine.obj
 0002:000029a4       ??_C@_0BI@MMIPJLJD@Downtime?5Timeout?5?$CISec?4?$CJ?$AA@ 0045e9a4     v5subs:machine.obj
 0002:000029bc       ??_C@_0BK@OPEBGBCN@Differential?5Curve?5Number?$AA@ 0045e9bc     v5subs:machine.obj
 0002:000029d8       ??_C@_0BM@ICLBHBOG@Position?5Base?5Impact?5Points?$AA@ 0045e9d8     v5subs:machine.obj
 0002:000029f4       ??_C@_0BI@MGNODMON@Time?5Base?5Impact?5Points?$AA@ 0045e9f4     v5subs:machine.obj
 0002:00002a0c       ??_C@_0BJ@LBLJABBN@Pre?5Impact?5Pressure?5Type?$AA@ 0045ea0c     v5subs:machine.obj
 0002:00002a28       ??_C@_0BK@IIFEICOJ@Post?5Impact?5Pressure?5Type?$AA@ 0045ea28     v5subs:machine.obj
 0002:00002a44       ??_C@_0BA@HBNKAMDO@Operator?5Number?$AA@ 0045ea44     v5subs:machine.obj
 0002:00002a54       ??_C@_0BD@CPILCMOD@Quadrature?5Divisor?$AA@ 0045ea54     v5subs:machine.obj
 0002:00002a68       ??_C@_0BI@CNKGMGOJ@Binary?5Valve?5Pulse?5Time?$AA@ 0045ea68     v5subs:machine.obj
 0002:00002a80       ??_C@_0BJ@ENEMHPJH@Binary?5Valve?5Devent?5Time?$AA@ 0045ea80     v5subs:machine.obj
 0002:00002a9c       ??_C@_0BI@HNHMFIHE@Binary?5Valve?5Pulse?5Wire?$AA@ 0045ea9c     v5subs:machine.obj
 0002:00002ab4       ??_C@_0BN@OGBGKKMD@Valve?5Setting?5after?5Jog?5Shot?$AA@ 0045eab4     v5subs:machine.obj
 0002:00002ad4       ??_C@_0BJ@KLJNILDG@default_hmi_settings?4csv?$AA@ 0045ead4     v5subs:machine.obj
 0002:00002af0       ??_C@_0N@HNGGMANO@SEMAPHOR?4TXT?$AA@ 0045eaf0     v5subs:machine.obj
 0002:00002b00       ??_C@_03HLLJOCDO@1?40?$AA@ 0045eb00     v5subs:machine.obj
 0002:00002b04       ??_C@_02NPBNBJHG@?42?$AA@  0045eb04     v5subs:machine.obj
 0002:00002b08       ??_C@_02LHFGLHCH@27?$AA@   0045eb08     v5subs:machine.obj
 0002:00002b0c       ??_C@_0BA@OBGBLKPH@control_all?4txt?$AA@ 0045eb0c     v5subs:machine.obj
 0002:00002b1c       ??_C@_03GNABGMEE@100?$AA@  0045eb1c     v5subs:machine.obj
 0002:00002b20       __real@412e848000000000    0045eb20     v5subs:machine.obj
 0002:00002b28       ??_C@_0N@BEOBODLA@PARMLIST?4TXT?$AA@ 0045eb28     v5subs:param.obj
 0002:00002b38       ??_C@_0M@ECMINKO@NOPARAMETER?$AA@ 0045eb38     v5subs:param.obj
 0002:00002b44       ??_C@_0L@FGNFKGAO@FTCHAN?4TXT?$AA@ 0045eb44     v5subs:part.obj
 0002:00002b50       ??_C@_0BE@OCONGGMH@good_shot_setup?4csv?$AA@ 0045eb50     v5subs:part.obj
 0002:00002b64       ??_C@_0M@JJIEHKEJ@PSENSOR?4TXT?$AA@ 0045eb64     v5subs:part.obj
 0002:00002b70       __real@3fe921ff2e48e8a7    0045eb70     v5subs:part.obj
 0002:00002b80       __xmm@3ff00000000000004054000000000000 0045eb80     v5subs:part.obj
 0002:00002b90       ??_C@_03BBKEAIF@?$DP?$DP?$DP?$AA@ 0045eb90     v5subs:timeclas.obj
 0002:00002b94       ??_C@_03DIELNALK@jan?$AA@  0045eb94     v5subs:timeclas.obj
 0002:00002b98       ??_C@_03NJCBIINC@feb?$AA@  0045eb98     v5subs:timeclas.obj
 0002:00002b9c       ??_C@_03EDOLLFFO@mar?$AA@  0045eb9c     v5subs:timeclas.obj
 0002:00002ba0       ??_C@_03BENJMDKB@apr?$AA@  0045eba0     v5subs:timeclas.obj
 0002:00002ba4       ??_C@_03KABPGMJF@may?$AA@  0045eba4     v5subs:timeclas.obj
 0002:00002ba8       ??_C@_03CDGENLBG@jun?$AA@  0045eba8     v5subs:timeclas.obj
 0002:00002bac       ??_C@_03BBFCLJJE@jul?$AA@  0045ebac     v5subs:timeclas.obj
 0002:00002bb0       ??_C@_03CFKHOHFO@aug?$AA@  0045ebb0     v5subs:timeclas.obj
 0002:00002bb4       ??_C@_03MGBCFPKM@sep?$AA@  0045ebb4     v5subs:timeclas.obj
 0002:00002bb8       ??_C@_03LMDMAODN@oct?$AA@  0045ebb8     v5subs:timeclas.obj
 0002:00002bbc       ??_C@_03DPKMPCLO@nov?$AA@  0045ebbc     v5subs:timeclas.obj
 0002:00002bc0       ??_C@_03GKDDHBBI@dec?$AA@  0045ebc0     v5subs:timeclas.obj
 0002:00002bc4       ??_C@_0BB@HJPIEOB@Last?5Shot?5Number?$AA@ 0045ebc4     v5subs:plookup.obj
 0002:00002bd8       ??_C@_04FMEGDJGD@Date?$AA@ 0045ebd8     v5subs:plookup.obj
 0002:00002be0       ??_C@_0M@BJNLCCEC@plookup?4csv?$AA@ 0045ebe0     v5subs:plookup.obj
 0002:00002bec       ??_C@_0N@BJHJLHBG@MARKLIST?4CSV?$AA@ 0045ebec     v5subs:marks.obj
 0002:00002bfc       ??_C@_0N@OKNEFFFD@MARKLIST?4TXT?$AA@ 0045ebfc     v5subs:marks.obj
 0002:00002c3c       ??_C@_0BJ@JPOFAANB@parameter_sort_order?4csv?$AA@ 0045ec3c     v5subs:param_index_class.obj
 0002:00002c58       __real@3f1d9f4d37c1376d    0045ec58     v5subs:unitadj.obj
 0002:00002c60       __real@3f74cec41dd1a21f    0045ec60     v5subs:unitadj.obj
 0002:00002c68       __real@3f9a027525460aa6    0045ec68     v5subs:unitadj.obj
 0002:00002c70       __real@3fb1a67dadaac896    0045ec70     v5subs:unitadj.obj
 0002:00002c78       __real@3fb1ffa3b9ae0c17    0045ec78     v5subs:unitadj.obj
 0002:00002c80       __real@3fc999999999999a    0045ec80     v5subs:unitadj.obj
 0002:00002c88       __real@3fdd07a84aaed1d9    0045ec88     v5subs:unitadj.obj
 0002:00002c90       __real@3fe04189374bc6a8    0045ec90     v5subs:unitadj.obj
 0002:00002c98       __real@3fef6191148fd9fd    0045ec98     v5subs:unitadj.obj
 0002:00002ca0       __real@3ff050c5eb313be2    0045eca0     v5subs:unitadj.obj
 0002:00002ca8       __real@3fff7ef9db22d0e5    0045eca8     v5subs:unitadj.obj
 0002:00002cb0       __real@4001a3112f6c181b    0045ecb0     v5subs:unitadj.obj
 0002:00002cb8       __real@400451eb851eb852    0045ecb8     v5subs:unitadj.obj
 0002:00002cc0       __real@4019ce703afb7e91    0045ecc0     v5subs:unitadj.obj
 0002:00002cc8       __real@4022000000000000    0045ecc8     v5subs:unitadj.obj
 0002:00002cd0       __real@4028000000000000    0045ecd0     v5subs:unitadj.obj
 0002:00002cd8       __real@402c725460aa64c3    0045ecd8     v5subs:unitadj.obj
 0002:00002ce0       __real@402d01f212d77319    0045ece0     v5subs:unitadj.obj
 0002:00002ce8       __real@40306316a055757d    0045ece8     v5subs:unitadj.obj
 0002:00002cf0       __real@4039666666666666    0045ecf0     v5subs:unitadj.obj
 0002:00002cf8       __real@403e7ae147ae147b    0045ecf8     v5subs:unitadj.obj
 0002:00002d00       __real@4040000000000000    0045ed00     v5subs:unitadj.obj
 0002:00002d08       __real@40689b3333333333    0045ed08     v5subs:unitadj.obj
 0002:00002d10       __real@40730ccccccccccd    0045ed10     v5subs:unitadj.obj
 0002:00002d18       __real@40842947ae147ae1    0045ed18     v5subs:unitadj.obj
 0002:00002d20       __real@40c1490000000000    0045ed20     v5subs:unitadj.obj
 0002:00002d28       __real@40d000c4189374bc    0045ed28     v5subs:unitadj.obj
 0002:00002d30       ??_C@_03KOEHGMDN@Sun?$AA@  0045ed30     v5subs:time.obj
 0002:00002d34       ??_C@_03PDAGKDH@Mon?$AA@   0045ed34     v5subs:time.obj
 0002:00002d38       ??_C@_03NAGEINEP@Tue?$AA@  0045ed38     v5subs:time.obj
 0002:00002d3c       ??_C@_03MHOMLAJA@Wed?$AA@  0045ed3c     v5subs:time.obj
 0002:00002d40       ??_C@_03MBBJDJPK@Thr?$AA@  0045ed40     v5subs:time.obj
 0002:00002d44       ??_C@_03IDIOELNC@Fri?$AA@  0045ed44     v5subs:time.obj
 0002:00002d48       ??_C@_03FEFJNEK@Sat?$AA@   0045ed48     v5subs:time.obj
 0002:00002d50       ??_C@_0BC@FPMLOHHC@DdeConnect?5Failed?$AA@ 0045ed50     v5subs:client.obj
 0002:00002d64       ??_C@_06HMPLFHFI@Dmlerr?$AA@ 0045ed64     v5subs:client.obj
 0002:00002d6c       ??_C@_0L@MEDALGHK@dmlerr?4txt?$AA@ 0045ed6c     v5subs:client.obj
 0002:00002d78       ??_C@_0BA@OPFLENNK@Conversation?5?$DN?5?$AA@ 0045ed78     v5subs:client.obj
 0002:00002d88       ??_C@_0BG@NMLOLGHC@No?5Conversation?5found?$AA@ 0045ed88     v5subs:client.obj
 0002:00002da0       ??_C@_07JELGNNCC@Item?5?$DN?5?$AA@ 0045eda0     v5subs:client.obj
 0002:00002da8       ??_C@_0BD@MAKOIAJM@?0?5default_value?5?$DN?5?$AA@ 0045eda8     v5subs:client.obj
 0002:00002dbc       ??_C@_0BE@PDFGFHMA@Transaction?5type?5?$DN?5?$AA@ 0045edbc     v5subs:client.obj
 0002:00002dd0       ??_C@_08HLMEAJIJ@Error?5?$DN?5?$AA@ 0045edd0     v5subs:client.obj
 0002:00002ddc       ??_C@_0O@DEJNGLFG@DdeInitialize?$AA@ 0045eddc     v5subs:client.obj
 0002:00002dec       ??_C@_06CMLPEGNC@Failed?$AA@ 0045edec     v5subs:client.obj
 0002:00002df4       ??_C@_0BG@CLMLOLAK@DdeCreateStringHandle?$AA@ 0045edf4     v5subs:client.obj
 0002:00002e0c       ??_C@_0L@DBNEMBMF@DCURVE?4TXT?$AA@ 0045ee0c     v5subs:dcurve.obj
 0002:00002e20       __xmm@80000000000000008000000000000000 0045ee20     v5subs:dtotchar.obj
 0002:00002e38       __real@3ee4f8b588e368f1    0045ee38     v5subs:ftoasc.obj
 0002:00002e40       __real@bee4f8b588e368f1    0045ee40     v5subs:ftoasc.obj
 0002:00002e58       __real@3eb0c6f7a0b5ed8d    0045ee58     v5subs:zero.obj
 0002:00002e60       __real@3f1a36e2eb1c432d    0045ee60     v5subs:zero.obj
 0002:00002e68       __real@beb0c6f7a0b5ed8d    0045ee68     v5subs:zero.obj
 0002:00002e70       __real@bf1a36e2eb1c432d    0045ee70     v5subs:zero.obj
 0002:00002e78       ??_C@_02KJIIBPBF@SU?$AA@   0045ee78     v5subs:shift.obj
 0002:00002e7c       ??_C@_02PBNGLLE@MO?$AA@    0045ee7c     v5subs:shift.obj
 0002:00002e80       ??_C@_02KMMHAJJA@TU?$AA@   0045ee80     v5subs:shift.obj
 0002:00002e84       ??_C@_02OEEDKFJI@WE?$AA@   0045ee84     v5subs:shift.obj
 0002:00002e88       ??_C@_02FDKLGFIM@TH?$AA@   0045ee88     v5subs:shift.obj
 0002:00002e8c       ??_C@_02PMCEOIEJ@FR?$AA@   0045ee8c     v5subs:shift.obj
 0002:00002e90       ??_C@_02IHCGMIEA@SA?$AA@   0045ee90     v5subs:shift.obj
 0002:00002eac       ??_C@_09LIKMICOD@UNITS?4TXT?$AA@ 0045eeac     v5subs:units.obj
 0002:00002ec0       ??_C@_07OOFFCIDH@ListBox?$AA@ 0045eec0     v5subs:winsubs.obj
 0002:00002ecc       ??_7FTII_ARRAY_DATA@@6B@   0045eecc     v5subs:ftii_shot_data.obj
 0002:00002ed4       ??_7FTII_PROFILE@@6B@      0045eed4     v5subs:ftii_shot_data.obj
 0002:00002ed8       ??_C@_04NPGOAOEL@?0?0?0?0?$AA@ 0045eed8     v5subs:ftii_shot_data.obj
 0002:00002ee0       ??_C@_03PHNCCGAL@?00x?$AA@ 0045eee0     v5subs:ftii_shot_data.obj
 0002:00002ee4       ??_C@_01IHBHIGKO@?0?$AA@   0045eee4     v5subs:ftii_shot_data.obj
 0002:00002ee8       ??_C@_07GICHFDO@SubMenu?$AA@ 0045eee8     v5subs:menuctrl.obj
 0002:00002ef0       ??_C@_0BB@JLFLKCC@EffPeakSkipCount?$AA@ 0045eef0     v5subs:ftii_parameters.obj
 0002:00002f08       __real@40c3880000000000    0045ef08     v5subs:ftii_parameters.obj
 0002:00002f10       ??_C@_05NAOIJFC@Error?$AA@ 0045ef10     v5subs:error_ms.obj
 0002:00002f18       ??_C@_0L@MMOCAGKL@VisiErrors?$AA@ 0045ef18     v5subs:error_ms.obj
 0002:00002f24       ??_C@_01NEMOKFLO@?$DN?$AA@ 0045ef24     v5subs:error_ms.obj
 0002:00002f34       ??_7CUGCtrl@@6B@           0045ef34     dundas:ugctrl.obj
 0002:00003030       ??_C@_09CFCBFJND@Not?5Found?$AA@ 0045f030     dundas:ugctrl.obj
 0002:0000303c       ??_C@_0P@DFHOOPJE@Item?5not?5found?$AA@ 0045f03c     dundas:ugctrl.obj
 0002:00003050       ??_7CUGCnrBtn@@6B@         0045f050     dundas:ugcnrbtn.obj
 0002:00003058       ??_7CUGGrid@@6B@           0045f058     dundas:uggrid.obj
 0002:0000305c       ??_C@_06GMFBGOAH@UGGrid?$AA@ 0045f05c     dundas:uggrid.obj
 0002:00003070       __xmm@ffffffffffffffffffffffffffffffff 0045f070     dundas:uggrid.obj
 0002:00003084       ??_7CUGHScroll@@6B@        0045f084     dundas:ughscrol.obj
 0002:0000308c       ??_C@_09CBFIFDOD@SCROLLBAR?$AA@ 0045f08c     dundas:ughscrol.obj
 0002:0000309c       ??_7CUGSideHdg@@6B@        0045f09c     dundas:ugsidehd.obj
 0002:000030a0       ??_C@_09MFEJBCGH@UGSideHdg?$AA@ 0045f0a0     dundas:ugsidehd.obj
 0002:000030b0       ??_7CUGTopHdg@@6B@         0045f0b0     dundas:ugtophdg.obj
 0002:000030b4       ??_C@_08OOEDFKDG@UGTopHdg?$AA@ 0045f0b4     dundas:ugtophdg.obj
 0002:000030c4       ??_7CUGVScroll@@6B@        0045f0c4     dundas:ugvscrol.obj
 0002:000030d0       __xmm@3ff00000000000003ff0000000000000 0045f0d0     dundas:ugvscrol.obj
 0002:000030e4       ??_7CUGDataSource@@6B@     0045f0e4     dundas:ugdtasrc.obj
 0002:00003178       ??_7CUGCellType@@6B@       0045f178     dundas:ugceltyp.obj
 0002:000031bc       ??_C@_0BL@MCLHAPIO@Normal?5Cell?5Type?5?$CIdefault?$CJ?$AA@ 0045f1bc     dundas:ugceltyp.obj
 0002:000031ec       ??_7CUGEdit@@6B@           0045f1ec     dundas:ugedit.obj
 0002:000031f0       ??_C@_04LMIKJBBH@?5X?5X?$AA@ 0045f1f0     dundas:ugedit.obj
 0002:000031fc       ??_7CUGTab@@6B@            0045f1fc     dundas:ugtab.obj
 0002:00003200       ??_C@_05KCBMHDIG@UGTab?$AA@ 0045f200     dundas:ugtab.obj
 0002:0000320c       ??_7CUGGridInfo@@6B@       0045f20c     dundas:uggdinfo.obj
 0002:00003214       ??_7CUGHint@@6B@           0045f214     dundas:ughint.obj
 0002:00003218       ??_C@_05MPFIAJAP@Arial?$AA@ 0045f218     dundas:ughint.obj
 0002:00003220       ??_C@_01MMEEDKFM@X?$AA@    0045f220     dundas:ughint.obj
 0002:00003224       ??_C@_06CGJECNJM@UGHint?$AA@ 0045f224     dundas:ughint.obj
 0002:00003230       ??_7CUGDropListType@@6B@   0045f230     dundas:ugdltype.obj
 0002:00003274       ??_C@_0BC@DFLPABGN@Standard?5DropList?$AA@ 0045f274     dundas:ugdltype.obj
 0002:000032a0       ??_7CUGArrowType@@6B@      0045f2a0     dundas:ugctarrw.obj
 0002:000032e8       ??_7CUGMem@@6B@            0045f2e8     dundas:ugmemman.obj
 0002:0000337c       ??_7CUGLstBox@@6B@         0045f37c     dundas:uglstbox.obj
 0002:00003384       ??_7bad_alloc@std@@6B@     0045f384     LIBCMT:new.obj
 0002:0000338c       ??_C@_0P@GHFPNOJB@bad?5allocation?$AA@ 0045f38c     LIBCMT:new.obj
 0002:00003438       ??_7type_info@@6B@         0045f438     LIBCMT:typinfo.obj
 0002:0000343c       __FPinit                   0045f43c     LIBCMT:fpinit.obj
 0002:000034dc       ??_7exception@std@@6B@     0045f4dc     LIBCMT:stdexcpt.obj
 0002:000034e4       ??_C@_0BC@EOODALEL@Unknown?5exception?$AA@ 0045f4e4     LIBCMT:stdexcpt.obj
 0002:00003518       ??_C@_1BI@BGOHAHKC@?$AAm?$AAs?$AAc?$AAo?$AAr?$AAe?$AAe?$AA?4?$AAd?$AAl?$AAl?$AA?$AA@ 0045f518     LIBCMT:crt0dat.obj
 0002:00003530       ??_C@_0P@MIGLKIOC@CorExitProcess?$AA@ 0045f530     LIBCMT:crt0dat.obj
 0002:00003540       ??_C@_1BK@MGMFAEKH@?$AAk?$AAe?$AAr?$AAn?$AAe?$AAl?$AA3?$AA2?$AA?4?$AAd?$AAl?$AAl?$AA?$AA@ 0045f540     LIBCMT:winapisupp.obj
 0002:0000355c       ??_C@_08KNHFBNJ@FlsAlloc?$AA@ 0045f55c     LIBCMT:winapisupp.obj
 0002:00003568       ??_C@_07PEJMOBNF@FlsFree?$AA@ 0045f568     LIBCMT:winapisupp.obj
 0002:00003570       ??_C@_0M@GDNOONDI@FlsGetValue?$AA@ 0045f570     LIBCMT:winapisupp.obj
 0002:0000357c       ??_C@_0M@JCPCPOEF@FlsSetValue?$AA@ 0045f57c     LIBCMT:winapisupp.obj
 0002:00003588       ??_C@_0BM@HCFOFFN@InitializeCriticalSectionEx?$AA@ 0045f588     LIBCMT:winapisupp.obj
 0002:000035a4       ??_C@_0P@DLHPPCNH@CreateEventExW?$AA@ 0045f5a4     LIBCMT:winapisupp.obj
 0002:000035b4       ??_C@_0BD@KIEEOEEH@CreateSemaphoreExW?$AA@ 0045f5b4     LIBCMT:winapisupp.obj
 0002:000035c8       ??_C@_0BI@BKLFFAPO@SetThreadStackGuarantee?$AA@ 0045f5c8     LIBCMT:winapisupp.obj
 0002:000035e0       ??_C@_0BG@OGFAJCKC@CreateThreadpoolTimer?$AA@ 0045f5e0     LIBCMT:winapisupp.obj
 0002:000035f8       ??_C@_0BD@LPLEMMDI@SetThreadpoolTimer?$AA@ 0045f5f8     LIBCMT:winapisupp.obj
 0002:0000360c       ??_C@_0CA@FMNJENH@WaitForThreadpoolTimerCallbacks?$AA@ 0045f60c     LIBCMT:winapisupp.obj
 0002:0000362c       ??_C@_0BF@DCFCCNOC@CloseThreadpoolTimer?$AA@ 0045f62c     LIBCMT:winapisupp.obj
 0002:00003644       ??_C@_0BF@FLABGKKM@CreateThreadpoolWait?$AA@ 0045f644     LIBCMT:winapisupp.obj
 0002:0000365c       ??_C@_0BC@MGCOHNA@SetThreadpoolWait?$AA@ 0045f65c     LIBCMT:winapisupp.obj
 0002:00003670       ??_C@_0BE@OCIOMIMP@CloseThreadpoolWait?$AA@ 0045f670     LIBCMT:winapisupp.obj
 0002:00003684       ??_C@_0BJ@LKGHFHBO@FlushProcessWriteBuffers?$AA@ 0045f684     LIBCMT:winapisupp.obj
 0002:000036a0       ??_C@_0BP@KALKKPMO@FreeLibraryWhenCallbackReturns?$AA@ 0045f6a0     LIBCMT:winapisupp.obj
 0002:000036c0       ??_C@_0BK@DFNBACLA@GetCurrentProcessorNumber?$AA@ 0045f6c0     LIBCMT:winapisupp.obj
 0002:000036dc       ??_C@_0BP@KHGALBC@GetLogicalProcessorInformation?$AA@ 0045f6dc     LIBCMT:winapisupp.obj
 0002:000036fc       ??_C@_0BE@FKKLLFLM@CreateSymbolicLinkW?$AA@ 0045f6fc     LIBCMT:winapisupp.obj
 0002:00003710       ??_C@_0BJ@OHNKDLIJ@SetDefaultDllDirectories?$AA@ 0045f710     LIBCMT:winapisupp.obj
 0002:0000372c       ??_C@_0BE@LJANKFHF@EnumSystemLocalesEx?$AA@ 0045f72c     LIBCMT:winapisupp.obj
 0002:00003740       ??_C@_0BA@IHGNDAEB@CompareStringEx?$AA@ 0045f740     LIBCMT:winapisupp.obj
 0002:00003750       ??_C@_0BA@EPCJIIPD@GetDateFormatEx?$AA@ 0045f750     LIBCMT:winapisupp.obj
 0002:00003760       ??_C@_0BA@ONOKGCMP@GetLocaleInfoEx?$AA@ 0045f760     LIBCMT:winapisupp.obj
 0002:00003770       ??_C@_0BA@CIJJKCJJ@GetTimeFormatEx?$AA@ 0045f770     LIBCMT:winapisupp.obj
 0002:00003780       ??_C@_0BJ@PBCCBIPI@GetUserDefaultLocaleName?$AA@ 0045f780     LIBCMT:winapisupp.obj
 0002:0000379c       ??_C@_0BC@CELBKLLA@IsValidLocaleName?$AA@ 0045f79c     LIBCMT:winapisupp.obj
 0002:000037b0       ??_C@_0O@KKBNKAPF@LCMapStringEx?$AA@ 0045f7b0     LIBCMT:winapisupp.obj
 0002:000037c0       ??_C@_0BE@JOGNEJCI@GetCurrentPackageId?$AA@ 0045f7c0     LIBCMT:winapisupp.obj
 0002:000037d4       ??_C@_0P@CDHHOHKP@GetTickCount64?$AA@ 0045f7d4     LIBCMT:winapisupp.obj
 0002:000037e4       ??_C@_0BO@KPCLFDJJ@GetFileInformationByHandleExW?$AA@ 0045f7e4     LIBCMT:winapisupp.obj
 0002:00003804       ??_C@_0BM@MHIDLABK@SetFileInformationByHandleW?$AA@ 0045f804     LIBCMT:winapisupp.obj
 0002:00003820       ??_C@_03KHJOGHMM@exp?$AA@  0045f820     LIBCMT:fpexcept.obj
 0002:00003824       ??_C@_03JGHBODFD@pow?$AA@  0045f824     LIBCMT:fpexcept.obj
 0002:00003828       ??_C@_03MGHMBJCF@log?$AA@  0045f828     LIBCMT:fpexcept.obj
 0002:0000382c       ??_C@_05HGHHAHAP@log10?$AA@ 0045f82c     LIBCMT:fpexcept.obj
 0002:00003834       ??_C@_04COOMCNPB@sinh?$AA@ 0045f834     LIBCMT:fpexcept.obj
 0002:0000383c       ??_C@_04HPJJNFIM@cosh?$AA@ 0045f83c     LIBCMT:fpexcept.obj
 0002:00003844       ??_C@_04FJHINJAO@tanh?$AA@ 0045f844     LIBCMT:fpexcept.obj
 0002:0000384c       ??_C@_04FIHNOPOL@asin?$AA@ 0045f84c     LIBCMT:fpexcept.obj
 0002:00003854       ??_C@_04PDIFKINK@acos?$AA@ 0045f854     LIBCMT:fpexcept.obj
 0002:0000385c       ??_C@_04MLLJIGOK@atan?$AA@ 0045f85c     LIBCMT:fpexcept.obj
 0002:00003864       ??_C@_05KNGEOGJB@atan2?$AA@ 0045f864     LIBCMT:fpexcept.obj
 0002:0000386c       ??_C@_04EIAKFFMI@sqrt?$AA@ 0045f86c     LIBCMT:fpexcept.obj
 0002:00003874       ??_C@_03BLEJJJBH@sin?$AA@  0045f874     LIBCMT:fpexcept.obj
 0002:00003878       ??_C@_03LALBNOCG@cos?$AA@  0045f878     LIBCMT:fpexcept.obj
 0002:0000387c       ??_C@_03IIINPABG@tan?$AA@  0045f87c     LIBCMT:fpexcept.obj
 0002:00003880       ??_C@_04GFPJNGEK@ceil?$AA@ 0045f880     LIBCMT:fpexcept.obj
 0002:00003888       ??_C@_05PBJFFIGL@floor?$AA@ 0045f888     LIBCMT:fpexcept.obj
 0002:00003890       ??_C@_04ODHECPBC@fabs?$AA@ 0045f890     LIBCMT:fpexcept.obj
 0002:00003898       ??_C@_04EHEDPDJG@modf?$AA@ 0045f898     LIBCMT:fpexcept.obj
 0002:000038a0       ??_C@_05CEJMAHNP@ldexp?$AA@ 0045f8a0     LIBCMT:fpexcept.obj
 0002:000038a8       ??_C@_05KBKMEMPO@_cabs?$AA@ 0045f8a8     LIBCMT:fpexcept.obj
 0002:000038b0       ??_C@_06MEIMCGCF@_hypot?$AA@ 0045f8b0     LIBCMT:fpexcept.obj
 0002:000038b8       ??_C@_04KEPJIHGP@fmod?$AA@ 0045f8b8     LIBCMT:fpexcept.obj
 0002:000038c0       ??_C@_05GKKHEGJL@frexp?$AA@ 0045f8c0     LIBCMT:fpexcept.obj
 0002:000038c8       ??_C@_03MJLDFKDL@_y0?$AA@  0045f8c8     LIBCMT:fpexcept.obj
 0002:000038cc       ??_C@_03NAKIGLHK@_y1?$AA@  0045f8cc     LIBCMT:fpexcept.obj
 0002:000038d0       ??_C@_03ONILCKOB@_yn?$AA@  0045f8d0     LIBCMT:fpexcept.obj
 0002:000038d4       ??_C@_05JGDBENOH@_logb?$AA@ 0045f8d4     LIBCMT:fpexcept.obj
 0002:000038dc       ??_C@_0L@KDOEJCKC@_nextafter?$AA@ 0045f8dc     LIBCMT:fpexcept.obj
 0002:000038e8       ??_C@_05KLBDPFGC@e?$CL000?$AA@ 0045f8e8     LIBCMT:cvt.obj
 0002:000038f0       __indefinite               0045f8f0     LIBCMT:87disp.obj
 0002:000038fa       __piby2                    0045f8fa     LIBCMT:87disp.obj
 0002:00003928       __DEFAULT_CW_in_mem        0045f928     LIBCMT:common.obj
 0002:0000392a       __pi_by_2_to_61            0045f92a     LIBCMT:common.obj
 0002:00003968       __XcptActTab               0045f968     LIBCMT:winxfltr.obj
 0002:000039f8       __XcptActTabCount          0045f9f8     LIBCMT:winxfltr.obj
 0002:000039fc       __XcptActTabSize           0045f9fc     LIBCMT:winxfltr.obj
 0002:00003a00       __First_FPE_Indx           0045fa00     LIBCMT:winxfltr.obj
 0002:00003a04       __Num_FPE                  0045fa04     LIBCMT:winxfltr.obj
 0002:00003ac0       ??_C@_1FK@PGACCAFB@?$AAR?$AA6?$AA0?$AA0?$AA2?$AA?$AN?$AA?6?$AA?9?$AA?5?$AAf?$AAl?$AAo?$AAa?$AAt?$AAi?$AAn?$AAg?$AA?5?$AAp?$AAo?$AAi?$AAn?$AAt?$AA?5?$AAs?$AAu?$AAp?$AAp?$AAo?$AAr?$AAt?$AA?5@ 0045fac0     LIBCMT:crt0msg.obj
 0002:00003b20       ??_C@_1FE@LLNEDJMD@?$AAR?$AA6?$AA0?$AA0?$AA8?$AA?$AN?$AA?6?$AA?9?$AA?5?$AAn?$AAo?$AAt?$AA?5?$AAe?$AAn?$AAo?$AAu?$AAg?$AAh?$AA?5?$AAs?$AAp?$AAa?$AAc?$AAe?$AA?5?$AAf?$AAo?$AAr?$AA?5?$AAa?$AAr@ 0045fb20     LIBCMT:crt0msg.obj
 0002:00003b78       ??_C@_1FI@HONFMGBI@?$AAR?$AA6?$AA0?$AA0?$AA9?$AA?$AN?$AA?6?$AA?9?$AA?5?$AAn?$AAo?$AAt?$AA?5?$AAe?$AAn?$AAo?$AAu?$AAg?$AAh?$AA?5?$AAs?$AAp?$AAa?$AAc?$AAe?$AA?5?$AAf?$AAo?$AAr?$AA?5?$AAe?$AAn@ 0045fb78     LIBCMT:crt0msg.obj
 0002:00003bd0       ??_C@_1EG@BEHAGFJD@?$AAR?$AA6?$AA0?$AA1?$AA0?$AA?$AN?$AA?6?$AA?9?$AA?5?$AAa?$AAb?$AAo?$AAr?$AAt?$AA?$CI?$AA?$CJ?$AA?5?$AAh?$AAa?$AAs?$AA?5?$AAb?$AAe?$AAe?$AAn?$AA?5?$AAc?$AAa?$AAl?$AAl?$AAe?$AAd@ 0045fbd0     LIBCMT:crt0msg.obj
 0002:00003c18       ??_C@_1FI@LOGNIKDM@?$AAR?$AA6?$AA0?$AA1?$AA6?$AA?$AN?$AA?6?$AA?9?$AA?5?$AAn?$AAo?$AAt?$AA?5?$AAe?$AAn?$AAo?$AAu?$AAg?$AAh?$AA?5?$AAs?$AAp?$AAa?$AAc?$AAe?$AA?5?$AAf?$AAo?$AAr?$AA?5?$AAt?$AAh@ 0045fc18     LIBCMT:crt0msg.obj
 0002:00003c70       ??_C@_1FK@BEOGODMC@?$AAR?$AA6?$AA0?$AA1?$AA7?$AA?$AN?$AA?6?$AA?9?$AA?5?$AAu?$AAn?$AAe?$AAx?$AAp?$AAe?$AAc?$AAt?$AAe?$AAd?$AA?5?$AAm?$AAu?$AAl?$AAt?$AAi?$AAt?$AAh?$AAr?$AAe?$AAa?$AAd?$AA?5@ 0045fc70     LIBCMT:crt0msg.obj
 0002:00003cd0       ??_C@_1EC@JIBHAOPH@?$AAR?$AA6?$AA0?$AA1?$AA8?$AA?$AN?$AA?6?$AA?9?$AA?5?$AAu?$AAn?$AAe?$AAx?$AAp?$AAe?$AAc?$AAt?$AAe?$AAd?$AA?5?$AAh?$AAe?$AAa?$AAp?$AA?5?$AAe?$AAr?$AAr?$AAo?$AAr?$AA?$AN?$AA?6@ 0045fcd0     LIBCMT:crt0msg.obj
 0002:00003d18       ??_C@_1FC@ECHBIFBC@?$AAR?$AA6?$AA0?$AA1?$AA9?$AA?$AN?$AA?6?$AA?9?$AA?5?$AAu?$AAn?$AAa?$AAb?$AAl?$AAe?$AA?5?$AAt?$AAo?$AA?5?$AAo?$AAp?$AAe?$AAn?$AA?5?$AAc?$AAo?$AAn?$AAs?$AAo?$AAl?$AAe?$AA?5@ 0045fd18     LIBCMT:crt0msg.obj
 0002:00003d70       ??_C@_1GK@FHCKBEFA@?$AAR?$AA6?$AA0?$AA2?$AA4?$AA?$AN?$AA?6?$AA?9?$AA?5?$AAn?$AAo?$AAt?$AA?5?$AAe?$AAn?$AAo?$AAu?$AAg?$AAh?$AA?5?$AAs?$AAp?$AAa?$AAc?$AAe?$AA?5?$AAf?$AAo?$AAr?$AA?5?$AA_?$AAo@ 0045fd70     LIBCMT:crt0msg.obj
 0002:00003de0       ??_C@_1EM@MAADIHMB@?$AAR?$AA6?$AA0?$AA2?$AA5?$AA?$AN?$AA?6?$AA?9?$AA?5?$AAp?$AAu?$AAr?$AAe?$AA?5?$AAv?$AAi?$AAr?$AAt?$AAu?$AAa?$AAl?$AA?5?$AAf?$AAu?$AAn?$AAc?$AAt?$AAi?$AAo?$AAn?$AA?5?$AAc@ 0045fde0     LIBCMT:crt0msg.obj
 0002:00003e30       ??_C@_1GK@MCAAGJMO@?$AAR?$AA6?$AA0?$AA2?$AA6?$AA?$AN?$AA?6?$AA?9?$AA?5?$AAn?$AAo?$AAt?$AA?5?$AAe?$AAn?$AAo?$AAu?$AAg?$AAh?$AA?5?$AAs?$AAp?$AAa?$AAc?$AAe?$AA?5?$AAf?$AAo?$AAr?$AA?5?$AAs?$AAt@ 0045fe30     LIBCMT:crt0msg.obj
 0002:00003ea0       ??_C@_1GK@MFGOKLAG@?$AAR?$AA6?$AA0?$AA2?$AA7?$AA?$AN?$AA?6?$AA?9?$AA?5?$AAn?$AAo?$AAt?$AA?5?$AAe?$AAn?$AAo?$AAu?$AAg?$AAh?$AA?5?$AAs?$AAp?$AAa?$AAc?$AAe?$AA?5?$AAf?$AAo?$AAr?$AA?5?$AAl?$AAo@ 0045fea0     LIBCMT:crt0msg.obj
 0002:00003f10       ??_C@_1EK@HHFLMAOL@?$AAR?$AA6?$AA0?$AA2?$AA8?$AA?$AN?$AA?6?$AA?9?$AA?5?$AAu?$AAn?$AAa?$AAb?$AAl?$AAe?$AA?5?$AAt?$AAo?$AA?5?$AAi?$AAn?$AAi?$AAt?$AAi?$AAa?$AAl?$AAi?$AAz?$AAe?$AA?5?$AAh?$AAe@ 0045ff10     LIBCMT:crt0msg.obj
 0002:00003f5c       ??_C@_1DO@BMFCDCD@?$AAR?$AA6?$AA0?$AA3?$AA0?$AA?$AN?$AA?6?$AA?9?$AA?5?$AAC?$AAR?$AAT?$AA?5?$AAn?$AAo?$AAt?$AA?5?$AAi?$AAn?$AAi?$AAt?$AAi?$AAa?$AAl?$AAi?$AAz?$AAe?$AAd?$AA?$AN?$AA?6?$AA?$AA@ 0045ff5c     LIBCMT:crt0msg.obj
 0002:00003fa0       ??_C@_1MG@ENCOOIDF@?$AAR?$AA6?$AA0?$AA3?$AA1?$AA?$AN?$AA?6?$AA?9?$AA?5?$AAA?$AAt?$AAt?$AAe?$AAm?$AAp?$AAt?$AA?5?$AAt?$AAo?$AA?5?$AAi?$AAn?$AAi?$AAt?$AAi?$AAa?$AAl?$AAi?$AAz?$AAe?$AA?5?$AAt@ 0045ffa0     LIBCMT:crt0msg.obj
 0002:00004068       ??_C@_1GG@GOPILAJP@?$AAR?$AA6?$AA0?$AA3?$AA2?$AA?$AN?$AA?6?$AA?9?$AA?5?$AAn?$AAo?$AAt?$AA?5?$AAe?$AAn?$AAo?$AAu?$AAg?$AAh?$AA?5?$AAs?$AAp?$AAa?$AAc?$AAe?$AA?5?$AAf?$AAo?$AAr?$AA?5?$AAl?$AAo@ 00460068     LIBCMT:crt0msg.obj
 0002:000040d0       ??_C@_1BOO@KGEDBGAJ@?$AAR?$AA6?$AA0?$AA3?$AA3?$AA?$AN?$AA?6?$AA?9?$AA?5?$AAA?$AAt?$AAt?$AAe?$AAm?$AAp?$AAt?$AA?5?$AAt?$AAo?$AA?5?$AAu?$AAs?$AAe?$AA?5?$AAM?$AAS?$AAI?$AAL?$AA?5?$AAc?$AAo?$AAd@ 004600d0     LIBCMT:crt0msg.obj
 0002:000042c0       ??_C@_1GG@MKFPEKFO@?$AAR?$AA6?$AA0?$AA3?$AA4?$AA?$AN?$AA?6?$AA?9?$AA?5?$AAi?$AAn?$AAc?$AAo?$AAn?$AAs?$AAi?$AAs?$AAt?$AAe?$AAn?$AAt?$AA?5?$AAo?$AAn?$AAe?$AAx?$AAi?$AAt?$AA?5?$AAb?$AAe?$AAg@ 004602c0     LIBCMT:crt0msg.obj
 0002:00004328       ??_C@_1BO@BFCDCGC@?$AAD?$AAO?$AAM?$AAA?$AAI?$AAN?$AA?5?$AAe?$AAr?$AAr?$AAo?$AAr?$AA?$AN?$AA?6?$AA?$AA@ 00460328     LIBCMT:crt0msg.obj
 0002:00004348       ??_C@_1BK@KMOMNAAI@?$AAS?$AAI?$AAN?$AAG?$AA?5?$AAe?$AAr?$AAr?$AAo?$AAr?$AA?$AN?$AA?6?$AA?$AA@ 00460348     LIBCMT:crt0msg.obj
 0002:00004364       ??_C@_1BM@JBBEPPHI@?$AAT?$AAL?$AAO?$AAS?$AAS?$AA?5?$AAe?$AAr?$AAr?$AAo?$AAr?$AA?$AN?$AA?6?$AA?$AA@ 00460364     LIBCMT:crt0msg.obj
 0002:00004380       ??_C@_15JNBOKNOG@?$AA?$AN?$AA?6?$AA?$AA@ 00460380     LIBCMT:crt0msg.obj
 0002:00004388       ??_C@_1BO@BKOMIGKJ@?$AAr?$AAu?$AAn?$AAt?$AAi?$AAm?$AAe?$AA?5?$AAe?$AAr?$AAr?$AAo?$AAr?$AA?5?$AA?$AA@ 00460388     LIBCMT:crt0msg.obj
 0002:000043a8       ??_C@_1DE@JNGNBFGO@?$AAR?$AAu?$AAn?$AAt?$AAi?$AAm?$AAe?$AA?5?$AAE?$AAr?$AAr?$AAo?$AAr?$AA?$CB?$AA?6?$AA?6?$AAP?$AAr?$AAo?$AAg?$AAr?$AAa?$AAm?$AA?3?$AA?5?$AA?$AA@ 004603a8     LIBCMT:crt0msg.obj
 0002:000043dc       ??_C@_1CO@EAEJAADC@?$AA?$DM?$AAp?$AAr?$AAo?$AAg?$AAr?$AAa?$AAm?$AA?5?$AAn?$AAa?$AAm?$AAe?$AA?5?$AAu?$AAn?$AAk?$AAn?$AAo?$AAw?$AAn?$AA?$DO?$AA?$AA@ 004603dc     LIBCMT:crt0msg.obj
 0002:0000440c       ??_C@_17LGKOMLJ@?$AA?4?$AA?4?$AA?4?$AA?$AA@ 0046040c     LIBCMT:crt0msg.obj
 0002:00004414       ??_C@_15IABLJNFO@?$AA?6?$AA?6?$AA?$AA@ 00460414     LIBCMT:crt0msg.obj
 0002:00004420       ??_C@_1EK@MBDPDCGA@?$AAM?$AAi?$AAc?$AAr?$AAo?$AAs?$AAo?$AAf?$AAt?$AA?5?$AAV?$AAi?$AAs?$AAu?$AAa?$AAl?$AA?5?$AAC?$AA?$CL?$AA?$CL?$AA?5?$AAR?$AAu?$AAn?$AAt?$AAi?$AAm?$AAe?$AA?5?$AAL?$AAi?$AAb@ 00460420     LIBCMT:crt0msg.obj
 0002:0000447c       ??_C@_1M@HPNHIDJI@?$AAj?$AAa?$AA?9?$AAJ?$AAP?$AA?$AA@ 0046047c     LIBCMT:mbctype.obj
 0002:00004488       ??_C@_1M@BIBDDEMK@?$AAz?$AAh?$AA?9?$AAC?$AAN?$AA?$AA@ 00460488     LIBCMT:mbctype.obj
 0002:00004494       ??_C@_1M@JLOOOEGK@?$AAk?$AAo?$AA?9?$AAK?$AAR?$AA?$AA@ 00460494     LIBCMT:mbctype.obj
 0002:000044a0       ??_C@_1M@CLNBBOPM@?$AAz?$AAh?$AA?9?$AAT?$AAW?$AA?$AA@ 004604a0     LIBCMT:mbctype.obj
 0002:000044ac       ??_C@_03IOFIKPDN@Thu?$AA@  004604ac     LIBCMT:nlsdata.obj
 0002:000044b0       ??_C@_03JIHJHPIE@Jan?$AA@  004604b0     LIBCMT:nlsdata.obj
 0002:000044b4       ??_C@_03HJBDCHOM@Feb?$AA@  004604b4     LIBCMT:nlsdata.obj
 0002:000044b8       ??_C@_03ODNJBKGA@Mar?$AA@  004604b8     LIBCMT:nlsdata.obj
 0002:000044bc       ??_C@_03LEOLGMJP@Apr?$AA@  004604bc     LIBCMT:nlsdata.obj
 0002:000044c0       ??_C@_03CNMDKL@May?$AA@    004604c0     LIBCMT:nlsdata.obj
 0002:000044c4       ??_C@_03IDFGHECI@Jun?$AA@  004604c4     LIBCMT:nlsdata.obj
 0002:000044c8       ??_C@_03LBGABGKK@Jul?$AA@  004604c8     LIBCMT:nlsdata.obj
 0002:000044cc       ??_C@_03IFJFEIGA@Aug?$AA@  004604cc     LIBCMT:nlsdata.obj
 0002:000044d0       ??_C@_03GGCAPAJC@Sep?$AA@  004604d0     LIBCMT:nlsdata.obj
 0002:000044d4       ??_C@_03BMAOKBAD@Oct?$AA@  004604d4     LIBCMT:nlsdata.obj
 0002:000044d8       ??_C@_03JPJOFNIA@Nov?$AA@  004604d8     LIBCMT:nlsdata.obj
 0002:000044dc       ??_C@_03MKABNOCG@Dec?$AA@  004604dc     LIBCMT:nlsdata.obj
 0002:000044e0       ??_C@_07CGJPFGJA@January?$AA@ 004604e0     LIBCMT:nlsdata.obj
 0002:000044e8       ??_C@_08GNJGEPFN@February?$AA@ 004604e8     LIBCMT:nlsdata.obj
 0002:000044f4       ??_C@_05HPCKOFNC@March?$AA@ 004604f4     LIBCMT:nlsdata.obj
 0002:000044fc       ??_C@_05DMJDNLEJ@April?$AA@ 004604fc     LIBCMT:nlsdata.obj
 0002:00004504       ??_C@_04CNLMGBGM@June?$AA@ 00460504     LIBCMT:nlsdata.obj
 0002:0000450c       ??_C@_04MIEPOIFP@July?$AA@ 0046050c     LIBCMT:nlsdata.obj
 0002:00004514       ??_C@_06LBBHFDDG@August?$AA@ 00460514     LIBCMT:nlsdata.obj
 0002:0000451c       ??_C@_09BHHEALKD@September?$AA@ 0046051c     LIBCMT:nlsdata.obj
 0002:00004528       ??_C@_07JJNFCEND@October?$AA@ 00460528     LIBCMT:nlsdata.obj
 0002:00004530       ??_C@_08HCHEGEOA@November?$AA@ 00460530     LIBCMT:nlsdata.obj
 0002:0000453c       ??_C@_08EDHMEBNP@December?$AA@ 0046053c     LIBCMT:nlsdata.obj
 0002:00004548       ??_C@_02DEDBPAFC@AM?$AA@   00460548     LIBCMT:nlsdata.obj
 0002:0000454c       ??_C@_02CJNFDJBF@PM?$AA@   0046054c     LIBCMT:nlsdata.obj
 0002:00004550       ??_C@_08BPBNCDIB@MM?1dd?1yy?$AA@ 00460550     LIBCMT:nlsdata.obj
 0002:0000455c       ??_C@_0BE@CKGJFCPC@dddd?0?5MMMM?5dd?0?5yyyy?$AA@ 0046055c     LIBCMT:nlsdata.obj
 0002:00004570       ??_C@_08JCCMCCIL@HH?3mm?3ss?$AA@ 00460570     LIBCMT:nlsdata.obj
 0002:0000457c       ??_C@_17MBGCMIPB@?$AAS?$AAu?$AAn?$AA?$AA@ 0046057c     LIBCMT:nlsdata.obj
 0002:00004584       ??_C@_17KBOMKBF@?$AAM?$AAo?$AAn?$AA?$AA@ 00460584     LIBCMT:nlsdata.obj
 0002:0000458c       ??_C@_17BMKGEGOJ@?$AAT?$AAu?$AAe?$AA?$AA@ 0046058c     LIBCMT:nlsdata.obj
 0002:00004594       ??_C@_17CJEDCEPE@?$AAW?$AAe?$AAd?$AA?$AA@ 00460594     LIBCMT:nlsdata.obj
 0002:0000459c       ??_C@_17PDPHAADD@?$AAT?$AAh?$AAu?$AA?$AA@ 0046059c     LIBCMT:nlsdata.obj
 0002:000045a4       ??_C@_17HFOLPPLP@?$AAF?$AAr?$AAi?$AA?$AA@ 004605a4     LIBCMT:nlsdata.obj
 0002:000045ac       ??_C@_17GGIBDPIH@?$AAS?$AAa?$AAt?$AA?$AA@ 004605ac     LIBCMT:nlsdata.obj
 0002:000045b4       ??_C@_1O@IHNHDHPB@?$AAS?$AAu?$AAn?$AAd?$AAa?$AAy?$AA?$AA@ 004605b4     LIBCMT:nlsdata.obj
 0002:000045c4       ??_C@_1O@MMNBFLIA@?$AAM?$AAo?$AAn?$AAd?$AAa?$AAy?$AA?$AA@ 004605c4     LIBCMT:nlsdata.obj
 0002:000045d4       ??_C@_1BA@ENFBFFEK@?$AAT?$AAu?$AAe?$AAs?$AAd?$AAa?$AAy?$AA?$AA@ 004605d4     LIBCMT:nlsdata.obj
 0002:000045e4       ??_C@_1BE@EBOGMDOH@?$AAW?$AAe?$AAd?$AAn?$AAe?$AAs?$AAd?$AAa?$AAy?$AA?$AA@ 004605e4     LIBCMT:nlsdata.obj
 0002:000045f8       ??_C@_1BC@HHMNLIHE@?$AAT?$AAh?$AAu?$AAr?$AAs?$AAd?$AAa?$AAy?$AA?$AA@ 004605f8     LIBCMT:nlsdata.obj
 0002:0000460c       ??_C@_1O@PDICJHAG@?$AAF?$AAr?$AAi?$AAd?$AAa?$AAy?$AA?$AA@ 0046060c     LIBCMT:nlsdata.obj
 0002:0000461c       ??_C@_1BC@ENMNNPAJ@?$AAS?$AAa?$AAt?$AAu?$AAr?$AAd?$AAa?$AAy?$AA?$AA@ 0046061c     LIBCMT:nlsdata.obj
 0002:00004630       ??_C@_17DKNBKCHM@?$AAJ?$AAa?$AAn?$AA?$AA@ 00460630     LIBCMT:nlsdata.obj
 0002:00004638       ??_C@_17LMDJEKJN@?$AAF?$AAe?$AAb?$AA?$AA@ 00460638     LIBCMT:nlsdata.obj
 0002:00004640       ??_C@_17CKNLEDEC@?$AAM?$AAa?$AAr?$AA?$AA@ 00460640     LIBCMT:nlsdata.obj
 0002:00004648       ??_C@_17LFPOIHDD@?$AAA?$AAp?$AAr?$AA?$AA@ 00460648     LIBCMT:nlsdata.obj
 0002:00004650       ??_C@_17PNNKMEED@?$AAM?$AAa?$AAy?$AA?$AA@ 00460650     LIBCMT:nlsdata.obj
 0002:00004658       ??_C@_17KCJGOCPB@?$AAJ?$AAu?$AAn?$AA?$AA@ 00460658     LIBCMT:nlsdata.obj
 0002:00004660       ??_C@_17IJPCKHK@?$AAJ?$AAu?$AAl?$AA?$AA@ 00460660     LIBCMT:nlsdata.obj
 0002:00004668       ??_C@_17ICPELBCN@?$AAA?$AAu?$AAg?$AA?$AA@ 00460668     LIBCMT:nlsdata.obj
 0002:00004670       ??_C@_17HCHCOKMG@?$AAS?$AAe?$AAp?$AA?$AA@ 00460670     LIBCMT:nlsdata.obj
 0002:00004678       ??_C@_17FNLKOI@?$AAO?$AAc?$AAt?$AA?$AA@ 00460678     LIBCMT:nlsdata.obj
 0002:00004680       ??_C@_17BBDMLCIG@?$AAN?$AAo?$AAv?$AA?$AA@ 00460680     LIBCMT:nlsdata.obj
 0002:00004688       ??_C@_17EGKACKIF@?$AAD?$AAe?$AAc?$AA?$AA@ 00460688     LIBCMT:nlsdata.obj
 0002:00004690       ??_C@_1BA@EFMEIEBA@?$AAJ?$AAa?$AAn?$AAu?$AAa?$AAr?$AAy?$AA?$AA@ 00460690     LIBCMT:nlsdata.obj
 0002:000046a0       ??_C@_1BC@JGDDFFAM@?$AAF?$AAe?$AAb?$AAr?$AAu?$AAa?$AAr?$AAy?$AA?$AA@ 004606a0     LIBCMT:nlsdata.obj
 0002:000046b4       ??_C@_1M@IKEENEDF@?$AAM?$AAa?$AAr?$AAc?$AAh?$AA?$AA@ 004606b4     LIBCMT:nlsdata.obj
 0002:000046c0       ??_C@_1M@GJNLMHFD@?$AAA?$AAp?$AAr?$AAi?$AAl?$AA?$AA@ 004606c0     LIBCMT:nlsdata.obj
 0002:000046cc       ??_C@_19EPFLPGAP@?$AAJ?$AAu?$AAn?$AAe?$AA?$AA@ 004606cc     LIBCMT:nlsdata.obj
 0002:000046d8       ??_C@_19BIFMLPCD@?$AAJ?$AAu?$AAl?$AAy?$AA?$AA@ 004606d8     LIBCMT:nlsdata.obj
 0002:000046e4       ??_C@_1O@PAHLKOAC@?$AAA?$AAu?$AAg?$AAu?$AAs?$AAt?$AA?$AA@ 004606e4     LIBCMT:nlsdata.obj
 0002:000046f4       ??_C@_1BE@DKAAMBJL@?$AAS?$AAe?$AAp?$AAt?$AAe?$AAm?$AAb?$AAe?$AAr?$AA?$AA@ 004606f4     LIBCMT:nlsdata.obj
 0002:00004708       ??_C@_1BA@EPANDLNG@?$AAO?$AAc?$AAt?$AAo?$AAb?$AAe?$AAr?$AA?$AA@ 00460708     LIBCMT:nlsdata.obj
 0002:00004718       ??_C@_1BC@BGLIFPF@?$AAN?$AAo?$AAv?$AAe?$AAm?$AAb?$AAe?$AAr?$AA?$AA@ 00460718     LIBCMT:nlsdata.obj
 0002:0000472c       ??_C@_1BC@FEMKIFH@?$AAD?$AAe?$AAc?$AAe?$AAm?$AAb?$AAe?$AAr?$AA?$AA@ 0046072c     LIBCMT:nlsdata.obj
 0002:00004740       ??_C@_15ODEHAHHF@?$AAA?$AAM?$AA?$AA@ 00460740     LIBCMT:nlsdata.obj
 0002:00004748       ??_C@_15CLMNNGEL@?$AAP?$AAM?$AA?$AA@ 00460748     LIBCMT:nlsdata.obj
 0002:00004750       ??_C@_1BC@IEBCMHCM@?$AAM?$AAM?$AA?1?$AAd?$AAd?$AA?1?$AAy?$AAy?$AA?$AA@ 00460750     LIBCMT:nlsdata.obj
 0002:00004764       ??_C@_1CI@KNAKOEBC@?$AAd?$AAd?$AAd?$AAd?$AA?0?$AA?5?$AAM?$AAM?$AAM?$AAM?$AA?5?$AAd?$AAd?$AA?0?$AA?5?$AAy?$AAy?$AAy?$AAy?$AA?$AA@ 00460764     LIBCMT:nlsdata.obj
 0002:0000478c       ??_C@_1BC@GDGBMEMK@?$AAH?$AAH?$AA?3?$AAm?$AAm?$AA?3?$AAs?$AAs?$AA?$AA@ 0046078c     LIBCMT:nlsdata.obj
 0002:000047a0       ??_C@_1M@BMHNFIME@?$AAe?$AAn?$AA?9?$AAU?$AAS?$AA?$AA@ 004607a0     LIBCMT:nlsdata.obj
 0002:00004898       ??_C@_05EOHGHCHD@exp10?$AA@ 00460898     LIBCMT:libm_error.obj
 0002:000051c0       __infinity                 004611c0     LIBCMT:87tran.obj
 0002:000051ca       __minfinity                004611ca     LIBCMT:87tran.obj
 0002:000051d4       __logemax                  004611d4     LIBCMT:87tran.obj
 0002:000051fa       __OP_EXPjmptab             004611fa     LIBCMT:87tran.obj
 0002:000053ac       ??_C@_08EHJDFFNH@__based?$CI?$AA@ 004613ac     LIBCMT:undname.obj
 0002:000053b8       ??_C@_07KOLFKCDI@__cdecl?$AA@ 004613b8     LIBCMT:undname.obj
 0002:000053c0       ??_C@_08GHMPAG@__pascal?$AA@ 004613c0     LIBCMT:undname.obj
 0002:000053cc       ??_C@_09IFJBGAPI@__stdcall?$AA@ 004613cc     LIBCMT:undname.obj
 0002:000053d8       ??_C@_0L@NPHFGOKO@__thiscall?$AA@ 004613d8     LIBCMT:undname.obj
 0002:000053e4       ??_C@_0L@JMKHOMEK@__fastcall?$AA@ 004613e4     LIBCMT:undname.obj
 0002:000053f0       ??_C@_0N@BCKKPABJ@__vectorcall?$AA@ 004613f0     LIBCMT:undname.obj
 0002:00005400       ??_C@_09HIJEGCPM@__clrcall?$AA@ 00461400     LIBCMT:undname.obj
 0002:0000540c       ??_C@_06GHPCKEAG@__eabi?$AA@ 0046140c     LIBCMT:undname.obj
 0002:00005414       ??_C@_07JOMMBBKO@__ptr64?$AA@ 00461414     LIBCMT:undname.obj
 0002:0000541c       ??_C@_0L@PILCLIHE@__restrict?$AA@ 0046141c     LIBCMT:undname.obj
 0002:00005428       ??_C@_0M@GFIIJFMG@__unaligned?$AA@ 00461428     LIBCMT:undname.obj
 0002:00005434       ??_C@_09DHDLOLLB@restrict?$CI?$AA@ 00461434     LIBCMT:undname.obj
 0002:00005440       ??_C@_04NIHEBCM@?5new?$AA@ 00461440     LIBCMT:undname.obj
 0002:00005448       ??_C@_07FPCDHGMM@?5delete?$AA@ 00461448     LIBCMT:undname.obj
 0002:00005450       ??_C@_02GPIOPFAK@?$DO?$DO?$AA@ 00461450     LIBCMT:undname.obj
 0002:00005454       ??_C@_02FODMEDOG@?$DM?$DM?$AA@ 00461454     LIBCMT:undname.obj
 0002:00005458       ??_C@_01DCLJPIOD@?$CB?$AA@ 00461458     LIBCMT:undname.obj
 0002:0000545c       ??_C@_02EGOFBIJA@?$DN?$DN?$AA@ 0046145c     LIBCMT:undname.obj
 0002:00005460       ??_C@_02FDNJECIE@?$CB?$DN?$AA@ 00461460     LIBCMT:undname.obj
 0002:00005464       ??_C@_02GPECMEKF@?$FL?$FN?$AA@ 00461464     LIBCMT:undname.obj
 0002:00005468       ??_C@_08LHJFAFGD@operator?$AA@ 00461468     LIBCMT:undname.obj
 0002:00005474       ??_C@_02HBOOOICD@?9?$DO?$AA@ 00461474     LIBCMT:undname.obj
 0002:00005478       ??_C@_01NBENCBCI@?$CK?$AA@ 00461478     LIBCMT:undname.obj
 0002:0000547c       ??_C@_02ECNGHCIF@?$CL?$CL?$AA@ 0046147c     LIBCMT:undname.obj
 0002:00005480       ??_C@_02BAABKJLB@?9?9?$AA@ 00461480     LIBCMT:undname.obj
 0002:00005484       ??_C@_01JOAMLHOP@?9?$AA@   00461484     LIBCMT:undname.obj
 0002:00005488       ??_C@_01MIFGBAGJ@?$CL?$AA@ 00461488     LIBCMT:undname.obj
 0002:0000548c       ??_C@_01HNPIGOCE@?$CG?$AA@ 0046148c     LIBCMT:undname.obj
 0002:00005490       ??_C@_03MNHNFDLC@?9?$DO?$CK?$AA@ 00461490     LIBCMT:undname.obj
 0002:00005494       ??_C@_01KMDKNFGN@?1?$AA@   00461494     LIBCMT:undname.obj
 0002:00005498       ??_C@_01FGNFDNOH@?$CF?$AA@ 00461498     LIBCMT:undname.obj
 0002:0000549c       ??_C@_01MNNFJEPP@?$DM?$AA@ 0046149c     LIBCMT:undname.obj
 0002:000054a0       ??_C@_02EHCHHCKH@?$DM?$DN?$AA@ 004614a0     LIBCMT:undname.obj
 0002:000054a4       ??_C@_01PPODPGHN@?$DO?$AA@ 004614a4     LIBCMT:undname.obj
 0002:000054a8       ??_C@_02EEKDKGMJ@?$DO?$DN?$AA@ 004614a8     LIBCMT:undname.obj
 0002:000054ac       ??_C@_02HCKGKOFO@?$CI?$CJ?$AA@ 004614ac     LIBCMT:undname.obj
 0002:000054b0       ??_C@_01PJKLJHI@?$HO?$AA@  004614b0     LIBCMT:undname.obj
 0002:000054b4       ??_C@_01JKBOJNNK@?$FO?$AA@ 004614b4     LIBCMT:undname.obj
 0002:000054b8       ??_C@_01DNKMNLPK@?$HM?$AA@ 004614b8     LIBCMT:undname.obj
 0002:000054bc       ??_C@_02PPKAJPJL@?$CG?$CG?$AA@ 004614bc     LIBCMT:undname.obj
 0002:000054c0       ??_C@_02NONPIBCD@?$HM?$HM?$AA@ 004614c0     LIBCMT:undname.obj
 0002:000054c4       ??_C@_02FPIMKNGF@?$CK?$DN?$AA@ 004614c4     LIBCMT:undname.obj
 0002:000054c8       ??_C@_02FOEOMHFC@?$CL?$DN?$AA@ 004614c8     LIBCMT:undname.obj
 0002:000054cc       ??_C@_02FKMDLLOA@?9?$DN?$AA@ 004614cc     LIBCMT:undname.obj
 0002:000054d0       ??_C@_02FJEHGPIO@?1?$DN?$AA@ 004614d0     LIBCMT:undname.obj
 0002:000054d4       ??_C@_02FENAOKFI@?$CF?$DN?$AA@ 004614d4     LIBCMT:undname.obj
 0002:000054d8       ??_C@_03IKFCCPFF@?$DO?$DO?$DN?$AA@ 004614d8     LIBCMT:undname.obj
 0002:000054dc       ??_C@_03CDNPDDLA@?$DM?$DM?$DN?$AA@ 004614dc     LIBCMT:undname.obj
 0002:000054e0       ??_C@_02FGJGFEAB@?$CG?$DN?$AA@ 004614e0     LIBCMT:undname.obj
 0002:000054e4       ??_C@_02DHLNPPGH@?$HM?$DN?$AA@ 004614e4     LIBCMT:undname.obj
 0002:000054e8       ??_C@_02MHEGNOJ@?$FO?$DN?$AA@ 004614e8     LIBCMT:undname.obj
 0002:000054ec       ??_C@_09IFPLHPGF@?$GAvftable?8?$AA@ 004614ec     LIBCMT:undname.obj
 0002:000054f8       ??_C@_09BLBHBJP@?$GAvbtable?8?$AA@ 004614f8     LIBCMT:undname.obj
 0002:00005504       ??_C@_07FEEIOKP@?$GAvcall?8?$AA@ 00461504     LIBCMT:undname.obj
 0002:0000550c       ??_C@_08LLFFHHDJ@?$GAtypeof?8?$AA@ 0046150c     LIBCMT:undname.obj
 0002:00005518       ??_C@_0BF@KDPPACIK@?$GAlocal?5static?5guard?8?$AA@ 00461518     LIBCMT:undname.obj
 0002:00005530       ??_C@_08OBABFOLI@?$GAstring?8?$AA@ 00461530     LIBCMT:undname.obj
 0002:0000553c       ??_C@_0BD@JDLKDPAB@?$GAvbase?5destructor?8?$AA@ 0046153c     LIBCMT:undname.obj
 0002:00005550       ??_C@_0BN@DEGPLNFK@?$GAvector?5deleting?5destructor?8?$AA@ 00461550     LIBCMT:undname.obj
 0002:00005570       ??_C@_0BO@OBMKPJIG@?$GAdefault?5constructor?5closure?8?$AA@ 00461570     LIBCMT:undname.obj
 0002:00005590       ??_C@_0BN@IMDCHIKM@?$GAscalar?5deleting?5destructor?8?$AA@ 00461590     LIBCMT:undname.obj
 0002:000055b0       ??_C@_0BO@PFGOCPJJ@?$GAvector?5constructor?5iterator?8?$AA@ 004615b0     LIBCMT:undname.obj
 0002:000055d0       ??_C@_0BN@LFPFMEDL@?$GAvector?5destructor?5iterator?8?$AA@ 004615d0     LIBCMT:undname.obj
 0002:000055f0       ??_C@_0CE@IKBNEHA@?$GAvector?5vbase?5constructor?5iterat@ 004615f0     LIBCMT:undname.obj
 0002:00005614       ??_C@_0BL@NILFHHPC@?$GAvirtual?5displacement?5map?8?$AA@ 00461614     LIBCMT:undname.obj
 0002:00005630       ??_C@_0CB@JONCMFFK@?$GAeh?5vector?5constructor?5iterator?8@ 00461630     LIBCMT:undname.obj
 0002:00005654       ??_C@_0CA@GCEOPDGL@?$GAeh?5vector?5destructor?5iterator?8?$AA@ 00461654     LIBCMT:undname.obj
 0002:00005674       ??_C@_0CH@OOJPLCPH@?$GAeh?5vector?5vbase?5constructor?5ite@ 00461674     LIBCMT:undname.obj
 0002:0000569c       ??_C@_0BL@LLKPOHJI@?$GAcopy?5constructor?5closure?8?$AA@ 0046169c     LIBCMT:undname.obj
 0002:000056b8       ??_C@_0BA@KBCDOMBN@?$GAudt?5returning?8?$AA@ 004616b8     LIBCMT:undname.obj
 0002:000056c8       ??_C@_03KLGMFNMG@?$GAEH?$AA@ 004616c8     LIBCMT:undname.obj
 0002:000056cc       ??_C@_05KHLCHHI@?$GARTTI?$AA@ 004616cc     LIBCMT:undname.obj
 0002:000056d4       ??_C@_0BA@KKLDJDLB@?$GAlocal?5vftable?8?$AA@ 004616d4     LIBCMT:undname.obj
 0002:000056e4       ??_C@_0CE@IIHCMGGL@?$GAlocal?5vftable?5constructor?5closu@ 004616e4     LIBCMT:undname.obj
 0002:00005708       ??_C@_06FHBGPFGH@?5new?$FL?$FN?$AA@ 00461708     LIBCMT:undname.obj
 0002:00005710       ??_C@_09LBNFPBCA@?5delete?$FL?$FN?$AA@ 00461710     LIBCMT:undname.obj
 0002:0000571c       ??_C@_0P@HJKNJFNN@?$GAomni?5callsig?8?$AA@ 0046171c     LIBCMT:undname.obj
 0002:0000572c       ??_C@_0BL@CNOONJFP@?$GAplacement?5delete?5closure?8?$AA@ 0046172c     LIBCMT:undname.obj
 0002:00005748       ??_C@_0BN@CKNJLHMB@?$GAplacement?5delete?$FL?$FN?5closure?8?$AA@ 00461748     LIBCMT:undname.obj
 0002:00005768       ??_C@_0CG@CFDHKGGD@?$GAmanaged?5vector?5constructor?5iter@ 00461768     LIBCMT:undname.obj
 0002:00005790       ??_C@_0CF@IMGKMJNO@?$GAmanaged?5vector?5destructor?5itera@ 00461790     LIBCMT:undname.obj
 0002:000057b8       ??_C@_0CG@HLDDJMAG@?$GAeh?5vector?5copy?5constructor?5iter@ 004617b8     LIBCMT:undname.obj
 0002:000057e0       ??_C@_0CM@FCBBDIGB@?$GAeh?5vector?5vbase?5copy?5constructo@ 004617e0     LIBCMT:undname.obj
 0002:0000580c       ??_C@_0BL@CLIPGLGB@?$GAdynamic?5initializer?5for?5?8?$AA@ 0046180c     LIBCMT:undname.obj
 0002:00005828       ??_C@_0CB@PDBIFEP@?$GAdynamic?5atexit?5destructor?5for?5?8@ 00461828     LIBCMT:undname.obj
 0002:0000584c       ??_C@_0CD@CGAJBKEJ@?$GAvector?5copy?5constructor?5iterato@ 0046184c     LIBCMT:undname.obj
 0002:00005870       ??_C@_0CJ@GJELGAMM@?$GAvector?5vbase?5copy?5constructor?5i@ 00461870     LIBCMT:undname.obj
 0002:0000589c       ??_C@_0CL@FGIJHLCE@?$GAmanaged?5vector?5copy?5constructor@ 0046189c     LIBCMT:undname.obj
 0002:000058c8       ??_C@_0BM@PMGGMLDN@?$GAlocal?5static?5thread?5guard?8?$AA@ 004618c8     LIBCMT:undname.obj
 0002:000058e4       ??_C@_0BC@DAFEJGAK@?5Type?5Descriptor?8?$AA@ 004618e4     LIBCMT:undname.obj
 0002:000058f8       ??_C@_0BM@LDKODKLH@?5Base?5Class?5Descriptor?5at?5?$CI?$AA@ 004618f8     LIBCMT:undname.obj
 0002:00005914       ??_C@_0BD@LGICGFMM@?5Base?5Class?5Array?8?$AA@ 00461914     LIBCMT:undname.obj
 0002:00005928       ??_C@_0BN@MECKDCOJ@?5Class?5Hierarchy?5Descriptor?8?$AA@ 00461928     LIBCMT:undname.obj
 0002:00005948       ??_C@_0BK@CFCOFLF@?5Complete?5Object?5Locator?8?$AA@ 00461948     LIBCMT:undname.obj
 0002:00005964       ??_C@_1BG@GOEBHBDC@?$AAU?$AAS?$AAE?$AAR?$AA3?$AA2?$AA?4?$AAD?$AAL?$AAL?$AA?$AA@ 00461964     LIBCMT:crtmboxw.obj
 0002:0000597c       ??_C@_0M@DLDCCGNP@MessageBoxW?$AA@ 0046197c     LIBCMT:crtmboxw.obj
 0002:00005988       ??_C@_0BA@HNOPNCHB@GetActiveWindow?$AA@ 00461988     LIBCMT:crtmboxw.obj
 0002:00005998       ??_C@_0BD@HHGDFDBJ@GetLastActivePopup?$AA@ 00461998     LIBCMT:crtmboxw.obj
 0002:000059ac       ??_C@_0BK@DEKFELLI@GetUserObjectInformationW?$AA@ 004619ac     LIBCMT:crtmboxw.obj
 0002:000059c8       ??_C@_0BI@DFKBFLJE@GetProcessWindowStation?$AA@ 004619c8     LIBCMT:crtmboxw.obj
 0002:000059e0       ___newctype                004619e0     LIBCMT:ctype.obj
 0002:00005ce0       __wctype                   00461ce0     LIBCMT:ctype.obj
 0002:00005ee8       ___newclmap                00461ee8     LIBCMT:ctype.obj
 0002:00006068       ___newcumap                00462068     LIBCMT:ctype.obj
 0002:000061e8       ??_C@_15PJPFLCCM@?$AAu?$AAk?$AA?$AA@ 004621e8     LIBCMT:getqloc.obj
 0002:000061f0       ___rg_language_count       004621f0     LIBCMT:getqloc.obj
 0002:000061f4       ___rg_country_count        004621f4     LIBCMT:getqloc.obj
 0002:000061f8       _LcidToLocaleNameTable     004621f8     LIBCMT:winapinls.obj
 0002:00006918       _LocaleNameToIndexTable    00462918     LIBCMT:winapinls.obj
 0002:00007038       ??_C@_15EMKDOKLE@?$AAa?$AAr?$AA?$AA@ 00463038     LIBCMT:winapinls.obj
 0002:00007040       ??_C@_15KNPADPLH@?$AAb?$AAg?$AA?$AA@ 00463040     LIBCMT:winapinls.obj
 0002:00007048       ??_C@_15EDMHLDMO@?$AAc?$AAa?$AA?$AA@ 00463048     LIBCMT:winapinls.obj
 0002:00007050       ??_C@_1O@BPEAJADD@?$AAz?$AAh?$AA?9?$AAC?$AAH?$AAS?$AA?$AA@ 00463050     LIBCMT:winapinls.obj
 0002:00007060       ??_C@_15LJNHCMNK@?$AAc?$AAs?$AA?$AA@ 00463060     LIBCMT:winapinls.obj
 0002:00007068       ??_C@_15FOMCIDHG@?$AAd?$AAa?$AA?$AA@ 00463068     LIBCMT:winapinls.obj
 0002:00007070       ??_C@_15NBKABECB@?$AAd?$AAe?$AA?$AA@ 00463070     LIBCMT:winapinls.obj
 0002:00007078       ??_C@_15GHPEIIAO@?$AAe?$AAl?$AA?$AA@ 00463078     LIBCMT:winapinls.obj
 0002:00007080       ??_C@_15MNPNEAIF@?$AAe?$AAn?$AA?$AA@ 00463080     LIBCMT:winapinls.obj
 0002:00007088       ??_C@_15GPIOMPMH@?$AAe?$AAs?$AA?$AA@ 00463088     LIBCMT:winapinls.obj
 0002:00007090       ??_C@_15NGLOAKJC@?$AAf?$AAi?$AA?$AA@ 00463090     LIBCMT:winapinls.obj
 0002:00007098       ??_C@_15FBKGNKAM@?$AAf?$AAr?$AA?$AA@ 00463098     LIBCMT:winapinls.obj
 0002:000070a0       ??_C@_15KGGCNEFK@?$AAh?$AAe?$AA?$AA@ 004630a0     LIBCMT:winapinls.obj
 0002:000070a8       ??_C@_15PGHLIDMF@?$AAh?$AAu?$AA?$AA@ 004630a8     LIBCMT:winapinls.obj
 0002:000070b0       ??_C@_15BIEMAPLM@?$AAi?$AAs?$AA?$AA@ 004630b0     LIBCMT:winapinls.obj
 0002:000070b8       ??_C@_15IFJLDHAF@?$AAi?$AAt?$AA?$AA@ 004630b8     LIBCMT:winapinls.obj
 0002:000070c0       ??_C@_15GEMIOCAG@?$AAj?$AAa?$AA?$AA@ 004630c0     LIBCMT:winapinls.obj
 0002:000070c8       ??_C@_15EPELEGJA@?$AAk?$AAo?$AA?$AA@ 004630c8     LIBCMT:winapinls.obj
 0002:000070d0       ??_C@_15NDDHIMN@?$AAn?$AAl?$AA?$AA@ 004630d0     LIBCMT:winapinls.obj
 0002:000070d8       ??_C@_15BPIGNHCD@?$AAn?$AAo?$AA?$AA@ 004630d8     LIBCMT:winapinls.obj
 0002:000070e0       ??_C@_15DEOPBLCG@?$AAp?$AAl?$AA?$AA@ 004630e0     LIBCMT:winapinls.obj
 0002:000070e8       ??_C@_15KBECGEFG@?$AAp?$AAt?$AA?$AA@ 004630e8     LIBCMT:winapinls.obj
 0002:000070f0       ??_C@_15GLJCBFMD@?$AAr?$AAo?$AA?$AA@ 004630f0     LIBCMT:winapinls.obj
 0002:000070f8       ??_C@_15FEDGKCDI@?$AAr?$AAu?$AA?$AA@ 004630f8     LIBCMT:winapinls.obj
 0002:00007100       ??_C@_15GLKMLLHM@?$AAh?$AAr?$AA?$AA@ 00463100     LIBCMT:winapinls.obj
 0002:00007108       ??_C@_15CPKMFBDB@?$AAs?$AAk?$AA?$AA@ 00463108     LIBCMT:winapinls.obj
 0002:00007110       ??_C@_15BAAIOGMK@?$AAs?$AAq?$AA?$AA@ 00463110     LIBCMT:winapinls.obj
 0002:00007118       ??_C@_15INNPNOHD@?$AAs?$AAv?$AA?$AA@ 00463118     LIBCMT:winapinls.obj
 0002:00007120       ??_C@_15CABMMOGH@?$AAt?$AAh?$AA?$AA@ 00463120     LIBCMT:winapinls.obj
 0002:00007128       ??_C@_15BPLIHJJM@?$AAt?$AAr?$AA?$AA@ 00463128     LIBCMT:winapinls.obj
 0002:00007130       ??_C@_15NEOEKKDJ@?$AAu?$AAr?$AA?$AA@ 00463130     LIBCMT:winapinls.obj
 0002:00007138       ??_C@_15NFICGAJK@?$AAi?$AAd?$AA?$AA@ 00463138     LIBCMT:winapinls.obj
 0002:00007140       ??_C@_15HPJPHDM@?$AAb?$AAe?$AA?$AA@ 00463140     LIBCMT:winapinls.obj
 0002:00007148       ??_C@_15LCHLGJII@?$AAs?$AAl?$AA?$AA@ 00463148     LIBCMT:winapinls.obj
 0002:00007150       ??_C@_15PCFJPHHO@?$AAe?$AAt?$AA?$AA@ 00463150     LIBCMT:winapinls.obj
 0002:00007158       ??_C@_15HPFPGODN@?$AAl?$AAv?$AA?$AA@ 00463158     LIBCMT:winapinls.obj
 0002:00007160       ??_C@_15NFFGKGLG@?$AAl?$AAt?$AA?$AA@ 00463160     LIBCMT:winapinls.obj
 0002:00007168       ??_C@_15BDAKCCHN@?$AAf?$AAa?$AA?$AA@ 00463168     LIBCMT:winapinls.obj
 0002:00007170       ??_C@_15NFGIAIAJ@?$AAv?$AAi?$AA?$AA@ 00463170     LIBCMT:winapinls.obj
 0002:00007178       ??_C@_15LMKNDMHN@?$AAh?$AAy?$AA?$AA@ 00463178     LIBCMT:winapinls.obj
 0002:00007180       ??_C@_15IJBHMCFL@?$AAa?$AAz?$AA?$AA@ 00463180     LIBCMT:winapinls.obj
 0002:00007188       ??_C@_15EKOFJABL@?$AAe?$AAu?$AA?$AA@ 00463188     LIBCMT:winapinls.obj
 0002:00007190       ??_C@_15BGHADCNK@?$AAm?$AAk?$AA?$AA@ 00463190     LIBCMT:winapinls.obj
 0002:00007198       ??_C@_15JDNICKHM@?$AAa?$AAf?$AA?$AA@ 00463198     LIBCMT:winapinls.obj
 0002:000071a0       ??_C@_15KPJEDBKD@?$AAk?$AAa?$AA?$AA@ 004631a0     LIBCMT:winapinls.obj
 0002:000071a8       ??_C@_15PDNFFFEO@?$AAf?$AAo?$AA?$AA@ 004631a8     LIBCMT:winapinls.obj
 0002:000071b0       ??_C@_15OMLEGLOC@?$AAh?$AAi?$AA?$AA@ 004631b0     LIBCMT:winapinls.obj
 0002:000071b8       ??_C@_15IDNNENKK@?$AAm?$AAs?$AA?$AA@ 004631b8     LIBCMT:winapinls.obj
 0002:000071c0       ??_C@_15MACJNBMH@?$AAk?$AAk?$AA?$AA@ 004631c0     LIBCMT:winapinls.obj
 0002:000071c8       ??_C@_15DKDJEOND@?$AAk?$AAy?$AA?$AA@ 004631c8     LIBCMT:winapinls.obj
 0002:000071d0       ??_C@_15DFGDLJBG@?$AAs?$AAw?$AA?$AA@ 004631d0     LIBCMT:winapinls.obj
 0002:000071d8       ??_C@_15BBFAICNG@?$AAu?$AAz?$AA?$AA@ 004631d8     LIBCMT:winapinls.obj
 0002:000071e0       ??_C@_15DKNDCGEA@?$AAt?$AAt?$AA?$AA@ 004631e0     LIBCMT:winapinls.obj
 0002:000071e8       ??_C@_15MGIFMDPL@?$AAp?$AAa?$AA?$AA@ 004631e8     LIBCMT:winapinls.obj
 0002:000071f0       ??_C@_15HCNDBBA@?$AAg?$AAu?$AA?$AA@ 004631f0     LIBCMT:winapinls.obj
 0002:000071f8       ??_C@_15FNBEIBON@?$AAt?$AAa?$AA?$AA@ 004631f8     LIBCMT:winapinls.obj
 0002:00007200       ??_C@_15NCHGBGLK@?$AAt?$AAe?$AA?$AA@ 00463200     LIBCMT:winapinls.obj
 0002:00007208       ??_C@_15PHPHCBPF@?$AAk?$AAn?$AA?$AA@ 00463208     LIBCMT:winapinls.obj
 0002:00007210       ??_C@_15DLGBCKMP@?$AAm?$AAr?$AA?$AA@ 00463210     LIBCMT:winapinls.obj
 0002:00007218       ??_C@_15EABBLBFF@?$AAs?$AAa?$AA?$AA@ 00463218     LIBCMT:winapinls.obj
 0002:00007220       ??_C@_15CBKOMCOI@?$AAm?$AAn?$AA?$AA@ 00463220     LIBCMT:winapinls.obj
 0002:00007228       ??_C@_15CKDMCJAF@?$AAg?$AAl?$AA?$AA@ 00463228     LIBCMT:winapinls.obj
 0002:00007230       ??_C@_17CNJFBPG@?$AAk?$AAo?$AAk?$AA?$AA@ 00463230     LIBCMT:winapinls.obj
 0002:00007238       ??_C@_17FFBJICPL@?$AAs?$AAy?$AAr?$AA?$AA@ 00463238     LIBCMT:winapinls.obj
 0002:00007240       ??_C@_17KPNDCPAF@?$AAd?$AAi?$AAv?$AA?$AA@ 00463240     LIBCMT:winapinls.obj
 0002:00007248       ??_C@_11LOCGONAA@?$AA?$AA@ 00463248     LIBCMT:winapinls.obj
 0002:0000724c       ??_C@_1M@OKAHONE@?$AAa?$AAr?$AA?9?$AAS?$AAA?$AA?$AA@ 0046324c     LIBCMT:winapinls.obj
 0002:00007258       ??_C@_1M@FFFIGIGK@?$AAb?$AAg?$AA?9?$AAB?$AAG?$AA?$AA@ 00463258     LIBCMT:winapinls.obj
 0002:00007264       ??_C@_1M@BJNKEDC@?$AAc?$AAa?$AA?9?$AAE?$AAS?$AA?$AA@ 00463264     LIBCMT:winapinls.obj
 0002:00007270       ??_C@_1M@IJJHFJHA@?$AAc?$AAs?$AA?9?$AAC?$AAZ?$AA?$AA@ 00463270     LIBCMT:winapinls.obj
 0002:0000727c       ??_C@_1M@CLPEOBGI@?$AAd?$AAa?$AA?9?$AAD?$AAK?$AA?$AA@ 0046327c     LIBCMT:winapinls.obj
 0002:00007288       ??_C@_1M@MCMADGCB@?$AAd?$AAe?$AA?9?$AAD?$AAE?$AA?$AA@ 00463288     LIBCMT:winapinls.obj
 0002:00007294       ??_C@_1M@OOCKEMAM@?$AAe?$AAl?$AA?9?$AAG?$AAR?$AA?$AA@ 00463294     LIBCMT:winapinls.obj
 0002:000072a0       ??_C@_1M@DDNJFGID@?$AAf?$AAi?$AA?9?$AAF?$AAI?$AA?$AA@ 004632a0     LIBCMT:winapinls.obj
 0002:000072ac       ??_C@_1M@GLIPPMAC@?$AAf?$AAr?$AA?9?$AAF?$AAR?$AA?$AA@ 004632ac     LIBCMT:winapinls.obj
 0002:000072b8       ??_C@_1M@GFMCHPE@?$AAh?$AAe?$AA?9?$AAI?$AAL?$AA?$AA@ 004632b8     LIBCMT:winapinls.obj
 0002:000072c4       ??_C@_1M@MHLPGNKM@?$AAh?$AAu?$AA?9?$AAH?$AAU?$AA?$AA@ 004632c4     LIBCMT:winapinls.obj
 0002:000072d0       ??_C@_1M@LPDDNNPN@?$AAi?$AAs?$AA?9?$AAI?$AAS?$AA?$AA@ 004632d0     LIBCMT:winapinls.obj
 0002:000072dc       ??_C@_1M@MADIPODN@?$AAi?$AAt?$AA?9?$AAI?$AAT?$AA?$AA@ 004632dc     LIBCMT:winapinls.obj
 0002:000072e8       ??_C@_1M@IHBJJGG@?$AAn?$AAl?$AA?9?$AAN?$AAL?$AA?$AA@ 004632e8     LIBCMT:winapinls.obj
 0002:000072f4       ??_C@_1M@EANAGDL@?$AAn?$AAb?$AA?9?$AAN?$AAO?$AA?$AA@ 004632f4     LIBCMT:winapinls.obj
 0002:00007300       ??_C@_1M@NEIEMEGP@?$AAp?$AAl?$AA?9?$AAP?$AAL?$AA?$AA@ 00463300     LIBCMT:winapinls.obj
 0002:0000730c       ??_C@_1M@BOCFIGEP@?$AAp?$AAt?$AA?9?$AAB?$AAR?$AA?$AA@ 0046330c     LIBCMT:winapinls.obj
 0002:00007318       ??_C@_1M@IMPFOPBG@?$AAr?$AAo?$AA?9?$AAR?$AAO?$AA?$AA@ 00463318     LIBCMT:winapinls.obj
 0002:00007324       ??_C@_1M@IDNNEJMM@?$AAr?$AAu?$AA?9?$AAR?$AAU?$AA?$AA@ 00463324     LIBCMT:winapinls.obj
 0002:00007330       ??_C@_1M@LILEEOGM@?$AAh?$AAr?$AA?9?$AAH?$AAR?$AA?$AA@ 00463330     LIBCMT:winapinls.obj
 0002:0000733c       ??_C@_1M@FKIFEHPB@?$AAs?$AAk?$AA?9?$AAS?$AAK?$AA?$AA@ 0046333c     LIBCMT:winapinls.obj
 0002:00007348       ??_C@_1M@LJMAMNPJ@?$AAs?$AAq?$AA?9?$AAA?$AAL?$AA?$AA@ 00463348     LIBCMT:winapinls.obj
 0002:00007354       ??_C@_1M@GIAKDKJK@?$AAs?$AAv?$AA?9?$AAS?$AAE?$AA?$AA@ 00463354     LIBCMT:winapinls.obj
 0002:00007360       ??_C@_1M@MKJKIKCL@?$AAt?$AAh?$AA?9?$AAT?$AAH?$AA?$AA@ 00463360     LIBCMT:winapinls.obj
 0002:0000736c       ??_C@_1M@MFLCCMPB@?$AAt?$AAr?$AA?9?$AAT?$AAR?$AA?$AA@ 0046336c     LIBCMT:winapinls.obj
 0002:00007378       ??_C@_1M@OIJHDKJN@?$AAu?$AAr?$AA?9?$AAP?$AAK?$AA?$AA@ 00463378     LIBCMT:winapinls.obj
 0002:00007384       ??_C@_1M@LHIPCIEK@?$AAi?$AAd?$AA?9?$AAI?$AAD?$AA?$AA@ 00463384     LIBCMT:winapinls.obj
 0002:00007390       ??_C@_1M@MFMOBGI@?$AAu?$AAk?$AA?9?$AAU?$AAA?$AA?$AA@ 00463390     LIBCMT:winapinls.obj
 0002:0000739c       ??_C@_1M@OBGLJIPL@?$AAb?$AAe?$AA?9?$AAB?$AAY?$AA?$AA@ 0046339c     LIBCMT:winapinls.obj
 0002:000073a8       ??_C@_1M@BCFAJEAD@?$AAs?$AAl?$AA?9?$AAS?$AAI?$AA?$AA@ 004633a8     LIBCMT:winapinls.obj
 0002:000073b4       ??_C@_1M@FKFFEDDN@?$AAe?$AAt?$AA?9?$AAE?$AAE?$AA?$AA@ 004633b4     LIBCMT:winapinls.obj
 0002:000073c0       ??_C@_1M@KGKKAACI@?$AAl?$AAv?$AA?9?$AAL?$AAV?$AA?$AA@ 004633c0     LIBCMT:winapinls.obj
 0002:000073cc       ??_C@_1M@IFGBIJO@?$AAl?$AAt?$AA?9?$AAL?$AAT?$AA?$AA@ 004633cc     LIBCMT:winapinls.obj
 0002:000073d8       ??_C@_1M@FGEAHEDM@?$AAf?$AAa?$AA?9?$AAI?$AAR?$AA?$AA@ 004633d8     LIBCMT:winapinls.obj
 0002:000073e4       ??_C@_1M@KBMAIBFN@?$AAv?$AAi?$AA?9?$AAV?$AAN?$AA?$AA@ 004633e4     LIBCMT:winapinls.obj
 0002:000073f0       ??_C@_1M@GPCBKDJK@?$AAh?$AAy?$AA?9?$AAA?$AAM?$AA?$AA@ 004633f0     LIBCMT:winapinls.obj
 0002:000073fc       ??_C@_1BG@BECMDDJB@?$AAa?$AAz?$AA?9?$AAA?$AAZ?$AA?9?$AAL?$AAa?$AAt?$AAn?$AA?$AA@ 004633fc     LIBCMT:winapinls.obj
 0002:00007414       ??_C@_1M@MAOFCAEA@?$AAe?$AAu?$AA?9?$AAE?$AAS?$AA?$AA@ 00463414     LIBCMT:winapinls.obj
 0002:00007420       ??_C@_1M@IGHABKPI@?$AAm?$AAk?$AA?9?$AAM?$AAK?$AA?$AA@ 00463420     LIBCMT:winapinls.obj
 0002:0000742c       ??_C@_1M@IAIGNEJG@?$AAt?$AAn?$AA?9?$AAZ?$AAA?$AA?$AA@ 0046342c     LIBCMT:winapinls.obj
 0002:00007438       ??_C@_1M@IIJCOJFA@?$AAx?$AAh?$AA?9?$AAZ?$AAA?$AA?$AA@ 00463438     LIBCMT:winapinls.obj
 0002:00007444       ??_C@_1M@LGPJHNJH@?$AAz?$AAu?$AA?9?$AAZ?$AAA?$AA?$AA@ 00463444     LIBCMT:winapinls.obj
 0002:00007450       ??_C@_1M@HOKAOIO@?$AAa?$AAf?$AA?9?$AAZ?$AAA?$AA?$AA@ 00463450     LIBCMT:winapinls.obj
 0002:0000745c       ??_C@_1M@DPCLHLIE@?$AAk?$AAa?$AA?9?$AAG?$AAE?$AA?$AA@ 0046345c     LIBCMT:winapinls.obj
 0002:00007468       ??_C@_1M@BLKMHJBI@?$AAf?$AAo?$AA?9?$AAF?$AAO?$AA?$AA@ 00463468     LIBCMT:winapinls.obj
 0002:00007474       ??_C@_1M@LGGJAPPB@?$AAh?$AAi?$AA?9?$AAI?$AAN?$AA?$AA@ 00463474     LIBCMT:winapinls.obj
 0002:00007480       ??_C@_1M@FIKPIHFE@?$AAm?$AAt?$AA?9?$AAM?$AAT?$AA?$AA@ 00463480     LIBCMT:winapinls.obj
 0002:0000748c       ??_C@_1M@HEGGPBFA@?$AAs?$AAe?$AA?9?$AAN?$AAO?$AA?$AA@ 0046348c     LIBCMT:winapinls.obj
 0002:00007498       ??_C@_1M@EIBJEEPA@?$AAm?$AAs?$AA?9?$AAM?$AAY?$AA?$AA@ 00463498     LIBCMT:winapinls.obj
 0002:000074a4       ??_C@_1M@FHLBGMPP@?$AAk?$AAk?$AA?9?$AAK?$AAZ?$AA?$AA@ 004634a4     LIBCMT:winapinls.obj
 0002:000074b0       ??_C@_1M@NGJJLCGI@?$AAk?$AAy?$AA?9?$AAK?$AAG?$AA?$AA@ 004634b0     LIBCMT:winapinls.obj
 0002:000074bc       ??_C@_1M@GIENNBFC@?$AAs?$AAw?$AA?9?$AAK?$AAE?$AA?$AA@ 004634bc     LIBCMT:winapinls.obj
 0002:000074c8       ??_C@_1BG@NDGMJIMJ@?$AAu?$AAz?$AA?9?$AAU?$AAZ?$AA?9?$AAL?$AAa?$AAt?$AAn?$AA?$AA@ 004634c8     LIBCMT:winapinls.obj
 0002:000074e0       ??_C@_1M@IDCCIHBC@?$AAt?$AAt?$AA?9?$AAR?$AAU?$AA?$AA@ 004634e0     LIBCMT:winapinls.obj
 0002:000074ec       ??_C@_1M@LOICPMOJ@?$AAb?$AAn?$AA?9?$AAI?$AAN?$AA?$AA@ 004634ec     LIBCMT:winapinls.obj
 0002:000074f8       ??_C@_1M@KPKKNEAH@?$AAp?$AAa?$AA?9?$AAI?$AAN?$AA?$AA@ 004634f8     LIBCMT:winapinls.obj
 0002:00007504       ??_C@_1M@PJGPPBOG@?$AAg?$AAu?$AA?9?$AAI?$AAN?$AA?$AA@ 00463504     LIBCMT:winapinls.obj
 0002:00007510       ??_C@_1M@KMKMOPHI@?$AAt?$AAa?$AA?9?$AAI?$AAN?$AA?$AA@ 00463510     LIBCMT:winapinls.obj
 0002:0000751c       ??_C@_1M@KFEHEPAC@?$AAt?$AAe?$AA?9?$AAI?$AAN?$AA?$AA@ 0046351c     LIBCMT:winapinls.obj
 0002:00007528       ??_C@_1M@CDCLMGHI@?$AAk?$AAn?$AA?9?$AAI?$AAN?$AA?$AA@ 00463528     LIBCMT:winapinls.obj
 0002:00007534       ??_C@_1M@MIODLDKF@?$AAm?$AAl?$AA?9?$AAI?$AAN?$AA?$AA@ 00463534     LIBCMT:winapinls.obj
 0002:00007540       ??_C@_1M@PBIEACPO@?$AAm?$AAr?$AA?9?$AAI?$AAN?$AA?$AA@ 00463540     LIBCMT:winapinls.obj
 0002:0000754c       ??_C@_1M@NIDEAGPH@?$AAs?$AAa?$AA?9?$AAI?$AAN?$AA?$AA@ 0046354c     LIBCMT:winapinls.obj
 0002:00007558       ??_C@_1M@FHIHCBIO@?$AAm?$AAn?$AA?9?$AAM?$AAN?$AA?$AA@ 00463558     LIBCMT:winapinls.obj
 0002:00007564       ??_C@_1M@JAIJPENP@?$AAc?$AAy?$AA?9?$AAG?$AAB?$AA?$AA@ 00463564     LIBCMT:winapinls.obj
 0002:00007570       ??_C@_1M@PHGFBEPN@?$AAg?$AAl?$AA?9?$AAE?$AAS?$AA?$AA@ 00463570     LIBCMT:winapinls.obj
 0002:0000757c       ??_C@_1O@KPIPDNCP@?$AAk?$AAo?$AAk?$AA?9?$AAI?$AAN?$AA?$AA@ 0046357c     LIBCMT:winapinls.obj
 0002:0000758c       ??_C@_1O@KNHJLDJA@?$AAs?$AAy?$AAr?$AA?9?$AAS?$AAY?$AA?$AA@ 0046358c     LIBCMT:winapinls.obj
 0002:0000759c       ??_C@_1O@MKEKBLAH@?$AAd?$AAi?$AAv?$AA?9?$AAM?$AAV?$AA?$AA@ 0046359c     LIBCMT:winapinls.obj
 0002:000075ac       ??_C@_1O@OHDCKDDF@?$AAq?$AAu?$AAz?$AA?9?$AAB?$AAO?$AA?$AA@ 004635ac     LIBCMT:winapinls.obj
 0002:000075bc       ??_C@_1M@LEPJNLFD@?$AAn?$AAs?$AA?9?$AAZ?$AAA?$AA?$AA@ 004635bc     LIBCMT:winapinls.obj
 0002:000075c8       ??_C@_1M@OMLEIIJB@?$AAm?$AAi?$AA?9?$AAN?$AAZ?$AA?$AA@ 004635c8     LIBCMT:winapinls.obj
 0002:000075d4       ??_C@_1M@PMPEAILG@?$AAa?$AAr?$AA?9?$AAI?$AAQ?$AA?$AA@ 004635d4     LIBCMT:winapinls.obj
 0002:000075e0       ??_C@_1M@CNKPNOEE@?$AAd?$AAe?$AA?9?$AAC?$AAH?$AA?$AA@ 004635e0     LIBCMT:winapinls.obj
 0002:000075ec       ??_C@_1M@LKMGMLKO@?$AAe?$AAn?$AA?9?$AAG?$AAB?$AA?$AA@ 004635ec     LIBCMT:winapinls.obj
 0002:000075f8       ??_C@_1M@PGKJFFGL@?$AAe?$AAs?$AA?9?$AAM?$AAX?$AA?$AA@ 004635f8     LIBCMT:winapinls.obj
 0002:00007604       ??_C@_1M@DNNANBDC@?$AAf?$AAr?$AA?9?$AAB?$AAE?$AA?$AA@ 00463604     LIBCMT:winapinls.obj
 0002:00007610       ??_C@_1M@HLGMDFHM@?$AAi?$AAt?$AA?9?$AAC?$AAH?$AA?$AA@ 00463610     LIBCMT:winapinls.obj
 0002:0000761c       ??_C@_1M@CLLBGJH@?$AAn?$AAl?$AA?9?$AAB?$AAE?$AA?$AA@ 0046361c     LIBCMT:winapinls.obj
 0002:00007628       ??_C@_1M@BODBOGLF@?$AAn?$AAn?$AA?9?$AAN?$AAO?$AA?$AA@ 00463628     LIBCMT:winapinls.obj
 0002:00007634       ??_C@_1M@HFFAHKAD@?$AAp?$AAt?$AA?9?$AAP?$AAT?$AA?$AA@ 00463634     LIBCMT:winapinls.obj
 0002:00007640       ??_C@_1BG@LNOAKHIE@?$AAs?$AAr?$AA?9?$AAS?$AAP?$AA?9?$AAL?$AAa?$AAt?$AAn?$AA?$AA@ 00463640     LIBCMT:winapinls.obj
 0002:00007658       ??_C@_1M@HBMHBGAK@?$AAs?$AAv?$AA?9?$AAF?$AAI?$AA?$AA@ 00463658     LIBCMT:winapinls.obj
 0002:00007664       ??_C@_1BG@DGCJGJBE@?$AAa?$AAz?$AA?9?$AAA?$AAZ?$AA?9?$AAC?$AAy?$AAr?$AAl?$AA?$AA@ 00463664     LIBCMT:winapinls.obj
 0002:0000767c       ??_C@_1M@KEJDAAHB@?$AAs?$AAe?$AA?9?$AAS?$AAE?$AA?$AA@ 0046367c     LIBCMT:winapinls.obj
 0002:00007688       ??_C@_1M@HEIBJJAD@?$AAm?$AAs?$AA?9?$AAB?$AAN?$AA?$AA@ 00463688     LIBCMT:winapinls.obj
 0002:00007694       ??_C@_1BG@PBGJMCEM@?$AAu?$AAz?$AA?9?$AAU?$AAZ?$AA?9?$AAC?$AAy?$AAr?$AAl?$AA?$AA@ 00463694     LIBCMT:winapinls.obj
 0002:000076ac       ??_C@_1O@LAOBCMDF@?$AAq?$AAu?$AAz?$AA?9?$AAE?$AAC?$AA?$AA@ 004636ac     LIBCMT:winapinls.obj
 0002:000076bc       ??_C@_1M@POEEMAIO@?$AAa?$AAr?$AA?9?$AAE?$AAG?$AA?$AA@ 004636bc     LIBCMT:winapinls.obj
 0002:000076c8       ??_C@_1M@EFAKDEDL@?$AAz?$AAh?$AA?9?$AAH?$AAK?$AA?$AA@ 004636c8     LIBCMT:winapinls.obj
 0002:000076d4       ??_C@_1M@HKKIJHGI@?$AAd?$AAe?$AA?9?$AAA?$AAT?$AA?$AA@ 004636d4     LIBCMT:winapinls.obj
 0002:000076e0       ??_C@_1M@KBFBEHJF@?$AAe?$AAn?$AA?9?$AAA?$AAU?$AA?$AA@ 004636e0     LIBCMT:winapinls.obj
 0002:000076ec       ??_C@_1M@MNPLFAAH@?$AAe?$AAs?$AA?9?$AAE?$AAS?$AA?$AA@ 004636ec     LIBCMT:winapinls.obj
 0002:000076f8       ??_C@_1M@HJOOJFMA@?$AAf?$AAr?$AA?9?$AAC?$AAA?$AA?$AA@ 004636f8     LIBCMT:winapinls.obj
 0002:00007704       ??_C@_1BG@JPOFPNAB@?$AAs?$AAr?$AA?9?$AAS?$AAP?$AA?9?$AAC?$AAy?$AAr?$AAl?$AA?$AA@ 00463704     LIBCMT:winapinls.obj
 0002:0000771c       ??_C@_1M@LNFOCMOB@?$AAs?$AAe?$AA?9?$AAF?$AAI?$AA?$AA@ 0046371c     LIBCMT:winapinls.obj
 0002:00007728       ??_C@_1O@MGJBOAMB@?$AAq?$AAu?$AAz?$AA?9?$AAP?$AAE?$AA?$AA@ 00463728     LIBCMT:winapinls.obj
 0002:00007738       ??_C@_1M@GJINLBOK@?$AAa?$AAr?$AA?9?$AAL?$AAY?$AA?$AA@ 00463738     LIBCMT:winapinls.obj
 0002:00007744       ??_C@_1M@GGMNHJNL@?$AAz?$AAh?$AA?9?$AAS?$AAG?$AA?$AA@ 00463744     LIBCMT:winapinls.obj
 0002:00007750       ??_C@_1M@HOIKODND@?$AAd?$AAe?$AA?9?$AAL?$AAU?$AA?$AA@ 00463750     LIBCMT:winapinls.obj
 0002:0000775c       ??_C@_1M@DDOCCGFG@?$AAe?$AAn?$AA?9?$AAC?$AAA?$AA?$AA@ 0046375c     LIBCMT:winapinls.obj
 0002:00007768       ??_C@_1M@BNOEMJLF@?$AAe?$AAs?$AA?9?$AAG?$AAT?$AA?$AA@ 00463768     LIBCMT:winapinls.obj
 0002:00007774       ??_C@_1M@EOGNKEK@?$AAf?$AAr?$AA?9?$AAC?$AAH?$AA?$AA@ 00463774     LIBCMT:winapinls.obj
 0002:00007780       ??_C@_1M@FLIDJFHL@?$AAh?$AAr?$AA?9?$AAB?$AAA?$AA?$AA@ 00463780     LIBCMT:winapinls.obj
 0002:0000778c       ??_C@_1O@FMCELNAJ@?$AAs?$AAm?$AAj?$AA?9?$AAN?$AAO?$AA?$AA@ 0046378c     LIBCMT:winapinls.obj
 0002:0000779c       ??_C@_1M@JHGLJMGJ@?$AAa?$AAr?$AA?9?$AAD?$AAZ?$AA?$AA@ 0046379c     LIBCMT:winapinls.obj
 0002:000077a8       ??_C@_1M@JKKFDCNP@?$AAz?$AAh?$AA?9?$AAM?$AAO?$AA?$AA@ 004637a8     LIBCMT:winapinls.obj
 0002:000077b4       ??_C@_1M@GEEFALPE@?$AAd?$AAe?$AA?9?$AAL?$AAI?$AA?$AA@ 004637b4     LIBCMT:winapinls.obj
 0002:000077c0       ??_C@_1M@IGEOFBG@?$AAe?$AAn?$AA?9?$AAN?$AAZ?$AA?$AA@ 004637c0     LIBCMT:winapinls.obj
 0002:000077cc       ??_C@_1M@KDBONEHP@?$AAe?$AAs?$AA?9?$AAC?$AAR?$AA?$AA@ 004637cc     LIBCMT:winapinls.obj
 0002:000077d8       ??_C@_1M@FHMDOHNN@?$AAf?$AAr?$AA?9?$AAL?$AAU?$AA?$AA@ 004637d8     LIBCMT:winapinls.obj
 0002:000077e4       ??_C@_1BG@NFKKMAFG@?$AAb?$AAs?$AA?9?$AAB?$AAA?$AA?9?$AAL?$AAa?$AAt?$AAn?$AA?$AA@ 004637e4     LIBCMT:winapinls.obj
 0002:000077fc       ??_C@_1O@IMNBEMCI@?$AAs?$AAm?$AAj?$AA?9?$AAS?$AAE?$AA?$AA@ 004637fc     LIBCMT:winapinls.obj
 0002:0000780c       ??_C@_1M@DHHMBNDP@?$AAa?$AAr?$AA?9?$AAM?$AAA?$AA?$AA@ 0046380c     LIBCMT:winapinls.obj
 0002:00007818       ??_C@_1M@BNBLJCGH@?$AAe?$AAn?$AA?9?$AAI?$AAE?$AA?$AA@ 00463818     LIBCMT:winapinls.obj
 0002:00007824       ??_C@_1M@GEPAFMDL@?$AAe?$AAs?$AA?9?$AAP?$AAA?$AA?$AA@ 00463824     LIBCMT:winapinls.obj
 0002:00007830       ??_C@_1M@OJONDMDL@?$AAf?$AAr?$AA?9?$AAM?$AAC?$AA?$AA@ 00463830     LIBCMT:winapinls.obj
 0002:0000783c       ??_C@_1BG@OBCNFJB@?$AAs?$AAr?$AA?9?$AAB?$AAA?$AA?9?$AAL?$AAa?$AAt?$AAn?$AA?$AA@ 0046383c     LIBCMT:winapinls.obj
 0002:00007854       ??_C@_1O@KEMEEGPO@?$AAs?$AAm?$AAa?$AA?9?$AAN?$AAO?$AA?$AA@ 00463854     LIBCMT:winapinls.obj
 0002:00007864       ??_C@_1M@ELMGFODK@?$AAa?$AAr?$AA?9?$AAT?$AAN?$AA?$AA@ 00463864     LIBCMT:winapinls.obj
 0002:00007870       ??_C@_1M@BHDLHFAF@?$AAe?$AAn?$AA?9?$AAZ?$AAA?$AA?$AA@ 00463870     LIBCMT:winapinls.obj
 0002:0000787c       ??_C@_1M@BMGIGLIF@?$AAe?$AAs?$AA?9?$AAD?$AAO?$AA?$AA@ 0046387c     LIBCMT:winapinls.obj
 0002:00007888       ??_C@_1BG@CMBHIPBE@?$AAs?$AAr?$AA?9?$AAB?$AAA?$AA?9?$AAC?$AAy?$AAr?$AAl?$AA?$AA@ 00463888     LIBCMT:winapinls.obj
 0002:000078a0       ??_C@_1O@HEDBLHNP@?$AAs?$AAm?$AAa?$AA?9?$AAS?$AAE?$AA?$AA@ 004638a0     LIBCMT:winapinls.obj
 0002:000078b0       ??_C@_1M@DAGCADIM@?$AAa?$AAr?$AA?9?$AAO?$AAM?$AA?$AA@ 004638b0     LIBCMT:winapinls.obj
 0002:000078bc       ??_C@_1M@FODLMICG@?$AAe?$AAn?$AA?9?$AAJ?$AAM?$AA?$AA@ 004638bc     LIBCMT:winapinls.obj
 0002:000078c8       ??_C@_1M@DNMLCIHB@?$AAe?$AAs?$AA?9?$AAV?$AAE?$AA?$AA@ 004638c8     LIBCMT:winapinls.obj
 0002:000078d4       ??_C@_1O@EOKHMKJK@?$AAs?$AAm?$AAs?$AA?9?$AAF?$AAI?$AA?$AA@ 004638d4     LIBCMT:winapinls.obj
 0002:000078e4       ??_C@_1M@CAFJMKOF@?$AAa?$AAr?$AA?9?$AAY?$AAE?$AA?$AA@ 004638e4     LIBCMT:winapinls.obj
 0002:000078f0       ??_C@_1M@CBFHIJLI@?$AAe?$AAn?$AA?9?$AAC?$AAB?$AA?$AA@ 004638f0     LIBCMT:winapinls.obj
 0002:000078fc       ??_C@_1M@BGNFLDN@?$AAe?$AAs?$AA?9?$AAC?$AAO?$AA?$AA@ 004638fc     LIBCMT:winapinls.obj
 0002:00007908       ??_C@_1O@JMPHMAMC@?$AAs?$AAm?$AAn?$AA?9?$AAF?$AAI?$AA?$AA@ 00463908     LIBCMT:winapinls.obj
 0002:00007918       ??_C@_1M@JLANABKE@?$AAa?$AAr?$AA?9?$AAS?$AAY?$AA?$AA@ 00463918     LIBCMT:winapinls.obj
 0002:00007924       ??_C@_1M@HPKGCFGN@?$AAe?$AAn?$AA?9?$AAB?$AAZ?$AA?$AA@ 00463924     LIBCMT:winapinls.obj
 0002:00007930       ??_C@_1M@OLJCMLGM@?$AAe?$AAs?$AA?9?$AAP?$AAE?$AA?$AA@ 00463930     LIBCMT:winapinls.obj
 0002:0000793c       ??_C@_1M@MKKGFKLE@?$AAa?$AAr?$AA?9?$AAJ?$AAO?$AA?$AA@ 0046393c     LIBCMT:winapinls.obj
 0002:00007948       ??_C@_1M@EKPGLDNI@?$AAe?$AAn?$AA?9?$AAT?$AAT?$AA?$AA@ 00463948     LIBCMT:winapinls.obj
 0002:00007954       ??_C@_1M@OONGHFHE@?$AAe?$AAs?$AA?9?$AAA?$AAR?$AA?$AA@ 00463954     LIBCMT:winapinls.obj
 0002:00007960       ??_C@_1M@OOJFGBHE@?$AAa?$AAr?$AA?9?$AAL?$AAB?$AA?$AA@ 00463960     LIBCMT:winapinls.obj
 0002:0000796c       ??_C@_1M@GCEJHNEG@?$AAe?$AAn?$AA?9?$AAZ?$AAW?$AA?$AA@ 0046396c     LIBCMT:winapinls.obj
 0002:00007978       ??_C@_1M@JNOCAHJI@?$AAe?$AAs?$AA?9?$AAE?$AAC?$AA?$AA@ 00463978     LIBCMT:winapinls.obj
 0002:00007984       ??_C@_1M@JEFHPGGB@?$AAa?$AAr?$AA?9?$AAK?$AAW?$AA?$AA@ 00463984     LIBCMT:winapinls.obj
 0002:00007990       ??_C@_1M@MLKIBJOJ@?$AAe?$AAn?$AA?9?$AAP?$AAH?$AA?$AA@ 00463990     LIBCMT:winapinls.obj
 0002:0000799c       ??_C@_1M@BDNIPEND@?$AAe?$AAs?$AA?9?$AAC?$AAL?$AA?$AA@ 0046399c     LIBCMT:winapinls.obj
 0002:000079a8       ??_C@_1M@MPNMEKBD@?$AAa?$AAr?$AA?9?$AAA?$AAE?$AA?$AA@ 004639a8     LIBCMT:winapinls.obj
 0002:000079b4       ??_C@_1M@KBJALCPI@?$AAe?$AAs?$AA?9?$AAU?$AAY?$AA?$AA@ 004639b4     LIBCMT:winapinls.obj
 0002:000079c0       ??_C@_1M@LLCCOAGA@?$AAa?$AAr?$AA?9?$AAB?$AAH?$AA?$AA@ 004639c0     LIBCMT:winapinls.obj
 0002:000079cc       ??_C@_1M@PBFNCDEL@?$AAe?$AAs?$AA?9?$AAP?$AAY?$AA?$AA@ 004639cc     LIBCMT:winapinls.obj
 0002:000079d8       ??_C@_1M@EDGINPNP@?$AAa?$AAr?$AA?9?$AAQ?$AAA?$AA?$AA@ 004639d8     LIBCMT:winapinls.obj
 0002:000079e4       ??_C@_1M@MKDBIIJI@?$AAe?$AAs?$AA?9?$AAB?$AAO?$AA?$AA@ 004639e4     LIBCMT:winapinls.obj
 0002:000079f0       ??_C@_1M@CPKKEBLD@?$AAe?$AAs?$AA?9?$AAS?$AAV?$AA?$AA@ 004639f0     LIBCMT:winapinls.obj
 0002:000079fc       ??_C@_1M@NDBGMMJL@?$AAe?$AAs?$AA?9?$AAH?$AAN?$AA?$AA@ 004639fc     LIBCMT:winapinls.obj
 0002:00007a08       ??_C@_1M@JIJIBHDP@?$AAe?$AAs?$AA?9?$AAN?$AAI?$AA?$AA@ 00463a08     LIBCMT:winapinls.obj
 0002:00007a14       ??_C@_1M@CGFMKEEK@?$AAe?$AAs?$AA?9?$AAP?$AAR?$AA?$AA@ 00463a14     LIBCMT:winapinls.obj
 0002:00007a20       ??_C@_1O@ICJHKIIK@?$AAz?$AAh?$AA?9?$AAC?$AAH?$AAT?$AA?$AA@ 00463a20     LIBCMT:winapinls.obj
 0002:00007a30       ??_C@_15CLNEJCE@?$AAs?$AAr?$AA?$AA@ 00463a30     LIBCMT:winapinls.obj
 0002:00007a38       ??_C@_1M@KAHEKEIG@?$AAa?$AAf?$AA?9?$AAz?$AAa?$AA?$AA@ 00463a38     LIBCMT:winapinls.obj
 0002:00007a44       ??_C@_1M@GIECOABL@?$AAa?$AAr?$AA?9?$AAa?$AAe?$AA?$AA@ 00463a44     LIBCMT:winapinls.obj
 0002:00007a50       ??_C@_1M@BMLMEKGI@?$AAa?$AAr?$AA?9?$AAb?$AAh?$AA?$AA@ 00463a50     LIBCMT:winapinls.obj
 0002:00007a5c       ??_C@_1M@DAPFDGGB@?$AAa?$AAr?$AA?9?$AAd?$AAz?$AA?$AA@ 00463a5c     LIBCMT:winapinls.obj
 0002:00007a68       ??_C@_1M@FJNKGKIG@?$AAa?$AAr?$AA?9?$AAe?$AAg?$AA?$AA@ 00463a68     LIBCMT:winapinls.obj
 0002:00007a74       ??_C@_1M@FLGKKCLO@?$AAa?$AAr?$AA?9?$AAi?$AAq?$AA?$AA@ 00463a74     LIBCMT:winapinls.obj
 0002:00007a80       ??_C@_1M@GNDIPALM@?$AAa?$AAr?$AA?9?$AAj?$AAo?$AA?$AA@ 00463a80     LIBCMT:winapinls.obj
 0002:00007a8c       ??_C@_1M@DDMJFMGJ@?$AAa?$AAr?$AA?9?$AAk?$AAw?$AA?$AA@ 00463a8c     LIBCMT:winapinls.obj
 0002:00007a98       ??_C@_1M@EJALMLHM@?$AAa?$AAr?$AA?9?$AAl?$AAb?$AA?$AA@ 00463a98     LIBCMT:winapinls.obj
 0002:00007aa4       ??_C@_1M@MOBDBLOC@?$AAa?$AAr?$AA?9?$AAl?$AAy?$AA?$AA@ 00463aa4     LIBCMT:winapinls.obj
 0002:00007ab0       ??_C@_1M@JAOCLHDH@?$AAa?$AAr?$AA?9?$AAm?$AAa?$AA?$AA@ 00463ab0     LIBCMT:winapinls.obj
 0002:00007abc       ??_C@_1M@JHPMKJIE@?$AAa?$AAr?$AA?9?$AAo?$AAm?$AA?$AA@ 00463abc     LIBCMT:winapinls.obj
 0002:00007ac8       ??_C@_1M@OEPGHFNH@?$AAa?$AAr?$AA?9?$AAq?$AAa?$AA?$AA@ 00463ac8     LIBCMT:winapinls.obj
 0002:00007ad4       ??_C@_1M@KJDONENM@?$AAa?$AAr?$AA?9?$AAs?$AAa?$AA?$AA@ 00463ad4     LIBCMT:winapinls.obj
 0002:00007ae0       ??_C@_1M@DMJDKLKM@?$AAa?$AAr?$AA?9?$AAs?$AAy?$AA?$AA@ 00463ae0     LIBCMT:winapinls.obj
 0002:00007aec       ??_C@_1M@OMFIPEDC@?$AAa?$AAr?$AA?9?$AAt?$AAn?$AA?$AA@ 00463aec     LIBCMT:winapinls.obj
 0002:00007af8       ??_C@_1M@IHMHGAON@?$AAa?$AAr?$AA?9?$AAy?$AAe?$AA?$AA@ 00463af8     LIBCMT:winapinls.obj
 0002:00007b04       ??_C@_1BG@KDCPGJGB@?$AAa?$AAz?$AA?9?$AAa?$AAz?$AA?9?$AAc?$AAy?$AAr?$AAl?$AA?$AA@ 00463b04     LIBCMT:winapinls.obj
 0002:00007b1c       ??_C@_1BG@IBCKDDOE@?$AAa?$AAz?$AA?9?$AAa?$AAz?$AA?9?$AAl?$AAa?$AAt?$AAn?$AA?$AA@ 00463b1c     LIBCMT:winapinls.obj
 0002:00007b34       ??_C@_1M@EGPFDCPD@?$AAb?$AAe?$AA?9?$AAb?$AAy?$AA?$AA@ 00463b34     LIBCMT:winapinls.obj
 0002:00007b40       ??_C@_1M@PCMGMCGC@?$AAb?$AAg?$AA?9?$AAb?$AAg?$AA?$AA@ 00463b40     LIBCMT:winapinls.obj
 0002:00007b4c       ??_C@_1M@BJBMFGOB@?$AAb?$AAn?$AA?9?$AAi?$AAn?$AA?$AA@ 00463b4c     LIBCMT:winapinls.obj
 0002:00007b58       ??_C@_1BG@EAKMMACD@?$AAb?$AAs?$AA?9?$AAb?$AAa?$AA?9?$AAl?$AAa?$AAt?$AAn?$AA?$AA@ 00463b58     LIBCMT:winapinls.obj
 0002:00007b70       ??_C@_1M@KGADAODK@?$AAc?$AAa?$AA?9?$AAe?$AAs?$AA?$AA@ 00463b70     LIBCMT:winapinls.obj
 0002:00007b7c       ??_C@_1M@COAJPDHI@?$AAc?$AAs?$AA?9?$AAc?$AAz?$AA?$AA@ 00463b7c     LIBCMT:winapinls.obj
 0002:00007b88       ??_C@_1M@DHBHFONH@?$AAc?$AAy?$AA?9?$AAg?$AAb?$AA?$AA@ 00463b88     LIBCMT:winapinls.obj
 0002:00007b94       ??_C@_1M@IMGKELGA@?$AAd?$AAa?$AA?9?$AAd?$AAk?$AA?$AA@ 00463b94     LIBCMT:winapinls.obj
 0002:00007ba0       ??_C@_1M@NNDGDNGA@?$AAd?$AAe?$AA?9?$AAa?$AAt?$AA?$AA@ 00463ba0     LIBCMT:winapinls.obj
 0002:00007bac       ??_C@_1M@IKDBHEEM@?$AAd?$AAe?$AA?9?$AAc?$AAh?$AA?$AA@ 00463bac     LIBCMT:winapinls.obj
 0002:00007bb8       ??_C@_1M@GFFOJMCJ@?$AAd?$AAe?$AA?9?$AAd?$AAe?$AA?$AA@ 00463bb8     LIBCMT:winapinls.obj
 0002:00007bc4       ??_C@_1M@MDNLKBPM@?$AAd?$AAe?$AA?9?$AAl?$AAi?$AA?$AA@ 00463bc4     LIBCMT:winapinls.obj
 0002:00007bd0       ??_C@_1M@NJBEEJNL@?$AAd?$AAe?$AA?9?$AAl?$AAu?$AA?$AA@ 00463bd0     LIBCMT:winapinls.obj
 0002:00007bdc       ??_C@_1O@GNNELBAP@?$AAd?$AAi?$AAv?$AA?9?$AAm?$AAv?$AA?$AA@ 00463bdc     LIBCMT:winapinls.obj
 0002:00007bec       ??_C@_1M@EJLEOGAE@?$AAe?$AAl?$AA?9?$AAg?$AAr?$AA?$AA@ 00463bec     LIBCMT:winapinls.obj
 0002:00007bf8       ??_C@_1M@GMPONJN@?$AAe?$AAn?$AA?9?$AAa?$AAu?$AA?$AA@ 00463bf8     LIBCMT:winapinls.obj
 0002:00007c04       ??_C@_1M@NIDIIPGF@?$AAe?$AAn?$AA?9?$AAb?$AAz?$AA?$AA@ 00463c04     LIBCMT:winapinls.obj
 0002:00007c10       ??_C@_1M@JEHMIMFO@?$AAe?$AAn?$AA?9?$AAc?$AAa?$AA?$AA@ 00463c10     LIBCMT:winapinls.obj
 0002:00007c1c       ??_C@_1M@IGMJCDLA@?$AAe?$AAn?$AA?9?$AAc?$AAb?$AA?$AA@ 00463c1c     LIBCMT:winapinls.obj
 0002:00007c28       ??_C@_1M@BNFIGBKG@?$AAe?$AAn?$AA?9?$AAg?$AAb?$AA?$AA@ 00463c28     LIBCMT:winapinls.obj
 0002:00007c34       ??_C@_1M@LKIFDIGP@?$AAe?$AAn?$AA?9?$AAi?$AAe?$AA?$AA@ 00463c34     LIBCMT:winapinls.obj
 0002:00007c40       ??_C@_1M@PJKFGCCO@?$AAe?$AAn?$AA?9?$AAj?$AAm?$AA?$AA@ 00463c40     LIBCMT:winapinls.obj
 0002:00007c4c       ??_C@_1M@KPPKEPBO@?$AAe?$AAn?$AA?9?$AAn?$AAz?$AA?$AA@ 00463c4c     LIBCMT:winapinls.obj
 0002:00007c58       ??_C@_1M@GMDGLDOB@?$AAe?$AAn?$AA?9?$AAp?$AAh?$AA?$AA@ 00463c58     LIBCMT:winapinls.obj
 0002:00007c64       ??_C@_1M@ONGIBJNA@?$AAe?$AAn?$AA?9?$AAt?$AAt?$AA?$AA@ 00463c64     LIBCMT:winapinls.obj
 0002:00007c70       ??_C@_1M@LLODPCMM@?$AAe?$AAn?$AA?9?$AAu?$AAs?$AA?$AA@ 00463c70     LIBCMT:winapinls.obj
 0002:00007c7c       ??_C@_1M@LAKFNPAN@?$AAe?$AAn?$AA?9?$AAz?$AAa?$AA?$AA@ 00463c7c     LIBCMT:winapinls.obj
 0002:00007c88       ??_C@_1M@MFNHNHEO@?$AAe?$AAn?$AA?9?$AAz?$AAw?$AA?$AA@ 00463c88     LIBCMT:winapinls.obj
 0002:00007c94       ??_C@_1M@EJEINPHM@?$AAe?$AAs?$AA?9?$AAa?$AAr?$AA?$AA@ 00463c94     LIBCMT:winapinls.obj
 0002:00007ca0       ??_C@_1M@GNKPCCJA@?$AAe?$AAs?$AA?9?$AAb?$AAo?$AA?$AA@ 00463ca0     LIBCMT:winapinls.obj
 0002:00007cac       ??_C@_1M@LEEGFONL@?$AAe?$AAs?$AA?9?$AAc?$AAl?$AA?$AA@ 00463cac     LIBCMT:winapinls.obj
 0002:00007cb8       ??_C@_1M@KGPDPBDF@?$AAe?$AAs?$AA?9?$AAc?$AAo?$AA?$AA@ 00463cb8     LIBCMT:winapinls.obj
 0002:00007cc4       ??_C@_1M@EIAHOHH@?$AAe?$AAs?$AA?9?$AAc?$AAr?$AA?$AA@ 00463cc4     LIBCMT:winapinls.obj
 0002:00007cd0       ??_C@_1M@LLPGMBIN@?$AAe?$AAs?$AA?9?$AAd?$AAo?$AA?$AA@ 00463cd0     LIBCMT:winapinls.obj
 0002:00007cdc       ??_C@_1M@DKHMKNJA@?$AAe?$AAs?$AA?9?$AAe?$AAc?$AA?$AA@ 00463cdc     LIBCMT:winapinls.obj
 0002:00007ce8       ??_C@_1M@GKGFPKAP@?$AAe?$AAs?$AA?9?$AAe?$AAs?$AA?$AA@ 00463ce8     LIBCMT:winapinls.obj
 0002:00007cf4       ??_C@_1M@LKHKGDLN@?$AAe?$AAs?$AA?9?$AAg?$AAt?$AA?$AA@ 00463cf4     LIBCMT:winapinls.obj
 0002:00007d00       ??_C@_1M@HEIIGGJD@?$AAe?$AAs?$AA?9?$AAh?$AAn?$AA?$AA@ 00463d00     LIBCMT:winapinls.obj
 0002:00007d0c       ??_C@_1M@FBDHPPGD@?$AAe?$AAs?$AA?9?$AAm?$AAx?$AA?$AA@ 00463d0c     LIBCMT:winapinls.obj
 0002:00007d18       ??_C@_1M@DPAGLNDH@?$AAe?$AAs?$AA?9?$AAn?$AAi?$AA?$AA@ 00463d18     LIBCMT:winapinls.obj
 0002:00007d24       ??_C@_1M@MDGOPGDD@?$AAe?$AAs?$AA?9?$AAp?$AAa?$AA?$AA@ 00463d24     LIBCMT:winapinls.obj
 0002:00007d30       ??_C@_1M@EMAMGBGE@?$AAe?$AAs?$AA?9?$AAp?$AAe?$AA?$AA@ 00463d30     LIBCMT:winapinls.obj
 0002:00007d3c       ??_C@_1M@IBMCAOEC@?$AAe?$AAs?$AA?9?$AAp?$AAr?$AA?$AA@ 00463d3c     LIBCMT:winapinls.obj
 0002:00007d48       ??_C@_1M@FGMDIJED@?$AAe?$AAs?$AA?9?$AAp?$AAy?$AA?$AA@ 00463d48     LIBCMT:winapinls.obj
 0002:00007d54       ??_C@_1M@IIDEOLLL@?$AAe?$AAs?$AA?9?$AAs?$AAv?$AA?$AA@ 00463d54     LIBCMT:winapinls.obj
 0002:00007d60       ??_C@_1M@GAOBIPA@?$AAe?$AAs?$AA?9?$AAu?$AAy?$AA?$AA@ 00463d60     LIBCMT:winapinls.obj
 0002:00007d6c       ??_C@_1M@JKFFICHJ@?$AAe?$AAs?$AA?9?$AAv?$AAe?$AA?$AA@ 00463d6c     LIBCMT:winapinls.obj
 0002:00007d78       ??_C@_1M@PNMLOJDF@?$AAe?$AAt?$AA?9?$AAe?$AAe?$AA?$AA@ 00463d78     LIBCMT:winapinls.obj
 0002:00007d84       ??_C@_1M@GHHLIKEI@?$AAe?$AAu?$AA?9?$AAe?$AAs?$AA?$AA@ 00463d84     LIBCMT:winapinls.obj
 0002:00007d90       ??_C@_1M@PBNONODE@?$AAf?$AAa?$AA?9?$AAi?$AAr?$AA?$AA@ 00463d90     LIBCMT:winapinls.obj
 0002:00007d9c       ??_C@_1M@JEEHPMIL@?$AAf?$AAi?$AA?9?$AAf?$AAi?$AA?$AA@ 00463d9c     LIBCMT:winapinls.obj
 0002:00007da8       ??_C@_1M@LMDCNDBA@?$AAf?$AAo?$AA?9?$AAf?$AAo?$AA?$AA@ 00463da8     LIBCMT:winapinls.obj
 0002:00007db4       ??_C@_1M@JKEOHLDK@?$AAf?$AAr?$AA?9?$AAb?$AAe?$AA?$AA@ 00463db4     LIBCMT:winapinls.obj
 0002:00007dc0       ??_C@_1M@NOHADPMI@?$AAf?$AAr?$AA?9?$AAc?$AAa?$AA?$AA@ 00463dc0     LIBCMT:winapinls.obj
 0002:00007dcc       ??_C@_1M@KDHIHAEC@?$AAf?$AAr?$AA?9?$AAc?$AAh?$AA?$AA@ 00463dcc     LIBCMT:winapinls.obj
 0002:00007dd8       ??_C@_1M@MMBBFGAK@?$AAf?$AAr?$AA?9?$AAf?$AAr?$AA?$AA@ 00463dd8     LIBCMT:winapinls.obj
 0002:00007de4       ??_C@_1M@PAFNENNF@?$AAf?$AAr?$AA?9?$AAl?$AAu?$AA?$AA@ 00463de4     LIBCMT:winapinls.obj
 0002:00007df0       ??_C@_1M@EOHDJGDD@?$AAf?$AAr?$AA?9?$AAm?$AAc?$AA?$AA@ 00463df0     LIBCMT:winapinls.obj
 0002:00007dfc       ??_C@_1M@FAPLLOPF@?$AAg?$AAl?$AA?9?$AAe?$AAs?$AA?$AA@ 00463dfc     LIBCMT:winapinls.obj
 0002:00007e08       ??_C@_1M@FOPBFLOO@?$AAg?$AAu?$AA?9?$AAi?$AAn?$AA?$AA@ 00463e08     LIBCMT:winapinls.obj
 0002:00007e14       ??_C@_1M@KBMCINPM@?$AAh?$AAe?$AA?9?$AAi?$AAl?$AA?$AA@ 00463e14     LIBCMT:winapinls.obj
 0002:00007e20       ??_C@_1M@BBPHKFPJ@?$AAh?$AAi?$AA?9?$AAi?$AAn?$AA?$AA@ 00463e20     LIBCMT:winapinls.obj
 0002:00007e2c       ??_C@_1M@PMBNDPHD@?$AAh?$AAr?$AA?9?$AAb?$AAa?$AA?$AA@ 00463e2c     LIBCMT:winapinls.obj
 0002:00007e38       ??_C@_1M@BPCKOEGE@?$AAh?$AAr?$AA?9?$AAh?$AAr?$AA?$AA@ 00463e38     LIBCMT:winapinls.obj
 0002:00007e44       ??_C@_1M@GACBMHKE@?$AAh?$AAu?$AA?9?$AAh?$AAu?$AA?$AA@ 00463e44     LIBCMT:winapinls.obj
 0002:00007e50       ??_C@_1M@MILPAJJC@?$AAh?$AAy?$AA?9?$AAa?$AAm?$AA?$AA@ 00463e50     LIBCMT:winapinls.obj
 0002:00007e5c       ??_C@_1M@BABBICEC@?$AAi?$AAd?$AA?9?$AAi?$AAd?$AA?$AA@ 00463e5c     LIBCMT:winapinls.obj
 0002:00007e68       ??_C@_1M@BIKNHHPF@?$AAi?$AAs?$AA?9?$AAi?$AAs?$AA?$AA@ 00463e68     LIBCMT:winapinls.obj
 0002:00007e74       ??_C@_1M@NMPCJPHE@?$AAi?$AAt?$AA?9?$AAc?$AAh?$AA?$AA@ 00463e74     LIBCMT:winapinls.obj
 0002:00007e80       ??_C@_1M@GHKGFEDF@?$AAi?$AAt?$AA?9?$AAi?$AAt?$AA?$AA@ 00463e80     LIBCMT:winapinls.obj
 0002:00007e8c       ??_C@_1M@NIEJCJJA@?$AAj?$AAa?$AA?9?$AAj?$AAp?$AA?$AA@ 00463e8c     LIBCMT:winapinls.obj
 0002:00007e98       ??_C@_1M@JILFNBIM@?$AAk?$AAa?$AA?9?$AAg?$AAe?$AA?$AA@ 00463e98     LIBCMT:winapinls.obj
 0002:00007ea4       ??_C@_1M@PACPMGPH@?$AAk?$AAk?$AA?9?$AAk?$AAz?$AA?$AA@ 00463ea4     LIBCMT:winapinls.obj
 0002:00007eb0       ??_C@_1M@IELFGMHA@?$AAk?$AAn?$AA?9?$AAi?$AAn?$AA?$AA@ 00463eb0     LIBCMT:winapinls.obj
 0002:00007ebc       ??_C@_1O@IBBJHCH@?$AAk?$AAo?$AAk?$AA?9?$AAi?$AAn?$AA?$AA@ 00463ebc     LIBCMT:winapinls.obj
 0002:00007ecc       ??_C@_1M@DMHAEOGC@?$AAk?$AAo?$AA?9?$AAk?$AAr?$AA?$AA@ 00463ecc     LIBCMT:winapinls.obj
 0002:00007ed8       ??_C@_1M@HBAHBIGA@?$AAk?$AAy?$AA?9?$AAk?$AAg?$AA?$AA@ 00463ed8     LIBCMT:winapinls.obj
 0002:00007ee4       ??_C@_1M@KPMILCJG@?$AAl?$AAt?$AA?9?$AAl?$AAt?$AA?$AA@ 00463ee4     LIBCMT:winapinls.obj
 0002:00007ef0       ??_C@_1M@BDEKKCA@?$AAl?$AAv?$AA?9?$AAl?$AAv?$AA?$AA@ 00463ef0     LIBCMT:winapinls.obj
 0002:00007efc       ??_C@_1M@ELCKCCJJ@?$AAm?$AAi?$AA?9?$AAn?$AAz?$AA?$AA@ 00463efc     LIBCMT:winapinls.obj
 0002:00007f08       ??_C@_1M@CBOOLAPA@?$AAm?$AAk?$AA?9?$AAm?$AAk?$AA?$AA@ 00463f08     LIBCMT:winapinls.obj
 0002:00007f14       ??_C@_1M@GPHNBJKN@?$AAm?$AAl?$AA?9?$AAi?$AAn?$AA?$AA@ 00463f14     LIBCMT:winapinls.obj
 0002:00007f20       ??_C@_1M@PABJILIG@?$AAm?$AAn?$AA?9?$AAm?$AAn?$AA?$AA@ 00463f20     LIBCMT:winapinls.obj
 0002:00007f2c       ??_C@_1M@FGBKKIPG@?$AAm?$AAr?$AA?9?$AAi?$AAn?$AA?$AA@ 00463f2c     LIBCMT:winapinls.obj
 0002:00007f38       ??_C@_1M@NDBPDDAL@?$AAm?$AAs?$AA?9?$AAb?$AAn?$AA?$AA@ 00463f38     LIBCMT:winapinls.obj
 0002:00007f44       ??_C@_1M@OPIHOOPI@?$AAm?$AAs?$AA?9?$AAm?$AAy?$AA?$AA@ 00463f44     LIBCMT:winapinls.obj
 0002:00007f50       ??_C@_1M@PPDBCNFM@?$AAm?$AAt?$AA?9?$AAm?$AAt?$AA?$AA@ 00463f50     LIBCMT:winapinls.obj
 0002:00007f5c       ??_C@_1M@KDJDKMDD@?$AAn?$AAb?$AA?9?$AAn?$AAo?$AA?$AA@ 00463f5c     LIBCMT:winapinls.obj
 0002:00007f68       ??_C@_1M@KFCFLMJP@?$AAn?$AAl?$AA?9?$AAb?$AAe?$AA?$AA@ 00463f68     LIBCMT:winapinls.obj
 0002:00007f74       ??_C@_1M@KPOPDDGO@?$AAn?$AAl?$AA?9?$AAn?$AAl?$AA?$AA@ 00463f74     LIBCMT:winapinls.obj
 0002:00007f80       ??_C@_1M@LJKPEMLN@?$AAn?$AAn?$AA?9?$AAn?$AAo?$AA?$AA@ 00463f80     LIBCMT:winapinls.obj
 0002:00007f8c       ??_C@_1M@BDGHHBFL@?$AAn?$AAs?$AA?9?$AAz?$AAa?$AA?$AA@ 00463f8c     LIBCMT:winapinls.obj
 0002:00007f98       ??_C@_1M@IDEHOAP@?$AAp?$AAa?$AA?9?$AAi?$AAn?$AA?$AA@ 00463f98     LIBCMT:winapinls.obj
 0002:00007fa4       ??_C@_1M@HDBKGOGH@?$AAp?$AAl?$AA?9?$AAp?$AAl?$AA?$AA@ 00463fa4     LIBCMT:winapinls.obj
 0002:00007fb0       ??_C@_1M@LJLLCMEH@?$AAp?$AAt?$AA?9?$AAb?$AAr?$AA?$AA@ 00463fb0     LIBCMT:winapinls.obj
 0002:00007fbc       ??_C@_1M@NCMONAAL@?$AAp?$AAt?$AA?9?$AAp?$AAt?$AA?$AA@ 00463fbc     LIBCMT:winapinls.obj
 0002:00007fc8       ??_C@_1O@EAKMAJDN@?$AAq?$AAu?$AAz?$AA?9?$AAb?$AAo?$AA?$AA@ 00463fc8     LIBCMT:winapinls.obj
 0002:00007fd8       ??_C@_1O@BHHPIGDN@?$AAq?$AAu?$AAz?$AA?9?$AAe?$AAc?$AA?$AA@ 00463fd8     LIBCMT:winapinls.obj
 0002:00007fe8       ??_C@_1O@GBAPEKMJ@?$AAq?$AAu?$AAz?$AA?9?$AAp?$AAe?$AA?$AA@ 00463fe8     LIBCMT:winapinls.obj
 0002:00007ff8       ??_C@_1M@CLGLEFBO@?$AAr?$AAo?$AA?9?$AAr?$AAo?$AA?$AA@ 00463ff8     LIBCMT:winapinls.obj
 0002:00008004       ??_C@_1M@CEEDODME@?$AAr?$AAu?$AA?9?$AAr?$AAu?$AA?$AA@ 00464004     LIBCMT:winapinls.obj
 0002:00008010       ??_C@_1M@HPKKKMPP@?$AAs?$AAa?$AA?9?$AAi?$AAn?$AA?$AA@ 00464010     LIBCMT:winapinls.obj
 0002:0000801c       ??_C@_1M@BKMAIGOJ@?$AAs?$AAe?$AA?9?$AAf?$AAi?$AA?$AA@ 0046401c     LIBCMT:winapinls.obj
 0002:00008028       ??_C@_1M@NDPIFLFI@?$AAs?$AAe?$AA?9?$AAn?$AAo?$AA?$AA@ 00464028     LIBCMT:winapinls.obj
 0002:00008034       ??_C@_1M@DANKKHJ@?$AAs?$AAe?$AA?9?$AAs?$AAe?$AA?$AA@ 00464034     LIBCMT:winapinls.obj
 0002:00008040       ??_C@_1M@PNBLONPJ@?$AAs?$AAk?$AA?9?$AAs?$AAk?$AA?$AA@ 00464040     LIBCMT:winapinls.obj
 0002:0000804c       ??_C@_1M@LFMODOAL@?$AAs?$AAl?$AA?9?$AAs?$AAi?$AA?$AA@ 0046404c     LIBCMT:winapinls.obj
 0002:00008058       ??_C@_1O@DFKOMPG@?$AAs?$AAm?$AAa?$AA?9?$AAn?$AAo?$AA?$AA@ 00464058     LIBCMT:winapinls.obj
 0002:00008068       ??_C@_1O@NDKPBNNH@?$AAs?$AAm?$AAa?$AA?9?$AAs?$AAe?$AA?$AA@ 00464068     LIBCMT:winapinls.obj
 0002:00008078       ??_C@_1O@PLLKBHAB@?$AAs?$AAm?$AAj?$AA?9?$AAn?$AAo?$AA?$AA@ 00464078     LIBCMT:winapinls.obj
 0002:00008088       ??_C@_1O@CLEPOGCA@?$AAs?$AAm?$AAj?$AA?9?$AAs?$AAe?$AA?$AA@ 00464088     LIBCMT:winapinls.obj
 0002:00008098       ??_C@_1O@DLGJGKMK@?$AAs?$AAm?$AAn?$AA?9?$AAf?$AAi?$AA?$AA@ 00464098     LIBCMT:winapinls.obj
 0002:000080a8       ??_C@_1O@OJDJGAJC@?$AAs?$AAm?$AAs?$AA?9?$AAf?$AAi?$AA?$AA@ 004640a8     LIBCMT:winapinls.obj
 0002:000080b8       ??_C@_1M@BOFOGHPB@?$AAs?$AAq?$AA?9?$AAa?$AAl?$AA?$AA@ 004640b8     LIBCMT:winapinls.obj
 0002:000080c4       ??_C@_1BG@LJBBIPGB@?$AAs?$AAr?$AA?9?$AAb?$AAa?$AA?9?$AAc?$AAy?$AAr?$AAl?$AA?$AA@ 004640c4     LIBCMT:winapinls.obj
 0002:000080dc       ??_C@_1BG@JLBENFOE@?$AAs?$AAr?$AA?9?$AAb?$AAa?$AA?9?$AAl?$AAa?$AAt?$AAn?$AA?$AA@ 004640dc     LIBCMT:winapinls.obj
 0002:000080f4       ??_C@_1BG@KODPNHE@?$AAs?$AAr?$AA?9?$AAs?$AAp?$AA?9?$AAc?$AAy?$AAr?$AAl?$AA?$AA@ 004640f4     LIBCMT:winapinls.obj
 0002:0000810c       ??_C@_1BG@CIOGKHPB@?$AAs?$AAr?$AA?9?$AAs?$AAp?$AA?9?$AAl?$AAa?$AAt?$AAn?$AA?$AA@ 0046410c     LIBCMT:winapinls.obj
 0002:00008124       ??_C@_1M@NGFJLMAC@?$AAs?$AAv?$AA?9?$AAf?$AAi?$AA?$AA@ 00464124     LIBCMT:winapinls.obj
 0002:00008130       ??_C@_1M@MPJEJAJC@?$AAs?$AAv?$AA?9?$AAs?$AAe?$AA?$AA@ 00464130     LIBCMT:winapinls.obj
 0002:0000813c       ??_C@_1M@MPNDHLFK@?$AAs?$AAw?$AA?9?$AAk?$AAe?$AA?$AA@ 0046413c     LIBCMT:winapinls.obj
 0002:00008148       ??_C@_1O@KOHBJJI@?$AAs?$AAy?$AAr?$AA?9?$AAs?$AAy?$AA?$AA@ 00464148     LIBCMT:winapinls.obj
 0002:00008158       ??_C@_1M@LDCEFHA@?$AAt?$AAa?$AA?9?$AAi?$AAn?$AA?$AA@ 00464158     LIBCMT:winapinls.obj
 0002:00008164       ??_C@_1M@CNJOFAK@?$AAt?$AAe?$AA?9?$AAi?$AAn?$AA?$AA@ 00464164     LIBCMT:winapinls.obj
 0002:00008170       ??_C@_1M@GNAECACD@?$AAt?$AAh?$AA?9?$AAt?$AAh?$AA?$AA@ 00464170     LIBCMT:winapinls.obj
 0002:0000817c       ??_C@_1M@CHBIHOJO@?$AAt?$AAn?$AA?9?$AAz?$AAa?$AA?$AA@ 0046417c     LIBCMT:winapinls.obj
 0002:00008188       ??_C@_1M@GCCMIGPJ@?$AAt?$AAr?$AA?9?$AAt?$AAr?$AA?$AA@ 00464188     LIBCMT:winapinls.obj
 0002:00008194       ??_C@_1M@CELMCNBK@?$AAt?$AAt?$AA?9?$AAr?$AAu?$AA?$AA@ 00464194     LIBCMT:winapinls.obj
 0002:000081a0       ??_C@_1M@KLMCELGA@?$AAu?$AAk?$AA?9?$AAu?$AAa?$AA?$AA@ 004641a0     LIBCMT:winapinls.obj
 0002:000081ac       ??_C@_1M@EPAJJAJF@?$AAu?$AAr?$AA?9?$AAp?$AAk?$AA?$AA@ 004641ac     LIBCMT:winapinls.obj
 0002:000081b8       ??_C@_1BG@GEGPMCDJ@?$AAu?$AAz?$AA?9?$AAu?$AAz?$AA?9?$AAc?$AAy?$AAr?$AAl?$AA?$AA@ 004641b8     LIBCMT:winapinls.obj
 0002:000081d0       ??_C@_1BG@EGGKJILM@?$AAu?$AAz?$AA?9?$AAu?$AAz?$AA?9?$AAl?$AAa?$AAt?$AAn?$AA?$AA@ 004641d0     LIBCMT:winapinls.obj
 0002:000081e8       ??_C@_1M@GFOCLFF@?$AAv?$AAi?$AA?9?$AAv?$AAn?$AA?$AA@ 004641e8     LIBCMT:winapinls.obj
 0002:000081f4       ??_C@_1M@CPAMEDFI@?$AAx?$AAh?$AA?9?$AAz?$AAa?$AA?$AA@ 004641f4     LIBCMT:winapinls.obj
 0002:00008200       ??_C@_1O@EBKIFIGN@?$AAz?$AAh?$AA?9?$AAc?$AAh?$AAs?$AA?$AA@ 00464200     LIBCMT:winapinls.obj
 0002:00008210       ??_C@_1O@NMHPGANE@?$AAz?$AAh?$AA?9?$AAc?$AAh?$AAt?$AA?$AA@ 00464210     LIBCMT:winapinls.obj
 0002:00008220       ??_C@_1M@LPINJOMC@?$AAz?$AAh?$AA?9?$AAc?$AAn?$AA?$AA@ 00464220     LIBCMT:winapinls.obj
 0002:0000822c       ??_C@_1M@OCJEJODD@?$AAz?$AAh?$AA?9?$AAh?$AAk?$AA?$AA@ 0046422c     LIBCMT:winapinls.obj
 0002:00008238       ??_C@_1M@DNDLJINH@?$AAz?$AAh?$AA?9?$AAm?$AAo?$AA?$AA@ 00464238     LIBCMT:winapinls.obj
 0002:00008244       ??_C@_1M@MBFDNDND@?$AAz?$AAh?$AA?9?$AAs?$AAg?$AA?$AA@ 00464244     LIBCMT:winapinls.obj
 0002:00008250       ??_C@_1M@IMEPLEPE@?$AAz?$AAh?$AA?9?$AAt?$AAw?$AA?$AA@ 00464250     LIBCMT:winapinls.obj
 0002:0000825c       ??_C@_1M@BBGHNHJP@?$AAz?$AAu?$AA?9?$AAz?$AAa?$AA?$AA@ 0046425c     LIBCMT:winapinls.obj
 0002:00008268       ??_C@_06PGGFOGJG@1?$CDSNAN?$AA@ 00464268     LIBCMT:x10fout.obj
 0002:00008270       ??_C@_05PHHOCPM@1?$CDIND?$AA@ 00464270     LIBCMT:x10fout.obj
 0002:00008278       ??_C@_05DNEBIAHO@1?$CDINF?$AA@ 00464278     LIBCMT:x10fout.obj
 0002:00008280       ??_C@_06IMKFLFPG@1?$CDQNAN?$AA@ 00464280     LIBCMT:x10fout.obj
 0002:00008288       ??_C@_1BA@BALFACEM@?$AAC?$AAO?$AAN?$AAO?$AAU?$AAT?$AA$?$AA?$AA@ 00464288     LIBCMT:initcon.obj
 0002:00008298       __load_config_used         00464298     LIBCMT:loadcfg.obj
 0002:000082e0       ??_R4WINDOW_CLASS@@6B@     004642e0     profile.obj
 0002:000082f4       ??_R3WINDOW_CLASS@@8       004642f4     profile.obj
 0002:00008304       ??_R2WINDOW_CLASS@@8       00464304     profile.obj
 0002:0000830c       ??_R1A@?0A@EA@WINDOW_CLASS@@8 0046430c     profile.obj
 0002:00008328       ??_R4EDITOP_GRID_CLASS@@6B@ 00464328     editop.obj
 0002:0000833c       ??_R3EDITOP_GRID_CLASS@@8  0046433c     editop.obj
 0002:0000834c       ??_R2EDITOP_GRID_CLASS@@8  0046434c     editop.obj
 0002:00008358       ??_R1A@?0A@EA@EDITOP_GRID_CLASS@@8 00464358     editop.obj
 0002:00008374       ??_R1A@?0A@EA@CUGCtrl@@8   00464374     editop.obj
 0002:00008390       ??_R3CUGCtrl@@8            00464390     editop.obj
 0002:000083a0       ??_R2CUGCtrl@@8            004643a0     editop.obj
 0002:000083a8       ??_R4GRID_CLASS@@6B@       004643a8     gridclas.obj
 0002:000083bc       ??_R3GRID_CLASS@@8         004643bc     gridclas.obj
 0002:000083cc       ??_R2GRID_CLASS@@8         004643cc     gridclas.obj
 0002:000083d8       ??_R1A@?0A@EA@GRID_CLASS@@8 004643d8     gridclas.obj
 0002:000083f4       ??_R4DATA_ARRAY_CLASS@@6B@ 004643f4     mplot.obj
 0002:00008408       ??_R3DATA_ARRAY_CLASS@@8   00464408     mplot.obj
 0002:00008418       ??_R2DATA_ARRAY_CLASS@@8   00464418     mplot.obj
 0002:00008420       ??_R1A@?0A@EA@DATA_ARRAY_CLASS@@8 00464420     mplot.obj
 0002:0000843c       ??_R4SINGLE_PLOT_CLASS@@6B@ 0046443c     mplot.obj
 0002:00008450       ??_R3SINGLE_PLOT_CLASS@@8  00464450     mplot.obj
 0002:00008460       ??_R2SINGLE_PLOT_CLASS@@8  00464460     mplot.obj
 0002:0000846c       ??_R1A@?0A@EA@SINGLE_PLOT_CLASS@@8 0046446c     mplot.obj
 0002:00008488       ??_R4PW_GRID_CLASS@@6B@    00464488     password.obj
 0002:0000849c       ??_R3PW_GRID_CLASS@@8      0046449c     password.obj
 0002:000084ac       ??_R2PW_GRID_CLASS@@8      004644ac     password.obj
 0002:000084b8       ??_R1A@?0A@EA@PW_GRID_CLASS@@8 004644b8     password.obj
 0002:000084d4       ??_R4INT32_ARRAY_CLASS@@6B@ 004644d4     tcconfig.obj
 0002:000084e8       ??_R3INT32_ARRAY_CLASS@@8  004644e8     tcconfig.obj
 0002:000084f8       ??_R2INT32_ARRAY_CLASS@@8  004644f8     tcconfig.obj
 0002:00008500       ??_R1A@?0A@EA@INT32_ARRAY_CLASS@@8 00464500     tcconfig.obj
 0002:0000851c       ??_R4SHOT_ARRAY_CLASS@@6B@ 0046451c     xaxis.obj
 0002:00008530       ??_R3SHOT_ARRAY_CLASS@@8   00464530     xaxis.obj
 0002:00008540       ??_R2SHOT_ARRAY_CLASS@@8   00464540     xaxis.obj
 0002:00008548       ??_R1A@?0A@EA@SHOT_ARRAY_CLASS@@8 00464548     xaxis.obj
 0002:00008564       ??_R4X_AXIS_CLASS@@6B@     00464564     xaxis.obj
 0002:00008578       ??_R3X_AXIS_CLASS@@8       00464578     xaxis.obj
 0002:00008588       ??_R2X_AXIS_CLASS@@8       00464588     xaxis.obj
 0002:00008594       ??_R1A@?0A@EA@X_AXIS_CLASS@@8 00464594     xaxis.obj
 0002:000085b0       ??_R4FTII_ARRAY_DATA@@6B@  004645b0     v5subs:ftii_shot_data.obj
 0002:000085c4       ??_R3FTII_ARRAY_DATA@@8    004645c4     v5subs:ftii_shot_data.obj
 0002:000085d4       ??_R2FTII_ARRAY_DATA@@8    004645d4     v5subs:ftii_shot_data.obj
 0002:000085dc       ??_R1A@?0A@EA@FTII_ARRAY_DATA@@8 004645dc     v5subs:ftii_shot_data.obj
 0002:000085f8       ??_R4FTII_PROFILE@@6B@     004645f8     v5subs:ftii_shot_data.obj
 0002:0000860c       ??_R3FTII_PROFILE@@8       0046460c     v5subs:ftii_shot_data.obj
 0002:0000861c       ??_R2FTII_PROFILE@@8       0046461c     v5subs:ftii_shot_data.obj
 0002:00008628       ??_R1A@?0A@EA@FTII_PROFILE@@8 00464628     v5subs:ftii_shot_data.obj
 0002:00008644       ??_R4CUGCtrl@@6B@          00464644     dundas:ugctrl.obj
 0002:00008658       ??_R4CUGCnrBtn@@6B@        00464658     dundas:ugcnrbtn.obj
 0002:0000866c       ??_R3CUGCnrBtn@@8          0046466c     dundas:ugcnrbtn.obj
 0002:0000867c       ??_R2CUGCnrBtn@@8          0046467c     dundas:ugcnrbtn.obj
 0002:00008684       ??_R1A@?0A@EA@CUGCnrBtn@@8 00464684     dundas:ugcnrbtn.obj
 0002:000086a0       ??_R4CUGGrid@@6B@          004646a0     dundas:uggrid.obj
 0002:000086b4       ??_R3CUGGrid@@8            004646b4     dundas:uggrid.obj
 0002:000086c4       ??_R2CUGGrid@@8            004646c4     dundas:uggrid.obj
 0002:000086cc       ??_R1A@?0A@EA@CUGGrid@@8   004646cc     dundas:uggrid.obj
 0002:000086e8       ??_R4CUGHScroll@@6B@       004646e8     dundas:ughscrol.obj
 0002:000086fc       ??_R3CUGHScroll@@8         004646fc     dundas:ughscrol.obj
 0002:0000870c       ??_R2CUGHScroll@@8         0046470c     dundas:ughscrol.obj
 0002:00008714       ??_R1A@?0A@EA@CUGHScroll@@8 00464714     dundas:ughscrol.obj
 0002:00008730       ??_R4CUGSideHdg@@6B@       00464730     dundas:ugsidehd.obj
 0002:00008744       ??_R3CUGSideHdg@@8         00464744     dundas:ugsidehd.obj
 0002:00008754       ??_R2CUGSideHdg@@8         00464754     dundas:ugsidehd.obj
 0002:0000875c       ??_R1A@?0A@EA@CUGSideHdg@@8 0046475c     dundas:ugsidehd.obj
 0002:00008778       ??_R4CUGTopHdg@@6B@        00464778     dundas:ugtophdg.obj
 0002:0000878c       ??_R3CUGTopHdg@@8          0046478c     dundas:ugtophdg.obj
 0002:0000879c       ??_R2CUGTopHdg@@8          0046479c     dundas:ugtophdg.obj
 0002:000087a4       ??_R1A@?0A@EA@CUGTopHdg@@8 004647a4     dundas:ugtophdg.obj
 0002:000087c0       ??_R4CUGVScroll@@6B@       004647c0     dundas:ugvscrol.obj
 0002:000087d4       ??_R3CUGVScroll@@8         004647d4     dundas:ugvscrol.obj
 0002:000087e4       ??_R2CUGVScroll@@8         004647e4     dundas:ugvscrol.obj
 0002:000087ec       ??_R1A@?0A@EA@CUGVScroll@@8 004647ec     dundas:ugvscrol.obj
 0002:00008808       ??_R4CUGDataSource@@6B@    00464808     dundas:ugdtasrc.obj
 0002:0000881c       ??_R3CUGDataSource@@8      0046481c     dundas:ugdtasrc.obj
 0002:0000882c       ??_R2CUGDataSource@@8      0046482c     dundas:ugdtasrc.obj
 0002:00008834       ??_R1A@?0A@EA@CUGDataSource@@8 00464834     dundas:ugdtasrc.obj
 0002:00008850       ??_R4CUGCellType@@6B@      00464850     dundas:ugceltyp.obj
 0002:00008864       ??_R3CUGCellType@@8        00464864     dundas:ugceltyp.obj
 0002:00008874       ??_R2CUGCellType@@8        00464874     dundas:ugceltyp.obj
 0002:0000887c       ??_R1A@?0A@EA@CUGCellType@@8 0046487c     dundas:ugceltyp.obj
 0002:00008898       ??_R4CUGEdit@@6B@          00464898     dundas:ugedit.obj
 0002:000088ac       ??_R3CUGEdit@@8            004648ac     dundas:ugedit.obj
 0002:000088bc       ??_R2CUGEdit@@8            004648bc     dundas:ugedit.obj
 0002:000088c4       ??_R1A@?0A@EA@CUGEdit@@8   004648c4     dundas:ugedit.obj
 0002:000088e0       ??_R4CUGTab@@6B@           004648e0     dundas:ugtab.obj
 0002:000088f4       ??_R3CUGTab@@8             004648f4     dundas:ugtab.obj
 0002:00008904       ??_R2CUGTab@@8             00464904     dundas:ugtab.obj
 0002:0000890c       ??_R1A@?0A@EA@CUGTab@@8    0046490c     dundas:ugtab.obj
 0002:00008928       ??_R4CUGGridInfo@@6B@      00464928     dundas:uggdinfo.obj
 0002:0000893c       ??_R3CUGGridInfo@@8        0046493c     dundas:uggdinfo.obj
 0002:0000894c       ??_R2CUGGridInfo@@8        0046494c     dundas:uggdinfo.obj
 0002:00008954       ??_R1A@?0A@EA@CUGGridInfo@@8 00464954     dundas:uggdinfo.obj
 0002:00008970       ??_R4CUGHint@@6B@          00464970     dundas:ughint.obj
 0002:00008984       ??_R3CUGHint@@8            00464984     dundas:ughint.obj
 0002:00008994       ??_R2CUGHint@@8            00464994     dundas:ughint.obj
 0002:0000899c       ??_R1A@?0A@EA@CUGHint@@8   0046499c     dundas:ughint.obj
 0002:000089b8       ??_R4CUGDropListType@@6B@  004649b8     dundas:ugdltype.obj
 0002:000089cc       ??_R3CUGDropListType@@8    004649cc     dundas:ugdltype.obj
 0002:000089dc       ??_R2CUGDropListType@@8    004649dc     dundas:ugdltype.obj
 0002:000089e8       ??_R1A@?0A@EA@CUGDropListType@@8 004649e8     dundas:ugdltype.obj
 0002:00008a04       ??_R4CUGArrowType@@6B@     00464a04     dundas:ugctarrw.obj
 0002:00008a18       ??_R3CUGArrowType@@8       00464a18     dundas:ugctarrw.obj
 0002:00008a28       ??_R2CUGArrowType@@8       00464a28     dundas:ugctarrw.obj
 0002:00008a34       ??_R1A@?0A@EA@CUGArrowType@@8 00464a34     dundas:ugctarrw.obj
 0002:00008a50       ??_R4CUGMem@@6B@           00464a50     dundas:ugmemman.obj
 0002:00008a64       ??_R3CUGMem@@8             00464a64     dundas:ugmemman.obj
 0002:00008a74       ??_R2CUGMem@@8             00464a74     dundas:ugmemman.obj
 0002:00008a80       ??_R1A@?0A@EA@CUGMem@@8    00464a80     dundas:ugmemman.obj
 0002:00008a9c       ??_R4CUGLstBox@@6B@        00464a9c     dundas:uglstbox.obj
 0002:00008ab0       ??_R3CUGLstBox@@8          00464ab0     dundas:uglstbox.obj
 0002:00008ac0       ??_R2CUGLstBox@@8          00464ac0     dundas:uglstbox.obj
 0002:00008ac8       ??_R1A@?0A@EA@CUGLstBox@@8 00464ac8     dundas:uglstbox.obj
 0002:00008ae4       ??_R1A@?0A@EA@exception@std@@8 00464ae4     LIBCMT:new.obj
 0002:00008b00       ??_R3exception@std@@8      00464b00     LIBCMT:new.obj
 0002:00008b10       ??_R2exception@std@@8      00464b10     LIBCMT:new.obj
 0002:00008b18       ??_R4bad_alloc@std@@6B@    00464b18     LIBCMT:new.obj
 0002:00008b2c       ??_R3bad_alloc@std@@8      00464b2c     LIBCMT:new.obj
 0002:00008b3c       ??_R2bad_alloc@std@@8      00464b3c     LIBCMT:new.obj
 0002:00008b48       ??_R1A@?0A@EA@bad_alloc@std@@8 00464b48     LIBCMT:new.obj
 0002:00008b64       ??_R4type_info@@6B@        00464b64     LIBCMT:typinfo.obj
 0002:00008b78       ??_R3type_info@@8          00464b78     LIBCMT:typinfo.obj
 0002:00008b88       ??_R2type_info@@8          00464b88     LIBCMT:typinfo.obj
 0002:00008b90       ??_R1A@?0A@EA@type_info@@8 00464b90     LIBCMT:typinfo.obj
 0002:00008bac       ??_R4exception@std@@6B@    00464bac     LIBCMT:stdexcpt.obj
 0002:00008bc0       ___safe_se_handler_table   00464bc0     <linker-defined>
 0002:00008bcc       ___rtc_iaa                 00464bcc     LIBCMT:initsect.obj
 0002:00008bd0       ___rtc_izz                 00464bd0     LIBCMT:initsect.obj
 0002:00008bd4       ___rtc_taa                 00464bd4     LIBCMT:initsect.obj
 0002:00008bd8       ___rtc_tzz                 00464bd8     LIBCMT:initsect.obj
 0002:00008be0       __TI2?AVbad_alloc@std@@    00464be0     LIBCMT:new.obj
 0002:00008bf0       __CTA2?AVbad_alloc@std@@   00464bf0     LIBCMT:new.obj
 0002:00008bfc       __CT??_R0?AVbad_alloc@std@@@8??0bad_alloc@std@@QAE@ABV01@@Z12 00464bfc     LIBCMT:new.obj
 0002:00008c18       __CT??_R0?AVexception@std@@@8??0exception@std@@QAE@ABV01@@Z12 00464c18     LIBCMT:new.obj
 0002:00008f2c       __IMPORT_DESCRIPTOR_KERNEL32 00464f2c     kernel32:KERNEL32.dll
 0002:00008f40       __IMPORT_DESCRIPTOR_USER32 00464f40     user32:USER32.dll
 0002:00008f54       __IMPORT_DESCRIPTOR_GDI32  00464f54     gdi32:GDI32.dll
 0002:00008f68       __IMPORT_DESCRIPTOR_WINSPOOL 00464f68     winspool:WINSPOOL.DRV
 0002:00008f7c       __IMPORT_DESCRIPTOR_COMDLG32 00464f7c     comdlg32:COMDLG32.dll
 0002:00008f90       __IMPORT_DESCRIPTOR_COMCTL32 00464f90     comctl32:COMCTL32.dll
 0002:00008fa4       __IMPORT_DESCRIPTOR_SHELL32 00464fa4     shell32:SHELL32.dll
 0002:00008fb8       __NULL_IMPORT_DESCRIPTOR   00464fb8     kernel32:KERNEL32.dll
 0003:00000000       ?NofColumns@@3HA           00467000     profile.obj
 0003:00000004       ?CurrentDisplay@@3HA       00467004     profile.obj
 0003:00000008       ?LastPosDisplay@@3HA       00467008     profile.obj
 0003:0000000c       ?MyClassName@@3PADA        0046700c     profile.obj
 0003:00000014       ?MyWindowTitle@@3PADA      00467014     profile.obj
 0003:0000001a       ?AChar@@3DA                0046701a     profile.obj
 0003:0000001b       ?BChar@@3DA                0046701b     profile.obj
 0003:0000001c       ?CommonResourceFile@@3PADA 0046701c     profile.obj
 0003:00000023       ?CChar@@3DA                00467023     profile.obj
 0003:00000024       ?MainMenuWindowName@@3PADA 00467024     profile.obj
 0003:00000033       ?DChar@@3DA                00467033     profile.obj
 0003:00000034       ?MainPlotWindowClass@@3PADA 00467034     profile.obj
 0003:00000042       ?EChar@@3DA                00467042     profile.obj
 0003:00000043       ?FChar@@3DA                00467043     profile.obj
 0003:00000044       ?ParameterWindowClassName@@3PADA 00467044     profile.obj
 0003:00000059       ?GChar@@3DA                00467059     profile.obj
 0003:0000005a       ?HChar@@3DA                0046705a     profile.obj
 0003:0000005b       ?IChar@@3DA                0046705b     profile.obj
 0003:0000005c       ?PopupMenuWindowName@@3PADA 0046705c     profile.obj
 0003:0000006c       ?ProfileMenuFile@@3PADA    0046706c     profile.obj
 0003:00000078       ?ProfileResourceFile@@3PADA 00467078     profile.obj
 0003:00000080       ?XdcrWindowClass@@3PADA    00467080     profile.obj
 0003:0000008e       ?JChar@@3DA                0046708e     profile.obj
 0003:0000008f       ?KChar@@3DA                0046708f     profile.obj
 0003:00000090       ?DefaultArialFontName@@3PADA 00467090     profile.obj
 0003:00000096       ?LChar@@3DA                00467096     profile.obj
 0003:00000097       ?MChar@@3DA                00467097     profile.obj
 0003:00000098       ?DefaultArialBoldFontName@@3PADA 00467098     profile.obj
 0003:000000a3       ?NChar@@3DA                004670a3     profile.obj
 0003:000000a4       ?DefaultTimesRomanFontName@@3PADA 004670a4     profile.obj
 0003:000000b4       ?MainHelpFileName@@3PADA   004670b4     profile.obj
 0003:000000bf       ?OChar@@3DA                004670bf     profile.obj
 0003:000000c0       ?CpkHelpFileName@@3PADA    004670c0     profile.obj
 0003:000000c8       ?ToolsHelpFileName@@3PADA  004670c8     profile.obj
 0003:000000d5       ?PChar@@3DA                004670d5     profile.obj
 0003:000000d6       ?QChar@@3DA                004670d6     profile.obj
 0003:000000d7       ?RChar@@3DA                004670d7     profile.obj
 0003:000000d8       ?MyScreenType@@3FA         004670d8     profile.obj
 0003:000000da       ?SChar@@3DA                004670da     profile.obj
 0003:000000db       ?TChar@@3DA                004670db     profile.obj
 0003:000000de       ?UChar@@3DA                004670de     profile.obj
 0003:000000df       ?VChar@@3DA                004670df     profile.obj
 0003:0000011b       ?WChar@@3DA                0046711b     profile.obj
 0003:0000012e       ?XChar@@3DA                0046712e     profile.obj
 0003:0000012f       ?YChar@@3DA                0046712f     profile.obj
 0003:00000141       ?ZChar@@3DA                00467141     profile.obj
 0003:00000142       ?ACharLow@@3DA             00467142     profile.obj
 0003:00000143       ?BCharLow@@3DA             00467143     profile.obj
 0003:00000146       ?CCharLow@@3DA             00467146     profile.obj
 0003:00000147       ?DCharLow@@3DA             00467147     profile.obj
 0003:0000014a       ?ECharLow@@3DA             0046714a     profile.obj
 0003:0000014b       ?FCharLow@@3DA             0046714b     profile.obj
 0003:0000014f       ?GCharLow@@3DA             0046714f     profile.obj
 0003:0000015e       ?HCharLow@@3DA             0046715e     profile.obj
 0003:0000015f       ?ICharLow@@3DA             0046715f     profile.obj
 0003:00000160       ?UnknownString@@3PADA      00467160     profile.obj
 0003:00000168       ?JCharLow@@3DA             00467168     profile.obj
 0003:00000169       ?KCharLow@@3DA             00467169     profile.obj
 0003:0000016a       ?LCharLow@@3DA             0046716a     profile.obj
 0003:0000016b       ?MCharLow@@3DA             0046716b     profile.obj
 0003:0000016c       ?NCharLow@@3DA             0046716c     profile.obj
 0003:0000016d       ?OCharLow@@3DA             0046716d     profile.obj
 0003:0000016e       ?PCharLow@@3DA             0046716e     profile.obj
 0003:0000016f       ?QCharLow@@3DA             0046716f     profile.obj
 0003:00000170       ?RCharLow@@3DA             00467170     profile.obj
 0003:00000171       ?SCharLow@@3DA             00467171     profile.obj
 0003:00000172       ?TCharLow@@3DA             00467172     profile.obj
 0003:00000173       ?UCharLow@@3DA             00467173     profile.obj
 0003:00000174       ?VCharLow@@3DA             00467174     profile.obj
 0003:00000175       ?WCharLow@@3DA             00467175     profile.obj
 0003:00000176       ?XCharLow@@3DA             00467176     profile.obj
 0003:00000177       ?YCharLow@@3DA             00467177     profile.obj
 0003:00000178       ?ZCharLow@@3DA             00467178     profile.obj
 0003:00000179       ?AsterixChar@@3DA          00467179     profile.obj
 0003:0000017a       ?BackSlashChar@@3DA        0046717a     profile.obj
 0003:0000017b       ?ColonChar@@3DA            0046717b     profile.obj
 0003:0000017c       ?CommaChar@@3DA            0046717c     profile.obj
 0003:0000017d       ?CrChar@@3DA               0046717d     profile.obj
 0003:0000017e       ?DoubleQuoteChar@@3DA      0046717e     profile.obj
 0003:0000017f       ?EqualsChar@@3DA           0046717f     profile.obj
 0003:00000180       ?EtxChar@@3DA              00467180     profile.obj
 0003:00000181       ?ForwardSlashChar@@3DA     00467181     profile.obj
 0003:00000182       ?LeftBracketChar@@3DA      00467182     profile.obj
 0003:00000183       ?LeftCurlyBracket@@3DA     00467183     profile.obj
 0003:00000184       ?DateString@@3PADA         00467184     profile.obj
 0003:0000019e       ?LfChar@@3DA               0046719e     profile.obj
 0003:0000019f       ?MinusChar@@3DA            0046719f     profile.obj
 0003:000001a0       ?AlarmColor@@3KA           004671a0     profile.obj
 0003:000001a4       ?PercentChar@@3DA          004671a4     profile.obj
 0003:000001a5       ?PeriodChar@@3DA           004671a5     profile.obj
 0003:000001a6       ?PlusChar@@3DA             004671a6     profile.obj
 0003:000001a7       ?PoundChar@@3DA            004671a7     profile.obj
 0003:000001a8       ?QuoteChar@@3DA            004671a8     profile.obj
 0003:000001a9       ?RightBracketChar@@3DA     004671a9     profile.obj
 0003:000001aa       ?RightCurlyBracket@@3DA    004671aa     profile.obj
 0003:000001ab       ?SemiColonChar@@3DA        004671ab     profile.obj
 0003:000001ac       ?NoAlarmColor@@3KA         004671ac     profile.obj
 0003:000001b0       ?SpaceChar@@3DA            004671b0     profile.obj
 0003:000001b1       ?TabChar@@3DA              004671b1     profile.obj
 0003:000001b2       ?TildaChar@@3DA            004671b2     profile.obj
 0003:000001b3       ?UnderScoreChar@@3DA       004671b3     profile.obj
 0003:000001b4       ?WarningColor@@3KA         004671b4     profile.obj
 0003:000001b8       ?ZeroChar@@3DA             004671b8     profile.obj
 0003:000001b9       ?OneChar@@3DA              004671b9     profile.obj
 0003:000001ba       ?TwoChar@@3DA              004671ba     profile.obj
 0003:000001bb       ?ThreeChar@@3DA            004671bb     profile.obj
 0003:000001bc       ?FourChar@@3DA             004671bc     profile.obj
 0003:000001bd       ?FiveChar@@3DA             004671bd     profile.obj
 0003:000001be       ?SixChar@@3DA              004671be     profile.obj
 0003:000001bf       ?SevenChar@@3DA            004671bf     profile.obj
 0003:000001c0       ?StxChar@@3DA              004671c0     profile.obj
 0003:000001c1       ?EightChar@@3DA            004671c1     profile.obj
 0003:000001c2       ?NineChar@@3DA             004671c2     profile.obj
 0003:000001c3       ?IsPressureDisplay@@3EA    004671c3     profile.obj
 0003:000001c4       ?AsterixString@@3PADA      004671c4     profile.obj
 0003:000001c6       ?SnapshotIsActive@@3EA     004671c6     profile.obj
 0003:000001c7       ?HaveNewXdcrPart@@3_NA     004671c7     profile.obj
 0003:000001c8       ?CommaString@@3PADA        004671c8     profile.obj
 0003:000001cc       ?CrLfString@@3PADA         004671cc     profile.obj
 0003:000001d0       ?NormalColor@@3PAKA        004671d0     profile.obj
 0003:00000204       ?SpaceString@@3PADA        00467204     profile.obj
 0003:00000208       ?StarDotStar@@3PADA        00467208     profile.obj
 0003:0000020c       ?NofItems@@3HA             0046720c     profile.obj
 0003:00000210       ?ItemList@@3PAUITEM_ENTRY@@A 00467210     profile.obj
 0003:00000444       ?ReferenceColor@@3PAKA     00467444     profile.obj
 0003:00000478       ?PrNormalColor@@3PAKA      00467478     profile.obj
 0003:000004ac       ?PrReferenceColor@@3PAKA   004674ac     profile.obj
 0003:000004e0       ?CurrentColor@@3PAKA       004674e0     profile.obj
 0003:000004e4       ?CurvePenWidth@@3HA        004674e4     profile.obj
 0003:000004e8       ?HistoryShotCount@@3FA     004674e8     profile.obj
 0003:000004ec       ?EditStatusScreenLevel@@3FA 004674ec     profile.obj
 0003:000004f0       ?DisplayIniFile@@3PADA     004674f0     profile.obj
 0003:000004fc       ?EditPartIniFile@@3PADA    004674fc     profile.obj
 0003:0000050c       ?MonallIniFile@@3PADA      0046750c     profile.obj
 0003:00000518       ?MonallProgramName@@3PADA  00467518     profile.obj
 0003:00000524       ?SureTrakIniFile@@3PADA    00467524     profile.obj
 0003:00000534       ?VisiTrakIniFile@@3PADA    00467534     profile.obj
 0003:00000544       ?BackupSection@@3PADA      00467544     profile.obj
 0003:0000054c       ?ButtonLevelsSection@@3PADA 0046754c     profile.obj
 0003:0000055c       ?ConfigSection@@3PADA      0046755c     profile.obj
 0003:00000564       ?MultipartSetupSection@@3PADA 00467564     profile.obj
 0003:00000570       ?ClearAlarmsEachShotKey@@3PADA 00467570     profile.obj
 0003:00000584       ?ClearDownWireFromPopupKey@@3PADA 00467584     profile.obj
 0003:0000059c       ?ClearMonitorWireOnDownKey@@3PADA 0046759c     profile.obj
 0003:000005b4       ?CsvShotFileNameKey@@3PADA 004675b4     profile.obj
 0003:000005c4       ?CsvShotFileTypeKey@@3PADA 004675c4     profile.obj
 0003:000005d4       ?CsvUseShotNumberKey@@3PADA 004675d4     profile.obj
 0003:000005e8       ?CurrentFtValuesGrayLevelKey@@3PADA 004675e8     profile.obj
 0003:00000604       ?CurrentLanguageKey@@3PADA 00467604     profile.obj
 0003:00000614       ?CurvePenWidthKey@@3PADA   00467614     profile.obj
 0003:00000624       ?DisplaySecondsKey@@3PADA  00467624     profile.obj
 0003:00000634       ?DownTimeAlarmWireKey@@3PADA 00467634     profile.obj
 0003:00000648       ?DowntimePurgeButtonKey@@3PADA 00467648     profile.obj
 0003:0000065c       ?EditControlButtonKey@@3PADA 0046765c     profile.obj
 0003:00000670       ?EditOperatorsButtonKey@@3PADA 00467670     profile.obj
 0003:00000684       ?EditOtherComputerKey@@3PADA 00467684     profile.obj
 0003:0000069c       ?EditOtherCurrentPartKey@@3PADA 0046769c     profile.obj
 0003:000006b8       ?EditOtherCurrentSuretrakKey@@3PADA 004676b8     profile.obj
 0003:000006d8       ?EditOtherSuretrakKey@@3PADA 004676d8     profile.obj
 0003:000006f0       ?EditPressureSetupLevelKey@@3PADA 004676f0     profile.obj
 0003:00000708       ?EditPressureProfileLevelKey@@3PADA 00467708     profile.obj
 0003:00000724       ?EditStatusSceenLevelKey@@3PADA 00467724     profile.obj
 0003:0000073c       ?ExitAllDefaultKey@@3PADA  0046773c     profile.obj
 0003:0000074c       ?HaveTouchScreenKey@@3PADA 0046774c     profile.obj
 0003:0000075c       ?HaveMultipartRunlistKey@@3PADA 0046775c     profile.obj
 0003:00000774       ?HaveSureTrakKey@@3PADA    00467774     profile.obj
 0003:00000784       ?HideSureTrakLimitSwitchWiresKey@@3PADA 00467784     profile.obj
 0003:000007a4       ?HighLimitTypeKey@@3PADA   004677a4     profile.obj
 0003:000007b4       ?Ioex4GrayLevelKey@@3PADA  004677b4     profile.obj
 0003:000007c4       ?Ioex4MenuGrayLevelKey@@3PADA 004677c4     profile.obj
 0003:000007d8       ?LastMachineKey@@3PADA     004677d8     profile.obj
 0003:000007e4       ?LastPartKey@@3PADA        004677e4     profile.obj
 0003:000007f0       ?LastShotKey@@3PADA        004677f0     profile.obj
 0003:000007fc       ?LockOnAlarmKey@@3PADA     004677fc     profile.obj
 0003:00000808       ?LowLimitTypeKey@@3PADA    00467808     profile.obj
 0003:00000818       ?MachineBasedPlotDisplayKey@@3PADA 00467818     profile.obj
 0003:00000830       ?MainFontNameKey@@3PADA    00467830     profile.obj
 0003:00000840       ?MonitorWireKey@@3PADA     00467840     profile.obj
 0003:0000084c       ?MultipartBaseWireKey@@3PADA 0046784c     profile.obj
 0003:00000854       ?NoNetworkKey@@3PADA       00467854     profile.obj
 0003:00000860       ?ParameterTabEditLevelKey@@3PADA 00467860     profile.obj
 0003:00000878       ?ParameterWindowFontKey@@3PADA 00467878     profile.obj
 0003:0000088c       ?PasswordLevelTimeoutKey@@3PADA 0046788c     profile.obj
 0003:000008a4       ?PasswordsAreEncriptedKey@@3PADA 004678a4     profile.obj
 0003:000008b8       ?PartBasedDisplayKey@@3PADA 004678b8     profile.obj
 0003:000008cc       ?PrintParametersKey@@3PADA 004678cc     profile.obj
 0003:000008dc       ?SaveAllPartsLevelKey@@3PADA 004678dc     profile.obj
 0003:000008f0       ?SaveAllAlarmShotsKey@@3PADA 004678f0     profile.obj
 0003:00000904       ?SaveChangesLevelKey@@3PADA 00467904     profile.obj
 0003:00000918       ?SerialNumberKey@@3PADA    00467918     profile.obj
 0003:00000928       ?ServiceToolsGrayLevelKey@@3PADA 00467928     profile.obj
 0003:00000940       ?SetupSheetLevelKey@@3PADA 00467940     profile.obj
 0003:00000950       ?ShowSetupSheetKey@@3PADA  00467950     profile.obj
 0003:00000960       ?SmoothFactorKey@@3PADA    00467960     profile.obj
 0003:00000970       ?SmoothNKey@@3PADA         00467970     profile.obj
 0003:00000978       ?SmoothCurvesKey@@3PADA    00467978     profile.obj
 0003:00000988       ?SnapshotKey@@3PADA        00467988     profile.obj
 0003:0000099c       ?StExitLevelKey@@3PADA     0046799c     profile.obj
 0003:000009ac       ?SubtractTimeoutKey@@3PADA 004679ac     profile.obj
 0003:000009bc       ?TurnOffAlarmsOnDownKey@@3PADA 004679bc     profile.obj
 0003:000009d0       ?UseDowntimeEntryKey@@3PADA 004679d0     profile.obj
 0003:000009e4       ?UseValveTestOutputKey@@3PADA 004679e4     profile.obj
 0003:000009f8       ?UseNullValveOutputKey@@3PADA 004679f8     profile.obj
 0003:00000a0c       ?VelocityChangesLevelKey@@3PADA 00467a0c     profile.obj
 0003:00000a24       ?VersionKey@@3PADA         00467a24     profile.obj
 0003:00000a30       ?HighLimitType@@3HA        00467a30     profile.obj
 0003:00000a34       ?AccelName@@3PADA          00467a34     profile.obj
 0003:00000a48       ?XdcrWindow@@3VWINDOW_CLASS@@A 00467a48     profile.obj
 0003:00000e8c       ?ShotListboxId@@3HA        00467e8c     chosshot.obj
 0003:000010d8       ?TotalHours@@3NA           004680d8     downbar.obj
 0003:000010f4       ?DayName@@3PAPADA          004680f4     editshif.obj
 0003:0000119c       ?Top_Edge@@3HA             0046819c     paramhis.obj
 0003:000011a8       ?CurrentHistorySelect@@3FA 004681a8     paramhis.obj
 0003:000011b0       ?LineHeight@@3HA           004681b0     paramwin.obj
 0003:00001548       ?n_per_sample@STAT_ENTRY@@0JA 00468548     trend.obj
 0003:0000154c       ?Parameters@@3VINT32_ARRAY_CLASS@@A 0046854c     trend.obj
 0003:00001580       ?Xdcr_Chan_A_Color@@3KA    00468580     xdcrplot.obj
 0003:00001584       ?Xdcr_Chan_B_Color@@3KA    00468584     xdcrplot.obj
 0003:00001588       ?Xdcr_BG_Color@@3KA        00468588     xdcrplot.obj
 0003:0000158c       ?Xdcr_Grid_Color@@3KA      0046858c     xdcrplot.obj
 0003:00001590       ?CurrentPosIndex@@3HA      00468590     xdcrplot.obj
 0003:00001644       ?FileTimeoutError@@3PADA   00468644     v5subs:dbsubs.obj
 0003:00001658       ?FileNotFoundError@@3PADA  00468658     v5subs:dbsubs.obj
 0003:00001668       ?PathNotFoundError@@3PADA  00468668     v5subs:dbsubs.obj
 0003:00001b48       ?ResultsString@@3PADA      00468b48     v5subs:partlist.obj
 0003:00001b70       ___security_cookie         00468b70     LIBCMT:gs_cookie.obj
 0003:00001b74       ___security_cookie_complement 00468b74     LIBCMT:gs_cookie.obj
 0003:00001b78       __fltused                  00468b78     LIBCMT:fpinit.obj
 0003:00001b7c       __ldused                   00468b7c     LIBCMT:fpinit.obj
 0003:00001c90       ___isa_enabled             00468c90     LIBCMT:cpu_disp.obj
 0003:00001ca0       __cfltcvt_tab              00468ca0     LIBCMT:cmiscdat.obj
 0003:00001cd0       __d_inf                    00468cd0     LIBCMT:util.obj
 0003:00001cd8       __d_ind                    00468cd8     LIBCMT:util.obj
 0003:00001ce0       __d_max                    00468ce0     LIBCMT:util.obj
 0003:00001ce8       __d_min                    00468ce8     LIBCMT:util.obj
 0003:00001cf0       __d_mzero                  00468cf0     LIBCMT:util.obj
 0003:00001d14       ___flsindex                00468d14     LIBCMT:tidtable.obj
 0003:00001d18       ___badioinfo               00468d18     LIBCMT:ioinit.obj
 0003:00001ec8       __mbctype                  00468ec8     LIBCMT:mbctype.obj
 0003:00001fd0       __mbcasemap                00468fd0     LIBCMT:mbctype.obj
 0003:000020d0       ___initialmbcinfo          004690d0     LIBCMT:mbctype.obj
 0003:000022f4       ___ptmbcinfo               004692f4     LIBCMT:mbctype.obj
 0003:000023e8       ___mb_cur_max              004693e8     LIBCMT:nlsdata.obj
 0003:000023ec       ___wclocalestr             004693ec     LIBCMT:nlsdata.obj
 0003:000023f0       ___lc_time_c               004693f0     LIBCMT:nlsdata.obj
 0003:00002554       ___ptlocinfo               00469554     LIBCMT:nlsdata.obj
 0003:00002558       ___initiallocinfo          00469558     LIBCMT:nlsdata.obj
 0003:00002610       ___initiallocalestructinfo 00469610     LIBCMT:nlsdata.obj
 0003:00002618       ___globallocalestatus      00469618     LIBCMT:glstatus.obj
 0003:00002620       __HUGE                     00469620     LIBCMT:huge.obj
 0003:00002760       __matherr_flag             00469760     LIBCMT:matherr.obj
 0003:00002770       __iob                      00469770     LIBCMT:_file.obj
 0003:00002a20       ___lconv                   00469a20     LIBCMT:lconv.obj
 0003:00002a24       ___lconv_static_decimal    00469a24     LIBCMT:lconv.obj
 0003:00002a28       ___lconv_c                 00469a28     LIBCMT:lconv.obj
 0003:00002a78       ___lconv_static_W_decimal  00469a78     LIBCMT:lconv.obj
 0003:00002a7c       __pctype                   00469a7c     LIBCMT:ctype.obj
 0003:00002a80       __pwctype                  00469a80     LIBCMT:ctype.obj
 0003:00002a84       ___abort_behavior          00469a84     LIBCMT:abort.obj
 0003:00002a90       __NLG_Destination          00469a90     LIBCMT:exsup.obj
 0003:00002aa0       __pow10pos                 00469aa0     LIBCMT:constpow.obj
 0003:00002c00       __pow10neg                 00469c00     LIBCMT:constpow.obj
 0003:00002d60       __confh                    00469d60     LIBCMT:initcon.obj
 0003:00002d64       ??_R0?AVWINDOW_CLASS@@@8   00469d64     profile.obj
 0003:00002d80       ??_R0?AVEDITOP_GRID_CLASS@@@8 00469d80     editop.obj
 0003:00002da0       ??_R0?AVCUGCtrl@@@8        00469da0     editop.obj
 0003:00002db8       ??_R0?AVGRID_CLASS@@@8     00469db8     gridclas.obj
 0003:00002dd4       ??_R0?AVDATA_ARRAY_CLASS@@@8 00469dd4     mplot.obj
 0003:00002df4       ??_R0?AVSINGLE_PLOT_CLASS@@@8 00469df4     mplot.obj
 0003:00002e14       ??_R0?AVPW_GRID_CLASS@@@8  00469e14     password.obj
 0003:00002e30       ??_R0?AVINT32_ARRAY_CLASS@@@8 00469e30     tcconfig.obj
 0003:00002e50       ??_R0?AVSHOT_ARRAY_CLASS@@@8 00469e50     xaxis.obj
 0003:00002e70       ??_R0?AVX_AXIS_CLASS@@@8   00469e70     xaxis.obj
 0003:00002e8c       ??_R0?AVFTII_ARRAY_DATA@@@8 00469e8c     v5subs:ftii_shot_data.obj
 0003:00002eac       ??_R0?AVFTII_PROFILE@@@8   00469eac     v5subs:ftii_shot_data.obj
 0003:00002ec8       ??_R0?AVCUGCnrBtn@@@8      00469ec8     dundas:ugcnrbtn.obj
 0003:00002ee0       ??_R0?AVCUGGrid@@@8        00469ee0     dundas:uggrid.obj
 0003:00002ef8       ??_R0?AVCUGHScroll@@@8     00469ef8     dundas:ughscrol.obj
 0003:00002f14       ??_R0?AVCUGSideHdg@@@8     00469f14     dundas:ugsidehd.obj
 0003:00002f30       ??_R0?AVCUGTopHdg@@@8      00469f30     dundas:ugtophdg.obj
 0003:00002f48       ??_R0?AVCUGVScroll@@@8     00469f48     dundas:ugvscrol.obj
 0003:00002f64       ??_R0?AVCUGDataSource@@@8  00469f64     dundas:ugdtasrc.obj
 0003:00002f80       ??_R0?AVCUGCellType@@@8    00469f80     dundas:ugceltyp.obj
 0003:00002f9c       ??_R0?AVCUGEdit@@@8        00469f9c     dundas:ugedit.obj
 0003:00002fb4       ??_R0?AVCUGTab@@@8         00469fb4     dundas:ugtab.obj
 0003:00002fcc       ??_R0?AVCUGGridInfo@@@8    00469fcc     dundas:uggdinfo.obj
 0003:00002fe8       ??_R0?AVCUGHint@@@8        00469fe8     dundas:ughint.obj
 0003:00003000       ??_R0?AVCUGDropListType@@@8 0046a000     dundas:ugdltype.obj
 0003:00003020       ??_R0?AVCUGArrowType@@@8   0046a020     dundas:ugctarrw.obj
 0003:0000303c       ??_R0?AVCUGMem@@@8         0046a03c     dundas:ugmemman.obj
 0003:00003054       ??_R0?AVCUGLstBox@@@8      0046a054     dundas:uglstbox.obj
 0003:0000306c       ??_R0?AVbad_alloc@std@@@8  0046a06c     LIBCMT:new.obj
 0003:00003088       ??_R0?AVexception@std@@@8  0046a088     LIBCMT:new.obj
 0003:000030a4       ??_R0?AVtype_info@@@8      0046a0a4     LIBCMT:typinfo.obj
 0003:000030c0       ?ParamHistoryWindow@@3PAUHWND__@@A 0046a0c0     profile.obj
 0003:000030c4       ?ViewParametersDialogWindow@@3PAUHWND__@@A 0046a0c4     profile.obj
 0003:000030c8       ?ColorDefinitionDialogWindow@@3PAUHWND__@@A 0046a0c8     profile.obj
 0003:000030cc       ?AlarmSummaryDialogWindow@@3PAUHWND__@@A 0046a0cc     profile.obj
 0003:000030d0       ?LoadFromNetworkDialogWindow@@3PAUHWND__@@A 0046a0d0     profile.obj
 0003:000030d4       ?IsHPM@@3_NA               0046a0d4     profile.obj
 0003:000030d5       ?ReadyForZoom@@3EA         0046a0d5     profile.obj
 0003:000030d6       ?GridIsVisible@@3EA        0046a0d6     profile.obj
 0003:000030d7       ?HaveLeftCursorLine@@3EA   0046a0d7     profile.obj
 0003:000030d8       ?MyDc@@3PAUHDC__@@A        0046a0d8     profile.obj
 0003:000030dc       ?NofDcOwners@@3HA          0046a0dc     profile.obj
 0003:000030e0       ?MainWindowRect@@3UtagRECT@@A 0046a0e0     profile.obj
 0003:000030f0       ?PlotWindowRect@@3UtagRECT@@A 0046a0f0     profile.obj
 0003:00003100       ?PrinterMargin@@3UtagRECT@@A 0046a100     profile.obj
 0003:00003110       ?RealTimeButtonRect@@3UtagRECT@@A 0046a110     profile.obj
 0003:00003120       ?NofCornerParameters@@3HA  0046a120     profile.obj
 0003:00003124       ?HaveCursorLine@@3EA       0046a124     profile.obj
 0003:00003125       ?Zooming@@3EA              0046a125     profile.obj
 0003:00003126       ?Printing@@3EA             0046a126     profile.obj
 0003:00003128       ?CornerParameters@@3PAHA   0046a128     profile.obj
 0003:0000321c       ?QuickPrint@@3EA           0046a21c     profile.obj
 0003:0000321d       ?Editing_Status_Screen@@3EA 0046a21d     profile.obj
 0003:0000325d       ?Smoothing@@3EA            0046a25d     profile.obj
 0003:0000325e       ?SmoothingVelocity@@3EA    0046a25e     profile.obj
 0003:0000325f       ?NullChar@@3DA             0046a25f     profile.obj
 0003:0000326c       ?SmoothingChannel@@3PAEA   0046a26c     profile.obj
 0003:00003274       ?ShotName@@3PADA           0046a274     profile.obj
 0003:0000327b       ?EmptyString@@3PADA        0046a27b     profile.obj
 0003:0000327c       ?PostImpactDisplayTime@@3MA 0046a27c     profile.obj
 0003:00003280       ?DialogTextColor@@3KA      0046a280     profile.obj
 0003:00003284       ?IsWindowsNT@@3EA          0046a284     profile.obj
 0003:00003285       ?RealTime@@3EA             0046a285     profile.obj
 0003:00003286       ?SingleMachineOnly@@3EA    0046a286     profile.obj
 0003:00003287       ?HaveHeader@@3EA           0046a287     profile.obj
 0003:00003288       ?OverlayMenuState@@3EA     0046a288     profile.obj
 0003:00003289       ?ViewReferenceMenuState@@3EA 0046a289     profile.obj
 0003:0000328a       ?ViewParametersDisplay@@3EA 0046a28a     profile.obj
 0003:0000328b       ?IsFullScreen@@3EA         0046a28b     profile.obj
 0003:0000328c       ?DialogIsActive@@3EA       0046a28c     profile.obj
 0003:0000328d       ?PrintingMultiplePlots@@3EA 0046a28d     profile.obj
 0003:0000328e       ?PartBasedDisplay@@3EA     0046a28e     profile.obj
 0003:0000328f       ?NeedNewStatusScreenColumnWidths@@3EA 0046a28f     profile.obj
 0003:00003290       ?NofParms@@3FA             0046a290     profile.obj
 0003:00003294       ?NofPoints@@3FA            0046a294     profile.obj
 0003:00003298       ?TimeCurve@@3FA            0046a298     profile.obj
 0003:0000329c       ?PosCurve@@3FA             0046a29c     profile.obj
 0003:000032a0       ?MaxPostPosition@@3MA      0046a2a0     profile.obj
 0003:000032a4       ?MinPostPosition@@3MA      0046a2a4     profile.obj
 0003:000032a8       ?Parms@@3PAMA              0046a2a8     profile.obj
 0003:00003398       ?Ph@@3UPROFILE_HEADER@@A   0046a398     profile.obj
 0003:00003418       ?Points@@3PAY0DGLA@MA      0046a418     profile.obj
 0003:0008bf98       ?MainInstance@@3PAUHINSTANCE__@@A 004f2f98     profile.obj
 0003:0008bf9c       ?MainWindow@@3PAUHWND__@@A 004f2f9c     profile.obj
 0003:0008bfa0       ?ToolTipWindow@@3PAUHWND__@@A 004f2fa0     profile.obj
 0003:0008bfa4       ?MultipleShotDialogWindow@@3PAUHWND__@@A 004f2fa4     profile.obj
 0003:0008bfa8       ?ExportAlarmsDialogWindow@@3PAUHWND__@@A 004f2fa8     profile.obj
 0003:0008bfac       ?ChooseDowntimeMachineWindow@@3PAUHWND__@@A 004f2fac     profile.obj
 0003:0008bfb0       ?MyFont@@3PAUHFONT__@@A    004f2fb0     profile.obj
 0003:0008bfb4       ?MyCharHeight@@3HA         004f2fb4     profile.obj
 0003:0008bfb8       ?MyCharWidth@@3HA          004f2fb8     profile.obj
 0003:0008bfbc       ?FirstDownCatButton@@3HA   004f2fbc     profile.obj
 0003:0008bfc0       ?LastDownCatButton@@3HA    004f2fc0     profile.obj
 0003:0008bfc4       ?StatusScreenTimerId@@3IA  004f2fc4     profile.obj
 0003:0008bfc8       ?PasswordLevelTimeoutId@@3IA 004f2fc8     profile.obj
 0003:0008bfcc       ?PasswordLevelTimeoutMs@@3IA 004f2fcc     profile.obj
 0003:0008bfd0       ?DateICanShowPressure@@3U_FILETIME@@A 004f2fd0     profile.obj
 0003:0008bfd8       ?NofPlotCurves@@3FA        004f2fd8     profile.obj
 0003:0008bfdc       ?PreImpactPlotCurveTypes@@3GA 004f2fdc     profile.obj
 0003:0008bfe0       ?PlotCurve@@3PAUPLOT_CURVE_ENTRY@@A 004f2fe0     profile.obj
 0003:0008c034       ?PostImpactPlotCurveTypes@@3GA 004f3034     profile.obj
 0003:0008c038       ?CurrentPasswordLevel@@3JA 004f3038     profile.obj
 0003:0008c03c       ?NofOverlayShots@@3FA      004f303c     profile.obj
 0003:0008c040       ?LowLimitType@@3HA         004f3040     profile.obj
 0003:0008c044       ?AccelHandle@@3PAUHACCEL__@@A 004f3044     profile.obj
 0003:0008c048       ?MainPlotWindow@@3PAUHWND__@@A 004f3048     profile.obj
 0003:0008c04c       ?MenuHelpWindow@@3PAUHWND__@@A 004f304c     profile.obj
 0003:0008c050       ?ChospartWindow@@3PAUHWND__@@A 004f3050     profile.obj
 0003:0008c054       ?ChosshotWindow@@3PAUHWND__@@A 004f3054     profile.obj
 0003:0008c058       ?ParameterWindow@@3PAUHWND__@@A 004f3058     profile.obj
 0003:0008c05c       ?ZoomBoxWindow@@3PAUHWND__@@A 004f305c     profile.obj
 0003:0008c060       ?SmallZoomBoxWindow@@3PAUHWND__@@A 004f3060     profile.obj
 0003:0008c064       ?CornerParamDialogWindow@@3PAUHWND__@@A 004f3064     profile.obj
 0003:0008c068       ?Region@@3PAUREGION_ENTRY@@A 004f3068     profile.obj
 0003:0008c0e0       ?Axis@@3PAUAXIS_ENTRY@@A   004f30e0     profile.obj
 0003:0008c138       ?DowntimeComputerName@@3VSTRING_CLASS@@A 004f3138     profile.obj
 0003:0008c140       ?DowntimeMachineName@@3VSTRING_CLASS@@A 004f3140     profile.obj
 0003:0008c148       ?ComputerName@@3VSTRING_CLASS@@A 004f3148     profile.obj
 0003:0008c150       ?MachineName@@3VSTRING_CLASS@@A 004f3150     profile.obj
 0003:0008c158       ?PartName@@3VSTRING_CLASS@@A 004f3158     profile.obj
 0003:0008c160       ?CurrentLanguage@@3VSTRING_CLASS@@A 004f3160     profile.obj
 0003:0008c168       ?CurrentMarks@@3VMARKS_CLASS@@A 004f3168     profile.obj
 0003:0008c814       ?ChannelAxisLabel@@3VCHAXIS_LABEL_CLASS@@A 004f3814     profile.obj
 0003:0008c81c       ?FontList@@3VFONT_LIST_CLASS@@A 004f381c     profile.obj
 0003:0008c820       ?CurrentParam@@3VPARAMETER_CLASS@@A 004f3820     profile.obj
 0003:0008d5d0       ?CurrentPart@@3VPART_CLASS@@A 004f45d0     profile.obj
 0003:0008d6f4       ?Cats@@3VDOWNCAT_NAME_CLASS@@A 004f46f4     profile.obj
 0003:0008d738       ?CurrentSort@@3VPARAM_INDEX_CLASS@@A 004f4738     profile.obj
 0003:0008d828       ?CurrentMachine@@3VMACHINE_CLASS@@A 004f4828     profile.obj
 0003:0008d8c0       ?CurrentFtAnalog@@3VFTANALOG_CLASS@@A 004f48c0     profile.obj
 0003:0008dde8       ?CurrentFtCalc@@3VFTCALC_CLASS@@A 004f4de8     profile.obj
 0003:0008dfd0       ?SubCats@@3VDOWNSCAT_NAME_CLASS@@A 004f4fd0     profile.obj
 0003:0008dfd8       ?OverlayShot@@3PAUPROFILE_NAME_ENTRY@@A 004f4fd8     profile.obj
 0003:0008e118       ?MachList@@3VMACHINE_NAME_LIST_CLASS@@A 004f5118     profile.obj
 0003:0008e128       ?RealtimeMachineList@@3VREALTIME_MACHINE_LIST_CLASS@@A 004f5128     profile.obj
 0003:0008e138       ?StringTable@@3VSTRINGTABLE_CLASS@@A 004f5138     profile.obj
 0003:0008e190       ?ParameterListTitle@@3PAVSTRING_CLASS@@A 004f5190     profile.obj
 0003:0008e1b8       ?MainMenu@@3VMENU_CONTROL_ENTRY@@A 004f51b8     profile.obj
 0003:0008e278       ?PopupMenu@@3VPOPUP_CONTROL_ENTRY@@A 004f5278     profile.obj
 0003:0008e30c       ?ArialFontName@@3VSTRING_CLASS@@A 004f530c     profile.obj
 0003:0008e328       ?Grid@@3VGRID_CLASS@@A     004f5328     profile.obj
 0003:0008e5dc       ?ArialBoldFontName@@3VSTRING_CLASS@@A 004f55dc     profile.obj
 0003:0008e5e4       ?TimesRomanFontName@@3VSTRING_CLASS@@A 004f55e4     profile.obj
 0003:0008e5ec       ?NewSetupMachine@@3VSTRING_CLASS@@A 004f55ec     profile.obj
 0003:0008e648       ?PrintToClipRegion@@3PAUREGION_ENTRY@@A 004f5648     profile.obj
 0003:0008e9e0       ?MyShotName@@3PADA         004f59e0     chosshot.obj
 0003:0008e9e8       ?MyPart@@3UPART_NAME_ENTRY@@A 004f59e8     chosshot.obj
 0003:0008ea68       ?MyWin@@3PAUHWND__@@A      004f5a68     colordef.obj
 0003:0008ea6c       ?SavedNormalColor@@3PAKA   004f5a6c     colordef.obj
 0003:0008eaa0       ?SavedPrNormalColor@@3PAKA 004f5aa0     colordef.obj
 0003:0008ead4       ?SavedReferenceColor@@3PAKA 004f5ad4     colordef.obj
 0003:0008eb08       ?SavedPrReferenceColor@@3PAKA 004f5b08     colordef.obj
 0003:0008eb3c       ?SavedAlarmColor@@3KA      004f5b3c     colordef.obj
 0003:0008eb40       ?SavedNoAlarmColor@@3KA    004f5b40     colordef.obj
 0003:0008eb44       ?SavedWarningColor@@3KA    004f5b44     colordef.obj
 0003:0008eb48       ?SavedDialogTextColor@@3KA 004f5b48     colordef.obj
 0003:0008eb98       ?Vlb@@3VVIRTUAL_LISTBOX_CLASS@@A 004f5b98     dbarcfg.obj
 0003:0008ec40       ?TopButtonY@@3JA           004f5c40     downbar.obj
 0003:0008ec44       ?ButtonHeight@@3JA         004f5c44     downbar.obj
 0003:0008ec4c       ?LeftX@@3HA                004f5c4c     downbar.obj
 0003:0008ec50       ?HoursX@@3HA               004f5c50     downbar.obj
 0003:0008ec54       ?PercentX@@3HA             004f5c54     downbar.obj
 0003:0008ec58       ?Config@@3VDOWNBAR_CONFIG_CLASS@@A 004f5c58     downbar.obj
 0003:0008ec68       ?Titles@@3VTEXT_LIST_CLASS@@A 004f5c68     downbar.obj
 0003:0008ec78       ?NoCode@@3VDOWNTIME_BASE_CLASS@@A 004f5c78     downbar.obj
 0003:0008ec84       ?UpCode@@3VDOWNTIME_BASE_CLASS@@A 004f5c84     downbar.obj
 0003:0008ec90       ?NoCategory@@3VCAT_BASE_CLASS@@A 004f5c90     downbar.obj
 0003:0008ec94       ?CurrentCategory@@3VCAT_BASE_CLASS@@A 004f5c94     downbar.obj
 0003:0008ec98       ?Dh@@3VDOWNTIME_SUM_CLASS@@A 004f5c98     downbar.obj
 0003:0008ecb4       ?Cs@@3VCAT_SUM_CLASS@@A    004f5cb4     downbar.obj
 0003:0008ecf4       ?my_default_font@EDITOP_GRID_CLASS@@0PAUHFONT__@@A 004f5cf4     editop.obj
 0003:0008f000       ?my_default_font@GRID_CLASS@@0PAUHFONT__@@A 004f6000     gridclas.obj
 0003:0008f090       ?LowHistoryShotNumber@@3JA 004f6090     paramhis.obj
 0003:0008f094       ?HighHistoryShotNumber@@3JA 004f6094     paramhis.obj
 0003:0008f0d8       ?Grid@@3VPW_GRID_CLASS@@A  004f60d8     password.obj
 0003:0008f390       ?CoOptionsExeDir@@3VNAME_CLASS@@A 004f6390     password.obj
 0003:0008f518       ?MyHeader@@3PAUHWND__@@A   004f6518     status.obj
 0003:0008f51c       ?HeaderHeight@@3HA         004f651c     status.obj
 0003:0008f520       ?DeltaY@@3HA               004f6520     status.obj
 0003:0008f608       ?TcConfig@@3VTREND_CONFIG_CLASS@@A 004f6608     trend.obj
 0003:0008f670       ?XAxis@@3VX_AXIS_CLASS@@A  004f6670     trend.obj
 0003:0008f6e8       ?Plots@@3VMULTI_PLOT_CLASS@@A 004f66e8     trend.obj
 0003:0008f710       ?Xdcr_Axis_Color@@3KA      004f6710     xdcrplot.obj
 0003:0008f714       ?Xdcr_BG_Brush@@3PAUHBRUSH__@@A 004f6714     xdcrplot.obj
 0003:0008f718       ___@@_PchSym_@00@UhlfixvhUevihrlmHUvnkgbUuivvUvnkgbOlyq@6B73A80F87A14A31 004f6718     empty.obj
 0003:0008f74b       ?emptystring@STRING_CLASS@@0PADA 004f674b     v5subs:stringcl.obj
 0003:0008f932       ?emptystring@STRING_ARRAY_CLASS@@0PADA 004f6932     v5subs:strarray.obj
 0003:0008fb84       ?SmoothN@@3JA              004f6b84     v5subs:plotsubs.obj
 0003:0008fb88       ?SmoothFactor@@3MA         004f6b88     v5subs:plotsubs.obj
 0003:0008fb8c       ?Shifts@@3PAUSHIFT@@A      004f6b8c     v5subs:shift.obj
 0003:0008fb90       ?NofShifts@@3FA            004f6b90     v5subs:shift.obj
 0003:0008fd60       ?lpfnOldhScroll@@3P6GJPAUHWND__@@IIJ@ZA 004f6d60     dundas:ughscrol.obj
 0003:0008fd64       ?lpfnOldvScroll@@3P6GJPAUHWND__@@IIJ@ZA 004f6d64     dundas:ugvscrol.obj
 0003:0008fd6c       ?lpfnOldEdit@@3P6GJPAUHWND__@@IIJ@ZA 004f6d6c     dundas:ugedit.obj
 0003:0008fd70       ?lpfnOldListBox@@3P6GJPAUHWND__@@IIJ@ZA 004f6d70     dundas:ugdltype.obj
 0003:00090098       ___fastflag                004f7098     LIBCMT:fpinit.obj
 0003:0009009c       __aenvptr                  004f709c     LIBCMT:wincrt0.obj
 0003:000900a0       __wenvptr                  004f70a0     LIBCMT:wincrt0.obj
 0003:000900a4       ?_pnhHeap@@3P6AHI@ZA       004f70a4     LIBCMT:handler.obj
 0003:000900a8       __C_Exit_Done              004f70a8     LIBCMT:crt0dat.obj
 0003:000900ac       ___argc                    004f70ac     LIBCMT:crt0dat.obj
 0003:000900b0       ___argv                    004f70b0     LIBCMT:crt0dat.obj
 0003:000900b4       ___wargv                   004f70b4     LIBCMT:crt0dat.obj
 0003:000900b8       __environ                  004f70b8     LIBCMT:crt0dat.obj
 0003:000900bc       __wenviron                 004f70bc     LIBCMT:crt0dat.obj
 0003:000900c0       __pgmptr                   004f70c0     LIBCMT:crt0dat.obj
 0003:000900c4       __wpgmptr                  004f70c4     LIBCMT:crt0dat.obj
 0003:000900c8       __umaskval                 004f70c8     LIBCMT:crt0dat.obj
 0003:000900cc       __exitflag                 004f70cc     LIBCMT:crt0dat.obj
 0003:000900d0       __C_Termination_Done       004f70d0     LIBCMT:crt0dat.obj
 0003:000900d4       ___winitenv                004f70d4     LIBCMT:crt0dat.obj
 0003:000900d8       ___initenv                 004f70d8     LIBCMT:crt0dat.obj
 0003:000900dc       __maxwait                  004f70dc     LIBCMT:crtheap.obj
 0003:000900e0       ___isa_available           004f70e0     LIBCMT:cpu_disp.obj
 0003:000900e4       ___favor                   004f70e4     LIBCMT:cpu_disp.obj
 0003:000900f0       __crtheap                  004f70f0     LIBCMT:heapinit.obj
 0003:000900f8       ___pioinfo                 004f70f8     LIBCMT:ioinit.obj
 0003:00090300       ___app_type                004f7300     LIBCMT:crt0msg.obj
 0003:00090930       ___error_mode              004f7930     LIBCMT:errmode.obj
 0003:00090934       ___pInvalidArgHandler      004f7934     LIBCMT:invarg.obj
 0003:00090938       ___mbcodepage              004f7938     LIBCMT:mbctype.obj
 0003:0009093c       ___ismbcodepage            004f793c     LIBCMT:mbctype.obj
 0003:00090940       ___mbulinfo                004f7940     LIBCMT:mbctype.obj
 0003:0009094c       ___mblocalename            004f794c     LIBCMT:mbctype.obj
 0003:00090954       ___locale_changed          004f7954     LIBCMT:wsetloca.obj
 0003:0009095c       __newmode                  004f795c     LIBCMT:_newmode.obj
 0003:00090ab0       ?__pInconsistency@@3P6AXXZA 004f7ab0     LIBCMT:hooks.obj
 0003:00090ab4       ___pPurecall               004f7ab4     LIBCMT:inithelp.obj
 0003:00090ad0       __stdbuf                   004f7ad0     LIBCMT:_sftbuf.obj
 0003:00090ad8       ?pArgList@UnDecorator@@0PAVReplicator@@A 004f7ad8     LIBCMT:undname.obj
 0003:00090adc       ?pZNameList@UnDecorator@@0PAVReplicator@@A 004f7adc     LIBCMT:undname.obj
 0003:00090ae0       ?pTemplateArgList@UnDecorator@@0PAVReplicator@@A 004f7ae0     LIBCMT:undname.obj
 0003:00090ae4       ?gName@UnDecorator@@0PBDB  004f7ae4     LIBCMT:undname.obj
 0003:00090ae8       ?name@UnDecorator@@0PBDB   004f7ae8     LIBCMT:undname.obj
 0003:00090aec       ?outputString@UnDecorator@@0PADA 004f7aec     LIBCMT:undname.obj
 0003:00090af0       ?maxStringLength@UnDecorator@@0HA 004f7af0     LIBCMT:undname.obj
 0003:00090af4       ?disableFlags@UnDecorator@@0KA 004f7af4     LIBCMT:undname.obj
 0003:00090af8       ?fExplicitTemplateParams@UnDecorator@@0_NA 004f7af8     LIBCMT:undname.obj
 0003:00090af9       ?fGetTemplateArgumentList@UnDecorator@@0_NA 004f7af9     LIBCMT:undname.obj
 0003:00090afc       ?m_pGetParameter@UnDecorator@@0P6APADJ@ZA 004f7afc     LIBCMT:undname.obj
 0003:00090b14       __outputformat             004f7b14     LIBCMT:outputformat.obj
 0003:00090b18       __cflush                   004f7b18     LIBCMT:_file.obj
 0003:00090b30       ___lconv_static_null       004f7b30     LIBCMT:lconv.obj
 0003:00090b34       ___lconv_static_W_null     004f7b34     LIBCMT:lconv.obj
 0003:00090b40       __bufin                    004f7b40     <common>
 0003:00091b40       ___piob                    004f8b40     <common>
 0003:00091b44       __nstream                  004f8b44     <common>
 0003:00091b48       ___use_sse2_mathfcns       004f8b48     <common>
 0003:00091b4c       __pmatherr                 004f8b4c     <common>
 0003:00091b50       __nhandle                  004f8b50     <common>
 0003:00091b60       _encodedKERNEL32Functions  004f8b60     <common>
 0003:00091be4       __debugger_hook_dummy      004f8be4     <common>
 0003:00091be8       __pDestructExceptionObject 004f8be8     <common>
 0003:00091bec       ___dyn_tls_init_callback   004f8bec     <common>
 0003:00091bf0       ___onexitend               004f8bf0     <common>
 0003:00091bf4       ___onexitbegin             004f8bf4     <common>
 0003:00091bf8       ___mbctype_initialized     004f8bf8     <common>
 0003:00091bfc       ___env_initialized         004f8bfc     <common>
 0003:00091c00       __acmdln                   004f8c00     <common>

 entry point at        0001:0004c5bb

 Static symbols

 0001:00000000       ??__EArialBoldFontName@@YAXXZ 00401000 f   profile.obj
 0001:00000016       ??__EArialFontName@@YAXXZ  00401016 f   profile.obj
 0001:0000002c       ??__EAxis@@YAXXZ           0040102c f   profile.obj
 0001:0000004c       ??__ECats@@YAXXZ           0040104c f   profile.obj
 0001:00000058       ??__EChannelAxisLabel@@YAXXZ 00401058 f   profile.obj
 0001:00000064       ??__EComputerName@@YAXXZ   00401064 f   profile.obj
 0001:0000007a       ??__ECurrentFtAnalog@@YAXXZ 0040107a f   profile.obj
 0001:00000090       ??__ECurrentFtCalc@@YAXXZ  00401090 f   profile.obj
 0001:000000a6       ??__ECurrentLanguage@@YAXXZ 004010a6 f   profile.obj
 0001:000000bc       ??__ECurrentMachine@@YAXXZ 004010bc f   profile.obj
 0001:000000d2       ??__ECurrentMarks@@YAXXZ   004010d2 f   profile.obj
 0001:000000e8       ??__ECurrentParam@@YAXXZ   004010e8 f   profile.obj
 0001:000000fe       ??__ECurrentPart@@YAXXZ    004010fe f   profile.obj
 0001:00000114       ??__ECurrentSort@@YAXXZ    00401114 f   profile.obj
 0001:0000012a       ??__EDayParamCurrentEntry@@YAXXZ 0040112a f   profile.obj
 0001:00000140       ??__EDayParamFont@@YAXXZ   00401140 f   profile.obj
 0001:00000156       ??__EDayParamLb@@YAXXZ     00401156 f   profile.obj
 0001:00000162       ??__EDayParamTitle@@YAXXZ  00401162 f   profile.obj
 0001:00000178       ??__EDowntimeComputerName@@YAXXZ 00401178 f   profile.obj
 0001:0000018e       ??__EDowntimeEntryLb@@YAXXZ 0040118e f   profile.obj
 0001:0000019a       ??__EDowntimeEntryMachine@@YAXXZ 0040119a f   profile.obj
 0001:000001b0       ??__EDowntimeMachineName@@YAXXZ 004011b0 f   profile.obj
 0001:000001c6       ??__EFontList@@YAXXZ       004011c6 f   profile.obj
 0001:000001dc       ??__EGrid@@YAXXZ           004011dc f   profile.obj
 0001:000001f2       ??__EMachList@@YAXXZ       004011f2 f   profile.obj
 0001:00000208       ??__EMachineName@@YAXXZ    00401208 f   profile.obj
 0001:0000021e       ??__EMainMenu@@YAXXZ       0040121e f   profile.obj
 0001:00000234       ??__ENewSetupMachine@@YAXXZ 00401234 f   profile.obj
 0001:0000024a       ??__EOverlayShot@@YAXXZ    0040124a f   profile.obj
 0001:0000026f       ??__EPToCHistHeight@@YAXXZ 0040126f f   profile.obj
 0001:00000285       ??__EPToCHistWidth@@YAXXZ  00401285 f   profile.obj
 0001:0000029b       ??__EParameterListTitle@@YAXXZ 0040129b f   profile.obj
 0001:000002c0       ??__EPartName@@YAXXZ       004012c0 f   profile.obj
 0001:000002d6       ??__EPopupMenu@@YAXXZ      004012d6 f   profile.obj
 0001:000002ec       ??__EPrintToClipCommand@@YAXXZ 004012ec f   profile.obj
 0001:00000302       ??__EPrintToClipFont@@YAXXZ 00401302 f   profile.obj
 0001:00000318       ??__EPrintToClipRegion@@YAXXZ 00401318 f   profile.obj
 0001:00000342       ??__ERealtimeMachineList@@YAXXZ 00401342 f   profile.obj
 0001:00000358       ??__ERegion@@YAXXZ         00401358 f   profile.obj
 0001:00000382       ??__EStringTable@@YAXXZ    00401382 f   profile.obj
 0001:00000398       ??__ESubCats@@YAXXZ        00401398 f   profile.obj
 0001:000003a4       ??__ETimesRomanFontName@@YAXXZ 004013a4 f   profile.obj
 0001:000003ba       ??__EXdcrWindow@@YAXXZ     004013ba f   profile.obj
 0001:000003c6       ??__EMyPart@@YAXXZ         004013c6 f   chosshot.obj
 0001:000003dc       ??__EVlb@@YAXXZ            004013dc f   dbarcfg.obj
 0001:000003f2       ??__EFixedChannels@@YAXXZ  004013f2 f   dconfig.obj
 0001:000003fe       ??__EFixedPressures@@YAXXZ 004013fe f   dconfig.obj
 0001:0000040a       ??__EIni@@YAXXZ            0040140a f   dconfig.obj
 0001:00000416       ??__EConfig@@YAXXZ         00401416 f   downbar.obj
 0001:0000042c       ??__ECurrentCategory@@YAXXZ 0040142c f   downbar.obj
 0001:0000043d       ??__EDh@@YAXXZ             0040143d f   downbar.obj
 0001:00000460       ??__ENoCategory@@YAXXZ     00401460 f   downbar.obj
 0001:00000471       ??__ENoCode@@YAXXZ         00401471 f   downbar.obj
 0001:00000483       ??__ETitles@@YAXXZ         00401483 f   downbar.obj
 0001:00000499       ??__EUpCode@@YAXXZ         00401499 f   downbar.obj
 0001:000004ae       ??__EGrid@@YAXXZ           004014ae f   editop.obj
 0001:000004c4       ??__EEmptyPlot@@YAXXZ      004014c4 f   mplot.obj
 0001:000004da       ??__EFontList@@YAXXZ       004014da f   paramwin.obj
 0001:000004f0       ??__ECoOptionsExeDir@@YAXXZ 004014f0 f   password.obj
 0001:00000506       ??__EGrid@@YAXXZ           00401506 f   password.obj
 0001:0000051c       ??__ELogFileName@@YAXXZ    0040151c f   password.obj
 0001:00000532       ??__EPassword@@YAXXZ       00401532 f   password.obj
 0001:0000053e       ??__EPasswordLogFormat@@YAXXZ 0040153e f   password.obj
 0001:00000554       ??__EAnalogSensor@@YAXXZ   00401554 f   plot.obj
 0001:0000056a       ??__EDe@@YAXXZ             0040156a f   status.obj
 0001:00000578       ??__EFontList@@YAXXZ       00401578 f   status.obj
 0001:0000058e       ??__ETc@@YAXXZ             0040158e f   tcconfig.obj
 0001:0000059a       ??__Elinechanged@@YAXXZ    0040159a f   tcconfig.obj
 0001:000005b0       ??__ECurrent@@YAXXZ        004015b0 f   trend.obj
 0001:000005c6       ??__EParameters@@YAXXZ     004015c6 f   trend.obj
 0001:000005d2       ??__EPlots@@YAXXZ          004015d2 f   trend.obj
 0001:000005e8       ??__ETcConfig@@YAXXZ       004015e8 f   trend.obj
 0001:000005fe       ??__EXAxis@@YAXXZ          004015fe f   trend.obj
 0001:00000614       ??__EEmptyString@@YAXXZ    00401614 f   v5subs:nameclas.obj
 0001:0000062a       ??__EMyComputer@@YAXXZ     0040162a f   v5subs:nameclas.obj
 0001:00000634       ??__EEmptySensor@@YAXXZ    00401634 f   v5subs:asensor.obj
 0001:0000064a       ??__EEmptyDowncatEntry@@YAXXZ 0040164a f   v5subs:catclass.obj
 0001:00000654       ??__EEmptyDownscatEntry@@YAXXZ 00401654 f   v5subs:catclass.obj
 0001:0000065e       ??__Eempty_entry@@YAXXZ    0040165e f   v5subs:setpoint.obj
 0001:0000067e       ??__EMyComputer@@YAXXZ     0040167e f   v5subs:computer.obj
 0001:00000694       ??__ENoComputer@@YAXXZ     00401694 f   v5subs:computer.obj
 0001:000006aa       ??__EEmptyString@@YAXXZ    004016aa f   v5subs:machname.obj
 0001:000006c0       ??__EFontList@@YAXXZ       004016c0 f   v5subs:stringtable.obj
 0001:000006d6       ??__EEventList@@YAXXZ      004016d6 f   v5subs:client.obj
 0001:000006e2       ??__ET@@YAXXZ              004016e2 f   v5subs:semaphor.obj
 0001:000006f8       ??__EExeDirectory@@YAXXZ   004016f8 f   v5subs:gexedir.obj
 0001:0000070e       ??__EFontList@@YAXXZ       0040170e f   v5subs:menuctrl.obj
 0001:00000724       ??__EFontList@@YAXXZ       00401724 f   v5subs:popctrl.obj
 0001:00000d07       ?alarm_lb_string@@YAPADPAUHWND__@@JAAVALARM_SUMMARY_CLASS@@@Z 00401d07 f   profile.obj
 0001:000011af       ?append_overlay_shot@@YAEXZ 004021af f   profile.obj
 0001:00001281       ?begin_day_param_display@@YAXXZ 00402281 f   profile.obj
 0001:000016a6       ?calculate_yaxis_limits@@YAXHH@Z 004026a6 f   profile.obj
 0001:00001871       ?check_for_human@@YAXXZ    00402871 f   profile.obj
 0001:000019bf       ?check_zoom_box_labels@@YAXXZ 004029bf f   profile.obj
 0001:00001b96       ?clear_axes@@YAXXZ         00402b96 f   profile.obj
 0001:00001ba9       ?clear_one_axis@@YAXF@Z    00402ba9 f   profile.obj
 0001:00001bd7       ?clear_y_axes@@YAXXZ       00402bd7 f   profile.obj
 0001:00001c09       ?copy_machine_list_to_clipboard@@YAXPAUHWND__@@@Z 00402c09 f   profile.obj
 0001:00002067       ?create_bigfont@@YAXPAUHDC__@@@Z 00403067 f   profile.obj
 0001:00002364       ?create_chospart_window@@YAXXZ 00403364 f   profile.obj
 0001:000023d7       ?create_chosshot_window@@YAXXZ 004033d7 f   profile.obj
 0001:00002434       ?create_grid@@YAXXZ        00403434 f   profile.obj
 0001:000025e0       ?create_printer_font@@YAXAAUtagRECT@@@Z 004035e0 f   profile.obj
 0001:00002abd       ?do_keyboard_zoom_button@@YAXXZ 00403abd f   profile.obj
 0001:00002c2e       ?do_newsetup@@YAXXZ        00403c2e f   profile.obj
 0001:00002d93       ?do_newshot@@YAXXZ         00403d93 f   profile.obj
 0001:00002f06       ?do_overlay_toggle@@YAXH@Z 00403f06 f   profile.obj
 0001:00002f45       ?do_popup_menu@@YAXJ@Z     00403f45 f   profile.obj
 0001:000032d6       ?do_xdcr_click@@YAXUtagPOINT@@@Z 004042d6 f   profile.obj
 0001:000034cc       ?do_zoom_button@@YAXUtagPOINT@@@Z 004044cc f   profile.obj
 0001:00003b1b       ?draw_cursor_line@@YAXH@Z  00404b1b f   profile.obj
 0001:00003c16       ?draw_horizontal_tics@@YAXAAUtagRECT@@HPAUHPEN__@@1@Z 00404c16 f   profile.obj
 0001:00003caf       ?draw_line@@YAXHHHH@Z      00404caf f   profile.obj
 0001:00003fd5       ?draw_rectangle@@YAXAAUtagRECT@@@Z 00404fd5 f   profile.obj
 0001:000040ca       ?draw_x_axis@@YAXAAUMINMAX@@HAAUtagRECT@@FFK@Z 004050ca f   profile.obj
 0001:0000425a       ?enable_edit_button@@YAXPAUHWND__@@@Z 0040525a f   profile.obj
 0001:000043ce       ?end_day_param_display@@YAXXZ 004053ce f   profile.obj
 0001:00004445       ?end_downtime_entry_dialog@@YAXXZ 00405445 f   profile.obj
 0001:0000445d       ?erase_cursor_line@@YAXXZ  0040545d f   profile.obj
 0001:0000447a       ?erase_left_cursor_line@@YAXXZ 0040547a f   profile.obj
 0001:000044ac       ?fill_cat_and_subcat_lb@@YAXXZ 004054ac f   profile.obj
 0001:00004581       ?fill_choose_downtime_machine_listbox@@YAEAAVLISTBOX_CLASS@@@Z 00405581 f   profile.obj
 0001:000046e8       ?fill_corner_param_listbox@@YAXXZ 004056e8 f   profile.obj
 0001:00004858       ?fill_operator_signon_listboxes@@YAXPAUHWND__@@@Z 00405858 f   profile.obj
 0001:00004b34       ?force_downtime_popup@@YAXXZ 00405b34 f   profile.obj
 0001:00004bac       ?get_alarm_data@@YAXPAUHWND__@@@Z 00405bac f   profile.obj
 0001:00004deb       ?get_alarm_date_extents@@YAEXZ 00405deb f   profile.obj
 0001:0000519c       ?get_mydc@@YAXXZ           0040619c f   profile.obj
 0001:000051c2       ?get_new_downtime_machine@@YAXAAVLISTBOX_CLASS@@@Z 004061c2 f   profile.obj
 0001:000053bd       ?goto_next_shot@@YAXH@Z    004063bd f   profile.obj
 0001:000054d4       ?handle_selection@@YAXH@Z  004064d4 f   profile.obj
 0001:00005cdc       ?init_tsl_boxes@@YAXPAUHWND__@@@Z 00406cdc f   profile.obj
 0001:00005eb6       ?load_machlist@@YAXXZ      00406eb6 f   profile.obj
 0001:00006142       ?load_main_menu@@YAXXZ     00407142 f   profile.obj
 0001:00006248       ?load_myfont@@YAXXZ        00407248 f   profile.obj
 0001:00006307       ?load_part_info@@YAEPAUPROFILE_NAME_ENTRY@@@Z 00407307 f   profile.obj
 0001:00006353       ?load_part_info@@YAEXZ     00407353 f   profile.obj
 0001:00006647       ?load_resources@@YAXXZ     00407647 f   profile.obj
 0001:00006cf4       $LN95                      00407cf4     profile.obj
 0001:000077cc       $LN196                     004087cc     profile.obj
 0001:00007828       $LN197                     00408828     profile.obj
 0001:0000788c       ?make_a_list_of_machines@@YAXPAUHWND__@@@Z 0040888c f   profile.obj
 0001:00008052       ?next_time_period@@YAXPAUHWND__@@H@Z 00409052 f   profile.obj
 0001:00008326       ?paint_background@@YAXXZ   00409326 f   profile.obj
 0001:000083b1       ?paint_day_param_display@@YAXAAUtagPAINTSTRUCT@@@Z 004093b1 f   profile.obj
 0001:000085c8       ?paint_me@@YAXXZ           004095c8 f   profile.obj
 0001:00008823       ?paint_the_curves@@YAXXZ   00409823 f   profile.obj
 0001:0000893c       ?paint_the_profile@@YAXXZ  0040993c f   profile.obj
 0001:00008a7a       ?plot_curve_index@@YAHG@Z  00409a7a f   profile.obj
 0001:00008aa3       ?pos_of_time@@YAEAAM@Z     00409aa3 f   profile.obj
 0001:00008b5a       ?position_corner_param_dialog@@YAXXZ 00409b5a f   profile.obj
 0001:00008cfa       ?position_machine_list_listbox@@YAXPAUHWND__@@@Z 00409cfa f   profile.obj
 0001:00008e9b       ?position_zoom_box_window@@YAXXZ 00409e9b f   profile.obj
 0001:00009014       ?print_alarm_summary@@YAXXZ 0040a014 f   profile.obj
 0001:00009bec       ?print_zoom_box@@YAXXZ     0040abec f   profile.obj
 0001:00009e22       ?printer_parameter_box_height@@YAHXZ 0040ae22 f   profile.obj
 0001:0000a01a       ?register_for_current_machine@@YAXXZ 0040b01a f   profile.obj
 0001:0000a069       ?release_mydc@@YAXXZ       0040b069 f   profile.obj
 0001:0000a099       ?remove_overlay_shot@@YAXH@Z 0040b099 f   profile.obj
 0001:0000a0ef       ?reset_plot_curves@@YAXXZ  0040b0ef f   profile.obj
 0001:0000aefc       ?rod_head_label@@YAXXZ     0040befc f   profile.obj
 0001:0000b0e0       ?run_external_program@@YAEH@Z 0040c0e0 f   profile.obj
 0001:0000b1c1       ?run_monall@@YAXXZ         0040c1c1 f   profile.obj
 0001:0000b216       ?run_tool@@YAXH@Z          0040c216 f   profile.obj
 0001:0000b2f0       ?save_changes@@YAXXZ       0040c2f0 f   profile.obj
 0001:0000b4a5       ?save_screen_types@@YAXXZ  0040c4a5 f   profile.obj
 0001:0000b52b       ?save_serial_number@@YA_NPAUHWND__@@@Z 0040c52b f   profile.obj
 0001:0000b5a7       ?save_signed_on_operator@@YAXPAUHWND__@@@Z 0040c5a7 f   profile.obj
 0001:0000b7d8       ?save_tsl_tbox_to_part@@YAXPAUHWND__@@@Z 0040c7d8 f   profile.obj
 0001:0000b927       ?select_myfont@@YAXXZ      0040c927 f   profile.obj
 0001:0000b994       ?select_printer_font@@YAXXZ 0040c994 f   profile.obj
 0001:0000b9f0       ?set_alarm_summary_tab_stops@@YAXPAUHWND__@@@Z 0040c9f0 f   profile.obj
 0001:0000ba7a       ?set_csv_shot_file_strings@@YAXPAUHWND__@@@Z 0040ca7a f   profile.obj
 0001:0000bb44       ?set_csv_shot_name@@YAXPAUHWND__@@@Z 0040cb44 f   profile.obj
 0001:0000bc49       ?set_current_display@@YAXH@Z 0040cc49 f   profile.obj
 0001:0000bcb6       ?set_downtime_from_choice@@YA_NXZ 0040ccb6 f   profile.obj
 0001:0000c1d5       ?set_lb_from_xbox@@YAXXZ   0040d1d5 f   profile.obj
 0001:0000c714       ?set_tsl_tbox_from_biscuit@@YAXPAUHWND__@@@Z 0040d714 f   profile.obj
 0001:0000c7c4       ?set_xbox_from_lb@@YAXXZ   0040d7c4 f   profile.obj
 0001:0000c86f       ?set_zoom_axis@@YAXHHHH@Z  0040d86f f   profile.obj
 0001:0000cae9       ?set_zoom_grayness@@YAXXZ  0040dae9 f   profile.obj
 0001:0000ccb2       ?show_corner_parameters@@YAXXZ 0040dcb2 f   profile.obj
 0001:0000d30c       ?show_last_screen_type@@YAXXZ 0040e30c f   profile.obj
 0001:0000d638       ?show_marks@@YAXXZ         0040e638 f   profile.obj
 0001:0000d880       ?show_overlays@@YAXXZ      0040e880 f   profile.obj
 0001:0000d8d8       ?show_pos_mark@@YAXMPAUMARKLIST_ENTRY@@@Z 0040e8d8 f   profile.obj
 0001:0000d90f       ?show_printer_parameters@@YAXXZ 0040e90f f   profile.obj
 0001:0000e261       ?show_time_mark@@YAXMPAUMARKLIST_ENTRY@@PAUPARAMETER_ENTRY@@@Z 0040f261 f   profile.obj
 0001:0000e2d3       ?show_timeout_message@@YAXPAD@Z 0040f2d3 f   profile.obj
 0001:0000e971       ?shutdown@@YAXXZ           0040f971 f   profile.obj
 0001:0000ea3a       ?size_grid@@YAXXZ          0040fa3a f   profile.obj
 0001:0000ea96       ?size_plot_window_to_screen@@YAXXZ 0040fa96 f   profile.obj
 0001:0000eb06       ?size_profile_window@@YAXUtagRECT@@@Z 0040fb06 f   profile.obj
 0001:0000ec20       ?size_rectangles_to_current_display@@YAXXZ 0040fc20 f   profile.obj
 0001:0000ec66       ?sort_machine_list@@YAXPAUHWND__@@H@Z 0040fc66 f   profile.obj
 0001:0000ee9b       ?start_password_level_timeout_timer@@YA_NXZ 0040fe9b f   profile.obj
 0001:0000efe1       ?show_text@@YAXHHPBD@Z     0040ffe1 f   profile.obj
 0001:0000f005       ?time_of_pos@@YAEAAM@Z     00410005 f   profile.obj
 0001:0000f118       ?toggle_current_display_type@@YAXXZ 00410118 f   profile.obj
 0001:0000f21c       ?turn_off_zooming@@YAXXZ   0041021c f   profile.obj
 0001:0000f237       ?unregister_for_current_machine@@YAXXZ 00410237 f   profile.obj
 0001:0000f27a       ?unzoom@@YAXE@Z            0041027a f   profile.obj
 0001:0000f2fe       ?update_day_param_display@@YAXXZ 004102fe f   profile.obj
 0001:0000fba6       ?x_axis_label@@YAXAAUtagRECT@@PAD@Z 00410ba6 f   profile.obj
 0001:0000fcf3       ?y_axis_label@@YAXAAUtagRECT@@PAD1GKK@Z 00410cf3 f   profile.obj
 0001:0000fe73       ?zoom@@YAXUtagPOINT@@@Z    00410e73 f   profile.obj
 0001:0000ff3e       ?zoomed@@YAEXZ             00410f3e f   profile.obj
 0001:000100d0       ?copy_to_clipboard@@YAXXZ  004110d0 f   alarmexp.obj
 0001:0001038c       ?fill_export_listbox@@YAXXZ 0041138c f   alarmexp.obj
 0001:00010584       ?gray_buttons@@YAXXZ       00411584 f   alarmexp.obj
 0001:000105d9       ?kill_alarmsum_data@@YAXXZ 004115d9 f   alarmexp.obj
 0001:000106e4       ?set_export_alarms_tab_stops@@YAXXZ 004116e4 f   alarmexp.obj
 0001:00010cff       ?box_display_restart@@YAXXZ 00411cff f   box.obj
 0001:00011d45       ?resize_the_status_boxes@@YAXXZ 00412d45 f   box.obj
 0001:00012404       ?choose_this_part@@YAXXZ   00413404 f   chospart.obj
 0001:0001250d       ?copy_selections_to_extern@@YAXXZ 0041350d f   chospart.obj
 0001:000125d3       ?current_machine_name@@YAPADXZ 004135d3 f   chospart.obj
 0001:00012669       ?fill_parts@@YAXXZ         00413669 f   chospart.obj
 0001:00012756       ?fill_statics@@YAXPAUHWND__@@@Z 00413756 f   chospart.obj
 0001:00012920       ?choose_these_shots@@YAXXZ 00413920 f   chosshot.obj
 0001:00012cab       ?current_machine_name@@YAAAVSTRING_CLASS@@XZ 00413cab f   chosshot.obj
 0001:00012d31       ?current_part_name@@YAAAVSTRING_CLASS@@XZ 00413d31 f   chosshot.obj
 0001:00012dc8       ?fill_parts@@YAXE@Z        00413dc8 f   chosshot.obj
 0001:00012f99       ?fill_shots@@YAXXZ         00413f99 f   chosshot.obj
 0001:00013271       ?fill_statics@@YAXPAUHWND__@@@Z 00414271 f   chosshot.obj
 0001:0001343d       ?position_dialog@@YAXXZ    0041443d f   chosshot.obj
 0001:000134b1       ?set_listbox_id@@YAXXZ     004144b1 f   chosshot.obj
 0001:000136f4       ?draw_one_item@@YAXIPAUtagDRAWITEMSTRUCT@@@Z 004146f4 f   colordef.obj
 0001:000137f7       ?redisplay_colors@@YAXI@Z  004147f7 f   colordef.obj
 0001:00013842       ?redisplay_window@@YAXPAUHWND__@@@Z 00414842 f   colordef.obj
 0001:00013866       ?restore_default_colors@@YAXXZ 00414866 f   colordef.obj
 0001:00013a76       ?get_saved_color@@YAHPAKPBD@Z 00414a76 f   colors.obj
 0001:00013ab5       ?restore_color_set@@YAXPAKPBD@Z 00414ab5 f   colors.obj
 0001:00013b9e       ?save_color_set@@YAXPBDPAK@Z 00414b9e f   colors.obj
 0001:0001425b       ?boolean_to_ini@@YAXPBDE@Z 0041525b f   dbarcfg.obj
 0001:00014393       ?export_downtimes@@YAXPAUHWND__@@@Z 00415393 f   dbarcfg.obj
 0001:00014860       ?get_date@@YAAAU_SYSTEMTIME@@PAUHWND__@@III@Z 00415860 f   dbarcfg.obj
 0001:00014a1c       ?get_record_range@@YAXAAJ0AAVDB_TABLE@@PAUHWND__@@@Z 00415a1c f   dbarcfg.obj
 0001:00014b85       ?gray_controls@@YAXPAUHWND__@@@Z 00415b85 f   dbarcfg.obj
 0001:00014c78       ?init_controls@@YAXPAUHWND__@@@Z 00415c78 f   dbarcfg.obj
 0001:00014ea8       ?purge@@YAXPAUHWND__@@@Z   00415ea8 f   dbarcfg.obj
 0001:00015123       ?save_changes@@YAXPAUHWND__@@@Z 00416123 f   dbarcfg.obj
 0001:0001516b       ?shutdown@@YAXPAUHWND__@@@Z 0041616b f   dbarcfg.obj
 0001:00015189       ?time_to_screen@@YAXPAUHWND__@@HAAU_SYSTEMTIME@@@Z 00416189 f   dbarcfg.obj
 0001:00015277       ?check_one_set_of_buttons@@YAXGH@Z 00416277 f   dconfig.obj
 0001:0001537c       ?check_the_channel_buttons@@YAXXZ 0041637c f   dconfig.obj
 0001:0001539e       ?check_the_pressure_buttons@@YAXXZ 0041639e f   dconfig.obj
 0001:0001561d       ?init_choices@@YAXXZ       0041661d f   dconfig.obj
 0001:0001593e       ?load_one_config@@YAXAAGPAD@Z 0041693e f   dconfig.obj
 0001:00015977       ?load_smooth@@YAXE@Z       00416977 f   dconfig.obj
 0001:00015dc1       ?read_the_fixed_channels@@YAXXZ 00416dc1 f   dconfig.obj
 0001:00015e39       ?read_the_fixed_pressures@@YAXXZ 00416e39 f   dconfig.obj
 0001:00015eb1       ?save_one_config@@YAXPADG@Z 00416eb1 f   dconfig.obj
 0001:00015f00       ?save_smooth_config_from_screen@@YAXXZ 00416f00 f   dconfig.obj
 0001:00016083       ?save_this_config@@YAXH@Z  00417083 f   dconfig.obj
 0001:000180fa       ?load_grid@@YAXXZ          004190fa f   editop.obj
 0001:00018772       ?copy_this_day@@YAXXZ      00419772 f   editshif.obj
 0001:00018925       ?do_insert@@YAXXZ          00419925 f   editshif.obj
 0001:00018a16       ?do_remove@@YAXXZ          00419a16 f   editshif.obj
 0001:00018afc       ?do_select@@YAXXZ          00419afc f   editshif.obj
 0001:00018d11       ?fill_listbox@@YAXXZ       00419d11 f   editshif.obj
 0001:0001907d       ?refresh_listbox_entry@@YAXXZ 0041a07d f   editshif.obj
 0001:0001925f       ?set_tab_stops@@YAXXZ      0041a25f f   editshif.obj
 0001:000192a2       ?two_char_int32@@YAPADJ@Z  0041a2a2 f   editshif.obj
 0001:000192d1       ?add_limits@@YAPADPADHPAH@Z 0041a2d1 f   export.obj
 0001:00019476       ?add_shot_data@@YAPADPADHPAHH1@Z 0041a476 f   export.obj
 0001:0001965d       ?copy_to_clipboard@@YAXXZ  0041a65d f   export.obj
 0001:00019d36       ?fill_parameter_names@@YAXXZ 0041ad36 f   export.obj
 0001:00019e34       ?fill_shots@@YAXXZ         0041ae34 f   export.obj
 0001:00019fe6       ?gethelp@@YAXIK@Z          0041afe6 f   export.obj
 0001:0001a030       ?save_selected_parameter_list@@YAXPAHH@Z 0041b030 f   export.obj
 0001:0001a0b4       ?select_all@@YAXH@Z        0041b0b4 f   export.obj
 0001:0001a69c       ?is_out@@YAEFMFF@Z         0041b69c f   isalarm.obj
 0001:0001aa97       ?draw_line@@YAXPAUHDC__@@HHHH@Z 0041ba97 f   mplot.obj
 0001:0001ad70       ?load_bigfont@@YAEPAUHDC__@@PADAAUtagRECT@@1@Z 0041bd70 f   mplot.obj
 0001:0001ae0d       ?loadfont@@YAEPAUHDC__@@PADJJ@Z 0041be0d f   mplot.obj
 0001:0001b632       ?round_up@@YAMMM@Z         0041c632 f   mplot.obj
 0001:0001b9ed       ?unloadfont@@YAXPAUHDC__@@@Z 0041c9ed f   mplot.obj
 0001:0001bad7       ?check_for_newshot_to_show@@YAXXZ 0041cad7 f   mulprint.obj
 0001:0001bbeb       ?current_machine_name@@YAPADXZ 0041cbeb f   mulprint.obj
 0001:0001bd34       ?fill_parts@@YAXXZ         0041cd34 f   mulprint.obj
 0001:0001bdc1       ?fill_shots@@YAXXZ         0041cdc1 f   mulprint.obj
 0001:0001c2df       ?set_mp_tabs@@YAXXZ        0041d2df f   mulprint.obj
 0001:0001c51f       ?allocate_dynamic_arrays@@YAXXZ 0041d51f f   paramhis.obj
 0001:0001c58a       ?cleanup_dynamic_arrays@@YAXXZ 0041d58a f   paramhis.obj
 0001:0001c5d0       ?draw_parameter_history@@YAXPAUHDC__@@@Z 0041d5d0 f   paramhis.obj
 0001:0001c9fd       ?highlight_current_history_selection@@YAXPAUHDC__@@@Z 0041d9fd f   paramhis.obj
 0001:0001ce7c       ?choose_font@@YA_NXZ       0041de7c f   paramwin.obj
 0001:0001cf25       ?init@@YAXXZ               0041df25 f   paramwin.obj
 0001:0001d0ad       ?paint_me@@YAXPAUHWND__@@@Z 0041e0ad f   paramwin.obj
 0001:0001dc14       ?am_i_encrypted@@YAEXZ     0041ec14 f   password.obj
 0001:0001dda4       ?cooptionshelp@@YAXIK@Z    0041eda4 f   password.obj
 0001:0001ddee       ?copy_passwords_to_network@@YAXXZ 0041edee f   password.obj
 0001:0001e289       ?enable_edit_passwords@@YAXJ@Z 0041f289 f   password.obj
 0001:0001e461       ?exit_co_options@@YAXXZ    0041f461 f   password.obj
 0001:0001e497       ?exit_edit_passwords@@YAXXZ 0041f497 f   password.obj
 0001:0001e4c6       ?fill_co_options@@YAXXZ    0041f4c6 f   password.obj
 0001:0001edc8       ?gethelp@@YAXIK@Z          0041fdc8 f   password.obj
 0001:0001f0e6       ?log_password@@YAXPAD@Z    004200e6 f   password.obj
 0001:0001f3c2       ?save_changes@@YA_NXZ      004203c2 f   password.obj
 0001:0001f5fb       ?save_co_options@@YAEXZ    004205fb f   password.obj
 0001:0001f6a9       ?save_co_options_to_computer@@YAXXZ 004206a9 f   password.obj
 0001:0001ffa6       ?set_password_level@@YAEXZ 00420fa6 f   password.obj
 0001:000201e6       ?show_context_help@@YAHPAUHWND__@@J@Z 004211e6 f   password.obj
 0001:00020394       ?can_show_master@@YA_NPAD@Z 00421394 f   plot.obj
 0001:00020459       ?dac_volts@@YANI@Z         00421459 f   plot.obj
 0001:0002061c       ?get_reference_trace_name@@YAEAAVNAME_CLASS@@@Z 0042161c f   plot.obj
 0001:00020ad3       ?make_date_string@@YAXXZ   00421ad3 f   plot.obj
 0001:00020b43       ?read_ftii_profile@@YAHPAD@Z 00421b43 f   plot.obj
 0001:00021285       ?smooth_one_curve@@YAXPAMH@Z 00422285 f   plot.obj
 0001:000212e9       ?fill_listbox@@YAXD@Z      004222e9 f   rtmlist.obj
 0001:000213ae       ?gethelp@@YAXIK@Z          004223ae f   rtmlist.obj
 0001:00021480       ?machine_listbox_string@@YAPADAAVSTRING_CLASS@@D@Z 00422480 f   rtmlist.obj
 0001:00021702       ?save_changes@@YAXXZ       00422702 f   rtmlist.obj
 0001:00021890       ?toggle_listbox_string@@YAXXZ 00422890 f   rtmlist.obj
 0001:00021cd4       ?create_header_control@@YAXXZ 00422cd4 f   status.obj
 0001:00022356       ?find_row@@YAHAAVSTRING_CLASS@@@Z 00423356 f   status.obj
 0001:000224ff       ?get_part_info@@YAEAAVSTATUS_SCREEN_ROW_ENTRY@@@Z 004234ff f   status.obj
 0001:000225d1       ?get_status_screen_column_widths@@YAXXZ 004235d1 f   status.obj
 0001:00022db5       ?show_cycle_start@@YAXH@Z  00423db5 f   status.obj
 0001:00023551       ?show_one_row_only@@YAXH@Z 00424551 f   status.obj
 0001:00023d8d       ?current_parameter_name@@YAPADPAUHWND__@@@Z 00424d8d f   tcconfig.obj
 0001:00023e02       ?do_new_listbox_line@@YAXPAUHWND__@@@Z 00424e02 f   tcconfig.obj
 0001:00023eb4       ?fill_parameter_list@@YAXPAUHWND__@@@Z 00424eb4 f   tcconfig.obj
 0001:000240a2       ?fill_tc_visible_lb@@YAXPAUHWND__@@@Z 004250a2 f   tcconfig.obj
 0001:000242d6       ?get_radio_box_index@@YAJPAUHWND__@@JJ@Z 004252d6 f   tcconfig.obj
 0001:0002473a       ?refresh_listbox_entry@@YAXPAUHWND__@@@Z 0042573a f   tcconfig.obj
 0001:000247f6       ?save_changes@@YAXPAUHWND__@@@Z 004257f6 f   tcconfig.obj
 0001:0002499e       ?save_tc_visible@@YAXPAUHWND__@@@Z 0042599e f   tcconfig.obj
 0001:000250bf       ?cellvalue@@YAMJJ@Z        004260bf f   trend.obj
 0001:000250d6       ?check_grid_height@@YAXH@Z 004260d6 f   trend.obj
 0001:00025340       ?double_click@@YAXJ@Z      00426340 f   trend.obj
 0001:00025464       ?draw_cursor_line@@YAXPAUHDC__@@@Z 00426464 f   trend.obj
 0001:00025526       ?erase_cursor_line@@YAXXZ  00426526 f   trend.obj
 0001:000256dc       ?line@@YAXPAUHDC__@@@Z     004266dc f   trend.obj
 0001:00025726       ?load_data@@YAXXZ          00426726 f   trend.obj
 0001:00026ec9       ?set_celltext@@YAXHJM@Z    00427ec9 f   trend.obj
 0001:00026f02       ?set_column_widths@@YAXXZ  00427f02 f   trend.obj
 0001:000276f6       ?draw_one_item@@YAXPAUtagDRAWITEMSTRUCT@@@Z 004286f6 f   viewpara.obj
 0001:00028833       ?paint_me@@YA_NXZ          00429833 f   xdcrplot.obj
 0001:00028fda       ?vline@@YAXPAUHDC__@@HHH@Z 00429fda f   xdcrplot.obj
 0001:000291bf       ?file_type@@YAHPAD@Z       0042a1bf f   v5subs:exists.obj
 0001:000299ee       ?numberlen@@YAFPBD@Z       0042a9ee f   v5subs:extract.obj
 0001:0002ad0d       ?kill_sensor_array@@YAXXZ  0042bd0d f   v5subs:asensor.obj
 0001:0002bc5b       ?fieldlength@@YAFPBD@Z     0042cc5b f   v5subs:dbsubs.obj
 0001:0002cac8       ?trim_text@@YAFPADF@Z      0042dac8 f   v5subs:dbsubs.obj
 0001:0002cb93       ?downstate@@YAHPAD0@Z      0042db93 f   v5subs:dstat.obj
 0001:0002dae9       ?ascii_long@@YAPADJ@Z      0042eae9 f   v5subs:fontclas.obj
 0001:0002dba2       ?copy_w_comma@@YAPADPAD0@Z 0042eba2 f   v5subs:fontclas.obj
 0001:0002de62       ?goto_next_string@@YAPADPAD@Z 0042ee62 f   v5subs:fontclas.obj
 0001:0002de70       ?long_from_text@@YAJPBD@Z  0042ee70 f   v5subs:fontclas.obj
 0001:0002fa4d       ?get_binary_valve_settings_from_control_all@@YAXAAVMACHINE_CLASS@@@Z 00430a4d f   v5subs:machine.obj
 0001:0003150f       ?init_systemtime@@YAXAAU_SYSTEMTIME@@@Z 0043250f f   v5subs:timeclas.obj
 0001:00031533       ?leap_index@@YAHH@Z        00432533 f   v5subs:timeclas.obj
 0001:00032e7c       ?strip_whitespace_from_eol@@YAXPAD@Z 00433e7c f   v5subs:stringtable.obj
 0001:000334c4       $LN123                     004344c4     v5subs:unitadj.obj
 0001:00033e3c       ?find_existing_event_item@@YAPAUEVENT_ITEM_ENTRY@@PAUEVENT_ENTRY@@F@Z 00434e3c f   v5subs:client.obj
 0001:00033e75       ?find_existing_event_topic@@YAPAUEVENT_ENTRY@@PAD@Z 00434e75 f   v5subs:client.obj
 0001:00034389       ?cleanup_dcurves@@YAXXZ    00435389 f   v5subs:dcurve.obj
 0001:00034483       ?reload_dcurves@@YAEXZ     00435483 f   v5subs:dcurve.obj
 0001:00034d47       ?ftoasc@@YAXPADNH@Z        00435d47 f   v5subs:ftoasc.obj
 0001:00034e80       ?get_static_exe_directory@@YAXXZ 00435e80 f   v5subs:gexedir.obj
 0001:000357ce       ?add_seconds_to_systemtime@@YAEAAU_SYSTEMTIME@@J@Z 004367ce f   v5subs:shift.obj
 0001:000358f4       ?shift_from_rec@@YAXPAFFAAVDB_TABLE@@@Z 004368f4 f   v5subs:shift.obj
 0001:000359b5       ?shift_index@@YAFABU_SYSTEMTIME@@@Z 004369b5 f   v5subs:shift.obj
 0001:00035d46       ?units_index@@YAFF@Z       00436d46 f   v5subs:units.obj
 0001:00036597       ?paint_temp_message@@YAXXZ 00437597 f   v5subs:temp_message.obj
 0001:00036634       ?position_temp_message@@YAXPAUHWND__@@@Z 00437634 f   v5subs:temp_message.obj
 0001:00037b39       ?make_csv_line@@YAXAAVSTRING_CLASS@@AAVFTII_POSITION_DATA@@@Z 00438b39 f   v5subs:ftii_shot_data.obj
 0001:00037c02       ?make_csv_line@@YAXAAVSTRING_CLASS@@AAVFTII_TIME_DATA@@@Z 00438c02 f   v5subs:ftii_shot_data.obj
 0001:00038d10       ?do_nothing_paint_me@@YAXPAUHWND__@@@Z 00439d10 f   v5subs:menuctrl.obj
 0001:0003909f       ?get_current_colors@@YAXPAD@Z 0043a09f f   v5subs:menuctrl.obj
 0001:0003a89d       ?fill_parts_and_counts_listbox@@YAXPAUHWND__@@HAAVSTRING_CLASS@@1DE@Z 0043b89d f   v5subs:fillpart.obj
 0001:0003ccae       ?add_err_number@@YAXPADF@Z 0043dcae f   v5subs:error_ms.obj
 0001:0003cd30       ?add_string@@YAXPAD@Z      0043dd30 f   v5subs:error_ms.obj
 0001:0003cda3       ?wait_for_key@@YAXXZ       0043dda3 f   v5subs:error_ms.obj
 0001:0004473d       $LN20                      0044573d     dundas:ughscrol.obj
 0001:00046fe8       $LN20                      00447fe8     dundas:ugvscrol.obj
 0001:0004bccd       __onexit_nolock            0044cccd f   LIBCMT:onexit.obj
 0001:0004bfc0       $$000000                   0044cfc0     LIBCMT:ftol3.obj
 0001:0004c390       $$000000                   0044d390     LIBCMT:memset.obj
 0001:0004c4d0       $$000000                   0044d4d0     LIBCMT:sqrt.obj
 0001:0004c590       $$000000                   0044d590     LIBCMT:chkstk.obj
 0001:0004c5c5       ___tmainCRTStartup         0044d5c5 f   LIBCMT:wincrt0.obj
 0001:0004c715       _fast_error_exit           0044d715 f   LIBCMT:wincrt0.obj
 0001:0004c8f0       ?strtoxl@@YAKPAUlocaleinfo_struct@@PBDPAPBDHH@Z 0044d8f0 f   LIBCMT:strtol.obj
 0001:0004cb70       $$000000                   0044db70     LIBCMT:memcpy.obj
 0001:0004cdc0       LeadUpVec                  0044ddc0     LIBCMT:memcpy.obj
 0001:0004ce3c       UnwindUpVec                0044de3c     LIBCMT:memcpy.obj
 0001:0004cea8       TrailUpVec                 0044dea8     LIBCMT:memcpy.obj
 0001:0004cf4c       LeadDownVec                0044df4c     LIBCMT:memcpy.obj
 0001:0004cfd8       UnwindDownVec              0044dfd8     LIBCMT:memcpy.obj
 0001:0004d044       TrailDownVec               0044e044     LIBCMT:memcpy.obj
 0001:0004d1b4       ?_fpcvt@@YAHPADIPAU_strflt@@HPAH2@Z 0044e1b4 f   LIBCMT:fcvt.obj
 0001:0004d2e0       $$000000                   0044e2e0     LIBCMT:floor_pentium4.obj
 0001:0004d410       $$000000                   0044e410     LIBCMT:log10.obj
 0001:0004d560       $$000000                   0044e560     LIBCMT:ulldiv.obj
 0001:0004d5d0       $$000000                   0044e5d0     LIBCMT:ceil_pentium4.obj
 0001:0004d6f0       $$000000                   0044e6f0     LIBCMT:lldiv.obj
 0001:0004d7a0       $$000000                   0044e7a0     LIBCMT:llmul.obj
 0001:0004d7e0       $$000000                   0044e7e0     LIBCMT:memmove.obj
 0001:0004da30       LeadUpVec                  0044ea30     LIBCMT:memmove.obj
 0001:0004daac       UnwindUpVec                0044eaac     LIBCMT:memmove.obj
 0001:0004db18       TrailUpVec                 0044eb18     LIBCMT:memmove.obj
 0001:0004dbbc       LeadDownVec                0044ebbc     LIBCMT:memmove.obj
 0001:0004dc48       UnwindDownVec              0044ec48     LIBCMT:memmove.obj
 0001:0004dcb4       TrailDownVec               0044ecb4     LIBCMT:memmove.obj
 0001:0004f51c       $LN1281                    0045051c     LIBCMT:memcmp.obj
 0001:0004f5a0       $$000000                   004505a0     LIBCMT:strstr.obj
 0001:0004fbbf       __initterm                 00450bbf f   LIBCMT:crt0dat.obj
 0001:0004fc29       _doexit                    00450c29 f   LIBCMT:crt0dat.obj
 0001:0004fe80       $$000000                   00450e80     LIBCMT:sehprolg4.obj
 0001:00050da0       $$000000                   00451da0     LIBCMT:strcmp.obj
 0001:000512be       __cftoe2_l                 004522be f   LIBCMT:cvt.obj
 0001:000514dd       __cftof2_l                 004524dd f   LIBCMT:cvt.obj
 0001:00051913       __shift                    00452913 f   LIBCMT:cvt.obj
 0001:00051990       $$000000                   00452990     LIBCMT:87disp.obj
 0001:00051b60       $$000000                   00452b60     LIBCMT:genexcep.obj
 0001:00051bc0       $$000000                   00452bc0     LIBCMT:common.obj
 0001:000527ea       _parse_cmdline             004537ea f   LIBCMT:stdargv.obj
 0001:000534b5       ?CPtoLocaleName@@YAPB_WH@Z 004544b5 f   LIBCMT:mbctype.obj
 0001:000534ef       ?getSystemCP@@YAHH@Z       004544ef f   LIBCMT:mbctype.obj
 0001:0005355d       ?setSBCS@@YAXPAUthreadmbcinfostruct@@@Z 0045455d f   LIBCMT:mbctype.obj
 0001:000535bc       ?setSBUpLow@@YAXPAUthreadmbcinfostruct@@@Z 004545bc f   LIBCMT:mbctype.obj
 0001:00054148       $LN79                      00455148     LIBCMT:libm_error.obj
 0001:00054270       $$000000                   00455270     LIBCMT:log10_pentium4.obj
 0001:00054500       $$000000                   00455500     LIBCMT:87tran.obj
 0001:000547d0       $$000000                   004557d0     LIBCMT:strchr.obj
 0001:00054950       $$000000                   00455950     LIBCMT:strlen.obj
 0001:00054ed7       _siglookup                 00455ed7 f   LIBCMT:winsig.obj
 0001:00055050       $$000000                   00456050     LIBCMT:exsup4.obj
 0001:000550e0       __unwind_handler4          004560e0 f   LIBCMT:exsup4.obj
 0001:00055390       $$000000                   00456390     LIBCMT:strrchr.obj
 0001:00055620       $$000000                   00456620     LIBCMT:lldvrm.obj
 0001:00055700       $$000000                   00456700     LIBCMT:ullshr.obj
 0001:000559fe       ?x_ismbbtype_l@@YAHPAUlocaleinfo_struct@@IHH@Z 004569fe f   LIBCMT:ismbbyte.obj
 0001:0005704f       $LN333                     0045804f     LIBCMT:strgtold.obj
 0001:00057562       ?__crtLCMapStringA_stat@@YAHPAUlocaleinfo_struct@@PB_WKPBDHPADHHH@Z 00458562 f   LIBCMT:a_map.obj
 0001:000577ca       ?__crtGetStringTypeA_stat@@YAHPAUlocaleinfo_struct@@KPBDHPAGHH@Z 004587ca f   LIBCMT:a_str.obj
 0001:00058773       _flsall                    00459773 f   LIBCMT:fflush.obj
 0001:00058860       $$000000                   00459860     LIBCMT:exsup.obj
 0001:00058880       __unwind_handler           00459880 f   LIBCMT:exsup.obj
 0001:000589a0       $$000000                   004599a0     LIBCMT:ulldvrm.obj
 0001:00058a35       ___hw_cw_sse2              00459a35 f   LIBCMT:ieee87.obj
 0001:00058de0       __hw_cw                    00459de0 f   LIBCMT:ieee87.obj
 0001:00059100       $$000000                   0045a100     LIBCMT:alloca16.obj
 0001:0005a26a       ??__FAnalogSensor@?1??write_std_units_csv_file@@YAEAAVSTRING_CLASS@@0@Z@YAXXZ 0045b26a f   profile.obj
 0001:0005a274       ??__FArialBoldFontName@@YAXXZ 0045b274 f   profile.obj
 0001:0005a27e       ??__FArialFontName@@YAXXZ  0045b27e f   profile.obj
 0001:0005a288       ??__FCats@@YAXXZ           0045b288 f   profile.obj
 0001:0005a292       ??__FChannelAxisLabel@@YAXXZ 0045b292 f   profile.obj
 0001:0005a29c       ??__FComputerName@@YAXXZ   0045b29c f   profile.obj
 0001:0005a2a6       ??__FCurrentFtAnalog@@YAXXZ 0045b2a6 f   profile.obj
 0001:0005a2b0       ??__FCurrentFtCalc@@YAXXZ  0045b2b0 f   profile.obj
 0001:0005a2ba       ??__FCurrentLanguage@@YAXXZ 0045b2ba f   profile.obj
 0001:0005a2c4       ??__FCurrentMachine@@YAXXZ 0045b2c4 f   profile.obj
 0001:0005a2ce       ??__FCurrentMarks@@YAXXZ   0045b2ce f   profile.obj
 0001:0005a2d8       ??__FCurrentParam@@YAXXZ   0045b2d8 f   profile.obj
 0001:0005a2e2       ??__FCurrentPart@@YAXXZ    0045b2e2 f   profile.obj
 0001:0005a2ec       ??__FCurrentSort@@YAXXZ    0045b2ec f   profile.obj
 0001:0005a2f6       ??__FDayParamCurrentEntry@@YAXXZ 0045b2f6 f   profile.obj
 0001:0005a300       ??__FDayParamFont@@YAXXZ   0045b300 f   profile.obj
 0001:0005a30a       ??__FDayParamLb@@YAXXZ     0045b30a f   profile.obj
 0001:0005a314       ??__FDayParamTitle@@YAXXZ  0045b314 f   profile.obj
 0001:0005a31e       ??__FDowntimeComputerName@@YAXXZ 0045b31e f   profile.obj
 0001:0005a328       ??__FDowntimeEntryLb@@YAXXZ 0045b328 f   profile.obj
 0001:0005a332       ??__FDowntimeEntryMachine@@YAXXZ 0045b332 f   profile.obj
 0001:0005a33c       ??__FDowntimeMachineName@@YAXXZ 0045b33c f   profile.obj
 0001:0005a346       ??__FFontList@@YAXXZ       0045b346 f   profile.obj
 0001:0005a350       ??__FGrid@@YAXXZ           0045b350 f   profile.obj
 0001:0005a35a       ??__FMachList@@YAXXZ       0045b35a f   profile.obj
 0001:0005a364       ??__FMachineName@@YAXXZ    0045b364 f   profile.obj
 0001:0005a36e       ??__FMainMenu@@YAXXZ       0045b36e f   profile.obj
 0001:0005a378       ??__FNewSetupMachine@@YAXXZ 0045b378 f   profile.obj
 0001:0005a382       ??__FOverlayShot@@YAXXZ    0045b382 f   profile.obj
 0001:0005a39c       ??__FPToCHistHeight@@YAXXZ 0045b39c f   profile.obj
 0001:0005a3a6       ??__FPToCHistWidth@@YAXXZ  0045b3a6 f   profile.obj
 0001:0005a3b0       ??__FParameterListTitle@@YAXXZ 0045b3b0 f   profile.obj
 0001:0005a3ca       ??__FPartName@@YAXXZ       0045b3ca f   profile.obj
 0001:0005a3d4       ??__FPopupMenu@@YAXXZ      0045b3d4 f   profile.obj
 0001:0005a3de       ??__FPrintToClipCommand@@YAXXZ 0045b3de f   profile.obj
 0001:0005a3e8       ??__FPrintToClipFont@@YAXXZ 0045b3e8 f   profile.obj
 0001:0005a3f2       ??__FPrintToClipRegion@@YAXXZ 0045b3f2 f   profile.obj
 0001:0005a3f3       ??__FRealtimeMachineList@@YAXXZ 0045b3f3 f   profile.obj
 0001:0005a3fd       ??__FRegion@@YAXXZ         0045b3fd f   profile.obj
 0001:0005a3fe       ??__FStringTable@@YAXXZ    0045b3fe f   profile.obj
 0001:0005a408       ??__FSubCats@@YAXXZ        0045b408 f   profile.obj
 0001:0005a412       ??__FTimesRomanFontName@@YAXXZ 0045b412 f   profile.obj
 0001:0005a41c       ??__FXdcrWindow@@YAXXZ     0045b41c f   profile.obj
 0001:0005a427       ??__Flb@?1??choose_downtime_machine_dialog_proc@@YGHPAUHWND__@@IIJ@Z@YAXXZ 0045b427 f   profile.obj
 0001:0005a431       ??__Fs@?1??set_lb_from_xbox@@YAXXZ@YAXXZ 0045b431 f   profile.obj
 0001:0005a43b       ??__Fs@?1??set_xbox_from_lb@@YAXXZ@YAXXZ 0045b43b f   profile.obj
 0001:0005a445       ??__Ft@?1??main_proc@@YGJPAUHWND__@@IIJ@Z@YAXXZ 0045b445 f   profile.obj
 0001:0005a44f       ??__Fmachine_name@?1??current_machine_name@@YAPADXZ@YAXXZ 0045b44f f   chospart.obj
 0001:0005a459       ??__Fmy_font@?1??fill_statics@@YAXPAUHWND__@@@Z@YAXXZ 0045b459 f   chospart.obj
 0001:0005a463       ??__Fmy_language@?1??fill_statics@@YAXPAUHWND__@@@Z@YAXXZ 0045b463 f   chospart.obj
 0001:0005a46d       ??__FMyPart@@YAXXZ         0045b46d f   chosshot.obj
 0001:0005a477       ??__Fmy_font@?1??fill_statics@@YAXPAUHWND__@@@Z@YAXXZ 0045b477 f   chosshot.obj
 0001:0005a481       ??__Fmy_language@?1??fill_statics@@YAXPAUHWND__@@@Z@YAXXZ 0045b481 f   chosshot.obj
 0001:0005a48b       ??__Fmy_machine_name@?1??current_machine_name@@YAAAVSTRING_CLASS@@XZ@YAXXZ 0045b48b f   chosshot.obj
 0001:0005a495       ??__Fmy_part_name@?1??current_part_name@@YAAAVSTRING_CLASS@@XZ@YAXXZ 0045b495 f   chosshot.obj
 0001:0005a49f       ??__FVlb@@YAXXZ            0045b49f f   dbarcfg.obj
 0001:0005a4b3       ??__Fbuf@?1??listbox_line@@YAPADAAVDB_TABLE@@@Z@YAXXZ 0045b4b3 f   dbarcfg.obj
 0001:0005a4bd       ??__FFixedChannels@@YAXXZ  0045b4bd f   dconfig.obj
 0001:0005a4c7       ??__FFixedPressures@@YAXXZ 0045b4c7 f   dconfig.obj
 0001:0005a4d1       ??__FIni@@YAXXZ            0045b4d1 f   dconfig.obj
 0001:0005a4db       ??__FConfig@@YAXXZ         0045b4db f   downbar.obj
 0001:0005a4e5       ??__FDh@@YAXXZ             0045b4e5 f   downbar.obj
 0001:0005a4ef       ??__FTitles@@YAXXZ         0045b4ef f   downbar.obj
 0001:0005a4f9       ??__FGrid@@YAXXZ           0045b4f9 f   editop.obj
 0001:0005a503       ??__Fs@?1??export_shots_proc@@YGHPAUHWND__@@IIJ@Z@YAXXZ 0045b503 f   export.obj
 0001:0005a50d       ??__FEmptyPlot@@YAXXZ      0045b50d f   mplot.obj
 0001:0005a517       ??__Fmachine_name@?1??current_machine_name@@YAPADXZ@YAXXZ 0045b517 f   mulprint.obj
 0001:0005a521       ??__FFontList@@YAXXZ       0045b521 f   paramwin.obj
 0001:0005a52b       ??__FCoOptionsExeDir@@YAXXZ 0045b52b f   password.obj
 0001:0005a535       ??__FEmptyPasswordEntry@?1???APASSWORD_CLASS@@QAEAAUPASSWORD_ENTRY@@J@Z@YAXXZ 0045b535 f   password.obj
 0001:0005a536       ??__FGrid@@YAXXZ           0045b536 f   password.obj
 0001:0005a540       ??__FLogFileName@@YAXXZ    0045b540 f   password.obj
 0001:0005a54a       ??__FPassword@@YAXXZ       0045b54a f   password.obj
 0001:0005a554       ??__FPasswordLogFormat@@YAXXZ 0045b554 f   password.obj
 0001:0005a55e       ??__FAnalogSensor@@YAXXZ   0045b55e f   plot.obj
 0001:0005a568       ??__Fbuf@?1??machine_listbox_string@@YAPADAAVSTRING_CLASS@@D@Z@YAXXZ 0045b568 f   rtmlist.obj
 0001:0005a572       ??__FFontList@@YAXXZ       0045b572 f   status.obj
 0001:0005a57c       ??__Fs@?1??put@STATUS_SCREEN_COLUMN_ENTRY@@QAEPADXZ@YAXXZ 0045b57c f   status.obj
 0001:0005a586       ??__FTc@@YAXXZ             0045b586 f   tcconfig.obj
 0001:0005a587       ??__Flinechanged@@YAXXZ    0045b587 f   tcconfig.obj
 0001:0005a591       ??__FCurrent@@YAXXZ        0045b591 f   trend.obj
 0001:0005a59b       ??__FParameters@@YAXXZ     0045b59b f   trend.obj
 0001:0005a5a5       ??__FPlots@@YAXXZ          0045b5a5 f   trend.obj
 0001:0005a5af       ??__FTcConfig@@YAXXZ       0045b5af f   trend.obj
 0001:0005a5b9       ??__FXAxis@@YAXXZ          0045b5b9 f   trend.obj
 0001:0005a5c3       ??__FEmptyString@@YAXXZ    0045b5c3 f   v5subs:nameclas.obj
 0001:0005a5cd       ??__FEmptySensor@@YAXXZ    0045b5cd f   v5subs:asensor.obj
 0001:0005a5d7       ??__Fempty_entry@@YAXXZ    0045b5d7 f   v5subs:setpoint.obj
 0001:0005a5eb       ??__FMyComputer@@YAXXZ     0045b5eb f   v5subs:computer.obj
 0001:0005a5f5       ??__FNoComputer@@YAXXZ     0045b5f5 f   v5subs:computer.obj
 0001:0005a5ff       ??__FEmptyString@@YAXXZ    0045b5ff f   v5subs:machname.obj
 0001:0005a609       ??__FFontList@@YAXXZ       0045b609 f   v5subs:stringtable.obj
 0001:0005a613       ??__FEventList@@YAXXZ      0045b613 f   v5subs:client.obj
 0001:0005a61d       ??__Ff@?1??one_hot_link@@YAXPAUHCONV__@@FI@Z@YAXXZ 0045b61d f   v5subs:client.obj
 0001:0005a627       ??__Fs@?1??one_hot_link@@YAXPAUHCONV__@@FI@Z@YAXXZ 0045b627 f   v5subs:client.obj
 0001:0005a631       ??__FT@@YAXXZ              0045b631 f   v5subs:semaphor.obj
 0001:0005a63b       ??__FExeDirectory@@YAXXZ   0045b63b f   v5subs:gexedir.obj
 0001:0005a645       ??__FFontList@@YAXXZ       0045b645 f   v5subs:menuctrl.obj
 0001:0005a64f       ??__FFontList@@YAXXZ       0045b64f f   v5subs:popctrl.obj
 0002:00000454       _Region$initializer$       0045c454     profile.obj
 0002:00000458       _Axis$initializer$         0045c458     profile.obj
 0002:0000045c       _DowntimeComputerName$initializer$ 0045c45c     profile.obj
 0002:00000460       _DowntimeMachineName$initializer$ 0045c460     profile.obj
 0002:00000464       _ComputerName$initializer$ 0045c464     profile.obj
 0002:00000468       _MachineName$initializer$  0045c468     profile.obj
 0002:0000046c       _PartName$initializer$     0045c46c     profile.obj
 0002:00000470       _CurrentLanguage$initializer$ 0045c470     profile.obj
 0002:00000474       _CurrentMarks$initializer$ 0045c474     profile.obj
 0002:00000478       _CurrentParam$initializer$ 0045c478     profile.obj
 0002:0000047c       _CurrentPart$initializer$  0045c47c     profile.obj
 0002:00000480       _CurrentSort$initializer$  0045c480     profile.obj
 0002:00000484       _CurrentMachine$initializer$ 0045c484     profile.obj
 0002:00000488       _CurrentFtAnalog$initializer$ 0045c488     profile.obj
 0002:0000048c       _CurrentFtCalc$initializer$ 0045c48c     profile.obj
 0002:00000490       _ChannelAxisLabel$initializer$ 0045c490     profile.obj
 0002:00000494       _Cats$initializer$         0045c494     profile.obj
 0002:00000498       _SubCats$initializer$      0045c498     profile.obj
 0002:0000049c       _XdcrWindow$initializer$   0045c49c     profile.obj
 0002:000004a0       _OverlayShot$initializer$  0045c4a0     profile.obj
 0002:000004a4       _MachList$initializer$     0045c4a4     profile.obj
 0002:000004a8       _RealtimeMachineList$initializer$ 0045c4a8     profile.obj
 0002:000004ac       _FontList$initializer$     0045c4ac     profile.obj
 0002:000004b0       _StringTable$initializer$  0045c4b0     profile.obj
 0002:000004b4       _ParameterListTitle$initializer$ 0045c4b4     profile.obj
 0002:000004b8       _MainMenu$initializer$     0045c4b8     profile.obj
 0002:000004bc       _PopupMenu$initializer$    0045c4bc     profile.obj
 0002:000004c0       _Grid$initializer$         0045c4c0     profile.obj
 0002:000004c4       _ArialFontName$initializer$ 0045c4c4     profile.obj
 0002:000004c8       _ArialBoldFontName$initializer$ 0045c4c8     profile.obj
 0002:000004cc       _TimesRomanFontName$initializer$ 0045c4cc     profile.obj
 0002:000004d0       _NewSetupMachine$initializer$ 0045c4d0     profile.obj
 0002:000004d4       _DayParamFont$initializer$ 0045c4d4     profile.obj
 0002:000004d8       _DayParamLb$initializer$   0045c4d8     profile.obj
 0002:000004dc       _DayParamTitle$initializer$ 0045c4dc     profile.obj
 0002:000004e0       _DayParamCurrentEntry$initializer$ 0045c4e0     profile.obj
 0002:000004e4       _PrintToClipCommand$initializer$ 0045c4e4     profile.obj
 0002:000004e8       _PrintToClipFont$initializer$ 0045c4e8     profile.obj
 0002:000004ec       _PrintToClipRegion$initializer$ 0045c4ec     profile.obj
 0002:000004f0       _PToCHistHeight$initializer$ 0045c4f0     profile.obj
 0002:000004f4       _PToCHistWidth$initializer$ 0045c4f4     profile.obj
 0002:000004f8       _DowntimeEntryLb$initializer$ 0045c4f8     profile.obj
 0002:000004fc       _DowntimeEntryMachine$initializer$ 0045c4fc     profile.obj
 0002:00000500       _MyPart$initializer$       0045c500     chosshot.obj
 0002:00000504       _Vlb$initializer$          0045c504     dbarcfg.obj
 0002:00000508       _FixedPressures$initializer$ 0045c508     dconfig.obj
 0002:0000050c       _FixedChannels$initializer$ 0045c50c     dconfig.obj
 0002:00000510       _Ini$initializer$          0045c510     dconfig.obj
 0002:00000514       _Config$initializer$       0045c514     downbar.obj
 0002:00000518       _Titles$initializer$       0045c518     downbar.obj
 0002:0000051c       _NoCode$initializer$       0045c51c     downbar.obj
 0002:00000520       _UpCode$initializer$       0045c520     downbar.obj
 0002:00000524       _NoCategory$initializer$   0045c524     downbar.obj
 0002:00000528       _CurrentCategory$initializer$ 0045c528     downbar.obj
 0002:0000052c       _Dh$initializer$           0045c52c     downbar.obj
 0002:00000530       _Grid$initializer$         0045c530     editop.obj
 0002:00000534       _EmptyPlot$initializer$    0045c534     mplot.obj
 0002:00000538       _FontList$initializer$     0045c538     paramwin.obj
 0002:0000053c       _PasswordLogFormat$initializer$ 0045c53c     password.obj
 0002:00000540       _LogFileName$initializer$  0045c540     password.obj
 0002:00000544       _Password$initializer$     0045c544     password.obj
 0002:00000548       _Grid$initializer$         0045c548     password.obj
 0002:0000054c       _CoOptionsExeDir$initializer$ 0045c54c     password.obj
 0002:00000550       _AnalogSensor$initializer$ 0045c550     plot.obj
 0002:00000554       _De$initializer$           0045c554     status.obj
 0002:00000558       _FontList$initializer$     0045c558     status.obj
 0002:0000055c       _linechanged$initializer$  0045c55c     tcconfig.obj
 0002:00000560       _Tc$initializer$           0045c560     tcconfig.obj
 0002:00000564       _Current$initializer$      0045c564     trend.obj
 0002:00000568       _Parameters$initializer$   0045c568     trend.obj
 0002:0000056c       _TcConfig$initializer$     0045c56c     trend.obj
 0002:00000570       _XAxis$initializer$        0045c570     trend.obj
 0002:00000574       _Plots$initializer$        0045c574     trend.obj
 0002:00000578       _EmptyString$initializer$  0045c578     v5subs:nameclas.obj
 0002:0000057c       _MyComputer$initializer$   0045c57c     v5subs:nameclas.obj
 0002:00000580       _EmptySensor$initializer$  0045c580     v5subs:asensor.obj
 0002:00000584       _EmptyDowncatEntry$initializer$ 0045c584     v5subs:catclass.obj
 0002:00000588       _EmptyDownscatEntry$initializer$ 0045c588     v5subs:catclass.obj
 0002:0000058c       _empty_entry$initializer$  0045c58c     v5subs:setpoint.obj
 0002:00000590       _MyComputer$initializer$   0045c590     v5subs:computer.obj
 0002:00000594       _NoComputer$initializer$   0045c594     v5subs:computer.obj
 0002:00000598       _EmptyString$initializer$  0045c598     v5subs:machname.obj
 0002:0000059c       _FontList$initializer$     0045c59c     v5subs:stringtable.obj
 0002:000005a0       _EventList$initializer$    0045c5a0     v5subs:client.obj
 0002:000005a4       _T$initializer$            0045c5a4     v5subs:semaphor.obj
 0002:000005a8       _ExeDirectory$initializer$ 0045c5a8     v5subs:gexedir.obj
 0002:000005ac       _FontList$initializer$     0045c5ac     v5subs:menuctrl.obj
 0002:000005b0       _FontList$initializer$     0045c5b0     v5subs:popctrl.obj
 0002:000005bc       _pinit                     0045c5bc     LIBCMT:onexit.obj
 0002:000005c0       _pinit                     0045c5c0     LIBCMT:cpu_disp.obj
 0002:000005c4       _pinit                     0045c5c4     LIBCMT:mbctype.obj
 0002:000005c8       _pinit                     0045c5c8     LIBCMT:mathfcns.obj
 0002:000005cc       _pinit                     0045c5cc     LIBCMT:_file.obj
 0002:000005d0       _pinit                     0045c5d0     LIBCMT:wincrt0.obj
 0002:000005dc       _pterm                     0045c5dc     LIBCMT:wsetloca.obj
 0002:000005e0       _pterm                     0045c5e0     LIBCMT:initcon.obj
 0002:000005e4       _pterm                     0045c5e4     LIBCMT:_file.obj
 0002:00000600       _AnalogTbox                0045c600     profile.obj
 0002:00001dd0       _TwoSpaces                 0045ddd0     box.obj
 0002:00001e74       _NormColorName             0045de74     colors.obj
 0002:00001e80       _RefColorName              0045de80     colors.obj
 0002:00001e8c       _PrColorName               0045de8c     colors.obj
 0002:00001e94       _PrefColorName             0045de94     colors.obj
 0002:00001ea0       _WarningColorName          0045dea0     colors.obj
 0002:00001eb0       _AlarmColorName            0045deb0     colors.obj
 0002:00001ebc       _NoAlarmColorName          0045debc     colors.obj
 0002:00001ecc       _DialogTextColorName       0045decc     colors.obj
 0002:00001f48       _CornerParamsKey           0045df48     corner.obj
 0002:00001fc0       _REAL_SECONDS_PER_HOUR     0045dfc0     downbar.obj
 0002:00002530       _MaxFloatShort             0045e530     plot.obj
 0002:0000256c       _RT_MACHINE_LIST_FILE      0045e56c     rtmlist.obj
 0002:00002578       _V5HELP_FILE               0045e578     rtmlist.obj
 0002:00002583       _EmptyString               0045e583     status.obj
 0002:000025f0       _SpaceString               0045e5f0     trend.obj
 0002:00002620       ?a@?1??draw_one_item@@YAXPAUtagDRAWITEMSTRUCT@@@Z@4QBHB 0045e620     viewpara.obj
 0002:0000265c       ?space@?1??show_info_box@X_AXIS_CLASS@@QAEEPAUHDC__@@JJE@Z@4QBDB 0045e65c     xaxis.obj
 0002:00002660       ?twospaces@?1??show_info_box@X_AXIS_CLASS@@QAEEPAUHDC__@@JJE@Z@4QBDB 0045e660     xaxis.obj
 0002:00002680       _MAX_RAW_COUNTS            0045e680     v5subs:asensor.obj
 0002:000026f8       _RECORD_DELIMITER_STRING   0045e6f8     v5subs:dbsubs.obj
 0002:000026fb       _EmptyString               0045e6fb     v5subs:dbsubs.obj
 0002:000027bc       _ResetCmd                  0045e7bc     v5subs:listbox.obj
 0002:000027c4       _AddCmd                    0045e7c4     v5subs:listbox.obj
 0002:000027cc       _DeleteCmd                 0045e7cc     v5subs:listbox.obj
 0002:000027d4       _GetCurSelCmd              0045e7d4     v5subs:listbox.obj
 0002:000027dc       _SetCurSelCmd              0045e7dc     v5subs:listbox.obj
 0002:000027e4       _FindStringCmd             0045e7e4     v5subs:listbox.obj
 0002:000027ec       _FindPrefixCmd             0045e7ec     v5subs:listbox.obj
 0002:000027f4       _GetCountCmd               0045e7f4     v5subs:listbox.obj
 0002:000027fc       _GetTextCmd                0045e7fc     v5subs:listbox.obj
 0002:00002804       _GetTextLenCmd             0045e804     v5subs:listbox.obj
 0002:0000280c       _InsertCmd                 0045e80c     v5subs:listbox.obj
 0002:00002814       _CmdError                  0045e814     v5subs:listbox.obj
 0002:0000281c       _ConfigSection             0045e81c     v5subs:machine.obj
 0002:00002824       _FlashVersionKey           0045e824     v5subs:machine.obj
 0002:00002c0c       _Cursors                   0045ec0c     v5subs:rectclas.obj
 0002:00002d4c       _CrLf                      0045ed4c     v5subs:client.obj
 0002:00002e18       _ZeroPointZero             0045ee18     v5subs:dtotchar.obj
 0002:00002e30       _ZeroPointZero             0045ee30     v5subs:ftoasc.obj
 0002:00002e48       _MinPosDouble              0045ee48     v5subs:zero.obj
 0002:00002e50       _MinNegDouble              0045ee50     v5subs:zero.obj
 0002:00002e94       ?s@?1??is_hex_char@@YAED@Z@4QBDB 0045ee94     v5subs:hex.obj
 0002:00002eb8       _UnknownString             0045eeb8     v5subs:winsubs.obj
 0002:00002f28       _LFString                  0045ef28     dundas:ugctrl.obj
 0002:00002f2a       _EmptyString               0045ef2a     dundas:ugctrl.obj
 0002:00002f2c       _TabString                 0045ef2c     dundas:ugctrl.obj
 0002:000031d8       ?ugid@?1??GetUGID@CUGCellType@@UAEPBUUGID@@XZ@4U3@B 0045f1d8     dundas:ugceltyp.obj
 0002:00003288       ?ugid@?1??GetUGID@CUGDropListType@@UAEPBUUGID@@XZ@4U3@B 0045f288     dundas:ugdltype.obj
 0002:00003298       _EmptyString               0045f298     dundas:ugctarrw.obj
 0002:0000339c       _GS_ExceptionPointers      0045f39c     LIBCMT:gs_report.obj
 0002:000033b0       _Int32ToUInt32             0045f3b0     LIBCMT:ftol3.obj
 0002:000033c0       _MantissaMask              0045f3c0     LIBCMT:ftol3.obj
 0002:000033c8       _IntegerBit                0045f3c8     LIBCMT:ftol3.obj
 0002:000033d0       _SignBit64                 0045f3d0     LIBCMT:ftol3.obj
 0002:000033d8       _MinFP64                   0045f3d8     LIBCMT:ftol3.obj
 0002:000033e0       _MinInt64                  0045f3e0     LIBCMT:ftol3.obj
 0002:000033e8       _MaxInt64                  0045f3e8     LIBCMT:ftol3.obj
 0002:000033f0       _MaxUInt64                 0045f3f0     LIBCMT:ftol3.obj
 0002:000033f8       _MaxFP32                   0045f3f8     LIBCMT:ftol3.obj
 0002:00003400       _MinFP32                   0045f400     LIBCMT:ftol3.obj
 0002:00003408       _MinSubInexact             0045f408     LIBCMT:ftol3.obj
 0002:00003410       _FpExcptTable              0045f410     LIBCMT:ftol3.obj
 0002:00003420       _i1075                     0045f420     LIBCMT:ftol3.obj
 0002:00003424       _i1087                     0045f424     LIBCMT:ftol3.obj
 0002:00003428       _x0800                     0045f428     LIBCMT:ftol3.obj
 0002:0000342c       _x17FF                     0045f42c     LIBCMT:ftol3.obj
 0002:00003430       _CWMask                    0045f430     LIBCMT:ftol3.obj
 0002:00003440       _One                       0045f440     LIBCMT:floor_pentium4.obj
 0002:00003450       _Bns                       0045f450     LIBCMT:floor_pentium4.obj
 0002:00003460       _NegOne                    0045f460     LIBCMT:floor_pentium4.obj
 0002:00003470       _NegZero                   0045f470     LIBCMT:floor_pentium4.obj
 0002:00003480       _S                         0045f480     LIBCMT:floor_pentium4.obj
 0002:00003490       _One                       0045f490     LIBCMT:ceil_pentium4.obj
 0002:000034a0       _Bns                       0045f4a0     LIBCMT:ceil_pentium4.obj
 0002:000034b0       _Zero                      0045f4b0     LIBCMT:ceil_pentium4.obj
 0002:000034c0       _S                         0045f4c0     LIBCMT:ceil_pentium4.obj
 0002:000034d0       _NegZero                   0045f4d0     LIBCMT:ceil_pentium4.obj
 0002:000034f8       ?ExceptionTemplate@?1??_CxxThrowException@@9@8@4UEHExceptionRecord@@B 0045f4f8     LIBCMT:throw.obj
 0002:00003904       One                        0045f904     LIBCMT:87disp.obj
 0002:0000390c       XAMtoTagTab                0045f90c     LIBCMT:87disp.obj
 0002:00003920       One                        0045f920     LIBCMT:common.obj
 0002:00003934       DblMax                     0045f934     LIBCMT:common.obj
 0002:0000393c       DblMin                     0045f93c     LIBCMT:common.obj
 0002:00003944       IeeeAdjO                   0045f944     LIBCMT:common.obj
 0002:0000394c       IeeeAdjU                   0045f94c     LIBCMT:common.obj
 0002:00003954       _infinity                  0045f954     LIBCMT:common.obj
 0002:0000395c       _zero                      0045f95c     LIBCMT:common.obj
 0002:00003a08       _rterrs                    0045fa08     LIBCMT:crt0msg.obj
 0002:0000446c       __mb_locale_names          0046046c     LIBCMT:mbctype.obj
 0002:000047b0       __first_127char            004607b0     LIBCMT:wsetloca.obj
 0002:00004830       _INF                       00460830     LIBCMT:libm_error.obj
 0002:00004840       _BIG                       00460840     LIBCMT:libm_error.obj
 0002:00004850       _ZERO                      00460850     LIBCMT:libm_error.obj
 0002:00004860       _INF_32                    00460860     LIBCMT:libm_error.obj
 0002:00004868       _NAN_32                    00460868     LIBCMT:libm_error.obj
 0002:00004870       _ZERO_32                   00460870     LIBCMT:libm_error.obj
 0002:00004878       _libm_largef               00460878     LIBCMT:libm_error.obj
 0002:00004880       _libm_smallf               00460880     LIBCMT:libm_error.obj
 0002:00004888       _libm_small                00460888     LIBCMT:libm_error.obj
 0002:000048a0       emask                      004608a0     LIBCMT:log10_pentium4.obj
 0002:000048b0       CC                         004608b0     LIBCMT:log10_pentium4.obj
 0002:000048c0       Magic                      004608c0     LIBCMT:log10_pentium4.obj
 0002:000048d0       hi_mask                    004608d0     LIBCMT:log10_pentium4.obj
 0002:000048e0       LOG10_2                    004608e0     LIBCMT:log10_pentium4.obj
 0002:000048f0       place_L                    004608f0     LIBCMT:log10_pentium4.obj
 0002:00004910       One                        00460910     LIBCMT:log10_pentium4.obj
 0002:00004920       Zero                       00460920     LIBCMT:log10_pentium4.obj
 0002:00004930       Two52                      00460930     LIBCMT:log10_pentium4.obj
 0002:00004940       Infs                       00460940     LIBCMT:log10_pentium4.obj
 0002:00004950       NaN                        00460950     LIBCMT:log10_pentium4.obj
 0002:00004960       coeff                      00460960     LIBCMT:log10_pentium4.obj
 0002:000049a0       T_Tbl                      004609a0     LIBCMT:log10_pentium4.obj
 0002:00004db0       CB_Tbl                     00460db0     LIBCMT:log10_pentium4.obj
 0002:000051de       _log2max                   004611de     LIBCMT:87tran.obj
 0002:000051e8       _smallarg                  004611e8     LIBCMT:87tran.obj
 0002:000051f2       _half                      004611f2     LIBCMT:87tran.obj
 0002:00005220       _tokenTable                00461220     LIBCMT:undname.obj
 0002:00005258       _nameTable                 00461258     LIBCMT:undname.obj
 0002:00005398       _rttiTable                 00461398     LIBCMT:undname.obj
 0002:00008c38       __sehtable$__onexit        00464c38     LIBCMT:onexit.obj
 0002:00008c58       __sehtable$___tmainCRTStartup 00464c58     LIBCMT:wincrt0.obj
 0002:00008c78       __sehtable$_doexit         00464c78     LIBCMT:crt0dat.obj
 0002:00008c98       __sehtable$?_Type_info_dtor@type_info@@CAXPAV1@@Z 00464c98     LIBCMT:typname.obj
 0002:00008cb8       __sehtable$___set_fpsr_sse2 00464cb8     LIBCMT:fpctrl.obj
 0002:00008cd8       __sehtable$__freefls@4     00464cd8     LIBCMT:tidtable.obj
 0002:00008d00       __sehtable$__initptd       00464d00     LIBCMT:tidtable.obj
 0002:00008d28       __sehtable$__ioinit        00464d28     LIBCMT:ioinit.obj
 0002:00008d48       __sehtable$___updatetlocinfo 00464d48     LIBCMT:localref.obj
 0002:00008d68       __sehtable$___updatetmbcinfo 00464d68     LIBCMT:mbctype.obj
 0002:00008d88       __sehtable$__setmbcp       00464d88     LIBCMT:mbctype.obj
 0002:00008da8       __sehtable$__locterm       00464da8     LIBCMT:wsetloca.obj
 0002:00008dc8       __sehtable$__mtinitlocknum 00464dc8     LIBCMT:mlock.obj
 0002:00008de8       __sehtable$__IsNonwritableInCurrentImage 00464de8     LIBCMT:pesect.obj
 0002:00008e08       __sehtable$?terminate@@YAXXZ 00464e08     LIBCMT:hooks.obj
 0002:00008e28       __sehtable$_raise          00464e28     LIBCMT:winsig.obj
 0002:00008e48       __sehtable$_flsall         00464e48     LIBCMT:fflush.obj
 0002:00008e70       __sehtable$__fcloseall     00464e70     LIBCMT:closeall.obj
 0002:00008e90       __sehtable$__commit        00464e90     LIBCMT:commit.obj
 0002:00008eb0       __sehtable$__write         00464eb0     LIBCMT:write.obj
 0002:00008ed0       __sehtable$_fclose         00464ed0     LIBCMT:fclose.obj
 0002:00008ef0       __sehtable$___lock_fhandle 00464ef0     LIBCMT:osfinfo.obj
 0002:00008f10       __sehtable$__close         00464f10     LIBCMT:close.obj
 0002:00009604       .idata$6                   00465604     kernel32:KERNEL32.dll
 0002:00009abc       .idata$6                   00465abc     user32:USER32.dll
 0002:00009c92       .idata$6                   00465c92     gdi32:GDI32.dll
 0002:00009cca       .idata$6                   00465cca     winspool:WINSPOOL.DRV
 0002:00009cf4       .idata$6                   00465cf4     comdlg32:COMDLG32.dll
 0002:00009d02       .idata$6                   00465d02     comctl32:COMCTL32.dll
 0002:00009d22       .idata$6                   00465d22     shell32:SHELL32.dll
 0003:00000019       _HaveMonitorProgram        00467019     profile.obj
 0003:000000dc       _StandardProfileScreenType 004670dc     profile.obj
 0003:000000e0       _DisplayBeforeZoom         004670e0     profile.obj
 0003:000000e4       _LeftZoomAxis              004670e4     profile.obj
 0003:000000e8       _ZoomAxis                  004670e8     profile.obj
 0003:000000ec       _DayParamFontHandle        004670ec     profile.obj
 0003:000000f0       _PrintToClipFontHandle     004670f0     profile.obj
 0003:000000f4       _PrintingToClipboardKey    004670f4     profile.obj
 0003:00000108       _PrintToClipCommandKey     00467108     profile.obj
 0003:0000011c       _PrintToClipHeightKey      0046711c     profile.obj
 0003:00000130       _PrintToClipWidthKey       00467130     profile.obj
 0003:00000144       _PercentString             00467144     profile.obj
 0003:00000148       _TabString                 00467148     profile.obj
 0003:0000014c       _TwoSpacesString           0046714c     profile.obj
 0003:00000150       _HmiSection                00467150     profile.obj
 0003:00000154       _ClassKey                  00467154     profile.obj
 0003:00000a2c       _ClipFormat                00467a2c     profile.obj
 0003:00000a50       ?s@?1??get_ft2_help@@YAXXZ@4PADA 00467a50     profile.obj
 0003:00000a68       ?info@?1??get_ft2_help@@YAXXZ@4U_STARTUPINFOA@@A 00467a68     profile.obj
 0003:00000aac       ?defclass@?1??restore_focus_to_hmi@@YAXXZ@4PADA 00467aac     profile.obj
 0003:00000abb       ?was_realtime@?1??toggle_big_param_display_type@@YAXXZ@4EA 00467abb     profile.obj
 0003:00000abc       ?old_screen_type@?1??toggle_big_param_display_type@@YAXXZ@4FA 00467abc     profile.obj
 0003:00000ac0       ?separator@?1??update_day_param_display@@YAXXZ@4PADA 00467ac0     profile.obj
 0003:00000ac4       ?di@?1??print_me@@YAXXZ@4U_DOCINFOA@@A 00467ac4     profile.obj
 0003:00000ad8       ?CsDialog@?1??create_chosshot_window@@YAXXZ@4PADA 00467ad8     profile.obj
 0003:00000ae5       ?firstime@?1??password_level_callback@@YAXPADFPAUHDDEDATA__@@@Z@4_NA 00467ae5     profile.obj
 0003:00000ae8       ?title_ids@?1??choose_downtime_machine_dialog_proc@@YGHPAUHWND__@@IIJ@Z@4PAHA 00467ae8     profile.obj
 0003:00000aec       ?first_paint@?1??main_plot_proc@@YGJPAUHWND__@@IIJ@Z@4EA 00467aec     profile.obj
 0003:00000af0       ?tabstring@?1??sort_machine_list@@YAXPAUHWND__@@H@Z@4PADA 00467af0     profile.obj
 0003:00000af2       ?firstime@?1??write_std_units_csv_file@@YAEAAVSTRING_CLASS@@0@Z@4EA 00467af2     profile.obj
 0003:00000af8       ?title@?1??write_std_units_csv_file@@YAEAAVSTRING_CLASS@@0@Z@4PADA 00467af8     profile.obj
 0003:00000b40       ?counts_type@?1??csv_shot_file_dialog_proc@@YGHPAUHWND__@@IIJ@Z@4PADA 00467b40     profile.obj
 0003:00000b48       ?raw_counts_type@?1??csv_shot_file_dialog_proc@@YGHPAUHWND__@@IIJ@Z@4PADA 00467b48     profile.obj
 0003:00000b4c       ?std_units_type@?1??csv_shot_file_dialog_proc@@YGHPAUHWND__@@IIJ@Z@4PADA 00467b4c     profile.obj
 0003:00000b50       ?info@?1??run_monall@@YAXXZ@4U_STARTUPINFOA@@A 00467b50     profile.obj
 0003:00000b98       ?taskname@?1??run_tool@@YAXH@Z@4PAPADA 00467b98     profile.obj
 0003:00000bd8       ?helplist@?1??show_menu_help_text@@YAXI@Z@4PAUMENU_HELP_TEXT_ENTRY@?1??1@YAXI@Z@A 00467bd8     profile.obj
 0003:00000dc0       ?n@?1??show_menu_help_text@@YAXI@Z@4JA 00467dc0     profile.obj
 0003:00000dc4       ?first_time@?1??main_proc@@YGJPAUHWND__@@IIJ@Z@4EA 00467dc4     profile.obj
 0003:00000dc8       _ClipFormat                00467dc8     alarmexp.obj
 0003:00000dcc       _TabChar                   00467dcc     alarmexp.obj
 0003:00000dd0       _CrLfStr                   00467dd0     alarmexp.obj
 0003:00000dd4       ?id@?1??set_export_alarms_tab_stops@@YAXXZ@4PAHA 00467dd4     alarmexp.obj
 0003:00000df8       _FontHandle                00467df8     box.obj
 0003:00000dfc       _BoxLineWidth              00467dfc     box.obj
 0003:00000e00       _BoxLineHeight             00467e00     box.obj
 0003:00000e04       _BOX_SETPOINT_CSV          00467e04     box.obj
 0003:00000e18       ?Description@?1??put@BOXSET_CLASS@@QAEEXZ@4PAPADA 00467e18     box.obj
 0003:00000e1c       ?De@?1??show_text@STATUSBOX_ENTRY@@QAEXPAUHDC__@@@Z@4PAUDOWN_ENTRY@?1??12@QAEX0@Z@A 00467e1c     box.obj
 0003:00000e54       ?Ae@?1??show_text@STATUSBOX_ENTRY@@QAEXPAUHDC__@@@Z@4PAUDOWN_ENTRY@?1??12@QAEX0@Z@A 00467e54     box.obj
 0003:00000e64       _TabChar                   00467e64     chospart.obj
 0003:00000e68       ?fonthandle@?1??fill_statics@@YAXPAUHWND__@@@Z@4PAUHFONT__@@A 00467e68     chospart.obj
 0003:00000e6c       ?rlist@?1??fill_statics@@YAXPAUHWND__@@@Z@4PAURESOURCE_TEXT_ENTRY@?1??1@YAX0@Z@A 00467e6c     chospart.obj
 0003:00000e90       _LastX                     00467e90     chosshot.obj
 0003:00000e94       _LastY                     00467e94     chosshot.obj
 0003:00000e98       ?fonthandle@?1??fill_statics@@YAXPAUHWND__@@@Z@4PAUHFONT__@@A 00467e98     chosshot.obj
 0003:00000e9c       ?rlist@?1??fill_statics@@YAXPAUHWND__@@@Z@4PAURESOURCE_TEXT_ENTRY@?1??1@YAX0@Z@A 00467e9c     chosshot.obj
 0003:00000ec4       ?ids@?1??chosshot_proc@@YGHPAUHWND__@@IIJ@Z@4PAHA 00467ec4     chosshot.obj
 0003:00000ec8       ?DefAlarmColor@?1??restore_default_colors@@YAXXZ@4KA 00467ec8     colordef.obj
 0003:00000ecc       ?DefNoAlarmColor@?1??restore_default_colors@@YAXXZ@4KA 00467ecc     colordef.obj
 0003:00000ed0       ?DefWarningColor@?1??restore_default_colors@@YAXXZ@4KA 00467ed0     colordef.obj
 0003:00000ed4       ?DefNormalColor@?1??restore_default_colors@@YAXXZ@4PAKA 00467ed4     colordef.obj
 0003:00000f08       ?DefReferenceColor@?1??restore_default_colors@@YAXXZ@4PAKA 00467f08     colordef.obj
 0003:00000f3c       ?DefPrNormalColor@?1??restore_default_colors@@YAXXZ@4PAKA 00467f3c     colordef.obj
 0003:00000f70       ?DefPrReferenceColor@?1??restore_default_colors@@YAXXZ@4PAKA 00467f70     colordef.obj
 0003:00000fa4       ?need_to_restore@?1??color_definition_dialog_proc@@YGHPAUHWND__@@IIJ@Z@4EA 00467fa4     colordef.obj
 0003:00000fa8       _AxisName                  00467fa8     colors.obj
 0003:00000fdc       _CommaChar                 00467fdc     corner.obj
 0003:00000fe0       _DBarConfigIniFile         00467fe0     dbarcfg.obj
 0003:00000fec       _RangeTypeKey              00467fec     dbarcfg.obj
 0003:00000ff8       _NOfDaysKey                00467ff8     dbarcfg.obj
 0003:00001000       _StartTimeKey              00468000     dbarcfg.obj
 0003:0000100c       _EndTimeKey                0046800c     dbarcfg.obj
 0003:00001014       _SortSubsByCatKey          00468014     dbarcfg.obj
 0003:00001024       _ShowAllSubsKey            00468024     dbarcfg.obj
 0003:00001030       _CrLfStr                   00468030     dbarcfg.obj
 0003:00001034       _TabStr                    00468034     dbarcfg.obj
 0003:00001038       _ClipFormat                00468038     dbarcfg.obj
 0003:0000103c       _PRE_PRES_CONFIG           0046803c     dconfig.obj
 0003:0000104a       _NChar                     0046804a     dconfig.obj
 0003:0000104b       _YChar                     0046804b     dconfig.obj
 0003:0000104c       _POST_PRES_CONFIG          0046804c     dconfig.obj
 0003:0000105c       _PRE_CHAN_CONFIG           0046805c     dconfig.obj
 0003:0000106c       _POST_CHAN_CONFIG          0046806c     dconfig.obj
 0003:0000107c       _IsPresDisplayKey          0046807c     dconfig.obj
 0003:00001090       _NString                   00468090     dconfig.obj
 0003:00001094       _YString                   00468094     dconfig.obj
 0003:00001098       _CurveTypesToCheck         00468098     dconfig.obj
 0003:000010ac       _CurveTypesCheckOrder      004680ac     dconfig.obj
 0003:000010d0       _SpaceString               004680d0     downbar.obj
 0003:000010e0       ?nocat@?1??category@CAT_SUM_CLASS@@QAEPADXZ@4PADA 004680e0     downbar.obj
 0003:000010e4       ?s@?1??category@DOWNTIME_SUM_CLASS@@QAEPADXZ@4PADA 004680e4     downbar.obj
 0003:000010e8       _DefaultFontName           004680e8     editop.obj
 0003:000010f0       ?mytext@?1??OnSetup@EDITOP_GRID_CLASS@@UAEXXZ@4PADA 004680f0     editop.obj
 0003:00001114       _Delimiter                 00468114     export.obj
 0003:00001115       _CommaChar                 00468115     export.obj
 0003:00001116       _NChar                     00468116     export.obj
 0003:00001117       _SpaceChar                 00468117     export.obj
 0003:00001118       _TabChar                   00468118     export.obj
 0003:00001119       _YChar                     00468119     export.obj
 0003:0000111c       _CrLfStr                   0046811c     export.obj
 0003:00001120       _ExportingToCsvKey         00468120     export.obj
 0003:00001130       _CsvFileNameKey            00468130     export.obj
 0003:00001140       _SelectParamsKey           00468140     export.obj
 0003:00001158       _START_OF_LINE_LEN         00468158     export.obj
 0003:0000115c       _END_OF_LINE_LEN           0046815c     export.obj
 0003:00001160       _ClipFormat                00468160     export.obj
 0003:00001164       ?myhelpfile@?1??gethelp@@YAXIK@Z@4PADA 00468164     export.obj
 0003:00001170       ?alarm_type@?1??add_limits@@YAPADPADHPAH@Z@4PAPADA 00468170     export.obj
 0003:00001180       ?limit_type@?1??add_limits@@YAPADPADHPAH@Z@4PAPADA 00468180     export.obj
 0003:00001190       _DefaultFontName           00468190     gridclas.obj
 0003:00001198       ?mytext@?1??OnSetup@GRID_CLASS@@UAEXXZ@4PADA 00468198     gridclas.obj
 0003:0000119a       _CommaChar                 0046819a     olmsted.obj
 0003:0000119b       _SpaceChar                 0046819b     olmsted.obj
 0003:000011a0       _DX                        004681a0     paramhis.obj
 0003:000011a4       _DY                        004681a4     paramhis.obj
 0003:000011ac       _FontHandle                004681ac     paramwin.obj
 0003:000011b4       _ParameterListBackgroundColor 004681b4     paramwin.obj
 0003:000011b8       _DefaultFontName           004681b8     password.obj
 0003:000011c8       _DefaultPasswordLogFormat  004681c8     password.obj
 0003:000011d0       _DefaultPasswordName       004681d0     password.obj
 0003:000011d8       _MaxCharValue              004681d8     password.obj
 0003:000011dc       _Adjustor                  004681dc     password.obj
 0003:000011e0       ?helpfile@?1??cooptionshelp@@YAXIK@Z@4PADA 004681e0     password.obj
 0003:000011ec       ?helpfile@?1??gethelp@@YAXIK@Z@4PADA 004681ec     password.obj
 0003:00001200       ?control@?1??show_context_help@@YAHPAUHWND__@@J@Z@4PAUID_CONTEXT@?1??1@YAH0J@Z@A 00468200     password.obj
 0003:00001298       ?static_control@?1??show_context_help@@YAHPAUHWND__@@J@Z@4PAUID_CONTEXT@?1??1@YAH0J@Z@A 00468298     password.obj
 0003:00001340       ?firstime@?1??read_ftii_profile@@YAHPAD@Z@4EA 00468340     plot.obj
 0003:00001344       ?ft_analog_curve_type@?1??read_ftii_profile@@YAHPAD@Z@4PAGA 00468344     plot.obj
 0003:00001354       ?MyAnalogCurveType@?1??load_profile@@YAXPAD@Z@4PAGA 00468354     plot.obj
 0003:00001364       _TabChar                   00468364     rtmlist.obj
 0003:00001368       _XStr                      00468368     rtmlist.obj
 0003:0000136c       _SpaceStr                  0046836c     rtmlist.obj
 0003:00001370       ?MonitorClassName@?1??fill_listbox@@YAXD@Z@4PADA 00468370     rtmlist.obj
 0003:00001378       _Green_Color               00468378     status.obj
 0003:0000137c       _Status_Background_Color   0046837c     status.obj
 0003:00001380       _FontHandle                00468380     status.obj
 0003:00001384       _De                        00468384     status.obj
 0003:000013c0       _LastShotKey               004683c0     tcconfig.obj
 0003:000013cc       _FixedParamIniFile         004683cc     tcconfig.obj
 0003:000013dc       _TcConfigIniFile           004683dc     tcconfig.obj
 0003:000013ec       _AverageOverTypeKey        004683ec     tcconfig.obj
 0003:000013fc       _ChartTypeKey              004683fc     tcconfig.obj
 0003:00001408       _FirstShotKey              00468408     tcconfig.obj
 0003:00001414       _LclSigmaValueKey          00468414     tcconfig.obj
 0003:00001424       _NOfPointsKey              00468424     tcconfig.obj
 0003:00001430       _NToAverageKey             00468430     tcconfig.obj
 0003:0000143c       _NeedAlarmLimitsKey        0046843c     tcconfig.obj
 0003:0000144c       _NeedLclLimitKey           0046844c     tcconfig.obj
 0003:0000145c       _NeedUclLimitKey           0046845c     tcconfig.obj
 0003:0000146c       _NeedWarningLimitsKey      0046846c     tcconfig.obj
 0003:00001480       _TimePeriodTypeKey         00468480     tcconfig.obj
 0003:00001490       _UclSigmaValueKey          00468490     tcconfig.obj
 0003:000014a0       _VisibleListKey            004684a0     tcconfig.obj
 0003:000014ac       _XAxisTypeKey              004684ac     tcconfig.obj
 0003:000014b8       _IsFixedKey                004684b8     tcconfig.obj
 0003:000014c0       _MaxValueKey               004684c0     tcconfig.obj
 0003:000014cc       _MinValueKey               004684cc     tcconfig.obj
 0003:000014d8       _Tc                        004684d8     tcconfig.obj
 0003:00001540       _FirstIndex                00468540     trend.obj
 0003:00001544       _CellPlaces                00468544     trend.obj
 0003:00001564       _CHANNEL_MODE_1            00468564     xdcrplot.obj
 0003:00001568       _CHANNEL_MODE_2            00468568     xdcrplot.obj
 0003:0000156c       _CHANNEL_MODE_3            0046856c     xdcrplot.obj
 0003:00001570       _CHANNEL_MODE_4            00468570     xdcrplot.obj
 0003:00001574       _CHANNEL_MODE_5            00468574     xdcrplot.obj
 0003:00001578       _CHANNEL_MODE_6            00468578     xdcrplot.obj
 0003:0000157c       _CHANNEL_MODE_7            0046857c     xdcrplot.obj
 0003:00001594       _SpaceChar                 00468594     v5subs:mem.obj
 0003:00001595       _NineChar                  00468595     v5subs:mem.obj
 0003:00001596       _TabChar                   00468596     v5subs:mem.obj
 0003:00001597       _TildaChar                 00468597     v5subs:mem.obj
 0003:00001598       _ZeroChar                  00468598     v5subs:mem.obj
 0003:00001599       _MinusChar                 00468599     v5subs:extract.obj
 0003:0000159a       _PlusChar                  0046859a     v5subs:extract.obj
 0003:0000159b       _DotChar                   0046859b     v5subs:extract.obj
 0003:0000159c       _SpaceChar                 0046859c     v5subs:extract.obj
 0003:0000159d       _ZeroChar                  0046859d     v5subs:extract.obj
 0003:0000159e       _NineChar                  0046859e     v5subs:extract.obj
 0003:000015a0       _BackSlashChar             004685a0     v5subs:stringcl.obj
 0003:000015a1       _CommaChar                 004685a1     v5subs:stringcl.obj
 0003:000015a2       _CrChar                    004685a2     v5subs:stringcl.obj
 0003:000015a3       _LfChar                    004685a3     v5subs:stringcl.obj
 0003:000015a4       _OneChar                   004685a4     v5subs:stringcl.obj
 0003:000015a5       _SpaceChar                 004685a5     v5subs:stringcl.obj
 0003:000015a6       _ZeroChar                  004685a6     v5subs:stringcl.obj
 0003:000015a8       _BackSlashString           004685a8     v5subs:stringcl.obj
 0003:000015ac       _FalseString               004685ac     v5subs:stringcl.obj
 0003:000015b0       _TrueString                004685b0     v5subs:stringcl.obj
 0003:000015b4       _BackSlashChar             004685b4     v5subs:nameclas.obj
 0003:000015b5       _ForwardSlashChar          004685b5     v5subs:nameclas.obj
 0003:000015b6       _PeriodChar                004685b6     v5subs:nameclas.obj
 0003:000015b7       _ZeroChar                  004685b7     v5subs:nameclas.obj
 0003:000015b8       _Data                      004685b8     v5subs:nameclas.obj
 0003:000015c0       _Display                   004685c0     v5subs:nameclas.obj
 0003:000015c8       _Exes                      004685c8     v5subs:nameclas.obj
 0003:000015d0       _Results                   004685d0     v5subs:nameclas.obj
 0003:000015d8       _Resources                 004685d8     v5subs:nameclas.obj
 0003:000015e4       _VisiTrakIniFile           004685e4     v5subs:nameclas.obj
 0003:000015f4       _ConfigSection             004685f4     v5subs:nameclas.obj
 0003:000015fc       _ThisComputerKey           004685fc     v5subs:nameclas.obj
 0003:0000160c       _AutoBackupDirKey          0046860c     v5subs:autoback.obj
 0003:0000161c       _BackupSection             0046861c     v5subs:autoback.obj
 0003:00001624       _VisitrakIniFile           00468624     v5subs:autoback.obj
 0003:00001634       ?no_name@?1??name@DOWNCAT_NAME_CLASS@@QAEPADPAD@Z@4PADA 00468634     v5subs:catclass.obj
 0003:0000163c       ?no_name@?1??name@DOWNSCAT_NAME_CLASS@@QAEPADPAD0@Z@4PADA 0046863c     v5subs:catclass.obj
 0003:00001678       _SecurityAttributes        00468678     v5subs:dbsubs.obj
 0003:00001684       _BackslashChar             00468684     v5subs:dstat.obj
 0003:00001688       _FILE_SIZE_ERROR           00468688     v5subs:fileclas.obj
 0003:0000168c       _CrLf                      0046868c     v5subs:fileclas.obj
 0003:0000168f       _LfChar                    0046868f     v5subs:fileclas.obj
 0003:00001690       _CrChar                    00468690     v5subs:fileclas.obj
 0003:00001694       _CommaChar                 00468694     v5subs:ftanalog.obj
 0003:00001698       _CommaString               00468698     v5subs:ftanalog.obj
 0003:0000169c       _CommaChar                 0046869c     v5subs:setpoint.obj
 0003:000016a0       _CommaString               004686a0     v5subs:setpoint.obj
 0003:000016a4       _Data                      004686a4     v5subs:computer.obj
 0003:000016a9       _BackSlashChar             004686a9     v5subs:computer.obj
 0003:000016aa       _CommaChar                 004686aa     v5subs:computer.obj
 0003:000016ac       _Exes                      004686ac     v5subs:computer.obj
 0003:000016b4       _VisiTrakIniFile           004686b4     v5subs:computer.obj
 0003:000016c4       _ConfigSection             004686c4     v5subs:computer.obj
 0003:000016cc       _ThisComputerKey           004686cc     v5subs:computer.obj
 0003:000016dc       _CommaString               004686dc     v5subs:computer.obj
 0003:000016e0       _LeftBracket               004686e0     v5subs:iniclass.obj
 0003:000016e1       _RightBracket              004686e1     v5subs:iniclass.obj
 0003:000016e2       _NChar                     004686e2     v5subs:iniclass.obj
 0003:000016e3       _YChar                     004686e3     v5subs:iniclass.obj
 0003:000016e4       _LowerYChar                004686e4     v5subs:iniclass.obj
 0003:000016e8       _UnknownString             004686e8     v5subs:iniclass.obj
 0003:000016f0       _UnknownLen                004686f0     v5subs:iniclass.obj
 0003:000016f4       ?checkedchar@?1??put_boolean@INI_CLASS@@QAEEPBD0E@Z@4PADA 004686f4     v5subs:iniclass.obj
 0003:000016f8       _Description               004686f8     v5subs:machine.obj
 0003:00001770       _NofDescriptions           00468770     v5subs:machine.obj
 0003:00001774       ?DEVENT_TIME_INTRO@?1??get_binary_valve_settings_from_control_all@@YAXAAVMACHINE_CLASS@@@Z@4PADA 00468774     v5subs:machine.obj
 0003:0000177c       ?PULSE_TIME_INTRO@?1??get_binary_valve_settings_from_control_all@@YAXAAVMACHINE_CLASS@@@Z@4PADA 0046877c     v5subs:machine.obj
 0003:00001784       ?PULSE_WIRE_INTRO@?1??get_binary_valve_settings_from_control_all@@YAXAAVMACHINE_CLASS@@@Z@4PADA 00468784     v5subs:machine.obj
 0003:0000178c       ?inifile@?1??read_machset_db@MACHINE_CLASS@@QAEEAAVSTRING_CLASS@@@Z@4PADA 0046878c     v5subs:machine.obj
 0003:000017a8       _ResultsString             004687a8     v5subs:machname.obj
 0003:000017b0       _PChar                     004687b0     v5subs:param.obj
 0003:000017b1       _PCharLow                  004687b1     v5subs:param.obj
 0003:000017b4       _YChar                     004687b4     v5subs:part.obj
 0003:000017b8       _BackSlashString           004687b8     v5subs:part.obj
 0003:000017bc       _CommaString               004687bc     v5subs:part.obj
 0003:000017c0       _DaysPerMonth              004687c0     v5subs:timeclas.obj
 0003:000017f0       _MonthAbreviation          004687f0     v5subs:timeclas.obj
 0003:00001824       _Description               00468824     v5subs:plookup.obj
 0003:00001830       _SpaceChar                 00468830     v5subs:plookup.obj
 0003:00001834       _FtAnalogCurveType         00468834     v5subs:structs.obj
 0003:00001844       _DotChar                   00468844     v5subs:textlist.obj
 0003:00001848       _StarDotStar               00468848     v5subs:textlist.obj
 0003:0000184c       _NineChar                  0046884c     v5subs:strarray.obj
 0003:0000184d       _ZeroChar                  0046884d     v5subs:strarray.obj
 0003:00001850       _DefaultLanguage           00468850     v5subs:stringtable.obj
 0003:00001858       ?ic@?1??dups_to_vu@@YANFF@Z@4PANA 00468858     v5subs:unitadj.obj
 0003:00001878       ?ft@?1??dups_to_vu@@YANFF@Z@4PANA 00468878     v5subs:unitadj.obj
 0003:00001898       ?mm@?1??dups_to_vu@@YANFF@Z@4PANA 00468898     v5subs:unitadj.obj
 0003:000018b8       ?cm@?1??dups_to_vu@@YANFF@Z@4PANA 004688b8     v5subs:unitadj.obj
 0003:000018d8       _Days                      004688d8     v5subs:time.obj
 0003:000018f8       _YChar                     004688f8     v5subs:get_ini.obj
 0003:000018f9       _NChar                     004688f9     v5subs:get_ini.obj
 0003:000018fc       _UnknownString             004688fc     v5subs:get_ini.obj
 0003:00001904       ?checkedchar@?1??bool_to_ini@@YAXPBD00_N@Z@4PADA 00468904     v5subs:get_ini.obj
 0003:00001908       ?checkedchar@?1??boolean_to_ini@@YAXPBD00E@Z@4PADA 00468908     v5subs:get_ini.obj
 0003:0000190c       _ServerName                0046890c     v5subs:client.obj
 0003:00001918       _CodePageId                00468918     v5subs:client.obj
 0003:0000191c       _DdeClipFormat             0046891c     v5subs:client.obj
 0003:00001920       _BackSlashChar             00468920     v5subs:path.obj
 0003:00001921       _ColonChar                 00468921     v5subs:path.obj
 0003:00001924       _BackSlashString           00468924     v5subs:path.obj
 0003:00001928       _ExeString                 00468928     v5subs:path.obj
 0003:00001930       _ExeStringLength           00468930     v5subs:path.obj
 0003:00001934       _SpaceChar                 00468934     v5subs:fix.obj
 0003:00001935       _ZeroChar                  00468935     v5subs:fix.obj
 0003:00001936       _CrChar                    00468936     v5subs:fix.obj
 0003:00001937       _LfChar                    00468937     v5subs:fix.obj
 0003:00001938       _BackslashChar             00468938     v5subs:semaphor.obj
 0003:0000193c       _First_Time                0046893c     v5subs:gexedir.obj
 0003:00001940       _DefaultDirectory          00468940     v5subs:gexedir.obj
 0003:00001943       _SpaceChar                 00468943     v5subs:downsubs.obj
 0003:00001944       _TabChar                   00468944     v5subs:downsubs.obj
 0003:00001948       _YChar                     00468948     v5subs:misc.obj
 0003:00001949       _LowYChar                  00468949     v5subs:misc.obj
 0003:0000194c       _s                         0046894c     v5subs:misc.obj
 0003:00001954       _YString                   00468954     v5subs:misc.obj
 0003:00001958       _NString                   00468958     v5subs:misc.obj
 0003:0000195c       _Days                      0046895c     v5subs:shift.obj
 0003:00001978       _CurrentShiftDow           00468978     v5subs:shift.obj
 0003:0000197c       _CurrentShiftNumber        0046897c     v5subs:shift.obj
 0003:00001980       _Radix                     00468980     v5subs:hex.obj
 0003:00001984       _TempMessageClassName      00468984     v5subs:temp_message.obj
 0003:00001998       _TempMessageMargin         00468998     v5subs:temp_message.obj
 0003:0000199c       ?mycolor@?1??paint_temp_message@@YAXXZ@4KA 0046899c     v5subs:temp_message.obj
 0003:000019a0       ?firstime@?1??register_temp_message@@YAXXZ@4_NA 004689a0     v5subs:temp_message.obj
 0003:000019a4       _CommaChar                 004689a4     v5subs:ftii_shot_data.obj
 0003:000019a8       _CommaString               004689a8     v5subs:ftii_shot_data.obj
 0003:000019b0       ?title1@?1??write_csv@FTII_FILE_DATA@@QAEEAAVSTRING_CLASS@@@Z@4PADA 004689b0     v5subs:ftii_shot_data.obj
 0003:000019f8       ?title2@?1??write_csv@FTII_FILE_DATA@@QAEEAAVSTRING_CLASS@@@Z@4PADA 004689f8     v5subs:ftii_shot_data.obj
 0003:00001a30       ?title@?1??write_csv@FTII_ARRAY_DATA@@QAEXPAD@Z@4PADA 00468a30     v5subs:ftii_shot_data.obj
 0003:00001a78       _DefaultLanguage           00468a78     v5subs:menuctrl.obj
 0003:00001a80       _MenuClassName             00468a80     v5subs:menuctrl.obj
 0003:00001a90       _SubMenuClassName          00468a90     v5subs:menuctrl.obj
 0003:00001aa0       _BackGroundColor           00468aa0     v5subs:menuctrl.obj
 0003:00001aa4       _CurrentColor              00468aa4     v5subs:menuctrl.obj
 0003:00001abc       ?firstime@?1??register_window@MENU_CONTROL_ENTRY@@SAXXZ@4_NA 00468abc     v5subs:menuctrl.obj
 0003:00001abd       ?READ_COMPLETE@?1??read@MENU_CONTROL_ENTRY@@QAEEAAVNAME_CLASS@@H@Z@4DA 00468abd     v5subs:menuctrl.obj
 0003:00001ac0       _DefaultLanguage           00468ac0     v5subs:popctrl.obj
 0003:00001ac8       _PopupClassName            00468ac8     v5subs:popctrl.obj
 0003:00001ad8       _BackGroundColor           00468ad8     v5subs:popctrl.obj
 0003:00001adc       _CurrentColor              00468adc     v5subs:popctrl.obj
 0003:00001af4       ?firstime@?1??register_window@POPUP_CONTROL_ENTRY@@SAXXZ@4_NA 00468af4     v5subs:popctrl.obj
 0003:00001af5       _BackslashChar             00468af5     v5subs:profiles.obj
 0003:00001af6       _PeriodChar                00468af6     v5subs:profiles.obj
 0003:00001af7       _SpaceChar                 00468af7     v5subs:fillpart.obj
 0003:00001af8       _TabChar                   00468af8     v5subs:fillpart.obj
 0003:00001afc       _UnknownWorker             00468afc     v5subs:workclas.obj
 0003:00001b04       _NullChar                  00468b04     v5subs:is_empty.obj
 0003:00001b08       _AChar                     00468b08     v5subs:ftii_parameters.obj
 0003:00001b09       _PChar                     00468b09     v5subs:ftii_parameters.obj
 0003:00001b0c       _IstName                   00468b0c     v5subs:ftii_parameters.obj
 0003:00001b10       ?firstime@?1??calculate_ftii_parameters@@YAPANAAVFTII_PROFILE@@AAVMACHINE_CLASS@@AAVPART_CLASS@@AAVPARAMETER_CLASS@@AAVANALOG_SENSOR@@AAVFTANALOG_CLASS@@AAVFTCALC_CLASS@@@Z@4_NA 00468b10     v5subs:ftii_parameters.obj
 0003:00001b14       ?epi_skip_count@?1??calculate_ftii_parameters@@YAPANAAVFTII_PROFILE@@AAVMACHINE_CLASS@@AAVPART_CLASS@@AAVPARAMETER_CLASS@@AAVANALOG_SENSOR@@AAVFTANALOG_CLASS@@AAVFTCALC_CLASS@@@Z@4HA 00468b14     v5subs:ftii_parameters.obj
 0003:00001b18       _RoutinesFile              00468b18     v5subs:error_ms.obj
 0003:00001b28       _ErrMsgFile                00468b28     v5subs:error_ms.obj
 0003:00001b38       _FtErrMsgFile              00468b38     v5subs:error_ms.obj
 0003:00001b50       _ClipFormat                00468b50     dundas:ugctrl.obj
 0003:00001b54       ?UGCtrlName@?1??CreateCtrlWindow@CUGCtrl@@QAEHKUtagRECT@@PAUHWND__@@I@Z@4PADA 00468b54     dundas:ugctrl.obj
 0003:00001b5c       _CornerButtonName          00468b5c     dundas:ugcnrbtn.obj
 0003:00001b68       _DefaultFontName           00468b68     dundas:ugtab.obj
 0003:00001b80       _NAME_                     00468b80     LIBCMT:sqrt.obj
 0003:00001b90       LOG_name                   00468b90     LIBCMT:log10.obj
 0003:00001ba0       ?isPackaged@?1??__crtIsPackagedApp@@9@9 00468ba0     LIBCMT:winapisupp.obj
 0003:00001ba8       ?_names@?1??_get_fname@@9@9 00468ba8     LIBCMT:fpexcept.obj
 0003:00001cf8       _over                      00468cf8     LIBCMT:fpctrl.obj
 0003:00001d04       _under                     00468d04     LIBCMT:fpctrl.obj
 0003:00001d10       ?__DAZ_ENABLED@?1??__set_fpsr_sse2@@9@9 00468d10     LIBCMT:fpctrl.obj
 0003:00001d58       _errtable                  00468d58     LIBCMT:dosmap.obj
 0003:00001ec0       _ErrnoNoMem                00468ec0     LIBCMT:dosmap.obj
 0003:00001ec4       _DoserrorNoMem             00468ec4     LIBCMT:dosmap.obj
 0003:000022f0       ___rgctypeflag             004692f0     LIBCMT:mbctype.obj
 0003:000022f8       ___rgcode_page_info        004692f8     LIBCMT:mbctype.obj
 0003:00002628       __ctype_loc_style          00469628     LIBCMT:wsetloca.obj
 0003:0000262c       _newcw                     0046962c     LIBCMT:floor.obj
 0003:00002630       _newcw                     00469630     LIBCMT:ceil.obj
 0003:00002640       __locktable                00469640     LIBCMT:mlock.obj
 0003:000029f0       _DoubleFormat              004699f0     LIBCMT:intrncvt.obj
 0003:00002a08       _FloatFormat               00469a08     LIBCMT:intrncvt.obj
 0003:00003127       _WasRealtimeBeforeZoom     0046a127     profile.obj
 0003:00003218       _WasSingleMachineBeforeZoom 0046a218     profile.obj
 0003:00003219       _NeedToUpdateZoomLabels    0046a219     profile.obj
 0003:0000321a       _HaveSureTrakControl       0046a21a     profile.obj
 0003:0000321b       _UseDowntimeEntry          0046a21b     profile.obj
 0003:0000321e       _HaveNewShotFromFt2        0046a21e     profile.obj
 0003:0000321f       _PrintingToClipboard       0046a21f     profile.obj
 0003:00003220       _LeftZoomIndex             0046a220     profile.obj
 0003:00003224       _ZoomIndex                 0046a224     profile.obj
 0003:00003228       _ZoomAnalogType            0046a228     profile.obj
 0003:00003230       _DayParamTitlePosition     0046a230     profile.obj
 0003:00003234       _NofDayParamTitles         0046a234     profile.obj
 0003:00003238       _DayParamFontHeight        0046a238     profile.obj
 0003:0000323c       _DayParamFontWidth         0046a23c     profile.obj
 0003:00003240       _OldDayParamEditProc       0046a240     profile.obj
 0003:00003244       _PrintToClipFontHeight     0046a244     profile.obj
 0003:00003248       _PrintToClipFontWidth      0046a248     profile.obj
 0003:0000324c       _PrintToClipHeight         0046a24c     profile.obj
 0003:00003250       _PrintToClipWidth          0046a250     profile.obj
 0003:00003254       _PToCNofParameters         0046a254     profile.obj
 0003:00003258       _PToCParamFontHandle       0046a258     profile.obj
 0003:0000325c       _DowntimeEntryIsChanging   0046a25c     profile.obj
 0003:00003260       _PTestIsRunning            0046a260     profile.obj
 0003:00003264       _PTestWindow               0046a264     profile.obj
 0003:00003268       _PrinterFont               0046a268     profile.obj
 0003:0008d6fc       _DayParamFont              004f46fc     profile.obj
 0003:0008e314       _DayParamLb                004f5314     profile.obj
 0003:0008e5f4       _DayParamTitle             004f55f4     profile.obj
 0003:0008e5fc       _DayParamCurrentEntry      004f55fc     profile.obj
 0003:0008e604       _PrintToClipCommand        004f5604     profile.obj
 0003:0008e60c       _PrintToClipFont           004f560c     profile.obj
 0003:0008e6c0       _PToCHistHeight            004f56c0     profile.obj
 0003:0008e6d0       _PToCHistWidth             004f56d0     profile.obj
 0003:0008e6e0       _DowntimeEntryLb           004f56e0     profile.obj
 0003:0008e6f4       _DowntimeEntryMachine      004f56f4     profile.obj
 0003:0008e6fc       _CursorStartY              004f56fc     profile.obj
 0003:0008e700       _CursorEndY                004f5700     profile.obj
 0003:0008e704       _LeftCursorX               004f5704     profile.obj
 0003:0008e708       _CursorX                   004f5708     profile.obj
 0003:0008e70c       _FirstAlarmDate            004f570c     profile.obj
 0003:0008e71c       _FirstAlarmShift           004f571c     profile.obj
 0003:0008e720       _CurrentAlarmDate          004f5720     profile.obj
 0003:0008e730       _CurrentAlarmShift         004f5730     profile.obj
 0003:0008e734       _LastAlarmDate             004f5734     profile.obj
 0003:0008e744       _LastAlarmShift            004f5744     profile.obj
 0003:0008e748       _DayParamEb                004f5748     profile.obj
 0003:0008e74c       _DowntimeEntryDialog       004f574c     profile.obj
 0003:0008e750       _DowntimeEntryEbox         004f5750     profile.obj
 0003:0008e754       _DowntimeEntryOkButton     004f5754     profile.obj
 0003:0008e758       _OldEditProc               004f5758     profile.obj
 0003:0008e75c       _DowntimeEntrySt           004f575c     profile.obj
 0003:0008e76c       _InfoBoxType               004f576c     profile.obj
 0003:0008e770       _NeedCornerParamUpdate     004f5770     profile.obj
 0003:0008e774       ?r@?1??my_desktop_client_rect@@YAAAUtagRECT@@XZ@4U2@A 004f5774     profile.obj
 0003:0008e784       ?s@?1??set_xbox_from_lb@@YAXXZ@4VSTRING_CLASS@@A 004f5784     profile.obj
 0003:0008e78c       ?$S1@?1??set_xbox_from_lb@@YAXXZ@4IA 004f578c     profile.obj
 0003:0008e790       ?s@?1??set_lb_from_xbox@@YAXXZ@4VSTRING_CLASS@@A 004f5790     profile.obj
 0003:0008e798       ?$S2@?1??set_lb_from_xbox@@YAXXZ@4IA 004f5798     profile.obj
 0003:0008e79c       ?i@?1??set_lb_from_xbox@@YAXXZ@4HA 004f579c     profile.obj
 0003:0008e7a0       ?is_ok@?1??set_lb_from_xbox@@YAXXZ@4HA 004f57a0     profile.obj
 0003:0008e7a8       ?pd@?1??get_printer_dc@@YAPAUHDC__@@XZ@4UtagPDA@@A 004f57a8     profile.obj
 0003:0008e7ea       ?was_single_machine@?1??toggle_big_param_display_type@@YAXXZ@4EA 004f57ea     profile.obj
 0003:0008e7ec       ?lb@?1??choose_downtime_machine_dialog_proc@@YGHPAUHWND__@@IIJ@Z@4VLISTBOX_CLASS@@A 004f57ec     profile.obj
 0003:0008e800       ?$S4@?1??choose_downtime_machine_dialog_proc@@YGHPAUHWND__@@IIJ@Z@4IA 004f5800     profile.obj
 0003:0008e804       ?direction@?1??do_zoom_arrow_keys@@YAEH@Z@4HA 004f5804     profile.obj
 0003:0008e808       ?was_realtime@?1??update_screen_type@@YAXF@Z@4EA 004f5808     profile.obj
 0003:0008e809       ?was_single_machine@?1??update_screen_type@@YAXF@Z@4EA 004f5809     profile.obj
 0003:0008e810       ?buf@?1??alarm_lb_string@@YAPADPAUHWND__@@JAAVALARM_SUMMARY_CLASS@@@Z@4PADA 004f5810     profile.obj
 0003:0008e854       ?buf@?1??date_and_shift_string@@YAPADAAVTIME_CLASS@@J@Z@4PADA 004f5854     profile.obj
 0003:0008e858       ?cp@?1??date_and_shift_string@@YAPADAAVTIME_CLASS@@J@Z@4PADA 004f5858     profile.obj
 0003:0008e85c       ?AnalogSensor@?1??write_std_units_csv_file@@YAEAAVSTRING_CLASS@@0@Z@4VANALOG_SENSOR@@A 004f585c     profile.obj
 0003:0008e860       ?$S5@?1??write_std_units_csv_file@@YAEAAVSTRING_CLASS@@0@Z@4IA 004f5860     profile.obj
 0003:0008e864       ?use_shot_number@?1??csv_shot_file_dialog_proc@@YGHPAUHWND__@@IIJ@Z@4EA 004f5864     profile.obj
 0003:0008e868       ?t@?1??main_proc@@YGJPAUHWND__@@IIJ@Z@4VTEXT_LIST_CLASS@@A 004f5868     profile.obj
 0003:0008e878       ?$S6@?1??main_proc@@YGJPAUHWND__@@IIJ@Z@4IA 004f5878     profile.obj
 0003:0008e87c       ?status@?1??init@@YAXH@Z@4KA 004f587c     profile.obj
 0003:0008e880       _NullChar                  004f5880     alarmexp.obj
 0003:0008e884       ?tabs@?1??set_export_alarms_tab_stops@@YAXXZ@4PAHA 004f5884     alarmexp.obj
 0003:0008e8a8       _NofStatusBoxes            004f58a8     box.obj
 0003:0008e8ac       _StatusBoxes               004f58ac     box.obj
 0003:0008e8b0       _HaveTooltips              004f58b0     box.obj
 0003:0008e8b4       _BoxCharHeight             004f58b4     box.obj
 0003:0008e8b8       _BoxNumberHeight           004f58b8     box.obj
 0003:0008e8bc       _BoxBaseHeight             004f58bc     box.obj
 0003:0008e8c0       _BoxCharWidth              004f58c0     box.obj
 0003:0008e8c4       _HGap                      004f58c4     box.obj
 0003:0008e8c8       _VGap                      004f58c8     box.obj
 0003:0008e8cc       _VMachineOffset            004f58cc     box.obj
 0003:0008e8d0       _VPartOffset               004f58d0     box.obj
 0003:0008e8d4       _VShotOffset               004f58d4     box.obj
 0003:0008e8d8       _VDateOffset               004f58d8     box.obj
 0003:0008e8dc       _VAlarmOffset              004f58dc     box.obj
 0003:0008e8e0       _VDownOffset               004f58e0     box.obj
 0003:0008e8e4       _BorderHeight              004f58e4     box.obj
 0003:0008e8e8       _BorderWidth               004f58e8     box.obj
 0003:0008e8ec       ?$S1@?1??show_text@STATUSBOX_ENTRY@@QAEXPAUHDC__@@@Z@4IA 004f58ec     box.obj
 0003:0008e8f0       ?r@?1??bounds@STATUSBOX_ENTRY@@QAEPAUtagRECT@@XZ@4U3@A 004f58f0     box.obj
 0003:0008e900       ?r@?1??machine_rect@STATUSBOX_ENTRY@@QAEPAUtagRECT@@XZ@4U3@A 004f5900     box.obj
 0003:0008e910       ?r@?1??part_rect@STATUSBOX_ENTRY@@QAEPAUtagRECT@@XZ@4U3@A 004f5910     box.obj
 0003:0008e920       ?r@?1??shot_rect@STATUSBOX_ENTRY@@QAEPAUtagRECT@@XZ@4U3@A 004f5920     box.obj
 0003:0008e930       ?r@?1??date_rect@STATUSBOX_ENTRY@@QAEPAUtagRECT@@XZ@4U3@A 004f5930     box.obj
 0003:0008e940       ?r@?1??down_rect@STATUSBOX_ENTRY@@QAEPAUtagRECT@@XZ@4U3@A 004f5940     box.obj
 0003:0008e950       ?r@?1??alarm_rect@STATUSBOX_ENTRY@@QAEPAUtagRECT@@XZ@4U3@A 004f5950     box.obj
 0003:0008e960       ?buf@?1??tiptext@@YAPADJPAD0@Z@4PADA 004f5960     box.obj
 0003:0008e984       _NullChar                  004f5984     chospart.obj
 0003:0008e988       _MyWindow                  004f5988     chospart.obj
 0003:0008e98c       ?machine_name@?1??current_machine_name@@YAPADXZ@4VSTRING_CLASS@@A 004f598c     chospart.obj
 0003:0008e994       ?$S1@?1??current_machine_name@@YAPADXZ@4IA 004f5994     chospart.obj
 0003:0008e998       ?my_font@?1??fill_statics@@YAXPAUHWND__@@@Z@4VFONT_CLASS@@A 004f5998     chospart.obj
 0003:0008e9d4       ?$S2@?1??fill_statics@@YAXPAUHWND__@@@Z@4IA 004f59d4     chospart.obj
 0003:0008e9d8       ?my_language@?1??fill_statics@@YAXPAUHWND__@@@Z@4VSTRING_CLASS@@A 004f59d8     chospart.obj
 0003:0008ea00       _MyWindow                  004f5a00     chosshot.obj
 0003:0008ea04       _NSelected                 004f5a04     chosshot.obj
 0003:0008ea08       ?my_machine_name@?1??current_machine_name@@YAAAVSTRING_CLASS@@XZ@4V2@A 004f5a08     chosshot.obj
 0003:0008ea10       ?$S1@?1??current_machine_name@@YAAAVSTRING_CLASS@@XZ@4IA 004f5a10     chosshot.obj
 0003:0008ea14       ?my_part_name@?1??current_part_name@@YAAAVSTRING_CLASS@@XZ@4V2@A 004f5a14     chosshot.obj
 0003:0008ea1c       ?$S2@?1??current_part_name@@YAAAVSTRING_CLASS@@XZ@4IA 004f5a1c     chosshot.obj
 0003:0008ea20       ?my_font@?1??fill_statics@@YAXPAUHWND__@@@Z@4VFONT_CLASS@@A 004f5a20     chosshot.obj
 0003:0008ea5c       ?$S3@?1??fill_statics@@YAXPAUHWND__@@@Z@4IA 004f5a5c     chosshot.obj
 0003:0008ea60       ?my_language@?1??fill_statics@@YAXPAUHWND__@@@Z@4VSTRING_CLASS@@A 004f5a60     chosshot.obj
 0003:0008eb4c       ?DefDialogTextColor@?1??restore_default_colors@@YAXXZ@4KA 004f5b4c     colordef.obj
 0003:0008eb50       ?acrCustClr@?1??choose_one_color@@YAKI@Z@4PAKA 004f5b50     colordef.obj
 0003:0008eb90       _NullChar                  004f5b90     corner.obj
 0003:0008ebec       ?st@?1??get_date@@YAAAU_SYSTEMTIME@@PAUHWND__@@III@Z@4U2@A 004f5bec     dbarcfg.obj
 0003:0008ebfc       ?buf@?1??listbox_line@@YAPADAAVDB_TABLE@@@Z@4VSTRING_CLASS@@A 004f5bfc     dbarcfg.obj
 0003:0008ec04       ?$S1@?1??listbox_line@@YAPADAAVDB_TABLE@@@Z@4IA 004f5c04     dbarcfg.obj
 0003:0008ec08       _NullChar                  004f5c08     dconfig.obj
 0003:0008ec09       _EmptyString               004f5c09     dconfig.obj
 0003:0008ec0c       _FixedPressures            004f5c0c     dconfig.obj
 0003:0008ec14       _FixedChannels             004f5c14     dconfig.obj
 0003:0008ec1c       _Ini                       004f5c1c     dconfig.obj
 0003:0008ec2c       _MyWindowHandle            004f5c2c     dconfig.obj
 0003:0008ec30       _PreChannelTypes           004f5c30     dconfig.obj
 0003:0008ec34       _PostChannelTypes          004f5c34     dconfig.obj
 0003:0008ec38       _PrePressureTypes          004f5c38     dconfig.obj
 0003:0008ec3c       _PostPressureTypes         004f5c3c     dconfig.obj
 0003:0008ec48       _NullChar                  004f5c48     downbar.obj
 0003:0008ecc0       ?emptystring@?1??title@CAT_SUM_CLASS@@QAEPADXZ@4PADA 004f5cc0     downbar.obj
 0003:0008ecc4       ?dummy@?1??seconds@CAT_SUM_CLASS@@QAEAAJPAD@Z@4JA 004f5cc4     downbar.obj
 0003:0008ecc8       ?no_seconds@?1??seconds@DOWNTIME_SUM_CLASS@@QAEAAJPAD0@Z@4JA 004f5cc8     downbar.obj
 0003:0008eccc       ?s@?1??title@DOWNTIME_SUM_CLASS@@QAEPADXZ@4PADA 004f5ccc     downbar.obj
 0003:0008ecf0       _MyWindow                  004f5cf0     editop.obj
 0003:0008ecf8       _Grid                      004f5cf8     editop.obj
 0003:0008efac       _MaxChars                  004f5fac     editop.obj
 0003:0008efb0       _ProgramIsUpdating         004f5fb0     editshif.obj
 0003:0008efb4       _DialogWindow              004f5fb4     editshif.obj
 0003:0008efb8       ?tabs@?1??set_tab_stops@@YAXXZ@4PAHA 004f5fb8     editshif.obj
 0003:0008efc4       ?s@?1??two_char_int32@@YAPADJ@Z@4PADA 004f5fc4     editshif.obj
 0003:0008efc8       ?s@?1??lbline@EDIT_SHIFT_CLASS@@QAEPADXZ@4PADA 004f5fc8     editshif.obj
 0003:0008efec       _NullChar                  004f5fec     export.obj
 0003:0008efed       _OriginalExportToCsv       004f5fed     export.obj
 0003:0008efee       _ExportingToCsv            004f5fee     export.obj
 0003:0008eff0       _MyWindow                  004f5ff0     export.obj
 0003:0008eff4       ?s@?1??export_shots_proc@@YGHPAUHWND__@@IIJ@Z@4VSTRING_CLASS@@A 004f5ff4     export.obj
 0003:0008effc       ?$S1@?1??export_shots_proc@@YGHPAUHWND__@@IIJ@Z@4IA 004f5ffc     export.obj
 0003:0008f008       _OldFont                   004f6008     mplot.obj
 0003:0008f00c       _BigFont                   004f600c     mplot.obj
 0003:0008f010       _EmptyPlot                 004f6010     mplot.obj
 0003:0008f074       _SelectList                004f6074     mulprint.obj
 0003:0008f078       _SelectCount               004f6078     mulprint.obj
 0003:0008f07c       _SelectIndex               004f607c     mulprint.obj
 0003:0008f080       ?machine_name@?1??current_machine_name@@YAPADXZ@4VSTRING_CLASS@@A 004f6080     mulprint.obj
 0003:0008f088       ?$S1@?1??current_machine_name@@YAPADXZ@4IA 004f6088     mulprint.obj
 0003:0008f08c       _NullChar                  004f608c     olmsted.obj
 0003:0008f098       _ParamArray                004f6098     paramhis.obj
 0003:0008f09c       _ShotNumberArray           004f609c     paramhis.obj
 0003:0008f0a0       _SaveFlagsArray            004f60a0     paramhis.obj
 0003:0008f0a4       _EmptyString               004f60a4     paramwin.obj
 0003:0008f0a8       _FontList                  004f60a8     paramwin.obj
 0003:0008f0ac       ?ypos@?1??parameter_window_proc@@YGHPAUHWND__@@IIJ@Z@4HA 004f60ac     paramwin.obj
 0003:0008f0b0       _EnterWindow               004f60b0     password.obj
 0003:0008f0b4       _EditWindow                004f60b4     password.obj
 0003:0008f0b8       _CoOptionsWindow           004f60b8     password.obj
 0003:0008f0bc       _ProgramIsUpdating         004f60bc     password.obj
 0003:0008f0c0       _PasswordLogFormat         004f60c0     password.obj
 0003:0008f0c8       _LogFileName               004f60c8     password.obj
 0003:0008f0d0       _Password                  004f60d0     password.obj
 0003:0008f398       ?EmptyPasswordEntry@?1???APASSWORD_CLASS@@QAEAAUPASSWORD_ENTRY@@J@Z@4U2@A 004f6398     password.obj
 0003:0008f3d0       ?$S3@?1???APASSWORD_CLASS@@QAEAAUPASSWORD_ENTRY@@J@Z@4IA 004f63d0     password.obj
 0003:0008f3d8       ?buf@?1??ini_name@@YAPADPBD@Z@4PADA 004f63d8     password.obj
 0003:0008f4e0       _AnalogSensor              004f64e0     plot.obj
 0003:0008f4e4       ?buf@?1??smooth_one_curve@@YAXPAMH@Z@4PAMA 004f64e4     plot.obj
 0003:0008f4e8       ?MySemaphor@?1??load_profile@@YAXPAD@Z@4HA 004f64e8     plot.obj
 0003:0008f4ec       _NullChar                  004f64ec     rtmlist.obj
 0003:0008f4f0       _MyWindow                  004f64f0     rtmlist.obj
 0003:0008f4f4       _OldLbProc                 004f64f4     rtmlist.obj
 0003:0008f4f8       ?buf@?1??machine_listbox_string@@YAPADAAVSTRING_CLASS@@D@Z@4V2@A 004f64f8     rtmlist.obj
 0003:0008f500       ?$S1@?1??machine_listbox_string@@YAPADAAVSTRING_CLASS@@D@Z@4IA 004f6500     rtmlist.obj
 0003:0008f504       _HaveNewFont               004f6504     status.obj
 0003:0008f505       _NeedAlarms                004f6505     status.obj
 0003:0008f506       _NeedDowntime              004f6506     status.obj
 0003:0008f508       _Row                       004f6508     status.obj
 0003:0008f50c       _NofRows                   004f650c     status.obj
 0003:0008f510       _Column                    004f6510     status.obj
 0003:0008f514       _NofColumns                004f6514     status.obj
 0003:0008f524       _FontList                  004f6524     status.obj
 0003:0008f528       ?s@?1??put@STATUS_SCREEN_COLUMN_ENTRY@@QAEPADXZ@4VSTRING_CLASS@@A 004f6528     status.obj
 0003:0008f530       ?$S1@?1??put@STATUS_SCREEN_COLUMN_ENTRY@@QAEPADXZ@4IA 004f6530     status.obj
 0003:0008f534       ?last_shift@?1??status_screen_timer_update@@YAXXZ@4FA 004f6534     status.obj
 0003:0008f538       ?last_dow@?1??status_screen_timer_update@@YAXXZ@4FA 004f6538     status.obj
 0003:0008f53c       _UpdatingEditControls      004f653c     tcconfig.obj
 0003:0008f540       _linechanged               004f6540     tcconfig.obj
 0003:0008f550       ?s@?1??lbline@FIXED_PARAM_CLASS@@QAEPADPAD@Z@4PADA 004f6550     tcconfig.obj
 0003:0008f5c0       ?s@?1??current_parameter_name@@YAPADPAUHWND__@@@Z@4PADA 004f65c0     tcconfig.obj
 0003:0008f5e0       _NofPointsRead             004f65e0     trend.obj
 0003:0008f5e4       _XAxisIndex                004f65e4     trend.obj
 0003:0008f5e8       _HaveCursorLine            004f65e8     trend.obj
 0003:0008f5e9       _ReadyForCursor            004f65e9     trend.obj
 0003:0008f5ea       _Resetting                 004f65ea     trend.obj
 0003:0008f5eb       _EmptyString               004f65eb     trend.obj
 0003:0008f5ec       _Current                   004f65ec     trend.obj
 0003:0008f604       _CursorStartY              004f6604     trend.obj
 0003:0008f6f0       _CursorEndY                004f66f0     trend.obj
 0003:0008f6f4       _CursorLeft                004f66f4     trend.obj
 0003:0008f6f8       _CursorX                   004f66f8     trend.obj
 0003:0008f6fc       ?s@?1??celltext@@YAPADJJ@Z@4PADA 004f66fc     trend.obj
 0003:0008f700       ?nof_plots@?1??paint_trend_display@@YAXABUtagRECT@@@Z@4JA 004f6700     trend.obj
 0003:0008f704       ?empty_shot@?1???ASHOT_ARRAY_CLASS@@QAEAAVSHOT_DATA_ENTRY@@J@Z@4V2@A 004f6704     xaxis.obj
 0003:0008f70c       ?$S1@?1???ASHOT_ARRAY_CLASS@@QAEAAVSHOT_DATA_ENTRY@@J@Z@4IA 004f670c     xaxis.obj
 0003:0008f71c       _DriveName                 004f671c     v5subs:exists.obj
 0003:0008f71f       _NullChar                  004f671f     v5subs:mem.obj
 0003:0008f720       _NullChar                  004f6720     v5subs:extract.obj
 0003:0008f724       ?s@?1??int32toasc@@YAPADJ@Z@4PADA 004f6724     v5subs:itoasc.obj
 0003:0008f738       ?s@?1??ultoascii@@YAPADKK@Z@4PADA 004f6738     v5subs:itoasc.obj
 0003:0008f74c       _NullChar                  004f674c     v5subs:stringcl.obj
 0003:0008f750       _NullChar                  004f6750     v5subs:nameclas.obj
 0003:0008f754       _EmptyString               004f6754     v5subs:nameclas.obj
 0003:0008f75c       _MyComputer                004f675c     v5subs:nameclas.obj
 0003:0008f768       _SensorArray               004f6768     v5subs:asensor.obj
 0003:0008f76c       _NofSensors                004f676c     v5subs:asensor.obj
 0003:0008f770       _EmptySensor               004f6770     v5subs:asensor.obj
 0003:0008f7bc       _EmptyDowncatEntry         004f67bc     v5subs:catclass.obj
 0003:0008f7d0       _EmptyDownscatEntry        004f67d0     v5subs:catclass.obj
 0003:0008f7ea       _emptystring               004f67ea     v5subs:chaxis.obj
 0003:0008f7ec       _NofColors                 004f67ec     v5subs:color.obj
 0003:0008f7f0       _ColorArray                004f67f0     v5subs:color.obj
 0003:0008f7f4       _NullChar                  004f67f4     v5subs:fileclas.obj
 0003:0008f7f8       ?buf@?1??ascii_long@@YAPADJJ@Z@4PADA 004f67f8     v5subs:fontclas.obj
 0003:0008f810       ?buf@?1??put@FONT_CLASS@@QAEPADXZ@4PADA 004f6810     v5subs:fontclas.obj
 0003:0008f8b3       _EmptyString               004f68b3     v5subs:ftanalog.obj
 0003:0008f8b4       _NullChar                  004f68b4     v5subs:setpoint.obj
 0003:0008f8b8       _empty_entry               004f68b8     v5subs:setpoint.obj
 0003:0008f8c8       _NullChar                  004f68c8     v5subs:computer.obj
 0003:0008f8cc       _First                     004f68cc     v5subs:computer.obj
 0003:0008f8d0       _MyComputer                004f68d0     v5subs:computer.obj
 0003:0008f8d8       _NoComputer                004f68d8     v5subs:computer.obj
 0003:0008f8e0       _NofComputers              004f68e0     v5subs:computer.obj
 0003:0008f8e4       _NullChar                  004f68e4     v5subs:iniclass.obj
 0003:0008f8e5       ?empty_string@?1??get_string@INI_CLASS@@QAEPADXZ@4PADA 004f68e5     v5subs:iniclass.obj
 0003:0008f8e6       _EmptyString               004f68e6     v5subs:listbox.obj
 0003:0008f8e8       _NullChar                  004f68e8     v5subs:machname.obj
 0003:0008f8ec       _EmptyString               004f68ec     v5subs:machname.obj
 0003:0008f8f4       _NullChar                  004f68f4     v5subs:param.obj
 0003:0008f8f8       ?st@?1??system_time@TIME_CLASS@@QAEAAU_SYSTEMTIME@@XZ@4U3@A 004f68f8     v5subs:timeclas.obj
 0003:0008f908       ?s@?1??text@TIME_CLASS@@QAEPADXZ@4PADA 004f6908     v5subs:timeclas.obj
 0003:0008f91c       ?s@?1??mmddyyyy@TIME_CLASS@@QAEPADXZ@4PADA 004f691c     v5subs:timeclas.obj
 0003:0008f928       ?s@?1??hhmmss@TIME_CLASS@@QAEPADXZ@4PADA 004f6928     v5subs:timeclas.obj
 0003:0008f931       _NullChar                  004f6931     v5subs:textlist.obj
 0003:0008f933       _NullChar                  004f6933     v5subs:strarray.obj
 0003:0008f934       _EmptyStringtableText      004f6934     v5subs:stringtable.obj
 0003:0008f938       _FontList                  004f6938     v5subs:stringtable.obj
 0003:0008f93c       ?s@?1??alphadate@@YAPADABU_SYSTEMTIME@@@Z@4PADA 004f693c     v5subs:time.obj
 0003:0008f948       ?s@?1??alphatime@@YAPADABU_SYSTEMTIME@@@Z@4PADA 004f6948     v5subs:time.obj
 0003:0008f954       ?s@?1??hhmm@@YAPADJJ@Z@4PADA 004f6954     v5subs:time.obj
 0003:0008f960       ?s@?1??ascii_double@@YAPADN@Z@4PADA 004f6960     v5subs:ascfloat.obj
 0003:0008f990       _NullChar                  004f6990     v5subs:get_ini.obj
 0003:0008f998       _Buf                       004f6998     v5subs:get_ini.obj
 0003:0008fa98       _MyMainWindow              004f6a98     v5subs:client.obj
 0003:0008fa9c       _EventList                 004f6a9c     v5subs:client.obj
 0003:0008faa8       _ServerNameHandle          004f6aa8     v5subs:client.obj
 0003:0008faac       _DdeId                     004f6aac     v5subs:client.obj
 0003:0008fab0       _ServerHandle              004f6ab0     v5subs:client.obj
 0003:0008fab4       ?s@?1??one_hot_link@@YAXPAUHCONV__@@FI@Z@4VSTRING_CLASS@@A 004f6ab4     v5subs:client.obj
