 ft2

 Timestamp is 5654c817 (Tue Nov 24 15:27:03 2015)

 Preferred load address is 00400000

 Start         Length     Name                   Class
 0001:00000000 000007ebH .text$di                CODE
 0001:000007f0 00033816H .text$mn                CODE
 0001:00034006 0000057cH .text$yd                CODE
 0002:00000000 0000037cH .idata$5                DATA
 0002:0000037c 00000004H .CRT$XCA                DATA
 0002:00000380 000001a0H .CRT$XCU                DATA
 0002:00000520 00000004H .CRT$XCZ                DATA
 0002:00000524 00000004H .CRT$XIA                DATA
 0002:00000528 00000014H .CRT$XIC                DATA
 0002:0000053c 00000004H .CRT$XIY                DATA
 0002:00000540 00000004H .CRT$XIZ                DATA
 0002:00000544 00000004H .CRT$XPA                DATA
 0002:00000548 00000008H .CRT$XPX                DATA
 0002:00000550 00000004H .CRT$XPXA               DATA
 0002:00000554 00000004H .CRT$XPZ                DATA
 0002:00000558 00000004H .CRT$XTA                DATA
 0002:0000055c 00000004H .CRT$XTZ                DATA
 0002:00000560 000068b0H .rdata                  DATA
 0002:00006e10 00000294H .rdata$r                DATA
 0002:000070b0 0000000cH .rdata$sxdata           DATA
 0002:000070bc 00000004H .rtc$IAA                DATA
 0002:000070c0 00000004H .rtc$IZZ                DATA
 0002:000070c4 00000004H .rtc$TAA                DATA
 0002:000070c8 00000004H .rtc$TZZ                DATA
 0002:000070d0 0000036cH .xdata$x                DATA
 0002:0000743c 00000000H .edata                  DATA
 0002:0000743c 00000064H .idata$2                DATA
 0002:000074a0 00000014H .idata$3                DATA
 0002:000074b4 0000037cH .idata$4                DATA
 0002:00007830 00000dccH .idata$6                DATA
 0003:00000000 00002914H .data                   DATA
 0003:00002914 00000104H .data$r                 DATA
 0003:00002a20 0000a2a0H .bss                    DATA
 0004:00000000 00000a98H .rsrc$01                DATA
 0004:00000aa0 00005d28H .rsrc$02                DATA

  Address         Publics by Value              Rva+Base       Lib:Object

 0000:00000000       ___guard_fids_count        00000000     <absolute>
 0000:00000000       __except_list              00000000     <absolute>
 0000:00000000       ___guard_flags             00000000     <absolute>
 0000:00000000       ___guard_fids_table        00000000     <absolute>
 0000:00000003       ___safe_se_handler_count   00000003     <absolute>
 0000:00000000       ___ImageBase               00400000     <linker-defined>
 0001:000007f0       ??0BIT_CONTROL@@QAE@XZ     004017f0 f i ft2.obj
 0001:00000811       ??0DOWN_DATA_CLASS@@QAE@ABV0@@Z 00401811 f i ft2.obj
 0001:00000879       ??1MACHINE_CLASS@@QAE@XZ   00401879 f i ft2.obj
 0001:000008ca       ??1PARAMETER_CLASS@@QAE@XZ 004018ca f i ft2.obj
 0001:000008ca       ??1PART_NAME_ENTRY@@QAE@XZ 004018ca f i board_monitor.obj
 0001:000008e5       ??4FTII_VAR@@UAEXABV0@@Z   004018e5 f i ft2.obj
 0001:000008f8       ??4FTII_VAR@@UAEXI@Z       004018f8 f i ft2.obj
 0001:000008f8       ??4FTII_VAR@@UAEXH@Z       004018f8 f i ft2.obj
 0001:00000902       ??_EFTII_VAR_ARRAY@@UAEPAXI@Z 00401902 f i ft2.obj
 0001:00000902       ??_GFTII_VAR_ARRAY@@UAEPAXI@Z 00401902 f i ft2.obj
 0001:00000a52       ?alt_step_text@@YAPADXZ    00401a52 f   ft2.obj
 0001:00000b09       ?ascii_0_to_5_volts@@YAPADI@Z 00401b09 f   ft2.obj
 0001:00000b45       ?ascii_dac_volts@@YAPADI@Z 00401b45 f   ft2.obj
 0001:00000b5a       ?ascii_dac_volts_3@@YAPADI@Z 00401b5a f   ft2.obj
 0001:00000bc4       ?ascii_volts_to_ft2_volts@@YAPADPAD@Z 00401bc4 f   ft2.obj
 0001:00000c68       ?canexit@@YA_NXZ           00401c68 f   ft2.obj
 0001:00000fe8       ?choose_monitor_machine_dialog_proc@@YGHPAUHWND__@@IIJ@Z 00401fe8 f   ft2.obj
 0001:00001035       ?compare_variables_dialog_proc@@YGHPAUHWND__@@IIJ@Z 00402035 f   ft2.obj
 0001:000011b3       ?control_mods_dialog_proc@@YGHPAUHWND__@@IIJ@Z 004021b3 f   ft2.obj
 0001:0000238e       ?current_lvdt_feedback_index@@YAHH@Z 0040338e f   ft2.obj
 0001:000023ad       ?current_measured_command_index@@YAIH@Z 004033ad f   ft2.obj
 0001:000023cc       ?current_values_dialog_proc@@YGHPAUHWND__@@IIJ@Z 004033cc f   ft2.obj
 0001:00002796       ?dac_volts@@YANI@Z         00403796 f   ft2.obj
 0001:000027e5       ?deactivate_control_dialog_proc@@YGHPAUHWND__@@IIJ@Z 004037e5 f   ft2.obj
 0001:00003ced       ?do_new_set_null_ascii_data@@YAXJ@Z 00404ced f   ft2.obj
 0001:00003feb       ?edit_control_proc@@YGJPAUHWND__@@IIJ@Z 00404feb f   ft2.obj
 0001:00004162       ?end_upload_flash_dialog@@YAXXZ 00405162 f   ft2.obj
 0001:00004236       ?fatal_error_string@@YAPADH@Z 00405236 f   ft2.obj
 0001:0000426b       ?file_exists@NAME_CLASS@@QAEEXZ 0040526b f i ft2.obj
 0001:00004836       ?ft2_control_program_name@@YAPADHAAVMACHINE_CLASS@@@Z 00405836 f   ft2.obj
 0001:0000488f       ?ft2_test_dialog_proc@@YGHPAUHWND__@@IIJ@Z 0040588f f   ft2.obj
 0001:000048e7       ?ft2_volts_toascii@@YAPADPAD@Z 004058e7 f   ft2.obj
 0001:00004f34       ?get_help@@YAXXZ           00405f34 f   ft2.obj
 0001:00004fcf       ?get_hires_sensor_test_config@@YAXPAUHWND__@@@Z 00405fcf f   ft2.obj
 0001:0000517e       ?global_parameter_dialog_proc@@YGHPAUHWND__@@IIJ@Z 0040617e f   ft2.obj
 0001:00005268       ?hires_sensor_test_dialog_proc@@YGHPAUHWND__@@IIJ@Z 00406268 f   ft2.obj
 0001:000053b9       ?init@@YAEH@Z              004063b9 f   ft2.obj
 0001:000060e7       ?kill_log_file@@YAXXZ      004070e7 f   ft2.obj
 0001:0000684f       ?load_one_machine_only@@YAXPAUHWND__@@@Z 0040784f f   ft2.obj
 0001:00006aef       ?log_als_file@@YAXAAVSTRING_CLASS@@@Z 00407aef f   ft2.obj
 0001:00006cb3       ?main_proc@@YGJPAUHWND__@@IIJ@Z 00407cb3 f   ft2.obj
 0001:000073db       ?need_brush@@YA_NPAUHWND__@@@Z 004083db f   ft2.obj
 0001:0000750c       ?new_downtime_callback@@YAXPADFPAUHDDEDATA__@@@Z 0040850c f   ft2.obj
 0001:0000756a       ?new_monitor_setup_callback@@YAXPADFPAUHDDEDATA__@@@Z 0040856a f   ft2.obj
 0001:000077f6       ?output_list_dialog_proc@@YGHPAUHWND__@@IIJ@Z 004087f6 f   ft2.obj
 0001:00007ac1       ?password_level_callback@@YAXPADFPAUHDDEDATA__@@@Z 00408ac1 f   ft2.obj
 0001:00007c0d       ?plot_min_callback@@YAXPADFPAUHDDEDATA__@@@Z 00408c0d f   ft2.obj
 0001:00007e85       ?poke_newshot_message@@YAXIJ@Z 00408e85 f   ft2.obj
 0001:000081f2       ?push_log_message@@YAXPAD@Z 004091f2 f   ft2.obj
 0001:000082a6       ?put_hires_sensor_test_config@@YAXPAUHWND__@@@Z 004092a6 f   ft2.obj
 0001:00008699       ?release_dc@WINDOW_CLASS@@QAEHPAUHDC__@@@Z 00409699 f i ft2.obj
 0001:00008789       ?resource_message_box@@YAXII@Z 00409789 f   ft2.obj
 0001:000087fd       ?resource_string@@YAPADI@Z 004097fd f   ft2.obj
 0001:00009e9b       ?send_lvdt_offset_to_board@@YA_NXZ 0040ae9b f   ft2.obj
 0001:00009fd2       ?send_null_offset_to_board@@YA_NXZ 0040afd2 f   ft2.obj
 0001:0000a093       ?send_output_bits_to_current_machine@@YAXIE@Z 0040b093 f   ft2.obj
 0001:0000a0e5       ?send_set_dac_command@@YAXH@Z 0040b0e5 f   ft2.obj
 0001:0000a96f       ?set_control_y@@YAXHI@Z    0040b96f f   ft2.obj
 0001:0000b076       ?set_dac_dialog_proc@@YGHPAUHWND__@@IIJ@Z 0040c076 f   ft2.obj
 0001:0000b483       ?set_null_dialog_proc@@YGHPAUHWND__@@IIJ@Z 0040c483 f   ft2.obj
 0001:0000bbb5       ?shutdown_status_dialog_proc@@YGHPAUHWND__@@IIJ@Z 0040cbb5 f   ft2.obj
 0001:0000bd78       ?start_if_ok_to_deactivate@@YAXAAVWINDOW_CLASS@@@Z 0040cd78 f   ft2.obj
 0001:0000bd9f       ?status_proc@@YGJPAUHWND__@@IIJ@Z 0040cd9f f   ft2.obj
 0001:0000c17e       ?terminal_proc@@YGJPAUHWND__@@IIJ@Z 0040d17e f   ft2.obj
 0001:0000c27e       ?test_alarm_outputs_dialog_proc@@YGHPAUHWND__@@IIJ@Z 0040d27e f   ft2.obj
 0001:0000c7b1       ?update_optos@@YAXII@Z     0040d7b1 f   ft2.obj
 0001:0000c8c3       ?upload_aborted_dialog_proc@@YGHPAUHWND__@@IIJ@Z 0040d8c3 f   ft2.obj
 0001:0000c972       ?upload_flash_dialog_proc@@YGHPAUHWND__@@IIJ@Z 0040d972 f   ft2.obj
 0001:0000c9ad       ?valve_test_dialog_proc@@YGHPAUHWND__@@IIJ@Z 0040d9ad f   ft2.obj
 0001:0000cbb6       ?warning_error_string@@YAPADH@Z 0040dbb6 f   ft2.obj
 0001:0000ccde       _WinMain@16                0040dcde f   ft2.obj
 0001:0000cece       ??0DSTAT_CLASS@@QAE@XZ     0040dece f i board_monitor.obj
 0001:0000ceef       ??0FTANALOG_CLASS@@QAE@XZ  0040deef f i board_monitor.obj
 0001:0000cf0c       ??0FTANALOG_ENTRY@@QAE@XZ  0040df0c f i board_monitor.obj
 0001:0000cf36       ??0FTCALC_CLASS@@QAE@XZ    0040df36 f i board_monitor.obj
 0001:0000cf5e       ??0FTII_BOARD_ENTRY@@QAE@XZ 0040df5e f   board_monitor.obj
 0001:0000d0bd       ?clear@BOARD_EXTENDED_ANALOG_ARRAY@@QAEXXZ 0040e0bd f   board_monitor.obj
 0001:0000d0bd       ??1BOARD_EXTENDED_ANALOG_ARRAY@@QAE@XZ 0040e0bd f   board_monitor.obj
 0001:0000d0d8       ??1FTANALOG_CLASS@@QAE@XZ  0040e0d8 f i board_monitor.obj
 0001:0000d0fb       ??1FTCALC_CLASS@@QAE@XZ    0040e0fb f i board_monitor.obj
 0001:0000d11d       ??1FTII_BOARD_ENTRY@@QAE@XZ 0040e11d f   board_monitor.obj
 0001:0000d1c7       ??ABOARD_EXTENDED_ANALOG_ARRAY@@QAEAAUBOARD_EXTENDED_ANALOG_ENTRY@@H@Z 0040e1c7 f   board_monitor.obj
 0001:0000d21a       ??_EFTII_BOARD_ENTRY@@QAEPAXI@Z 0040e21a f i board_monitor.obj
 0001:0000d275       ?AutoShotDisplayProc@@YGHPAUHWND__@@IIJ@Z 0040e275 f   board_monitor.obj
 0001:0000d33a       ?add_binary_to_shotdata@FTII_BOARD_ENTRY@@QAEXXZ 0040e33a f   board_monitor.obj
 0001:0000d3f6       ?append_downtime_record@@YAEAAVSTRING_CLASS@@00AAU_SYSTEMTIME@@PAD2@Z 0040e3f6 f   board_monitor.obj
 0001:0000d4d2       ?begin_monitoring@@YA_NXZ  0040e4d2 f   board_monitor.obj
 0001:0000d909       ?check_for_down@@YAXXZ     0040e909 f   board_monitor.obj
 0001:0000db55       ?check_for_extended_channel_value@FTII_BOARD_ENTRY@@QAEXPAD@Z 0040eb55 f   board_monitor.obj
 0001:0000ddb8       ?check_inputs@FTII_BOARD_ENTRY@@QAEXPAD@Z 0040edb8 f   board_monitor.obj
 0001:0000e010       ?check_one_alarm@@YAXAA_NAAIMMFMM@Z 0040f010 f   board_monitor.obj
 0001:0000e0a7       ?cleanup@STDDOWN_CLASS@@QAEXXZ 0040f0a7 f i board_monitor.obj
 0001:0000e0c3       ?clear_all_alarm_bits@FTII_BOARD_ENTRY@@QAEXXZ 0040f0c3 f   board_monitor.obj
 0001:0000e0da       ?clearwire@FTII_BOARD_ENTRY@@QAEXH@Z 0040f0da f   board_monitor.obj
 0001:0000e446       ?convert_io_change_to_ascii@@YAXHPAUSOCKET_MESSAGE@@@Z 0040f446 f   board_monitor.obj
 0001:0000e4a4       ?current_board_index@@YAHXZ 0040f4a4 f   board_monitor.obj
 0001:0000e4b0       ?current_board_number@@YAHXZ 0040f4b0 f   board_monitor.obj
 0001:0000e4cc       ?current_channel_mode@@YAHXZ 0040f4cc f   board_monitor.obj
 0001:0000e4f5       ?current_operator@@YAPADAAVSTRING_CLASS@@0@Z 0040f4f5 f   board_monitor.obj
 0001:0000e581       ?current_upload_file_name@@YAPADXZ 0040f581 f   board_monitor.obj
 0001:0000e5ab       ?current_version@@YAHXZ    0040f5ab f   board_monitor.obj
 0001:0000e5c8       ?current_version_string@@YAPADXZ 0040f5c8 f   board_monitor.obj
 0001:0000e86a       ?display_board_info@@YAXXZ 0040f86a f   board_monitor.obj
 0001:0000ee89       ?get_alarm_bits@FTII_BOARD_ENTRY@@QAEXXZ 0040fe89 f   board_monitor.obj
 0001:0000eeb0       ?get_channel_mode@@YAXHPAD@Z 0040feb0 f   board_monitor.obj
 0001:0000ef4c       ?get_config_word@FTII_BOARD_ENTRY@@QAEXPAD@Z 0040ff4c f   board_monitor.obj
 0001:0000ef75       ?get_parameter_alarm_bits@FTII_BOARD_ENTRY@@QAEIXZ 0040ff75 f   board_monitor.obj
 0001:0000f023       ?init@BOARD_EXTENDED_ANALOG_ARRAY@@QAEEH@Z 00410023 f   board_monitor.obj
 0001:0000f0b8       ?is_suretrak_controlled@@YAEH@Z 004100b8 f   board_monitor.obj
 0001:0000f0de       ?issue_downtime_event@@YAXAAVSTRING_CLASS@@00AAU_SYSTEMTIME@@PAD2@Z 004100de f   board_monitor.obj
 0001:0000f11c       ?load_ftii_boards@@YAHXZ   0041011c f   board_monitor.obj
 0001:0000f414       ?load_the_current_machine_at_this_board@@YAXAAVFTII_BOARD_ENTRY@@@Z 00410414 f   board_monitor.obj
 0001:0000fc37       ?new_data_thread@@YAXPAX@Z 00410c37 f   board_monitor.obj
 0001:00010002       ?position_auto_shot_display@@YAXXZ 00411002 f   board_monitor.obj
 0001:00010095       ?put_version_string@FTII_BOARD_ENTRY@@QAEXXZ 00411095 f   board_monitor.obj
 0001:00010121       ?read_thread@@YAXPAX@Z     00411121 f   board_monitor.obj
 0001:0001028a       ?save_shot@FTII_BOARD_ENTRY@@QAEXXZ 0041128a f   board_monitor.obj
 0001:000105ce       ?send_bits@FTII_BOARD_ENTRY@@QAEXI_N@Z 004115ce f   board_monitor.obj
 0001:0001064b       ?send_command@@YAXAAVSTRING_CLASS@@PAD_N@Z 0041164b f   board_monitor.obj
 0001:00010826       ?send_socket_message@FTII_BOARD_ENTRY@@QAE_NPAD_N@Z 00411826 f   board_monitor.obj
 0001:000108fd       ?send_thread@@YAXPAX@Z     004118fd f   board_monitor.obj
 0001:00010f37       ?set_connect_state@FTII_BOARD_ENTRY@@QAEXI@Z 00411f37 f   board_monitor.obj
 0001:00010fc1       ?set_extended_analog_bits@FTII_BOARD_ENTRY@@QAEXXZ 00411fc1 f   board_monitor.obj
 0001:0001110b       ?setwire@FTII_BOARD_ENTRY@@QAEXH@Z 0041210b f   board_monitor.obj
 0001:0001112d       ?start_of_binary_data@@YAXHPAUBINARY_HEADER@@@Z 0041212d f   board_monitor.obj
 0001:00011402       ?stop_monitoring@@YAXXZ    00412402 f   board_monitor.obj
 0001:00011571       ?update_downtime@@YAXVDOWN_DATA_CLASS@@@Z 00412571 f   board_monitor.obj
 0001:0001194d       ?upload_control_file@FTII_BOARD_ENTRY@@QAE_NXZ 0041294d f   board_monitor.obj
 0001:00012330       ?wirebit@@YAIH@Z           00413330 f   board_monitor.obj
 0001:000125ee       ??0PROFILE_NAME_ENTRY@@QAE@XZ 004135ee f i shotsave.obj
 0001:00012612       ??0SHOT_BUFFER_ENTRY@@QAE@XZ 00413612 f i shotsave.obj
 0001:00012641       ??1PROFILE_NAME_ENTRY@@QAE@XZ 00413641 f i shotsave.obj
 0001:00012664       ??1SHOT_BUFFER_ENTRY@@QAE@XZ 00413664 f i shotsave.obj
 0001:00012683       ?add_to_shotsave@@YA_N_N0AAUPART_NAME_ENTRY@@AAVFTII_FILE_DATA@@AAVDOUBLE_ARRAY_CLASS@@@Z 00413683 f   shotsave.obj
 0001:00012786       ?create@DB_TABLE@@QAEEAAVSTRING_CLASS@@@Z 00413786 f i shotsave.obj
 0001:000127a0       ?delete_file@NAME_CLASS@@QAEEXZ 004137a0 f i shotsave.obj
 0001:0001292c       ?get_ini_char@@YAPADPAD0@Z 0041392c f   shotsave.obj
 0001:00012975       ?init_serial_port@@YAXXZ   00413975 f   shotsave.obj
 0001:00013546       ?nextshot@@YAEPAUSHOT_BUFFER_ENTRY@@@Z 00414546 f   shotsave.obj
 0001:000135bf       ?save_all_shots@@YAXXZ     004145bf f   shotsave.obj
 0001:000135fa       ?save_shot@@YAXPAUSHOT_BUFFER_ENTRY@@@Z 004145fa f   shotsave.obj
 0001:00013a84       ?shotsave_thread@@YAXPAX@Z 00414a84 f   shotsave.obj
 0001:00013b38       ?start_shotsave_thread@@YAXXZ 00414b38 f   shotsave.obj
 0001:00014998       ?write_ftii_parameters@@YAEPAUSHOT_BUFFER_ENTRY@@AAU_SYSTEMTIME@@G@Z 00415998 f   shotsave.obj
 0001:00015277       ?max_parameters_saved@@YAJAAVSTRING_CLASS@@@Z 00416277 f   skip.obj
 0001:0001528c       ?max_profiles_saved@@YAJAAVSTRING_CLASS@@@Z 0041628c f   skip.obj
 0001:0001531e       ?skip_new_shot_notify@@YAGAAVSTRING_CLASS@@U_FILETIME@@@Z 0041631e f   skip.obj
 0001:0001536b       ?skip_reset_machine@@YAEAAVSTRING_CLASS@@@Z 0041636b f   skip.obj
 0001:00015384       ?skip_shutdown@@YAXXZ      00416384 f   skip.obj
 0001:000153b8       ?skip_startup@@YAEXZ       004163b8 f   skip.obj
 0001:000153bb       ??0UPLOAD_COPY_CLASS@@QAE@XZ 004163bb f   upload_copy_class.obj
 0001:000153e1       ??1UPLOAD_COPY_CLASS@@QAE@XZ 004163e1 f   upload_copy_class.obj
 0001:000153fe       ?init@UPLOAD_COPY_CLASS@@QAEXXZ 004163fe f   upload_copy_class.obj
 0001:00015421       ?isnew@UPLOAD_COPY_CLASS@@QAE_NAAVSTRING_CLASS@@@Z 00416421 f   upload_copy_class.obj
 0001:000154eb       ?load@UPLOAD_COPY_CLASS@@QAEIVSTRING_CLASS@@00@Z 004164eb f   upload_copy_class.obj
 0001:0001560e       ?save@UPLOAD_COPY_CLASS@@QAEIVSTRING_CLASS@@00@Z 0041660e f   upload_copy_class.obj
 0001:00015748       _DdeGetData@16             00416748 f   user32:USER32.dll
 0001:0001574e       _bind@12                   0041674e f   wsock32:WSOCK32.dll
 0001:00015754       _closesocket@4             00416754 f   wsock32:WSOCK32.dll
 0001:0001575a       _htonl@4                   0041675a f   wsock32:WSOCK32.dll
 0001:00015760       _htons@4                   00416760 f   wsock32:WSOCK32.dll
 0001:00015766       _inet_addr@4               00416766 f   wsock32:WSOCK32.dll
 0001:0001576c       _recvfrom@24               0041676c f   wsock32:WSOCK32.dll
 0001:00015772       _sendto@24                 00416772 f   wsock32:WSOCK32.dll
 0001:00015778       _socket@12                 00416778 f   wsock32:WSOCK32.dll
 0001:0001577e       _gethostbyname@4           0041677e f   wsock32:WSOCK32.dll
 0001:00015784       _gethostname@8             00416784 f   wsock32:WSOCK32.dll
 0001:0001578a       _WSAStartup@8              0041678a f   wsock32:WSOCK32.dll
 0001:00015790       _WSACleanup@0              00416790 f   wsock32:WSOCK32.dll
 0001:00015796       _WSAGetLastError@0         00416796 f   wsock32:WSOCK32.dll
 0001:0001579c       ?directory_exists@@YAEPAD@Z 0041679c f   v5subs:exists.obj
 0001:000157bf       ?disk_is_in_drive@@YAEPAD@Z 004167bf f   v5subs:exists.obj
 0001:000157f7       ?file_exists@@YAEPAD@Z     004167f7 f   v5subs:exists.obj
 0001:00015809       ?file_size@@YAJPAD@Z       00416809 f   v5subs:exists.obj
 0001:000158d1       ?get_drive_name@@YAEPAD@Z  004168d1 f   v5subs:exists.obj
 0001:00015901       ?is_removable@@YAEPAD@Z    00416901 f   v5subs:exists.obj
 0001:0001592b       ?ascii_double@@YAPADN@Z    0041692b f   v5subs:ascfloat.obj
 0001:0001594b       ?ascii_float@@YAPADM@Z     0041694b f   v5subs:ascfloat.obj
 0001:00015963       ?asctoint32@@YAJPBD@Z      00416963 f   v5subs:extract.obj
 0001:00015980       ?asctoul@@YAKPBD@Z         00416980 f   v5subs:extract.obj
 0001:0001599d       ?extdouble@@YANPBD@Z       0041699d f   v5subs:extract.obj
 0001:000159b4       ?extdouble@@YANPBDF@Z      004169b4 f   v5subs:extract.obj
 0001:00015a1c       ?extfloat@@YAMPBD@Z        00416a1c f   v5subs:extract.obj
 0001:00015a41       ?extlong@@YAJPBDFH@Z       00416a41 f   v5subs:extract.obj
 0001:00015aa7       ?extlong@@YAJPBDF@Z        00416aa7 f   v5subs:extract.obj
 0001:00015aa7       ?extshort@@YAFPBDF@Z       00416aa7 f   v5subs:extract.obj
 0001:00015aba       ?extul@@YAKPBDFH@Z         00416aba f   v5subs:extract.obj
 0001:00015b20       ?is_real_char@@YAED@Z      00416b20 f   v5subs:extract.obj
 0001:00015bc3       ?int32toasc@@YAPADJ@Z      00416bc3 f   v5subs:itoasc.obj
 0001:00015bdc       ?int32toasc@@YAXPADJJ@Z    00416bdc f   v5subs:itoasc.obj
 0001:00015c1d       ?ultoascii@@YAPADK@Z       00416c1d f   v5subs:itoasc.obj
 0001:00015c2b       ?ultoascii@@YAPADKK@Z      00416c2b f   v5subs:itoasc.obj
 0001:00015c46       ?ultoascii@@YAXPADKK@Z     00416c46 f   v5subs:itoasc.obj
 0001:00015c75       ??0STRING_CLASS@@QAE@ABV0@@Z 00416c75 f   v5subs:stringcl.obj
 0001:00015c91       ??0STRING_CLASS@@QAE@XZ    00416c91 f   v5subs:stringcl.obj
 0001:00015c9b       ??1STRING_CLASS@@QAE@XZ    00416c9b f   v5subs:stringcl.obj
 0001:00015ca0       ??4STRING_CLASS@@QAEXABV0@@Z 00416ca0 f   v5subs:stringcl.obj
 0001:00015caf       ??4STRING_CLASS@@QAEXD@Z   00416caf f   v5subs:stringcl.obj
 0001:00015cc2       ??4STRING_CLASS@@QAEXE@Z   00416cc2 f   v5subs:stringcl.obj
 0001:00015cdd       ??4STRING_CLASS@@QAEXH@Z   00416cdd f   v5subs:stringcl.obj
 0001:00015d05       ??4STRING_CLASS@@QAEXI@Z   00416d05 f   v5subs:stringcl.obj
 0001:00015d2d       ??4STRING_CLASS@@QAEXN@Z   00416d2d f   v5subs:stringcl.obj
 0001:00015d5c       ??4STRING_CLASS@@QAEXPBD@Z 00416d5c f   v5subs:stringcl.obj
 0001:00015da7       ??8STRING_CLASS@@QAEEABV0@@Z 00416da7 f   v5subs:stringcl.obj
 0001:00015dcf       ??8STRING_CLASS@@QAEEPBD@Z 00416dcf f   v5subs:stringcl.obj
 0001:00015df6       ??MSTRING_CLASS@@QAEEABV0@@Z 00416df6 f   v5subs:stringcl.obj
 0001:00015e1d       ??YSTRING_CLASS@@QAEXABV0@@Z 00416e1d f   v5subs:stringcl.obj
 0001:00015e2c       ??YSTRING_CLASS@@QAEXD@Z   00416e2c f   v5subs:stringcl.obj
 0001:00015e5f       ??YSTRING_CLASS@@QAEXH@Z   00416e5f f   v5subs:stringcl.obj
 0001:00015e96       ??YSTRING_CLASS@@QAEXI@Z   00416e96 f   v5subs:stringcl.obj
 0001:00015ecd       ??YSTRING_CLASS@@QAEXPBD@Z 00416ecd f   v5subs:stringcl.obj
 0001:00015f0e       ?acquire@STRING_CLASS@@QAEEPAD@Z 00416f0e f   v5subs:stringcl.obj
 0001:00015f3d       ?boolean_value@STRING_CLASS@@QAEEXZ 00416f3d f   v5subs:stringcl.obj
 0001:00015f5c       ?cat_path@STRING_CLASS@@QAEXPBD@Z 00416f5c f   v5subs:stringcl.obj
 0001:00015fc8       ?cat_w_char@STRING_CLASS@@QAEXPBDD@Z 00416fc8 f   v5subs:stringcl.obj
 0001:0001601d       ?contains@STRING_CLASS@@QAE_ND@Z 0041701d f   v5subs:stringcl.obj
 0001:0001602e       ?contains@STRING_CLASS@@QAE_NPBD@Z 0041702e f   v5subs:stringcl.obj
 0001:0001603f       ?empty@STRING_CLASS@@QAEXXZ 0041703f f   v5subs:stringcl.obj
 0001:0001605a       ?find@STRING_CLASS@@QAEPADD@Z 0041705a f   v5subs:stringcl.obj
 0001:00016083       ?find@STRING_CLASS@@QAEPADPBD@Z 00417083 f   v5subs:stringcl.obj
 0001:000160a1       ?get_ascii@STRING_CLASS@@QAEEPAD@Z 004170a1 f   v5subs:stringcl.obj
 0001:000160ea       ?get_substring@STRING_CLASS@@QAEEABV1@DD@Z 004170ea f   v5subs:stringcl.obj
 0001:00016162       ?get_text@STRING_CLASS@@QAE_NPAUHWND__@@@Z 00417162 f   v5subs:stringcl.obj
 0001:000161b6       ?init@STRING_CLASS@@QAEEJ@Z 004171b6 f   v5subs:stringcl.obj
 0001:000161fa       ?isempty@STRING_CLASS@@QAEEXZ 004171fa f   v5subs:stringcl.obj
 0001:00016216       ?len@STRING_CLASS@@QAEJXZ  00417216 f   v5subs:stringcl.obj
 0001:00016229       ?next_field@STRING_CLASS@@QAE_ND@Z 00417229 f   v5subs:stringcl.obj
 0001:00016300       ?next_field@STRING_CLASS@@QAE_NXZ 00417300 f   v5subs:stringcl.obj
 0001:0001630e       ?null@STRING_CLASS@@QAEXXZ 0041730e f   v5subs:stringcl.obj
 0001:0001631d       ?real_value@STRING_CLASS@@QAENXZ 0041731d f   v5subs:stringcl.obj
 0001:00016374       ?release@STRING_CLASS@@QAEPADXZ 00417374 f   v5subs:stringcl.obj
 0001:0001637f       ?replace@STRING_CLASS@@QAEEPBD0@Z 0041737f f   v5subs:stringcl.obj
 0001:00016434       ?set_text@STRING_CLASS@@QAE_NPAUHWND__@@@Z 00417434 f   v5subs:stringcl.obj
 0001:00016459       ?strip_crlf@STRING_CLASS@@QAEXXZ 00417459 f   v5subs:stringcl.obj
 0001:0001649c       ?uppercase@STRING_CLASS@@QAEXXZ 0041749c f   v5subs:stringcl.obj
 0001:000164ac       ?upsize@STRING_CLASS@@QAEEJ@Z 004174ac f   v5subs:stringcl.obj
 0001:00016500       ?convert_to_data_dir@NAME_CLASS@@QAEEXZ 00417500 f   v5subs:nameclas.obj
 0001:00016545       ?directory_exists@NAME_CLASS@@QAEEXZ 00417545 f i v5subs:nameclas.obj
 0001:0001655a       ?ensure_file_directory_existance@NAME_CLASS@@QAEEXZ 0041755a f   v5subs:nameclas.obj
 0001:000165c3       ?get_data_dir_file_name@NAME_CLASS@@QAEEAAVSTRING_CLASS@@PBD@Z 004175c3 f   v5subs:nameclas.obj
 0001:00016606       ?get_data_dir_file_name@NAME_CLASS@@QAEEPBD@Z 00417606 f   v5subs:nameclas.obj
 0001:00016623       ?get_exe_dir_file_name@NAME_CLASS@@QAEEAAVSTRING_CLASS@@PBD@Z 00417623 f   v5subs:nameclas.obj
 0001:00016666       ?get_exe_dir_file_name@NAME_CLASS@@QAEEPBD@Z 00417666 f   v5subs:nameclas.obj
 0001:0001669f       ?get_machine_dir_file_name@NAME_CLASS@@QAEEAAVSTRING_CLASS@@0PBD@Z 0041769f f   v5subs:nameclas.obj
 0001:000166e8       ?get_machine_results_dir_file_name@NAME_CLASS@@QAEEAAVSTRING_CLASS@@0PBD@Z 004176e8 f   v5subs:nameclas.obj
 0001:00016726       ?get_part_dir_file_name@NAME_CLASS@@QAEEAAVSTRING_CLASS@@00PBD@Z 00417726 f   v5subs:nameclas.obj
 0001:00016772       ?get_part_results_dir_file_name@NAME_CLASS@@QAEEAAVSTRING_CLASS@@00PBD@Z 00417772 f   v5subs:nameclas.obj
 0001:000167b3       ?get_profile_name@NAME_CLASS@@QAEEAAVSTRING_CLASS@@00JPBD@Z 004177b3 f   v5subs:nameclas.obj
 0001:00016821       ?get_profile_name@NAME_CLASS@@QAEEAAVSTRING_CLASS@@00PBD1@Z 00417821 f   v5subs:nameclas.obj
 0001:000168b3       ?get_stringtable_name@NAME_CLASS@@QAEEPBD@Z 004178b3 f   v5subs:nameclas.obj
 0001:00016904       ?remove_ending_filename@NAME_CLASS@@QAEEXZ 00417904 f   v5subs:nameclas.obj
 0001:0001692a       ??0ANALOG_SENSOR@@QAE@XZ   0041792a f   v5subs:asensor.obj
 0001:00016930       ??0ANALOG_SENSOR_ENTRY@@QAE@XZ 00417930 f   v5subs:asensor.obj
 0001:00016980       ??1ANALOG_SENSOR_ENTRY@@QAE@XZ 00417980 f   v5subs:asensor.obj
 0001:000169ac       ??AANALOG_SENSOR@@QAEAAUANALOG_SENSOR_ENTRY@@H@Z 004179ac f   v5subs:asensor.obj
 0001:000169cf       ??_EANALOG_SENSOR_ENTRY@@QAEPAXI@Z 004179cf f i v5subs:asensor.obj
 0001:00016a24       ?converted_value@ANALOG_SENSOR_ENTRY@@QAENI@Z 00417a24 f   v5subs:asensor.obj
 0001:00016a58       ?get@ANALOG_SENSOR@@SAEXZ  00417a58 f   v5subs:asensor.obj
 0001:00016c56       ?get@ANALOG_SENSOR_ENTRY@@QAEEPAD@Z 00417c56 f   v5subs:asensor.obj
 0001:00016db3       ?raw_count@ANALOG_SENSOR_ENTRY@@QAENN@Z 00417db3 f   v5subs:asensor.obj
 0001:00016df6       ?shutdown@ANALOG_SENSOR@@SAXXZ 00417df6 f   v5subs:asensor.obj
 0001:00016dfb       ?update@ANALOG_SENSOR_ENTRY@@QAEEXZ 00417dfb f   v5subs:asensor.obj
 0001:00016ee9       ??0AUTO_BACKUP_CLASS@@QAE@XZ 00417ee9 f   v5subs:autoback.obj
 0001:00016efb       ??1AUTO_BACKUP_CLASS@@QAE@XZ 00417efb f   v5subs:autoback.obj
 0001:00016f01       ?backup_machine@AUTO_BACKUP_CLASS@@QAEEAAVSTRING_CLASS@@@Z 00417f01 f   v5subs:autoback.obj
 0001:00017052       ?get_backup_dir@AUTO_BACKUP_CLASS@@QAEEXZ 00418052 f   v5subs:autoback.obj
 0001:000170f0       ??0DB_TABLE@@QAE@XZ        004180f0 f   v5subs:dbsubs.obj
 0001:0001710b       ??1DB_TABLE@@QAE@XZ        0041810b f   v5subs:dbsubs.obj
 0001:0001714f       ?close@DB_TABLE@@QAEXXZ    0041814f f   v5subs:dbsubs.obj
 0001:0001716c       ?compare_date@@YAFPAD0@Z   0041816c f   v5subs:dbsubs.obj
 0001:000171a2       ?compare_int32@@YAFPAD0J@Z 004181a2 f   v5subs:dbsubs.obj
 0001:000171d6       ?compare_one_record@DB_TABLE@@AAEEPAFJJ@Z 004181d6 f   v5subs:dbsubs.obj
 0001:000172a3       ?create@DB_TABLE@@QAEEPAD@Z 004182a3 f   v5subs:dbsubs.obj
 0001:00017303       ?ensure_existance@DB_TABLE@@QAEEAAVSTRING_CLASS@@@Z 00418303 f   v5subs:dbsubs.obj
 0001:0001734f       ?fill_searchbuf@DB_TABLE@@AAEEF@Z 0041834f f   v5subs:dbsubs.obj
 0001:0001739d       ?get_alpha@DB_TABLE@@QAEEPADGF@Z 0041839d f   v5subs:dbsubs.obj
 0001:000173b3       ?get_alpha@DB_TABLE@@QAEEPADGFG@Z 004183b3 f   v5subs:dbsubs.obj
 0001:0001740c       ?get_char@DB_TABLE@@QAEDG@Z 0041840c f   v5subs:dbsubs.obj
 0001:00017426       ?get_current_record@DB_TABLE@@QAEEE@Z 00418426 f   v5subs:dbsubs.obj
 0001:0001746c       ?get_date@DB_TABLE@@QAEEAAU_SYSTEMTIME@@G@Z 0041846c f   v5subs:dbsubs.obj
 0001:00017485       ?get_double@DB_TABLE@@QAENG@Z 00418485 f   v5subs:dbsubs.obj
 0001:000174c1       ?get_long@DB_TABLE@@QAEJG@Z 004184c1 f   v5subs:dbsubs.obj
 0001:000174ea       ?get_next_key_match@DB_TABLE@@QAEEFE@Z 004184ea f   v5subs:dbsubs.obj
 0001:00017557       ?get_next_record@DB_TABLE@@QAEEE@Z 00418557 f   v5subs:dbsubs.obj
 0001:000175a5       ?get_rec@DB_TABLE@@QAEEXZ  004185a5 f   v5subs:dbsubs.obj
 0001:000175ef       ?get_time@DB_TABLE@@QAEEAAU_SYSTEMTIME@@G@Z 004185ef f   v5subs:dbsubs.obj
 0001:00017608       ?goto_first_equal_or_greater_record@DB_TABLE@@QAEEF@Z 00418608 f   v5subs:dbsubs.obj
 0001:000176e1       ?goto_first_key_record@DB_TABLE@@AAEEF@Z 004186e1 f   v5subs:dbsubs.obj
 0001:000176fc       ?goto_key_record@DB_TABLE@@AAEEFJJ@Z 004186fc f   v5subs:dbsubs.obj
 0001:00017828       ?goto_record_number@DB_TABLE@@QAEEJ@Z 00418828 f   v5subs:dbsubs.obj
 0001:000178bb       ?initbuf@DB_TABLE@@AAEEPAPADPAFF@Z 004188bb f   v5subs:dbsubs.obj
 0001:00017943       ?lock_record@DB_TABLE@@QAEEXZ 00418943 f   v5subs:dbsubs.obj
 0001:000179bd       ?nof_recs@DB_TABLE@@QAEKXZ 004189bd f   v5subs:dbsubs.obj
 0001:000179e5       ?open@DB_TABLE@@QAEEPADFF@Z 004189e5 f   v5subs:dbsubs.obj
 0001:000179fb       ?open@DB_TABLE@@QAEEPADFFF@Z 004189fb f   v5subs:dbsubs.obj
 0001:00017b76       ?open_status@DB_TABLE@@QAEEXZ 00418b76 f   v5subs:dbsubs.obj
 0001:00017b7e       ?point_to_start_of_field@DB_TABLE@@AAEPADG@Z 00418b7e f   v5subs:dbsubs.obj
 0001:00017b95       ?post_error@@YAXPAD0@Z     00418b95 f   v5subs:dbsubs.obj
 0001:00017ba8       ?post_error@@YAXPAD@Z      00418ba8 f   v5subs:dbsubs.obj
 0001:00017bbc       ?put_alpha@DB_TABLE@@QAEEGPBDF@Z 00418bbc f   v5subs:dbsubs.obj
 0001:00017c03       ?put_date@DB_TABLE@@QAEEGABU_SYSTEMTIME@@@Z 00418c03 f   v5subs:dbsubs.obj
 0001:00017c34       ?put_double@DB_TABLE@@QAEEGNF@Z 00418c34 f   v5subs:dbsubs.obj
 0001:00017c7c       ?put_long@DB_TABLE@@QAEEGJF@Z 00418c7c f   v5subs:dbsubs.obj
 0001:00017cbd       ?put_time@DB_TABLE@@QAEEGAAU_SYSTEMTIME@@@Z 00418cbd f   v5subs:dbsubs.obj
 0001:00017cee       ?rec_append@DB_TABLE@@QAEEXZ 00418cee f   v5subs:dbsubs.obj
 0001:00017d14       ?rec_delete@DB_TABLE@@QAEEJ@Z 00418d14 f   v5subs:dbsubs.obj
 0001:00017e5b       ?rec_insert@DB_TABLE@@QAEEXZ 00418e5b f   v5subs:dbsubs.obj
 0001:00017f11       ?rec_update@DB_TABLE@@QAEEXZ 00418f11 f   v5subs:dbsubs.obj
 0001:00017f32       ?restore_from_searchbuf@DB_TABLE@@AAEXXZ 00418f32 f   v5subs:dbsubs.obj
 0001:00017f79       ?unlock_record@DB_TABLE@@QAEEXZ 00418f79 f   v5subs:dbsubs.obj
 0001:00017fbc       ?write_record@DB_TABLE@@AAEEXZ 00418fbc f   v5subs:dbsubs.obj
 0001:00018012       ??0DOWN_DATA_CLASS@@QAE@XZ 00419012 f   v5subs:evclass.obj
 0001:0001806e       ?set@DOWN_DATA_CLASS@@QAEEPAUHDDEDATA__@@@Z 0041906e f   v5subs:evclass.obj
 0001:00018226       ??0FILE_CLASS@@QAE@XZ      00419226 f   v5subs:fileclas.obj
 0001:0001824a       ??1FILE_CLASS@@QAE@XZ      0041924a f   v5subs:fileclas.obj
 0001:0001824a       ?close@FILE_CLASS@@QAEXXZ  0041924a f   v5subs:fileclas.obj
 0001:0001824f       ?cleanup@FILE_CLASS@@QAEXXZ 0041924f f   v5subs:fileclas.obj
 0001:0001827d       ?cleanup_memory@FILE_CLASS@@QAEXXZ 0041927d f   v5subs:fileclas.obj
 0001:000182a9       ?get_creation_time@FILE_CLASS@@QAEEPAU_FILETIME@@@Z 004192a9 f   v5subs:fileclas.obj
 0001:000182cd       ?make_path@FILE_CLASS@@QAEEPAD@Z 004192cd f   v5subs:fileclas.obj
 0001:00018318       ?nof_lines@FILE_CLASS@@QAEHXZ 00419318 f   v5subs:fileclas.obj
 0001:000183e2       ?open@FILE_CLASS@@QAEEPADK@Z 004193e2 f   v5subs:fileclas.obj
 0001:00018465       ?open_for_append@FILE_CLASS@@QAEEAAVSTRING_CLASS@@@Z 00419465 f   v5subs:fileclas.obj
 0001:0001847f       ?open_for_append@FILE_CLASS@@QAEEPAD@Z 0041947f f   v5subs:fileclas.obj
 0001:000184b5       ?open_for_read@FILE_CLASS@@QAEEAAVSTRING_CLASS@@@Z 004194b5 f   v5subs:fileclas.obj
 0001:000184cf       ?open_for_read@FILE_CLASS@@QAEEPAD@Z 004194cf f   v5subs:fileclas.obj
 0001:000184e9       ?open_for_write@FILE_CLASS@@QAEEAAVSTRING_CLASS@@@Z 004194e9 f   v5subs:fileclas.obj
 0001:00018503       ?open_for_write@FILE_CLASS@@QAEEPAD@Z 00419503 f   v5subs:fileclas.obj
 0001:0001851c       ?readbinary@FILE_CLASS@@QAEKPAXK@Z 0041951c f   v5subs:fileclas.obj
 0001:00018582       ?readline@FILE_CLASS@@QAEPADXZ 00419582 f   v5subs:fileclas.obj
 0001:0001865d       ?setpos@FILE_CLASS@@QAEEJ@Z 0041965d f   v5subs:fileclas.obj
 0001:000186a0       ?writebinary@FILE_CLASS@@QAEEPAXK@Z 004196a0 f   v5subs:fileclas.obj
 0001:00018708       ?writeline@FILE_CLASS@@QAEEAAVSTRING_CLASS@@@Z 00419708 f   v5subs:fileclas.obj
 0001:00018722       ?writeline@FILE_CLASS@@QAEEPAD@Z 00419722 f   v5subs:fileclas.obj
 0001:000187b5       ??0FIFO_CLASS@@QAE@XZ      004197b5 f   v5subs:fifo.obj
 0001:000187ce       ??1FIFO_CLASS@@QAE@XZ      004197ce f   v5subs:fifo.obj
 0001:000187d6       ?peek@FIFO_CLASS@@QAEPAXXZ 004197d6 f   v5subs:fifo.obj
 0001:000187e4       ?pop@FIFO_CLASS@@QAEPAXXZ  004197e4 f   v5subs:fifo.obj
 0001:0001882c       ?push@FIFO_CLASS@@QAEEPAX@Z 0041982c f   v5subs:fifo.obj
 0001:0001888c       ??0FONT_CLASS@@QAE@XZ      0041988c f   v5subs:fontclas.obj
 0001:000188a8       ??0FONT_LIST_ENTRY@@QAE@XZ 004198a8 f   v5subs:fontclas.obj
 0001:000188c2       ??1FONT_LIST_CLASS@@QAE@XZ 004198c2 f   v5subs:fontclas.obj
 0001:000188eb       ??1FONT_LIST_ENTRY@@QAE@XZ 004198eb f   v5subs:fontclas.obj
 0001:00018903       ??4FONT_CLASS@@QAEXABUtagLOGFONTA@@@Z 00419903 f   v5subs:fontclas.obj
 0001:00018966       ??4FONT_CLASS@@QAEXABV0@@Z 00419966 f   v5subs:fontclas.obj
 0001:000189a2       ??8FONT_CLASS@@QAE_NABUtagLOGFONTA@@@Z 004199a2 f   v5subs:fontclas.obj
 0001:00018a27       ??8FONT_CLASS@@QAE_NABV0@@Z 00419a27 f   v5subs:fontclas.obj
 0001:00018a63       ?free_handle@FONT_LIST_CLASS@@QAEXPAUHFONT__@@@Z 00419a63 f   v5subs:fontclas.obj
 0001:00018aa6       ?get@FONT_CLASS@@QAE_NPAD@Z 00419aa6 f   v5subs:fontclas.obj
 0001:00018c3e       ?get_handle@FONT_LIST_CLASS@@QAEPAUHFONT__@@ABVFONT_CLASS@@@Z 00419c3e f   v5subs:fontclas.obj
 0001:00018d4f       ??0COMPUTER_CLASS@@QAE@XZ  00419d4f f   v5subs:computer.obj
 0001:00018d5a       ?add@COMPUTER_CLASS@@QAEEPAD@Z 00419d5a f   v5subs:computer.obj
 0001:00018e11       ?empty@COMPUTER_CLASS@@QAEXXZ 00419e11 f   v5subs:computer.obj
 0001:00018e45       ?find@COMPUTER_CLASS@@QAEEPAD@Z 00419e45 f   v5subs:computer.obj
 0001:00018e75       ?is_present@COMPUTER_CLASS@@QAEEXZ 00419e75 f   v5subs:computer.obj
 0001:00018e96       ?is_this_computer@COMPUTER_CLASS@@QAEEXZ 00419e96 f   v5subs:computer.obj
 0001:00018eb3       ?load@COMPUTER_CLASS@@QAEEXZ 00419eb3 f   v5subs:computer.obj
 0001:00018fe1       ?name@COMPUTER_CLASS@@QAEAAVSTRING_CLASS@@XZ 00419fe1 f   v5subs:computer.obj
 0001:00018ff1       ?next@COMPUTER_CLASS@@QAEEXZ 00419ff1 f   v5subs:computer.obj
 0001:00019013       ?rewind@COMPUTER_CLASS@@QAEXXZ 0041a013 f   v5subs:computer.obj
 0001:0001901a       ?startup@COMPUTER_CLASS@@QAEEXZ 0041a01a f   v5subs:computer.obj
 0001:0001902f       ?whoami@COMPUTER_CLASS@@QAEAAVSTRING_CLASS@@XZ 0041a02f f   v5subs:computer.obj
 0001:00019035       ??1INI_CLASS@@QAE@XZ       0041a035 f   v5subs:iniclass.obj
 0001:0001903a       ?cleanup@INI_CLASS@@QAEXXZ 0041a03a f   v5subs:iniclass.obj
 0001:00019075       ?find@INI_CLASS@@QAEEPBD0@Z 0041a075 f   v5subs:iniclass.obj
 0001:000190d8       ?find@INI_CLASS@@QAEEPBD@Z 0041a0d8 f   v5subs:iniclass.obj
 0001:000190f1       ?get_boolean@INI_CLASS@@QAEEPBD0@Z 0041a0f1 f   v5subs:iniclass.obj
 0001:00019114       ?get_boolean@INI_CLASS@@QAEEPBD@Z 0041a114 f   v5subs:iniclass.obj
 0001:0001912d       ?get_boolean@INI_CLASS@@QAEEXZ 0041a12d f   v5subs:iniclass.obj
 0001:0001914c       ?get_int@INI_CLASS@@QAEHPBD0@Z 0041a14c f   v5subs:iniclass.obj
 0001:0001916f       ?get_int@INI_CLASS@@QAEHPBD@Z 0041a16f f   v5subs:iniclass.obj
 0001:00019188       ?get_int@INI_CLASS@@QAEHXZ 0041a188 f   v5subs:iniclass.obj
 0001:00019199       ?get_string@INI_CLASS@@QAEPADPBD@Z 0041a199 f   v5subs:iniclass.obj
 0001:000191c6       ?get_string@INI_CLASS@@QAEPADXZ 0041a1c6 f   v5subs:iniclass.obj
 0001:000191d4       ?get_ul@INI_CLASS@@QAEKPBD@Z 0041a1d4 f   v5subs:iniclass.obj
 0001:000191eb       ?get_ul@INI_CLASS@@QAEKXZ  0041a1eb f   v5subs:iniclass.obj
 0001:000191fc       ?put_boolean@INI_CLASS@@QAEEPBD0E@Z 0041a1fc f   v5subs:iniclass.obj
 0001:0001922d       ?put_int@INI_CLASS@@QAEEPBDH@Z 0041a22d f   v5subs:iniclass.obj
 0001:00019273       ?put_string@INI_CLASS@@QAEEPBD00@Z 0041a273 f   v5subs:iniclass.obj
 0001:000192b4       ?put_string@INI_CLASS@@QAEEPBD0@Z 0041a2b4 f   v5subs:iniclass.obj
 0001:000192d1       ?set_file@INI_CLASS@@QAEEPBD@Z 0041a2d1 f   v5subs:iniclass.obj
 0001:00019313       ?set_section@INI_CLASS@@QAEEPBD@Z 0041a313 f   v5subs:iniclass.obj
 0001:00019347       ??0LIMIT_SWITCH_WIRE_CLASS@@QAE@XZ 0041a347 f   v5subs:limit_switch_class.obj
 0001:00019364       ??1LIMIT_SWITCH_WIRE_CLASS@@QAE@XZ 0041a364 f   v5subs:limit_switch_class.obj
 0001:0001937c       ?get@LIMIT_SWITCH_WIRE_CLASS@@QAEEAAVSTRING_CLASS@@00@Z 0041a37c f   v5subs:limit_switch_class.obj
 0001:000194cf       ?mask@LIMIT_SWITCH_WIRE_CLASS@@QAEIH@Z 0041a4cf f   v5subs:limit_switch_class.obj
 0001:00019504       ?wire_number@LIMIT_SWITCH_WIRE_CLASS@@QAEHH@Z 0041a504 f   v5subs:limit_switch_class.obj
 0001:0001951e       ??1LISTBOX_CLASS@@QAE@XZ   0041a51e f   v5subs:listbox.obj
 0001:0001952e       ?add@LISTBOX_CLASS@@QAEHPAD@Z 0041a52e f   v5subs:listbox.obj
 0001:0001956f       ?check_buf_size@LISTBOX_CLASS@@AAEEH@Z 0041a56f f   v5subs:listbox.obj
 0001:000195ae       ?check_buf_size@LISTBOX_CLASS@@AAEEPAD@Z 0041a5ae f   v5subs:listbox.obj
 0001:000195c7       ?check_item_size@LISTBOX_CLASS@@AAEEH@Z 0041a5c7 f   v5subs:listbox.obj
 0001:000195fe       ?count@LISTBOX_CLASS@@QAEHXZ 0041a5fe f   v5subs:listbox.obj
 0001:00019628       ?empty@LISTBOX_CLASS@@QAEXXZ 0041a628 f   v5subs:listbox.obj
 0001:0001963f       ?init@LISTBOX_CLASS@@QAEEPAUHWND__@@@Z 0041a63f f   v5subs:listbox.obj
 0001:000196a0       ?init@LISTBOX_CLASS@@QAEEPAUHWND__@@H@Z 0041a6a0 f   v5subs:listbox.obj
 0001:000196bd       ?item_text@LISTBOX_CLASS@@QAEPADH@Z 0041a6bd f   v5subs:listbox.obj
 0001:00019705       ?redraw_off@LISTBOX_CLASS@@QAEXXZ 0041a705 f   v5subs:listbox.obj
 0001:00019714       ?redraw_on@LISTBOX_CLASS@@QAEXXZ 0041a714 f   v5subs:listbox.obj
 0001:00019733       ?selected_index@LISTBOX_CLASS@@QAEHXZ 0041a733 f   v5subs:listbox.obj
 0001:0001975e       ?selected_text@LISTBOX_CLASS@@QAEPADXZ 0041a75e f   v5subs:listbox.obj
 0001:0001977c       ?set_current_index@LISTBOX_CLASS@@QAEEH@Z 0041a77c f   v5subs:listbox.obj
 0001:000197a3       ?set_top_index@LISTBOX_CLASS@@QAEEH@Z 0041a7a3 f   v5subs:listbox.obj
 0001:000197ca       ?top_index@LISTBOX_CLASS@@QAEHXZ 0041a7ca f   v5subs:listbox.obj
 0001:000197e9       ?visible_row_count@LISTBOX_CLASS@@QAEHXZ 0041a7e9 f   v5subs:listbox.obj
 0001:00019850       ??0MACHINE_CLASS@@QAE@XZ   0041a850 f   v5subs:machine.obj
 0001:000198a9       ?find@MACHINE_CLASS@@QAEEAAVSTRING_CLASS@@0@Z 0041a8a9 f   v5subs:machine.obj
 0001:00019af8       ?has_binary_valve@MACHINE_CLASS@@QAEEXZ 0041aaf8 f   v5subs:machine.obj
 0001:00019b01       ?init@MACHINE_CLASS@@QAEXXZ 0041ab01 f   v5subs:machine.obj
 0001:00019b7d       ?init_save_counts@@YAXPAUSAVE_COUNTS@@@Z 0041ab7d f   v5subs:machine.obj
 0001:00019b96       ?ls_off_at_eos@MACHINE_CLASS@@QAEEXZ 0041ab96 f   v5subs:machine.obj
 0001:00019b9d       ?read_machset_db@MACHINE_CLASS@@QAEEAAVSTRING_CLASS@@@Z 0041ab9d f   v5subs:machine.obj
 0001:0001a11c       ??1GENERIC_LIST_CLASS@@QAE@XZ 0041b11c f   v5subs:genlist.obj
 0001:0001a13e       ?append@GENERIC_LIST_CLASS@@QAEEPAX@Z 0041b13e f   v5subs:genlist.obj
 0001:0001a174       ?count@GENERIC_LIST_CLASS@@QAEFXZ 0041b174 f   v5subs:genlist.obj
 0001:0001a180       ?find@GENERIC_LIST_CLASS@@QAEEPAX@Z 0041b180 f   v5subs:genlist.obj
 0001:0001a1b8       ?insert@GENERIC_LIST_CLASS@@QAEEPAX@Z 0041b1b8 f   v5subs:genlist.obj
 0001:0001a208       ?next@GENERIC_LIST_CLASS@@QAEPAXXZ 0041b208 f   v5subs:genlist.obj
 0001:0001a232       ?remove@GENERIC_LIST_CLASS@@QAEEPAX@Z 0041b232 f   v5subs:genlist.obj
 0001:0001a251       ?remove@GENERIC_LIST_CLASS@@QAEEXZ 0041b251 f   v5subs:genlist.obj
 0001:0001a280       ?remove_all@GENERIC_LIST_CLASS@@QAEXXZ 0041b280 f   v5subs:genlist.obj
 0001:0001a2a9       ?rewind@GENERIC_LIST_CLASS@@QAEXXZ 0041b2a9 f   v5subs:genlist.obj
 0001:0001a2b2       ??1MACHINE_NAME_LIST_CLASS@@QAE@XZ 0041b2b2 f   v5subs:machname.obj
 0001:0001a2c3       ??_GMACHINE_NAME_LIST_ENTRY@@QAEPAXI@Z 0041b2c3 f i v5subs:machname.obj
 0001:0001a2e9       ?add_computer@MACHINE_NAME_LIST_CLASS@@QAEEAAVSTRING_CLASS@@@Z 0041b2e9 f   v5subs:machname.obj
 0001:0001a44b       ?computer_name@MACHINE_NAME_LIST_CLASS@@QAEAAVSTRING_CLASS@@XZ 0041b44b f   v5subs:machname.obj
 0001:0001a457       ?empty@MACHINE_NAME_LIST_CLASS@@QAEXXZ 0041b457 f   v5subs:machname.obj
 0001:0001a483       ?name@MACHINE_NAME_LIST_CLASS@@QAEAAVSTRING_CLASS@@XZ 0041b483 f   v5subs:machname.obj
 0001:0001a493       ?next@TEXT_LIST_CLASS@@QAEEXZ 0041b493 f   v5subs:textlist.obj
 0001:0001a493       ?next@MACHINE_NAME_LIST_CLASS@@QAEEXZ 0041b493 f   v5subs:machname.obj
 0001:0001a4a7       ??0BLOCK_MESSAGE_CLASS@@QAE@XZ 0041b4a7 f   v5subs:msgclas.obj
 0001:0001a4b4       ??1BLOCK_MESSAGE_CLASS@@QAE@XZ 0041b4b4 f   v5subs:msgclas.obj
 0001:0001a4c4       ?cleanup@BLOCK_MESSAGE_CLASS@@QAEXXZ 0041b4c4 f   v5subs:msgclas.obj
 0001:0001a4fb       ?load@BLOCK_MESSAGE_CLASS@@QAEEPAD@Z 0041b4fb f   v5subs:msgclas.obj
 0001:0001a5f9       ?message@BLOCK_MESSAGE_CLASS@@QAEPADJ@Z 0041b5f9 f   v5subs:msgclas.obj
 0001:0001a9d8       ?register_vtww_opto_control@@YAXXZ 0041b9d8 f   v5subs:optocontrol.obj
 0001:0001ab56       ?shutdown_vtww_opto_control@@YAXXZ 0041bb56 f   v5subs:optocontrol.obj
 0001:0001aba1       ?vtww_opto_proc@@YGJPAUHWND__@@IIJ@Z 0041bba1 f   v5subs:optocontrol.obj
 0001:0001acb5       ??0PARAMETER_CLASS@@QAE@XZ 0041bcb5 f   v5subs:param.obj
 0001:0001ace4       ?count@PARAMETER_CLASS@@QAEFXZ 0041bce4 f   v5subs:param.obj
 0001:0001ad02       ?find@PARAMETER_CLASS@@QAEEAAVSTRING_CLASS@@00@Z 0041bd02 f   v5subs:param.obj
 0001:0001ad68       ?has_alarm_limits@PARAMETER_ENTRY@@QAEEXZ 0041bd68 f   v5subs:param.obj
 0001:0001ad7f       ?has_warning_limits@PARAMETER_ENTRY@@QAEEXZ 0041bd7f f   v5subs:param.obj
 0001:0001ad96       ?init@PARAMETER_CLASS@@QAEXF@Z 0041bd96 f   v5subs:param.obj
 0001:0001ade0       ?read_param_db@PARAMETER_CLASS@@QAEEAAVSTRING_CLASS@@@Z 0041bde0 f   v5subs:param.obj
 0001:0001af47       ??0SETPOINT_CLASS@@QAE@XZ  0041bf47 f   v5subs:setpoint.obj
 0001:0001af51       ??1SETPOINT_CLASS@@QAE@XZ  0041bf51 f   v5subs:setpoint.obj
 0001:0001af56       ??ASETPOINT_CLASS@@QAEAAUSETPOINT_ENTRY@@H@Z 0041bf56 f   v5subs:setpoint.obj
 0001:0001af72       ??_ESETPOINT_ENTRY@@QAEPAXI@Z 0041bf72 f i v5subs:setpoint.obj
 0001:0001afdb       ?cleanup@SETPOINT_CLASS@@QAEXXZ 0041bfdb f   v5subs:setpoint.obj
 0001:0001aff6       ?get@SETPOINT_CLASS@@QAEHAAVSTRING_CLASS@@@Z 0041bff6 f   v5subs:setpoint.obj
 0001:0001b00d       ?get_one_value@SETPOINT_CLASS@@QAEEAAVSTRING_CLASS@@0H@Z 0041c00d f   v5subs:setpoint.obj
 0001:0001b095       ?getfrom@SETPOINT_CLASS@@QAEHAAVSTRING_CLASS@@@Z 0041c095 f   v5subs:setpoint.obj
 0001:0001b18e       ?put@SETPOINT_CLASS@@QAEEAAVSTRING_CLASS@@@Z 0041c18e f   v5subs:setpoint.obj
 0001:0001b275       ?setsize@SETPOINT_CLASS@@QAEEH@Z 0041c275 f   v5subs:setpoint.obj
 0001:0001b372       ??0PART_CLASS@@QAE@XZ      0041c372 f   v5subs:part.obj
 0001:0001b3a0       ??1PART_CLASS@@QAE@XZ      0041c3a0 f   v5subs:part.obj
 0001:0001b3c6       ?find@PART_CLASS@@QAEEAAVSTRING_CLASS@@00@Z 0041c3c6 f   v5subs:part.obj
 0001:0001b515       ?init@PART_CLASS@@QAEXXZ   0041c515 f   v5subs:part.obj
 0001:0001b5e8       ?plunger_area@PART_CLASS@@QAENXZ 0041c5e8 f   v5subs:part.obj
 0001:0001b633       ?read_ftchan_db@PART_CLASS@@QAEEAAVSTRING_CLASS@@@Z 0041c633 f   v5subs:part.obj
 0001:0001b6df       ?read_part_setup@PART_CLASS@@QAEEAAVSTRING_CLASS@@@Z 0041c6df f   v5subs:part.obj
 0001:0001b706       ?read_x4_divisor@PART_CLASS@@QAEEXZ 0041c706 f   v5subs:part.obj
 0001:0001b84d       ?update@PART_CLASS@@QAEEXZ 0041c84d f   v5subs:part.obj
 0001:0001bc31       ??0RECTANGLE_CLASS@@QAE@XZ 0041cc31 f   v5subs:rectclas.obj
 0001:0001bc41       ??4RECTANGLE_CLASS@@QAEXABV0@@Z 0041cc41 f   v5subs:rectclas.obj
 0001:0001bc5e       ?contains@RECTANGLE_CLASS@@QAEEABUtagPOINT@@@Z 0041cc5e f   v5subs:rectclas.obj
 0001:0001bc83       ?draw@RECTANGLE_CLASS@@QAEXPAUHDC__@@@Z 0041cc83 f   v5subs:rectclas.obj
 0001:0001bcc8       ?draw@RECTANGLE_CLASS@@QAEXPAUHDC__@@K@Z 0041ccc8 f   v5subs:rectclas.obj
 0001:0001bd0d       ?fill@RECTANGLE_CLASS@@QAEXPAUHDC__@@K@Z 0041cd0d f   v5subs:rectclas.obj
 0001:0001bd4f       ?fill@RECTANGLE_CLASS@@QAEXPAUHDC__@@PAUHBRUSH__@@@Z 0041cd4f f   v5subs:rectclas.obj
 0001:0001bd61       ?moveto@RECTANGLE_CLASS@@QAEXJJ@Z 0041cd61 f   v5subs:rectclas.obj
 0001:0001bd82       ?offset@RECTANGLE_CLASS@@QAEXJJ@Z 0041cd82 f   v5subs:rectclas.obj
 0001:0001bd98       ?setsize@RECTANGLE_CLASS@@QAEXJJ@Z 0041cd98 f   v5subs:rectclas.obj
 0001:0001bd98       ?setsize@RECTANGLE_CLASS@@QAEXUtagSIZE@@@Z 0041cd98 f   v5subs:rectclas.obj
 0001:0001bdae       ??0SURETRAK_PARAM_CLASS@@QAE@XZ 0041cdae f   v5subs:stparam.obj
 0001:0001bdf4       ?find@SURETRAK_PARAM_CLASS@@QAEEAAVSTRING_CLASS@@0@Z 0041cdf4 f   v5subs:stparam.obj
 0001:0001beea       ??0STRINGTABLE_CLASS@@QAE@XZ 0041ceea f   v5subs:stringtable.obj
 0001:0001bf27       ??1STRINGTABLE_CLASS@@QAE@XZ 0041cf27 f   v5subs:stringtable.obj
 0001:0001bf40       ??_ESTRINGTABLE_ENTRY@@QAEPAXI@Z 0041cf40 f i v5subs:stringtable.obj
 0001:0001bf90       ?acquire@STRINGTABLE_ENTRY@@QAEXAAV1@@Z 0041cf90 f   v5subs:stringtable.obj
 0001:0001bfb1       ?append@STRINGTABLE_CLASS@@QAE_NAAVSTRING_CLASS@@@Z 0041cfb1 f   v5subs:stringtable.obj
 0001:0001c226       ?cleanup@STRINGTABLE_CLASS@@QAEXXZ 0041d226 f   v5subs:stringtable.obj
 0001:0001c245       ?cleanup@STRINGTABLE_ENTRY@@QAEXXZ 0041d245 f   v5subs:stringtable.obj
 0001:0001c26d       ?find@STRINGTABLE_CLASS@@QAEPADPAD@Z 0041d26d f   v5subs:stringtable.obj
 0001:0001c2dc       ?read@STRINGTABLE_CLASS@@QAE_NAAVSTRING_CLASS@@@Z 0041d2dc f   v5subs:stringtable.obj
 0001:0001c32e       ??0PRESSURE_CONTROL_CLASS@@QAE@XZ 0041d32e f   v5subs:stpres.obj
 0001:0001c393       ??0PRES_CONTROL_STEP_ENTRY@@QAE@XZ 0041d393 f i v5subs:stpres.obj
 0001:0001c3af       ??1PRESSURE_CONTROL_CLASS@@QAE@XZ 0041d3af f   v5subs:stpres.obj
 0001:0001c40d       ??1PRES_CONTROL_STEP_ENTRY@@QAE@XZ 0041d40d f i v5subs:stpres.obj
 0001:0001c428       ?find@PRESSURE_CONTROL_CLASS@@QAEEAAVSTRING_CLASS@@00@Z 0041d428 f   v5subs:stpres.obj
 0001:0001c6c8       ?init@PRESSURE_CONTROL_CLASS@@QAEXXZ 0041d6c8 f   v5subs:stpres.obj
 0001:0001c753       ?boolean_from_ini@@YAEPBD00@Z 0041d753 f   v5subs:get_ini.obj
 0001:0001c773       ?get_ini_string@@YAPADPBD00@Z 0041d773 f   v5subs:get_ini.obj
 0001:0001c797       ?get_long_ini_string@@YAPADPBD00@Z 0041d797 f   v5subs:get_ini.obj
 0001:0001c80b       ?int32_from_ini@@YAJPBD00@Z 0041d80b f   v5subs:get_ini.obj
 0001:0001c826       ?catstring@@YAPADPADPBD@Z  0041d826 f   v5subs:mem.obj
 0001:0001c843       ?char_to_tchar@@YAXPAD0H@Z 0041d843 f   v5subs:mem.obj
 0001:0001c87d       ?charlen@@YAFPBDF@Z        0041d87d f   v5subs:mem.obj
 0001:0001c8a0       ?compare@@YAFPBD0F@Z       0041d8a0 f   v5subs:mem.obj
 0001:0001c904       ?copy_w_char@@YAPADPAD0D@Z 0041d904 f   v5subs:mem.obj
 0001:0001c91b       ?copychars@@YAXPADPBDF@Z   0041d91b f   v5subs:mem.obj
 0001:0001c93d       ?copyfromstr@@YAXPADPBDF@Z 0041d93d f   v5subs:mem.obj
 0001:0001c97d       ?copystring@@YAPADPADPBD@Z 0041d97d f   v5subs:mem.obj
 0001:0001c9b6       ?copystring@@YAPADPADPBDH@Z 0041d9b6 f   v5subs:mem.obj
 0001:0001c9fb       ?countchars@@YAJDPBD@Z     0041d9fb f   v5subs:mem.obj
 0001:0001ca1c       ?fillchars@@YAXPADDF@Z     0041da1c f   v5subs:mem.obj
 0001:0001ca3b       ?findchar@@YAPADDPAD@Z     0041da3b f   v5subs:mem.obj
 0001:0001ca3b       ?findchar@@YAPBDDPBD@Z     0041da3b f   v5subs:mem.obj
 0001:0001ca57       ?findchar@@YAPBDDPBDF@Z    0041da57 f   v5subs:mem.obj
 0001:0001ca57       ?findchar@@YAPADDPADF@Z    0041da57 f   v5subs:mem.obj
 0001:0001ca82       ?findstring@@YAPADPBDPAD@Z 0041da82 f   v5subs:mem.obj
 0001:0001caf1       ?insert_char@@YAXPADD@Z    0041daf1 f   v5subs:mem.obj
 0001:0001cb15       ?killtext@@YAXPAD@Z        0041db15 f   v5subs:mem.obj
 0001:0001cb21       ?maketext@@YAPADJ@Z        0041db21 f   v5subs:mem.obj
 0001:0001cb3a       ?maketext@@YAPADPBD@Z      0041db3a f   v5subs:mem.obj
 0001:0001cb48       ?maketext@@YAPADPBDJ@Z     0041db48 f   v5subs:mem.obj
 0001:0001cb7b       ?maketext_from_char@@YAPADPADH@Z 0041db7b f   v5subs:mem.obj
 0001:0001cbbb       ?move_string_forward@@YAXPADH@Z 0041dbbb f   v5subs:mem.obj
 0001:0001cbeb       ?nextstring@@YAPADPAD@Z    0041dbeb f   v5subs:mem.obj
 0001:0001cbfc       ?remove_all_occurances@@YAXPADD@Z 0041dbfc f   v5subs:mem.obj
 0001:0001cc29       ?remove_char@@YAXPAD@Z     0041dc29 f   v5subs:mem.obj
 0001:0001cc44       ?replace_char_with_null@@YAEPADD@Z 0041dc44 f   v5subs:mem.obj
 0001:0001cc71       ?replace_char_with_null@@YAEPADPBD@Z 0041dc71 f   v5subs:mem.obj
 0001:0001ccaf       ?replace_tab_with_null@@YAEPAD@Z 0041dcaf f   v5subs:mem.obj
 0001:0001ccc3       ?start_chars_are_equal@@YA_NPBD0@Z 0041dcc3 f   v5subs:mem.obj
 0001:0001ccee       ?strings_are_equal@@YAEPBD0@Z 0041dcee f   v5subs:mem.obj
 0001:0001cd23       ?strings_are_equal@@YAEPBD0F@Z 0041dd23 f   v5subs:mem.obj
 0001:0001cd3f       ?strip@@YAXPAD@Z           0041dd3f f   v5subs:mem.obj
 0001:0001cd6c       ?trim@@YAXPAD@Z            0041dd6c f   v5subs:mem.obj
 0001:0001cd9a       ?ul_to_char@@YADK@Z        0041dd9a f   v5subs:mem.obj
 0001:0001cd9f       ?unicode_to_char@@YAXPAD0@Z 0041dd9f f   v5subs:mem.obj
 0001:0001cdc8       ?upper_case@@YAXAAD@Z      0041ddc8 f   v5subs:mem.obj
 0001:0001cde9       ?upper_case@@YAXPAD@Z      0041dde9 f   v5subs:mem.obj
 0001:0001ce12       ??0EVENT_ENTRY@@QAE@XZ     0041de12 f i v5subs:client.obj
 0001:0001ce29       ??_GEVENT_ENTRY@@QAEPAXI@Z 0041de29 f i v5subs:client.obj
 0001:0001ce4f       ?client_dde_shutdown@@YAXXZ 0041de4f f   v5subs:client.obj
 0001:0001cf0b       ?client_dde_startup@@YAXPAUHWND__@@@Z 0041df0b f   v5subs:client.obj
 0001:0001cf19       ?client_dde_startup@@YAXXZ 0041df19 f   v5subs:client.obj
 0001:0001cfad       ?connect_to_server@@YAPAUHCONV__@@PAD@Z 0041dfad f   v5subs:client.obj
 0001:0001d010       ?connect_to_server@@YAXXZ  0041e010 f   v5subs:client.obj
 0001:0001d078       ?dde_callback@@YGPAUHDDEDATA__@@IIPAUHCONV__@@PAUHSZ__@@1PAU1@KK@Z 0041e078 f   v5subs:client.obj
 0001:0001d16c       ?find_conversation@@YAPAUEVENT_ENTRY@@PAUHCONV__@@@Z 0041e16c f   v5subs:client.obj
 0001:0001d207       ?get_current_password_level@@YAXXZ 0041e207 f   v5subs:client.obj
 0001:0001d24c       ?hot_links@@YAXPAUEVENT_ENTRY@@I@Z 0041e24c f   v5subs:client.obj
 0001:0001d285       ?one_hot_link@@YAXPAUHCONV__@@FI@Z 0041e285 f   v5subs:client.obj
 0001:0001d446       ?poke_data@@YAXPAD00@Z     0041e446 f   v5subs:client.obj
 0001:0001d53a       ?register_for_event@@YAXPADFP6AX0FPAUHDDEDATA__@@@Z@Z 0041e53a f   v5subs:client.obj
 0001:0001d601       ?unregister_for_event@@YAXPADF@Z 0041e601 f   v5subs:client.obj
 0001:0001d6a5       ?dcurve_shutdown@@YAXXZ    0041e6a5 f   v5subs:dcurve.obj
 0001:0001d6aa       ?dcurve_startup@@YAEXZ     0041e6aa f   v5subs:dcurve.obj
 0001:0001d6af       ?get_dcurve_coefficients@@YAEAAN0H@Z 0041e6af f   v5subs:dcurve.obj
 0001:0001d849       ?execute_and_wait@@YAEPAD0@Z 0041e849 f   v5subs:execwait.obj
 0001:0001d85f       ?execute_and_wait@@YAEPAD0K@Z 0041e85f f   v5subs:execwait.obj
 0001:0001d8da       ?exe_directory@@YAPBDXZ    0041e8da f   v5subs:gexedir.obj
 0001:0001d900       ?get_exe_directory@@YAEPAD@Z 0041e900 f   v5subs:gexedir.obj
 0001:0001d9bb       ?fix_dde_name@@YAXPAD@Z    0041e9bb f   v5subs:fix.obj
 0001:0001d9eb       ?fixed_string@@YAPADNJJ@Z  0041e9eb f   v5subs:ftoasc.obj
 0001:0001db0e       ?ftoasc@@YAXPADN@Z         0041eb0e f   v5subs:ftoasc.obj
 0001:0001dc23       ?average_character_width@@YAJPAUHDC__@@@Z 0041ec23 f   v5subs:winsubs.obj
 0001:0001dc52       ?character_height@@YAJPAUHDC__@@@Z 0041ec52 f   v5subs:winsubs.obj
 0001:0001dc81       ?free_megabytes@@YAJPBD@Z  0041ec81 f   v5subs:winsubs.obj
 0001:0001dcc9       ?get_text@@YAEPADPAUHWND__@@H@Z 0041ecc9 f   v5subs:winsubs.obj
 0001:0001dcf0       ?is_a_listbox@@YAEPAUHWND__@@@Z 0041ecf0 f   v5subs:winsubs.obj
 0001:0001dd5a       ?is_checked@@YAEPAUHWND__@@@Z 0041ed5a f   v5subs:winsubs.obj
 0001:0001dd75       ?is_checked@@YAEPAUHWND__@@H@Z 0041ed75 f   v5subs:winsubs.obj
 0001:0001dd8b       ?is_previous_instance@@YAEPAD0@Z 0041ed8b f   v5subs:winsubs.obj
 0001:0001ddb8       ?pixel_width@@YAJPAUHDC__@@PAD@Z 0041edb8 f   v5subs:winsubs.obj
 0001:0001ddde       ?resource_message_box@@YAHPAUHINSTANCE__@@III@Z 0041edde f   v5subs:winsubs.obj
 0001:0001ddf9       ?resource_message_box@@YAHPAUHWND__@@PAUHINSTANCE__@@III@Z 0041edf9 f   v5subs:winsubs.obj
 0001:0001de92       ?resource_string@@YAPADPAUHINSTANCE__@@I@Z 0041ee92 f   v5subs:winsubs.obj
 0001:0001dec0       ?set_checkbox@@YAXPAUHWND__@@E@Z 0041eec0 f   v5subs:winsubs.obj
 0001:0001dedc       ?set_listbox_tabs_from_title_positions@@YAXPAUHWND__@@IPAHH@Z 0041eedc f   v5subs:winsubs.obj
 0001:0001dff4       ?set_menu_view_state@@YAXAAEPAUHWND__@@I@Z 0041eff4 f   v5subs:winsubs.obj
 0001:0001e01c       ?set_text@@YAEPAUHWND__@@HPBD@Z 0041f01c f   v5subs:winsubs.obj
 0001:0001e037       ?set_text@@YAEPAUHWND__@@PBD@Z 0041f037 f   v5subs:winsubs.obj
 0001:0001e060       ?hextoul@@YAKPBD@Z         0041f060 f   v5subs:hex.obj
 0001:0001e0d2       ?is_hex_char@@YAED@Z       0041f0d2 f   v5subs:hex.obj
 0001:0001e0ec       ?ultohex@@YAXPADK@Z        0041f0ec f   v5subs:hex.obj
 0001:0001e0ff       ?insalph@@YAXPADJJDJ@Z     0041f0ff f   v5subs:insalph.obj
 0001:0001e150       ?insalph@@YAXPADNJD@Z      0041f150 f   v5subs:insalph.obj
 0001:0001e1a7       ?alphadate@@YAEPADABU_SYSTEMTIME@@@Z 0041f1a7 f   v5subs:time.obj
 0001:0001e1ff       ?alphadate@@YAPADABU_SYSTEMTIME@@@Z 0041f1ff f   v5subs:time.obj
 0001:0001e215       ?alphatime@@YAEPADABU_SYSTEMTIME@@@Z 0041f215 f   v5subs:time.obj
 0001:0001e26e       ?alphatime@@YAPADABU_SYSTEMTIME@@@Z 0041f26e f   v5subs:time.obj
 0001:0001e284       ?dofyr@@YAGABU_SYSTEMTIME@@@Z 0041f284 f   v5subs:time.obj
 0001:0001e29f       ?dofyr@@YAGGGG@Z           0041f29f f   v5subs:time.obj
 0001:0001e2ef       ?exthms@@YAEAAU_SYSTEMTIME@@PBD@Z 0041f2ef f   v5subs:time.obj
 0001:0001e351       ?extmdy@@YAEAAU_SYSTEMTIME@@PBD@Z 0041f351 f   v5subs:time.obj
 0001:0001e3c1       ?init_systemtime_struct@@YAXAAU_SYSTEMTIME@@@Z 0041f3c1 f   v5subs:time.obj
 0001:0001e3d5       ?is_leap_year@@YAEG@Z      0041f3d5 f   v5subs:time.obj
 0001:0001e40f       ?is_numeric@@YAED@Z        0041f40f f   v5subs:time.obj
 0001:0001e430       ?sec_since1990@@YAJAAU_SYSTEMTIME@@@Z 0041f430 f   v5subs:time.obj
 0001:0001e4a1       ?seconds_difference@@YAJAAU_FILETIME@@0@Z 0041f4a1 f   v5subs:time.obj
 0001:0001e501       ?maxint@@YAXAAHH@Z         0041f501 f   v5subs:maximize.obj
 0001:0001e510       ?minint@@YAXAAHH@Z         0041f510 f   v5subs:maximize.obj
 0001:0001e51f       ?rjust@@YAXPADFD@Z         0041f51f f   v5subs:rjust.obj
 0001:0001e562       ?mask_from_wire@@YAII@Z    0041f562 f   v5subs:misc.obj
 0001:0001e571       ?round@@YANNN@Z            0041f571 f   v5subs:misc.obj
 0001:0001e5b5       ?unknown@@YAEPAD@Z         0041f5b5 f   v5subs:misc.obj
 0001:0001e5cb       ?unknown_string@@YAPADXZ   0041f5cb f   v5subs:misc.obj
 0001:0001e5d1       ?wire_from_mask@@YAII@Z    0041f5d1 f   v5subs:misc.obj
 0001:0001e5e6       ?double_to_tchar@@YA_NPADNH@Z 0041f5e6 f   v5subs:dtotchar.obj
 0001:0001e6ed       ?rounded_double_to_tchar@@YA_NPADN@Z 0041f6ed f   v5subs:dtotchar.obj
 0001:0001e74f       ??0SHIFT_CLASS@@QAE@XZ     0041f74f f   v5subs:shift.obj
 0001:0001e74f       ??0FONT_LIST_CLASS@@QAE@XZ 0041f74f f   v5subs:fontclas.obj
 0001:0001e755       ??1SURETRAK_PARAM_CLASS@@QAE@XZ 0041f755 f   v5subs:stparam.obj
 0001:0001e755       ??1RECTANGLE_CLASS@@QAE@XZ 0041f755 f   v5subs:rectclas.obj
 0001:0001e755       ??1ANALOG_SENSOR@@QAE@XZ   0041f755 f   v5subs:asensor.obj
 0001:0001e755       ??1SHIFT_CLASS@@QAE@XZ     0041f755 f   v5subs:shift.obj
 0001:0001e755       ??1FONT_CLASS@@QAE@XZ      0041f755 f   v5subs:fontclas.obj
 0001:0001e7a2       ?dow_from_string@@YAFPAD@Z 0041f7a2 f   v5subs:shift.obj
 0001:0001e7f1       ?get_shift_number_and_date@@YAXPAFPAU_SYSTEMTIME@@ABU1@@Z 0041f7f1 f   v5subs:shift.obj
 0001:0001e861       ?minutes_past_sunday@@YAFABU_SYSTEMTIME@@@Z 0041f861 f   v5subs:shift.obj
 0001:0001e87c       ?read@SHIFT_CLASS@@QAEEAAVDB_TABLE@@GG@Z 0041f87c f   v5subs:shift.obj
 0001:0001e8e9       ?set_start_of_shift@SHIFT_CLASS@@QAEEABU_SYSTEMTIME@@F@Z 0041f8e9 f   v5subs:shift.obj
 0001:0001eb0b       ?shift_number@@YAFPAFABU_SYSTEMTIME@@@Z 0041fb0b f   v5subs:shift.obj
 0001:0001eb60       ?shifts_shutdown@@YAXXZ    0041fb60 f   v5subs:shift.obj
 0001:0001eb71       ?shifts_startup@@YAEXZ     0041fb71 f   v5subs:shift.obj
 0001:0001ed56       ?units_name@@YAPADF@Z      0041fd56 f   v5subs:units.obj
 0001:0001ed7d       ?units_shutdown@@YAXXZ     0041fd7d f   v5subs:units.obj
 0001:0001ed95       ?units_startup@@YAEXZ      0041fd95 f   v5subs:units.obj
 0001:0001eee6       ?hourglass_cursor@@YAXXZ   0041fee6 f   v5subs:hourglas.obj
 0001:0001ef13       ?restore_cursor@@YAXXZ     0041ff13 f   v5subs:hourglas.obj
 0001:0001ef36       ?kill_temp_message@@YAXXZ  0041ff36 f   v5subs:temp_message.obj
 0001:0001f108       ?register_temp_message@@YAXXZ 00420108 f   v5subs:temp_message.obj
 0001:0001f16e       ?temp_message@@YAXPAD@Z    0042016e f   v5subs:temp_message.obj
 0001:0001f17f       ?temp_message@@YAXPADH@Z   0042017f f   v5subs:temp_message.obj
 0001:0001f235       ?temp_message_proc@@YGJPAUHWND__@@IIJ@Z 00420235 f   v5subs:temp_message.obj
 0001:0001f2fc       ??0MACHINE_NAME_LIST_CLASS@@QAE@XZ 004202fc f   v5subs:machname.obj
 0001:0001f2fc       ??0TEXT_LIST_CLASS@@QAE@XZ 004202fc f   v5subs:textlist.obj
 0001:0001f30c       ??1TEXT_LIST_CLASS@@QAE@XZ 0042030c f   v5subs:textlist.obj
 0001:0001f31d       ?append@TEXT_LIST_CLASS@@QAEEPADJ@Z 0042031d f   v5subs:textlist.obj
 0001:0001f38b       ?empty@TEXT_LIST_CLASS@@QAEXXZ 0042038b f   v5subs:textlist.obj
 0001:0001f3b5       ?get_directory_list@TEXT_LIST_CLASS@@QAEXPBD@Z 004203b5 f   v5subs:textlist.obj
 0001:0001f469       ?remove@TEXT_LIST_CLASS@@QAEEXZ 00420469 f   v5subs:textlist.obj
 0001:0001f48c       ??4TIME_CLASS@@QAEXPBD@Z   0042048c f   v5subs:timeclas.obj
 0001:0001f516       ??GTIME_CLASS@@QAEJABV0@@Z 00420516 f   v5subs:timeclas.obj
 0001:0001f523       ??ZTIME_CLASS@@QAEXK@Z     00420523 f   v5subs:timeclas.obj
 0001:0001f539       ?dd@TIME_CLASS@@QAEPADXZ   00420539 f   v5subs:timeclas.obj
 0001:0001f546       ?file_time@TIME_CLASS@@QAEAAU_FILETIME@@XZ 00420546 f   v5subs:timeclas.obj
 0001:0001f588       ?get@TIME_CLASS@@QAEEAAU_SYSTEMTIME@@@Z 00420588 f   v5subs:timeclas.obj
 0001:0001f683       ?get_local_time@TIME_CLASS@@QAEXXZ 00420683 f   v5subs:timeclas.obj
 0001:0001f6ba       ?hh@TIME_CLASS@@QAEPADXZ   004206ba f   v5subs:timeclas.obj
 0001:0001f6c4       ?hhmmss@TIME_CLASS@@QAEPADXZ 004206c4 f   v5subs:timeclas.obj
 0001:0001f769       ?mi@TIME_CLASS@@QAEPADXZ   00420769 f   v5subs:timeclas.obj
 0001:0001f776       ?mm@TIME_CLASS@@QAEPADXZ   00420776 f   v5subs:timeclas.obj
 0001:0001f780       ?mmddyyyy@TIME_CLASS@@QAEPADXZ 00420780 f   v5subs:timeclas.obj
 0001:0001f7c9       ?mmm@TIME_CLASS@@QAEPADXZ  004207c9 f   v5subs:timeclas.obj
 0001:0001f7fe       ?set@TIME_CLASS@@QAEEABU_FILETIME@@@Z 004207fe f   v5subs:timeclas.obj
 0001:0001f83d       ?set@TIME_CLASS@@QAEEABU_SYSTEMTIME@@@Z 0042083d f   v5subs:timeclas.obj
 0001:0001f8de       ?system_time@TIME_CLASS@@QAEAAU_SYSTEMTIME@@XZ 004208de f   v5subs:timeclas.obj
 0001:0001f8ee       ?text@TIME_CLASS@@QAEPADXZ 004208ee f   v5subs:timeclas.obj
 0001:0001f955       ?yy@TIME_CLASS@@QAEPADXZ   00420955 f   v5subs:timeclas.obj
 0001:0001f962       ?yyyy@TIME_CLASS@@QAEPADXZ 00420962 f   v5subs:timeclas.obj
 0001:0001f96b       ??_EWINDOW_CLASS@@UAEPAXI@Z 0042096b f i v5subs:wclass.obj
 0001:0001f9b9       ?destroy@WINDOW_CLASS@@QAEXXZ 004209b9 f   v5subs:wclass.obj
 0001:0001f9d1       ?enable@WINDOW_CLASS@@QAEXE@Z 004209d1 f   v5subs:wclass.obj
 0001:0001f9ed       ?get_move_rect@WINDOW_CLASS@@QAEHAAUtagRECT@@@Z 004209ed f   v5subs:wclass.obj
 0001:0001fa81       ?getrect@WINDOW_CLASS@@QAEHAAUtagRECT@@@Z 00420a81 f   v5subs:wclass.obj
 0001:0001faa2       ?is_minimized@WINDOW_CLASS@@QAEHXZ 00420aa2 f   v5subs:wclass.obj
 0001:0001fab5       ?is_visible@WINDOW_CLASS@@QAEHXZ 00420ab5 f   v5subs:wclass.obj
 0001:0001fac8       ?move@WINDOW_CLASS@@QAEXAAUtagRECT@@@Z 00420ac8 f   v5subs:wclass.obj
 0001:0001faf1       ?post@WINDOW_CLASS@@QAEXI@Z 00420af1 f   v5subs:wclass.obj
 0001:0001fb0b       ?post@WINDOW_CLASS@@QAEXIIJ@Z 00420b0b f   v5subs:wclass.obj
 0001:0001fb29       ?refresh@WINDOW_CLASS@@QAEXXZ 00420b29 f   v5subs:wclass.obj
 0001:0001fb48       ?send@WINDOW_CLASS@@QAEXI@Z 00420b48 f   v5subs:wclass.obj
 0001:0001fb62       ?send@WINDOW_CLASS@@QAEXIIJ@Z 00420b62 f   v5subs:wclass.obj
 0001:0001fb80       ?set_title@WINDOW_CLASS@@QAEXPAD@Z 00420b80 f   v5subs:wclass.obj
 0001:0001fba1       ?show@WINDOW_CLASS@@QAEXH@Z 00420ba1 f   v5subs:wclass.obj
 0001:0001fbb7       ?style@WINDOW_CLASS@@QAEJXZ 00420bb7 f   v5subs:wclass.obj
 0001:0001fbca       ??0MENU_CONTROL_ENTRY@@QAE@XZ 00420bca f   v5subs:menuctrl.obj
 0001:0001fc7b       ??0MENU_ITEM_ENTRY@@QAE@XZ 00420c7b f   v5subs:menuctrl.obj
 0001:0001fccb       ??1MENU_CONTROL_ENTRY@@QAE@XZ 00420ccb f   v5subs:menuctrl.obj
 0001:0001fd45       ??1MENU_ITEM_ENTRY@@QAE@XZ 00420d45 f   v5subs:menuctrl.obj
 0001:0001fd6f       ??_EMENU_ITEM_ENTRY@@QAEPAXI@Z 00420d6f f i v5subs:menuctrl.obj
 0001:0001fdc4       ?create_windows@MENU_CONTROL_ENTRY@@QAEEPADPAUHWND__@@@Z 00420dc4 f   v5subs:menuctrl.obj
 0001:0001fed5       ?destroy_windows@MENU_CONTROL_ENTRY@@QAEXXZ 00420ed5 f   v5subs:menuctrl.obj
 0001:0001ff15       ?do_left_button_down@MENU_CONTROL_ENTRY@@QAEXIJ@Z 00420f15 f   v5subs:menuctrl.obj
 0001:00020036       ?do_left_button_up@MENU_CONTROL_ENTRY@@QAEXIJ@Z 00421036 f   v5subs:menuctrl.obj
 0001:000200e6       ?do_mousemove@MENU_CONTROL_ENTRY@@QAEXPAUHWND__@@IJ@Z 004210e6 f   v5subs:menuctrl.obj
 0001:00020404       ?draw@MENU_ITEM_ENTRY@@QAEXPAUHDC__@@@Z 00421404 f   v5subs:menuctrl.obj
 0001:000204ee       ?draw_rect@MENU_ITEM_ENTRY@@QAEXPAUHDC__@@@Z 004214ee f   v5subs:menuctrl.obj
 0001:0002055f       ?draw_submenu_item@MENU_ITEM_ENTRY@@QAEXPAUHDC__@@I@Z 0042155f f   v5subs:menuctrl.obj
 0001:00020620       ?excel_to_csv@@YAXPAD@Z    00421620 f   v5subs:menuctrl.obj
 0001:00020654       ?find@MENU_CONTROL_ENTRY@@QAEPAVMENU_ITEM_ENTRY@@I@Z 00421654 f   v5subs:menuctrl.obj
 0001:000206ad       ?get@MENU_ITEM_ENTRY@@QAEEPAD@Z 004216ad f   v5subs:menuctrl.obj
 0001:0002080b       ?menu_control_proc@@YGJPAUHWND__@@IIJ@Z 0042180b f   v5subs:menuctrl.obj
 0001:000208b9       ?paint_me@MENU_CONTROL_ENTRY@@QAEXPAUHWND__@@@Z 004218b9 f   v5subs:menuctrl.obj
 0001:00020974       ?paint_submenu@MENU_CONTROL_ENTRY@@QAEXPAUHWND__@@@Z 00421974 f   v5subs:menuctrl.obj
 0001:00020a55       ?read@MENU_CONTROL_ENTRY@@QAEEAAVNAME_CLASS@@H@Z 00421a55 f   v5subs:menuctrl.obj
 0001:00021094       ?register_window@MENU_CONTROL_ENTRY@@SAXXZ 00422094 f   v5subs:menuctrl.obj
 0001:00021147       ?resize@MENU_CONTROL_ENTRY@@QAEEH@Z 00422147 f   v5subs:menuctrl.obj
 0001:000211db       ?resize@MENU_CONTROL_ENTRY@@QAEEXZ 004221db f   v5subs:menuctrl.obj
 0001:000211e3       ?set_checkmark@MENU_CONTROL_ENTRY@@QAEEIE@Z 004221e3 f   v5subs:menuctrl.obj
 0001:0002120c       ?show_submenu@MENU_CONTROL_ENTRY@@QAEXXZ 0042220c f   v5subs:menuctrl.obj
 0001:000212ca       ?sub_menu_control_proc@@YGJPAUHWND__@@IIJ@Z 004222ca f   v5subs:menuctrl.obj
 0001:00021307       ??1FTII_VAR_ARRAY@@UAE@XZ  00422307 f   v5subs:ftiiclas.obj
 0001:0002131d       ??4FTII_VAR@@UAEXN@Z       0042231d f   v5subs:ftiiclas.obj
 0001:00021373       ??4FTII_VAR@@UAEXPBD@Z     00422373 f   v5subs:ftiiclas.obj
 0001:000213e7       ??4FTII_VAR_ARRAY@@UAEXABVFTII_VAR@@@Z 004223e7 f   v5subs:ftiiclas.obj
 0001:000213f9       ??4FTII_VAR_ARRAY@@UAEXH@Z 004223f9 f   v5subs:ftiiclas.obj
 0001:000213fe       ??4FTII_VAR_ARRAY@@UAEXI@Z 004223fe f   v5subs:ftiiclas.obj
 0001:0002141f       ??4FTII_VAR_ARRAY@@UAEXN@Z 0042241f f   v5subs:ftiiclas.obj
 0001:0002144b       ??AFTII_VAR_ARRAY@@QAEAAVFTII_VAR@@H@Z 0042244b f   v5subs:ftiiclas.obj
 0001:0002147f       ??_EFTII_VAR@@UAEPAXI@Z    0042247f f i v5subs:ftiiclas.obj
 0001:000214cf       ?append_value@FTII_VAR@@QAE_NAAVSTRING_CLASS@@@Z 004224cf f   v5subs:ftiiclas.obj
 0001:000215a2       ?cleanup@FTII_VAR_ARRAY@@QAEXXZ 004225a2 f   v5subs:ftiiclas.obj
 0001:000215d5       ?find@FTII_VAR_ARRAY@@QAE_NH@Z 004225d5 f   v5subs:ftiiclas.obj
 0001:00021616       ?find@FTII_VAR_ARRAY@@QAE_NPAD@Z 00422616 f   v5subs:ftiiclas.obj
 0001:0002162f       ?get@FTII_VAR@@UAE_NPBD@Z  0042262f f   v5subs:ftiiclas.obj
 0001:0002166a       ?get@FTII_VAR_ARRAY@@QAE_NAAVSTRING_CLASS@@@Z 0042266a f   v5subs:ftiiclas.obj
 0001:0002175b       ?get_from@FTII_VAR_ARRAY@@QAE_NAAVSTRING_CLASS@@@Z 0042275b f   v5subs:ftiiclas.obj
 0001:00021842       ?makeline@FTII_VAR@@QAE_NAAVSTRING_CLASS@@@Z 00422842 f   v5subs:ftiiclas.obj
 0001:0002188e       ?myfindchar@@YAPBDDPBD@Z   0042288e f   v5subs:ftiiclas.obj
 0001:0002188e       ?myfindchar@@YAPADDPAD@Z   0042288e f   v5subs:ftiiclas.obj
 0001:000218b6       ?put@FTII_VAR@@UAE_NAAVSTRING_CLASS@@@Z 004228b6 f   v5subs:ftiiclas.obj
 0001:00021954       ?put@FTII_VAR_ARRAY@@UAE_NAAVSTRING_CLASS@@@Z 00422954 f   v5subs:ftiiclas.obj
 0001:00021a35       ?put_into@FTII_VAR_ARRAY@@QAE_NAAVSTRING_CLASS@@@Z 00422a35 f   v5subs:ftiiclas.obj
 0001:00021be3       ?realval@FTII_VAR@@QAENXZ  00422be3 f   v5subs:ftiiclas.obj
 0001:00021c58       ?remove@FTII_VAR_ARRAY@@QAE_NH@Z 00422c58 f   v5subs:ftiiclas.obj
 0001:00021cc8       ?remove@FTII_VAR_ARRAY@@QAE_NXZ 00422cc8 f   v5subs:ftiiclas.obj
 0001:00021cda       ?set@FTII_VAR@@UAE_NHI@Z   00422cda f   v5subs:ftiiclas.obj
 0001:00021cf8       ?set@FTII_VAR@@UAE_NHN@Z   00422cf8 f   v5subs:ftiiclas.obj
 0001:00021d5f       ?set@FTII_VAR_ARRAY@@UAE_NHI@Z 00422d5f f   v5subs:ftiiclas.obj
 0001:00021d92       ?update@FTII_VAR_ARRAY@@QAE_NAAVFTII_VAR@@@Z 00422d92 f   v5subs:ftiiclas.obj
 0001:00021da4       ?update@FTII_VAR_ARRAY@@QAE_NHI@Z 00422da4 f   v5subs:ftiiclas.obj
 0001:00021e08       ?upsize@FTII_VAR_ARRAY@@QAE_NH@Z 00422e08 f   v5subs:ftiiclas.obj
 0001:00021f12       ??0FTII_ARRAY_DATA@@QAE@XZ 00422f12 f   v5subs:ftii_shot_data.obj
 0001:00021f55       ??0FTII_FILE_DATA@@QAE@XZ  00422f55 f   v5subs:ftii_shot_data.obj
 0001:00021fea       ??0FTII_NET_DATA@@QAE@XZ   00422fea f   v5subs:ftii_shot_data.obj
 0001:0002200b       ??0FTII_OP_STATUS_DATA@@QAE@XZ 0042300b f   v5subs:ftii_shot_data.obj
 0001:0002205c       ??0FTII_PROFILE@@QAE@XZ    0042305c f   v5subs:ftii_shot_data.obj
 0001:0002209c       ??1FTII_FILE_DATA@@QAE@XZ  0042309c f   v5subs:ftii_shot_data.obj
 0001:000220a1       ??1FTII_NET_DATA@@QAE@XZ   004230a1 f   v5subs:ftii_shot_data.obj
 0001:000220a6       ??1FTII_PROFILE@@UAE@XZ    004230a6 f   v5subs:ftii_shot_data.obj
 0001:000220c2       ??4FTII_ARRAY_DATA@@QAEXABVFTII_FILE_DATA@@@Z 004230c2 f   v5subs:ftii_shot_data.obj
 0001:000226ca       ??4FTII_FILE_DATA@@QAEXABVFTII_NET_DATA@@@Z 004236ca f   v5subs:ftii_shot_data.obj
 0001:0002283e       ??4FTII_OP_STATUS_DATA@@QAEXABU0@@Z 0042383e f   v5subs:ftii_shot_data.obj
 0001:0002293d       ??4FTII_PARAMETERS@@QAEXABU0@@Z 0042393d f   v5subs:ftii_shot_data.obj
 0001:0002296f       ??4FTII_POSITION_DATA@@QAEXABUFTII_SAMPLE@@@Z 0042396f f   v5subs:ftii_shot_data.obj
 0001:000229c0       ??4FTII_PROFILE@@QAEXABVFTII_FILE_DATA@@@Z 004239c0 f   v5subs:ftii_shot_data.obj
 0001:00022c0e       ??4FTII_TIME_DATA@@QAEXABUFTII_SAMPLE@@@Z 00423c0e f   v5subs:ftii_shot_data.obj
 0001:00022c49       ??8FTII_OP_STATUS_DATA@@QAE_NABU0@@Z 00423c49 f   v5subs:ftii_shot_data.obj
 0001:00022dea       ??_EFTII_ARRAY_DATA@@UAEPAXI@Z 00423dea f i v5subs:ftii_shot_data.obj
 0001:00022dea       ??_GFTII_ARRAY_DATA@@UAEPAXI@Z 00423dea f i v5subs:ftii_shot_data.obj
 0001:00022e0c       ??_EFTII_PROFILE@@UAEPAXI@Z 00423e0c f i v5subs:ftii_shot_data.obj
 0001:00022e0c       ??_GFTII_PROFILE@@UAEPAXI@Z 00423e0c f i v5subs:ftii_shot_data.obj
 0001:00022e28       ?clear@FTII_ARRAY_DATA@@QAEXXZ 00423e28 f   v5subs:ftii_shot_data.obj
 0001:00022ec2       ?clear@FTII_FILE_DATA@@QAEXXZ 00423ec2 f   v5subs:ftii_shot_data.obj
 0001:00022f1c       ?clear@FTII_NET_DATA@@QAEXXZ 00423f1c f   v5subs:ftii_shot_data.obj
 0001:00022f4d       ?clear@FTII_PROFILE@@QAEXXZ 00423f4d f   v5subs:ftii_shot_data.obj
 0001:00022fc1       ?index_from_position@FTII_ARRAY_DATA@@QAEHN@Z 00423fc1 f   v5subs:ftii_shot_data.obj
 0001:00023005       ?index_from_time@FTII_ARRAY_DATA@@QAEHN@Z 00424005 f   v5subs:ftii_shot_data.obj
 0001:00023087       ?interpolated_ms@FTII_PROFILE@@QAENN@Z 00424087 f   v5subs:ftii_shot_data.obj
 0001:000230e2       ?interpolated_postion_from_velocity@FTII_PROFILE@@QAENHHH@Z 004240e2 f   v5subs:ftii_shot_data.obj
 0001:00023150       ?interpolated_timer_count@FTII_ARRAY_DATA@@QAEIN@Z 00424150 f   v5subs:ftii_shot_data.obj
 0001:000231ef       ?interpolated_velocity@FTII_ARRAY_DATA@@QAENN@Z 004241ef f   v5subs:ftii_shot_data.obj
 0001:00023344       ?move@FTII_FILE_DATA@@QAEXAAV1@@Z 00424344 f   v5subs:ftii_shot_data.obj
 0001:0002341f       ?ms@FTII_PROFILE@@QAENH@Z  0042441f f   v5subs:ftii_shot_data.obj
 0001:00023472       ?ms_between_positions@FTII_PROFILE@@QAENNN@Z 00424472 f   v5subs:ftii_shot_data.obj
 0001:000234f0       ?put@FTII_FILE_DATA@@QAEEAAVSTRING_CLASS@@@Z 004244f0 f   v5subs:ftii_shot_data.obj
 0001:000237d2       ?set_nof_extended_analogs@FTII_FILE_DATA@@QAEXH@Z 004247d2 f   v5subs:ftii_shot_data.obj
 0001:00023844       ?set_parameters@FTII_NET_DATA@@QAEXPAUFTII_PARAMETERS@@@Z 00424844 f   v5subs:ftii_shot_data.obj
 0001:0002385d       ?set_position_based_points@FTII_NET_DATA@@QAEXPAUFTII_SAMPLE@@H@Z 0042485d f   v5subs:ftii_shot_data.obj
 0001:0002388d       ?set_shot_time@FTII_NET_DATA@@QAEXAAU_FILETIME@@@Z 0042488d f   v5subs:ftii_shot_data.obj
 0001:0002389f       ?set_time_based_points@FTII_NET_DATA@@QAEXPAUFTII_SAMPLE@@H@Z 0042489f f   v5subs:ftii_shot_data.obj
 0001:000238cf       ?velocity_between_positions@FTII_ARRAY_DATA@@QAENNN@Z 004248cf f   v5subs:ftii_shot_data.obj
 0001:00023989       ??0PART_NAME_ENTRY@@QAE@XZ 00424989 f   v5subs:structs.obj
 0001:000239a5       ??4PROFILE_NAME_ENTRY@@QAEXABUPART_NAME_ENTRY@@@Z 004249a5 f   v5subs:structs.obj
 0001:000239bc       ?set@PROFILE_NAME_ENTRY@@QAEXABVSTRING_CLASS@@00PBD@Z 004249bc f   v5subs:structs.obj
 0001:000239f0       ??0ALARM_SUMMARY_CLASS@@QAE@XZ 004249f0 f   v5subs:alarmsum.obj
 0001:00023a1d       ??1ALARM_SUMMARY_CLASS@@QAE@XZ 00424a1d f   v5subs:alarmsum.obj
 0001:00023a35       ?add@ALARM_SUMMARY_CLASS@@QAEPAUALARM_COUNTS_ENTRY@@J@Z 00424a35 f   v5subs:alarmsum.obj
 0001:00023a8e       ?empty@ALARM_SUMMARY_CLASS@@QAEXXZ 00424a8e f   v5subs:alarmsum.obj
 0001:00023ac5       ?find@ALARM_SUMMARY_CLASS@@QAEPAUALARM_COUNTS_ENTRY@@J@Z 00424ac5 f   v5subs:alarmsum.obj
 0001:00023af4       ?save@ALARM_SUMMARY_CLASS@@QAEXABU_SYSTEMTIME@@J@Z 00424af4 f   v5subs:alarmsum.obj
 0001:00023b3c       ?save@ALARM_SUMMARY_CLASS@@QAEXABU_SYSTEMTIME@@JEAAVSTRING_CLASS@@@Z 00424b3c f   v5subs:alarmsum.obj
 0001:00023e82       ?set_counts@ALARM_SUMMARY_CLASS@@QAEXPAMPAVPARAMETER_CLASS@@@Z 00424e82 f   v5subs:alarmsum.obj
 0001:00023f9a       ?set@PART_NAME_ENTRY@@QAEXAAVSTRING_CLASS@@00@Z 00424f9a f   board_monitor.obj
 0001:00023f9a       ?set_part@ALARM_SUMMARY_CLASS@@QAEXAAVSTRING_CLASS@@00@Z 00424f9a f   v5subs:alarmsum.obj
 0001:00023fc2       ??1DOUBLE_ARRAY_CLASS@@QAE@XZ 00424fc2 f   v5subs:array.obj
 0001:00023fcd       ??ADOUBLE_ARRAY_CLASS@@QAEAANJ@Z 00424fcd f   v5subs:array.obj
 0001:00023fec       ?cleanup@DOUBLE_ARRAY_CLASS@@QAEXXZ 00424fec f   v5subs:array.obj
 0001:00024008       ?init@DOUBLE_ARRAY_CLASS@@UAEEJ@Z 00425008 f   v5subs:array.obj
 0001:0002405c       ?init@DOUBLE_ARRAY_CLASS@@UAEEJPAN@Z 0042505c f   v5subs:array.obj
 0001:00024080       ?move@DOUBLE_ARRAY_CLASS@@QAEXAAV1@@Z 00425080 f   v5subs:array.obj
 0001:000240a4       ?down_state@DSTAT_CLASS@@QAEHXZ 004250a4 f   v5subs:dstat.obj
 0001:00024170       ?get@DSTAT_CLASS@@QAEEAAVSTRING_CLASS@@0@Z 00425170 f   v5subs:dstat.obj
 0001:00024279       ?is_down@DSTAT_CLASS@@QAEEXZ 00425279 f   v5subs:dstat.obj
 0001:00024299       ?put@DSTAT_CLASS@@QAEEAAVSTRING_CLASS@@0@Z 00425299 f   v5subs:dstat.obj
 0001:00024457       ?same_code@DSTAT_CLASS@@QAEEPAD0@Z 00425457 f   v5subs:dstat.obj
 0001:0002448f       ?load@FTANALOG_CLASS@@QAEEAAVSTRING_CLASS@@00@Z 0042548f f   v5subs:ftanalog.obj
 0001:00024740       ?cleanup@FTCALC_CLASS@@QAEXXZ 00425740 f   v5subs:ftcalc.obj
 0001:00024757       ?countchars@STRING_CLASS@@QAEJD@Z 00425757 f i v5subs:ftcalc.obj
 0001:00024772       ?load@FTCALC_CLASS@@QAEEAAVSTRING_CLASS@@00@Z 00425772 f   v5subs:ftcalc.obj
 0001:0002488e       ?value@FTCALC_CLASS@@QAENHPAN@Z 0042588e f   v5subs:ftcalc.obj
 0001:00024b35       ??1RUNLIST_CLASS@@QAE@XZ   00425b35 f   v5subs:runlist.obj
 0001:00024b3a       ??ARUNLIST_CLASS@@QAEAAURUNLIST_ENTRY@@H@Z 00425b3a f   v5subs:runlist.obj
 0001:00024b56       ??_ERUNLIST_ENTRY@@QAEPAXI@Z 00425b56 f i v5subs:runlist.obj
 0001:00024baf       ?cleanup@RUNLIST_CLASS@@AAEXXZ 00425baf f   v5subs:runlist.obj
 0001:00024bcc       ?find_part@RUNLIST_CLASS@@QAEAAVSTRING_CLASS@@I@Z 00425bcc f   v5subs:runlist.obj
 0001:00024c10       ?get@RUNLIST_CLASS@@QAEEAAVNAME_CLASS@@@Z 00425c10 f   v5subs:runlist.obj
 0001:00024d8a       ?get@RUNLIST_CLASS@@QAEEAAVSTRING_CLASS@@0@Z 00425d8a f   v5subs:runlist.obj
 0001:00024dcd       ?cat@STDDOWN_CLASS@@QAEPADXZ 00425dcd f   v5subs:stddown.obj
 0001:00024ddf       ?find@STDDOWN_CLASS@@QAE_NJ@Z 00425ddf f   v5subs:stddown.obj
 0001:00024e77       ?startup@STDDOWN_CLASS@@QAEXXZ 00425e77 f   v5subs:stddown.obj
 0001:00024fb4       ?subcat@STDDOWN_CLASS@@QAEPADXZ 00425fb4 f   v5subs:stddown.obj
 0001:00024fca       ?part_exists@@YAEAAVSTRING_CLASS@@00@Z 00425fca f   v5subs:pexists.obj
 0001:00025013       ?category_name@@YAPADPAD@Z 00426013 f   v5subs:downsubs.obj
 0001:000250d4       ?make_downtime_event_string@@YAPADAAVSTRING_CLASS@@0AAU_SYSTEMTIME@@PAD22@Z 004260d4 f   v5subs:downsubs.obj
 0001:000251ea       ?make_downtime_record@@YAEAAVDB_TABLE@@AAU_SYSTEMTIME@@PAD22AAVSTRING_CLASS@@@Z 004261ea f   v5subs:downsubs.obj
 0001:0002529f       ?put_alpha@DB_TABLE@@QAEEGAAVSTRING_CLASS@@F@Z 0042629f f i v5subs:downsubs.obj
 0001:000252c1       ?subcategory_name@@YAPADPAD0@Z 004262c1 f   v5subs:downsubs.obj
 0001:000253ec       ?is_float_zero@@YAEM@Z     004263ec f   v5subs:zero.obj
 0001:0002541c       ?is_zero@@YA_NN@Z          0042641c f   v5subs:zero.obj
 0001:00025440       ?not_float_zero@@YAEM@Z    00426440 f   v5subs:zero.obj
 0001:00025470       ?not_zero@@YA_NN@Z         00426470 f   v5subs:zero.obj
 0001:00025493       ?set_current_part_name@@YAEAAVSTRING_CLASS@@00@Z 00426493 f   v5subs:current.obj
 0001:00025520       ?calculate_ftii_parameters@@YAPANAAVFTII_PROFILE@@AAVMACHINE_CLASS@@AAVPART_CLASS@@AAVPARAMETER_CLASS@@AAVANALOG_SENSOR@@AAVFTANALOG_CLASS@@AAVFTCALC_CLASS@@@Z 00426520 f   v5subs:ftii_parameters.obj
 0001:00026d18       ?append_backslash_to_path@@YAXPAD@Z 00427d18 f   v5subs:path.obj
 0001:00026d41       ?append_filename_to_path@@YAXPADPBD@Z 00427d41 f   v5subs:path.obj
 0001:00026d5a       ?catpath@@YAPADPADPBD@Z    00427d5a f   v5subs:path.obj
 0001:00026d9e       ?create_directory@@YAEPAD@Z 00427d9e f   v5subs:path.obj
 0001:00026eb0       ?dir_from_filename@@YAEPAD@Z 00427eb0 f   v5subs:path.obj
 0001:00026eff       ?remove_backslash_from_path@@YAXPAD@Z 00427eff f   v5subs:path.obj
 0001:00026f29       ??0PLOOKUP_CLASS@@QAE@XZ   00427f29 f   v5subs:plookup.obj
 0001:00026f3d       ??1PLOOKUP_CLASS@@QAE@XZ   00427f3d f   v5subs:plookup.obj
 0001:00026f50       ?get_last_shot_number@PLOOKUP_CLASS@@QAEHAAVSTRING_CLASS@@00@Z 00427f50 f   v5subs:plookup.obj
 0001:00026f99       ?init@PLOOKUP_CLASS@@QAEEAAVSTRING_CLASS@@00@Z 00427f99 f   v5subs:plookup.obj
 0001:00026fb5       ?put@PLOOKUP_CLASS@@QAEEXZ 00427fb5 f   v5subs:plookup.obj
 0001:00027094       ?set_last_shot_number@PLOOKUP_CLASS@@QAEEH@Z 00428094 f   v5subs:plookup.obj
 0001:000270b5       ?set_time@PLOOKUP_CLASS@@QAEEAAVTIME_CLASS@@@Z 004280b5 f   v5subs:plookup.obj
 0001:000270fc       ?dynamic_file_name@@YAPADAAVTIME_CLASS@@AAUPART_NAME_ENTRY@@PBD@Z 004280fc f   v5subs:dynamic_file_name.obj
 0001:000273a7       ?free_shotsave_semaphore@@YAXXZ 004283a7 f   v5subs:semaphor.obj
 0001:000273b1       ?get_shotsave_semaphore@@YAEAAVSTRING_CLASS@@0@Z 004283b1 f   v5subs:semaphor.obj
 0001:0002743d       ?add@WORKER_LIST_CLASS@@QAEEPAD00@Z 0042843d f   v5subs:workclas.obj
 0001:000274c3       ?cleanup@WORKER_LIST_CLASS@@QAEXXZ 004284c3 f   v5subs:workclas.obj
 0001:000274e0       ?find@WORKER_LIST_CLASS@@QAEEPAD@Z 004284e0 f   v5subs:workclas.obj
 0001:00027512       ?first_name@WORKER_LIST_CLASS@@QAEPADXZ 00428512 f   v5subs:workclas.obj
 0001:00027523       ?full_name@WORKER_LIST_CLASS@@QAEPADXZ 00428523 f   v5subs:workclas.obj
 0001:00027568       ?last_name@WORKER_LIST_CLASS@@QAEPADXZ 00428568 f   v5subs:workclas.obj
 0001:00027579       ?load@WORKER_LIST_CLASS@@QAEEXZ 00428579 f   v5subs:workclas.obj
 0001:00027706       ?error_message@@YAXFF@Z    00428706 f   v5subs:error_ms.obj
 0001:00027749       ?reverse@@YAXPAD@Z         00428749 f   v5subs:reverse.obj
 0001:0002776c       ?is_empty@@YAEPBD@Z        0042876c f   v5subs:is_empty.obj
 0001:00027788       ?copy_all_files@@YAEPAD00EPAUHWND__@@H@Z 00428788 f   v5subs:callfile.obj
 0001:0002793d       ?dups_to_vu@@YANFF@Z       0042893d f   v5subs:unitadj.obj
 0001:000279b4       ?day_of_the_week@@YAHHHH@Z 004289b4 f   v5subs:dow.obj
 0001:00027a0f       ??0bad_alloc@std@@QAE@ABV01@@Z 00428a0f f i LIBCMT:new.obj
 0001:00027a2a       ??1bad_alloc@std@@UAE@XZ   00428a2a f i LIBCMT:new.obj
 0001:00027a35       ??2@YAPAXI@Z               00428a35 f   LIBCMT:new.obj
 0001:00027a86       ??_Ebad_alloc@std@@UAEPAXI@Z 00428a86 f i LIBCMT:new.obj
 0001:00027a86       ??_Gbad_alloc@std@@UAEPAXI@Z 00428a86 f i LIBCMT:new.obj
 0001:00027aab       ??3@YAXPAX@Z               00428aab f   LIBCMT:delete.obj
 0001:00027ab0       ___onexitinit              00428ab0 f   LIBCMT:onexit.obj
 0001:00027adf       __onexit                   00428adf f   LIBCMT:onexit.obj
 0001:00027bdb       _atexit                    00428bdb f   LIBCMT:onexit.obj
 0001:00027bf0       @__security_check_cookie@4 00428bf0 f   LIBCMT:secchk.obj
 0001:00027c00       _memset                    00428c00 f   LIBCMT:memset.obj
 0001:00027c90       ??1type_info@@UAE@XZ       00428c90 f   LIBCMT:typinfo.obj
 0001:00027c9e       ??_Gtype_info@@UAEPAXI@Z   00428c9e f i LIBCMT:typinfo.obj
 0001:00027c9e       ??_Etype_info@@UAEPAXI@Z   00428c9e f i LIBCMT:typinfo.obj
 0001:00027cbd       __fpmath                   00428cbd f   LIBCMT:fpinit.obj
 0001:00027cd4       __cfltcvt_init             00428cd4 f   LIBCMT:fpinit.obj
 0001:00027d40       _memcpy                    00428d40 f   LIBCMT:memcpy.obj
 0001:00028384       __beginthread              00429384 f   LIBCMT:thread.obj
 0001:00028464       __endthread                00429464 f   LIBCMT:thread.obj
 0001:000284f0       __chkstk                   004294f0 f   LIBCMT:chkstk.obj
 0001:000284f0       __alloca_probe             004294f0 f   LIBCMT:chkstk.obj
 0001:0002851b       ___raise_securityfailure   0042951b f   LIBCMT:gs_report.obj
 0001:00028558       ___report_gsfailure        00429558 f   LIBCMT:gs_report.obj
 0001:00028653       ___report_rangecheckfailure 00429653 f   LIBCMT:gs_report.obj
 0001:0002865f       ___report_securityfailure  0042965f f   LIBCMT:gs_report.obj
 0001:0002872f       ??_U@YAPAXI@Z              0042972f f   LIBCMT:new2.obj
 0001:00028738       ??_V@YAXPAX@Z              00429738 f   LIBCMT:delete2.obj
 0001:0002873d       _WinMainCRTStartup         0042973d f   LIBCMT:wincrt0.obj
 0001:000288be       ??0_LocaleUpdate@@QAE@PAUlocaleinfo_struct@@@Z 004298be f i LIBCMT:strtod.obj
 0001:00028946       __strtod_l                 00429946 f   LIBCMT:strtod.obj
 0001:00028a5d       _strtod                    00429a5d f   LIBCMT:strtod.obj
 0001:00028c98       _strtol                    00429c98 f   LIBCMT:strtol.obj
 0001:00028cc2       _strtoul                   00429cc2 f   LIBCMT:strtol.obj
 0001:00028d61       __ecvt_s                   00429d61 f   LIBCMT:fcvt.obj
 0001:00028e20       _floor                     00429e20 f   LIBCMT:floor_pentium4.obj
 0001:00028e60       __floor_pentium4           00429e60 f   LIBCMT:floor_pentium4.obj
 0001:00028f50       __aulldiv                  00429f50 f   LIBCMT:ulldiv.obj
 0001:00028fc0       _memmove                   00429fc0 f   LIBCMT:memmove.obj
 0001:00029610       __ftol2_sse                0042a610 f   LIBCMT:ftol2.obj
 0001:00029619       __ftol2_pentium4           0042a619 f   LIBCMT:ftol2.obj
 0001:0002962c       __ftol2_sse_excpt          0042a62c f   LIBCMT:ftol2.obj
 0001:00029646       __ftol2                    0042a646 f   LIBCMT:ftol2.obj
 0001:000296c0       __ftoui3                   0042a6c0 f   LIBCMT:ftol3.obj
 0001:000296cf       __ftoul3                   0042a6cf f   LIBCMT:ftol3.obj
 0001:000296de       __ftol3                    0042a6de f   LIBCMT:ftol3.obj
 0001:000296eb       __ftol3_NaN                0042a6eb f   LIBCMT:ftol3.obj
 0001:00029703       __ftol3_work               0042a703 f   LIBCMT:ftol3.obj
 0001:00029789       __ftol3_common             0042a789 f   LIBCMT:ftol3.obj
 0001:0002984b       __ftol3_arg_error          0042a84b f   LIBCMT:ftol3.obj
 0001:0002985d       __ftol3_except             0042a85d f   LIBCMT:ftol3.obj
 0001:000298a1       __dtoui3                   0042a8a1 f   LIBCMT:ftol3.obj
 0001:000298b0       __dtoul3                   0042a8b0 f   LIBCMT:ftol3.obj
 0001:000298bf       __dtol3                    0042a8bf f   LIBCMT:ftol3.obj
 0001:000298cc       __dtol3_NaN                0042a8cc f   LIBCMT:ftol3.obj
 0001:000298e9       __dtol3_work               0042a8e9 f   LIBCMT:ftol3.obj
 0001:000299ce       __ultod3                   0042a9ce f   LIBCMT:ftol3.obj
 0001:00029a5f       __ltod3                    0042aa5f f   LIBCMT:ftol3.obj
 0001:00029a90       _ceil                      0042aa90 f   LIBCMT:ceil_pentium4.obj
 0001:00029ad0       __ceil_pentium4            0042aad0 f   LIBCMT:ceil_pentium4.obj
 0001:00029bb0       __alldiv                   0042abb0 f   LIBCMT:lldiv.obj
 0001:00029c60       __allmul                   0042ac60 f   LIBCMT:llmul.obj
 0001:00029c94       _malloc                    0042ac94 f   LIBCMT:malloc.obj
 0001:00029d26       ??0exception@std@@QAE@ABQBDH@Z 0042ad26 f   LIBCMT:stdexcpt.obj
 0001:00029d41       ??0exception@std@@QAE@ABV01@@Z 0042ad41 f   LIBCMT:stdexcpt.obj
 0001:00029d64       ??1exception@std@@UAE@XZ   0042ad64 f   LIBCMT:stdexcpt.obj
 0001:00029d6f       ??4exception@std@@QAEAAV01@ABV01@@Z 0042ad6f f   LIBCMT:stdexcpt.obj
 0001:00029da2       ??_Eexception@std@@UAEPAXI@Z 0042ada2 f i LIBCMT:stdexcpt.obj
 0001:00029da2       ??_Gexception@std@@UAEPAXI@Z 0042ada2 f i LIBCMT:stdexcpt.obj
 0001:00029dc7       ?_Copy_str@exception@std@@AAEXPBD@Z 0042adc7 f   LIBCMT:stdexcpt.obj
 0001:00029e05       ?_Tidy@exception@std@@AAEXXZ 0042ae05 f   LIBCMT:stdexcpt.obj
 0001:00029e21       ?what@exception@std@@UBEPBDXZ 0042ae21 f   LIBCMT:stdexcpt.obj
 0001:00029e2e       __callnewh                 0042ae2e f   LIBCMT:handler.obj
 0001:00029e54       __initp_heap_handler       0042ae54 f   LIBCMT:handler.obj
 0001:00029e61       __CxxThrowException@8      0042ae61 f   LIBCMT:throw.obj
 0001:00029ec4       _free                      0042aec4 f   LIBCMT:free.obj
 0001:00029efc       ___crtCorExitProcess       0042aefc f   LIBCMT:crt0dat.obj
 0001:00029f30       ___crtExitProcess          0042af30 f   LIBCMT:crt0dat.obj
 0001:00029f46       __amsg_exit                0042af46 f   LIBCMT:crt0dat.obj
 0001:00029f62       __c_exit                   0042af62 f   LIBCMT:crt0dat.obj
 0001:00029f71       __cexit                    0042af71 f   LIBCMT:crt0dat.obj
 0001:00029f80       __cinit                    0042af80 f   LIBCMT:crt0dat.obj
 0001:0002a004       __exit                     0042b004 f   LIBCMT:crt0dat.obj
 0001:0002a018       __init_pointers            0042b018 f   LIBCMT:crt0dat.obj
 0001:0002a086       __initterm_e               0042b086 f   LIBCMT:crt0dat.obj
 0001:0002a0a8       __lockexit                 0042b0a8 f   LIBCMT:crt0dat.obj
 0001:0002a0b1       __unlockexit               0042b0b1 f   LIBCMT:crt0dat.obj
 0001:0002a1e9       _exit                      0042b1e9 f   LIBCMT:crt0dat.obj
 0001:0002a1fd       __msize                    0042b1fd f   LIBCMT:msize.obj
 0001:0002a22e       __calloc_crt               0042b22e f   LIBCMT:crtheap.obj
 0001:0002a276       __malloc_crt               0042b276 f   LIBCMT:crtheap.obj
 0001:0002a2bd       __realloc_crt              0042b2bd f   LIBCMT:crtheap.obj
 0001:0002a310       __SEH_prolog4              0042b310 f   LIBCMT:sehprolg4.obj
 0001:0002a355       __SEH_epilog4              0042b355 f   LIBCMT:sehprolg4.obj
 0001:0002a370       __except_handler4          0042b370 f   LIBCMT:chandler4.obj
 0001:0002a504       __VEC_memset               0042b504 f   LIBCMT:p4_memset.obj
 0001:0002a5cc       ___isa_available_init      0042b5cc f   LIBCMT:cpu_disp.obj
 0001:0002a750       _strcmp                    0042b750 f   LIBCMT:strcmp.obj
 0001:0002a7dc       ?_Type_info_dtor@type_info@@CAXPAV1@@Z 0042b7dc f   LIBCMT:typname.obj
 0001:0002a84d       __cfltcvt                  0042b84d f   LIBCMT:cvt.obj
 0001:0002a86e       __cfltcvt_l                0042b86e f   LIBCMT:cvt.obj
 0001:0002a8f4       __cftoa_l                  0042b8f4 f   LIBCMT:cvt.obj
 0001:0002ac50       __cftoe                    0042bc50 f   LIBCMT:cvt.obj
 0001:0002adbf       __cftoe_l                  0042bdbf f   LIBCMT:cvt.obj
 0001:0002af79       __cftof_l                  0042bf79 f   LIBCMT:cvt.obj
 0001:0002b03a       __cftog_l                  0042c03a f   LIBCMT:cvt.obj
 0001:0002b139       __cropzeros                0042c139 f   LIBCMT:cvt.obj
 0001:0002b14a       __cropzeros_l              0042c14a f   LIBCMT:cvt.obj
 0001:0002b1ca       __fassign                  0042c1ca f   LIBCMT:cvt.obj
 0001:0002b1e2       __fassign_l                0042c1e2 f   LIBCMT:cvt.obj
 0001:0002b224       __forcdecpt                0042c224 f   LIBCMT:cvt.obj
 0001:0002b235       __forcdecpt_l              0042c235 f   LIBCMT:cvt.obj
 0001:0002b2a9       __positive                 0042c2a9 f   LIBCMT:cvt.obj
 0001:0002b2eb       __setdefaultprecision      0042c2eb f   LIBCMT:fp8.obj
 0001:0002b312       __initp_misc_cfltcvt_tab   0042c312 f   LIBCMT:cmiscdat.obj
 0001:0002b331       __call_reportfault         0042c331 f   LIBCMT:invarg.obj
 0001:0002b456       __initp_misc_invarg        0042c456 f   LIBCMT:invarg.obj
 0001:0002b463       __invalid_parameter        0042c463 f   LIBCMT:invarg.obj
 0001:0002b48e       __invalid_parameter_noinfo 0042c48e f   LIBCMT:invarg.obj
 0001:0002b49e       __invoke_watson            0042c49e f   LIBCMT:invarg.obj
 0001:0002b4c9       __XcptFilter               0042c4c9 f   LIBCMT:winxfltr.obj
 0001:0002b624       ___get_flsindex            0042c624 f   LIBCMT:tidtable.obj
 0001:0002b62a       __freefls@4                0042c62a f   LIBCMT:tidtable.obj
 0001:0002b75f       __freeptd                  0042c75f f   LIBCMT:tidtable.obj
 0001:0002b795       __getptd                   0042c795 f   LIBCMT:tidtable.obj
 0001:0002b7ad       __getptd_noexit            0042c7ad f   LIBCMT:tidtable.obj
 0001:0002b81c       __initptd                  0042c81c f   LIBCMT:tidtable.obj
 0001:0002b8cf       __mtinit                   0042c8cf f   LIBCMT:tidtable.obj
 0001:0002b945       __mtterm                   0042c945 f   LIBCMT:tidtable.obj
 0001:0002b962       ___doserrno                0042c962 f   LIBCMT:dosmap.obj
 0001:0002b975       __dosmaperr                0042c975 f   LIBCMT:dosmap.obj
 0001:0002b996       __errno                    0042c996 f   LIBCMT:dosmap.obj
 0001:0002b9a9       __get_errno_from_oserr     0042c9a9 f   LIBCMT:dosmap.obj
 0001:0002b9ea       ___crtFlsAlloc             0042c9ea f   LIBCMT:winapisupp.obj
 0001:0002ba08       ___crtFlsFree              0042ca08 f   LIBCMT:winapisupp.obj
 0001:0002ba27       ___crtFlsGetValue          0042ca27 f   LIBCMT:winapisupp.obj
 0001:0002ba46       ___crtFlsSetValue          0042ca46 f   LIBCMT:winapisupp.obj
 0001:0002ba68       ___crtGetShowWindowMode    0042ca68 f   LIBCMT:winapisupp.obj
 0001:0002ba8b       ___crtInitializeCriticalSectionEx 0042ca8b f   LIBCMT:winapisupp.obj
 0001:0002bab9       ___crtIsPackagedApp        0042cab9 f   LIBCMT:winapisupp.obj
 0001:0002baf9       ___crtLoadWinApiPointers   0042caf9 f   LIBCMT:winapisupp.obj
 0001:0002bd84       ___crtSetUnhandledExceptionFilter 0042cd84 f   LIBCMT:winapisupp.obj
 0001:0002bd92       ___crtSleep                0042cd92 f   LIBCMT:winapisupp.obj
 0001:0002bda0       ___crtTerminateProcess     0042cda0 f   LIBCMT:winapisupp.obj
 0001:0002bdb5       ___crtUnhandledException   0042cdb5 f   LIBCMT:winapisupp.obj
 0001:0002bdcb       __crt_debugger_hook        0042cdcb f   LIBCMT:dbghook.obj
 0001:0002bdd3       ?__CxxUnhandledExceptionFilter@@YGJPAU_EXCEPTION_POINTERS@@@Z 0042cdd3 f   LIBCMT:unhandld.obj
 0001:0002be14       ___CxxSetUnhandledExceptionFilter 0042ce14 f   LIBCMT:unhandld.obj
 0001:0002be22       __heap_init                0042ce22 f   LIBCMT:heapinit.obj
 0001:0002be37       __ioinit                   0042ce37 f   LIBCMT:ioinit.obj
 0001:0002c0eb       __setargv                  0042d0eb f   LIBCMT:stdargv.obj
 0001:0002c31a       __setenvp                  0042d31a f   LIBCMT:stdenvp.obj
 0001:0002c3fb       __FF_MSGBANNER             0042d3fb f   LIBCMT:crt0msg.obj
 0001:0002c434       __GET_RTERRMSG             0042d434 f   LIBCMT:crt0msg.obj
 0001:0002c458       __NMSG_WRITE               0042d458 f   LIBCMT:crt0msg.obj
 0001:0002c615       ___set_app_type            0042d615 f   LIBCMT:errmode.obj
 0001:0002c622       __set_error_mode           0042d622 f   LIBCMT:errmode.obj
 0001:0002c662       ___security_init_cookie    0042d662 f   LIBCMT:gs_support.obj
 0001:0002c6fe       __RTC_Initialize           0042d6fe f   LIBCMT:initsect.obj
 0001:0002c71e       __RTC_Terminate            0042d71e f   LIBCMT:initsect.obj
 0001:0002c73e       ___crtGetEnvironmentStringsA 0042d73e f   LIBCMT:a_env.obj
 0001:0002c7cb       __wincmdln                 0042d7cb f   LIBCMT:wincmdln.obj
 0001:0002c82a       __fltin2                   0042d82a f   LIBCMT:cfin.obj
 0001:0002c8d1       ___addlocaleref            0042d8d1 f   LIBCMT:localref.obj
 0001:0002c966       ___freetlocinfo            0042d966 f   LIBCMT:localref.obj
 0001:0002cac0       ___removelocaleref         0042dac0 f   LIBCMT:localref.obj
 0001:0002cb60       ___updatetlocinfo          0042db60 f   LIBCMT:localref.obj
 0001:0002cbe0       __updatetlocinfoEx_nolock  0042dbe0 f   LIBCMT:localref.obj
 0001:0002cc2b       ___initmbctable            0042dc2b f   LIBCMT:mbctype.obj
 0001:0002cee2       ___updatetmbcinfo          0042dee2 f   LIBCMT:mbctype.obj
 0001:0002cf88       __setmbcp                  0042df88 f   LIBCMT:mbctype.obj
 0001:0002d130       __setmbcp_nolock           0042e130 f   LIBCMT:mbctype.obj
 0001:0002d31b       __isctype_l                0042e31b f   LIBCMT:isctype.obj
 0001:0002d3d0       __locterm                  0042e3d0 f   LIBCMT:wsetloca.obj
 0001:0002d422       __fptostr                  0042e422 f   LIBCMT:_fptostr.obj
 0001:0002d4d2       ___dtold                   0042e4d2 f   LIBCMT:cfout.obj
 0001:0002d59a       __fltout2                  0042e59a f   LIBCMT:cfout.obj
 0001:0002d628       ___libm_error_support      0042e628 f   LIBCMT:libm_error.obj
 0001:0002d910       __sse2_mathfcns_init       0042e910 f   LIBCMT:mathfcns.obj
 0001:0002d91f       __floor_default            0042e91f f   LIBCMT:floor.obj
 0001:0002d9f6       __errcode                  0042e9f6 f   LIBCMT:fpexcept.obj
 0001:0002da28       __except1                  0042ea28 f   LIBCMT:fpexcept.obj
 0001:0002daf0       __handle_exc               0042eaf0 f   LIBCMT:fpexcept.obj
 0001:0002dcce       __handle_qnan1             0042ecce f   LIBCMT:fpexcept.obj
 0001:0002dd1e       __raise_exc                0042ed1e f   LIBCMT:fpexcept.obj
 0001:0002dd3f       __raise_exc_ex             0042ed3f f   LIBCMT:fpexcept.obj
 0001:0002e024       __set_errno_from_matherr   0042f024 f   LIBCMT:fpexcept.obj
 0001:0002e051       __umatherr                 0042f051 f   LIBCMT:fpexcept.obj
 0001:0002e0f1       __ceil_default             0042f0f1 f   LIBCMT:ceil.obj
 0001:0002e1d0       __CIsqrt                   0042f1d0 f   LIBCMT:sqrt.obj
 0001:0002e1e4       _sqrt                      0042f1e4     LIBCMT:sqrt.obj
 0001:0002e28a       __decomp                   0042f28a f   LIBCMT:util.obj
 0001:0002e35c       __set_exp                  0042f35c f   LIBCMT:util.obj
 0001:0002e38b       __sptype                   0042f38b f   LIBCMT:util.obj
 0001:0002e3e6       ___set_fpsr_sse2           0042f3e6 f   LIBCMT:fpctrl.obj
 0001:0002e45c       __clrfp                    0042f45c f   LIBCMT:fpctrl.obj
 0001:0002e46d       __ctrlfp                   0042f46d f   LIBCMT:fpctrl.obj
 0001:0002e498       __set_statfp               0042f498 f   LIBCMT:fpctrl.obj
 0001:0002e4f0       __statfp                   0042f4f0 f   LIBCMT:fpctrl.obj
 0001:0002e500       _strcpy_s                  0042f500 f   LIBCMT:strcpy_s.obj
 0001:0002e560       _strlen                    0042f560 f   LIBCMT:strlen.obj
 0001:0002e5eb       __lock                     0042f5eb f   LIBCMT:mlock.obj
 0001:0002e61f       __mtdeletelocks            0042f61f f   LIBCMT:mlock.obj
 0001:0002e673       __mtinitlocknum            0042f673 f   LIBCMT:mlock.obj
 0001:0002e71c       __mtinitlocks              0042f71c f   LIBCMT:mlock.obj
 0001:0002e755       __unlock                   0042f755 f   LIBCMT:mlock.obj
 0001:0002e770       __FindPESection            0042f770 f   LIBCMT:pesect.obj
 0001:0002e7c0       __IsNonwritableInCurrentImage 0042f7c0 f   LIBCMT:pesect.obj
 0001:0002e880       __ValidateImageBase        0042f880 f   LIBCMT:pesect.obj
 0001:0002e8b1       ?terminate@@YAXXZ          0042f8b1 f   LIBCMT:hooks.obj
 0001:0002e8e5       __initp_eh_hooks           0042f8e5 f   LIBCMT:hooks.obj
 0001:0002e8f6       __initp_misc_purevirt      0042f8f6 f   LIBCMT:inithelp.obj
 0001:0002e903       ___get_sigabrt             0042f903 f   LIBCMT:winsig.obj
 0001:0002e910       __initp_misc_winsig        0042f910 f   LIBCMT:winsig.obj
 0001:0002e92c       _raise                     0042f92c f   LIBCMT:winsig.obj
 0001:0002eb21       __initp_misc_rand_s        0042fb21 f   LIBCMT:rand_s.obj
 0001:0002eb2e       _realloc                   0042fb2e f   LIBCMT:realloc.obj
 0001:0002ebd9       __calloc_impl              0042fbd9 f   LIBCMT:calloc_impl.obj
 0001:0002ec60       __local_unwind4            0042fc60 f   LIBCMT:exsup4.obj
 0001:0002ed36       __seh_longjmp_unwind4@4    0042fd36 f   LIBCMT:exsup4.obj
 0001:0002ed52       @_EH4_CallFilterFunc@8     0042fd52 f   LIBCMT:exsup4.obj
 0001:0002ed69       @_EH4_TransferToHandler@8  0042fd69 f   LIBCMT:exsup4.obj
 0001:0002ed82       @_EH4_GlobalUnwind2@8      0042fd82 f   LIBCMT:exsup4.obj
 0001:0002ed9b       @_EH4_LocalUnwind@16       0042fd9b f   LIBCMT:exsup4.obj
 0001:0002edb2       __isdigit_l                0042fdb2 f i LIBCMT:_ctype.obj
 0001:0002ee04       _isdigit                   0042fe04 f i LIBCMT:_ctype.obj
 0001:0002ee2f       __tolower_l                0042fe2f f   LIBCMT:tolower.obj
 0001:0002ef72       _tolower                   0042ff72 f   LIBCMT:tolower.obj
 0001:0002efa0       _strrchr                   0042ffa0 f   LIBCMT:strrchr.obj
 0001:0002f0d7       ___crt_atoflt_l            004300d7 f   LIBCMT:atodbl.obj
 0001:0002f17b       __atodbl_l                 0043017b f   LIBCMT:atodbl.obj
 0001:0002f209       __atoflt_l                 00430209 f   LIBCMT:atodbl.obj
 0001:0002f230       __alldvrm                  00430230 f   LIBCMT:lldvrm.obj
 0001:0002f310       __aullshr                  00430310 f   LIBCMT:ullshr.obj
 0001:0002f32f       __controlfp_s              0043032f f   LIBCMT:contrlfp.obj
 0001:0002f38c       __fptrap                   0043038c f   LIBCMT:crt0fp.obj
 0001:0002f395       ___initstdio               00430395 f   LIBCMT:_file.obj
 0001:0002f408       ___endstdio                00430408 f   LIBCMT:_file.obj
 0001:0002f42f       __lock_file                0043042f f   LIBCMT:_file.obj
 0001:0002f46e       __lock_file2               0043046e f   LIBCMT:_file.obj
 0001:0002f49e       __unlock_file              0043049e f   LIBCMT:_file.obj
 0001:0002f4d8       __unlock_file2             004304d8 f   LIBCMT:_file.obj
 0001:0002f55f       __ismbblead                0043055f f   LIBCMT:ismbbyte.obj
 0001:0002f575       _wcscat_s                  00430575 f   LIBCMT:wcscat_s.obj
 0001:0002f5e1       _wcscpy_s                  004305e1 f   LIBCMT:wcscpy_s.obj
 0001:0002f63d       _wcslen                    0043063d f   LIBCMT:wcslen.obj
 0001:0002f656       _wcsncpy_s                 00430656 f   LIBCMT:wcsncpy_s.obj
 0001:0002f714       ___crtMessageBoxW          00430714 f   LIBCMT:crtmboxw.obj
 0001:0002f8fa       __ld12tod                  004308fa f   LIBCMT:intrncvt.obj
 0001:0002fe6c       __ld12tof                  00430e6c f   LIBCMT:intrncvt.obj
 0001:000303de       ___strgtold12_l            004313de f   LIBCMT:strgtold.obj
 0001:00030b86       ___free_lconv_mon          00431b86 f   LIBCMT:initmon.obj
 0001:00030c82       ___free_lconv_num          00431c82 f   LIBCMT:initnum.obj
 0001:00030ce9       ___free_lc_time            00431ce9 f   LIBCMT:inittime.obj
 0001:0003126d       ___crtLCMapStringA         0043226d f   LIBCMT:a_map.obj
 0001:000312b3       __freea                    004322b3 f i LIBCMT:a_map.obj
 0001:000313c9       ___crtGetStringTypeA       004323c9 f   LIBCMT:a_str.obj
 0001:00031409       __isleadbyte_l             00432409 f i LIBCMT:_wctype.obj
 0001:00031443       _isleadbyte                00432443 f i LIBCMT:_wctype.obj
 0001:00031454       _GetTableIndexFromLocaleName 00432454 f   LIBCMT:winapinls.obj
 0001:000314a2       ___crtDownlevelLocaleNameToLCID 004324a2 f   LIBCMT:winapinls.obj
 0001:000314cc       ___crtLCMapStringEx        004324cc f   LIBCMT:winapinls.obj
 0001:00031518       ___wcsnicmp_ascii          00432518 f   LIBCMT:winapinls.obj
 0001:00031586       _$I10_OUTPUT               00432586 f   LIBCMT:x10fout.obj
 0001:00031f5a       __matherr                  00432f5a f   LIBCMT:matherr.obj
 0001:00031f5d       __frnd                     00432f5d f   LIBCMT:frnd.obj
 0001:00031f80       __trandisp1                00432f80 f   LIBCMT:87disp.obj
 0001:00031fe7       __trandisp2                00432fe7 f   LIBCMT:87disp.obj
 0001:00032073       __rttospopde               00433073     LIBCMT:87disp.obj
 0001:00032078       __rttospop                 00433078     LIBCMT:87disp.obj
 0001:0003207a       __rtnospop                 0043307a     LIBCMT:87disp.obj
 0001:0003207c       __rttosnpop                0043307c     LIBCMT:87disp.obj
 0001:0003207d       __rtnospopde               0043307d     LIBCMT:87disp.obj
 0001:00032084       __rtzeropop                00433084     LIBCMT:87disp.obj
 0001:00032086       __rtzeronpop               00433086     LIBCMT:87disp.obj
 0001:0003208b       __rtonepop                 0043308b     LIBCMT:87disp.obj
 0001:0003208d       __rtonenpop                0043308d     LIBCMT:87disp.obj
 0001:00032092       __tosnan1                  00433092     LIBCMT:87disp.obj
 0001:000320bd       __nosnan2                  004330bd     LIBCMT:87disp.obj
 0001:000320bf       __tosnan2                  004330bf     LIBCMT:87disp.obj
 0001:000320e7       __nan2                     004330e7     LIBCMT:87disp.obj
 0001:00032126       __rtindfpop                00433126     LIBCMT:87disp.obj
 0001:00032128       __rtindfnpop               00433128     LIBCMT:87disp.obj
 0001:00032139       __rttosnpopde              00433139     LIBCMT:87disp.obj
 0001:00032143       __rtchsifneg               00433143     LIBCMT:87disp.obj
 0001:00032150       __startTwoArgErrorHandling 00433150 f   LIBCMT:genexcep.obj
 0001:00032167       __startOneArgErrorHandling 00433167 f   LIBCMT:genexcep.obj
 0001:000321b0       __twoToTOS                 004331b0 f   LIBCMT:common.obj
 0001:000321c5       __load_CW                  004331c5 f   LIBCMT:common.obj
 0001:000321dc       __convertTOStoQNaN         004331dc f   LIBCMT:common.obj
 0001:000321f5       __fload_withFB             004331f5 f   LIBCMT:common.obj
 0001:00032238       __checkTOS_withFB          00433238 f   LIBCMT:common.obj
 0001:0003224e       __fast_exit                0043324e f   LIBCMT:common.obj
 0001:0003225b       __math_exit                0043325b f   LIBCMT:common.obj
 0001:00032285       __check_overflow_exit      00433285 f   LIBCMT:common.obj
 0001:00032299       __check_range_exit         00433299 f   LIBCMT:common.obj
 0001:0003233c       _abort                     0043333c f   LIBCMT:abort.obj
 0001:0003237f       __fileno                   0043337f f   LIBCMT:fileno.obj
 0001:000323a3       __isatty                   004333a3 f   LIBCMT:isatty.obj
 0001:000323f7       __fflush_nolock            004333f7 f   LIBCMT:fflush.obj
 0001:0003243d       __flush                    0043343d f   LIBCMT:fflush.obj
 0001:000324a1       __flushall                 004334a1 f   LIBCMT:fflush.obj
 0001:00032590       __global_unwind2           00433590 f   LIBCMT:exsup.obj
 0001:000325f5       __local_unwind2            004335f5 f   LIBCMT:exsup.obj
 0001:00032679       __abnormal_termination     00433679 f   LIBCMT:exsup.obj
 0001:0003269c       __NLG_Notify1              0043369c f   LIBCMT:exsup.obj
 0001:000326a5       __NLG_Notify               004336a5 f   LIBCMT:exsup.obj
 0001:000326bc       __NLG_Dispatch2            004336bc     LIBCMT:exsup.obj
 0001:000326bc       __NLG_Dispatch             004336bc     LIBCMT:exsup.obj
 0001:000326c4       __NLG_Call                 004336c4 f   LIBCMT:exsup.obj
 0001:000326c6       __NLG_Return2              004336c6     LIBCMT:exsup.obj
 0001:000326d0       __aulldvrm                 004336d0 f   LIBCMT:ulldvrm.obj
 0001:0003280e       __control87                0043380e f i LIBCMT:ieee87.obj
 0001:00032ba7       __fcloseall                00433ba7 f   LIBCMT:closeall.obj
 0001:00032c44       ___mtold12                 00433c44 f   LIBCMT:mantold.obj
 0001:00032e30       __alloca_probe_16          00433e30 f   LIBCMT:alloca16.obj
 0001:00032e46       __alloca_probe_8           00433e46     LIBCMT:alloca16.obj
 0001:00032e5c       __87except                 00433e5c f   LIBCMT:87except.obj
 0001:00032f65       __commit                   00433f65 f   LIBCMT:commit.obj
 0001:0003304e       __write                    0043404e f   LIBCMT:write.obj
 0001:0003313d       __write_nolock             0043413d f   LIBCMT:write.obj
 0001:000339a2       __fclose_nolock            004349a2 f   LIBCMT:fclose.obj
 0001:00033a0e       _fclose                    00434a0e f   LIBCMT:fclose.obj
 0001:00033a85       ___lock_fhandle            00434a85 f   LIBCMT:osfinfo.obj
 0001:00033b13       __free_osfhnd              00434b13 f   LIBCMT:osfinfo.obj
 0001:00033b99       __get_osfhandle            00434b99 f   LIBCMT:osfinfo.obj
 0001:00033c00       __unlock_fhandle           00434c00 f   LIBCMT:osfinfo.obj
 0001:00033c26       __lseeki64_nolock          00434c26 f   LIBCMT:lseeki64.obj
 0001:00033c99       __mbtowc_l                 00434c99 f   LIBCMT:mbtowc.obj
 0001:00033d8e       _mbtowc                    00434d8e f   LIBCMT:mbtowc.obj
 0001:00033da6       __putwch_nolock            00434da6 f   LIBCMT:putwch.obj
 0001:00033de9       __close                    00434de9 f   LIBCMT:close.obj
 0001:00033ec4       __close_nolock             00434ec4 f   LIBCMT:close.obj
 0001:00033f5e       __freebuf                  00434f5e f   LIBCMT:_freebuf.obj
 0001:00033f8e       ___termconout              00434f8e f   LIBCMT:initcon.obj
 0001:00033fa5       ___initconout              00434fa5 f   LIBCMT:initcon.obj
 0001:00033fc4       _IsProcessorFeaturePresent@4 00434fc4 f   kernel32:KERNEL32.dll
 0001:00033fca       _RtlUnwind@16              00434fca f   kernel32:KERNEL32.dll
 0001:00033fd0       _DdeInitializeA@16         00434fd0 f   user32:USER32.dll
 0001:00033fd6       _DdeUninitialize@4         00434fd6 f   user32:USER32.dll
 0001:00033fdc       _DdeConnect@16             00434fdc f   user32:USER32.dll
 0001:00033fe2       _DdeDisconnect@4           00434fe2 f   user32:USER32.dll
 0001:00033fe8       _DdeClientTransaction@32   00434fe8 f   user32:USER32.dll
 0001:00033fee       _DdeGetLastError@4         00434fee f   user32:USER32.dll
 0001:00033ff4       _DdeCreateStringHandleA@12 00434ff4 f   user32:USER32.dll
 0001:00033ffa       _DdeFreeStringHandle@8     00434ffa f   user32:USER32.dll
 0001:00034000       _DdeCmpStringHandles@8     00435000 f   user32:USER32.dll
 0002:00000000       __imp__InitCommonControls@0 00436000     comctl32:COMCTL32.dll
 0002:00000004       \177COMCTL32_NULL_THUNK_DATA 00436004     comctl32:COMCTL32.dll
 0002:00000008       __imp__SetBkColor@8        00436008     gdi32:GDI32.dll
 0002:0000000c       __imp__SelectObject@8      0043600c     gdi32:GDI32.dll
 0002:00000010       __imp__LineTo@12           00436010     gdi32:GDI32.dll
 0002:00000014       __imp__DeleteObject@4      00436014     gdi32:GDI32.dll
 0002:00000018       __imp__CreateSolidBrush@4  00436018     gdi32:GDI32.dll
 0002:0000001c       __imp__CreatePen@12        0043601c     gdi32:GDI32.dll
 0002:00000020       __imp__MoveToEx@16         00436020     gdi32:GDI32.dll
 0002:00000024       __imp__CreateFontIndirectA@4 00436024     gdi32:GDI32.dll
 0002:00000028       __imp__GetStockObject@4    00436028     gdi32:GDI32.dll
 0002:0000002c       __imp__Ellipse@20          0043602c     gdi32:GDI32.dll
 0002:00000030       __imp__GetBkMode@4         00436030     gdi32:GDI32.dll
 0002:00000034       __imp__SetBkMode@8         00436034     gdi32:GDI32.dll
 0002:00000038       __imp__SetTextColor@8      00436038     gdi32:GDI32.dll
 0002:0000003c       __imp__SetTextAlign@8      0043603c     gdi32:GDI32.dll
 0002:00000040       __imp__TextOutA@20         00436040     gdi32:GDI32.dll
 0002:00000044       __imp__GetTextExtentPoint32A@16 00436044     gdi32:GDI32.dll
 0002:00000048       __imp__GetTextMetricsA@8   00436048     gdi32:GDI32.dll
 0002:0000004c       \177GDI32_NULL_THUNK_DATA  0043604c     gdi32:GDI32.dll
 0002:00000050       __imp__CreateEventA@16     00436050     kernel32:KERNEL32.dll
 0002:00000054       __imp__SystemTimeToFileTime@8 00436054     kernel32:KERNEL32.dll
 0002:00000058       __imp__GetLocalTime@4      00436058     kernel32:KERNEL32.dll
 0002:0000005c       __imp__lstrcmpA@8          0043605c     kernel32:KERNEL32.dll
 0002:00000060       __imp__SetCommState@8      00436060     kernel32:KERNEL32.dll
 0002:00000064       __imp__GetCommState@8      00436064     kernel32:KERNEL32.dll
 0002:00000068       __imp__WriteFile@20        00436068     kernel32:KERNEL32.dll
 0002:0000006c       __imp__CreateFileA@28      0043606c     kernel32:KERNEL32.dll
 0002:00000070       __imp__FileTimeToSystemTime@8 00436070     kernel32:KERNEL32.dll
 0002:00000074       __imp__lstrcpynA@12        00436074     kernel32:KERNEL32.dll
 0002:00000078       __imp__GetTickCount@0      00436078     kernel32:KERNEL32.dll
 0002:0000007c       __imp__CreateFileW@28      0043607c     kernel32:KERNEL32.dll
 0002:00000080       __imp__WriteConsoleW@20    00436080     kernel32:KERNEL32.dll
 0002:00000084       __imp__WaitForSingleObject@8 00436084     kernel32:KERNEL32.dll
 0002:00000088       __imp__SetStdHandle@8      00436088     kernel32:KERNEL32.dll
 0002:0000008c       __imp__GetConsoleMode@8    0043608c     kernel32:KERNEL32.dll
 0002:00000090       __imp__GetConsoleCP@0      00436090     kernel32:KERNEL32.dll
 0002:00000094       __imp__FlushFileBuffers@4  00436094     kernel32:KERNEL32.dll
 0002:00000098       __imp__LCMapStringW@24     00436098     kernel32:KERNEL32.dll
 0002:0000009c       __imp__GetStringTypeW@16   0043609c     kernel32:KERNEL32.dll
 0002:000000a0       __imp__OutputDebugStringW@4 004360a0     kernel32:KERNEL32.dll
 0002:000000a4       __imp__RtlUnwind@16        004360a4     kernel32:KERNEL32.dll
 0002:000000a8       __imp__HeapReAlloc@16      004360a8     kernel32:KERNEL32.dll
 0002:000000ac       __imp__LoadLibraryExW@12   004360ac     kernel32:KERNEL32.dll
 0002:000000b0       __imp__GetCPInfo@8         004360b0     kernel32:KERNEL32.dll
 0002:000000b4       __imp__GetOEMCP@0          004360b4     kernel32:KERNEL32.dll
 0002:000000b8       __imp__GetACP@0            004360b8     kernel32:KERNEL32.dll
 0002:000000bc       __imp__IsValidCodePage@4   004360bc     kernel32:KERNEL32.dll
 0002:000000c0       __imp__FreeEnvironmentStringsW@4 004360c0     kernel32:KERNEL32.dll
 0002:000000c4       __imp__GetEnvironmentStringsW@0 004360c4     kernel32:KERNEL32.dll
 0002:000000c8       __imp__ResetEvent@4        004360c8     kernel32:KERNEL32.dll
 0002:000000cc       __imp__MoveFileA@8         004360cc     kernel32:KERNEL32.dll
 0002:000000d0       __imp__lstrlenA@4          004360d0     kernel32:KERNEL32.dll
 0002:000000d4       __imp__lstrcpyA@8          004360d4     kernel32:KERNEL32.dll
 0002:000000d8       __imp__WinExec@8           004360d8     kernel32:KERNEL32.dll
 0002:000000dc       __imp__CreateProcessA@40   004360dc     kernel32:KERNEL32.dll
 0002:000000e0       __imp__SetEvent@4          004360e0     kernel32:KERNEL32.dll
 0002:000000e4       __imp__Sleep@4             004360e4     kernel32:KERNEL32.dll
 0002:000000e8       __imp__CloseHandle@4       004360e8     kernel32:KERNEL32.dll
 0002:000000ec       __imp__SetFilePointerEx@20 004360ec     kernel32:KERNEL32.dll
 0002:000000f0       __imp__GetSystemTimeAsFileTime@4 004360f0     kernel32:KERNEL32.dll
 0002:000000f4       __imp__GetCurrentProcessId@0 004360f4     kernel32:KERNEL32.dll
 0002:000000f8       __imp__QueryPerformanceCounter@4 004360f8     kernel32:KERNEL32.dll
 0002:000000fc       __imp__GetModuleFileNameW@12 004360fc     kernel32:KERNEL32.dll
 0002:00000100       __imp__GetFileType@4       00436100     kernel32:KERNEL32.dll
 0002:00000104       __imp__GetStdHandle@4      00436104     kernel32:KERNEL32.dll
 0002:00000108       __imp__GetProcessHeap@0    00436108     kernel32:KERNEL32.dll
 0002:0000010c       __imp__GetModuleHandleW@4  0043610c     kernel32:KERNEL32.dll
 0002:00000110       __imp__GetStartupInfoW@4   00436110     kernel32:KERNEL32.dll
 0002:00000114       __imp__TlsFree@4           00436114     kernel32:KERNEL32.dll
 0002:00000118       __imp__TlsSetValue@8       00436118     kernel32:KERNEL32.dll
 0002:0000011c       __imp__TlsGetValue@4       0043611c     kernel32:KERNEL32.dll
 0002:00000120       __imp__TlsAlloc@0          00436120     kernel32:KERNEL32.dll
 0002:00000124       __imp__FindClose@4         00436124     kernel32:KERNEL32.dll
 0002:00000128       __imp__FindFirstFileA@8    00436128     kernel32:KERNEL32.dll
 0002:0000012c       __imp__GetDriveTypeA@4     0043612c     kernel32:KERNEL32.dll
 0002:00000130       __imp__GetFileAttributesA@4 00436130     kernel32:KERNEL32.dll
 0002:00000134       __imp__SetErrorMode@4      00436134     kernel32:KERNEL32.dll
 0002:00000138       __imp__lstrcmpiA@8         00436138     kernel32:KERNEL32.dll
 0002:0000013c       __imp__lstrcatA@8          0043613c     kernel32:KERNEL32.dll
 0002:00000140       __imp__CopyFileA@12        00436140     kernel32:KERNEL32.dll
 0002:00000144       __imp__GetFileSize@8       00436144     kernel32:KERNEL32.dll
 0002:00000148       __imp__LockFile@20         00436148     kernel32:KERNEL32.dll
 0002:0000014c       __imp__ReadFile@20         0043614c     kernel32:KERNEL32.dll
 0002:00000150       __imp__SetEndOfFile@4      00436150     kernel32:KERNEL32.dll
 0002:00000154       __imp__SetFilePointer@16   00436154     kernel32:KERNEL32.dll
 0002:00000158       __imp__UnlockFile@20       00436158     kernel32:KERNEL32.dll
 0002:0000015c       __imp__GetLastError@0      0043615c     kernel32:KERNEL32.dll
 0002:00000160       __imp__GetFileTime@16      00436160     kernel32:KERNEL32.dll
 0002:00000164       __imp__InitializeCriticalSection@4 00436164     kernel32:KERNEL32.dll
 0002:00000168       __imp__EnterCriticalSection@4 00436168     kernel32:KERNEL32.dll
 0002:0000016c       __imp__LeaveCriticalSection@4 0043616c     kernel32:KERNEL32.dll
 0002:00000170       __imp__DeleteCriticalSection@4 00436170     kernel32:KERNEL32.dll
 0002:00000174       __imp__GetPrivateProfileStringA@24 00436174     kernel32:KERNEL32.dll
 0002:00000178       __imp__WritePrivateProfileStringA@16 00436178     kernel32:KERNEL32.dll
 0002:0000017c       __imp__GetModuleFileNameA@12 0043617c     kernel32:KERNEL32.dll
 0002:00000180       __imp__GetDiskFreeSpaceExA@16 00436180     kernel32:KERNEL32.dll
 0002:00000184       __imp__FindNextFileA@8     00436184     kernel32:KERNEL32.dll
 0002:00000188       __imp__CreateDirectoryA@8  00436188     kernel32:KERNEL32.dll
 0002:0000018c       __imp__EncodePointer@4     0043618c     kernel32:KERNEL32.dll
 0002:00000190       __imp__DecodePointer@4     00436190     kernel32:KERNEL32.dll
 0002:00000194       __imp__CreateThread@24     00436194     kernel32:KERNEL32.dll
 0002:00000198       __imp__ExitThread@4        00436198     kernel32:KERNEL32.dll
 0002:0000019c       __imp__ResumeThread@4      0043619c     kernel32:KERNEL32.dll
 0002:000001a0       __imp__IsDebuggerPresent@0 004361a0     kernel32:KERNEL32.dll
 0002:000001a4       __imp__IsProcessorFeaturePresent@4 004361a4     kernel32:KERNEL32.dll
 0002:000001a8       __imp__GetCommandLineA@0   004361a8     kernel32:KERNEL32.dll
 0002:000001ac       __imp__HeapAlloc@12        004361ac     kernel32:KERNEL32.dll
 0002:000001b0       __imp__RaiseException@16   004361b0     kernel32:KERNEL32.dll
 0002:000001b4       __imp__HeapFree@12         004361b4     kernel32:KERNEL32.dll
 0002:000001b8       __imp__ExitProcess@4       004361b8     kernel32:KERNEL32.dll
 0002:000001bc       __imp__GetModuleHandleExW@12 004361bc     kernel32:KERNEL32.dll
 0002:000001c0       __imp__GetProcAddress@8    004361c0     kernel32:KERNEL32.dll
 0002:000001c4       __imp__MultiByteToWideChar@24 004361c4     kernel32:KERNEL32.dll
 0002:000001c8       __imp__WideCharToMultiByte@32 004361c8     kernel32:KERNEL32.dll
 0002:000001cc       __imp__HeapSize@12         004361cc     kernel32:KERNEL32.dll
 0002:000001d0       __imp__SetLastError@4      004361d0     kernel32:KERNEL32.dll
 0002:000001d4       __imp__GetCurrentThreadId@0 004361d4     kernel32:KERNEL32.dll
 0002:000001d8       __imp__UnhandledExceptionFilter@4 004361d8     kernel32:KERNEL32.dll
 0002:000001dc       __imp__SetUnhandledExceptionFilter@4 004361dc     kernel32:KERNEL32.dll
 0002:000001e0       __imp__InitializeCriticalSectionAndSpinCount@8 004361e0     kernel32:KERNEL32.dll
 0002:000001e4       __imp__GetCurrentProcess@0 004361e4     kernel32:KERNEL32.dll
 0002:000001e8       __imp__TerminateProcess@8  004361e8     kernel32:KERNEL32.dll
 0002:000001ec       __imp__DeleteFileA@4       004361ec     kernel32:KERNEL32.dll
 0002:000001f0       \177KERNEL32_NULL_THUNK_DATA 004361f0     kernel32:KERNEL32.dll
 0002:000001f4       __imp__GetMessageA@16      004361f4     user32:USER32.dll
 0002:000001f8       __imp__TranslateMessage@4  004361f8     user32:USER32.dll
 0002:000001fc       __imp__DispatchMessageA@4  004361fc     user32:USER32.dll
 0002:00000200       __imp__SendMessageA@16     00436200     user32:USER32.dll
 0002:00000204       __imp__PostMessageA@16     00436204     user32:USER32.dll
 0002:00000208       __imp__DefWindowProcA@16   00436208     user32:USER32.dll
 0002:0000020c       __imp__PostQuitMessage@4   0043620c     user32:USER32.dll
 0002:00000210       __imp__CallWindowProcA@20  00436210     user32:USER32.dll
 0002:00000214       __imp__RegisterClassA@4    00436214     user32:USER32.dll
 0002:00000218       __imp__CreateWindowExA@48  00436218     user32:USER32.dll
 0002:0000021c       __imp__CloseWindow@4       0043621c     user32:USER32.dll
 0002:00000220       __imp__CreateDialogParamA@20 00436220     user32:USER32.dll
 0002:00000224       __imp__SetDlgItemTextA@12  00436224     user32:USER32.dll
 0002:00000228       __imp__GetDesktopWindow@0  00436228     user32:USER32.dll
 0002:0000022c       __imp__IsWindowEnabled@4   0043622c     user32:USER32.dll
 0002:00000230       __imp__GetDlgCtrlID@4      00436230     user32:USER32.dll
 0002:00000234       __imp__SetWindowPos@28     00436234     user32:USER32.dll
 0002:00000238       __imp__DdeGetData@16       00436238     user32:USER32.dll
 0002:0000023c       __imp__SystemParametersInfoA@16 0043623c     user32:USER32.dll
 0002:00000240       __imp__IsDialogMessageA@8  00436240     user32:USER32.dll
 0002:00000244       __imp__LoadIconA@8         00436244     user32:USER32.dll
 0002:00000248       __imp__LoadCursorA@8       00436248     user32:USER32.dll
 0002:0000024c       __imp__SetWindowLongA@12   0043624c     user32:USER32.dll
 0002:00000250       __imp__MessageBoxA@16      00436250     user32:USER32.dll
 0002:00000254       __imp__GetClientRect@8     00436254     user32:USER32.dll
 0002:00000258       __imp__InvalidateRect@12   00436258     user32:USER32.dll
 0002:0000025c       __imp__ReleaseDC@8         0043625c     user32:USER32.dll
 0002:00000260       __imp__GetDC@4             00436260     user32:USER32.dll
 0002:00000264       __imp__UpdateWindow@4      00436264     user32:USER32.dll
 0002:00000268       __imp__EnableMenuItem@12   00436268     user32:USER32.dll
 0002:0000026c       __imp__GetMenu@4           0043626c     user32:USER32.dll
 0002:00000270       __imp__TranslateAcceleratorA@12 00436270     user32:USER32.dll
 0002:00000274       __imp__LoadAcceleratorsA@8 00436274     user32:USER32.dll
 0002:00000278       __imp__KillTimer@8         00436278     user32:USER32.dll
 0002:0000027c       __imp__SetTimer@16         0043627c     user32:USER32.dll
 0002:00000280       __imp__GetFocus@0          00436280     user32:USER32.dll
 0002:00000284       __imp__SetFocus@4          00436284     user32:USER32.dll
 0002:00000288       __imp__CheckRadioButton@16 00436288     user32:USER32.dll
 0002:0000028c       __imp__GetDlgItem@8        0043628c     user32:USER32.dll
 0002:00000290       __imp__EndDialog@8         00436290     user32:USER32.dll
 0002:00000294       __imp__DialogBoxParamA@20  00436294     user32:USER32.dll
 0002:00000298       __imp__CharToOemA@8        00436298     user32:USER32.dll
 0002:0000029c       __imp__GetWindowTextLengthA@4 0043629c     user32:USER32.dll
 0002:000002a0       __imp__wsprintfA           004362a0     user32:USER32.dll
 0002:000002a4       __imp__IsWindowVisible@4   004362a4     user32:USER32.dll
 0002:000002a8       __imp__GetWindowRect@8     004362a8     user32:USER32.dll
 0002:000002ac       __imp__GetWindowLongA@8    004362ac     user32:USER32.dll
 0002:000002b0       __imp__GetParent@4         004362b0     user32:USER32.dll
 0002:000002b4       __imp__MapDialogRect@8     004362b4     user32:USER32.dll
 0002:000002b8       __imp__BeginPaint@8        004362b8     user32:USER32.dll
 0002:000002bc       __imp__EndPaint@8          004362bc     user32:USER32.dll
 0002:000002c0       __imp__FillRect@12         004362c0     user32:USER32.dll
 0002:000002c4       __imp__CharUpperA@4        004362c4     user32:USER32.dll
 0002:000002c8       __imp__DdeInitializeA@16   004362c8     user32:USER32.dll
 0002:000002cc       __imp__DdeUninitialize@4   004362cc     user32:USER32.dll
 0002:000002d0       __imp__DdeConnect@16       004362d0     user32:USER32.dll
 0002:000002d4       __imp__DdeDisconnect@4     004362d4     user32:USER32.dll
 0002:000002d8       __imp__DdeClientTransaction@32 004362d8     user32:USER32.dll
 0002:000002dc       __imp__DdeGetLastError@4   004362dc     user32:USER32.dll
 0002:000002e0       __imp__DdeCreateStringHandleA@12 004362e0     user32:USER32.dll
 0002:000002e4       __imp__DdeFreeStringHandle@8 004362e4     user32:USER32.dll
 0002:000002e8       __imp__DdeCmpStringHandles@8 004362e8     user32:USER32.dll
 0002:000002ec       __imp__LoadStringA@16      004362ec     user32:USER32.dll
 0002:000002f0       __imp__ShowWindow@8        004362f0     user32:USER32.dll
 0002:000002f4       __imp__MoveWindow@24       004362f4     user32:USER32.dll
 0002:000002f8       __imp__IsDlgButtonChecked@8 004362f8     user32:USER32.dll
 0002:000002fc       __imp__SendDlgItemMessageA@20 004362fc     user32:USER32.dll
 0002:00000300       __imp__CheckMenuItem@12    00436300     user32:USER32.dll
 0002:00000304       __imp__SetForegroundWindow@4 00436304     user32:USER32.dll
 0002:00000308       __imp__FindWindowA@8       00436308     user32:USER32.dll
 0002:0000030c       __imp__GetClassNameA@12    0043630c     user32:USER32.dll
 0002:00000310       __imp__IsCharAlphaA@4      00436310     user32:USER32.dll
 0002:00000314       __imp__IsCharAlphaNumericA@4 00436314     user32:USER32.dll
 0002:00000318       __imp__SetCursor@4         00436318     user32:USER32.dll
 0002:0000031c       __imp__DestroyWindow@4     0043631c     user32:USER32.dll
 0002:00000320       __imp__GetUpdateRect@12    00436320     user32:USER32.dll
 0002:00000324       __imp__IsIconic@4          00436324     user32:USER32.dll
 0002:00000328       __imp__EnableWindow@8      00436328     user32:USER32.dll
 0002:0000032c       __imp__ScreenToClient@8    0043632c     user32:USER32.dll
 0002:00000330       __imp__SetCapture@4        00436330     user32:USER32.dll
 0002:00000334       __imp__ReleaseCapture@0    00436334     user32:USER32.dll
 0002:00000338       __imp__GetSystemMetrics@4  00436338     user32:USER32.dll
 0002:0000033c       __imp__ClientToScreen@8    0043633c     user32:USER32.dll
 0002:00000340       \177USER32_NULL_THUNK_DATA 00436340     user32:USER32.dll
 0002:00000344       __imp__bind@12             00436344     wsock32:WSOCK32.dll
 0002:00000348       __imp__closesocket@4       00436348     wsock32:WSOCK32.dll
 0002:0000034c       __imp__htonl@4             0043634c     wsock32:WSOCK32.dll
 0002:00000350       __imp__htons@4             00436350     wsock32:WSOCK32.dll
 0002:00000354       __imp__inet_addr@4         00436354     wsock32:WSOCK32.dll
 0002:00000358       __imp__recvfrom@24         00436358     wsock32:WSOCK32.dll
 0002:0000035c       __imp__sendto@24           0043635c     wsock32:WSOCK32.dll
 0002:00000360       __imp__socket@12           00436360     wsock32:WSOCK32.dll
 0002:00000364       __imp__gethostbyname@4     00436364     wsock32:WSOCK32.dll
 0002:00000368       __imp__gethostname@8       00436368     wsock32:WSOCK32.dll
 0002:0000036c       __imp__WSAStartup@8        0043636c     wsock32:WSOCK32.dll
 0002:00000370       __imp__WSACleanup@0        00436370     wsock32:WSOCK32.dll
 0002:00000374       __imp__WSAGetLastError@0   00436374     wsock32:WSOCK32.dll
 0002:00000378       \177WSOCK32_NULL_THUNK_DATA 00436378     wsock32:WSOCK32.dll
 0002:0000037c       ___xc_a                    0043637c     LIBCMT:crt0init.obj
 0002:00000520       ___xc_z                    00436520     LIBCMT:crt0init.obj
 0002:00000524       ___xi_a                    00436524     LIBCMT:crt0init.obj
 0002:00000540       ___xi_z                    00436540     LIBCMT:crt0init.obj
 0002:00000544       ___xp_a                    00436544     LIBCMT:crt0init.obj
 0002:00000554       ___xp_z                    00436554     LIBCMT:crt0init.obj
 0002:00000558       ___xt_a                    00436558     LIBCMT:crt0init.obj
 0002:0000055c       ___xt_z                    0043655c     LIBCMT:crt0init.obj
 0002:00000560       ??_C@_08JOACKOGI@F2_RADIO?$AA@ 00436560     ft2.obj
 0002:0000056c       ??_C@_08FCKIKOPG@F3_RADIO?$AA@ 0043656c     ft2.obj
 0002:00000578       ??_C@_08FIGNKHOP@F4_RADIO?$AA@ 00436578     ft2.obj
 0002:00000584       ??_C@_08JEMHKHHB@F5_RADIO?$AA@ 00436584     ft2.obj
 0002:00000590       ??_C@_08BKEIKAJC@F6_RADIO?$AA@ 00436590     ft2.obj
 0002:0000059c       ??_C@_08NGOCKAAM@F7_RADIO?$AA@ 0043659c     ft2.obj
 0002:000005a8       ??_C@_08PMCLCKA@F8_RADIO?$AA@ 004365a8     ft2.obj
 0002:000005b4       ??_C@_08MDGILCDO@F9_RADIO?$AA@ 004365b4     ft2.obj
 0002:000005c0       ??_C@_09NOMCAMDG@F10_RADIO?$AA@ 004365c0     ft2.obj
 0002:00000614       ??_C@_0M@DCDNPFEC@CONTROL?4MSG?$AA@ 00436614     ft2.obj
 0002:00000620       ??_C@_0BA@PDOCLGPK@Ftii_boards?4txt?$AA@ 00436620     ft2.obj
 0002:00000630       ??_C@_0BJ@BHJCMMBN@ftii_ctrl_prog_steps?4txt?$AA@ 00436630     ft2.obj
 0002:0000064c       ??_C@_0BJ@ODAJNKFO@ftii_editor_settings?4ini?$AA@ 0043664c     ft2.obj
 0002:00000668       ??_C@_0BJ@FCFIGOKK@ftii_global_settings?4txt?$AA@ 00436668     ft2.obj
 0002:00000684       ??_C@_0BK@ONGPLMIH@ftii_machine_settings?4txt?$AA@ 00436684     ft2.obj
 0002:000006a0       ??_C@_0BC@IGICNJIO@machine_setup?4csv?$AA@ 004366a0     ft2.obj
 0002:000006b4       ??_C@_0M@NNLGJFNF@VALRESP?4SAV?$AA@ 004366b4     ft2.obj
 0002:000006c4       ??_7WINDOW_CLASS@@6B@      004366c4     ft2.obj
 0002:000006cc       ??_7FTII_VAR@@6B@          004366cc     ft2.obj
 0002:000006f8       ??_7FTII_VAR_ARRAY@@6B@    004366f8     ft2.obj
 0002:00000720       ??_C@_0BK@JIAPIBOO@UNABLE_TO_CONTINUE_STRING?$AA@ 00436720     ft2.obj
 0002:0000073c       ??_C@_0BM@PBENDPAN@MONITOR_WINDOW_TITLE_STRING?$AA@ 0043673c     ft2.obj
 0002:00000758       ??_C@_0BG@PGFHPJLI@LOW_DISK_SPACE_STRING?$AA@ 00436758     ft2.obj
 0002:00000770       ??_C@_0BG@GCNPIHIN@NO_SHOTS_SAVED_STRING?$AA@ 00436770     ft2.obj
 0002:00000788       ??_C@_0CA@BOPDHHEN@BOARD_MONITOR_EVENT_FAIL_STRING?$AA@ 00436788     ft2.obj
 0002:000007a8       ??_C@_0BM@FEKAFLOA@BOARD_MONITOR_THREAD_STRING?$AA@ 004367a8     ft2.obj
 0002:000007c4       ??_C@_0BP@MBLJONOD@BOARD_MONITOR_WAIT_FAIL_STRING?$AA@ 004367c4     ft2.obj
 0002:000007e4       ??_C@_0BF@IEECDOLF@CREATE_FAILED_STRING?$AA@ 004367e4     ft2.obj
 0002:000007fc       ??_C@_0BF@LKCBEKFP@NOT_CONNECTED_STRING?$AA@ 004367fc     ft2.obj
 0002:00000814       ??_C@_0BB@IJPALNMP@CONNECTED_STRING?$AA@ 00436814     ft2.obj
 0002:00000828       ??_C@_0BG@NIBEJHLI@CONTROL_ACTIVE_STRING?$AA@ 00436828     ft2.obj
 0002:00000840       ??_C@_0BF@KBHOFJJK@CONTROL_FATAL_STRING?$AA@ 00436840     ft2.obj
 0002:00000858       ??_C@_0BH@DKEAAJED@CONTROL_WARNING_STRING?$AA@ 00436858     ft2.obj
 0002:00000870       ??_C@_06CANJFOLG@SAVING?$AA@ 00436870     ft2.obj
 0002:00000878       ??_C@_0BC@GGGJBMFJ@NO_PROGRAM_STRING?$AA@ 00436878     ft2.obj
 0002:0000088c       ??_C@_0P@PMPJEMAO@UNKNOWN_STRING?$AA@ 0043688c     ft2.obj
 0002:0000089c       ??_C@_0BG@GHIHBFEF@STACK_OVERFLOW_STRING?$AA@ 0043689c     ft2.obj
 0002:000008b4       ??_C@_0BF@FMHMEAGO@BLOCK_TIMEOUT_STRING?$AA@ 004368b4     ft2.obj
 0002:000008cc       ??_C@_0BF@KMKNCACM@INVALID_BLOCK_STRING?$AA@ 004368cc     ft2.obj
 0002:000008e4       ??_C@_0BN@CHEJIGDH@BLOCK_EXECUTION_ERROR_STRING?$AA@ 004368e4     ft2.obj
 0002:00000904       ??_C@_0BP@NBEKDMJH@PROGRAM_STOPPED_BY_USER_STRING?$AA@ 00436904     ft2.obj
 0002:00000924       ??_C@_0BI@GFJHLFMO@TEST_FATAL_ERROR_STRING?$AA@ 00436924     ft2.obj
 0002:0000093c       ??_C@_0BO@NALGKLEG@VAC_ABORT_POS_TOO_LONG_STRING?$AA@ 0043693c     ft2.obj
 0002:0000095c       ??_C@_0BN@BLJGAMFP@BLOCK_TIMEOUT_WARNING_STRING?$AA@ 0043695c     ft2.obj
 0002:0000097c       ??_C@_0BH@JIHFNNKD@FILL_TEST_ABORT_STRING?$AA@ 0043697c     ft2.obj
 0002:00000994       ??_C@_0CB@OHKDLIGG@MASTER_ENABLE_DROPPED_OUT_STRING@ 00436994     ft2.obj
 0002:000009b8       ??_C@_0BI@BPIKLEJG@VAC_ABORT_ZSPEED_STRING?$AA@ 004369b8     ft2.obj
 0002:000009d0       ??_C@_0BE@JPIHKPPB@TEST_WARNING_STRING?$AA@ 004369d0     ft2.obj
 0002:000009e4       ??_C@_0BK@FHPCKNPE@SHOTSAVE_WAIT_FAIL_STRING?$AA@ 004369e4     ft2.obj
 0002:00000a00       ??_C@_0BL@JNLGLJMK@SHOTSAVE_EVENT_FAIL_STRING?$AA@ 00436a00     ft2.obj
 0002:00000a1c       ??_C@_0BH@FAFJGJBO@SHOTSAVE_THREAD_STRING?$AA@ 00436a1c     ft2.obj
 0002:00000a34       ??_C@_0BI@DPCADGKG@UNABLE_TO_COMPLY_STRING?$AA@ 00436a34     ft2.obj
 0002:00000a4c       ??_C@_0BI@LKIBIMHA@N0_NEW_AUTO_NULL_STRING?$AA@ 00436a4c     ft2.obj
 0002:00000a64       ??_C@_0BG@PKLHGHDP@MANUAL_NULLING_STRING?$AA@ 00436a64     ft2.obj
 0002:00000a7c       ??_C@_0BH@DOAGDAGO@AUTO_NULL_BEGIN_STRING?$AA@ 00436a7c     ft2.obj
 0002:00000a94       ??_C@_0BG@NBBPLPFO@AUTO_NULL_FAIL_STRING?$AA@ 00436a94     ft2.obj
 0002:00000aac       ??_C@_0BJ@JBLJKHGK@AUTO_NULL_SUCCESS_STRING?$AA@ 00436aac     ft2.obj
 0002:00000ac8       ??_C@_0BJ@KFODEHKM@NULL_ALREADY_GOOD_STRING?$AA@ 00436ac8     ft2.obj
 0002:00000ae4       ??_C@_0BL@ODDHPLCH@UNUSABLE_NULL_LEVEL_STRING?$AA@ 00436ae4     ft2.obj
 0002:00000b00       ??_C@_0BF@BKOGOAJE@NOT_MONITORED_STRING?$AA@ 00436b00     ft2.obj
 0002:00000b18       ??_C@_0BC@HPCNHJEA@CONNECTING_STRING?$AA@ 00436b18     ft2.obj
 0002:00000b2c       ??_C@_0BI@FJMJPHMI@NO_MASTER_ENABLE_STRING?$AA@ 00436b2c     ft2.obj
 0002:00000b44       ??_C@_0BC@CBFKLDBD@NO_CONNECT_STRING?$AA@ 00436b44     ft2.obj
 0002:00000b58       ??_C@_0BF@IPHCCGKF@DISCONNECTING_STRING?$AA@ 00436b58     ft2.obj
 0002:00000b70       ??_C@_0BG@NKBBOJGJ@NO_WARMUP_PART_STRING?$AA@ 00436b70     ft2.obj
 0002:00000b88       ??_C@_0BG@DCJOJCHJ@CANT_OPEN_FILE_STRING?$AA@ 00436b88     ft2.obj
 0002:00000ba0       ??_C@_0BB@ILANLPLJ@NEW_SETUP_STRING?$AA@ 00436ba0     ft2.obj
 0002:00000bb4       ??_C@_0BE@IALFJBO@NAK_RECEIVED_STRING?$AA@ 00436bb4     ft2.obj
 0002:00000bc8       ??_C@_0BD@EGHKEENN@UPLOAD_FAIL_STRING?$AA@ 00436bc8     ft2.obj
 0002:00000bdc       ??_C@_0BA@NCPDBEBN@REPEATED_STRING?$AA@ 00436bdc     ft2.obj
 0002:00000bec       ??_C@_0P@PBMBPKJJ@MISSING_STRING?$AA@ 00436bec     ft2.obj
 0002:00000bfc       ??_C@_0O@OEDKIIAL@PACKET_STRING?$AA@ 00436bfc     ft2.obj
 0002:00000c0c       ??_C@_0BD@LBKCFIPG@SAVING_SHOT_STRING?$AA@ 00436c0c     ft2.obj
 0002:00000c20       ??_C@_0N@HCMMHMK@READY_STRING?$AA@ 00436c20     ft2.obj
 0002:00000c30       ??_C@_0BE@CNJGBHKN@PACKET_ERROR_STRING?$AA@ 00436c30     ft2.obj
 0002:00000c44       ??_C@_0BE@IPAKHOFA@BEGIN_UPLOAD_STRING?$AA@ 00436c44     ft2.obj
 0002:00000c58       ??_C@_0BH@OEPBDNGH@UPLOAD_COMPLETE_STRING?$AA@ 00436c58     ft2.obj
 0002:00000c70       ??_C@_0BD@MOJENJAC@CYCLE_START_STRING?$AA@ 00436c70     ft2.obj
 0002:00000c84       ??_C@_0P@MMKDFOCH@TIMEOUT_STRING?$AA@ 00436c84     ft2.obj
 0002:00000c94       ??_C@_0BK@NIBFOECM@ZERO_STROKE_LENGTH_STRING?$AA@ 00436c94     ft2.obj
 0002:00000cb0       ??_C@_09NEDLJIE@ON_STRING?$AA@ 00436cb0     ft2.obj
 0002:00000cbc       ??_C@_0L@IHDDAEOF@OFF_STRING?$AA@ 00436cbc     ft2.obj
 0002:00000cc8       ??_C@_0BG@NELLEGIC@NO_UPLOAD_FILE_STRING?$AA@ 00436cc8     ft2.obj
 0002:00000ce0       ??_C@_0BI@IPKHNMEP@CONTROL_INPUT_18_STRING?$AA@ 00436ce0     ft2.obj
 0002:00000cf8       ??_C@_0BI@JINMMIAM@CONTROL_INPUT_19_STRING?$AA@ 00436cf8     ft2.obj
 0002:00000d10       ??_C@_0BI@NPEIMFFE@CONTROL_INPUT_20_STRING?$AA@ 00436d10     ft2.obj
 0002:00000d28       ??_C@_0BI@MIDDNBBH@CONTROL_INPUT_21_STRING?$AA@ 00436d28     ft2.obj
 0002:00000d40       ??_C@_0BI@PBLOONNC@CONTROL_INPUT_22_STRING?$AA@ 00436d40     ft2.obj
 0002:00000d58       ??_C@_0BI@OGMFPJJB@CONTROL_INPUT_23_STRING?$AA@ 00436d58     ft2.obj
 0002:00000d70       ??_C@_0BI@ICKEJEFI@CONTROL_INPUT_24_STRING?$AA@ 00436d70     ft2.obj
 0002:00000d88       ??_C@_0BI@JFNPIABL@CONTROL_INPUT_25_STRING?$AA@ 00436d88     ft2.obj
 0002:00000da0       ??_C@_0BI@KMFCLMNO@CONTROL_INPUT_26_STRING?$AA@ 00436da0     ft2.obj
 0002:00000db8       ??_C@_0BI@LLCJKIJN@CONTROL_INPUT_27_STRING?$AA@ 00436db8     ft2.obj
 0002:00000dd0       ??_C@_0BI@GEJAGHEM@CONTROL_INPUT_28_STRING?$AA@ 00436dd0     ft2.obj
 0002:00000de8       ??_C@_0BI@HDOLHDAP@CONTROL_INPUT_29_STRING?$AA@ 00436de8     ft2.obj
 0002:00000e00       ??_C@_0BB@LGFJJFGM@RESTARTED_STRING?$AA@ 00436e00     ft2.obj
 0002:00000e14       ??_C@_0BN@KNMOGJNN@SHUTTING_DOWN_MONITOR_STRING?$AA@ 00436e14     ft2.obj
 0002:00000e34       ??_C@_0BO@KDPLJOFK@SHUTTING_DOWN_SHOTSAVE_STRING?$AA@ 00436e34     ft2.obj
 0002:00000e54       ??_C@_0BM@NMFAPECH@SHUTTING_DOWN_REMOTE_STRING?$AA@ 00436e54     ft2.obj
 0002:00000e70       ??_C@_0BM@GKCLHJGF@SHOTSAVE_NOT_RUNNING_STRING?$AA@ 00436e70     ft2.obj
 0002:00000e8c       ??_C@_0BL@OGLPNMKC@TURN_ON_ALL_OUTPUTS_STRING?$AA@ 00436e8c     ft2.obj
 0002:00000ea8       ??_C@_0BM@EBAJNCLJ@TURN_OFF_ALL_OUTPUTS_STRING?$AA@ 00436ea8     ft2.obj
 0002:00000ec4       ??_C@_0BD@LALIONGC@NO_RESPONSE_STRING?$AA@ 00436ec4     ft2.obj
 0002:00000ed8       ??_C@_0N@COCDNNPI@BOARD_STRING?$AA@ 00436ed8     ft2.obj
 0002:00000ee8       ??_C@_0P@HIHJEECJ@ADDRESS_STRING?$AA@ 00436ee8     ft2.obj
 0002:00000ef8       ??_C@_0BC@CDMDCEAP@COM_STATUS_STRING?$AA@ 00436ef8     ft2.obj
 0002:00000f0c       ??_C@_0P@CFODCDAB@MACHINE_STRING?$AA@ 00436f0c     ft2.obj
 0002:00000f1c       ??_C@_0M@FFBPEJAJ@PART_STRING?$AA@ 00436f1c     ft2.obj
 0002:00000f28       ??_C@_0BG@HEIKPPCG@MONITOR_STATUS_STRING?$AA@ 00436f28     ft2.obj
 0002:00000f40       ??_C@_0BE@HKKGFPJL@LOW_PW_LEVEL_STRING?$AA@ 00436f40     ft2.obj
 0002:00000f54       ??_C@_07DFGIDBBA@Control?$AA@ 00436f54     ft2.obj
 0002:00000f5c       ??_C@_0L@CCDLMELP@?5?5Monitor?5?$AA@ 00436f5c     ft2.obj
 0002:00000f68       ??_C@_0M@NCCBAGIL@ft2help?4txt?$AA@ 00436f68     ft2.obj
 0002:00000f74       ??_C@_0M@GJFNBFGB@ft2help?4exe?$AA@ 00436f74     ft2.obj
 0002:00000f80       ??_C@_0L@JHNOENLI@c?3?2ft2?4log?$AA@ 00436f80     ft2.obj
 0002:00000f8c       ??_C@_0BA@BGAEDHJP@C?3?2terminal?4txt?$AA@ 00436f8c     ft2.obj
 0002:00000f9c       ??_C@_0O@CMNDOBFK@OO1?$DN?$HO00100000?$AA@ 00436f9c     ft2.obj
 0002:00000fac       ??_C@_05BEACBLII@OC1?$DN0?$AA@ 00436fac     ft2.obj
 0002:00000fb4       ??_C@_05GFHNOOAL@?4J0?41?$AA@ 00436fb4     ft2.obj
 0002:00000fbc       ??_C@_02KMNIIAK@?4H?$AA@   00436fbc     ft2.obj
 0002:00000fc0       ??_C@_0BM@CPPPCOPO@Waiting?5for?5Control?5Halt?4?4?4?$AA@ 00436fc0     ft2.obj
 0002:00000fdc       ??_C@_0BI@MGMLDFDM@Waiting?5for?5Shutdown?4?4?4?$AA@ 00436fdc     ft2.obj
 0002:00000ff4       ??_C@_05ICHLLNJO@OC5?$DN1?$AA@ 00436ff4     ft2.obj
 0002:00000ffc       ??_C@_06HCNLGBAN@V351?$DN0?$AA@ 00436ffc     ft2.obj
 0002:00001004       ??_C@_08ODNGMNLI@V390?$DN750?$AA@ 00437004     ft2.obj
 0002:00001010       ??_C@_07JIMEKNKE@V391?$DN17?$AA@ 00437010     ft2.obj
 0002:00001018       ??_C@_09DFBOMPDL@V392?$DN1000?$AA@ 00437018     ft2.obj
 0002:00001024       ??_C@_07CCBMFEOP@?4J0?4105?$AA@ 00437024     ft2.obj
 0002:0000102c       ??_C@_05NBJCKMJ@OC1?$DN1?$AA@ 0043702c     ft2.obj
 0002:00001034       ??_C@_0N@FHNNOBJG@OO1?$DN00100000?$AA@ 00437034     ft2.obj
 0002:00001044       ??_C@_03MHLONNLM@?5?$DN?5?$AA@ 00437044     ft2.obj
 0002:00001060       ??_C@_06EKIBLAGJ@?5Volts?$AA@ 00437060     ft2.obj
 0002:00001068       ??_C@_06HFKPFKMP@button?$AA@ 00437068     ft2.obj
 0002:00001070       ??_C@_0N@JIGDCNCG@STATUS_TITLE?$AA@ 00437070     ft2.obj
 0002:00001080       ??_C@_0P@BDOELOPI@TERMINAL_TITLE?$AA@ 00437080     ft2.obj
 0002:00001090       ??_C@_0BA@OEJGDHHP@192?4168?4254?4100?$AA@ 00437090     ft2.obj
 0002:000010a0       ??_C@_06GGHJAEBN@static?$AA@ 004370a0     ft2.obj
 0002:000010a8       ??_C@_07IALBKLFN@Startup?$AA@ 004370a8     ft2.obj
 0002:000010b0       ??_C@_02JBJOEGDK@MA?$AA@   004370b0     ft2.obj
 0002:000010b4       ??_C@_02IFGAHGBJ@PA?$AA@   004370b4     ft2.obj
 0002:000010b8       ??_C@_0P@JMPIMJNG@Startup?5Status?$AA@ 004370b8     ft2.obj
 0002:000010c7       ??_C@_00CNPNBAHC@?$AA@     004370c7     ft2.obj
 0002:000010c8       ??_C@_07LHBBOFFP@listbox?$AA@ 004370c8     ft2.obj
 0002:000010d0       ??_C@_04BMCEDOKO@EDIT?$AA@ 004370d0     ft2.obj
 0002:000010d8       ??_C@_0BB@HKOHPAJO@tooltips_class32?$AA@ 004370d8     ft2.obj
 0002:000010ec       ??_C@_0BD@OGCGGBCI@Slow?5Shot?5Output?5?5?$AA@ 004370ec     ft2.obj
 0002:00001100       ??_C@_0O@ECPEDIIH@Accumulator?5?5?$AA@ 00437100     ft2.obj
 0002:00001110       ??_C@_0BK@IHIGHIAD@Valve?5Test?5in?5Operation?5?5?$AA@ 00437110     ft2.obj
 0002:0000112c       ??_C@_0BH@COPIELJO@Warning?5?$CIActive?5Low?$CJ?5?5?$AA@ 0043712c     ft2.obj
 0002:00001144       ??_C@_0BG@PCGCJKAF@Downtime?5Alarm?5Wire?5?5?$AA@ 00437144     ft2.obj
 0002:0000115c       ??_C@_0P@CHOAOGDP@Monitor?5Wire?5?5?$AA@ 0043715c     ft2.obj
 0002:0000116c       ??_C@_0P@LNBINANL@Limit?5Switch?5?$CD?$AA@ 0043716c     ft2.obj
 0002:0000117c       ??_C@_02KNHHEEKP@?5?5?$AA@ 0043717c     ft2.obj
 0002:00001180       ??_C@_0N@FNOBHGMP@?$DNLow?5Alarm?5?5?$AA@ 00437180     ft2.obj
 0002:00001190       ??_C@_0O@NECNCFDK@?$DNHigh?5Alarm?5?5?$AA@ 00437190     ft2.obj
 0002:000011a0       ??_C@_0P@KLOJDCBL@?$DNLow?5Warning?5?5?$AA@ 004371a0     ft2.obj
 0002:000011b0       ??_C@_0BA@DAEAKOGB@?$DNHigh?5Warning?5?5?$AA@ 004371b0     ft2.obj
 0002:000011c0       ??_C@_0BO@JFMHNALL@Turning?5monitoring?5back?5on?4?4?4?$AA@ 004371c0     ft2.obj
 0002:000011e0       ??_C@_0BM@PIMKBHAK@Poking?5the?5monitor?5topic?4?4?4?$AA@ 004371e0     ft2.obj
 0002:000011fc       ??_C@_03KCPJAIHF@MON?$AA@  004371fc     ft2.obj
 0002:00001200       ??_C@_0BA@DEGFDAFP@Start?5Shot?5Wire?$AA@ 00437200     ft2.obj
 0002:00001210       ??_C@_0BB@KGMIMNJA@Follow?5Thru?5Wire?$AA@ 00437210     ft2.obj
 0002:00001224       ??_C@_0N@BMPOBPLE@Retract?5Wire?$AA@ 00437224     ft2.obj
 0002:00001234       ??_C@_0L@DODOOHFN@Cycle?5Time?$AA@ 00437234     ft2.obj
 0002:00001240       ??_C@_0BB@PGBCFDAN@Follow?5Thru?5Time?$AA@ 00437240     ft2.obj
 0002:00001254       ??_C@_0N@EMCEIBCJ@Retract?5Time?$AA@ 00437254     ft2.obj
 0002:00001264       ??_C@_0BB@BLAEOKCK@Retract?5End?5Time?$AA@ 00437264     ft2.obj
 0002:00001278       ??_C@_05JAMOBCHA@OC6?$DN1?$AA@ 00437278     ft2.obj
 0002:00001280       ??_C@_06MKGHAGGI@V350?$DN0?$AA@ 00437280     ft2.obj
 0002:00001288       ??_C@_02MOKMJMGM@VF?$AA@   00437288     ft2.obj
 0002:0000128c       ??_C@_0P@OKDMEJED@BEGINNING_NULL?$AA@ 0043728c     ft2.obj
 0002:0000129c       ??_C@_0BB@GOFPHFH@AUTO_NULL_FAILED?$AA@ 0043729c     ft2.obj
 0002:000012b0       ??_C@_0BC@PJPHKJOH@AUTO_NULL_SUCCESS?$AA@ 004372b0     ft2.obj
 0002:000012c4       ??_C@_0BC@BGNPJBBL@NULL_ALREADY_GOOD?$AA@ 004372c4     ft2.obj
 0002:000012d8       ??_C@_05JFIFALLJ@OD1?$DNV?$AA@ 004372d8     ft2.obj
 0002:000012e0       ??_C@_05DPIMMDDC@OD3?$DNV?$AA@ 004372e0     ft2.obj
 0002:000012e8       ??_C@_06GNGOLINA@OD1?$DNV0?$AA@ 004372e8     ft2.obj
 0002:000012f0       ??_C@_06BHKOOLLA@OD3?$DNV0?$AA@ 004372f0     ft2.obj
 0002:000012f8       ??_C@_06CKMOMCAA@OD2?$DNV0?$AA@ 004372f8     ft2.obj
 0002:00001300       ??_C@_06KFIODHKA@OD4?$DNV0?$AA@ 00437300     ft2.obj
 0002:00001308       ??_C@_06MHGIHNFE@ODP1?$DN0?$AA@ 00437308     ft2.obj
 0002:00001310       ??_C@_06GNGBLFNP@ODP3?$DN0?$AA@ 00437310     ft2.obj
 0002:00001318       ??_C@_06NFNNNCLK@ODP2?$DN0?$AA@ 00437318     ft2.obj
 0002:00001320       ??_C@_06PALGINGG@ODP4?$DN0?$AA@ 00437320     ft2.obj
 0002:00001328       ??_C@_06GMIKLMPP@OC12?$DN0?$AA@ 00437328     ft2.obj
 0002:00001330       ??_C@_0L@PIOLEAIM@OD1?$DNV?95000?$AA@ 00437330     ft2.obj
 0002:0000133c       ??_C@_0L@NGBNGIAK@OD3?$DNV?95000?$AA@ 0043733c     ft2.obj
 0002:00001348       ??_C@_09MIHJPJAA@OD1?$DNV5000?$AA@ 00437348     ft2.obj
 0002:00001354       ??_C@_09IKFMPOHN@OD3?$DNV5000?$AA@ 00437354     ft2.obj
 0002:00001360       ??_C@_06NPJIEFDF@OC10?$DN1?$AA@ 00437360     ft2.obj
 0002:00001368       ??_C@_06GHCECCFA@OC11?$DN1?$AA@ 00437368     ft2.obj
 0002:00001370       ??_C@_06MGIDHEHE@OC10?$DN0?$AA@ 00437370     ft2.obj
 0002:00001378       ??_C@_06HODPBDBB@OC11?$DN0?$AA@ 00437378     ft2.obj
 0002:00001380       ??_C@_06HFJBINLO@OC12?$DN1?$AA@ 00437380     ft2.obj
 0002:00001388       ??_C@_08HJKDNGLI@ODP2?$DN127?$AA@ 00437388     ft2.obj
 0002:00001394       ??_C@_08KPPKDFKF@ODP4?$DN127?$AA@ 00437394     ft2.obj
 0002:000013a0       ??_C@_07NGCJGEFA@ODP1?$DN14?$AA@ 004373a0     ft2.obj
 0002:000013a8       ??_C@_07KMOJDHDA@ODP3?$DN14?$AA@ 004373a8     ft2.obj
 0002:000013b0       ??_C@_07KNJFFCPO@ODP1?$DN41?$AA@ 004373b0     ft2.obj
 0002:000013b8       ??_C@_07NHFFABJO@ODP3?$DN41?$AA@ 004373b8     ft2.obj
 0002:000013c0       ??_C@_07OKAMFHGK@ODP1?$DN96?$AA@ 004373c0     ft2.obj
 0002:000013c8       ??_C@_07JAMMAEAK@ODP3?$DN96?$AA@ 004373c8     ft2.obj
 0002:000013d0       ??_C@_09EGPGPOOD@OD2?$DNV5000?$AA@ 004373d0     ft2.obj
 0002:000013dc       ??_C@_09IAJJPHGE@OD4?$DNV5000?$AA@ 004373dc     ft2.obj
 0002:000013e8       ??_C@_03PENLHFGJ@5?40?$AA@ 004373e8     ft2.obj
 0002:000013ec       ??_C@_04CKOMLGNN@?95?40?$AA@ 004373ec     ft2.obj
 0002:000013f4       ??_C@_0BK@OCKJFMKF@DEACTIVATE_CONTROL_DIALOG?$AA@ 004373f4     ft2.obj
 0002:00001410       ??_C@_0BE@EPIPBGFC@MinLowImpactPercent?$AA@ 00437410     ft2.obj
 0002:00001424       ??_C@_0M@EHGMLJAA@MaxVelocity?$AA@ 00437424     ft2.obj
 0002:00001430       ??_C@_07NFANNNEC@UNKNOWN?$AA@ 00437430     ft2.obj
 0002:00001438       ??_C@_0BF@DJDBMHMK@No?5Differences?5Found?$AA@ 00437438     ft2.obj
 0002:00001450       ??_C@_02LHMJECBM@V0?$AA@   00437450     ft2.obj
 0002:00001454       ??_C@_01GBGANLPD@0?$AA@    00437454     ft2.obj
 0002:00001458       ??_C@_0BC@LMPAAKAI@variable_list?4csv?$AA@ 00437458     ft2.obj
 0002:0000146c       ??_C@_09BBIKNBLI@Saving?4?4?4?$AA@ 0043746c     ft2.obj
 0002:00001478       ??_C@_05DPLMLBGP@?4025?5?$AA@ 00437478     ft2.obj
 0002:00001480       ??_C@_06KJDAMDAF@_E1?434?$AA@ 00437480     ft2.obj
 0002:00001488       ??_C@_03IHNIJANI@VA1?$AA@  00437488     ft2.obj
 0002:0000148c       ??_C@_02KKLCNNNM@AC?$AA@   0043748c     ft2.obj
 0002:00001490       ??_C@_01EJNLAFE@P?$AA@     00437490     ft2.obj
 0002:00001494       ??_C@_02PFIAKEDG@80?$AA@   00437494     ft2.obj
 0002:00001498       ??_C@_02PPBOIJDM@60?$AA@   00437498     ft2.obj
 0002:0000149c       ??_C@_05DKPDKHOK@?4022?5?$AA@ 0043749c     ft2.obj
 0002:000014a4       ??_C@_05GCEIPCEA@?91000?$AA@ 004374a4     ft2.obj
 0002:000014ac       ??_C@_04JCBJEACK@UD1?$DN?$AA@ 004374ac     ft2.obj
 0002:000014b4       ??_C@_05IGCEBFN@?4075?5?$AA@ 004374b4     ft2.obj
 0002:000014bc       ??_C@_05LMGGBLL@?4129?5?$AA@ 004374bc     ft2.obj
 0002:000014c4       ??_C@_05CFOIIIJA@?92000?$AA@ 004374c4     ft2.obj
 0002:000014cc       ??_C@_0N@MIOLBNGI@InputBitCtrl?$AA@ 004374cc     ft2.obj
 0002:000014dc       ??_C@_0O@HKOFDAGD@OutputBitCtrl?$AA@ 004374dc     ft2.obj
 0002:000014ec       ??_C@_05NKGLFHFB@Mon?50?$AA@ 004374ec     ft2.obj
 0002:000014f4       ??_C@_05MDHAGGBA@Mon?51?$AA@ 004374f4     ft2.obj
 0002:000014fc       ??_C@_05OIFNDFND@Mon?52?$AA@ 004374fc     ft2.obj
 0002:00001504       ??_C@_05PBEGAEJC@Mon?53?$AA@ 00437504     ft2.obj
 0002:0000150c       ??_C@_05LOAHJCFF@Mon?54?$AA@ 0043750c     ft2.obj
 0002:00001514       ??_C@_05KHBMKDBE@Mon?55?$AA@ 00437514     ft2.obj
 0002:0000151c       ??_C@_05IMDBPANH@Mon?56?$AA@ 0043751c     ft2.obj
 0002:00001524       ??_C@_05JFCKMBJG@Mon?57?$AA@ 00437524     ft2.obj
 0002:0000152c       ??_C@_05BCLCNNFJ@Mon?58?$AA@ 0043752c     ft2.obj
 0002:00001534       ??_C@_05LKJOMBI@Mon?59?$AA@ 00437534     ft2.obj
 0002:0000153c       ??_C@_06MCDCFGPB@Mon?510?$AA@ 0043753c     ft2.obj
 0002:00001544       ??_C@_06NLCJGHLA@Mon?511?$AA@ 00437544     ft2.obj
 0002:0000154c       ??_C@_06PAAEDEHD@Mon?512?$AA@ 0043754c     ft2.obj
 0002:00001554       ??_C@_06OJBPAFDC@Mon?513?$AA@ 00437554     ft2.obj
 0002:0000155c       ??_C@_06KGFOJDPF@Mon?514?$AA@ 0043755c     ft2.obj
 0002:00001564       ??_C@_06LPEFKCLE@Mon?515?$AA@ 00437564     ft2.obj
 0002:0000156c       ??_C@_07BMJJPDHN@Pump?5On?$AA@ 0043756c     ft2.obj
 0002:00001574       ??_C@_0L@LJJJHIMI@Start?5Shot?$AA@ 00437574     ft2.obj
 0002:00001580       ??_C@_0P@HONNILJE@Follow?5Through?$AA@ 00437580     ft2.obj
 0002:00001590       ??_C@_07MFKJBCPK@Retract?$AA@ 00437590     ft2.obj
 0002:00001598       ??_C@_08JLMFPNJK@Jog?5Shot?$AA@ 00437598     ft2.obj
 0002:000015a4       ??_C@_0M@NCPHABO@Manual?5Mode?$AA@ 004375a4     ft2.obj
 0002:000015b0       ??_C@_07DDCCCAKH@At?5Home?$AA@ 004375b0     ft2.obj
 0002:000015b8       ??_C@_06OBBIKHLM@Bit?523?$AA@ 004375b8     ft2.obj
 0002:000015c0       ??_C@_06KOFJDBHL@Bit?524?$AA@ 004375c0     ft2.obj
 0002:000015c8       ??_C@_09BBABDAM@OK?5for?5FS?$AA@ 004375c8     ft2.obj
 0002:000015d4       ??_C@_06IKKCCKCG@Vac?5ON?$AA@ 004375d4     ft2.obj
 0002:000015dc       ??_C@_0L@BLABMDIA@Low?5Impact?$AA@ 004375dc     ft2.obj
 0002:000015e8       ??_C@_09GPGAEFAD@Fill?5Test?$AA@ 004375e8     ft2.obj
 0002:000015f4       ??_C@_06MHAPPDCA@Intens?$AA@ 004375f4     ft2.obj
 0002:000015fc       ??_C@_0O@LAKOBHNB@Bit?530?5?$CI0?931?$CJ?$AA@ 004375fc     ft2.obj
 0002:0000160c       ??_C@_06DIMIBLIM@E?9Stop?$AA@ 0043760c     ft2.obj
 0002:00001614       ??_C@_08CIADBKHA@MonOut?50?$AA@ 00437614     ft2.obj
 0002:00001620       ??_C@_08DBBICLDB@MonOut?51?$AA@ 00437620     ft2.obj
 0002:0000162c       ??_C@_08BKDFHIPC@MonOut?52?$AA@ 0043762c     ft2.obj
 0002:00001638       ??_C@_08DCOEJLD@MonOut?53?$AA@ 00437638     ft2.obj
 0002:00001644       ??_C@_08EMGPNPHE@MonOut?54?$AA@ 00437644     ft2.obj
 0002:00001650       ??_C@_08FFHEOODF@MonOut?55?$AA@ 00437650     ft2.obj
 0002:0000165c       ??_C@_08HOFJLNPG@MonOut?56?$AA@ 0043765c     ft2.obj
 0002:00001668       ??_C@_08GHECIMLH@MonOut?57?$AA@ 00437668     ft2.obj
 0002:00001674       ??_C@_08OANKJAHI@MonOut?58?$AA@ 00437674     ft2.obj
 0002:00001680       ??_C@_08PJMBKBDJ@MonOut?59?$AA@ 00437680     ft2.obj
 0002:0000168c       ??_C@_09IOKJCOOC@MonOut?510?$AA@ 0043768c     ft2.obj
 0002:00001698       ??_C@_09JHLCBPKD@MonOut?511?$AA@ 00437698     ft2.obj
 0002:000016a4       ??_C@_09LMJPEMGA@MonOut?512?$AA@ 004376a4     ft2.obj
 0002:000016b0       ??_C@_09KFIEHNCB@MonOut?513?$AA@ 004376b0     ft2.obj
 0002:000016bc       ??_C@_09OKMFOLOG@MonOut?514?$AA@ 004376bc     ft2.obj
 0002:000016c8       ??_C@_09PDNONKKH@MonOut?515?$AA@ 004376c8     ft2.obj
 0002:000016d4       ??_C@_0BG@JGIFIACA@Slow?5Shot?5?5?5?5?5?5OUTPUT?$AA@ 004376d4     ft2.obj
 0002:000016ec       ??_C@_0BG@EJPLFJFD@Accumulator?5?5?5?5OUTPUT?$AA@ 004376ec     ft2.obj
 0002:00001704       ??_C@_09IDNDDCPL@OutBit?518?$AA@ 00437704     ft2.obj
 0002:00001710       ??_C@_09JKMIADLK@OutBit?519?$AA@ 00437710     ft2.obj
 0002:0000171c       ??_C@_09EJEMAGKK@OutBit?520?$AA@ 0043771c     ft2.obj
 0002:00001728       ??_C@_09FAFHDHOL@OutBit?521?$AA@ 00437728     ft2.obj
 0002:00001734       ??_C@_09HLHKGECI@OutBit?522?$AA@ 00437734     ft2.obj
 0002:00001740       ??_C@_09GCGBFFGJ@OutBit?523?$AA@ 00437740     ft2.obj
 0002:0000174c       ??_C@_09CNCAMDKO@OutBit?524?$AA@ 0043774c     ft2.obj
 0002:00001758       ??_C@_04OHBKJJLA@LS?55?$AA@ 00437758     ft2.obj
 0002:00001760       ??_C@_04MMDHMKHD@LS?56?$AA@ 00437760     ft2.obj
 0002:00001768       ??_C@_05GFBBDHMI@Fault?$AA@ 00437768     ft2.obj
 0002:00001770       ??_C@_04IDHGFMLE@LS?51?$AA@ 00437770     ft2.obj
 0002:00001778       ??_C@_04KIFLAPHH@LS?52?$AA@ 00437778     ft2.obj
 0002:00001780       ??_C@_04LBEADODG@LS?53?$AA@ 00437780     ft2.obj
 0002:00001788       ??_C@_04POABKIPB@LS?54?$AA@ 00437788     ft2.obj
 0002:00001790       ??_C@_06BPJDBDPJ@Pos?5?$DN?5?$AA@ 00437790     ft2.obj
 0002:00001798       ??_C@_08NJLONNMH@?0?5Vel?5?$DN?5?$AA@ 00437798     ft2.obj
 0002:000017a4       ??_C@_0BA@EEOAKOKB@Current?5Step?5?$DN?5?$AA@ 004377a4     ft2.obj
 0002:000017b4       ??_C@_0BB@JFCJKDMA@Status?5Word?51?5?$DN?5?$AA@ 004377b4     ft2.obj
 0002:000017c8       ??_C@_0O@IJMKCPNE@?0?5Meas?5CMD?5?$DN?5?$AA@ 004377c8     ft2.obj
 0002:000017d8       ??_C@_0BD@COCAEEAN@?0?5LVDT?5Feedback?5?$DN?5?$AA@ 004377d8     ft2.obj
 0002:000017ec       ??_C@_08CFGAPIMC@?0?5Ch?51?$DN?5?$AA@ 004377ec     ft2.obj
 0002:000017f8       ??_C@_08DHNFFHCM@?0?5Ch?52?$DN?5?$AA@ 004377f8     ft2.obj
 0002:00001804       ??_C@_07PCHLKJBA@T?5E?5X?5T?$AA@ 00437804     ft2.obj
 0002:0000180c       ??_C@_07GDFBGDGH@O?5P?5T?5O?$AA@ 0043780c     ft2.obj
 0002:00001814       ??_C@_0BF@PAPPEAPE@pkzip25?5?9add?5?9lev?$DN9?5?$AA@ 00437814     ft2.obj
 0002:0000182c       ??_C@_0CL@EFJDFFLI@c?3?2windows?2system32?2notepad?4exe?5@ 0043782c     ft2.obj
 0002:00001858       ??_C@_07KFLFCEAO@Confirm?$AA@ 00437858     ft2.obj
 0002:00001860       ??_C@_0BA@GJBFBKAB@Delete?5FT2?4LOG?$DP?$AA@ 00437860     ft2.obj
 0002:00001870       ??_C@_0BG@PDAAAHMH@CURRENT_VALUES_DIALOG?$AA@ 00437870     ft2.obj
 0002:00001888       ??_C@_0P@GBECCEID@SET_DAC_DIALOG?$AA@ 00437888     ft2.obj
 0002:00001898       ??_C@_0BA@BDNFMHFK@SET_NULL_DIALOG?$AA@ 00437898     ft2.obj
 0002:000018a8       ??_C@_0BI@DNAIBHDK@GLOBAL_PARAMETER_DIALOG?$AA@ 004378a8     ft2.obj
 0002:000018c0       ??_C@_0BJ@FGOGELAC@COMPARE_VARIABLES_DIALOG?$AA@ 004378c0     ft2.obj
 0002:000018dc       ??_C@_0BE@DJCHHECB@CONTROL_MODS_DIALOG?$AA@ 004378dc     ft2.obj
 0002:000018f0       ??_C@_0BK@JKDEIGJH@TEST_ALARM_OUTPUTS_DIALOG?$AA@ 004378f0     ft2.obj
 0002:0000190c       ??_C@_0BC@JHMMPHNK@VALVE_TEST_DIALOG?$AA@ 0043790c     ft2.obj
 0002:00001920       ??_C@_05NBDKDGFB@Wire?5?$AA@ 00437920     ft2.obj
 0002:00001928       ??_C@_0BB@LEGFKHBI@?5Monitor?5Module?5?$AA@ 00437928     ft2.obj
 0002:0000193c       ??_C@_0BB@LBJGIDKM@?5Control?5Module?5?$AA@ 0043793c     ft2.obj
 0002:00001950       ??_C@_05CDAKOEN@?5Led?5?$AA@ 00437950     ft2.obj
 0002:00001958       ??_C@_04EHDNGHNL@V319?$AA@ 00437958     ft2.obj
 0002:00001960       ??_C@_0BE@LAHOLBLC@UPLOAD_FLASH_DIALOG?$AA@ 00437960     ft2.obj
 0002:00001974       ??_C@_03FBBILEHC@ACT?$AA@  00437974     ft2.obj
 0002:00001978       ??_C@_03JMDFPPIA@CFG?$AA@  00437978     ft2.obj
 0002:0000197c       ??_C@_0CB@KMGCBJMF@Shutting?5Down?5Current?5Monitor?4?4?4@ 0043797c     ft2.obj
 0002:000019a0       ??_C@_0BH@PCKAGKFB@SHUTDOWN_STATUS_DIALOG?$AA@ 004379a0     ft2.obj
 0002:000019b8       ??_C@_0CB@MEAJBBOH@Exiting?5from?5main?5dialog?5proc?4?4?4@ 004379b8     ft2.obj
 0002:000019dc       ??_C@_0BO@COLFGAIE@CHOOSE_MONITOR_MACHINE_DIALOG?$AA@ 004379dc     ft2.obj
 0002:000019fc       ??_C@_0P@EGFDCOFD@PROGRAM?5START?5?$AA@ 004379fc     ft2.obj
 0002:00001a0c       ??_C@_09EPDNCKME@AUTO_SHOT?$AA@ 00437a0c     ft2.obj
 0002:00001a18       ??_C@_0BA@IPEJFPLA@FT2_TEST_DIALOG?$AA@ 00437a18     ft2.obj
 0002:00001a28       ??_C@_0BD@IGPKHAHN@OUTPUT_LIST_DIALOG?$AA@ 00437a28     ft2.obj
 0002:00001a3c       ??_C@_0BJ@FIIAAHAI@HIRES_SENSOR_TEST_DIALOG?$AA@ 00437a3c     ft2.obj
 0002:00001a58       ??_C@_0BG@NLMCAONB@UPLOAD_ABORTED_DIALOG?$AA@ 00437a58     ft2.obj
 0002:00001a70       __real@3f50624dd2f1a9fc    00437a70     ft2.obj
 0002:00001a78       __real@3f847ae147ae147b    00437a78     ft2.obj
 0002:00001a80       __real@3fb0000000000000    00437a80     ft2.obj
 0002:00001a88       __real@3fd0000000000000    00437a88     ft2.obj
 0002:00001a90       __real@3fe0000000000000    00437a90     ft2.obj
 0002:00001a98       __real@3ff0000000000000    00437a98     ft2.obj
 0002:00001aa0       __real@4010000000000000    00437aa0     ft2.obj
 0002:00001aa8       __real@4014000000000000    00437aa8     ft2.obj
 0002:00001ab0       __real@4024000000000000    00437ab0     ft2.obj
 0002:00001ab8       __real@4034000000000000    00437ab8     ft2.obj
 0002:00001ac0       __real@4059000000000000    00437ac0     ft2.obj
 0002:00001ac8       __real@408f400000000000    00437ac8     ft2.obj
 0002:00001ad0       __real@40affe0000000000    00437ad0     ft2.obj
 0002:00001ae0       __xmm@41f00000000000000000000000000000 00437ae0     ft2.obj
 0002:00001b04       ??_C@_0N@LPGHLKGH@ALARMSUM?4TXT?$AA@ 00437b04     board_monitor.obj
 0002:00001b14       ??_C@_0N@PLHNDNGH@DOWNTIME?4TXT?$AA@ 00437b14     board_monitor.obj
 0002:00001b24       ??_C@_0BH@CAIOJADE@ftii_part_settings?4txt?$AA@ 00437b24     board_monitor.obj
 0002:00001b3c       ??_C@_0N@FGFLILME@GRAPHLST?4TXT?$AA@ 00437b3c     board_monitor.obj
 0002:00001b4c       ??_C@_0BM@HHHAAGMK@machine_ctrl_prog_steps?4txt?$AA@ 00437b4c     board_monitor.obj
 0002:00001b68       ??_C@_0N@JBOEGEDG@SHOTPARM?4TXT?$AA@ 00437b68     board_monitor.obj
 0002:00001b7c       ??_7DOUBLE_ARRAY_CLASS@@6B@ 00437b7c     board_monitor.obj
 0002:00001b84       ??_C@_02PGHGPEOM@?91?$AA@  00437b84     board_monitor.obj
 0002:00001b88       ??_C@_0L@JOAGAEIG@?5at?5time?3?5?$AA@ 00437b88     board_monitor.obj
 0002:00001b94       ??_C@_0BF@HPKNHGGA@Retract?5?5?5?5?5?5?5?5INPUT?$AA@ 00437b94     board_monitor.obj
 0002:00001bac       ??_C@_0BF@GIPDBJHK@Start?5Shot?5?5?5?5?5INPUT?$AA@ 00437bac     board_monitor.obj
 0002:00001bc4       ??_C@_0BF@LFBEAOHB@Follow?5Through?5INPUT?$AA@ 00437bc4     board_monitor.obj
 0002:00001bdc       ??_C@_0BF@KPMDKKHI@Accumulator?5?5?5?5INPUT?$AA@ 00437bdc     board_monitor.obj
 0002:00001bf4       ??_C@_0BF@LBPFBKNE@Slow?5Shot?5?5?5?5?5?5INPUT?$AA@ 00437bf4     board_monitor.obj
 0002:00001c0c       ??_C@_02PLJDPFIO@00?$AA@   00437c0c     board_monitor.obj
 0002:00001c10       ??_C@_02ODEKKOPI@11?$AA@   00437c10     board_monitor.obj
 0002:00001c14       ??_C@_0N@FCNMADKP@savepart?4exe?$AA@ 00437c14     board_monitor.obj
 0002:00001c24       ??_C@_02OCIIMEMP@01?$AA@   00437c24     board_monitor.obj
 0002:00001c64       ??_C@_02BAHDIOLJ@XX?$AA@   00437c64     board_monitor.obj
 0002:00001c68       ??_C@_05MKKOHGH@?$CK?$CK?$CK?$CK?5?$AA@ 00437c68     board_monitor.obj
 0002:00001c70       ??_C@_04GNCCGHKC@?5?$CK?$CK?$CK?$AA@ 00437c70     board_monitor.obj
 0002:00001c78       ??_C@_0L@PPPGACKJ@?50?5Seconds?$AA@ 00437c78     board_monitor.obj
 0002:00001c84       ??_C@_0P@MDJAKAKC@WSASYSNOTREADY?$AA@ 00437c84     board_monitor.obj
 0002:00001c94       ??_C@_0BD@PKACBPOA@WSAVERNOTSUPPORTED?$AA@ 00437c94     board_monitor.obj
 0002:00001ca8       ??_C@_0P@FHEJEBJC@WSAEINPROGRESS?$AA@ 00437ca8     board_monitor.obj
 0002:00001cb8       ??_C@_0M@CDIHOKBK@WSAEPROCLIM?$AA@ 00437cb8     board_monitor.obj
 0002:00001cc4       ??_C@_09BIHAGEEK@WSAEFAULT?$AA@ 00437cc4     board_monitor.obj
 0002:00001cd0       ??_C@_0P@HLNEBJNJ@WSANO_RECOVERY?$AA@ 00437cd0     board_monitor.obj
 0002:00001ce0       ??_C@_0L@EEFLCHHA@WSAStartup?$AA@ 00437ce0     board_monitor.obj
 0002:00001cec       ??_C@_06HBELJPBO@socket?$AA@ 00437cec     board_monitor.obj
 0002:00001cf4       ??_C@_04NPNJNMMP@bind?$AA@ 00437cf4     board_monitor.obj
 0002:00001cfc       __real@00000000            00437cfc     board_monitor.obj
 0002:00001d00       ??_C@_04OGJDIIK@?4PR2?$AA@ 00437d00     shotsave.obj
 0002:00001d08       ??_C@_0BE@JAEJFALN@DdeParamShowMachine?$AA@ 00437d08     shotsave.obj
 0002:00001d1c       ??_C@_0BB@IJGMPPKN@DdeParamShowPart?$AA@ 00437d1c     shotsave.obj
 0002:00001d30       ??_C@_0BB@ELFIJBEN@DdeParamShowDate?$AA@ 00437d30     shotsave.obj
 0002:00001d44       ??_C@_0BB@PNPLLGNP@DdeParamShowTime?$AA@ 00437d44     shotsave.obj
 0002:00001d58       ??_C@_0BB@KHDKPKNE@DdeParamShowShot?$AA@ 00437d58     shotsave.obj
 0002:00001d6c       ??_C@_0BB@GKIMDMOL@DdeParamParmList?$AA@ 00437d6c     shotsave.obj
 0002:00001d80       ??_C@_0M@MGLADPCK@EosComSpeed?$AA@ 00437d80     shotsave.obj
 0002:00001d8c       ??_C@_0N@FINCCHKP@EosComParity?$AA@ 00437d8c     shotsave.obj
 0002:00001d9c       ??_C@_0L@IHNEOHMM@EosComBits?$AA@ 00437d9c     shotsave.obj
 0002:00001da8       ??_C@_0L@EDHJMJOO@EosComStop?$AA@ 00437da8     shotsave.obj
 0002:00001db4       ??_C@_09PGELPPJG@EosComCts?$AA@ 00437db4     shotsave.obj
 0002:00001dc0       ??_C@_09HHMIOAOL@EosComDsr?$AA@ 00437dc0     shotsave.obj
 0002:00001dcc       ??_C@_0O@IOHLKHJC@EosComXonXoff?$AA@ 00437dcc     shotsave.obj
 0002:00001ddc       ??_C@_0BC@OAAGPBM@SaveAllAlarmShots?$AA@ 00437ddc     shotsave.obj
 0002:00001df0       ??_C@_0BC@IIKPPMEB@DdeParamDelimiter?$AA@ 00437df0     shotsave.obj
 0002:00001e04       ??_C@_0L@PDFDJGIH@EosComPort?$AA@ 00437e04     shotsave.obj
 0002:00001e10       ??_C@_0P@JOBCNCEM@EosMachineName?$AA@ 00437e10     shotsave.obj
 0002:00001e20       ??_C@_01FHEEJDEE@A?$AA@    00437e20     shotsave.obj
 0002:00001e24       ??_C@_01ELNMCGJD@W?$AA@    00437e24     shotsave.obj
 0002:00001e28       ??_C@_01BBODEMC@G?$AA@     00437e28     shotsave.obj
 0002:00001e2c       ??_C@_0P@LDJAEJIO@EosNeedsStxEtx?$AA@ 00437e2c     shotsave.obj
 0002:00001e3c       ??_C@_0BC@KDJBDEBD@EosOnlyIfNoAlarms?$AA@ 00437e3c     shotsave.obj
 0002:00001e50       ??_C@_0O@OBLOHEDN@EosFixedWidth?$AA@ 00437e50     shotsave.obj
 0002:00001e60       ??_C@_0BA@IPOHEOLO@EosPyramidLines?$AA@ 00437e60     shotsave.obj
 0002:00001e70       ??_C@_0BC@JEBJADJH@EosComDelimitChar?$AA@ 00437e70     shotsave.obj
 0002:00001e84       ??_C@_09OAJOCEF@EosComEol?$AA@ 00437e84     shotsave.obj
 0002:00001e90       ??_C@_04EBGNMJBD@?4csv?$AA@ 00437e90     shotsave.obj
 0002:00001e98       ??_C@_03HLLJOCDO@1?40?$AA@ 00437e98     shotsave.obj
 0002:00001e9c       ??_C@_03NCOLJCLP@V01?$AA@  00437e9c     shotsave.obj
 0002:00001ea0       ??_C@_03PJMGMBHM@V02?$AA@  00437ea0     shotsave.obj
 0002:00001ea4       ??_C@_01CLKCMJKC@?5?$AA@   00437ea4     shotsave.obj
 0002:00001ea8       ??_C@_0BO@LKDDBJIO@Begin?5Shot?5Data?3?5Shot?5Number?5?$AA@ 00437ea8     shotsave.obj
 0002:00001ec8       ??_C@_0DI@OOHGLIHE@?9?9?9?9?9?9?9?9?9?9?9?9?9?9?9?5At?5the?5Start?5of?5@ 00437ec8     shotsave.obj
 0002:00001f00       ??_C@_0BB@LDGONCMI@Impact?5at?5time?3?5?$AA@ 00437f00     shotsave.obj
 0002:00001f14       ??_C@_0DI@OEOOCEKA@?9?9?9?9?9?9?9?9?9?9?9?9?9?9?9?9?9?9?9?9?9?9?9?9?9?9?9?9?9?9?9?9@ 00437f14     shotsave.obj
 0002:00001f4c       ??_C@_0BB@EJECEEHB@End?5of?5Shot?5Data?$AA@ 00437f4c     shotsave.obj
 0002:00001f60       ??_C@_0BA@DBEKJJO@upload_copy?4txt?$AA@ 00437f60     upload_copy_class.obj
 0002:00001f70       ??_C@_05KLKPKMCL@?4stbl?$AA@ 00437f70     v5subs:nameclas.obj
 0002:00001f80       ??_C@_0M@PNJEDJJP@ASENSOR?4CSV?$AA@ 00437f80     v5subs:asensor.obj
 0002:00001f8c       ??_C@_08NPBCJIHM@Not?5Used?$AA@ 00437f8c     v5subs:asensor.obj
 0002:00001f98       __real@0000000000000000    00437f98     v5subs:asensor.obj
 0002:00001fa0       __real@4004000000000000    00437fa0     v5subs:asensor.obj
 0002:00001fa8       __real@4004020c49ba5e35    00437fa8     v5subs:asensor.obj
 0002:00001fb0       __real@4014010624dd2f1b    00437fb0     v5subs:asensor.obj
 0002:00001fc0       __xmm@3ff00000000000004024000000000000 00437fc0     v5subs:asensor.obj
 0002:00001fd4       ??_C@_0CK@JBOPMLIC@Unable?5to?5ALLOCATE?5DB_TABLE?5reco@ 00437fd4     v5subs:dbsubs.obj
 0002:00002000       ??_C@_0BG@CPBDHLID@Unable?5to?5lock?5record?$AA@ 00438000     v5subs:dbsubs.obj
 0002:00002018       ??_C@_05CHKGEIOL@0x?$CFlX?$AA@ 00438018     v5subs:dbsubs.obj
 0002:00002020       ??_C@_0BH@ICEGKPMC@Can?8t?5set?5file?5pointer?$AA@ 00438020     v5subs:dbsubs.obj
 0002:00002038       ??_C@_08EHEBBLJC@UNKNOWN0?$AA@ 00438038     v5subs:evclass.obj
 0002:00002044       ??_C@_0N@NNGELIJD@COMPUTER?4CSV?$AA@ 00438044     v5subs:computer.obj
 0002:00002054       ??_C@_0BH@LLGMPKPC@limit_switch_wires?4dat?$AA@ 00438054     v5subs:limit_switch_class.obj
 0002:000020e4       ??_C@_0N@MOIHEONP@Machine?5Type?$AA@ 004380e4     v5subs:machine.obj
 0002:000020f4       ??_C@_0BH@NNBMAMNI@Fast?5Trak?5Board?5Number?$AA@ 004380f4     v5subs:machine.obj
 0002:0000210c       ??_C@_0BO@HNEENHKI@Mux?5Channel?5Number?5?$CIFT1?5Only?$CJ?$AA@ 0043810c     v5subs:machine.obj
 0002:0000212c       ??_C@_0BE@DFPNJCJC@Is?5SureTrak?5Control?$AA@ 0043812c     v5subs:machine.obj
 0002:00002140       ??_C@_0BC@MMHMIFGN@Current?5Part?5Name?$AA@ 00438140     v5subs:machine.obj
 0002:00002154       ??_C@_09CCBGKGIC@Rod?5Pitch?$AA@ 00438154     v5subs:machine.obj
 0002:00002160       ??_C@_0BD@GNBMCJIF@Profile?5Skip?5Count?$AA@ 00438160     v5subs:machine.obj
 0002:00002174       ??_C@_0BG@FDBEJOGA@Profile?5Acquire?5Count?$AA@ 00438174     v5subs:machine.obj
 0002:0000218c       ??_C@_0BJ@FLJCNELE@Profile?5Time?5Skip?5?$CISec?4?$CJ?$AA@ 0043818c     v5subs:machine.obj
 0002:000021a8       ??_C@_0O@LOIAPFOK@Profile?5Flags?$AA@ 004381a8     v5subs:machine.obj
 0002:000021b8       ??_C@_0BC@FEEHGIBD@Profile?5Max?5Saved?$AA@ 004381b8     v5subs:machine.obj
 0002:000021cc       ??_C@_0BB@JJOLMDBO@Param?5Skip?5Count?$AA@ 004381cc     v5subs:machine.obj
 0002:000021e0       ??_C@_0BE@CFBKLFFM@Param?5Acquire?5Count?$AA@ 004381e0     v5subs:machine.obj
 0002:000021f4       ??_C@_0BH@OHCLBIFI@Param?5Time?5Skip?5?$CISec?4?$CJ?$AA@ 004381f4     v5subs:machine.obj
 0002:0000220c       ??_C@_0M@FLCPHCBL@Param?5Flags?$AA@ 0043820c     v5subs:machine.obj
 0002:00002218       ??_C@_0BA@HHBIKCAF@Param?5Max?5Saved?$AA@ 00438218     v5subs:machine.obj
 0002:00002228       ??_C@_0O@JBNMJHP@Monitor?5Flags?$AA@ 00438228     v5subs:machine.obj
 0002:00002238       ??_C@_0BJ@GBHCCOIB@Auto?5Shot?5Timeout?5?$CISec?4?$CJ?$AA@ 00438238     v5subs:machine.obj
 0002:00002254       ??_C@_0BI@MMIPJLJD@Downtime?5Timeout?5?$CISec?4?$CJ?$AA@ 00438254     v5subs:machine.obj
 0002:0000226c       ??_C@_0BK@OPEBGBCN@Differential?5Curve?5Number?$AA@ 0043826c     v5subs:machine.obj
 0002:00002288       ??_C@_0BM@ICLBHBOG@Position?5Base?5Impact?5Points?$AA@ 00438288     v5subs:machine.obj
 0002:000022a4       ??_C@_0BI@MGNODMON@Time?5Base?5Impact?5Points?$AA@ 004382a4     v5subs:machine.obj
 0002:000022bc       ??_C@_0BJ@LBLJABBN@Pre?5Impact?5Pressure?5Type?$AA@ 004382bc     v5subs:machine.obj
 0002:000022d8       ??_C@_0BK@IIFEICOJ@Post?5Impact?5Pressure?5Type?$AA@ 004382d8     v5subs:machine.obj
 0002:000022f4       ??_C@_0BA@HBNKAMDO@Operator?5Number?$AA@ 004382f4     v5subs:machine.obj
 0002:00002304       ??_C@_0BD@CPILCMOD@Quadrature?5Divisor?$AA@ 00438304     v5subs:machine.obj
 0002:00002318       ??_C@_0BI@CNKGMGOJ@Binary?5Valve?5Pulse?5Time?$AA@ 00438318     v5subs:machine.obj
 0002:00002330       ??_C@_0BJ@ENEMHPJH@Binary?5Valve?5Devent?5Time?$AA@ 00438330     v5subs:machine.obj
 0002:0000234c       ??_C@_0BI@HNHMFIHE@Binary?5Valve?5Pulse?5Wire?$AA@ 0043834c     v5subs:machine.obj
 0002:00002364       ??_C@_0BN@OGBGKKMD@Valve?5Setting?5after?5Jog?5Shot?$AA@ 00438364     v5subs:machine.obj
 0002:00002384       ??_C@_0BJ@KLJNILDG@default_hmi_settings?4csv?$AA@ 00438384     v5subs:machine.obj
 0002:000023a0       ??_C@_09OCBCGKDI@DSTAT?4TXT?$AA@ 004383a0     v5subs:machine.obj
 0002:000023ac       ??_C@_0N@HNGGMANO@SEMAPHOR?4TXT?$AA@ 004383ac     v5subs:machine.obj
 0002:000023bc       ??_C@_02NPBNBJHG@?42?$AA@  004383bc     v5subs:machine.obj
 0002:000023c0       ??_C@_02LHFGLHCH@27?$AA@   004383c0     v5subs:machine.obj
 0002:000023c4       ??_C@_0BA@OBGBLKPH@control_all?4txt?$AA@ 004383c4     v5subs:machine.obj
 0002:000023d4       ??_C@_03GNABGMEE@100?$AA@  004383d4     v5subs:machine.obj
 0002:000023d8       __real@412e848000000000    004383d8     v5subs:machine.obj
 0002:000023e0       ??_C@_05MPFIAJAP@Arial?$AA@ 004383e0     v5subs:optocontrol.obj
 0002:000023e8       ??_C@_01FAMBOPH@4?$AA@     004383e8     v5subs:optocontrol.obj
 0002:000023ec       ??_C@_01FDFGLJHB@2?$AA@    004383ec     v5subs:optocontrol.obj
 0002:000023f0       ??_C@_01EKENIIDA@3?$AA@    004383f0     v5subs:optocontrol.obj
 0002:000023f4       ??_C@_01HIHLOKLC@1?$AA@    004383f4     v5subs:optocontrol.obj
 0002:000023f8       ??_C@_0N@BEOBODLA@PARMLIST?4TXT?$AA@ 004383f8     v5subs:param.obj
 0002:00002408       ??_C@_0M@ECMINKO@NOPARAMETER?$AA@ 00438408     v5subs:param.obj
 0002:00002414       ??_C@_0L@FGNFKGAO@FTCHAN?4TXT?$AA@ 00438414     v5subs:part.obj
 0002:00002420       ??_C@_0BE@OCONGGMH@good_shot_setup?4csv?$AA@ 00438420     v5subs:part.obj
 0002:00002434       ??_C@_0P@MHFCEEOL@part_setup?4csv?$AA@ 00438434     v5subs:part.obj
 0002:00002444       ??_C@_0M@JJIEHKEJ@PSENSOR?4TXT?$AA@ 00438444     v5subs:part.obj
 0002:00002450       __real@3fe921ff2e48e8a7    00438450     v5subs:part.obj
 0002:00002460       __xmm@3ff00000000000004054000000000000 00438460     v5subs:part.obj
 0002:000024a0       ??_C@_0M@PEOEDMKK@STPARAM?4DAT?$AA@ 004384a0     v5subs:stparam.obj
 0002:000024ac       ??_C@_0L@PJKLGHOG@STPRES?4DAT?$AA@ 004384ac     v5subs:stpres.obj
 0002:000024b8       ??_C@_02IFGANFKF@25?$AA@   004384b8     v5subs:stpres.obj
 0002:000024bc       ??_C@_03OCGDPLBD@500?$AA@  004384bc     v5subs:stpres.obj
 0002:000024c0       ??_C@_02PNFIDHGF@50?$AA@   004384c0     v5subs:stpres.obj
 0002:000024c4       ??_C@_03MDAFIFFL@0?40?$AA@ 004384c4     v5subs:stpres.obj
 0002:000024cc       ??_C@_0BC@FPMLOHHC@DdeConnect?5Failed?$AA@ 004384cc     v5subs:client.obj
 0002:000024e0       ??_C@_06HMPLFHFI@Dmlerr?$AA@ 004384e0     v5subs:client.obj
 0002:000024e8       ??_C@_0L@MEDALGHK@dmlerr?4txt?$AA@ 004384e8     v5subs:client.obj
 0002:000024f4       ??_C@_0BA@OPFLENNK@Conversation?5?$DN?5?$AA@ 004384f4     v5subs:client.obj
 0002:00002504       ??_C@_0BG@NMLOLGHC@No?5Conversation?5found?$AA@ 00438504     v5subs:client.obj
 0002:0000251c       ??_C@_07JELGNNCC@Item?5?$DN?5?$AA@ 0043851c     v5subs:client.obj
 0002:00002524       ??_C@_0BD@MAKOIAJM@?0?5default_value?5?$DN?5?$AA@ 00438524     v5subs:client.obj
 0002:00002538       ??_C@_0BE@PDFGFHMA@Transaction?5type?5?$DN?5?$AA@ 00438538     v5subs:client.obj
 0002:0000254c       ??_C@_08HLMEAJIJ@Error?5?$DN?5?$AA@ 0043854c     v5subs:client.obj
 0002:00002558       ??_C@_0O@DEJNGLFG@DdeInitialize?$AA@ 00438558     v5subs:client.obj
 0002:00002568       ??_C@_06CMLPEGNC@Failed?$AA@ 00438568     v5subs:client.obj
 0002:00002570       ??_C@_0BG@CLMLOLAK@DdeCreateStringHandle?$AA@ 00438570     v5subs:client.obj
 0002:00002588       ??_C@_0L@DBNEMBMF@DCURVE?4TXT?$AA@ 00438588     v5subs:dcurve.obj
 0002:00002598       __real@3ee4f8b588e368f1    00438598     v5subs:ftoasc.obj
 0002:000025a0       __real@bee4f8b588e368f1    004385a0     v5subs:ftoasc.obj
 0002:000025b0       __xmm@80000000000000008000000000000000 004385b0     v5subs:ftoasc.obj
 0002:000025c8       ??_C@_07OOFFCIDH@ListBox?$AA@ 004385c8     v5subs:winsubs.obj
 0002:000025e8       ??_C@_03KOEHGMDN@Sun?$AA@  004385e8     v5subs:time.obj
 0002:000025ec       ??_C@_03PDAGKDH@Mon?$AA@   004385ec     v5subs:time.obj
 0002:000025f0       ??_C@_03NAGEINEP@Tue?$AA@  004385f0     v5subs:time.obj
 0002:000025f4       ??_C@_03MHOMLAJA@Wed?$AA@  004385f4     v5subs:time.obj
 0002:000025f8       ??_C@_03MBBJDJPK@Thr?$AA@  004385f8     v5subs:time.obj
 0002:000025fc       ??_C@_03IDIOELNC@Fri?$AA@  004385fc     v5subs:time.obj
 0002:00002600       ??_C@_03FEFJNEK@Sat?$AA@   00438600     v5subs:time.obj
 0002:00002604       ??_C@_03BBKEAIF@?$DP?$DP?$DP?$AA@ 00438604     v5subs:time.obj
 0002:0000260c       ??_C@_02KJIIBPBF@SU?$AA@   0043860c     v5subs:shift.obj
 0002:00002610       ??_C@_02PBNGLLE@MO?$AA@    00438610     v5subs:shift.obj
 0002:00002614       ??_C@_02KMMHAJJA@TU?$AA@   00438614     v5subs:shift.obj
 0002:00002618       ??_C@_02OEEDKFJI@WE?$AA@   00438618     v5subs:shift.obj
 0002:0000261c       ??_C@_02FDKLGFIM@TH?$AA@   0043861c     v5subs:shift.obj
 0002:00002620       ??_C@_02PMCEOIEJ@FR?$AA@   00438620     v5subs:shift.obj
 0002:00002624       ??_C@_02IHCGMIEA@SA?$AA@   00438624     v5subs:shift.obj
 0002:00002628       ??_C@_09CLOMDGHB@SHIFT?4TXT?$AA@ 00438628     v5subs:shift.obj
 0002:00002634       ??_C@_09LIKMICOD@UNITS?4TXT?$AA@ 00438634     v5subs:units.obj
 0002:00002640       ??_C@_03DIELNALK@jan?$AA@  00438640     v5subs:timeclas.obj
 0002:00002644       ??_C@_03NJCBIINC@feb?$AA@  00438644     v5subs:timeclas.obj
 0002:00002648       ??_C@_03EDOLLFFO@mar?$AA@  00438648     v5subs:timeclas.obj
 0002:0000264c       ??_C@_03BENJMDKB@apr?$AA@  0043864c     v5subs:timeclas.obj
 0002:00002650       ??_C@_03KABPGMJF@may?$AA@  00438650     v5subs:timeclas.obj
 0002:00002654       ??_C@_03CDGENLBG@jun?$AA@  00438654     v5subs:timeclas.obj
 0002:00002658       ??_C@_03BBFCLJJE@jul?$AA@  00438658     v5subs:timeclas.obj
 0002:0000265c       ??_C@_03CFKHOHFO@aug?$AA@  0043865c     v5subs:timeclas.obj
 0002:00002660       ??_C@_03MGBCFPKM@sep?$AA@  00438660     v5subs:timeclas.obj
 0002:00002664       ??_C@_03LMDMAODN@oct?$AA@  00438664     v5subs:timeclas.obj
 0002:00002668       ??_C@_03DPKMPCLO@nov?$AA@  00438668     v5subs:timeclas.obj
 0002:0000266c       ??_C@_03GKDDHBBI@dec?$AA@  0043866c     v5subs:timeclas.obj
 0002:00002670       ??_C@_07GICHFDO@SubMenu?$AA@ 00438670     v5subs:menuctrl.obj
 0002:00002678       ??_C@_0M@MBHOHLL@CONTROL?4TMP?$AA@ 00438678     v5subs:ftiiclas.obj
 0002:00002688       ??_7FTII_ARRAY_DATA@@6B@   00438688     v5subs:ftii_shot_data.obj
 0002:00002690       ??_7FTII_PROFILE@@6B@      00438690     v5subs:ftii_shot_data.obj
 0002:00002694       ??_C@_01IHBHIGKO@?0?$AA@   00438694     v5subs:ftii_shot_data.obj
 0002:00002698       ??_C@_02MJKFJHAM@02?$AA@   00438698     v5subs:dstat.obj
 0002:0000269c       ??_C@_0N@NEAIHGCO@FTANALOG?4TXT?$AA@ 0043869c     v5subs:ftanalog.obj
 0002:000026ac       ??_C@_0N@CHKFJEGL@FTANALOG?4CSV?$AA@ 004386ac     v5subs:ftanalog.obj
 0002:000026bc       ??_C@_0L@GHHOCNHO@FTCALC?4CSV?$AA@ 004386bc     v5subs:ftcalc.obj
 0002:000026c8       ??_C@_0M@CDONCHOF@RUNLIST?4CSV?$AA@ 004386c8     v5subs:runlist.obj
 0002:000026d4       ??_C@_0M@LGPMGILH@STDDOWN?4TXT?$AA@ 004386d4     v5subs:stddown.obj
 0002:000026e0       ??_C@_0M@OLPAACHI@DOWNCAT?4TXT?$AA@ 004386e0     v5subs:downsubs.obj
 0002:000026ec       ??_C@_0N@BPGPHCM@DOWNSCAT?4TXT?$AA@ 004386ec     v5subs:downsubs.obj
 0002:000026fc       ??_C@_0O@HECJKNFL@Downscatc?4txt?$AA@ 004386fc     v5subs:downsubs.obj
 0002:00002720       __real@3eb0c6f7a0b5ed8d    00438720     v5subs:zero.obj
 0002:00002728       __real@3f1a36e2eb1c432d    00438728     v5subs:zero.obj
 0002:00002730       __real@beb0c6f7a0b5ed8d    00438730     v5subs:zero.obj
 0002:00002738       __real@bf1a36e2eb1c432d    00438738     v5subs:zero.obj
 0002:00002740       ??_C@_0BB@JLFLKCC@EffPeakSkipCount?$AA@ 00438740     v5subs:ftii_parameters.obj
 0002:00002758       __real@40c3880000000000    00438758     v5subs:ftii_parameters.obj
 0002:00002760       ??_C@_0BB@HJPIEOB@Last?5Shot?5Number?$AA@ 00438760     v5subs:plookup.obj
 0002:00002774       ??_C@_04FMEGDJGD@Date?$AA@ 00438774     v5subs:plookup.obj
 0002:0000277c       ??_C@_04OKOFBOPB@Time?$AA@ 0043877c     v5subs:plookup.obj
 0002:00002784       ??_C@_0M@BJNLCCEC@plookup?4csv?$AA@ 00438784     v5subs:plookup.obj
 0002:00002794       ??_C@_02EOPBOLLC@dd?$AA@   00438794     v5subs:dynamic_file_name.obj
 0002:00002798       ??_C@_03IHKLECKE@mmm?$AA@  00438798     v5subs:dynamic_file_name.obj
 0002:0000279c       ??_C@_02JAOCGLHE@mm?$AA@   0043879c     v5subs:dynamic_file_name.obj
 0002:000027a0       ??_C@_02OLFOFNNK@hh?$AA@   004387a0     v5subs:dynamic_file_name.obj
 0002:000027a4       ??_C@_02PEIOKOHA@mi?$AA@   004387a4     v5subs:dynamic_file_name.obj
 0002:000027a8       ??_C@_01GOHFPIOK@m?$AA@    004387a8     v5subs:dynamic_file_name.obj
 0002:000027ac       ??_C@_01JBBJJEPG@p?$AA@    004387ac     v5subs:dynamic_file_name.obj
 0002:000027b0       ??_C@_01PAPGNFGE@c?$AA@    004387b0     v5subs:dynamic_file_name.obj
 0002:000027b4       ??_C@_04HOPFPECK@yyyy?$AA@ 004387b4     v5subs:dynamic_file_name.obj
 0002:000027bc       ??_C@_02KFGDLHIN@yy?$AA@   004387bc     v5subs:dynamic_file_name.obj
 0002:000027c0       ??_C@_01LKDEMHDF@s?$AA@    004387c0     v5subs:dynamic_file_name.obj
 0002:000027c4       ??_C@_02HHFHKOHM@?$DP?$DP?$AA@ 004387c4     v5subs:dynamic_file_name.obj
 0002:000027c8       ??_C@_0N@CBJFOMOL@OPERATOR?4TXT?$AA@ 004387c8     v5subs:workclas.obj
 0002:000027d8       ??_C@_05NAOIJFC@Error?$AA@ 004387d8     v5subs:error_ms.obj
 0002:000027e0       ??_C@_0L@MMOCAGKL@VisiErrors?$AA@ 004387e0     v5subs:error_ms.obj
 0002:000027ec       ??_C@_01NEMOKFLO@?$DN?$AA@ 004387ec     v5subs:error_ms.obj
 0002:000027f4       ??_7bad_alloc@std@@6B@     004387f4     LIBCMT:new.obj
 0002:000027fc       ??_C@_0P@GHFPNOJB@bad?5allocation?$AA@ 004387fc     LIBCMT:new.obj
 0002:00002810       ??_7type_info@@6B@         00438810     LIBCMT:typinfo.obj
 0002:00002814       __FPinit                   00438814     LIBCMT:fpinit.obj
 0002:0000294c       ??_7exception@std@@6B@     0043894c     LIBCMT:stdexcpt.obj
 0002:00002954       ??_C@_0BC@EOODALEL@Unknown?5exception?$AA@ 00438954     LIBCMT:stdexcpt.obj
 0002:00002988       ??_C@_1BI@BGOHAHKC@?$AAm?$AAs?$AAc?$AAo?$AAr?$AAe?$AAe?$AA?4?$AAd?$AAl?$AAl?$AA?$AA@ 00438988     LIBCMT:crt0dat.obj
 0002:000029a0       ??_C@_0P@MIGLKIOC@CorExitProcess?$AA@ 004389a0     LIBCMT:crt0dat.obj
 0002:000029b0       ??_C@_05KLBDPFGC@e?$CL000?$AA@ 004389b0     LIBCMT:cvt.obj
 0002:000029b8       __XcptActTab               004389b8     LIBCMT:winxfltr.obj
 0002:00002a48       __XcptActTabCount          00438a48     LIBCMT:winxfltr.obj
 0002:00002a4c       __XcptActTabSize           00438a4c     LIBCMT:winxfltr.obj
 0002:00002a50       __First_FPE_Indx           00438a50     LIBCMT:winxfltr.obj
 0002:00002a54       __Num_FPE                  00438a54     LIBCMT:winxfltr.obj
 0002:00002a58       ??_C@_1BK@MGMFAEKH@?$AAk?$AAe?$AAr?$AAn?$AAe?$AAl?$AA3?$AA2?$AA?4?$AAd?$AAl?$AAl?$AA?$AA@ 00438a58     LIBCMT:winapisupp.obj
 0002:00002a74       ??_C@_08KNHFBNJ@FlsAlloc?$AA@ 00438a74     LIBCMT:winapisupp.obj
 0002:00002a80       ??_C@_07PEJMOBNF@FlsFree?$AA@ 00438a80     LIBCMT:winapisupp.obj
 0002:00002a88       ??_C@_0M@GDNOONDI@FlsGetValue?$AA@ 00438a88     LIBCMT:winapisupp.obj
 0002:00002a94       ??_C@_0M@JCPCPOEF@FlsSetValue?$AA@ 00438a94     LIBCMT:winapisupp.obj
 0002:00002aa0       ??_C@_0BM@HCFOFFN@InitializeCriticalSectionEx?$AA@ 00438aa0     LIBCMT:winapisupp.obj
 0002:00002abc       ??_C@_0P@DLHPPCNH@CreateEventExW?$AA@ 00438abc     LIBCMT:winapisupp.obj
 0002:00002acc       ??_C@_0BD@KIEEOEEH@CreateSemaphoreExW?$AA@ 00438acc     LIBCMT:winapisupp.obj
 0002:00002ae0       ??_C@_0BI@BKLFFAPO@SetThreadStackGuarantee?$AA@ 00438ae0     LIBCMT:winapisupp.obj
 0002:00002af8       ??_C@_0BG@OGFAJCKC@CreateThreadpoolTimer?$AA@ 00438af8     LIBCMT:winapisupp.obj
 0002:00002b10       ??_C@_0BD@LPLEMMDI@SetThreadpoolTimer?$AA@ 00438b10     LIBCMT:winapisupp.obj
 0002:00002b24       ??_C@_0CA@FMNJENH@WaitForThreadpoolTimerCallbacks?$AA@ 00438b24     LIBCMT:winapisupp.obj
 0002:00002b44       ??_C@_0BF@DCFCCNOC@CloseThreadpoolTimer?$AA@ 00438b44     LIBCMT:winapisupp.obj
 0002:00002b5c       ??_C@_0BF@FLABGKKM@CreateThreadpoolWait?$AA@ 00438b5c     LIBCMT:winapisupp.obj
 0002:00002b74       ??_C@_0BC@MGCOHNA@SetThreadpoolWait?$AA@ 00438b74     LIBCMT:winapisupp.obj
 0002:00002b88       ??_C@_0BE@OCIOMIMP@CloseThreadpoolWait?$AA@ 00438b88     LIBCMT:winapisupp.obj
 0002:00002b9c       ??_C@_0BJ@LKGHFHBO@FlushProcessWriteBuffers?$AA@ 00438b9c     LIBCMT:winapisupp.obj
 0002:00002bb8       ??_C@_0BP@KALKKPMO@FreeLibraryWhenCallbackReturns?$AA@ 00438bb8     LIBCMT:winapisupp.obj
 0002:00002bd8       ??_C@_0BK@DFNBACLA@GetCurrentProcessorNumber?$AA@ 00438bd8     LIBCMT:winapisupp.obj
 0002:00002bf4       ??_C@_0BP@KHGALBC@GetLogicalProcessorInformation?$AA@ 00438bf4     LIBCMT:winapisupp.obj
 0002:00002c14       ??_C@_0BE@FKKLLFLM@CreateSymbolicLinkW?$AA@ 00438c14     LIBCMT:winapisupp.obj
 0002:00002c28       ??_C@_0BJ@OHNKDLIJ@SetDefaultDllDirectories?$AA@ 00438c28     LIBCMT:winapisupp.obj
 0002:00002c44       ??_C@_0BE@LJANKFHF@EnumSystemLocalesEx?$AA@ 00438c44     LIBCMT:winapisupp.obj
 0002:00002c58       ??_C@_0BA@IHGNDAEB@CompareStringEx?$AA@ 00438c58     LIBCMT:winapisupp.obj
 0002:00002c68       ??_C@_0BA@EPCJIIPD@GetDateFormatEx?$AA@ 00438c68     LIBCMT:winapisupp.obj
 0002:00002c78       ??_C@_0BA@ONOKGCMP@GetLocaleInfoEx?$AA@ 00438c78     LIBCMT:winapisupp.obj
 0002:00002c88       ??_C@_0BA@CIJJKCJJ@GetTimeFormatEx?$AA@ 00438c88     LIBCMT:winapisupp.obj
 0002:00002c98       ??_C@_0BJ@PBCCBIPI@GetUserDefaultLocaleName?$AA@ 00438c98     LIBCMT:winapisupp.obj
 0002:00002cb4       ??_C@_0BC@CELBKLLA@IsValidLocaleName?$AA@ 00438cb4     LIBCMT:winapisupp.obj
 0002:00002cc8       ??_C@_0O@KKBNKAPF@LCMapStringEx?$AA@ 00438cc8     LIBCMT:winapisupp.obj
 0002:00002cd8       ??_C@_0BE@JOGNEJCI@GetCurrentPackageId?$AA@ 00438cd8     LIBCMT:winapisupp.obj
 0002:00002cec       ??_C@_0P@CDHHOHKP@GetTickCount64?$AA@ 00438cec     LIBCMT:winapisupp.obj
 0002:00002cfc       ??_C@_0BO@KPCLFDJJ@GetFileInformationByHandleExW?$AA@ 00438cfc     LIBCMT:winapisupp.obj
 0002:00002d1c       ??_C@_0BM@MHIDLABK@SetFileInformationByHandleW?$AA@ 00438d1c     LIBCMT:winapisupp.obj
 0002:00002df0       ??_C@_1FK@PGACCAFB@?$AAR?$AA6?$AA0?$AA0?$AA2?$AA?$AN?$AA?6?$AA?9?$AA?5?$AAf?$AAl?$AAo?$AAa?$AAt?$AAi?$AAn?$AAg?$AA?5?$AAp?$AAo?$AAi?$AAn?$AAt?$AA?5?$AAs?$AAu?$AAp?$AAp?$AAo?$AAr?$AAt?$AA?5@ 00438df0     LIBCMT:crt0msg.obj
 0002:00002e50       ??_C@_1FE@LLNEDJMD@?$AAR?$AA6?$AA0?$AA0?$AA8?$AA?$AN?$AA?6?$AA?9?$AA?5?$AAn?$AAo?$AAt?$AA?5?$AAe?$AAn?$AAo?$AAu?$AAg?$AAh?$AA?5?$AAs?$AAp?$AAa?$AAc?$AAe?$AA?5?$AAf?$AAo?$AAr?$AA?5?$AAa?$AAr@ 00438e50     LIBCMT:crt0msg.obj
 0002:00002ea8       ??_C@_1FI@HONFMGBI@?$AAR?$AA6?$AA0?$AA0?$AA9?$AA?$AN?$AA?6?$AA?9?$AA?5?$AAn?$AAo?$AAt?$AA?5?$AAe?$AAn?$AAo?$AAu?$AAg?$AAh?$AA?5?$AAs?$AAp?$AAa?$AAc?$AAe?$AA?5?$AAf?$AAo?$AAr?$AA?5?$AAe?$AAn@ 00438ea8     LIBCMT:crt0msg.obj
 0002:00002f00       ??_C@_1EG@BEHAGFJD@?$AAR?$AA6?$AA0?$AA1?$AA0?$AA?$AN?$AA?6?$AA?9?$AA?5?$AAa?$AAb?$AAo?$AAr?$AAt?$AA?$CI?$AA?$CJ?$AA?5?$AAh?$AAa?$AAs?$AA?5?$AAb?$AAe?$AAe?$AAn?$AA?5?$AAc?$AAa?$AAl?$AAl?$AAe?$AAd@ 00438f00     LIBCMT:crt0msg.obj
 0002:00002f48       ??_C@_1FI@LOGNIKDM@?$AAR?$AA6?$AA0?$AA1?$AA6?$AA?$AN?$AA?6?$AA?9?$AA?5?$AAn?$AAo?$AAt?$AA?5?$AAe?$AAn?$AAo?$AAu?$AAg?$AAh?$AA?5?$AAs?$AAp?$AAa?$AAc?$AAe?$AA?5?$AAf?$AAo?$AAr?$AA?5?$AAt?$AAh@ 00438f48     LIBCMT:crt0msg.obj
 0002:00002fa0       ??_C@_1FK@BEOGODMC@?$AAR?$AA6?$AA0?$AA1?$AA7?$AA?$AN?$AA?6?$AA?9?$AA?5?$AAu?$AAn?$AAe?$AAx?$AAp?$AAe?$AAc?$AAt?$AAe?$AAd?$AA?5?$AAm?$AAu?$AAl?$AAt?$AAi?$AAt?$AAh?$AAr?$AAe?$AAa?$AAd?$AA?5@ 00438fa0     LIBCMT:crt0msg.obj
 0002:00003000       ??_C@_1EC@JIBHAOPH@?$AAR?$AA6?$AA0?$AA1?$AA8?$AA?$AN?$AA?6?$AA?9?$AA?5?$AAu?$AAn?$AAe?$AAx?$AAp?$AAe?$AAc?$AAt?$AAe?$AAd?$AA?5?$AAh?$AAe?$AAa?$AAp?$AA?5?$AAe?$AAr?$AAr?$AAo?$AAr?$AA?$AN?$AA?6@ 00439000     LIBCMT:crt0msg.obj
 0002:00003048       ??_C@_1FC@ECHBIFBC@?$AAR?$AA6?$AA0?$AA1?$AA9?$AA?$AN?$AA?6?$AA?9?$AA?5?$AAu?$AAn?$AAa?$AAb?$AAl?$AAe?$AA?5?$AAt?$AAo?$AA?5?$AAo?$AAp?$AAe?$AAn?$AA?5?$AAc?$AAo?$AAn?$AAs?$AAo?$AAl?$AAe?$AA?5@ 00439048     LIBCMT:crt0msg.obj
 0002:000030a0       ??_C@_1GK@FHCKBEFA@?$AAR?$AA6?$AA0?$AA2?$AA4?$AA?$AN?$AA?6?$AA?9?$AA?5?$AAn?$AAo?$AAt?$AA?5?$AAe?$AAn?$AAo?$AAu?$AAg?$AAh?$AA?5?$AAs?$AAp?$AAa?$AAc?$AAe?$AA?5?$AAf?$AAo?$AAr?$AA?5?$AA_?$AAo@ 004390a0     LIBCMT:crt0msg.obj
 0002:00003110       ??_C@_1EM@MAADIHMB@?$AAR?$AA6?$AA0?$AA2?$AA5?$AA?$AN?$AA?6?$AA?9?$AA?5?$AAp?$AAu?$AAr?$AAe?$AA?5?$AAv?$AAi?$AAr?$AAt?$AAu?$AAa?$AAl?$AA?5?$AAf?$AAu?$AAn?$AAc?$AAt?$AAi?$AAo?$AAn?$AA?5?$AAc@ 00439110     LIBCMT:crt0msg.obj
 0002:00003160       ??_C@_1GK@MCAAGJMO@?$AAR?$AA6?$AA0?$AA2?$AA6?$AA?$AN?$AA?6?$AA?9?$AA?5?$AAn?$AAo?$AAt?$AA?5?$AAe?$AAn?$AAo?$AAu?$AAg?$AAh?$AA?5?$AAs?$AAp?$AAa?$AAc?$AAe?$AA?5?$AAf?$AAo?$AAr?$AA?5?$AAs?$AAt@ 00439160     LIBCMT:crt0msg.obj
 0002:000031d0       ??_C@_1GK@MFGOKLAG@?$AAR?$AA6?$AA0?$AA2?$AA7?$AA?$AN?$AA?6?$AA?9?$AA?5?$AAn?$AAo?$AAt?$AA?5?$AAe?$AAn?$AAo?$AAu?$AAg?$AAh?$AA?5?$AAs?$AAp?$AAa?$AAc?$AAe?$AA?5?$AAf?$AAo?$AAr?$AA?5?$AAl?$AAo@ 004391d0     LIBCMT:crt0msg.obj
 0002:00003240       ??_C@_1EK@HHFLMAOL@?$AAR?$AA6?$AA0?$AA2?$AA8?$AA?$AN?$AA?6?$AA?9?$AA?5?$AAu?$AAn?$AAa?$AAb?$AAl?$AAe?$AA?5?$AAt?$AAo?$AA?5?$AAi?$AAn?$AAi?$AAt?$AAi?$AAa?$AAl?$AAi?$AAz?$AAe?$AA?5?$AAh?$AAe@ 00439240     LIBCMT:crt0msg.obj
 0002:0000328c       ??_C@_1DO@BMFCDCD@?$AAR?$AA6?$AA0?$AA3?$AA0?$AA?$AN?$AA?6?$AA?9?$AA?5?$AAC?$AAR?$AAT?$AA?5?$AAn?$AAo?$AAt?$AA?5?$AAi?$AAn?$AAi?$AAt?$AAi?$AAa?$AAl?$AAi?$AAz?$AAe?$AAd?$AA?$AN?$AA?6?$AA?$AA@ 0043928c     LIBCMT:crt0msg.obj
 0002:000032d0       ??_C@_1MG@ENCOOIDF@?$AAR?$AA6?$AA0?$AA3?$AA1?$AA?$AN?$AA?6?$AA?9?$AA?5?$AAA?$AAt?$AAt?$AAe?$AAm?$AAp?$AAt?$AA?5?$AAt?$AAo?$AA?5?$AAi?$AAn?$AAi?$AAt?$AAi?$AAa?$AAl?$AAi?$AAz?$AAe?$AA?5?$AAt@ 004392d0     LIBCMT:crt0msg.obj
 0002:00003398       ??_C@_1GG@GOPILAJP@?$AAR?$AA6?$AA0?$AA3?$AA2?$AA?$AN?$AA?6?$AA?9?$AA?5?$AAn?$AAo?$AAt?$AA?5?$AAe?$AAn?$AAo?$AAu?$AAg?$AAh?$AA?5?$AAs?$AAp?$AAa?$AAc?$AAe?$AA?5?$AAf?$AAo?$AAr?$AA?5?$AAl?$AAo@ 00439398     LIBCMT:crt0msg.obj
 0002:00003400       ??_C@_1BOO@KGEDBGAJ@?$AAR?$AA6?$AA0?$AA3?$AA3?$AA?$AN?$AA?6?$AA?9?$AA?5?$AAA?$AAt?$AAt?$AAe?$AAm?$AAp?$AAt?$AA?5?$AAt?$AAo?$AA?5?$AAu?$AAs?$AAe?$AA?5?$AAM?$AAS?$AAI?$AAL?$AA?5?$AAc?$AAo?$AAd@ 00439400     LIBCMT:crt0msg.obj
 0002:000035f0       ??_C@_1GG@MKFPEKFO@?$AAR?$AA6?$AA0?$AA3?$AA4?$AA?$AN?$AA?6?$AA?9?$AA?5?$AAi?$AAn?$AAc?$AAo?$AAn?$AAs?$AAi?$AAs?$AAt?$AAe?$AAn?$AAt?$AA?5?$AAo?$AAn?$AAe?$AAx?$AAi?$AAt?$AA?5?$AAb?$AAe?$AAg@ 004395f0     LIBCMT:crt0msg.obj
 0002:00003658       ??_C@_1BO@BFCDCGC@?$AAD?$AAO?$AAM?$AAA?$AAI?$AAN?$AA?5?$AAe?$AAr?$AAr?$AAo?$AAr?$AA?$AN?$AA?6?$AA?$AA@ 00439658     LIBCMT:crt0msg.obj
 0002:00003678       ??_C@_1BK@KMOMNAAI@?$AAS?$AAI?$AAN?$AAG?$AA?5?$AAe?$AAr?$AAr?$AAo?$AAr?$AA?$AN?$AA?6?$AA?$AA@ 00439678     LIBCMT:crt0msg.obj
 0002:00003694       ??_C@_1BM@JBBEPPHI@?$AAT?$AAL?$AAO?$AAS?$AAS?$AA?5?$AAe?$AAr?$AAr?$AAo?$AAr?$AA?$AN?$AA?6?$AA?$AA@ 00439694     LIBCMT:crt0msg.obj
 0002:000036b0       ??_C@_15JNBOKNOG@?$AA?$AN?$AA?6?$AA?$AA@ 004396b0     LIBCMT:crt0msg.obj
 0002:000036b8       ??_C@_1BO@BKOMIGKJ@?$AAr?$AAu?$AAn?$AAt?$AAi?$AAm?$AAe?$AA?5?$AAe?$AAr?$AAr?$AAo?$AAr?$AA?5?$AA?$AA@ 004396b8     LIBCMT:crt0msg.obj
 0002:000036d8       ??_C@_1DE@JNGNBFGO@?$AAR?$AAu?$AAn?$AAt?$AAi?$AAm?$AAe?$AA?5?$AAE?$AAr?$AAr?$AAo?$AAr?$AA?$CB?$AA?6?$AA?6?$AAP?$AAr?$AAo?$AAg?$AAr?$AAa?$AAm?$AA?3?$AA?5?$AA?$AA@ 004396d8     LIBCMT:crt0msg.obj
 0002:0000370c       ??_C@_1CO@EAEJAADC@?$AA?$DM?$AAp?$AAr?$AAo?$AAg?$AAr?$AAa?$AAm?$AA?5?$AAn?$AAa?$AAm?$AAe?$AA?5?$AAu?$AAn?$AAk?$AAn?$AAo?$AAw?$AAn?$AA?$DO?$AA?$AA@ 0043970c     LIBCMT:crt0msg.obj
 0002:0000373c       ??_C@_17LGKOMLJ@?$AA?4?$AA?4?$AA?4?$AA?$AA@ 0043973c     LIBCMT:crt0msg.obj
 0002:00003744       ??_C@_15IABLJNFO@?$AA?6?$AA?6?$AA?$AA@ 00439744     LIBCMT:crt0msg.obj
 0002:00003750       ??_C@_1EK@MBDPDCGA@?$AAM?$AAi?$AAc?$AAr?$AAo?$AAs?$AAo?$AAf?$AAt?$AA?5?$AAV?$AAi?$AAs?$AAu?$AAa?$AAl?$AA?5?$AAC?$AA?$CL?$AA?$CL?$AA?5?$AAR?$AAu?$AAn?$AAt?$AAi?$AAm?$AAe?$AA?5?$AAL?$AAi?$AAb@ 00439750     LIBCMT:crt0msg.obj
 0002:000037ac       ??_C@_1M@HPNHIDJI@?$AAj?$AAa?$AA?9?$AAJ?$AAP?$AA?$AA@ 004397ac     LIBCMT:mbctype.obj
 0002:000037b8       ??_C@_1M@BIBDDEMK@?$AAz?$AAh?$AA?9?$AAC?$AAN?$AA?$AA@ 004397b8     LIBCMT:mbctype.obj
 0002:000037c4       ??_C@_1M@JLOOOEGK@?$AAk?$AAo?$AA?9?$AAK?$AAR?$AA?$AA@ 004397c4     LIBCMT:mbctype.obj
 0002:000037d0       ??_C@_1M@CLNBBOPM@?$AAz?$AAh?$AA?9?$AAT?$AAW?$AA?$AA@ 004397d0     LIBCMT:mbctype.obj
 0002:000037dc       ??_C@_03IOFIKPDN@Thu?$AA@  004397dc     LIBCMT:nlsdata.obj
 0002:000037e0       ??_C@_06OOPIFAJ@Sunday?$AA@ 004397e0     LIBCMT:nlsdata.obj
 0002:000037e8       ??_C@_06JLEDEDGH@Monday?$AA@ 004397e8     LIBCMT:nlsdata.obj
 0002:000037f0       ??_C@_07BAAGCFCM@Tuesday?$AA@ 004397f0     LIBCMT:nlsdata.obj
 0002:000037f8       ??_C@_09DLIGFAKA@Wednesday?$AA@ 004397f8     LIBCMT:nlsdata.obj
 0002:00003804       ??_C@_08HACCIKIA@Thursday?$AA@ 00439804     LIBCMT:nlsdata.obj
 0002:00003810       ??_C@_06JECMNKMI@Friday?$AA@ 00439810     LIBCMT:nlsdata.obj
 0002:00003818       ??_C@_08INBOOONO@Saturday?$AA@ 00439818     LIBCMT:nlsdata.obj
 0002:00003824       ??_C@_03JIHJHPIE@Jan?$AA@  00439824     LIBCMT:nlsdata.obj
 0002:00003828       ??_C@_03HJBDCHOM@Feb?$AA@  00439828     LIBCMT:nlsdata.obj
 0002:0000382c       ??_C@_03ODNJBKGA@Mar?$AA@  0043982c     LIBCMT:nlsdata.obj
 0002:00003830       ??_C@_03LEOLGMJP@Apr?$AA@  00439830     LIBCMT:nlsdata.obj
 0002:00003834       ??_C@_03CNMDKL@May?$AA@    00439834     LIBCMT:nlsdata.obj
 0002:00003838       ??_C@_03IDFGHECI@Jun?$AA@  00439838     LIBCMT:nlsdata.obj
 0002:0000383c       ??_C@_03LBGABGKK@Jul?$AA@  0043983c     LIBCMT:nlsdata.obj
 0002:00003840       ??_C@_03IFJFEIGA@Aug?$AA@  00439840     LIBCMT:nlsdata.obj
 0002:00003844       ??_C@_03GGCAPAJC@Sep?$AA@  00439844     LIBCMT:nlsdata.obj
 0002:00003848       ??_C@_03BMAOKBAD@Oct?$AA@  00439848     LIBCMT:nlsdata.obj
 0002:0000384c       ??_C@_03JPJOFNIA@Nov?$AA@  0043984c     LIBCMT:nlsdata.obj
 0002:00003850       ??_C@_03MKABNOCG@Dec?$AA@  00439850     LIBCMT:nlsdata.obj
 0002:00003854       ??_C@_07CGJPFGJA@January?$AA@ 00439854     LIBCMT:nlsdata.obj
 0002:0000385c       ??_C@_08GNJGEPFN@February?$AA@ 0043985c     LIBCMT:nlsdata.obj
 0002:00003868       ??_C@_05HPCKOFNC@March?$AA@ 00439868     LIBCMT:nlsdata.obj
 0002:00003870       ??_C@_05DMJDNLEJ@April?$AA@ 00439870     LIBCMT:nlsdata.obj
 0002:00003878       ??_C@_04CNLMGBGM@June?$AA@ 00439878     LIBCMT:nlsdata.obj
 0002:00003880       ??_C@_04MIEPOIFP@July?$AA@ 00439880     LIBCMT:nlsdata.obj
 0002:00003888       ??_C@_06LBBHFDDG@August?$AA@ 00439888     LIBCMT:nlsdata.obj
 0002:00003890       ??_C@_09BHHEALKD@September?$AA@ 00439890     LIBCMT:nlsdata.obj
 0002:0000389c       ??_C@_07JJNFCEND@October?$AA@ 0043989c     LIBCMT:nlsdata.obj
 0002:000038a4       ??_C@_08HCHEGEOA@November?$AA@ 004398a4     LIBCMT:nlsdata.obj
 0002:000038b0       ??_C@_08EDHMEBNP@December?$AA@ 004398b0     LIBCMT:nlsdata.obj
 0002:000038bc       ??_C@_02DEDBPAFC@AM?$AA@   004398bc     LIBCMT:nlsdata.obj
 0002:000038c0       ??_C@_02CJNFDJBF@PM?$AA@   004398c0     LIBCMT:nlsdata.obj
 0002:000038c4       ??_C@_08BPBNCDIB@MM?1dd?1yy?$AA@ 004398c4     LIBCMT:nlsdata.obj
 0002:000038d0       ??_C@_0BE@CKGJFCPC@dddd?0?5MMMM?5dd?0?5yyyy?$AA@ 004398d0     LIBCMT:nlsdata.obj
 0002:000038e4       ??_C@_08JCCMCCIL@HH?3mm?3ss?$AA@ 004398e4     LIBCMT:nlsdata.obj
 0002:000038f0       ??_C@_17MBGCMIPB@?$AAS?$AAu?$AAn?$AA?$AA@ 004398f0     LIBCMT:nlsdata.obj
 0002:000038f8       ??_C@_17KBOMKBF@?$AAM?$AAo?$AAn?$AA?$AA@ 004398f8     LIBCMT:nlsdata.obj
 0002:00003900       ??_C@_17BMKGEGOJ@?$AAT?$AAu?$AAe?$AA?$AA@ 00439900     LIBCMT:nlsdata.obj
 0002:00003908       ??_C@_17CJEDCEPE@?$AAW?$AAe?$AAd?$AA?$AA@ 00439908     LIBCMT:nlsdata.obj
 0002:00003910       ??_C@_17PDPHAADD@?$AAT?$AAh?$AAu?$AA?$AA@ 00439910     LIBCMT:nlsdata.obj
 0002:00003918       ??_C@_17HFOLPPLP@?$AAF?$AAr?$AAi?$AA?$AA@ 00439918     LIBCMT:nlsdata.obj
 0002:00003920       ??_C@_17GGIBDPIH@?$AAS?$AAa?$AAt?$AA?$AA@ 00439920     LIBCMT:nlsdata.obj
 0002:00003928       ??_C@_1O@IHNHDHPB@?$AAS?$AAu?$AAn?$AAd?$AAa?$AAy?$AA?$AA@ 00439928     LIBCMT:nlsdata.obj
 0002:00003938       ??_C@_1O@MMNBFLIA@?$AAM?$AAo?$AAn?$AAd?$AAa?$AAy?$AA?$AA@ 00439938     LIBCMT:nlsdata.obj
 0002:00003948       ??_C@_1BA@ENFBFFEK@?$AAT?$AAu?$AAe?$AAs?$AAd?$AAa?$AAy?$AA?$AA@ 00439948     LIBCMT:nlsdata.obj
 0002:00003958       ??_C@_1BE@EBOGMDOH@?$AAW?$AAe?$AAd?$AAn?$AAe?$AAs?$AAd?$AAa?$AAy?$AA?$AA@ 00439958     LIBCMT:nlsdata.obj
 0002:0000396c       ??_C@_1BC@HHMNLIHE@?$AAT?$AAh?$AAu?$AAr?$AAs?$AAd?$AAa?$AAy?$AA?$AA@ 0043996c     LIBCMT:nlsdata.obj
 0002:00003980       ??_C@_1O@PDICJHAG@?$AAF?$AAr?$AAi?$AAd?$AAa?$AAy?$AA?$AA@ 00439980     LIBCMT:nlsdata.obj
 0002:00003990       ??_C@_1BC@ENMNNPAJ@?$AAS?$AAa?$AAt?$AAu?$AAr?$AAd?$AAa?$AAy?$AA?$AA@ 00439990     LIBCMT:nlsdata.obj
 0002:000039a4       ??_C@_17DKNBKCHM@?$AAJ?$AAa?$AAn?$AA?$AA@ 004399a4     LIBCMT:nlsdata.obj
 0002:000039ac       ??_C@_17LMDJEKJN@?$AAF?$AAe?$AAb?$AA?$AA@ 004399ac     LIBCMT:nlsdata.obj
 0002:000039b4       ??_C@_17CKNLEDEC@?$AAM?$AAa?$AAr?$AA?$AA@ 004399b4     LIBCMT:nlsdata.obj
 0002:000039bc       ??_C@_17LFPOIHDD@?$AAA?$AAp?$AAr?$AA?$AA@ 004399bc     LIBCMT:nlsdata.obj
 0002:000039c4       ??_C@_17PNNKMEED@?$AAM?$AAa?$AAy?$AA?$AA@ 004399c4     LIBCMT:nlsdata.obj
 0002:000039cc       ??_C@_17KCJGOCPB@?$AAJ?$AAu?$AAn?$AA?$AA@ 004399cc     LIBCMT:nlsdata.obj
 0002:000039d4       ??_C@_17IJPCKHK@?$AAJ?$AAu?$AAl?$AA?$AA@ 004399d4     LIBCMT:nlsdata.obj
 0002:000039dc       ??_C@_17ICPELBCN@?$AAA?$AAu?$AAg?$AA?$AA@ 004399dc     LIBCMT:nlsdata.obj
 0002:000039e4       ??_C@_17HCHCOKMG@?$AAS?$AAe?$AAp?$AA?$AA@ 004399e4     LIBCMT:nlsdata.obj
 0002:000039ec       ??_C@_17FNLKOI@?$AAO?$AAc?$AAt?$AA?$AA@ 004399ec     LIBCMT:nlsdata.obj
 0002:000039f4       ??_C@_17BBDMLCIG@?$AAN?$AAo?$AAv?$AA?$AA@ 004399f4     LIBCMT:nlsdata.obj
 0002:000039fc       ??_C@_17EGKACKIF@?$AAD?$AAe?$AAc?$AA?$AA@ 004399fc     LIBCMT:nlsdata.obj
 0002:00003a04       ??_C@_1BA@EFMEIEBA@?$AAJ?$AAa?$AAn?$AAu?$AAa?$AAr?$AAy?$AA?$AA@ 00439a04     LIBCMT:nlsdata.obj
 0002:00003a14       ??_C@_1BC@JGDDFFAM@?$AAF?$AAe?$AAb?$AAr?$AAu?$AAa?$AAr?$AAy?$AA?$AA@ 00439a14     LIBCMT:nlsdata.obj
 0002:00003a28       ??_C@_1M@IKEENEDF@?$AAM?$AAa?$AAr?$AAc?$AAh?$AA?$AA@ 00439a28     LIBCMT:nlsdata.obj
 0002:00003a34       ??_C@_1M@GJNLMHFD@?$AAA?$AAp?$AAr?$AAi?$AAl?$AA?$AA@ 00439a34     LIBCMT:nlsdata.obj
 0002:00003a40       ??_C@_19EPFLPGAP@?$AAJ?$AAu?$AAn?$AAe?$AA?$AA@ 00439a40     LIBCMT:nlsdata.obj
 0002:00003a4c       ??_C@_19BIFMLPCD@?$AAJ?$AAu?$AAl?$AAy?$AA?$AA@ 00439a4c     LIBCMT:nlsdata.obj
 0002:00003a58       ??_C@_1O@PAHLKOAC@?$AAA?$AAu?$AAg?$AAu?$AAs?$AAt?$AA?$AA@ 00439a58     LIBCMT:nlsdata.obj
 0002:00003a68       ??_C@_1BE@DKAAMBJL@?$AAS?$AAe?$AAp?$AAt?$AAe?$AAm?$AAb?$AAe?$AAr?$AA?$AA@ 00439a68     LIBCMT:nlsdata.obj
 0002:00003a7c       ??_C@_1BA@EPANDLNG@?$AAO?$AAc?$AAt?$AAo?$AAb?$AAe?$AAr?$AA?$AA@ 00439a7c     LIBCMT:nlsdata.obj
 0002:00003a8c       ??_C@_1BC@BGLIFPF@?$AAN?$AAo?$AAv?$AAe?$AAm?$AAb?$AAe?$AAr?$AA?$AA@ 00439a8c     LIBCMT:nlsdata.obj
 0002:00003aa0       ??_C@_1BC@FEMKIFH@?$AAD?$AAe?$AAc?$AAe?$AAm?$AAb?$AAe?$AAr?$AA?$AA@ 00439aa0     LIBCMT:nlsdata.obj
 0002:00003ab4       ??_C@_15ODEHAHHF@?$AAA?$AAM?$AA?$AA@ 00439ab4     LIBCMT:nlsdata.obj
 0002:00003abc       ??_C@_15CLMNNGEL@?$AAP?$AAM?$AA?$AA@ 00439abc     LIBCMT:nlsdata.obj
 0002:00003ac4       ??_C@_1BC@IEBCMHCM@?$AAM?$AAM?$AA?1?$AAd?$AAd?$AA?1?$AAy?$AAy?$AA?$AA@ 00439ac4     LIBCMT:nlsdata.obj
 0002:00003ad8       ??_C@_1CI@KNAKOEBC@?$AAd?$AAd?$AAd?$AAd?$AA?0?$AA?5?$AAM?$AAM?$AAM?$AAM?$AA?5?$AAd?$AAd?$AA?0?$AA?5?$AAy?$AAy?$AAy?$AAy?$AA?$AA@ 00439ad8     LIBCMT:nlsdata.obj
 0002:00003b00       ??_C@_1BC@GDGBMEMK@?$AAH?$AAH?$AA?3?$AAm?$AAm?$AA?3?$AAs?$AAs?$AA?$AA@ 00439b00     LIBCMT:nlsdata.obj
 0002:00003b14       ??_C@_1M@BMHNFIME@?$AAe?$AAn?$AA?9?$AAU?$AAS?$AA?$AA@ 00439b14     LIBCMT:nlsdata.obj
 0002:00003c08       ??_C@_03MGHMBJCF@log?$AA@  00439c08     LIBCMT:libm_error.obj
 0002:00003c0c       ??_C@_05HGHHAHAP@log10?$AA@ 00439c0c     LIBCMT:libm_error.obj
 0002:00003c14       ??_C@_03KHJOGHMM@exp?$AA@  00439c14     LIBCMT:libm_error.obj
 0002:00003c18       ??_C@_03JGHBODFD@pow?$AA@  00439c18     LIBCMT:libm_error.obj
 0002:00003c1c       ??_C@_04FIHNOPOL@asin?$AA@ 00439c1c     LIBCMT:libm_error.obj
 0002:00003c24       ??_C@_04PDIFKINK@acos?$AA@ 00439c24     LIBCMT:libm_error.obj
 0002:00003c2c       ??_C@_05EOHGHCHD@exp10?$AA@ 00439c2c     LIBCMT:libm_error.obj
 0002:00003c34       ??_C@_04MLLJIGOK@atan?$AA@ 00439c34     LIBCMT:libm_error.obj
 0002:00003c3c       ??_C@_04GFPJNGEK@ceil?$AA@ 00439c3c     LIBCMT:libm_error.obj
 0002:00003c44       ??_C@_05PBJFFIGL@floor?$AA@ 00439c44     LIBCMT:libm_error.obj
 0002:00003c4c       ??_C@_04EHEDPDJG@modf?$AA@ 00439c4c     LIBCMT:libm_error.obj
 0002:00003c54       ??_C@_03BLEJJJBH@sin?$AA@  00439c54     LIBCMT:libm_error.obj
 0002:00003c58       ??_C@_03LALBNOCG@cos?$AA@  00439c58     LIBCMT:libm_error.obj
 0002:00003c5c       ??_C@_03IIINPABG@tan?$AA@  00439c5c     LIBCMT:libm_error.obj
 0002:00003c60       ??_C@_04EIAKFFMI@sqrt?$AA@ 00439c60     LIBCMT:libm_error.obj
 0002:00003c68       ??_C@_04COOMCNPB@sinh?$AA@ 00439c68     LIBCMT:fpexcept.obj
 0002:00003c70       ??_C@_04HPJJNFIM@cosh?$AA@ 00439c70     LIBCMT:fpexcept.obj
 0002:00003c78       ??_C@_04FJHINJAO@tanh?$AA@ 00439c78     LIBCMT:fpexcept.obj
 0002:00003c80       ??_C@_05KNGEOGJB@atan2?$AA@ 00439c80     LIBCMT:fpexcept.obj
 0002:00003c88       ??_C@_04ODHECPBC@fabs?$AA@ 00439c88     LIBCMT:fpexcept.obj
 0002:00003c90       ??_C@_05CEJMAHNP@ldexp?$AA@ 00439c90     LIBCMT:fpexcept.obj
 0002:00003c98       ??_C@_05KBKMEMPO@_cabs?$AA@ 00439c98     LIBCMT:fpexcept.obj
 0002:00003ca0       ??_C@_06MEIMCGCF@_hypot?$AA@ 00439ca0     LIBCMT:fpexcept.obj
 0002:00003ca8       ??_C@_04KEPJIHGP@fmod?$AA@ 00439ca8     LIBCMT:fpexcept.obj
 0002:00003cb0       ??_C@_05GKKHEGJL@frexp?$AA@ 00439cb0     LIBCMT:fpexcept.obj
 0002:00003cb8       ??_C@_03MJLDFKDL@_y0?$AA@  00439cb8     LIBCMT:fpexcept.obj
 0002:00003cbc       ??_C@_03NAKIGLHK@_y1?$AA@  00439cbc     LIBCMT:fpexcept.obj
 0002:00003cc0       ??_C@_03ONILCKOB@_yn?$AA@  00439cc0     LIBCMT:fpexcept.obj
 0002:00003cc4       ??_C@_05JGDBENOH@_logb?$AA@ 00439cc4     LIBCMT:fpexcept.obj
 0002:00003ccc       ??_C@_0L@KDOEJCKC@_nextafter?$AA@ 00439ccc     LIBCMT:fpexcept.obj
 0002:00003e64       ??_C@_08EHJDFFNH@__based?$CI?$AA@ 00439e64     LIBCMT:undname.obj
 0002:00003e70       ??_C@_07KOLFKCDI@__cdecl?$AA@ 00439e70     LIBCMT:undname.obj
 0002:00003e78       ??_C@_08GHMPAG@__pascal?$AA@ 00439e78     LIBCMT:undname.obj
 0002:00003e84       ??_C@_09IFJBGAPI@__stdcall?$AA@ 00439e84     LIBCMT:undname.obj
 0002:00003e90       ??_C@_0L@NPHFGOKO@__thiscall?$AA@ 00439e90     LIBCMT:undname.obj
 0002:00003e9c       ??_C@_0L@JMKHOMEK@__fastcall?$AA@ 00439e9c     LIBCMT:undname.obj
 0002:00003ea8       ??_C@_0N@BCKKPABJ@__vectorcall?$AA@ 00439ea8     LIBCMT:undname.obj
 0002:00003eb8       ??_C@_09HIJEGCPM@__clrcall?$AA@ 00439eb8     LIBCMT:undname.obj
 0002:00003ec4       ??_C@_06GHPCKEAG@__eabi?$AA@ 00439ec4     LIBCMT:undname.obj
 0002:00003ecc       ??_C@_07JOMMBBKO@__ptr64?$AA@ 00439ecc     LIBCMT:undname.obj
 0002:00003ed4       ??_C@_0L@PILCLIHE@__restrict?$AA@ 00439ed4     LIBCMT:undname.obj
 0002:00003ee0       ??_C@_0M@GFIIJFMG@__unaligned?$AA@ 00439ee0     LIBCMT:undname.obj
 0002:00003eec       ??_C@_09DHDLOLLB@restrict?$CI?$AA@ 00439eec     LIBCMT:undname.obj
 0002:00003ef8       ??_C@_04NIHEBCM@?5new?$AA@ 00439ef8     LIBCMT:undname.obj
 0002:00003f00       ??_C@_07FPCDHGMM@?5delete?$AA@ 00439f00     LIBCMT:undname.obj
 0002:00003f08       ??_C@_02GPIOPFAK@?$DO?$DO?$AA@ 00439f08     LIBCMT:undname.obj
 0002:00003f0c       ??_C@_02FODMEDOG@?$DM?$DM?$AA@ 00439f0c     LIBCMT:undname.obj
 0002:00003f10       ??_C@_01DCLJPIOD@?$CB?$AA@ 00439f10     LIBCMT:undname.obj
 0002:00003f14       ??_C@_02EGOFBIJA@?$DN?$DN?$AA@ 00439f14     LIBCMT:undname.obj
 0002:00003f18       ??_C@_02FDNJECIE@?$CB?$DN?$AA@ 00439f18     LIBCMT:undname.obj
 0002:00003f1c       ??_C@_02GPECMEKF@?$FL?$FN?$AA@ 00439f1c     LIBCMT:undname.obj
 0002:00003f20       ??_C@_08LHJFAFGD@operator?$AA@ 00439f20     LIBCMT:undname.obj
 0002:00003f2c       ??_C@_02HBOOOICD@?9?$DO?$AA@ 00439f2c     LIBCMT:undname.obj
 0002:00003f30       ??_C@_01NBENCBCI@?$CK?$AA@ 00439f30     LIBCMT:undname.obj
 0002:00003f34       ??_C@_02ECNGHCIF@?$CL?$CL?$AA@ 00439f34     LIBCMT:undname.obj
 0002:00003f38       ??_C@_02BAABKJLB@?9?9?$AA@ 00439f38     LIBCMT:undname.obj
 0002:00003f3c       ??_C@_01JOAMLHOP@?9?$AA@   00439f3c     LIBCMT:undname.obj
 0002:00003f40       ??_C@_01MIFGBAGJ@?$CL?$AA@ 00439f40     LIBCMT:undname.obj
 0002:00003f44       ??_C@_01HNPIGOCE@?$CG?$AA@ 00439f44     LIBCMT:undname.obj
 0002:00003f48       ??_C@_03MNHNFDLC@?9?$DO?$CK?$AA@ 00439f48     LIBCMT:undname.obj
 0002:00003f4c       ??_C@_01KMDKNFGN@?1?$AA@   00439f4c     LIBCMT:undname.obj
 0002:00003f50       ??_C@_01FGNFDNOH@?$CF?$AA@ 00439f50     LIBCMT:undname.obj
 0002:00003f54       ??_C@_01MNNFJEPP@?$DM?$AA@ 00439f54     LIBCMT:undname.obj
 0002:00003f58       ??_C@_02EHCHHCKH@?$DM?$DN?$AA@ 00439f58     LIBCMT:undname.obj
 0002:00003f5c       ??_C@_01PPODPGHN@?$DO?$AA@ 00439f5c     LIBCMT:undname.obj
 0002:00003f60       ??_C@_02EEKDKGMJ@?$DO?$DN?$AA@ 00439f60     LIBCMT:undname.obj
 0002:00003f64       ??_C@_02HCKGKOFO@?$CI?$CJ?$AA@ 00439f64     LIBCMT:undname.obj
 0002:00003f68       ??_C@_01PJKLJHI@?$HO?$AA@  00439f68     LIBCMT:undname.obj
 0002:00003f6c       ??_C@_01JKBOJNNK@?$FO?$AA@ 00439f6c     LIBCMT:undname.obj
 0002:00003f70       ??_C@_01DNKMNLPK@?$HM?$AA@ 00439f70     LIBCMT:undname.obj
 0002:00003f74       ??_C@_02PPKAJPJL@?$CG?$CG?$AA@ 00439f74     LIBCMT:undname.obj
 0002:00003f78       ??_C@_02NONPIBCD@?$HM?$HM?$AA@ 00439f78     LIBCMT:undname.obj
 0002:00003f7c       ??_C@_02FPIMKNGF@?$CK?$DN?$AA@ 00439f7c     LIBCMT:undname.obj
 0002:00003f80       ??_C@_02FOEOMHFC@?$CL?$DN?$AA@ 00439f80     LIBCMT:undname.obj
 0002:00003f84       ??_C@_02FKMDLLOA@?9?$DN?$AA@ 00439f84     LIBCMT:undname.obj
 0002:00003f88       ??_C@_02FJEHGPIO@?1?$DN?$AA@ 00439f88     LIBCMT:undname.obj
 0002:00003f8c       ??_C@_02FENAOKFI@?$CF?$DN?$AA@ 00439f8c     LIBCMT:undname.obj
 0002:00003f90       ??_C@_03IKFCCPFF@?$DO?$DO?$DN?$AA@ 00439f90     LIBCMT:undname.obj
 0002:00003f94       ??_C@_03CDNPDDLA@?$DM?$DM?$DN?$AA@ 00439f94     LIBCMT:undname.obj
 0002:00003f98       ??_C@_02FGJGFEAB@?$CG?$DN?$AA@ 00439f98     LIBCMT:undname.obj
 0002:00003f9c       ??_C@_02DHLNPPGH@?$HM?$DN?$AA@ 00439f9c     LIBCMT:undname.obj
 0002:00003fa0       ??_C@_02MHEGNOJ@?$FO?$DN?$AA@ 00439fa0     LIBCMT:undname.obj
 0002:00003fa4       ??_C@_09IFPLHPGF@?$GAvftable?8?$AA@ 00439fa4     LIBCMT:undname.obj
 0002:00003fb0       ??_C@_09BLBHBJP@?$GAvbtable?8?$AA@ 00439fb0     LIBCMT:undname.obj
 0002:00003fbc       ??_C@_07FEEIOKP@?$GAvcall?8?$AA@ 00439fbc     LIBCMT:undname.obj
 0002:00003fc4       ??_C@_08LLFFHHDJ@?$GAtypeof?8?$AA@ 00439fc4     LIBCMT:undname.obj
 0002:00003fd0       ??_C@_0BF@KDPPACIK@?$GAlocal?5static?5guard?8?$AA@ 00439fd0     LIBCMT:undname.obj
 0002:00003fe8       ??_C@_08OBABFOLI@?$GAstring?8?$AA@ 00439fe8     LIBCMT:undname.obj
 0002:00003ff4       ??_C@_0BD@JDLKDPAB@?$GAvbase?5destructor?8?$AA@ 00439ff4     LIBCMT:undname.obj
 0002:00004008       ??_C@_0BN@DEGPLNFK@?$GAvector?5deleting?5destructor?8?$AA@ 0043a008     LIBCMT:undname.obj
 0002:00004028       ??_C@_0BO@OBMKPJIG@?$GAdefault?5constructor?5closure?8?$AA@ 0043a028     LIBCMT:undname.obj
 0002:00004048       ??_C@_0BN@IMDCHIKM@?$GAscalar?5deleting?5destructor?8?$AA@ 0043a048     LIBCMT:undname.obj
 0002:00004068       ??_C@_0BO@PFGOCPJJ@?$GAvector?5constructor?5iterator?8?$AA@ 0043a068     LIBCMT:undname.obj
 0002:00004088       ??_C@_0BN@LFPFMEDL@?$GAvector?5destructor?5iterator?8?$AA@ 0043a088     LIBCMT:undname.obj
 0002:000040a8       ??_C@_0CE@IKBNEHA@?$GAvector?5vbase?5constructor?5iterat@ 0043a0a8     LIBCMT:undname.obj
 0002:000040cc       ??_C@_0BL@NILFHHPC@?$GAvirtual?5displacement?5map?8?$AA@ 0043a0cc     LIBCMT:undname.obj
 0002:000040e8       ??_C@_0CB@JONCMFFK@?$GAeh?5vector?5constructor?5iterator?8@ 0043a0e8     LIBCMT:undname.obj
 0002:0000410c       ??_C@_0CA@GCEOPDGL@?$GAeh?5vector?5destructor?5iterator?8?$AA@ 0043a10c     LIBCMT:undname.obj
 0002:0000412c       ??_C@_0CH@OOJPLCPH@?$GAeh?5vector?5vbase?5constructor?5ite@ 0043a12c     LIBCMT:undname.obj
 0002:00004154       ??_C@_0BL@LLKPOHJI@?$GAcopy?5constructor?5closure?8?$AA@ 0043a154     LIBCMT:undname.obj
 0002:00004170       ??_C@_0BA@KBCDOMBN@?$GAudt?5returning?8?$AA@ 0043a170     LIBCMT:undname.obj
 0002:00004180       ??_C@_03KLGMFNMG@?$GAEH?$AA@ 0043a180     LIBCMT:undname.obj
 0002:00004184       ??_C@_05KHLCHHI@?$GARTTI?$AA@ 0043a184     LIBCMT:undname.obj
 0002:0000418c       ??_C@_0BA@KKLDJDLB@?$GAlocal?5vftable?8?$AA@ 0043a18c     LIBCMT:undname.obj
 0002:0000419c       ??_C@_0CE@IIHCMGGL@?$GAlocal?5vftable?5constructor?5closu@ 0043a19c     LIBCMT:undname.obj
 0002:000041c0       ??_C@_06FHBGPFGH@?5new?$FL?$FN?$AA@ 0043a1c0     LIBCMT:undname.obj
 0002:000041c8       ??_C@_09LBNFPBCA@?5delete?$FL?$FN?$AA@ 0043a1c8     LIBCMT:undname.obj
 0002:000041d4       ??_C@_0P@HJKNJFNN@?$GAomni?5callsig?8?$AA@ 0043a1d4     LIBCMT:undname.obj
 0002:000041e4       ??_C@_0BL@CNOONJFP@?$GAplacement?5delete?5closure?8?$AA@ 0043a1e4     LIBCMT:undname.obj
 0002:00004200       ??_C@_0BN@CKNJLHMB@?$GAplacement?5delete?$FL?$FN?5closure?8?$AA@ 0043a200     LIBCMT:undname.obj
 0002:00004220       ??_C@_0CG@CFDHKGGD@?$GAmanaged?5vector?5constructor?5iter@ 0043a220     LIBCMT:undname.obj
 0002:00004248       ??_C@_0CF@IMGKMJNO@?$GAmanaged?5vector?5destructor?5itera@ 0043a248     LIBCMT:undname.obj
 0002:00004270       ??_C@_0CG@HLDDJMAG@?$GAeh?5vector?5copy?5constructor?5iter@ 0043a270     LIBCMT:undname.obj
 0002:00004298       ??_C@_0CM@FCBBDIGB@?$GAeh?5vector?5vbase?5copy?5constructo@ 0043a298     LIBCMT:undname.obj
 0002:000042c4       ??_C@_0BL@CLIPGLGB@?$GAdynamic?5initializer?5for?5?8?$AA@ 0043a2c4     LIBCMT:undname.obj
 0002:000042e0       ??_C@_0CB@PDBIFEP@?$GAdynamic?5atexit?5destructor?5for?5?8@ 0043a2e0     LIBCMT:undname.obj
 0002:00004304       ??_C@_0CD@CGAJBKEJ@?$GAvector?5copy?5constructor?5iterato@ 0043a304     LIBCMT:undname.obj
 0002:00004328       ??_C@_0CJ@GJELGAMM@?$GAvector?5vbase?5copy?5constructor?5i@ 0043a328     LIBCMT:undname.obj
 0002:00004354       ??_C@_0CL@FGIJHLCE@?$GAmanaged?5vector?5copy?5constructor@ 0043a354     LIBCMT:undname.obj
 0002:00004380       ??_C@_0BM@PMGGMLDN@?$GAlocal?5static?5thread?5guard?8?$AA@ 0043a380     LIBCMT:undname.obj
 0002:0000439c       ??_C@_0BC@DAFEJGAK@?5Type?5Descriptor?8?$AA@ 0043a39c     LIBCMT:undname.obj
 0002:000043b0       ??_C@_0BM@LDKODKLH@?5Base?5Class?5Descriptor?5at?5?$CI?$AA@ 0043a3b0     LIBCMT:undname.obj
 0002:000043cc       ??_C@_0BD@LGICGFMM@?5Base?5Class?5Array?8?$AA@ 0043a3cc     LIBCMT:undname.obj
 0002:000043e0       ??_C@_0BN@MECKDCOJ@?5Class?5Hierarchy?5Descriptor?8?$AA@ 0043a3e0     LIBCMT:undname.obj
 0002:00004400       ??_C@_0BK@CFCOFLF@?5Complete?5Object?5Locator?8?$AA@ 0043a400     LIBCMT:undname.obj
 0002:0000441c       ??_C@_1BG@GOEBHBDC@?$AAU?$AAS?$AAE?$AAR?$AA3?$AA2?$AA?4?$AAD?$AAL?$AAL?$AA?$AA@ 0043a41c     LIBCMT:crtmboxw.obj
 0002:00004434       ??_C@_0M@DLDCCGNP@MessageBoxW?$AA@ 0043a434     LIBCMT:crtmboxw.obj
 0002:00004440       ??_C@_0BA@HNOPNCHB@GetActiveWindow?$AA@ 0043a440     LIBCMT:crtmboxw.obj
 0002:00004450       ??_C@_0BD@HHGDFDBJ@GetLastActivePopup?$AA@ 0043a450     LIBCMT:crtmboxw.obj
 0002:00004464       ??_C@_0BK@DEKFELLI@GetUserObjectInformationW?$AA@ 0043a464     LIBCMT:crtmboxw.obj
 0002:00004480       ??_C@_0BI@DFKBFLJE@GetProcessWindowStation?$AA@ 0043a480     LIBCMT:crtmboxw.obj
 0002:00004498       ___newctype                0043a498     LIBCMT:ctype.obj
 0002:00004798       __wctype                   0043a798     LIBCMT:ctype.obj
 0002:000049a0       ___newclmap                0043a9a0     LIBCMT:ctype.obj
 0002:00004b20       ___newcumap                0043ab20     LIBCMT:ctype.obj
 0002:00004ca0       ??_C@_15PJPFLCCM@?$AAu?$AAk?$AA?$AA@ 0043aca0     LIBCMT:getqloc.obj
 0002:00004ca8       ___rg_language_count       0043aca8     LIBCMT:getqloc.obj
 0002:00004cac       ___rg_country_count        0043acac     LIBCMT:getqloc.obj
 0002:00004cb0       _LcidToLocaleNameTable     0043acb0     LIBCMT:winapinls.obj
 0002:000053d0       _LocaleNameToIndexTable    0043b3d0     LIBCMT:winapinls.obj
 0002:00005af0       ??_C@_15EMKDOKLE@?$AAa?$AAr?$AA?$AA@ 0043baf0     LIBCMT:winapinls.obj
 0002:00005af8       ??_C@_15KNPADPLH@?$AAb?$AAg?$AA?$AA@ 0043baf8     LIBCMT:winapinls.obj
 0002:00005b00       ??_C@_15EDMHLDMO@?$AAc?$AAa?$AA?$AA@ 0043bb00     LIBCMT:winapinls.obj
 0002:00005b08       ??_C@_1O@BPEAJADD@?$AAz?$AAh?$AA?9?$AAC?$AAH?$AAS?$AA?$AA@ 0043bb08     LIBCMT:winapinls.obj
 0002:00005b18       ??_C@_15LJNHCMNK@?$AAc?$AAs?$AA?$AA@ 0043bb18     LIBCMT:winapinls.obj
 0002:00005b20       ??_C@_15FOMCIDHG@?$AAd?$AAa?$AA?$AA@ 0043bb20     LIBCMT:winapinls.obj
 0002:00005b28       ??_C@_15NBKABECB@?$AAd?$AAe?$AA?$AA@ 0043bb28     LIBCMT:winapinls.obj
 0002:00005b30       ??_C@_15GHPEIIAO@?$AAe?$AAl?$AA?$AA@ 0043bb30     LIBCMT:winapinls.obj
 0002:00005b38       ??_C@_15MNPNEAIF@?$AAe?$AAn?$AA?$AA@ 0043bb38     LIBCMT:winapinls.obj
 0002:00005b40       ??_C@_15GPIOMPMH@?$AAe?$AAs?$AA?$AA@ 0043bb40     LIBCMT:winapinls.obj
 0002:00005b48       ??_C@_15NGLOAKJC@?$AAf?$AAi?$AA?$AA@ 0043bb48     LIBCMT:winapinls.obj
 0002:00005b50       ??_C@_15FBKGNKAM@?$AAf?$AAr?$AA?$AA@ 0043bb50     LIBCMT:winapinls.obj
 0002:00005b58       ??_C@_15KGGCNEFK@?$AAh?$AAe?$AA?$AA@ 0043bb58     LIBCMT:winapinls.obj
 0002:00005b60       ??_C@_15PGHLIDMF@?$AAh?$AAu?$AA?$AA@ 0043bb60     LIBCMT:winapinls.obj
 0002:00005b68       ??_C@_15BIEMAPLM@?$AAi?$AAs?$AA?$AA@ 0043bb68     LIBCMT:winapinls.obj
 0002:00005b70       ??_C@_15IFJLDHAF@?$AAi?$AAt?$AA?$AA@ 0043bb70     LIBCMT:winapinls.obj
 0002:00005b78       ??_C@_15GEMIOCAG@?$AAj?$AAa?$AA?$AA@ 0043bb78     LIBCMT:winapinls.obj
 0002:00005b80       ??_C@_15EPELEGJA@?$AAk?$AAo?$AA?$AA@ 0043bb80     LIBCMT:winapinls.obj
 0002:00005b88       ??_C@_15NDDHIMN@?$AAn?$AAl?$AA?$AA@ 0043bb88     LIBCMT:winapinls.obj
 0002:00005b90       ??_C@_15BPIGNHCD@?$AAn?$AAo?$AA?$AA@ 0043bb90     LIBCMT:winapinls.obj
 0002:00005b98       ??_C@_15DEOPBLCG@?$AAp?$AAl?$AA?$AA@ 0043bb98     LIBCMT:winapinls.obj
 0002:00005ba0       ??_C@_15KBECGEFG@?$AAp?$AAt?$AA?$AA@ 0043bba0     LIBCMT:winapinls.obj
 0002:00005ba8       ??_C@_15GLJCBFMD@?$AAr?$AAo?$AA?$AA@ 0043bba8     LIBCMT:winapinls.obj
 0002:00005bb0       ??_C@_15FEDGKCDI@?$AAr?$AAu?$AA?$AA@ 0043bbb0     LIBCMT:winapinls.obj
 0002:00005bb8       ??_C@_15GLKMLLHM@?$AAh?$AAr?$AA?$AA@ 0043bbb8     LIBCMT:winapinls.obj
 0002:00005bc0       ??_C@_15CPKMFBDB@?$AAs?$AAk?$AA?$AA@ 0043bbc0     LIBCMT:winapinls.obj
 0002:00005bc8       ??_C@_15BAAIOGMK@?$AAs?$AAq?$AA?$AA@ 0043bbc8     LIBCMT:winapinls.obj
 0002:00005bd0       ??_C@_15INNPNOHD@?$AAs?$AAv?$AA?$AA@ 0043bbd0     LIBCMT:winapinls.obj
 0002:00005bd8       ??_C@_15CABMMOGH@?$AAt?$AAh?$AA?$AA@ 0043bbd8     LIBCMT:winapinls.obj
 0002:00005be0       ??_C@_15BPLIHJJM@?$AAt?$AAr?$AA?$AA@ 0043bbe0     LIBCMT:winapinls.obj
 0002:00005be8       ??_C@_15NEOEKKDJ@?$AAu?$AAr?$AA?$AA@ 0043bbe8     LIBCMT:winapinls.obj
 0002:00005bf0       ??_C@_15NFICGAJK@?$AAi?$AAd?$AA?$AA@ 0043bbf0     LIBCMT:winapinls.obj
 0002:00005bf8       ??_C@_15HPJPHDM@?$AAb?$AAe?$AA?$AA@ 0043bbf8     LIBCMT:winapinls.obj
 0002:00005c00       ??_C@_15LCHLGJII@?$AAs?$AAl?$AA?$AA@ 0043bc00     LIBCMT:winapinls.obj
 0002:00005c08       ??_C@_15PCFJPHHO@?$AAe?$AAt?$AA?$AA@ 0043bc08     LIBCMT:winapinls.obj
 0002:00005c10       ??_C@_15HPFPGODN@?$AAl?$AAv?$AA?$AA@ 0043bc10     LIBCMT:winapinls.obj
 0002:00005c18       ??_C@_15NFFGKGLG@?$AAl?$AAt?$AA?$AA@ 0043bc18     LIBCMT:winapinls.obj
 0002:00005c20       ??_C@_15BDAKCCHN@?$AAf?$AAa?$AA?$AA@ 0043bc20     LIBCMT:winapinls.obj
 0002:00005c28       ??_C@_15NFGIAIAJ@?$AAv?$AAi?$AA?$AA@ 0043bc28     LIBCMT:winapinls.obj
 0002:00005c30       ??_C@_15LMKNDMHN@?$AAh?$AAy?$AA?$AA@ 0043bc30     LIBCMT:winapinls.obj
 0002:00005c38       ??_C@_15IJBHMCFL@?$AAa?$AAz?$AA?$AA@ 0043bc38     LIBCMT:winapinls.obj
 0002:00005c40       ??_C@_15EKOFJABL@?$AAe?$AAu?$AA?$AA@ 0043bc40     LIBCMT:winapinls.obj
 0002:00005c48       ??_C@_15BGHADCNK@?$AAm?$AAk?$AA?$AA@ 0043bc48     LIBCMT:winapinls.obj
 0002:00005c50       ??_C@_15JDNICKHM@?$AAa?$AAf?$AA?$AA@ 0043bc50     LIBCMT:winapinls.obj
 0002:00005c58       ??_C@_15KPJEDBKD@?$AAk?$AAa?$AA?$AA@ 0043bc58     LIBCMT:winapinls.obj
 0002:00005c60       ??_C@_15PDNFFFEO@?$AAf?$AAo?$AA?$AA@ 0043bc60     LIBCMT:winapinls.obj
 0002:00005c68       ??_C@_15OMLEGLOC@?$AAh?$AAi?$AA?$AA@ 0043bc68     LIBCMT:winapinls.obj
 0002:00005c70       ??_C@_15IDNNENKK@?$AAm?$AAs?$AA?$AA@ 0043bc70     LIBCMT:winapinls.obj
 0002:00005c78       ??_C@_15MACJNBMH@?$AAk?$AAk?$AA?$AA@ 0043bc78     LIBCMT:winapinls.obj
 0002:00005c80       ??_C@_15DKDJEOND@?$AAk?$AAy?$AA?$AA@ 0043bc80     LIBCMT:winapinls.obj
 0002:00005c88       ??_C@_15DFGDLJBG@?$AAs?$AAw?$AA?$AA@ 0043bc88     LIBCMT:winapinls.obj
 0002:00005c90       ??_C@_15BBFAICNG@?$AAu?$AAz?$AA?$AA@ 0043bc90     LIBCMT:winapinls.obj
 0002:00005c98       ??_C@_15DKNDCGEA@?$AAt?$AAt?$AA?$AA@ 0043bc98     LIBCMT:winapinls.obj
 0002:00005ca0       ??_C@_15MGIFMDPL@?$AAp?$AAa?$AA?$AA@ 0043bca0     LIBCMT:winapinls.obj
 0002:00005ca8       ??_C@_15HCNDBBA@?$AAg?$AAu?$AA?$AA@ 0043bca8     LIBCMT:winapinls.obj
 0002:00005cb0       ??_C@_15FNBEIBON@?$AAt?$AAa?$AA?$AA@ 0043bcb0     LIBCMT:winapinls.obj
 0002:00005cb8       ??_C@_15NCHGBGLK@?$AAt?$AAe?$AA?$AA@ 0043bcb8     LIBCMT:winapinls.obj
 0002:00005cc0       ??_C@_15PHPHCBPF@?$AAk?$AAn?$AA?$AA@ 0043bcc0     LIBCMT:winapinls.obj
 0002:00005cc8       ??_C@_15DLGBCKMP@?$AAm?$AAr?$AA?$AA@ 0043bcc8     LIBCMT:winapinls.obj
 0002:00005cd0       ??_C@_15EABBLBFF@?$AAs?$AAa?$AA?$AA@ 0043bcd0     LIBCMT:winapinls.obj
 0002:00005cd8       ??_C@_15CBKOMCOI@?$AAm?$AAn?$AA?$AA@ 0043bcd8     LIBCMT:winapinls.obj
 0002:00005ce0       ??_C@_15CKDMCJAF@?$AAg?$AAl?$AA?$AA@ 0043bce0     LIBCMT:winapinls.obj
 0002:00005ce8       ??_C@_17CNJFBPG@?$AAk?$AAo?$AAk?$AA?$AA@ 0043bce8     LIBCMT:winapinls.obj
 0002:00005cf0       ??_C@_17FFBJICPL@?$AAs?$AAy?$AAr?$AA?$AA@ 0043bcf0     LIBCMT:winapinls.obj
 0002:00005cf8       ??_C@_17KPNDCPAF@?$AAd?$AAi?$AAv?$AA?$AA@ 0043bcf8     LIBCMT:winapinls.obj
 0002:00005d00       ??_C@_11LOCGONAA@?$AA?$AA@ 0043bd00     LIBCMT:winapinls.obj
 0002:00005d04       ??_C@_1M@OKAHONE@?$AAa?$AAr?$AA?9?$AAS?$AAA?$AA?$AA@ 0043bd04     LIBCMT:winapinls.obj
 0002:00005d10       ??_C@_1M@FFFIGIGK@?$AAb?$AAg?$AA?9?$AAB?$AAG?$AA?$AA@ 0043bd10     LIBCMT:winapinls.obj
 0002:00005d1c       ??_C@_1M@BJNKEDC@?$AAc?$AAa?$AA?9?$AAE?$AAS?$AA?$AA@ 0043bd1c     LIBCMT:winapinls.obj
 0002:00005d28       ??_C@_1M@IJJHFJHA@?$AAc?$AAs?$AA?9?$AAC?$AAZ?$AA?$AA@ 0043bd28     LIBCMT:winapinls.obj
 0002:00005d34       ??_C@_1M@CLPEOBGI@?$AAd?$AAa?$AA?9?$AAD?$AAK?$AA?$AA@ 0043bd34     LIBCMT:winapinls.obj
 0002:00005d40       ??_C@_1M@MCMADGCB@?$AAd?$AAe?$AA?9?$AAD?$AAE?$AA?$AA@ 0043bd40     LIBCMT:winapinls.obj
 0002:00005d4c       ??_C@_1M@OOCKEMAM@?$AAe?$AAl?$AA?9?$AAG?$AAR?$AA?$AA@ 0043bd4c     LIBCMT:winapinls.obj
 0002:00005d58       ??_C@_1M@DDNJFGID@?$AAf?$AAi?$AA?9?$AAF?$AAI?$AA?$AA@ 0043bd58     LIBCMT:winapinls.obj
 0002:00005d64       ??_C@_1M@GLIPPMAC@?$AAf?$AAr?$AA?9?$AAF?$AAR?$AA?$AA@ 0043bd64     LIBCMT:winapinls.obj
 0002:00005d70       ??_C@_1M@GFMCHPE@?$AAh?$AAe?$AA?9?$AAI?$AAL?$AA?$AA@ 0043bd70     LIBCMT:winapinls.obj
 0002:00005d7c       ??_C@_1M@MHLPGNKM@?$AAh?$AAu?$AA?9?$AAH?$AAU?$AA?$AA@ 0043bd7c     LIBCMT:winapinls.obj
 0002:00005d88       ??_C@_1M@LPDDNNPN@?$AAi?$AAs?$AA?9?$AAI?$AAS?$AA?$AA@ 0043bd88     LIBCMT:winapinls.obj
 0002:00005d94       ??_C@_1M@MADIPODN@?$AAi?$AAt?$AA?9?$AAI?$AAT?$AA?$AA@ 0043bd94     LIBCMT:winapinls.obj
 0002:00005da0       ??_C@_1M@IHBJJGG@?$AAn?$AAl?$AA?9?$AAN?$AAL?$AA?$AA@ 0043bda0     LIBCMT:winapinls.obj
 0002:00005dac       ??_C@_1M@EANAGDL@?$AAn?$AAb?$AA?9?$AAN?$AAO?$AA?$AA@ 0043bdac     LIBCMT:winapinls.obj
 0002:00005db8       ??_C@_1M@NEIEMEGP@?$AAp?$AAl?$AA?9?$AAP?$AAL?$AA?$AA@ 0043bdb8     LIBCMT:winapinls.obj
 0002:00005dc4       ??_C@_1M@BOCFIGEP@?$AAp?$AAt?$AA?9?$AAB?$AAR?$AA?$AA@ 0043bdc4     LIBCMT:winapinls.obj
 0002:00005dd0       ??_C@_1M@IMPFOPBG@?$AAr?$AAo?$AA?9?$AAR?$AAO?$AA?$AA@ 0043bdd0     LIBCMT:winapinls.obj
 0002:00005ddc       ??_C@_1M@IDNNEJMM@?$AAr?$AAu?$AA?9?$AAR?$AAU?$AA?$AA@ 0043bddc     LIBCMT:winapinls.obj
 0002:00005de8       ??_C@_1M@LILEEOGM@?$AAh?$AAr?$AA?9?$AAH?$AAR?$AA?$AA@ 0043bde8     LIBCMT:winapinls.obj
 0002:00005df4       ??_C@_1M@FKIFEHPB@?$AAs?$AAk?$AA?9?$AAS?$AAK?$AA?$AA@ 0043bdf4     LIBCMT:winapinls.obj
 0002:00005e00       ??_C@_1M@LJMAMNPJ@?$AAs?$AAq?$AA?9?$AAA?$AAL?$AA?$AA@ 0043be00     LIBCMT:winapinls.obj
 0002:00005e0c       ??_C@_1M@GIAKDKJK@?$AAs?$AAv?$AA?9?$AAS?$AAE?$AA?$AA@ 0043be0c     LIBCMT:winapinls.obj
 0002:00005e18       ??_C@_1M@MKJKIKCL@?$AAt?$AAh?$AA?9?$AAT?$AAH?$AA?$AA@ 0043be18     LIBCMT:winapinls.obj
 0002:00005e24       ??_C@_1M@MFLCCMPB@?$AAt?$AAr?$AA?9?$AAT?$AAR?$AA?$AA@ 0043be24     LIBCMT:winapinls.obj
 0002:00005e30       ??_C@_1M@OIJHDKJN@?$AAu?$AAr?$AA?9?$AAP?$AAK?$AA?$AA@ 0043be30     LIBCMT:winapinls.obj
 0002:00005e3c       ??_C@_1M@LHIPCIEK@?$AAi?$AAd?$AA?9?$AAI?$AAD?$AA?$AA@ 0043be3c     LIBCMT:winapinls.obj
 0002:00005e48       ??_C@_1M@MFMOBGI@?$AAu?$AAk?$AA?9?$AAU?$AAA?$AA?$AA@ 0043be48     LIBCMT:winapinls.obj
 0002:00005e54       ??_C@_1M@OBGLJIPL@?$AAb?$AAe?$AA?9?$AAB?$AAY?$AA?$AA@ 0043be54     LIBCMT:winapinls.obj
 0002:00005e60       ??_C@_1M@BCFAJEAD@?$AAs?$AAl?$AA?9?$AAS?$AAI?$AA?$AA@ 0043be60     LIBCMT:winapinls.obj
 0002:00005e6c       ??_C@_1M@FKFFEDDN@?$AAe?$AAt?$AA?9?$AAE?$AAE?$AA?$AA@ 0043be6c     LIBCMT:winapinls.obj
 0002:00005e78       ??_C@_1M@KGKKAACI@?$AAl?$AAv?$AA?9?$AAL?$AAV?$AA?$AA@ 0043be78     LIBCMT:winapinls.obj
 0002:00005e84       ??_C@_1M@IFGBIJO@?$AAl?$AAt?$AA?9?$AAL?$AAT?$AA?$AA@ 0043be84     LIBCMT:winapinls.obj
 0002:00005e90       ??_C@_1M@FGEAHEDM@?$AAf?$AAa?$AA?9?$AAI?$AAR?$AA?$AA@ 0043be90     LIBCMT:winapinls.obj
 0002:00005e9c       ??_C@_1M@KBMAIBFN@?$AAv?$AAi?$AA?9?$AAV?$AAN?$AA?$AA@ 0043be9c     LIBCMT:winapinls.obj
 0002:00005ea8       ??_C@_1M@GPCBKDJK@?$AAh?$AAy?$AA?9?$AAA?$AAM?$AA?$AA@ 0043bea8     LIBCMT:winapinls.obj
 0002:00005eb4       ??_C@_1BG@BECMDDJB@?$AAa?$AAz?$AA?9?$AAA?$AAZ?$AA?9?$AAL?$AAa?$AAt?$AAn?$AA?$AA@ 0043beb4     LIBCMT:winapinls.obj
 0002:00005ecc       ??_C@_1M@MAOFCAEA@?$AAe?$AAu?$AA?9?$AAE?$AAS?$AA?$AA@ 0043becc     LIBCMT:winapinls.obj
 0002:00005ed8       ??_C@_1M@IGHABKPI@?$AAm?$AAk?$AA?9?$AAM?$AAK?$AA?$AA@ 0043bed8     LIBCMT:winapinls.obj
 0002:00005ee4       ??_C@_1M@IAIGNEJG@?$AAt?$AAn?$AA?9?$AAZ?$AAA?$AA?$AA@ 0043bee4     LIBCMT:winapinls.obj
 0002:00005ef0       ??_C@_1M@IIJCOJFA@?$AAx?$AAh?$AA?9?$AAZ?$AAA?$AA?$AA@ 0043bef0     LIBCMT:winapinls.obj
 0002:00005efc       ??_C@_1M@LGPJHNJH@?$AAz?$AAu?$AA?9?$AAZ?$AAA?$AA?$AA@ 0043befc     LIBCMT:winapinls.obj
 0002:00005f08       ??_C@_1M@HOKAOIO@?$AAa?$AAf?$AA?9?$AAZ?$AAA?$AA?$AA@ 0043bf08     LIBCMT:winapinls.obj
 0002:00005f14       ??_C@_1M@DPCLHLIE@?$AAk?$AAa?$AA?9?$AAG?$AAE?$AA?$AA@ 0043bf14     LIBCMT:winapinls.obj
 0002:00005f20       ??_C@_1M@BLKMHJBI@?$AAf?$AAo?$AA?9?$AAF?$AAO?$AA?$AA@ 0043bf20     LIBCMT:winapinls.obj
 0002:00005f2c       ??_C@_1M@LGGJAPPB@?$AAh?$AAi?$AA?9?$AAI?$AAN?$AA?$AA@ 0043bf2c     LIBCMT:winapinls.obj
 0002:00005f38       ??_C@_1M@FIKPIHFE@?$AAm?$AAt?$AA?9?$AAM?$AAT?$AA?$AA@ 0043bf38     LIBCMT:winapinls.obj
 0002:00005f44       ??_C@_1M@HEGGPBFA@?$AAs?$AAe?$AA?9?$AAN?$AAO?$AA?$AA@ 0043bf44     LIBCMT:winapinls.obj
 0002:00005f50       ??_C@_1M@EIBJEEPA@?$AAm?$AAs?$AA?9?$AAM?$AAY?$AA?$AA@ 0043bf50     LIBCMT:winapinls.obj
 0002:00005f5c       ??_C@_1M@FHLBGMPP@?$AAk?$AAk?$AA?9?$AAK?$AAZ?$AA?$AA@ 0043bf5c     LIBCMT:winapinls.obj
 0002:00005f68       ??_C@_1M@NGJJLCGI@?$AAk?$AAy?$AA?9?$AAK?$AAG?$AA?$AA@ 0043bf68     LIBCMT:winapinls.obj
 0002:00005f74       ??_C@_1M@GIENNBFC@?$AAs?$AAw?$AA?9?$AAK?$AAE?$AA?$AA@ 0043bf74     LIBCMT:winapinls.obj
 0002:00005f80       ??_C@_1BG@NDGMJIMJ@?$AAu?$AAz?$AA?9?$AAU?$AAZ?$AA?9?$AAL?$AAa?$AAt?$AAn?$AA?$AA@ 0043bf80     LIBCMT:winapinls.obj
 0002:00005f98       ??_C@_1M@IDCCIHBC@?$AAt?$AAt?$AA?9?$AAR?$AAU?$AA?$AA@ 0043bf98     LIBCMT:winapinls.obj
 0002:00005fa4       ??_C@_1M@LOICPMOJ@?$AAb?$AAn?$AA?9?$AAI?$AAN?$AA?$AA@ 0043bfa4     LIBCMT:winapinls.obj
 0002:00005fb0       ??_C@_1M@KPKKNEAH@?$AAp?$AAa?$AA?9?$AAI?$AAN?$AA?$AA@ 0043bfb0     LIBCMT:winapinls.obj
 0002:00005fbc       ??_C@_1M@PJGPPBOG@?$AAg?$AAu?$AA?9?$AAI?$AAN?$AA?$AA@ 0043bfbc     LIBCMT:winapinls.obj
 0002:00005fc8       ??_C@_1M@KMKMOPHI@?$AAt?$AAa?$AA?9?$AAI?$AAN?$AA?$AA@ 0043bfc8     LIBCMT:winapinls.obj
 0002:00005fd4       ??_C@_1M@KFEHEPAC@?$AAt?$AAe?$AA?9?$AAI?$AAN?$AA?$AA@ 0043bfd4     LIBCMT:winapinls.obj
 0002:00005fe0       ??_C@_1M@CDCLMGHI@?$AAk?$AAn?$AA?9?$AAI?$AAN?$AA?$AA@ 0043bfe0     LIBCMT:winapinls.obj
 0002:00005fec       ??_C@_1M@MIODLDKF@?$AAm?$AAl?$AA?9?$AAI?$AAN?$AA?$AA@ 0043bfec     LIBCMT:winapinls.obj
 0002:00005ff8       ??_C@_1M@PBIEACPO@?$AAm?$AAr?$AA?9?$AAI?$AAN?$AA?$AA@ 0043bff8     LIBCMT:winapinls.obj
 0002:00006004       ??_C@_1M@NIDEAGPH@?$AAs?$AAa?$AA?9?$AAI?$AAN?$AA?$AA@ 0043c004     LIBCMT:winapinls.obj
 0002:00006010       ??_C@_1M@FHIHCBIO@?$AAm?$AAn?$AA?9?$AAM?$AAN?$AA?$AA@ 0043c010     LIBCMT:winapinls.obj
 0002:0000601c       ??_C@_1M@JAIJPENP@?$AAc?$AAy?$AA?9?$AAG?$AAB?$AA?$AA@ 0043c01c     LIBCMT:winapinls.obj
 0002:00006028       ??_C@_1M@PHGFBEPN@?$AAg?$AAl?$AA?9?$AAE?$AAS?$AA?$AA@ 0043c028     LIBCMT:winapinls.obj
 0002:00006034       ??_C@_1O@KPIPDNCP@?$AAk?$AAo?$AAk?$AA?9?$AAI?$AAN?$AA?$AA@ 0043c034     LIBCMT:winapinls.obj
 0002:00006044       ??_C@_1O@KNHJLDJA@?$AAs?$AAy?$AAr?$AA?9?$AAS?$AAY?$AA?$AA@ 0043c044     LIBCMT:winapinls.obj
 0002:00006054       ??_C@_1O@MKEKBLAH@?$AAd?$AAi?$AAv?$AA?9?$AAM?$AAV?$AA?$AA@ 0043c054     LIBCMT:winapinls.obj
 0002:00006064       ??_C@_1O@OHDCKDDF@?$AAq?$AAu?$AAz?$AA?9?$AAB?$AAO?$AA?$AA@ 0043c064     LIBCMT:winapinls.obj
 0002:00006074       ??_C@_1M@LEPJNLFD@?$AAn?$AAs?$AA?9?$AAZ?$AAA?$AA?$AA@ 0043c074     LIBCMT:winapinls.obj
 0002:00006080       ??_C@_1M@OMLEIIJB@?$AAm?$AAi?$AA?9?$AAN?$AAZ?$AA?$AA@ 0043c080     LIBCMT:winapinls.obj
 0002:0000608c       ??_C@_1M@PMPEAILG@?$AAa?$AAr?$AA?9?$AAI?$AAQ?$AA?$AA@ 0043c08c     LIBCMT:winapinls.obj
 0002:00006098       ??_C@_1M@CNKPNOEE@?$AAd?$AAe?$AA?9?$AAC?$AAH?$AA?$AA@ 0043c098     LIBCMT:winapinls.obj
 0002:000060a4       ??_C@_1M@LKMGMLKO@?$AAe?$AAn?$AA?9?$AAG?$AAB?$AA?$AA@ 0043c0a4     LIBCMT:winapinls.obj
 0002:000060b0       ??_C@_1M@PGKJFFGL@?$AAe?$AAs?$AA?9?$AAM?$AAX?$AA?$AA@ 0043c0b0     LIBCMT:winapinls.obj
 0002:000060bc       ??_C@_1M@DNNANBDC@?$AAf?$AAr?$AA?9?$AAB?$AAE?$AA?$AA@ 0043c0bc     LIBCMT:winapinls.obj
 0002:000060c8       ??_C@_1M@HLGMDFHM@?$AAi?$AAt?$AA?9?$AAC?$AAH?$AA?$AA@ 0043c0c8     LIBCMT:winapinls.obj
 0002:000060d4       ??_C@_1M@CLLBGJH@?$AAn?$AAl?$AA?9?$AAB?$AAE?$AA?$AA@ 0043c0d4     LIBCMT:winapinls.obj
 0002:000060e0       ??_C@_1M@BODBOGLF@?$AAn?$AAn?$AA?9?$AAN?$AAO?$AA?$AA@ 0043c0e0     LIBCMT:winapinls.obj
 0002:000060ec       ??_C@_1M@HFFAHKAD@?$AAp?$AAt?$AA?9?$AAP?$AAT?$AA?$AA@ 0043c0ec     LIBCMT:winapinls.obj
 0002:000060f8       ??_C@_1BG@LNOAKHIE@?$AAs?$AAr?$AA?9?$AAS?$AAP?$AA?9?$AAL?$AAa?$AAt?$AAn?$AA?$AA@ 0043c0f8     LIBCMT:winapinls.obj
 0002:00006110       ??_C@_1M@HBMHBGAK@?$AAs?$AAv?$AA?9?$AAF?$AAI?$AA?$AA@ 0043c110     LIBCMT:winapinls.obj
 0002:0000611c       ??_C@_1BG@DGCJGJBE@?$AAa?$AAz?$AA?9?$AAA?$AAZ?$AA?9?$AAC?$AAy?$AAr?$AAl?$AA?$AA@ 0043c11c     LIBCMT:winapinls.obj
 0002:00006134       ??_C@_1M@KEJDAAHB@?$AAs?$AAe?$AA?9?$AAS?$AAE?$AA?$AA@ 0043c134     LIBCMT:winapinls.obj
 0002:00006140       ??_C@_1M@HEIBJJAD@?$AAm?$AAs?$AA?9?$AAB?$AAN?$AA?$AA@ 0043c140     LIBCMT:winapinls.obj
 0002:0000614c       ??_C@_1BG@PBGJMCEM@?$AAu?$AAz?$AA?9?$AAU?$AAZ?$AA?9?$AAC?$AAy?$AAr?$AAl?$AA?$AA@ 0043c14c     LIBCMT:winapinls.obj
 0002:00006164       ??_C@_1O@LAOBCMDF@?$AAq?$AAu?$AAz?$AA?9?$AAE?$AAC?$AA?$AA@ 0043c164     LIBCMT:winapinls.obj
 0002:00006174       ??_C@_1M@POEEMAIO@?$AAa?$AAr?$AA?9?$AAE?$AAG?$AA?$AA@ 0043c174     LIBCMT:winapinls.obj
 0002:00006180       ??_C@_1M@EFAKDEDL@?$AAz?$AAh?$AA?9?$AAH?$AAK?$AA?$AA@ 0043c180     LIBCMT:winapinls.obj
 0002:0000618c       ??_C@_1M@HKKIJHGI@?$AAd?$AAe?$AA?9?$AAA?$AAT?$AA?$AA@ 0043c18c     LIBCMT:winapinls.obj
 0002:00006198       ??_C@_1M@KBFBEHJF@?$AAe?$AAn?$AA?9?$AAA?$AAU?$AA?$AA@ 0043c198     LIBCMT:winapinls.obj
 0002:000061a4       ??_C@_1M@MNPLFAAH@?$AAe?$AAs?$AA?9?$AAE?$AAS?$AA?$AA@ 0043c1a4     LIBCMT:winapinls.obj
 0002:000061b0       ??_C@_1M@HJOOJFMA@?$AAf?$AAr?$AA?9?$AAC?$AAA?$AA?$AA@ 0043c1b0     LIBCMT:winapinls.obj
 0002:000061bc       ??_C@_1BG@JPOFPNAB@?$AAs?$AAr?$AA?9?$AAS?$AAP?$AA?9?$AAC?$AAy?$AAr?$AAl?$AA?$AA@ 0043c1bc     LIBCMT:winapinls.obj
 0002:000061d4       ??_C@_1M@LNFOCMOB@?$AAs?$AAe?$AA?9?$AAF?$AAI?$AA?$AA@ 0043c1d4     LIBCMT:winapinls.obj
 0002:000061e0       ??_C@_1O@MGJBOAMB@?$AAq?$AAu?$AAz?$AA?9?$AAP?$AAE?$AA?$AA@ 0043c1e0     LIBCMT:winapinls.obj
 0002:000061f0       ??_C@_1M@GJINLBOK@?$AAa?$AAr?$AA?9?$AAL?$AAY?$AA?$AA@ 0043c1f0     LIBCMT:winapinls.obj
 0002:000061fc       ??_C@_1M@GGMNHJNL@?$AAz?$AAh?$AA?9?$AAS?$AAG?$AA?$AA@ 0043c1fc     LIBCMT:winapinls.obj
 0002:00006208       ??_C@_1M@HOIKODND@?$AAd?$AAe?$AA?9?$AAL?$AAU?$AA?$AA@ 0043c208     LIBCMT:winapinls.obj
 0002:00006214       ??_C@_1M@DDOCCGFG@?$AAe?$AAn?$AA?9?$AAC?$AAA?$AA?$AA@ 0043c214     LIBCMT:winapinls.obj
 0002:00006220       ??_C@_1M@BNOEMJLF@?$AAe?$AAs?$AA?9?$AAG?$AAT?$AA?$AA@ 0043c220     LIBCMT:winapinls.obj
 0002:0000622c       ??_C@_1M@EOGNKEK@?$AAf?$AAr?$AA?9?$AAC?$AAH?$AA?$AA@ 0043c22c     LIBCMT:winapinls.obj
 0002:00006238       ??_C@_1M@FLIDJFHL@?$AAh?$AAr?$AA?9?$AAB?$AAA?$AA?$AA@ 0043c238     LIBCMT:winapinls.obj
 0002:00006244       ??_C@_1O@FMCELNAJ@?$AAs?$AAm?$AAj?$AA?9?$AAN?$AAO?$AA?$AA@ 0043c244     LIBCMT:winapinls.obj
 0002:00006254       ??_C@_1M@JHGLJMGJ@?$AAa?$AAr?$AA?9?$AAD?$AAZ?$AA?$AA@ 0043c254     LIBCMT:winapinls.obj
 0002:00006260       ??_C@_1M@JKKFDCNP@?$AAz?$AAh?$AA?9?$AAM?$AAO?$AA?$AA@ 0043c260     LIBCMT:winapinls.obj
 0002:0000626c       ??_C@_1M@GEEFALPE@?$AAd?$AAe?$AA?9?$AAL?$AAI?$AA?$AA@ 0043c26c     LIBCMT:winapinls.obj
 0002:00006278       ??_C@_1M@IGEOFBG@?$AAe?$AAn?$AA?9?$AAN?$AAZ?$AA?$AA@ 0043c278     LIBCMT:winapinls.obj
 0002:00006284       ??_C@_1M@KDBONEHP@?$AAe?$AAs?$AA?9?$AAC?$AAR?$AA?$AA@ 0043c284     LIBCMT:winapinls.obj
 0002:00006290       ??_C@_1M@FHMDOHNN@?$AAf?$AAr?$AA?9?$AAL?$AAU?$AA?$AA@ 0043c290     LIBCMT:winapinls.obj
 0002:0000629c       ??_C@_1BG@NFKKMAFG@?$AAb?$AAs?$AA?9?$AAB?$AAA?$AA?9?$AAL?$AAa?$AAt?$AAn?$AA?$AA@ 0043c29c     LIBCMT:winapinls.obj
 0002:000062b4       ??_C@_1O@IMNBEMCI@?$AAs?$AAm?$AAj?$AA?9?$AAS?$AAE?$AA?$AA@ 0043c2b4     LIBCMT:winapinls.obj
 0002:000062c4       ??_C@_1M@DHHMBNDP@?$AAa?$AAr?$AA?9?$AAM?$AAA?$AA?$AA@ 0043c2c4     LIBCMT:winapinls.obj
 0002:000062d0       ??_C@_1M@BNBLJCGH@?$AAe?$AAn?$AA?9?$AAI?$AAE?$AA?$AA@ 0043c2d0     LIBCMT:winapinls.obj
 0002:000062dc       ??_C@_1M@GEPAFMDL@?$AAe?$AAs?$AA?9?$AAP?$AAA?$AA?$AA@ 0043c2dc     LIBCMT:winapinls.obj
 0002:000062e8       ??_C@_1M@OJONDMDL@?$AAf?$AAr?$AA?9?$AAM?$AAC?$AA?$AA@ 0043c2e8     LIBCMT:winapinls.obj
 0002:000062f4       ??_C@_1BG@OBCNFJB@?$AAs?$AAr?$AA?9?$AAB?$AAA?$AA?9?$AAL?$AAa?$AAt?$AAn?$AA?$AA@ 0043c2f4     LIBCMT:winapinls.obj
 0002:0000630c       ??_C@_1O@KEMEEGPO@?$AAs?$AAm?$AAa?$AA?9?$AAN?$AAO?$AA?$AA@ 0043c30c     LIBCMT:winapinls.obj
 0002:0000631c       ??_C@_1M@ELMGFODK@?$AAa?$AAr?$AA?9?$AAT?$AAN?$AA?$AA@ 0043c31c     LIBCMT:winapinls.obj
 0002:00006328       ??_C@_1M@BHDLHFAF@?$AAe?$AAn?$AA?9?$AAZ?$AAA?$AA?$AA@ 0043c328     LIBCMT:winapinls.obj
 0002:00006334       ??_C@_1M@BMGIGLIF@?$AAe?$AAs?$AA?9?$AAD?$AAO?$AA?$AA@ 0043c334     LIBCMT:winapinls.obj
 0002:00006340       ??_C@_1BG@CMBHIPBE@?$AAs?$AAr?$AA?9?$AAB?$AAA?$AA?9?$AAC?$AAy?$AAr?$AAl?$AA?$AA@ 0043c340     LIBCMT:winapinls.obj
 0002:00006358       ??_C@_1O@HEDBLHNP@?$AAs?$AAm?$AAa?$AA?9?$AAS?$AAE?$AA?$AA@ 0043c358     LIBCMT:winapinls.obj
 0002:00006368       ??_C@_1M@DAGCADIM@?$AAa?$AAr?$AA?9?$AAO?$AAM?$AA?$AA@ 0043c368     LIBCMT:winapinls.obj
 0002:00006374       ??_C@_1M@FODLMICG@?$AAe?$AAn?$AA?9?$AAJ?$AAM?$AA?$AA@ 0043c374     LIBCMT:winapinls.obj
 0002:00006380       ??_C@_1M@DNMLCIHB@?$AAe?$AAs?$AA?9?$AAV?$AAE?$AA?$AA@ 0043c380     LIBCMT:winapinls.obj
 0002:0000638c       ??_C@_1O@EOKHMKJK@?$AAs?$AAm?$AAs?$AA?9?$AAF?$AAI?$AA?$AA@ 0043c38c     LIBCMT:winapinls.obj
 0002:0000639c       ??_C@_1M@CAFJMKOF@?$AAa?$AAr?$AA?9?$AAY?$AAE?$AA?$AA@ 0043c39c     LIBCMT:winapinls.obj
 0002:000063a8       ??_C@_1M@CBFHIJLI@?$AAe?$AAn?$AA?9?$AAC?$AAB?$AA?$AA@ 0043c3a8     LIBCMT:winapinls.obj
 0002:000063b4       ??_C@_1M@BGNFLDN@?$AAe?$AAs?$AA?9?$AAC?$AAO?$AA?$AA@ 0043c3b4     LIBCMT:winapinls.obj
 0002:000063c0       ??_C@_1O@JMPHMAMC@?$AAs?$AAm?$AAn?$AA?9?$AAF?$AAI?$AA?$AA@ 0043c3c0     LIBCMT:winapinls.obj
 0002:000063d0       ??_C@_1M@JLANABKE@?$AAa?$AAr?$AA?9?$AAS?$AAY?$AA?$AA@ 0043c3d0     LIBCMT:winapinls.obj
 0002:000063dc       ??_C@_1M@HPKGCFGN@?$AAe?$AAn?$AA?9?$AAB?$AAZ?$AA?$AA@ 0043c3dc     LIBCMT:winapinls.obj
 0002:000063e8       ??_C@_1M@OLJCMLGM@?$AAe?$AAs?$AA?9?$AAP?$AAE?$AA?$AA@ 0043c3e8     LIBCMT:winapinls.obj
 0002:000063f4       ??_C@_1M@MKKGFKLE@?$AAa?$AAr?$AA?9?$AAJ?$AAO?$AA?$AA@ 0043c3f4     LIBCMT:winapinls.obj
 0002:00006400       ??_C@_1M@EKPGLDNI@?$AAe?$AAn?$AA?9?$AAT?$AAT?$AA?$AA@ 0043c400     LIBCMT:winapinls.obj
 0002:0000640c       ??_C@_1M@OONGHFHE@?$AAe?$AAs?$AA?9?$AAA?$AAR?$AA?$AA@ 0043c40c     LIBCMT:winapinls.obj
 0002:00006418       ??_C@_1M@OOJFGBHE@?$AAa?$AAr?$AA?9?$AAL?$AAB?$AA?$AA@ 0043c418     LIBCMT:winapinls.obj
 0002:00006424       ??_C@_1M@GCEJHNEG@?$AAe?$AAn?$AA?9?$AAZ?$AAW?$AA?$AA@ 0043c424     LIBCMT:winapinls.obj
 0002:00006430       ??_C@_1M@JNOCAHJI@?$AAe?$AAs?$AA?9?$AAE?$AAC?$AA?$AA@ 0043c430     LIBCMT:winapinls.obj
 0002:0000643c       ??_C@_1M@JEFHPGGB@?$AAa?$AAr?$AA?9?$AAK?$AAW?$AA?$AA@ 0043c43c     LIBCMT:winapinls.obj
 0002:00006448       ??_C@_1M@MLKIBJOJ@?$AAe?$AAn?$AA?9?$AAP?$AAH?$AA?$AA@ 0043c448     LIBCMT:winapinls.obj
 0002:00006454       ??_C@_1M@BDNIPEND@?$AAe?$AAs?$AA?9?$AAC?$AAL?$AA?$AA@ 0043c454     LIBCMT:winapinls.obj
 0002:00006460       ??_C@_1M@MPNMEKBD@?$AAa?$AAr?$AA?9?$AAA?$AAE?$AA?$AA@ 0043c460     LIBCMT:winapinls.obj
 0002:0000646c       ??_C@_1M@KBJALCPI@?$AAe?$AAs?$AA?9?$AAU?$AAY?$AA?$AA@ 0043c46c     LIBCMT:winapinls.obj
 0002:00006478       ??_C@_1M@LLCCOAGA@?$AAa?$AAr?$AA?9?$AAB?$AAH?$AA?$AA@ 0043c478     LIBCMT:winapinls.obj
 0002:00006484       ??_C@_1M@PBFNCDEL@?$AAe?$AAs?$AA?9?$AAP?$AAY?$AA?$AA@ 0043c484     LIBCMT:winapinls.obj
 0002:00006490       ??_C@_1M@EDGINPNP@?$AAa?$AAr?$AA?9?$AAQ?$AAA?$AA?$AA@ 0043c490     LIBCMT:winapinls.obj
 0002:0000649c       ??_C@_1M@MKDBIIJI@?$AAe?$AAs?$AA?9?$AAB?$AAO?$AA?$AA@ 0043c49c     LIBCMT:winapinls.obj
 0002:000064a8       ??_C@_1M@CPKKEBLD@?$AAe?$AAs?$AA?9?$AAS?$AAV?$AA?$AA@ 0043c4a8     LIBCMT:winapinls.obj
 0002:000064b4       ??_C@_1M@NDBGMMJL@?$AAe?$AAs?$AA?9?$AAH?$AAN?$AA?$AA@ 0043c4b4     LIBCMT:winapinls.obj
 0002:000064c0       ??_C@_1M@JIJIBHDP@?$AAe?$AAs?$AA?9?$AAN?$AAI?$AA?$AA@ 0043c4c0     LIBCMT:winapinls.obj
 0002:000064cc       ??_C@_1M@CGFMKEEK@?$AAe?$AAs?$AA?9?$AAP?$AAR?$AA?$AA@ 0043c4cc     LIBCMT:winapinls.obj
 0002:000064d8       ??_C@_1O@ICJHKIIK@?$AAz?$AAh?$AA?9?$AAC?$AAH?$AAT?$AA?$AA@ 0043c4d8     LIBCMT:winapinls.obj
 0002:000064e8       ??_C@_15CLNEJCE@?$AAs?$AAr?$AA?$AA@ 0043c4e8     LIBCMT:winapinls.obj
 0002:000064f0       ??_C@_1M@KAHEKEIG@?$AAa?$AAf?$AA?9?$AAz?$AAa?$AA?$AA@ 0043c4f0     LIBCMT:winapinls.obj
 0002:000064fc       ??_C@_1M@GIECOABL@?$AAa?$AAr?$AA?9?$AAa?$AAe?$AA?$AA@ 0043c4fc     LIBCMT:winapinls.obj
 0002:00006508       ??_C@_1M@BMLMEKGI@?$AAa?$AAr?$AA?9?$AAb?$AAh?$AA?$AA@ 0043c508     LIBCMT:winapinls.obj
 0002:00006514       ??_C@_1M@DAPFDGGB@?$AAa?$AAr?$AA?9?$AAd?$AAz?$AA?$AA@ 0043c514     LIBCMT:winapinls.obj
 0002:00006520       ??_C@_1M@FJNKGKIG@?$AAa?$AAr?$AA?9?$AAe?$AAg?$AA?$AA@ 0043c520     LIBCMT:winapinls.obj
 0002:0000652c       ??_C@_1M@FLGKKCLO@?$AAa?$AAr?$AA?9?$AAi?$AAq?$AA?$AA@ 0043c52c     LIBCMT:winapinls.obj
 0002:00006538       ??_C@_1M@GNDIPALM@?$AAa?$AAr?$AA?9?$AAj?$AAo?$AA?$AA@ 0043c538     LIBCMT:winapinls.obj
 0002:00006544       ??_C@_1M@DDMJFMGJ@?$AAa?$AAr?$AA?9?$AAk?$AAw?$AA?$AA@ 0043c544     LIBCMT:winapinls.obj
 0002:00006550       ??_C@_1M@EJALMLHM@?$AAa?$AAr?$AA?9?$AAl?$AAb?$AA?$AA@ 0043c550     LIBCMT:winapinls.obj
 0002:0000655c       ??_C@_1M@MOBDBLOC@?$AAa?$AAr?$AA?9?$AAl?$AAy?$AA?$AA@ 0043c55c     LIBCMT:winapinls.obj
 0002:00006568       ??_C@_1M@JAOCLHDH@?$AAa?$AAr?$AA?9?$AAm?$AAa?$AA?$AA@ 0043c568     LIBCMT:winapinls.obj
 0002:00006574       ??_C@_1M@JHPMKJIE@?$AAa?$AAr?$AA?9?$AAo?$AAm?$AA?$AA@ 0043c574     LIBCMT:winapinls.obj
 0002:00006580       ??_C@_1M@OEPGHFNH@?$AAa?$AAr?$AA?9?$AAq?$AAa?$AA?$AA@ 0043c580     LIBCMT:winapinls.obj
 0002:0000658c       ??_C@_1M@KJDONENM@?$AAa?$AAr?$AA?9?$AAs?$AAa?$AA?$AA@ 0043c58c     LIBCMT:winapinls.obj
 0002:00006598       ??_C@_1M@DMJDKLKM@?$AAa?$AAr?$AA?9?$AAs?$AAy?$AA?$AA@ 0043c598     LIBCMT:winapinls.obj
 0002:000065a4       ??_C@_1M@OMFIPEDC@?$AAa?$AAr?$AA?9?$AAt?$AAn?$AA?$AA@ 0043c5a4     LIBCMT:winapinls.obj
 0002:000065b0       ??_C@_1M@IHMHGAON@?$AAa?$AAr?$AA?9?$AAy?$AAe?$AA?$AA@ 0043c5b0     LIBCMT:winapinls.obj
 0002:000065bc       ??_C@_1BG@KDCPGJGB@?$AAa?$AAz?$AA?9?$AAa?$AAz?$AA?9?$AAc?$AAy?$AAr?$AAl?$AA?$AA@ 0043c5bc     LIBCMT:winapinls.obj
 0002:000065d4       ??_C@_1BG@IBCKDDOE@?$AAa?$AAz?$AA?9?$AAa?$AAz?$AA?9?$AAl?$AAa?$AAt?$AAn?$AA?$AA@ 0043c5d4     LIBCMT:winapinls.obj
 0002:000065ec       ??_C@_1M@EGPFDCPD@?$AAb?$AAe?$AA?9?$AAb?$AAy?$AA?$AA@ 0043c5ec     LIBCMT:winapinls.obj
 0002:000065f8       ??_C@_1M@PCMGMCGC@?$AAb?$AAg?$AA?9?$AAb?$AAg?$AA?$AA@ 0043c5f8     LIBCMT:winapinls.obj
 0002:00006604       ??_C@_1M@BJBMFGOB@?$AAb?$AAn?$AA?9?$AAi?$AAn?$AA?$AA@ 0043c604     LIBCMT:winapinls.obj
 0002:00006610       ??_C@_1BG@EAKMMACD@?$AAb?$AAs?$AA?9?$AAb?$AAa?$AA?9?$AAl?$AAa?$AAt?$AAn?$AA?$AA@ 0043c610     LIBCMT:winapinls.obj
 0002:00006628       ??_C@_1M@KGADAODK@?$AAc?$AAa?$AA?9?$AAe?$AAs?$AA?$AA@ 0043c628     LIBCMT:winapinls.obj
 0002:00006634       ??_C@_1M@COAJPDHI@?$AAc?$AAs?$AA?9?$AAc?$AAz?$AA?$AA@ 0043c634     LIBCMT:winapinls.obj
 0002:00006640       ??_C@_1M@DHBHFONH@?$AAc?$AAy?$AA?9?$AAg?$AAb?$AA?$AA@ 0043c640     LIBCMT:winapinls.obj
 0002:0000664c       ??_C@_1M@IMGKELGA@?$AAd?$AAa?$AA?9?$AAd?$AAk?$AA?$AA@ 0043c64c     LIBCMT:winapinls.obj
 0002:00006658       ??_C@_1M@NNDGDNGA@?$AAd?$AAe?$AA?9?$AAa?$AAt?$AA?$AA@ 0043c658     LIBCMT:winapinls.obj
 0002:00006664       ??_C@_1M@IKDBHEEM@?$AAd?$AAe?$AA?9?$AAc?$AAh?$AA?$AA@ 0043c664     LIBCMT:winapinls.obj
 0002:00006670       ??_C@_1M@GFFOJMCJ@?$AAd?$AAe?$AA?9?$AAd?$AAe?$AA?$AA@ 0043c670     LIBCMT:winapinls.obj
 0002:0000667c       ??_C@_1M@MDNLKBPM@?$AAd?$AAe?$AA?9?$AAl?$AAi?$AA?$AA@ 0043c67c     LIBCMT:winapinls.obj
 0002:00006688       ??_C@_1M@NJBEEJNL@?$AAd?$AAe?$AA?9?$AAl?$AAu?$AA?$AA@ 0043c688     LIBCMT:winapinls.obj
 0002:00006694       ??_C@_1O@GNNELBAP@?$AAd?$AAi?$AAv?$AA?9?$AAm?$AAv?$AA?$AA@ 0043c694     LIBCMT:winapinls.obj
 0002:000066a4       ??_C@_1M@EJLEOGAE@?$AAe?$AAl?$AA?9?$AAg?$AAr?$AA?$AA@ 0043c6a4     LIBCMT:winapinls.obj
 0002:000066b0       ??_C@_1M@GMPONJN@?$AAe?$AAn?$AA?9?$AAa?$AAu?$AA?$AA@ 0043c6b0     LIBCMT:winapinls.obj
 0002:000066bc       ??_C@_1M@NIDIIPGF@?$AAe?$AAn?$AA?9?$AAb?$AAz?$AA?$AA@ 0043c6bc     LIBCMT:winapinls.obj
 0002:000066c8       ??_C@_1M@JEHMIMFO@?$AAe?$AAn?$AA?9?$AAc?$AAa?$AA?$AA@ 0043c6c8     LIBCMT:winapinls.obj
 0002:000066d4       ??_C@_1M@IGMJCDLA@?$AAe?$AAn?$AA?9?$AAc?$AAb?$AA?$AA@ 0043c6d4     LIBCMT:winapinls.obj
 0002:000066e0       ??_C@_1M@BNFIGBKG@?$AAe?$AAn?$AA?9?$AAg?$AAb?$AA?$AA@ 0043c6e0     LIBCMT:winapinls.obj
 0002:000066ec       ??_C@_1M@LKIFDIGP@?$AAe?$AAn?$AA?9?$AAi?$AAe?$AA?$AA@ 0043c6ec     LIBCMT:winapinls.obj
 0002:000066f8       ??_C@_1M@PJKFGCCO@?$AAe?$AAn?$AA?9?$AAj?$AAm?$AA?$AA@ 0043c6f8     LIBCMT:winapinls.obj
 0002:00006704       ??_C@_1M@KPPKEPBO@?$AAe?$AAn?$AA?9?$AAn?$AAz?$AA?$AA@ 0043c704     LIBCMT:winapinls.obj
 0002:00006710       ??_C@_1M@GMDGLDOB@?$AAe?$AAn?$AA?9?$AAp?$AAh?$AA?$AA@ 0043c710     LIBCMT:winapinls.obj
 0002:0000671c       ??_C@_1M@ONGIBJNA@?$AAe?$AAn?$AA?9?$AAt?$AAt?$AA?$AA@ 0043c71c     LIBCMT:winapinls.obj
 0002:00006728       ??_C@_1M@LLODPCMM@?$AAe?$AAn?$AA?9?$AAu?$AAs?$AA?$AA@ 0043c728     LIBCMT:winapinls.obj
 0002:00006734       ??_C@_1M@LAKFNPAN@?$AAe?$AAn?$AA?9?$AAz?$AAa?$AA?$AA@ 0043c734     LIBCMT:winapinls.obj
 0002:00006740       ??_C@_1M@MFNHNHEO@?$AAe?$AAn?$AA?9?$AAz?$AAw?$AA?$AA@ 0043c740     LIBCMT:winapinls.obj
 0002:0000674c       ??_C@_1M@EJEINPHM@?$AAe?$AAs?$AA?9?$AAa?$AAr?$AA?$AA@ 0043c74c     LIBCMT:winapinls.obj
 0002:00006758       ??_C@_1M@GNKPCCJA@?$AAe?$AAs?$AA?9?$AAb?$AAo?$AA?$AA@ 0043c758     LIBCMT:winapinls.obj
 0002:00006764       ??_C@_1M@LEEGFONL@?$AAe?$AAs?$AA?9?$AAc?$AAl?$AA?$AA@ 0043c764     LIBCMT:winapinls.obj
 0002:00006770       ??_C@_1M@KGPDPBDF@?$AAe?$AAs?$AA?9?$AAc?$AAo?$AA?$AA@ 0043c770     LIBCMT:winapinls.obj
 0002:0000677c       ??_C@_1M@EIAHOHH@?$AAe?$AAs?$AA?9?$AAc?$AAr?$AA?$AA@ 0043c77c     LIBCMT:winapinls.obj
 0002:00006788       ??_C@_1M@LLPGMBIN@?$AAe?$AAs?$AA?9?$AAd?$AAo?$AA?$AA@ 0043c788     LIBCMT:winapinls.obj
 0002:00006794       ??_C@_1M@DKHMKNJA@?$AAe?$AAs?$AA?9?$AAe?$AAc?$AA?$AA@ 0043c794     LIBCMT:winapinls.obj
 0002:000067a0       ??_C@_1M@GKGFPKAP@?$AAe?$AAs?$AA?9?$AAe?$AAs?$AA?$AA@ 0043c7a0     LIBCMT:winapinls.obj
 0002:000067ac       ??_C@_1M@LKHKGDLN@?$AAe?$AAs?$AA?9?$AAg?$AAt?$AA?$AA@ 0043c7ac     LIBCMT:winapinls.obj
 0002:000067b8       ??_C@_1M@HEIIGGJD@?$AAe?$AAs?$AA?9?$AAh?$AAn?$AA?$AA@ 0043c7b8     LIBCMT:winapinls.obj
 0002:000067c4       ??_C@_1M@FBDHPPGD@?$AAe?$AAs?$AA?9?$AAm?$AAx?$AA?$AA@ 0043c7c4     LIBCMT:winapinls.obj
 0002:000067d0       ??_C@_1M@DPAGLNDH@?$AAe?$AAs?$AA?9?$AAn?$AAi?$AA?$AA@ 0043c7d0     LIBCMT:winapinls.obj
 0002:000067dc       ??_C@_1M@MDGOPGDD@?$AAe?$AAs?$AA?9?$AAp?$AAa?$AA?$AA@ 0043c7dc     LIBCMT:winapinls.obj
 0002:000067e8       ??_C@_1M@EMAMGBGE@?$AAe?$AAs?$AA?9?$AAp?$AAe?$AA?$AA@ 0043c7e8     LIBCMT:winapinls.obj
 0002:000067f4       ??_C@_1M@IBMCAOEC@?$AAe?$AAs?$AA?9?$AAp?$AAr?$AA?$AA@ 0043c7f4     LIBCMT:winapinls.obj
 0002:00006800       ??_C@_1M@FGMDIJED@?$AAe?$AAs?$AA?9?$AAp?$AAy?$AA?$AA@ 0043c800     LIBCMT:winapinls.obj
 0002:0000680c       ??_C@_1M@IIDEOLLL@?$AAe?$AAs?$AA?9?$AAs?$AAv?$AA?$AA@ 0043c80c     LIBCMT:winapinls.obj
 0002:00006818       ??_C@_1M@GAOBIPA@?$AAe?$AAs?$AA?9?$AAu?$AAy?$AA?$AA@ 0043c818     LIBCMT:winapinls.obj
 0002:00006824       ??_C@_1M@JKFFICHJ@?$AAe?$AAs?$AA?9?$AAv?$AAe?$AA?$AA@ 0043c824     LIBCMT:winapinls.obj
 0002:00006830       ??_C@_1M@PNMLOJDF@?$AAe?$AAt?$AA?9?$AAe?$AAe?$AA?$AA@ 0043c830     LIBCMT:winapinls.obj
 0002:0000683c       ??_C@_1M@GHHLIKEI@?$AAe?$AAu?$AA?9?$AAe?$AAs?$AA?$AA@ 0043c83c     LIBCMT:winapinls.obj
 0002:00006848       ??_C@_1M@PBNONODE@?$AAf?$AAa?$AA?9?$AAi?$AAr?$AA?$AA@ 0043c848     LIBCMT:winapinls.obj
 0002:00006854       ??_C@_1M@JEEHPMIL@?$AAf?$AAi?$AA?9?$AAf?$AAi?$AA?$AA@ 0043c854     LIBCMT:winapinls.obj
 0002:00006860       ??_C@_1M@LMDCNDBA@?$AAf?$AAo?$AA?9?$AAf?$AAo?$AA?$AA@ 0043c860     LIBCMT:winapinls.obj
 0002:0000686c       ??_C@_1M@JKEOHLDK@?$AAf?$AAr?$AA?9?$AAb?$AAe?$AA?$AA@ 0043c86c     LIBCMT:winapinls.obj
 0002:00006878       ??_C@_1M@NOHADPMI@?$AAf?$AAr?$AA?9?$AAc?$AAa?$AA?$AA@ 0043c878     LIBCMT:winapinls.obj
 0002:00006884       ??_C@_1M@KDHIHAEC@?$AAf?$AAr?$AA?9?$AAc?$AAh?$AA?$AA@ 0043c884     LIBCMT:winapinls.obj
 0002:00006890       ??_C@_1M@MMBBFGAK@?$AAf?$AAr?$AA?9?$AAf?$AAr?$AA?$AA@ 0043c890     LIBCMT:winapinls.obj
 0002:0000689c       ??_C@_1M@PAFNENNF@?$AAf?$AAr?$AA?9?$AAl?$AAu?$AA?$AA@ 0043c89c     LIBCMT:winapinls.obj
 0002:000068a8       ??_C@_1M@EOHDJGDD@?$AAf?$AAr?$AA?9?$AAm?$AAc?$AA?$AA@ 0043c8a8     LIBCMT:winapinls.obj
 0002:000068b4       ??_C@_1M@FAPLLOPF@?$AAg?$AAl?$AA?9?$AAe?$AAs?$AA?$AA@ 0043c8b4     LIBCMT:winapinls.obj
 0002:000068c0       ??_C@_1M@FOPBFLOO@?$AAg?$AAu?$AA?9?$AAi?$AAn?$AA?$AA@ 0043c8c0     LIBCMT:winapinls.obj
 0002:000068cc       ??_C@_1M@KBMCINPM@?$AAh?$AAe?$AA?9?$AAi?$AAl?$AA?$AA@ 0043c8cc     LIBCMT:winapinls.obj
 0002:000068d8       ??_C@_1M@BBPHKFPJ@?$AAh?$AAi?$AA?9?$AAi?$AAn?$AA?$AA@ 0043c8d8     LIBCMT:winapinls.obj
 0002:000068e4       ??_C@_1M@PMBNDPHD@?$AAh?$AAr?$AA?9?$AAb?$AAa?$AA?$AA@ 0043c8e4     LIBCMT:winapinls.obj
 0002:000068f0       ??_C@_1M@BPCKOEGE@?$AAh?$AAr?$AA?9?$AAh?$AAr?$AA?$AA@ 0043c8f0     LIBCMT:winapinls.obj
 0002:000068fc       ??_C@_1M@GACBMHKE@?$AAh?$AAu?$AA?9?$AAh?$AAu?$AA?$AA@ 0043c8fc     LIBCMT:winapinls.obj
 0002:00006908       ??_C@_1M@MILPAJJC@?$AAh?$AAy?$AA?9?$AAa?$AAm?$AA?$AA@ 0043c908     LIBCMT:winapinls.obj
 0002:00006914       ??_C@_1M@BABBICEC@?$AAi?$AAd?$AA?9?$AAi?$AAd?$AA?$AA@ 0043c914     LIBCMT:winapinls.obj
 0002:00006920       ??_C@_1M@BIKNHHPF@?$AAi?$AAs?$AA?9?$AAi?$AAs?$AA?$AA@ 0043c920     LIBCMT:winapinls.obj
 0002:0000692c       ??_C@_1M@NMPCJPHE@?$AAi?$AAt?$AA?9?$AAc?$AAh?$AA?$AA@ 0043c92c     LIBCMT:winapinls.obj
 0002:00006938       ??_C@_1M@GHKGFEDF@?$AAi?$AAt?$AA?9?$AAi?$AAt?$AA?$AA@ 0043c938     LIBCMT:winapinls.obj
 0002:00006944       ??_C@_1M@NIEJCJJA@?$AAj?$AAa?$AA?9?$AAj?$AAp?$AA?$AA@ 0043c944     LIBCMT:winapinls.obj
 0002:00006950       ??_C@_1M@JILFNBIM@?$AAk?$AAa?$AA?9?$AAg?$AAe?$AA?$AA@ 0043c950     LIBCMT:winapinls.obj
 0002:0000695c       ??_C@_1M@PACPMGPH@?$AAk?$AAk?$AA?9?$AAk?$AAz?$AA?$AA@ 0043c95c     LIBCMT:winapinls.obj
 0002:00006968       ??_C@_1M@IELFGMHA@?$AAk?$AAn?$AA?9?$AAi?$AAn?$AA?$AA@ 0043c968     LIBCMT:winapinls.obj
 0002:00006974       ??_C@_1O@IBBJHCH@?$AAk?$AAo?$AAk?$AA?9?$AAi?$AAn?$AA?$AA@ 0043c974     LIBCMT:winapinls.obj
 0002:00006984       ??_C@_1M@DMHAEOGC@?$AAk?$AAo?$AA?9?$AAk?$AAr?$AA?$AA@ 0043c984     LIBCMT:winapinls.obj
 0002:00006990       ??_C@_1M@HBAHBIGA@?$AAk?$AAy?$AA?9?$AAk?$AAg?$AA?$AA@ 0043c990     LIBCMT:winapinls.obj
 0002:0000699c       ??_C@_1M@KPMILCJG@?$AAl?$AAt?$AA?9?$AAl?$AAt?$AA?$AA@ 0043c99c     LIBCMT:winapinls.obj
 0002:000069a8       ??_C@_1M@BDEKKCA@?$AAl?$AAv?$AA?9?$AAl?$AAv?$AA?$AA@ 0043c9a8     LIBCMT:winapinls.obj
 0002:000069b4       ??_C@_1M@ELCKCCJJ@?$AAm?$AAi?$AA?9?$AAn?$AAz?$AA?$AA@ 0043c9b4     LIBCMT:winapinls.obj
 0002:000069c0       ??_C@_1M@CBOOLAPA@?$AAm?$AAk?$AA?9?$AAm?$AAk?$AA?$AA@ 0043c9c0     LIBCMT:winapinls.obj
 0002:000069cc       ??_C@_1M@GPHNBJKN@?$AAm?$AAl?$AA?9?$AAi?$AAn?$AA?$AA@ 0043c9cc     LIBCMT:winapinls.obj
 0002:000069d8       ??_C@_1M@PABJILIG@?$AAm?$AAn?$AA?9?$AAm?$AAn?$AA?$AA@ 0043c9d8     LIBCMT:winapinls.obj
 0002:000069e4       ??_C@_1M@FGBKKIPG@?$AAm?$AAr?$AA?9?$AAi?$AAn?$AA?$AA@ 0043c9e4     LIBCMT:winapinls.obj
 0002:000069f0       ??_C@_1M@NDBPDDAL@?$AAm?$AAs?$AA?9?$AAb?$AAn?$AA?$AA@ 0043c9f0     LIBCMT:winapinls.obj
 0002:000069fc       ??_C@_1M@OPIHOOPI@?$AAm?$AAs?$AA?9?$AAm?$AAy?$AA?$AA@ 0043c9fc     LIBCMT:winapinls.obj
 0002:00006a08       ??_C@_1M@PPDBCNFM@?$AAm?$AAt?$AA?9?$AAm?$AAt?$AA?$AA@ 0043ca08     LIBCMT:winapinls.obj
 0002:00006a14       ??_C@_1M@KDJDKMDD@?$AAn?$AAb?$AA?9?$AAn?$AAo?$AA?$AA@ 0043ca14     LIBCMT:winapinls.obj
 0002:00006a20       ??_C@_1M@KFCFLMJP@?$AAn?$AAl?$AA?9?$AAb?$AAe?$AA?$AA@ 0043ca20     LIBCMT:winapinls.obj
 0002:00006a2c       ??_C@_1M@KPOPDDGO@?$AAn?$AAl?$AA?9?$AAn?$AAl?$AA?$AA@ 0043ca2c     LIBCMT:winapinls.obj
 0002:00006a38       ??_C@_1M@LJKPEMLN@?$AAn?$AAn?$AA?9?$AAn?$AAo?$AA?$AA@ 0043ca38     LIBCMT:winapinls.obj
 0002:00006a44       ??_C@_1M@BDGHHBFL@?$AAn?$AAs?$AA?9?$AAz?$AAa?$AA?$AA@ 0043ca44     LIBCMT:winapinls.obj
 0002:00006a50       ??_C@_1M@IDEHOAP@?$AAp?$AAa?$AA?9?$AAi?$AAn?$AA?$AA@ 0043ca50     LIBCMT:winapinls.obj
 0002:00006a5c       ??_C@_1M@HDBKGOGH@?$AAp?$AAl?$AA?9?$AAp?$AAl?$AA?$AA@ 0043ca5c     LIBCMT:winapinls.obj
 0002:00006a68       ??_C@_1M@LJLLCMEH@?$AAp?$AAt?$AA?9?$AAb?$AAr?$AA?$AA@ 0043ca68     LIBCMT:winapinls.obj
 0002:00006a74       ??_C@_1M@NCMONAAL@?$AAp?$AAt?$AA?9?$AAp?$AAt?$AA?$AA@ 0043ca74     LIBCMT:winapinls.obj
 0002:00006a80       ??_C@_1O@EAKMAJDN@?$AAq?$AAu?$AAz?$AA?9?$AAb?$AAo?$AA?$AA@ 0043ca80     LIBCMT:winapinls.obj
 0002:00006a90       ??_C@_1O@BHHPIGDN@?$AAq?$AAu?$AAz?$AA?9?$AAe?$AAc?$AA?$AA@ 0043ca90     LIBCMT:winapinls.obj
 0002:00006aa0       ??_C@_1O@GBAPEKMJ@?$AAq?$AAu?$AAz?$AA?9?$AAp?$AAe?$AA?$AA@ 0043caa0     LIBCMT:winapinls.obj
 0002:00006ab0       ??_C@_1M@CLGLEFBO@?$AAr?$AAo?$AA?9?$AAr?$AAo?$AA?$AA@ 0043cab0     LIBCMT:winapinls.obj
 0002:00006abc       ??_C@_1M@CEEDODME@?$AAr?$AAu?$AA?9?$AAr?$AAu?$AA?$AA@ 0043cabc     LIBCMT:winapinls.obj
 0002:00006ac8       ??_C@_1M@HPKKKMPP@?$AAs?$AAa?$AA?9?$AAi?$AAn?$AA?$AA@ 0043cac8     LIBCMT:winapinls.obj
 0002:00006ad4       ??_C@_1M@BKMAIGOJ@?$AAs?$AAe?$AA?9?$AAf?$AAi?$AA?$AA@ 0043cad4     LIBCMT:winapinls.obj
 0002:00006ae0       ??_C@_1M@NDPIFLFI@?$AAs?$AAe?$AA?9?$AAn?$AAo?$AA?$AA@ 0043cae0     LIBCMT:winapinls.obj
 0002:00006aec       ??_C@_1M@DANKKHJ@?$AAs?$AAe?$AA?9?$AAs?$AAe?$AA?$AA@ 0043caec     LIBCMT:winapinls.obj
 0002:00006af8       ??_C@_1M@PNBLONPJ@?$AAs?$AAk?$AA?9?$AAs?$AAk?$AA?$AA@ 0043caf8     LIBCMT:winapinls.obj
 0002:00006b04       ??_C@_1M@LFMODOAL@?$AAs?$AAl?$AA?9?$AAs?$AAi?$AA?$AA@ 0043cb04     LIBCMT:winapinls.obj
 0002:00006b10       ??_C@_1O@DFKOMPG@?$AAs?$AAm?$AAa?$AA?9?$AAn?$AAo?$AA?$AA@ 0043cb10     LIBCMT:winapinls.obj
 0002:00006b20       ??_C@_1O@NDKPBNNH@?$AAs?$AAm?$AAa?$AA?9?$AAs?$AAe?$AA?$AA@ 0043cb20     LIBCMT:winapinls.obj
 0002:00006b30       ??_C@_1O@PLLKBHAB@?$AAs?$AAm?$AAj?$AA?9?$AAn?$AAo?$AA?$AA@ 0043cb30     LIBCMT:winapinls.obj
 0002:00006b40       ??_C@_1O@CLEPOGCA@?$AAs?$AAm?$AAj?$AA?9?$AAs?$AAe?$AA?$AA@ 0043cb40     LIBCMT:winapinls.obj
 0002:00006b50       ??_C@_1O@DLGJGKMK@?$AAs?$AAm?$AAn?$AA?9?$AAf?$AAi?$AA?$AA@ 0043cb50     LIBCMT:winapinls.obj
 0002:00006b60       ??_C@_1O@OJDJGAJC@?$AAs?$AAm?$AAs?$AA?9?$AAf?$AAi?$AA?$AA@ 0043cb60     LIBCMT:winapinls.obj
 0002:00006b70       ??_C@_1M@BOFOGHPB@?$AAs?$AAq?$AA?9?$AAa?$AAl?$AA?$AA@ 0043cb70     LIBCMT:winapinls.obj
 0002:00006b7c       ??_C@_1BG@LJBBIPGB@?$AAs?$AAr?$AA?9?$AAb?$AAa?$AA?9?$AAc?$AAy?$AAr?$AAl?$AA?$AA@ 0043cb7c     LIBCMT:winapinls.obj
 0002:00006b94       ??_C@_1BG@JLBENFOE@?$AAs?$AAr?$AA?9?$AAb?$AAa?$AA?9?$AAl?$AAa?$AAt?$AAn?$AA?$AA@ 0043cb94     LIBCMT:winapinls.obj
 0002:00006bac       ??_C@_1BG@KODPNHE@?$AAs?$AAr?$AA?9?$AAs?$AAp?$AA?9?$AAc?$AAy?$AAr?$AAl?$AA?$AA@ 0043cbac     LIBCMT:winapinls.obj
 0002:00006bc4       ??_C@_1BG@CIOGKHPB@?$AAs?$AAr?$AA?9?$AAs?$AAp?$AA?9?$AAl?$AAa?$AAt?$AAn?$AA?$AA@ 0043cbc4     LIBCMT:winapinls.obj
 0002:00006bdc       ??_C@_1M@NGFJLMAC@?$AAs?$AAv?$AA?9?$AAf?$AAi?$AA?$AA@ 0043cbdc     LIBCMT:winapinls.obj
 0002:00006be8       ??_C@_1M@MPJEJAJC@?$AAs?$AAv?$AA?9?$AAs?$AAe?$AA?$AA@ 0043cbe8     LIBCMT:winapinls.obj
 0002:00006bf4       ??_C@_1M@MPNDHLFK@?$AAs?$AAw?$AA?9?$AAk?$AAe?$AA?$AA@ 0043cbf4     LIBCMT:winapinls.obj
 0002:00006c00       ??_C@_1O@KOHBJJI@?$AAs?$AAy?$AAr?$AA?9?$AAs?$AAy?$AA?$AA@ 0043cc00     LIBCMT:winapinls.obj
 0002:00006c10       ??_C@_1M@LDCEFHA@?$AAt?$AAa?$AA?9?$AAi?$AAn?$AA?$AA@ 0043cc10     LIBCMT:winapinls.obj
 0002:00006c1c       ??_C@_1M@CNJOFAK@?$AAt?$AAe?$AA?9?$AAi?$AAn?$AA?$AA@ 0043cc1c     LIBCMT:winapinls.obj
 0002:00006c28       ??_C@_1M@GNAECACD@?$AAt?$AAh?$AA?9?$AAt?$AAh?$AA?$AA@ 0043cc28     LIBCMT:winapinls.obj
 0002:00006c34       ??_C@_1M@CHBIHOJO@?$AAt?$AAn?$AA?9?$AAz?$AAa?$AA?$AA@ 0043cc34     LIBCMT:winapinls.obj
 0002:00006c40       ??_C@_1M@GCCMIGPJ@?$AAt?$AAr?$AA?9?$AAt?$AAr?$AA?$AA@ 0043cc40     LIBCMT:winapinls.obj
 0002:00006c4c       ??_C@_1M@CELMCNBK@?$AAt?$AAt?$AA?9?$AAr?$AAu?$AA?$AA@ 0043cc4c     LIBCMT:winapinls.obj
 0002:00006c58       ??_C@_1M@KLMCELGA@?$AAu?$AAk?$AA?9?$AAu?$AAa?$AA?$AA@ 0043cc58     LIBCMT:winapinls.obj
 0002:00006c64       ??_C@_1M@EPAJJAJF@?$AAu?$AAr?$AA?9?$AAp?$AAk?$AA?$AA@ 0043cc64     LIBCMT:winapinls.obj
 0002:00006c70       ??_C@_1BG@GEGPMCDJ@?$AAu?$AAz?$AA?9?$AAu?$AAz?$AA?9?$AAc?$AAy?$AAr?$AAl?$AA?$AA@ 0043cc70     LIBCMT:winapinls.obj
 0002:00006c88       ??_C@_1BG@EGGKJILM@?$AAu?$AAz?$AA?9?$AAu?$AAz?$AA?9?$AAl?$AAa?$AAt?$AAn?$AA?$AA@ 0043cc88     LIBCMT:winapinls.obj
 0002:00006ca0       ??_C@_1M@GFOCLFF@?$AAv?$AAi?$AA?9?$AAv?$AAn?$AA?$AA@ 0043cca0     LIBCMT:winapinls.obj
 0002:00006cac       ??_C@_1M@CPAMEDFI@?$AAx?$AAh?$AA?9?$AAz?$AAa?$AA?$AA@ 0043ccac     LIBCMT:winapinls.obj
 0002:00006cb8       ??_C@_1O@EBKIFIGN@?$AAz?$AAh?$AA?9?$AAc?$AAh?$AAs?$AA?$AA@ 0043ccb8     LIBCMT:winapinls.obj
 0002:00006cc8       ??_C@_1O@NMHPGANE@?$AAz?$AAh?$AA?9?$AAc?$AAh?$AAt?$AA?$AA@ 0043ccc8     LIBCMT:winapinls.obj
 0002:00006cd8       ??_C@_1M@LPINJOMC@?$AAz?$AAh?$AA?9?$AAc?$AAn?$AA?$AA@ 0043ccd8     LIBCMT:winapinls.obj
 0002:00006ce4       ??_C@_1M@OCJEJODD@?$AAz?$AAh?$AA?9?$AAh?$AAk?$AA?$AA@ 0043cce4     LIBCMT:winapinls.obj
 0002:00006cf0       ??_C@_1M@DNDLJINH@?$AAz?$AAh?$AA?9?$AAm?$AAo?$AA?$AA@ 0043ccf0     LIBCMT:winapinls.obj
 0002:00006cfc       ??_C@_1M@MBFDNDND@?$AAz?$AAh?$AA?9?$AAs?$AAg?$AA?$AA@ 0043ccfc     LIBCMT:winapinls.obj
 0002:00006d08       ??_C@_1M@IMEPLEPE@?$AAz?$AAh?$AA?9?$AAt?$AAw?$AA?$AA@ 0043cd08     LIBCMT:winapinls.obj
 0002:00006d14       ??_C@_1M@BBGHNHJP@?$AAz?$AAu?$AA?9?$AAz?$AAa?$AA?$AA@ 0043cd14     LIBCMT:winapinls.obj
 0002:00006d20       ??_C@_06PGGFOGJG@1?$CDSNAN?$AA@ 0043cd20     LIBCMT:x10fout.obj
 0002:00006d28       ??_C@_05PHHOCPM@1?$CDIND?$AA@ 0043cd28     LIBCMT:x10fout.obj
 0002:00006d30       ??_C@_05DNEBIAHO@1?$CDINF?$AA@ 0043cd30     LIBCMT:x10fout.obj
 0002:00006d38       ??_C@_06IMKFLFPG@1?$CDQNAN?$AA@ 0043cd38     LIBCMT:x10fout.obj
 0002:00006d40       __indefinite               0043cd40     LIBCMT:87disp.obj
 0002:00006d4a       __piby2                    0043cd4a     LIBCMT:87disp.obj
 0002:00006d78       __DEFAULT_CW_in_mem        0043cd78     LIBCMT:common.obj
 0002:00006d7a       __pi_by_2_to_61            0043cd7a     LIBCMT:common.obj
 0002:00006db4       ??_C@_1BA@BALFACEM@?$AAC?$AAO?$AAN?$AAO?$AAU?$AAT?$AA$?$AA?$AA@ 0043cdb4     LIBCMT:initcon.obj
 0002:00006dc8       __load_config_used         0043cdc8     LIBCMT:loadcfg.obj
 0002:00006e10       ??_R4WINDOW_CLASS@@6B@     0043ce10     ft2.obj
 0002:00006e24       ??_R3WINDOW_CLASS@@8       0043ce24     ft2.obj
 0002:00006e34       ??_R2WINDOW_CLASS@@8       0043ce34     ft2.obj
 0002:00006e3c       ??_R1A@?0A@EA@WINDOW_CLASS@@8 0043ce3c     ft2.obj
 0002:00006e58       ??_R4FTII_VAR@@6B@         0043ce58     ft2.obj
 0002:00006e6c       ??_R3FTII_VAR@@8           0043ce6c     ft2.obj
 0002:00006e7c       ??_R2FTII_VAR@@8           0043ce7c     ft2.obj
 0002:00006e84       ??_R1A@?0A@EA@FTII_VAR@@8  0043ce84     ft2.obj
 0002:00006ea0       ??_R4FTII_VAR_ARRAY@@6B@   0043cea0     ft2.obj
 0002:00006eb4       ??_R3FTII_VAR_ARRAY@@8     0043ceb4     ft2.obj
 0002:00006ec4       ??_R2FTII_VAR_ARRAY@@8     0043cec4     ft2.obj
 0002:00006ed0       ??_R1A@?0A@EA@FTII_VAR_ARRAY@@8 0043ced0     ft2.obj
 0002:00006eec       ??_R4DOUBLE_ARRAY_CLASS@@6B@ 0043ceec     board_monitor.obj
 0002:00006f00       ??_R3DOUBLE_ARRAY_CLASS@@8 0043cf00     board_monitor.obj
 0002:00006f10       ??_R2DOUBLE_ARRAY_CLASS@@8 0043cf10     board_monitor.obj
 0002:00006f18       ??_R1A@?0A@EA@DOUBLE_ARRAY_CLASS@@8 0043cf18     board_monitor.obj
 0002:00006f34       ??_R4FTII_ARRAY_DATA@@6B@  0043cf34     v5subs:ftii_shot_data.obj
 0002:00006f48       ??_R3FTII_ARRAY_DATA@@8    0043cf48     v5subs:ftii_shot_data.obj
 0002:00006f58       ??_R2FTII_ARRAY_DATA@@8    0043cf58     v5subs:ftii_shot_data.obj
 0002:00006f60       ??_R1A@?0A@EA@FTII_ARRAY_DATA@@8 0043cf60     v5subs:ftii_shot_data.obj
 0002:00006f7c       ??_R4FTII_PROFILE@@6B@     0043cf7c     v5subs:ftii_shot_data.obj
 0002:00006f90       ??_R3FTII_PROFILE@@8       0043cf90     v5subs:ftii_shot_data.obj
 0002:00006fa0       ??_R2FTII_PROFILE@@8       0043cfa0     v5subs:ftii_shot_data.obj
 0002:00006fac       ??_R1A@?0A@EA@FTII_PROFILE@@8 0043cfac     v5subs:ftii_shot_data.obj
 0002:00006fc8       ??_R1A@?0A@EA@exception@std@@8 0043cfc8     LIBCMT:new.obj
 0002:00006fe4       ??_R3exception@std@@8      0043cfe4     LIBCMT:new.obj
 0002:00006ff4       ??_R2exception@std@@8      0043cff4     LIBCMT:new.obj
 0002:00006ffc       ??_R4bad_alloc@std@@6B@    0043cffc     LIBCMT:new.obj
 0002:00007010       ??_R3bad_alloc@std@@8      0043d010     LIBCMT:new.obj
 0002:00007020       ??_R2bad_alloc@std@@8      0043d020     LIBCMT:new.obj
 0002:0000702c       ??_R1A@?0A@EA@bad_alloc@std@@8 0043d02c     LIBCMT:new.obj
 0002:00007048       ??_R4type_info@@6B@        0043d048     LIBCMT:typinfo.obj
 0002:0000705c       ??_R3type_info@@8          0043d05c     LIBCMT:typinfo.obj
 0002:0000706c       ??_R2type_info@@8          0043d06c     LIBCMT:typinfo.obj
 0002:00007074       ??_R1A@?0A@EA@type_info@@8 0043d074     LIBCMT:typinfo.obj
 0002:00007090       ??_R4exception@std@@6B@    0043d090     LIBCMT:stdexcpt.obj
 0002:000070b0       ___safe_se_handler_table   0043d0b0     <linker-defined>
 0002:000070bc       ___rtc_iaa                 0043d0bc     LIBCMT:initsect.obj
 0002:000070c0       ___rtc_izz                 0043d0c0     LIBCMT:initsect.obj
 0002:000070c4       ___rtc_taa                 0043d0c4     LIBCMT:initsect.obj
 0002:000070c8       ___rtc_tzz                 0043d0c8     LIBCMT:initsect.obj
 0002:000070d0       __TI2?AVbad_alloc@std@@    0043d0d0     LIBCMT:new.obj
 0002:000070e0       __CTA2?AVbad_alloc@std@@   0043d0e0     LIBCMT:new.obj
 0002:000070ec       __CT??_R0?AVbad_alloc@std@@@8??0bad_alloc@std@@QAE@ABV01@@Z12 0043d0ec     LIBCMT:new.obj
 0002:00007108       __CT??_R0?AVexception@std@@@8??0exception@std@@QAE@ABV01@@Z12 0043d108     LIBCMT:new.obj
 0002:0000743c       __IMPORT_DESCRIPTOR_KERNEL32 0043d43c     kernel32:KERNEL32.dll
 0002:00007450       __IMPORT_DESCRIPTOR_USER32 0043d450     user32:USER32.dll
 0002:00007464       __IMPORT_DESCRIPTOR_GDI32  0043d464     gdi32:GDI32.dll
 0002:00007478       __IMPORT_DESCRIPTOR_COMCTL32 0043d478     comctl32:COMCTL32.dll
 0002:0000748c       __IMPORT_DESCRIPTOR_WSOCK32 0043d48c     wsock32:WSOCK32.dll
 0002:000074a0       __NULL_IMPORT_DESCRIPTOR   0043d4a0     kernel32:KERNEL32.dll
 0003:00000000       ?Char_Width@@3HA           0043f000     ft2.obj
 0003:00000004       ?Line_Height@@3HA          0043f004     ft2.obj
 0003:00000008       ?CurrentBoardIndex@@3HA    0043f008     ft2.obj
 0003:0000000c       ?RetractWireMask@@3IA      0043f00c     ft2.obj
 0003:00000010       ?NOT_CONNECTED_STATE@@3IA  0043f010     ft2.obj
 0003:00000014       ?NOT_MONITORED_STATE@@3IA  0043f014     ft2.obj
 0003:00000018       ?CONNECTING_STATE@@3IA     0043f018     ft2.obj
 0003:0000001c       ?CONNECTED_STATE@@3IA      0043f01c     ft2.obj
 0003:00000020       ?ZERO_STROKE_LENGTH_STATE@@3IA 0043f020     ft2.obj
 0003:00000024       ?UPLOAD_WAS_ABORTED_STATE@@3IA 0043f024     ft2.obj
 0003:00000028       ?HistoryShotCount@@3HA     0043f028     ft2.obj
 0003:0000002c       ?ConfigSection@@3PADA      0043f02c     ft2.obj
 0003:00000033       ?CurrentOpStatusIsEmpty@@3_NA 0043f033     ft2.obj
 0003:00000034       ?CurrentValuesSection@@3PADA 0043f034     ft2.obj
 0003:00000044       ?CommonResourceFile@@3PADA 0043f044     ft2.obj
 0003:0000004b       ?AChar@@3DA                0043f04b     ft2.obj
 0003:0000004c       ?DisplayIniFile@@3PADA     0043f04c     ft2.obj
 0003:00000058       ?FtiiIniFile@@3PADA        0043f058     ft2.obj
 0003:00000061       ?BChar@@3DA                0043f061     ft2.obj
 0003:00000062       ?CChar@@3DA                0043f062     ft2.obj
 0003:00000063       ?DChar@@3DA                0043f063     ft2.obj
 0003:00000064       ?MonallIniFile@@3PADA      0043f064     ft2.obj
 0003:0000006f       ?EChar@@3DA                0043f06f     ft2.obj
 0003:00000070       ?MyMenuFile@@3PADA         0043f070     ft2.obj
 0003:00000078       ?MyResourceFile@@3PADA     0043f078     ft2.obj
 0003:0000007c       ?SureTrakIniFile@@3PADA    0043f07c     ft2.obj
 0003:00000089       ?FChar@@3DA                0043f089     ft2.obj
 0003:0000008a       ?GChar@@3DA                0043f08a     ft2.obj
 0003:0000008b       ?HChar@@3DA                0043f08b     ft2.obj
 0003:0000008c       ?TerminalMenuFile@@3PADA   0043f08c     ft2.obj
 0003:0000009c       ?VisiTrakIniFile@@3PADA    0043f09c     ft2.obj
 0003:000000a9       ?IChar@@3DA                0043f0a9     ft2.obj
 0003:000000aa       ?JChar@@3DA                0043f0aa     ft2.obj
 0003:000000ab       ?KChar@@3DA                0043f0ab     ft2.obj
 0003:000000ac       ?AlsLogFile@@3PADA         0043f0ac     ft2.obj
 0003:000000bf       ?LChar@@3DA                0043f0bf     ft2.obj
 0003:000000c0       ?AlsLogIsActiveKey@@3PADA  0043f0c0     ft2.obj
 0003:000000c7       ?MChar@@3DA                0043f0c7     ft2.obj
 0003:000000c8       ?ClearAlarmsEachShotKey@@3PADA 0043f0c8     ft2.obj
 0003:000000dc       ?ClearDownWireFromPopupKey@@3PADA 0043f0dc     ft2.obj
 0003:000000f3       ?NChar@@3DA                0043f0f3     ft2.obj
 0003:000000f4       ?ClearMonitorWireOnDownKey@@3PADA 0043f0f4     ft2.obj
 0003:0000010b       ?OChar@@3DA                0043f10b     ft2.obj
 0003:0000010c       ?CurrentChannelModeKey@@3PADA 0043f10c     ft2.obj
 0003:0000011f       ?PChar@@3DA                0043f11f     ft2.obj
 0003:00000120       ?CurrentLanguageKey@@3PADA 0043f120     ft2.obj
 0003:00000130       ?DownTimeAlarmWireKey@@3PADA 0043f130     ft2.obj
 0003:00000142       ?QChar@@3DA                0043f142     ft2.obj
 0003:00000143       ?RChar@@3DA                0043f143     ft2.obj
 0003:00000144       ?ExitEnableLevelKey@@3PADA 0043f144     ft2.obj
 0003:00000154       ?FlashVersionKey@@3PADA    0043f154     ft2.obj
 0003:00000161       ?SChar@@3DA                0043f161     ft2.obj
 0003:00000162       ?TChar@@3DA                0043f162     ft2.obj
 0003:00000163       ?UChar@@3DA                0043f163     ft2.obj
 0003:00000164       ?HavePressureControlKey@@3PADA 0043f164     ft2.obj
 0003:00000178       ?HaveSureTrakKey@@3PADA    0043f178     ft2.obj
 0003:00000185       ?VChar@@3DA                0043f185     ft2.obj
 0003:00000186       ?WChar@@3DA                0043f186     ft2.obj
 0003:00000187       ?XChar@@3DA                0043f187     ft2.obj
 0003:00000188       ?IsHiresSensorKey@@3PADA   0043f188     ft2.obj
 0003:00000196       ?YChar@@3DA                0043f196     ft2.obj
 0003:00000197       ?ZChar@@3DA                0043f197     ft2.obj
 0003:00000198       ?LogSentCommandsKey@@3PADA 0043f198     ft2.obj
 0003:000001a8       ?LastNKey@@3PADA           0043f1a8     ft2.obj
 0003:000001ae       ?ACharLow@@3DA             0043f1ae     ft2.obj
 0003:000001af       ?BCharLow@@3DA             0043f1af     ft2.obj
 0003:000001b0       ?MonitorWireKey@@3PADA     0043f1b0     ft2.obj
 0003:000001bc       ?NoUploadWireKey@@3PADA    0043f1bc     ft2.obj
 0003:000001c9       ?CCharLow@@3DA             0043f1c9     ft2.obj
 0003:000001ca       ?DCharLow@@3DA             0043f1ca     ft2.obj
 0003:000001cb       ?ECharLow@@3DA             0043f1cb     ft2.obj
 0003:000001cc       ?RetractWireKey@@3PADA     0043f1cc     ft2.obj
 0003:000001d8       ?SaveAllAlarmShotsKey@@3PADA 0043f1d8     ft2.obj
 0003:000001ea       ?FCharLow@@3DA             0043f1ea     ft2.obj
 0003:000001eb       ?GCharLow@@3DA             0043f1eb     ft2.obj
 0003:000001ec       ?SavepartExeName@@3PADA    0043f1ec     ft2.obj
 0003:000001f9       ?HCharLow@@3DA             0043f1f9     ft2.obj
 0003:000001fa       ?ICharLow@@3DA             0043f1fa     ft2.obj
 0003:000001fb       ?JCharLow@@3DA             0043f1fb     ft2.obj
 0003:000001fc       ?SentCommandsLogFile@@3PADA 0043f1fc     ft2.obj
 0003:0000021a       ?KCharLow@@3DA             0043f21a     ft2.obj
 0003:0000021b       ?LCharLow@@3DA             0043f21b     ft2.obj
 0003:0000021c       ?ServiceToolsGrayLevelKey@@3PADA 0043f21c     ft2.obj
 0003:00000232       ?MCharLow@@3DA             0043f232     ft2.obj
 0003:00000233       ?NCharLow@@3DA             0043f233     ft2.obj
 0003:00000234       ?SubtractTimeoutKey@@3PADA 0043f234     ft2.obj
 0003:00000244       ?TurnOffAlarmsOnDownKey@@3PADA 0043f244     ft2.obj
 0003:00000258       ?UploadRetractTimeoutKey@@3PADA 0043f258     ft2.obj
 0003:0000026d       ?OCharLow@@3DA             0043f26d     ft2.obj
 0003:0000026e       ?PCharLow@@3DA             0043f26e     ft2.obj
 0003:0000026f       ?QCharLow@@3DA             0043f26f     ft2.obj
 0003:00000270       ?UploadStartShotTimeoutKey@@3PADA 0043f270     ft2.obj
 0003:00000287       ?RCharLow@@3DA             0043f287     ft2.obj
 0003:00000288       ?UseNullValveOutputKey@@3PADA 0043f288     ft2.obj
 0003:0000029b       ?SCharLow@@3DA             0043f29b     ft2.obj
 0003:0000029c       ?UseValveTestOutputKey@@3PADA 0043f29c     ft2.obj
 0003:000002af       ?TCharLow@@3DA             0043f2af     ft2.obj
 0003:000002b4       ?StartControlPgmCmd@@3PADA 0043f2b4     ft2.obj
 0003:000002b7       ?UCharLow@@3DA             0043f2b7     ft2.obj
 0003:000002bc       ?EnableShotXmitCmd@@3PADA  0043f2bc     ft2.obj
 0003:000002c2       ?VCharLow@@3DA             0043f2c2     ft2.obj
 0003:000002c3       ?WCharLow@@3DA             0043f2c3     ft2.obj
 0003:000002c8       ?DisableShotXmitCmd@@3PADA 0043f2c8     ft2.obj
 0003:000002ce       ?XCharLow@@3DA             0043f2ce     ft2.obj
 0003:000002cf       ?YCharLow@@3DA             0043f2cf     ft2.obj
 0003:000002d4       ?ShotXmitCmdLen@@3HA       0043f2d4     ft2.obj
 0003:000002dc       ?START_OF_UPLOAD@@3PADA    0043f2dc     ft2.obj
 0003:000002f0       ?END_OF_UPLOAD@@3PADA      0043f2f0     ft2.obj
 0003:000002fe       ?ZCharLow@@3DA             0043f2fe     ft2.obj
 0003:000002ff       ?AsterixChar@@3DA          0043f2ff     ft2.obj
 0003:00000304       ?RESET_MACHINE_CMD@@3PADA  0043f304     ft2.obj
 0003:00000312       ?BackSlashChar@@3DA        0043f312     ft2.obj
 0003:00000313       ?ColonChar@@3DA            0043f313     ft2.obj
 0003:00000314       ?CLEAR_NO_UPLOAD_FLAG_CMD@@3PADA 0043f314     ft2.obj
 0003:00000329       ?CommaChar@@3DA            0043f329     ft2.obj
 0003:0000032a       ?CrChar@@3DA               0043f32a     ft2.obj
 0003:0000032b       ?DoubleQuoteChar@@3DA      0043f32b     ft2.obj
 0003:0000032c       ?DONT_SEND_OP_DATA_PACKETS@@3PADA 0043f32c     ft2.obj
 0003:00000332       ?EqualsChar@@3DA           0043f332     ft2.obj
 0003:00000333       ?EtxChar@@3DA              0043f333     ft2.obj
 0003:00000334       ?SEND_OP_DATA_PACKETS@@3PADA 0043f334     ft2.obj
 0003:0000033a       ?ForwardSlashChar@@3DA     0043f33a     ft2.obj
 0003:0000033b       ?LeftBracketChar@@3DA      0043f33b     ft2.obj
 0003:0000033c       ?CLEAR_CONTROL_FILE_DATE_CMD@@3PADA 0043f33c     ft2.obj
 0003:00000343       ?LeftCurlyBracket@@3DA     0043f343     ft2.obj
 0003:00000344       ?NormalCellColor@@3KA      0043f344     ft2.obj
 0003:00000348       ?GreenColor@@3KA           0043f348     ft2.obj
 0003:0000034c       ?OrangeColor@@3KA          0043f34c     ft2.obj
 0003:00000350       ?RedColor@@3KA             0043f350     ft2.obj
 0003:00000354       ?NofItems@@3HA             0043f354     ft2.obj
 0003:00000358       ?ItemList@@3PAUITEM_ENTRY@@A 0043f358     ft2.obj
 0003:0000058c       ?MyClassName@@3PADA        0043f58c     ft2.obj
 0003:00000595       ?LfChar@@3DA               0043f595     ft2.obj
 0003:00000596       ?MinusChar@@3DA            0043f596     ft2.obj
 0003:00000597       ?PercentChar@@3DA          0043f597     ft2.obj
 0003:00000598       ?TerminalClassName@@3PADA  0043f598     ft2.obj
 0003:000005a4       ?StatusClassName@@3PADA    0043f5a4     ft2.obj
 0003:000005ae       ?PeriodChar@@3DA           0043f5ae     ft2.obj
 0003:000005af       ?PlusChar@@3DA             0043f5af     ft2.obj
 0003:000005b0       ?AccelName@@3PADA          0043f5b0     ft2.obj
 0003:000005b9       ?PoundChar@@3DA            0043f5b9     ft2.obj
 0003:000005ba       ?QuoteChar@@3DA            0043f5ba     ft2.obj
 0003:000005bb       ?RightBracketChar@@3DA     0043f5bb     ft2.obj
 0003:000005c1       ?RightCurlyBracket@@3DA    0043f5c1     ft2.obj
 0003:000005c2       ?SemiColonChar@@3DA        0043f5c2     ft2.obj
 0003:000005c3       ?SpaceChar@@3DA            0043f5c3     ft2.obj
 0003:000005ca       ?TabChar@@3DA              0043f5ca     ft2.obj
 0003:000005cb       ?TildaChar@@3DA            0043f5cb     ft2.obj
 0003:000005d2       ?UnderScoreChar@@3DA       0043f5d2     ft2.obj
 0003:000005d3       ?ZeroChar@@3DA             0043f5d3     ft2.obj
 0003:000005d6       ?OneChar@@3DA              0043f5d6     ft2.obj
 0003:000005d7       ?TwoChar@@3DA              0043f5d7     ft2.obj
 0003:000005db       ?ThreeChar@@3DA            0043f5db     ft2.obj
 0003:000005de       ?FourChar@@3DA             0043f5de     ft2.obj
 0003:000005df       ?FiveChar@@3DA             0043f5df     ft2.obj
 0003:000005e9       ?SixChar@@3DA              0043f5e9     ft2.obj
 0003:000005ea       ?SevenChar@@3DA            0043f5ea     ft2.obj
 0003:000005eb       ?StxChar@@3DA              0043f5eb     ft2.obj
 0003:000005f1       ?EightChar@@3DA            0043f5f1     ft2.obj
 0003:000005f2       ?NineChar@@3DA             0043f5f2     ft2.obj
 0003:00000708       ?Button@@3PAURESOURCE_TEXT_ENTRY@@A 0043f708     ft2.obj
 0003:000007a8       ?AsterixString@@3PADA      0043f7a8     ft2.obj
 0003:000007ac       ?CommaString@@3PADA        0043f7ac     ft2.obj
 0003:000007b0       ?CrLfString@@3PADA         0043f7b0     ft2.obj
 0003:000007b4       ?SpaceString@@3PADA        0043f7b4     ft2.obj
 0003:000007b8       ?StarDotStar@@3PADA        0043f7b8     ft2.obj
 0003:000007bc       ?NofRows@@3HA              0043f7bc     ft2.obj
 0003:000007c0       ?CurrentWindow@@3VWINDOW_CLASS@@A 0043f7c0     ft2.obj
 0003:000007c8       ?MainWindow@@3VWINDOW_CLASS@@A 0043f7c8     ft2.obj
 0003:000007d0       ?AutoShotDisplayWindow@@3VWINDOW_CLASS@@A 0043f7d0     ft2.obj
 0003:000007d8       ?CompareVariablesDialog@@3VWINDOW_CLASS@@A 0043f7d8     ft2.obj
 0003:000007e0       ?CurrentDacDialog@@3VWINDOW_CLASS@@A 0043f7e0     ft2.obj
 0003:000007e8       ?CurrentValuesDialog@@3VWINDOW_CLASS@@A 0043f7e8     ft2.obj
 0003:000007f0       ?GlobalParameterDialog@@3VWINDOW_CLASS@@A 0043f7f0     ft2.obj
 0003:000007f8       ?ControlModsDialog@@3VWINDOW_CLASS@@A 0043f7f8     ft2.obj
 0003:00000800       ?SetNullDialog@@3VWINDOW_CLASS@@A 0043f800     ft2.obj
 0003:00000808       ?SetDacDialog@@3VWINDOW_CLASS@@A 0043f808     ft2.obj
 0003:00000810       ?StatusWindow@@3VWINDOW_CLASS@@A 0043f810     ft2.obj
 0003:00000818       ?TerminalWindow@@3VWINDOW_CLASS@@A 0043f818     ft2.obj
 0003:00000820       ?TestAlarmOutputsDialog@@3VWINDOW_CLASS@@A 0043f820     ft2.obj
 0003:00000828       ?UploadFlashDialog@@3VWINDOW_CLASS@@A 0043f828     ft2.obj
 0003:00000830       ?ValveTestDialog@@3VWINDOW_CLASS@@A 0043f830     ft2.obj
 0003:00000838       ?HiresSensorTestDialog@@3VWINDOW_CLASS@@A 0043f838     ft2.obj
 0003:00000840       ?UploadAbortedDialog@@3VWINDOW_CLASS@@A 0043f840     ft2.obj
 0003:00000848       ?ShutdownStatusDialog@@3VWINDOW_CLASS@@A 0043f848     ft2.obj
 0003:00000850       ?OutputListDialog@@3VWINDOW_CLASS@@A 0043f850     ft2.obj
 0003:00000858       ?NullStatusMessage@@3VWINDOW_CLASS@@A 0043f858     ft2.obj
 0003:00000860       ?ManualInfoTbox@@3VWINDOW_CLASS@@A 0043f860     ft2.obj
 0003:00000868       ?FtiiAutoNull@@3VFTII_VAR_ARRAY@@A 0043f868     ft2.obj
 0003:00000884       ?CurrentMachineVars@@3VFTII_VAR_ARRAY@@A 0043f884     ft2.obj
 0003:000008c8       ?GlobalParameters@@3VFTII_VAR_ARRAY@@A 0043f8c8     ft2.obj
 0003:0000107c       ?FileTimeoutError@@3PADA   0044007c     v5subs:dbsubs.obj
 0003:00001090       ?FileNotFoundError@@3PADA  00440090     v5subs:dbsubs.obj
 0003:000010a0       ?PathNotFoundError@@3PADA  004400a0     v5subs:dbsubs.obj
 0003:00001740       ___security_cookie         00440740     LIBCMT:gs_cookie.obj
 0003:00001744       ___security_cookie_complement 00440744     LIBCMT:gs_cookie.obj
 0003:00001748       __fltused                  00440748     LIBCMT:fpinit.obj
 0003:0000174c       __ldused                   0044074c     LIBCMT:fpinit.obj
 0003:00001750       ___isa_enabled             00440750     LIBCMT:cpu_disp.obj
 0003:00001760       __cfltcvt_tab              00440760     LIBCMT:cmiscdat.obj
 0003:00001788       ___flsindex                00440788     LIBCMT:tidtable.obj
 0003:00001908       ___badioinfo               00440908     LIBCMT:ioinit.obj
 0003:00001948       __mbctype                  00440948     LIBCMT:mbctype.obj
 0003:00001a50       __mbcasemap                00440a50     LIBCMT:mbctype.obj
 0003:00001b50       ___initialmbcinfo          00440b50     LIBCMT:mbctype.obj
 0003:00001d74       ___ptmbcinfo               00440d74     LIBCMT:mbctype.obj
 0003:00001e68       ___mb_cur_max              00440e68     LIBCMT:nlsdata.obj
 0003:00001e6c       ___wclocalestr             00440e6c     LIBCMT:nlsdata.obj
 0003:00001e70       ___lc_time_c               00440e70     LIBCMT:nlsdata.obj
 0003:00001fd4       ___ptlocinfo               00440fd4     LIBCMT:nlsdata.obj
 0003:00001fd8       ___initiallocinfo          00440fd8     LIBCMT:nlsdata.obj
 0003:00002090       ___initiallocalestructinfo 00441090     LIBCMT:nlsdata.obj
 0003:00002098       ___globallocalestatus      00441098     LIBCMT:glstatus.obj
 0003:000020a0       __HUGE                     004410a0     LIBCMT:huge.obj
 0003:000021a8       __d_inf                    004411a8     LIBCMT:util.obj
 0003:000021b0       __d_ind                    004411b0     LIBCMT:util.obj
 0003:000021b8       __d_max                    004411b8     LIBCMT:util.obj
 0003:000021c0       __d_min                    004411c0     LIBCMT:util.obj
 0003:000021c8       __d_mzero                  004411c8     LIBCMT:util.obj
 0003:00002310       __iob                      00441310     LIBCMT:_file.obj
 0003:000025c0       ___lconv                   004415c0     LIBCMT:lconv.obj
 0003:000025c4       ___lconv_static_decimal    004415c4     LIBCMT:lconv.obj
 0003:000025c8       ___lconv_c                 004415c8     LIBCMT:lconv.obj
 0003:00002618       ___lconv_static_W_decimal  00441618     LIBCMT:lconv.obj
 0003:0000261c       __pctype                   0044161c     LIBCMT:ctype.obj
 0003:00002620       __pwctype                  00441620     LIBCMT:ctype.obj
 0003:00002624       __matherr_flag             00441624     LIBCMT:matherr.obj
 0003:00002630       ___abort_behavior          00441630     LIBCMT:abort.obj
 0003:00002640       __NLG_Destination          00441640     LIBCMT:exsup.obj
 0003:00002650       __pow10pos                 00441650     LIBCMT:constpow.obj
 0003:000027b0       __pow10neg                 004417b0     LIBCMT:constpow.obj
 0003:00002910       __confh                    00441910     LIBCMT:initcon.obj
 0003:00002914       ??_R0?AVWINDOW_CLASS@@@8   00441914     ft2.obj
 0003:00002930       ??_R0?AVFTII_VAR@@@8       00441930     ft2.obj
 0003:00002948       ??_R0?AVFTII_VAR_ARRAY@@@8 00441948     ft2.obj
 0003:00002968       ??_R0?AVDOUBLE_ARRAY_CLASS@@@8 00441968     board_monitor.obj
 0003:0000298c       ??_R0?AVFTII_ARRAY_DATA@@@8 0044198c     v5subs:ftii_shot_data.obj
 0003:000029ac       ??_R0?AVFTII_PROFILE@@@8   004419ac     v5subs:ftii_shot_data.obj
 0003:000029c8       ??_R0?AVbad_alloc@std@@@8  004419c8     LIBCMT:new.obj
 0003:000029e4       ??_R0?AVexception@std@@@8  004419e4     LIBCMT:new.obj
 0003:00002a00       ??_R0?AVtype_info@@@8      00441a00     LIBCMT:typinfo.obj
 0003:00002a20       ?MainPushButton@@3PAUCONTROL_INFO@@A 00441a20     ft2.obj
 0003:00002a24       ?AddressTbox@@3PAUCONTROL_INFO@@A 00441a24     ft2.obj
 0003:00002a28       ?ConnectedTbox@@3PAUCONTROL_INFO@@A 00441a28     ft2.obj
 0003:00002a2c       ?MachineTbox@@3PAUCONTROL_INFO@@A 00441a2c     ft2.obj
 0003:00002a30       ?PartTbox@@3PAUCONTROL_INFO@@A 00441a30     ft2.obj
 0003:00002a34       ?MonitorStatusTbox@@3PAUCONTROL_INFO@@A 00441a34     ft2.obj
 0003:00002a38       ?MainEbox@@3PAUHWND__@@A   00441a38     ft2.obj
 0003:00002a3c       ?CurrentValuesCommStatusTb@@3PAUHWND__@@A 00441a3c     ft2.obj
 0003:00002a40       ?CurrentValuesMonitorStatusTb@@3PAUHWND__@@A 00441a40     ft2.obj
 0003:00002a44       ?TerminalIsVisible@@3EA    00441a44     ft2.obj
 0003:00002a45       ?BoardMonitorIsRunning@@3_NA 00441a45     ft2.obj
 0003:00002a46       ?ShotSaveIsRunning@@3_NA   00441a46     ft2.obj
 0003:00002a47       ?ClearAlarmsEachShot@@3EA  00441a47     ft2.obj
 0003:00002a48       ?ClearMonitorWireOnDown@@3EA 00441a48     ft2.obj
 0003:00002a49       ?ClearDownWireFromPopup@@3EA 00441a49     ft2.obj
 0003:00002a4a       ?SaveAllAlarmShots@@3EA    00441a4a     ft2.obj
 0003:00002a4b       ?SubtractTimeoutFromAutoDown@@3EA 00441a4b     ft2.obj
 0003:00002a4c       ?HasDigitalServoAmp@@3EA   00441a4c     ft2.obj
 0003:00002a4d       ?NeedErrorLog@@3EA         00441a4d     ft2.obj
 0003:00002a4e       ?IsHiresSensor@@3EA        00441a4e     ft2.obj
 0003:00002a4f       ?IsRemoteMonitor@@3EA      00441a4f     ft2.obj
 0003:00002a50       ?AlsLogIsActive@@3EA       00441a50     ft2.obj
 0003:00002a51       ?LoggingSentCommands@@3EA  00441a51     ft2.obj
 0003:00002a52       ?TurnOffAlarmsOnDown@@3EA  00441a52     ft2.obj
 0003:00002a53       ?ManualNullInProgress@@3_NA 00441a53     ft2.obj
 0003:00002a54       ?DownTimeAlarmWire@@3HA    00441a54     ft2.obj
 0003:00002a58       ?MonitorWire@@3HA          00441a58     ft2.obj
 0003:00002a5c       ?NoUploadWire@@3IA         00441a5c     ft2.obj
 0003:00002a60       ?NoUploadWireMask@@3IA     00441a60     ft2.obj
 0003:00002a64       ?RetractWire@@3IA          00441a64     ft2.obj
 0003:00002a68       ?UploadRetractTimeout@@3IA 00441a68     ft2.obj
 0003:00002a6c       ?UploadStartShotTimeout@@3IA 00441a6c     ft2.obj
 0003:00002a70       ?NO_FT2_CONNECT_STATE@@3IA 00441a70     ft2.obj
 0003:00002a74       ?ShutdownState@@3HA        00441a74     ft2.obj
 0003:00002a78       ?MyDc@@3PAUHDC__@@A        00441a78     ft2.obj
 0003:00002a7c       ?ShotSaveEvent@@3PAXA      00441a7c     ft2.obj
 0003:00002a80       ?CurrentAnalogValue@@3PAIA 00441a80     ft2.obj
 0003:00002ae0       ?BufPtr@@3PAPAUSHOT_BUFFER_ENTRY@@A 00441ae0     ft2.obj
 0003:00002b30       ?AccelHandle@@3PAUHACCEL__@@A 00441b30     ft2.obj
 0003:00002b34       ?Dnu@@3PAPAUHWND__@@A      00441b34     ft2.obj
 0003:00002b3c       ?MasterPen@@3PAUHPEN__@@A  00441b3c     ft2.obj
 0003:00002c2a       ?NullChar@@3DA             00441c2a     ft2.obj
 0003:00002c2b       ?EmptyString@@3PADA        00441c2b     ft2.obj
 0003:00002c34       ?OriEditControlProc@@3P6GJPAUHWND__@@IIJ@ZA 00441c34     ft2.obj
 0003:00002c38       ?MainInstance@@3PAUHINSTANCE__@@A 00441c38     ft2.obj
 0003:00002c3c       ?MainListBox@@3VLISTBOX_CLASS@@A 00441c3c     ft2.obj
 0003:00002c50       ?CurrentMachine@@3VMACHINE_CLASS@@A 00441c50     ft2.obj
 0003:00002ce8       ?CurrentPart@@3VPART_CLASS@@A 00441ce8     ft2.obj
 0003:00002e0c       ?ComputerName@@3VSTRING_CLASS@@A 00441e0c     ft2.obj
 0003:00002e14       ?NoConnectState@@3VSTRING_CLASS@@A 00441e14     ft2.obj
 0003:00002e1c       ?NoResponse@@3VSTRING_CLASS@@A 00441e1c     ft2.obj
 0003:00002e24       ?NotMonitored@@3VSTRING_CLASS@@A 00441e24     ft2.obj
 0003:00002e2c       ?NotConnected@@3VSTRING_CLASS@@A 00441e2c     ft2.obj
 0003:00002e34       ?Connected@@3VSTRING_CLASS@@A 00441e34     ft2.obj
 0003:00002e3c       ?Connecting@@3VSTRING_CLASS@@A 00441e3c     ft2.obj
 0003:00002e44       ?ZeroStrokeLength@@3VSTRING_CLASS@@A 00441e44     ft2.obj
 0003:00002e4c       ?UploadFailed@@3VSTRING_CLASS@@A 00441e4c     ft2.obj
 0003:00002e54       ?AnalogSensor@@3VANALOG_SENSOR@@A 00441e54     ft2.obj
 0003:00002e58       ?CurrentOpStatus@@3UFTII_OP_STATUS_DATA@@A 00441e58     ft2.obj
 0003:00002ebc       ?StepMessage@@3VBLOCK_MESSAGE_CLASS@@A 00441ebc     ft2.obj
 0003:00002ec8       ?ShutdownStatusListbox@@3VLISTBOX_CLASS@@A 00441ec8     ft2.obj
 0003:00002edc       ?OutputListbox@@3VLISTBOX_CLASS@@A 00441edc     ft2.obj
 0003:00002f70       ?MainMenu@@3VMENU_CONTROL_ENTRY@@A 00441f70     ft2.obj
 0003:00003030       ?TerminalMenu@@3VMENU_CONTROL_ENTRY@@A 00442030     ft2.obj
 0003:000030f0       ?StringTable@@3VSTRINGTABLE_CLASS@@A 004420f0     ft2.obj
 0003:00003148       ?MainWindowClientRect@@3VRECTANGLE_CLASS@@A 00442148     ft2.obj
 0003:00003158       ?MainWindowMoveRect@@3VRECTANGLE_CLASS@@A 00442158     ft2.obj
 0003:000061b0       ?UploadAbortedList@@3VTEXT_LIST_CLASS@@A 004451b0     ft2.obj
 0003:00006238       ?InputBitControl@@3PAUBIT_CONTROL@@A 00445238     ft2.obj
 0003:00006340       ?OutputBitControl@@3PAUBIT_CONTROL@@A 00445340     ft2.obj
 0003:0000a508       ?Boards@@3PAVFTII_BOARD_ENTRY@@A 00449508     board_monitor.obj
 0003:0000a50c       ?NofBoards@@3HA            0044950c     board_monitor.obj
 0003:0000a754       ?Worker@@3VWORKER_LIST_CLASS@@A 00449754     shotsave.obj
 0003:0000a7a0       ?SkipList@@3VGENERIC_LIST_CLASS@@A 004497a0     skip.obj
 0003:0000a7b0       ___@@_PchSym_@00@UhlfixvhUevihrlmHUvnkgbUuivvUvnkgbOlyq@6B73A80F87A14A31 004497b0     empty.obj
 0003:0000a80b       ?emptystring@STRING_CLASS@@0PADA 0044980b     v5subs:stringcl.obj
 0003:0000ab9c       ?Shifts@@3PAUSHIFT@@A      00449b9c     v5subs:shift.obj
 0003:0000aba0       ?NofShifts@@3FA            00449ba0     v5subs:shift.obj
 0003:0000ae28       ___fastflag                00449e28     LIBCMT:fpinit.obj
 0003:0000b150       __aenvptr                  0044a150     LIBCMT:wincrt0.obj
 0003:0000b154       __wenvptr                  0044a154     LIBCMT:wincrt0.obj
 0003:0000b158       ?_pnhHeap@@3P6AHI@ZA       0044a158     LIBCMT:handler.obj
 0003:0000b15c       __C_Exit_Done              0044a15c     LIBCMT:crt0dat.obj
 0003:0000b160       ___argc                    0044a160     LIBCMT:crt0dat.obj
 0003:0000b164       ___argv                    0044a164     LIBCMT:crt0dat.obj
 0003:0000b168       ___wargv                   0044a168     LIBCMT:crt0dat.obj
 0003:0000b16c       __environ                  0044a16c     LIBCMT:crt0dat.obj
 0003:0000b170       __wenviron                 0044a170     LIBCMT:crt0dat.obj
 0003:0000b174       __pgmptr                   0044a174     LIBCMT:crt0dat.obj
 0003:0000b178       __wpgmptr                  0044a178     LIBCMT:crt0dat.obj
 0003:0000b17c       __umaskval                 0044a17c     LIBCMT:crt0dat.obj
 0003:0000b180       __exitflag                 0044a180     LIBCMT:crt0dat.obj
 0003:0000b184       __C_Termination_Done       0044a184     LIBCMT:crt0dat.obj
 0003:0000b188       ___winitenv                0044a188     LIBCMT:crt0dat.obj
 0003:0000b18c       ___initenv                 0044a18c     LIBCMT:crt0dat.obj
 0003:0000b190       __maxwait                  0044a190     LIBCMT:crtheap.obj
 0003:0000b194       ___isa_available           0044a194     LIBCMT:cpu_disp.obj
 0003:0000b198       ___favor                   0044a198     LIBCMT:cpu_disp.obj
 0003:0000b1a4       ___pInvalidArgHandler      0044a1a4     LIBCMT:invarg.obj
 0003:0000b1a8       __crtheap                  0044a1a8     LIBCMT:heapinit.obj
 0003:0000b1b0       ___pioinfo                 0044a1b0     LIBCMT:ioinit.obj
 0003:0000b3b8       ___app_type                0044a3b8     LIBCMT:crt0msg.obj
 0003:0000b9e8       ___error_mode              0044a9e8     LIBCMT:errmode.obj
 0003:0000b9ec       ___mbcodepage              0044a9ec     LIBCMT:mbctype.obj
 0003:0000b9f0       ___ismbcodepage            0044a9f0     LIBCMT:mbctype.obj
 0003:0000b9f4       ___mbulinfo                0044a9f4     LIBCMT:mbctype.obj
 0003:0000ba00       ___mblocalename            0044aa00     LIBCMT:mbctype.obj
 0003:0000ba08       ___locale_changed          0044aa08     LIBCMT:wsetloca.obj
 0003:0000ba10       __newmode                  0044aa10     LIBCMT:_newmode.obj
 0003:0000bb68       ?__pInconsistency@@3P6AXXZA 0044ab68     LIBCMT:hooks.obj
 0003:0000bb6c       ___pPurecall               0044ab6c     LIBCMT:inithelp.obj
 0003:0000bb88       __stdbuf                   0044ab88     LIBCMT:_sftbuf.obj
 0003:0000bb90       ?pArgList@UnDecorator@@0PAVReplicator@@A 0044ab90     LIBCMT:undname.obj
 0003:0000bb94       ?pZNameList@UnDecorator@@0PAVReplicator@@A 0044ab94     LIBCMT:undname.obj
 0003:0000bb98       ?pTemplateArgList@UnDecorator@@0PAVReplicator@@A 0044ab98     LIBCMT:undname.obj
 0003:0000bb9c       ?gName@UnDecorator@@0PBDB  0044ab9c     LIBCMT:undname.obj
 0003:0000bba0       ?name@UnDecorator@@0PBDB   0044aba0     LIBCMT:undname.obj
 0003:0000bba4       ?outputString@UnDecorator@@0PADA 0044aba4     LIBCMT:undname.obj
 0003:0000bba8       ?maxStringLength@UnDecorator@@0HA 0044aba8     LIBCMT:undname.obj
 0003:0000bbac       ?disableFlags@UnDecorator@@0KA 0044abac     LIBCMT:undname.obj
 0003:0000bbb0       ?fExplicitTemplateParams@UnDecorator@@0_NA 0044abb0     LIBCMT:undname.obj
 0003:0000bbb1       ?fGetTemplateArgumentList@UnDecorator@@0_NA 0044abb1     LIBCMT:undname.obj
 0003:0000bbb4       ?m_pGetParameter@UnDecorator@@0P6APADJ@ZA 0044abb4     LIBCMT:undname.obj
 0003:0000bbcc       __outputformat             0044abcc     LIBCMT:outputformat.obj
 0003:0000bbd0       __cflush                   0044abd0     LIBCMT:_file.obj
 0003:0000bbe8       ___lconv_static_null       0044abe8     LIBCMT:lconv.obj
 0003:0000bbec       ___lconv_static_W_null     0044abec     LIBCMT:lconv.obj
 0003:0000bc00       __bufin                    0044ac00     <common>
 0003:0000cc00       ___piob                    0044bc00     <common>
 0003:0000cc04       __nstream                  0044bc04     <common>
 0003:0000cc08       ___use_sse2_mathfcns       0044bc08     <common>
 0003:0000cc0c       __pmatherr                 0044bc0c     <common>
 0003:0000cc10       __nhandle                  0044bc10     <common>
 0003:0000cc14       __debugger_hook_dummy      0044bc14     <common>
 0003:0000cc20       _encodedKERNEL32Functions  0044bc20     <common>
 0003:0000cca4       __pDestructExceptionObject 0044bca4     <common>
 0003:0000cca8       ___dyn_tls_init_callback   0044bca8     <common>
 0003:0000ccac       ___onexitend               0044bcac     <common>
 0003:0000ccb0       ___onexitbegin             0044bcb0     <common>
 0003:0000ccb4       ___mbctype_initialized     0044bcb4     <common>
 0003:0000ccb8       ___env_initialized         0044bcb8     <common>
 0003:0000ccbc       __acmdln                   0044bcbc     <common>

 entry point at        0001:0002873d

 Static symbols

 0002:fffca000       .idata$6                   00400000     comdlg32:COMDLG32.dll
 0001:00000000       ??__EAltStepAcc@@YAXXZ     00401000 f   ft2.obj
 0001:00000016       ??__EAltStepAccPrefix@@YAXXZ 00401016 f   ft2.obj
 0001:0000002c       ??__EAltStepEnd@@YAXXZ     0040102c f   ft2.obj
 0001:00000042       ??__EAltStepNum@@YAXXZ     00401042 f   ft2.obj
 0001:00000058       ??__EAltStepPos@@YAXXZ     00401058 f   ft2.obj
 0001:0000006e       ??__EAltStepPosPrefix@@YAXXZ 0040106e f   ft2.obj
 0001:00000084       ??__EAltStepVel@@YAXXZ     00401084 f   ft2.obj
 0001:0000009a       ??__EAltStepVelPrefix@@YAXXZ 0040109a f   ft2.obj
 0001:000000b0       ??__EAnalogSensor@@YAXXZ   004010b0 f   ft2.obj
 0001:000000c6       ??__EAutoBack@@YAXXZ       004010c6 f   ft2.obj
 0001:000000dc       ??__EAutoShotDisplayWindow@@YAXXZ 004010dc f   ft2.obj
 0001:000000e8       ??__EBoardVariable@@YAXXZ  004010e8 f   ft2.obj
 0001:0000010f       ??__EBoardVariableDescription@@YAXXZ 0040110f f   ft2.obj
 0001:00000136       ??__ECVCurrentVariableTb@@YAXXZ 00401136 f   ft2.obj
 0001:00000142       ??__ECVGettingTb@@YAXXZ    00401142 f   ft2.obj
 0001:0000014e       ??__ECVLb@@YAXXZ           0040114e f   ft2.obj
 0001:0000015a       ??__ECVofTb@@YAXXZ         0040115a f   ft2.obj
 0001:00000166       ??__ECompareVariablesDialog@@YAXXZ 00401166 f   ft2.obj
 0001:00000172       ??__EComputerName@@YAXXZ   00401172 f   ft2.obj
 0001:00000188       ??__EConnected@@YAXXZ      00401188 f   ft2.obj
 0001:0000019e       ??__EConnecting@@YAXXZ     0040119e f   ft2.obj
 0001:000001b4       ??__EControlModsDialog@@YAXXZ 004011b4 f   ft2.obj
 0001:000001c0       ??__ECurrentDacDialog@@YAXXZ 004011c0 f   ft2.obj
 0001:000001cc       ??__ECurrentMachine@@YAXXZ 004011cc f   ft2.obj
 0001:000001e2       ??__ECurrentMachineVars@@YAXXZ 004011e2 f   ft2.obj
 0001:000001ee       ??__ECurrentOpStatus@@YAXXZ 004011ee f   ft2.obj
 0001:000001f8       ??__ECurrentPart@@YAXXZ    004011f8 f   ft2.obj
 0001:0000020e       ??__ECurrentValuesDialog@@YAXXZ 0040120e f   ft2.obj
 0001:0000021a       ??__ECurrentWindow@@YAXXZ  0040121a f   ft2.obj
 0001:00000226       ??__EErrorLog@@YAXXZ       00401226 f   ft2.obj
 0001:0000023c       ??__EFontList@@YAXXZ       0040123c f   ft2.obj
 0001:00000252       ??__EFt2TestDialog@@YAXXZ  00401252 f   ft2.obj
 0001:0000025e       ??__EFtiiAutoNull@@YAXXZ   0040125e f   ft2.obj
 0001:0000026a       ??__EGlobalParameterDialog@@YAXXZ 0040126a f   ft2.obj
 0001:00000276       ??__EGlobalParameters@@YAXXZ 00401276 f   ft2.obj
 0001:00000282       ??__EHiresSensorTestDialog@@YAXXZ 00401282 f   ft2.obj
 0001:0000028e       ??__EInputBitControl@@YAXXZ 0040128e f   ft2.obj
 0001:000002b3       ??__EInputOpto@@YAXXZ      004012b3 f   ft2.obj
 0001:000002d7       ??__EMainListBox@@YAXXZ    004012d7 f   ft2.obj
 0001:000002e3       ??__EMainMenu@@YAXXZ       004012e3 f   ft2.obj
 0001:000002f9       ??__EMainWindow@@YAXXZ     004012f9 f   ft2.obj
 0001:00000305       ??__EMainWindowClientRect@@YAXXZ 00401305 f   ft2.obj
 0001:0000031b       ??__EMainWindowMoveRect@@YAXXZ 0040131b f   ft2.obj
 0001:00000331       ??__EManualInfoTbox@@YAXXZ 00401331 f   ft2.obj
 0001:0000033d       ??__EMonitorStatusControl@@YAXXZ 0040133d f   ft2.obj
 0001:00000368       ??__ENoConnectState@@YAXXZ 00401368 f   ft2.obj
 0001:0000037e       ??__ENoResponse@@YAXXZ     0040137e f   ft2.obj
 0001:00000394       ??__ENotConnected@@YAXXZ   00401394 f   ft2.obj
 0001:000003aa       ??__ENotMonitored@@YAXXZ   004013aa f   ft2.obj
 0001:000003c0       ??__ENullStatusMessage@@YAXXZ 004013c0 f   ft2.obj
 0001:000003cc       ??__EOutputBitControl@@YAXXZ 004013cc f   ft2.obj
 0001:000003f1       ??__EOutputListDialog@@YAXXZ 004013f1 f   ft2.obj
 0001:000003fd       ??__EOutputListbox@@YAXXZ  004013fd f   ft2.obj
 0001:00000409       ??__EOutputOpto@@YAXXZ     00401409 f   ft2.obj
 0001:0000042d       ??__EParkStep2Num@@YAXXZ   0040142d f   ft2.obj
 0001:00000443       ??__EParkStepNum@@YAXXZ    00401443 f   ft2.obj
 0001:00000459       ??__EParkStepVolts@@YAXXZ  00401459 f   ft2.obj
 0001:0000046f       ??__EParkStepVoltsPrefix@@YAXXZ 0040146f f   ft2.obj
 0001:00000485       ??__EResumeDialog@@YAXXZ   00401485 f   ft2.obj
 0001:00000491       ??__ESetDacDialog@@YAXXZ   00401491 f   ft2.obj
 0001:0000049d       ??__ESetNullDialog@@YAXXZ  0040149d f   ft2.obj
 0001:000004a9       ??__EShutdownStatusDialog@@YAXXZ 004014a9 f   ft2.obj
 0001:000004b5       ??__EShutdownStatusListbox@@YAXXZ 004014b5 f   ft2.obj
 0001:000004c1       ??__EStartStepNum@@YAXXZ   004014c1 f   ft2.obj
 0001:000004d7       ??__EStartStepVolts@@YAXXZ 004014d7 f   ft2.obj
 0001:000004ed       ??__EStartStepVoltsPrefix@@YAXXZ 004014ed f   ft2.obj
 0001:00000503       ??__EStatusWindow@@YAXXZ   00401503 f   ft2.obj
 0001:0000050f       ??__EStepMessage@@YAXXZ    0040150f f   ft2.obj
 0001:00000525       ??__EStringTable@@YAXXZ    00401525 f   ft2.obj
 0001:0000053b       ??__ETerminalMenu@@YAXXZ   0040153b f   ft2.obj
 0001:00000551       ??__ETerminalWindow@@YAXXZ 00401551 f   ft2.obj
 0001:0000055d       ??__ETestAlarmOpto@@YAXXZ  0040155d f   ft2.obj
 0001:00000581       ??__ETestAlarmOutputsDialog@@YAXXZ 00401581 f   ft2.obj
 0001:0000058d       ??__EUploadAbortedDialog@@YAXXZ 0040158d f   ft2.obj
 0001:00000599       ??__EUploadAbortedList@@YAXXZ 00401599 f   ft2.obj
 0001:000005af       ??__EUploadFailed@@YAXXZ   004015af f   ft2.obj
 0001:000005c5       ??__EUploadFlashDialog@@YAXXZ 004015c5 f   ft2.obj
 0001:000005d1       ??__EValveTestDialog@@YAXXZ 004015d1 f   ft2.obj
 0001:000005dd       ??__EZeroStrokeLength@@YAXXZ 004015dd f   ft2.obj
 0001:000005f3       ??__EAckList@@YAXXZ        004015f3 f   board_monitor.obj
 0001:00000609       ??__EAckMessageStore@@YAXXZ 00401609 f   board_monitor.obj
 0001:0000061f       ??__ENewData@@YAXXZ        0040161f f   board_monitor.obj
 0001:00000635       ??__EReceivedAcks@@YAXXZ   00401635 f   board_monitor.obj
 0001:0000064b       ??__ESocketMessageStore@@YAXXZ 0040164b f   board_monitor.obj
 0001:00000661       ??__EStdDown@@YAXXZ        00401661 f   board_monitor.obj
 0001:0000066d       ??__EEosEndFile@@YAXXZ     0040166d f   shotsave.obj
 0001:00000683       ??__EEosPyramidLines@@YAXXZ 00401683 f   shotsave.obj
 0001:0000068e       ??__EEosStartFile@@YAXXZ   0040168e f   shotsave.obj
 0001:000006a4       ??__EWorker@@YAXXZ         004016a4 f   shotsave.obj
 0001:000006b0       ??__ESkipList@@YAXXZ       004016b0 f   skip.obj
 0001:000006bc       ??__EEmptyString@@YAXXZ    004016bc f   v5subs:nameclas.obj
 0001:000006d2       ??__EMyComputer@@YAXXZ     004016d2 f   v5subs:nameclas.obj
 0001:000006dc       ??__EEmptySensor@@YAXXZ    004016dc f   v5subs:asensor.obj
 0001:000006f2       ??__EMyComputer@@YAXXZ     004016f2 f   v5subs:computer.obj
 0001:00000708       ??__ENoComputer@@YAXXZ     00401708 f   v5subs:computer.obj
 0001:0000071e       ??__EEmptyString@@YAXXZ    0040171e f   v5subs:machname.obj
 0001:00000734       ??__EFontList@@YAXXZ       00401734 f   v5subs:optocontrol.obj
 0001:0000074a       ??__Eempty_entry@@YAXXZ    0040174a f   v5subs:setpoint.obj
 0001:0000076a       ??__EFontList@@YAXXZ       0040176a f   v5subs:stringtable.obj
 0001:00000780       ??__EEventList@@YAXXZ      00401780 f   v5subs:client.obj
 0001:0000078c       ??__EExeDirectory@@YAXXZ   0040178c f   v5subs:gexedir.obj
 0001:000007a2       ??__EFontList@@YAXXZ       004017a2 f   v5subs:menuctrl.obj
 0001:000007b8       ??__EEmpty@@YAXXZ          004017b8 f   v5subs:runlist.obj
 0001:000007d5       ??__ET@@YAXXZ              004017d5 f   v5subs:semaphor.obj
 0001:0000091e       ?add_board_variable_to_list@@YAXPAD@Z 0040191e f   ft2.obj
 0001:00000ce6       ?check_disk_free_space@@YAXXZ 00401ce6 f   ft2.obj
 0001:00000d1f       ?check_for_new_board@@YAXXZ 00401d1f f   ft2.obj
 0001:00000d71       ?check_for_savepart_updates@@YAXXZ 00401d71 f   ft2.obj
 0001:00000ec7       ?check_for_workstation@@YAXXZ 00401ec7 f   ft2.obj
 0001:00000f1a       ?check_terminal_position@@YAXXZ 00401f1a f   ft2.obj
 0001:000012d4       ?copy_mods_to_screen@@YAXXZ 004022d4 f   ft2.obj
 0001:0000147d       ?create_controls@@YAXH@Z   0040247d f   ft2.obj
 0001:00001dc6       ?create_diagnostic_dialogs@@YAXXZ 00402dc6 f   ft2.obj
 0001:00001ea9       ?create_tooltips@@YAXXZ    00402ea9 f   ft2.obj
 0001:0000281a       ?digital_pot_setting@@YAIH@Z 0040381a f   ft2.obj
 0001:0000284a       ?do_alt_step_type_select@@YAXXZ 0040384a f   ft2.obj
 0001:000028aa       ?do_config_word@@YAXPAD@Z  004038aa f   ft2.obj
 0001:0000291a       ?do_hires_sensor_test_timer@@YAXPAUHWND__@@@Z 0040391a f   ft2.obj
 0001:00002a0d       ?do_new_alarm_output_values@@YAXXZ 00403a0d f   ft2.obj
 0001:00002a59       ?do_new_current_values@@YAXXZ 00403a59 f   ft2.obj
 0001:000036d8       ?do_new_ft2_connect_state@@YAXIJ@Z 004046d8 f   ft2.obj
 0001:00003817       ?do_new_oscilloscope_data@@YAXJ@Z 00404817 f   ft2.obj
 0001:00003881       ?do_new_rt_data@@YAXIJ@Z   00404881 f   ft2.obj
 0001:00003962       ?do_new_set_dac_values@@YAXXZ 00404962 f   ft2.obj
 0001:00003d6a       ?do_new_set_null_values@@YAXXZ 00404d6a f   ft2.obj
 0001:00003e0a       ?do_opto_click@@YAXIJ@Z    00404e0a f   ft2.obj
 0001:00003e5a       ?do_updown@@YAXH@Z         00404e5a f   ft2.obj
 0001:00003f0d       ?dock_terminal@@YAXXZ      00404f0d f   ft2.obj
 0001:0000417c       ?exit_main_proc@@YAXXZ     0040517c f   ft2.obj
 0001:000041c1       ?extract_alt_step_velocity@@YAXAAVSTRING_CLASS@@@Z 004051c1 f   ft2.obj
 0001:00004280       ?fill_global_parameters@@YAXXZ 00405280 f   ft2.obj
 0001:00004731       ?fill_machine_listbox@@YAEPAUHWND__@@@Z 00405731 f   ft2.obj
 0001:0000495f       ?get_alt_step_from_line@@YAXPAD@Z 0040595f f   ft2.obj
 0001:00004a6d       ?get_alt_step_velocity_for_ebox@@YAXAAVSTRING_CLASS@@@Z 00405a6d f   ft2.obj
 0001:00004b94       ?get_ascii_rt_data@@YAXJ@Z 00405b94 f   ft2.obj
 0001:00004e62       ?get_board_variable_descriptions@@YAXXZ 00405e62 f   ft2.obj
 0001:0000508d       ?get_history_length@@YAXXZ 0040608d f   ft2.obj
 0001:00005111       ?get_next_upload_aborted_machine@@YA_NXZ 00406111 f   ft2.obj
 0001:0000515f       ?get_string_value_from_line@@YAPADPAD@Z 0040615f f   ft2.obj
 0001:000051f2       ?hide_terminal_window@@YAXXZ 004061f2 f   ft2.obj
 0001:000059ca       ?init_control_mods_dialog@@YAXXZ 004069ca f   ft2.obj
 0001:00005ab2       ?init_current_values_dialog@@YAXXZ 00406ab2 f   ft2.obj
 0001:00005f13       ?init_set_dac_dialog@@YAXXZ 00406f13 f   ft2.obj
 0001:00006041       ?init_valve_test_data@@YAXXZ 00407041 f   ft2.obj
 0001:000061fd       ?load_control_mods_from_file@@YA_NXZ 004071fd f   ft2.obj
 0001:0000650f       ?load_current_part@@YAXXZ  0040750f f   ft2.obj
 0001:0000659f       ?load_limit_switch_wires_for_realtime_output_display@@YAXXZ 0040759f f   ft2.obj
 0001:0000664a       ?load_machine_vars@@YAEXZ  0040764a f   ft2.obj
 0001:00006727       ?load_main_menu@@YAXXZ     00407727 f   ft2.obj
 0001:00006783       ?load_master_trace@@YAXXZ  00407783 f   ft2.obj
 0001:0000698f       ?load_resources@@YAXXZ     0040798f f   ft2.obj
 0001:00006a93       ?load_terminal_menu@@YAXXZ 00407a93 f   ft2.obj
 0001:00006b71       ?log_input_bits@@YAXXZ     00407b71 f   ft2.obj
 0001:00006c0b       ?log_output_bits@@YAXXZ    00407c0b f   ft2.obj
 0001:0000730b       $LN157                     0040830b     ft2.obj
 0001:0000732f       ?mv_from_percent@@YAHAAVSTRING_CLASS@@@Z 0040832f f   ft2.obj
 0001:000073a3       ?mv_from_percent@@YAHN@Z   004083a3 f   ft2.obj
 0001:0000741e       ?need_monitor_brush@@YAPAUHBRUSH__@@PAUHWND__@@@Z 0040841e f   ft2.obj
 0001:00007773       ?nof_ft2_boards@@YAHXZ     00408773 f   ft2.obj
 0001:00007854       ?output_list_update@@YAXXZ 00408854 f   ft2.obj
 0001:00007b98       ?percent_from_mv@@YAPADH@Z 00408b98 f   ft2.obj
 0001:00007bb9       ?percent_to_hex@@YAPADN@Z  00408bb9 f   ft2.obj
 0001:00007c2c       ?plot_oscilloscope_data@@YAXPAH@Z 00408c2c f   ft2.obj
 0001:00007ed7       ?position_button_child@@YAXAAVWINDOW_CLASS@@@Z 00408ed7 f   ft2.obj
 0001:00007fc3       ?position_ft2_test_dialog@@YAXXZ 00408fc3 f   ft2.obj
 0001:00008064       ?position_main_window@@YAXXZ 00409064 f   ft2.obj
 0001:0000815f       ?position_shutdown_status_dialog@@YAXPAUHWND__@@@Z 0040915f f   ft2.obj
 0001:00008276       ?put_byte@@YAXAAIIH@Z      00409276 f   ft2.obj
 0001:00008346       ?refresh_current_machine@@YAXAAVSTRING_CLASS@@@Z 00409346 f   ft2.obj
 0001:00008374       ?refresh_current_values@@YAXXZ 00409374 f   ft2.obj
 0001:00008553       ?refresh_set_dac_dialog@@YAXXZ 00409553 f   ft2.obj
 0001:0000863e       ?refresh_valve_test_screen@@YAXXZ 0040963e f   ft2.obj
 0001:000086b3       ?remote_shutdown@@YAXXZ    004096b3 f   ft2.obj
 0001:00008eb1       ?restore_saved_board_variables@@YAEXZ 00409eb1 f   ft2.obj
 0001:00008fe0       ?retry_upload_to_aborted_machine@@YAXXZ 00409fe0 f   ft2.obj
 0001:00009035       ?save_board_variables@@YAXXZ 0040a035 f   ft2.obj
 0001:000090f5       ?save_channel_mode@@YAXH@Z 0040a0f5 f   ft2.obj
 0001:0000916f       ?save_control_mod_changes@@YAXXZ 0040a16f f   ft2.obj
 0001:00009367       ?save_global_parameters@@YAXXZ 0040a367 f   ft2.obj
 0001:000097a5       ?save_listbox@@YAXXZ       0040a7a5 f   ft2.obj
 0001:00009808       ?save_machine_vars@@YAEXZ  0040a808 f   ft2.obj
 0001:000098b4       ?save_master_trace@@YAXXZ  0040a8b4 f   ft2.obj
 0001:0000998c       ?save_null_value@@YAXXZ    0040a98c f   ft2.obj
 0001:00009a10       ?scroll_listbox_to_last_entry@@YAXXZ 0040aa10 f   ft2.obj
 0001:00009a3f       ?send_channel_mode_command@@YAHXZ 0040aa3f f   ft2.obj
 0001:00009abc       ?send_channel_mode_command@@YAXH@Z 0040aabc f   ft2.obj
 0001:00009b0d       ?send_command@@YAXPAD0_N@Z 0040ab0d f   ft2.obj
 0001:00009b4b       ?send_command_to_current_machine@@YAXPAD_N@Z 0040ab4b f   ft2.obj
 0001:00009bef       ?send_current_digital_pot_command@@YAXXZ 0040abef f   ft2.obj
 0001:00009cb8       ?send_data_server_down_notification@@YAXPAD@Z 0040acb8 f   ft2.obj
 0001:00009d0f       ?send_data_server_shot_notification@@YAXPAD0@Z 0040ad0f f   ft2.obj
 0001:00009d7e       ?send_lvdt_digital_pot_command@@YAXE@Z 0040ad7e f   ft2.obj
 0001:00009f5c       ?send_manual_null_command@@YAXXZ 0040af5c f   ft2.obj
 0001:0000a306       ?send_test_message@@YAXH@Z 0040b306 f   ft2.obj
 0001:0000a4b2       $LN23                      0040b4b2     ft2.obj
 0001:0000a4ea       ?set_channel_5_8_labels@@YAXH@Z 0040b4ea f   ft2.obj
 0001:0000a9ec       ?set_current_window@@YAXAAVWINDOW_CLASS@@@Z 0040b9ec f   ft2.obj
 0001:0000b226       ?set_globals_from_eboxes@@YAXPAUHWND__@@@Z 0040c226 f   ft2.obj
 0001:0000b398       ?set_gray_menu_items@@YAXXZ 0040c398 f   ft2.obj
 0001:0000b586       ?should_be_hex@@YAEPAD0@Z  0040c586 f   ft2.obj
 0001:0000b62e       ?show_alt_step@@YAXXZ      0040c62e f   ft2.obj
 0001:0000b65a       ?show_alt_step_controls@@YAXXZ 0040c65a f   ft2.obj
 0001:0000b707       ?show_buttons@@YAXXZ       0040c707 f   ft2.obj
 0001:0000b76a       ?show_park_step@@YAXXZ     0040c76a f   ft2.obj
 0001:0000b7d6       ?show_revision_d_controls@@YAXXZ 0040c7d6 f   ft2.obj
 0001:0000b833       ?show_start_step@@YAXXZ    0040c833 f   ft2.obj
 0001:0000b89f       ?show_upload_aborted_dialog@@YAXH@Z 0040c89f f   ft2.obj
 0001:0000b962       ?show_valve_test_revision_d_controls@@YAXXZ 0040c962 f   ft2.obj
 0001:0000b9bf       ?showbits@@YAPADPADI@Z     0040c9bf f   ft2.obj
 0001:0000ba54       ?shutdown@@YAXXZ           0040ca54 f   ft2.obj
 0001:0000bbce       ?size_output_list_dialog@@YAXXZ 0040cbce f   ft2.obj
 0001:0000bc35       ?size_terminal@@YAXXZ      0040cc35 f   ft2.obj
 0001:0000bcea       ?start_acquiring_all_board_variables@@YAEH@Z 0040ccea f   ft2.obj
 0001:0000c113       ?stop_hires_sensor_test@@YAXXZ 0040d113 f   ft2.obj
 0001:0000c355       ?toggle_io_display@@YAXXZ  0040d355 f   ft2.obj
 0001:0000c4b5       ?toggle_logging_sent_commands@@YAXXZ 0040d4b5 f   ft2.obj
 0001:0000c541       ?ultohexstring@@YAPADPADI@Z 0040d541 f   ft2.obj
 0001:0000c59b       ?update_alt_step@@YAXH@Z   0040d59b f   ft2.obj
 0001:0000c689       ?update_current_variables_listbox@@YAXXZ 0040d689 f   ft2.obj
 0001:0000c805       ?update_park_step@@YAXXZ   0040d805 f   ft2.obj
 0001:0000c864       ?update_start_step@@YAXXZ  0040d864 f   ft2.obj
 0001:0000cbeb       ?write_log@@YAXPAD@Z       0040dbeb f   ft2.obj
 0001:0000d3c7       ?add_board_data@@YAPADPADG@Z 0040e3c7 f   board_monitor.obj
 0001:0000d4ad       ?ascii_strings_are_equal@@YAEPBD0H@Z 0040e4ad f   board_monitor.obj
 0001:0000d552       ?board_index@@YAHAAUsockaddr_in@@@Z 0040e552 f   board_monitor.obj
 0001:0000d587       ?board_index@@YAHABVSTRING_CLASS@@@Z 0040e587 f   board_monitor.obj
 0001:0000d5c9       ?board_index@@YAHPBVFTII_BOARD_ENTRY@@@Z 0040e5c9 f   board_monitor.obj
 0001:0000d5eb       ?check_alarms@@YAXAAU_SYSTEMTIME@@PAVFTII_BOARD_ENTRY@@PAN@Z 0040e5eb f   board_monitor.obj
 0001:0000d7fe       ?check_for_cycle_start@@YA_NPAVFTII_BOARD_ENTRY@@PAD@Z 0040e7fe f   board_monitor.obj
 0001:0000dbd2       ?check_for_timeouts@@YAXXZ 0040ebd2 f   board_monitor.obj
 0001:0000e0fe       ?connect_one_board@@YAXH@Z 0040f0fe f   board_monitor.obj
 0001:0000e229       ?connect_to_boards@@YAXXZ  0040f229 f   board_monitor.obj
 0001:0000e272       ?continue_connecting_one_board@@YAXH@Z 0040f272 f   board_monitor.obj
 0001:0000e5f2       ?disconnect_from_boards@@YAXXZ 0040f5f2 f   board_monitor.obj
 0001:0000e88d       ?do_ack_message@@YAXPAUSOCKET_MESSAGE@@@Z 0040f88d f   board_monitor.obj
 0001:0000e9ad       ?do_ascii_message@@YAXHPAD@Z 0040f9ad f   board_monitor.obj
 0001:0000ec41       ?do_ascii_message@@YAXHPAUSOCKET_MESSAGE@@@Z 0040fc41 f   board_monitor.obj
 0001:0000ec99       ?do_newsetup@@YAXAAVSTRING_CLASS@@@Z 0040fc99 f   board_monitor.obj
 0001:0000f000       ?get_socket_message@@YAPAUSOCKET_MESSAGE@@XZ 00410000 f   board_monitor.obj
 0001:0000fbfa       ?make_line@@YAXAAVSTRING_CLASS@@IAAVTIME_CLASS@@@Z 00410bfa f   board_monitor.obj
 0001:0001057b       ?send_ack@@YAXAAUsockaddr_in@@@Z 0041157b f   board_monitor.obj
 0001:000107b8       ?send_machine_state_event_string@@YAXAAVSTRING_CLASS@@GG@Z 004117b8 f   board_monitor.obj
 0001:00011260       ?start_socket@@YAXXZ       00412260 f   board_monitor.obj
 0001:0001141b       ?truncate_control_file_line@@YAXPAD@Z 0041241b f   board_monitor.obj
 0001:00011464       ?update_config_word@@YAXAAVSTRING_CLASS@@K@Z 00412464 f   board_monitor.obj
 0001:000114e9       ?update_config_word@@YAXAAVSTRING_CLASS@@KK@Z 004124e9 f   board_monitor.obj
 0001:0001165a       ?update_monitor_status@@YAXPAVFTII_BOARD_ENTRY@@PAD@Z 0041265a f   board_monitor.obj
 0001:00011777       ?update_one_board_display@@YAXHPAD@Z 00412777 f   board_monitor.obj
 0001:00011899       ?update_pc_digital_pot_gain@@YAXAAVSTRING_CLASS@@AAVPRESSURE_CONTROL_CLASS@@@Z 00412899 f   board_monitor.obj
 0001:0001233f       ?write_als_bit_changes@@YAXII@Z 0041333f f   board_monitor.obj
 0001:00012516       ?write_sent_command@@YAXHPAD@Z 00413516 f   board_monitor.obj
 0001:000126fe       ?convert_control_chars@@YAXPAD@Z 004136fe f   shotsave.obj
 0001:000127ba       ?freebuf@@YAXH@Z           004137ba f   shotsave.obj
 0001:000127e2       ?get_dde_parameter_list@@YAXXZ 004137e2 f   shotsave.obj
 0001:00012bfe       ?make_line@@YAXAAVSTRING_CLASS@@INH@Z 00413bfe f   shotsave.obj
 0001:00012c75       ?make_output_line@@YAPADPAUSHOT_BUFFER_ENTRY@@PAD@Z 00413c75 f   shotsave.obj
 0001:00013361       ?make_parameter_event_string@@YAPADPAUSHOT_BUFFER_ENTRY@@@Z 00414361 f   shotsave.obj
 0001:000139b9       ?save_this_machine@@YAXAAVSTRING_CLASS@@@Z 004149b9 f   shotsave.obj
 0001:00013b65       ?startup@@YAXXZ            00414b65 f   shotsave.obj
 0001:00013f94       ?write_als_log@@YAXPADAAVFTII_FILE_DATA@@@Z 00414f94 f   shotsave.obj
 0001:00014423       ?write_bytes_to_serial_port@@YAEPAXK@Z 00415423 f   shotsave.obj
 0001:0001446d       ?write_eos_param_file@@YAXPAUSHOT_BUFFER_ENTRY@@@Z 0041546d f   shotsave.obj
 0001:00014b66       ?write_hex_file_to_serial_port@@YAEAAVNAME_CLASS@@@Z 00415b66 f   shotsave.obj
 0001:00014cc8       ?write_output_file@@YAXPAUSHOT_BUFFER_ENTRY@@@Z 00415cc8 f   shotsave.obj
 0001:00014e09       ?write_serial_port_info@@YAXPAUSHOT_BUFFER_ENTRY@@@Z 00415e09 f   shotsave.obj
 0001:00014ff0       ?fill_skip_entry@@YAXPAUSKIP_ENTRY@@AAVSETPOINT_CLASS@@H@Z 00415ff0 f   skip.obj
 0001:000150e5       ?find@@YAPAUMACH_SKIP_ENTRY@@AAVSTRING_CLASS@@@Z 004160e5 f   skip.obj
 0001:000151d9       ?increment_shot_entry@@YAEPAUSKIP_ENTRY@@U_FILETIME@@@Z 004161d9 f   skip.obj
 0001:000152a1       ?reset@@YAEPAUMACH_SKIP_ENTRY@@@Z 004162a1 f   skip.obj
 0001:00015852       ?file_type@@YAHPAD@Z       00416852 f   v5subs:exists.obj
 0001:00015b52       ?numberlen@@YAFPBD@Z       00416b52 f   v5subs:extract.obj
 0001:00016d8f       ?kill_sensor_array@@YAXXZ  00417d8f f   v5subs:asensor.obj
 0001:00017337       ?fieldlength@@YAFPBD@Z     00418337 f   v5subs:dbsubs.obj
 0001:00017f51       ?trim_text@@YAFPADF@Z      00418f51 f   v5subs:dbsubs.obj
 0001:00018cd9       ?goto_next_string@@YAPADPAD@Z 00419cd9 f   v5subs:fontclas.obj
 0001:00018ce7       ?long_from_text@@YAJPBD@Z  00419ce7 f   v5subs:fontclas.obj
 0001:00019901       ?get_binary_valve_settings_from_control_all@@YAXAAVMACHINE_CLASS@@@Z 0041a901 f   v5subs:machine.obj
 0001:0001a634       ?create_my_font@@YAXXZ     0041b634 f   v5subs:optocontrol.obj
 0001:0001a6a1       ?paint_me@@YAXPAUHWND__@@J@Z 0041b6a1 f   v5subs:optocontrol.obj
 0001:0001aa67       ?send_click_message_to_parent@@YAXPAUHWND__@@J@Z 0041ba67 f   v5subs:optocontrol.obj
 0001:0001c2f3       ?strip_whitespace_from_eol@@YAXPAD@Z 0041d2f3 f   v5subs:stringtable.obj
 0001:0001d19d       ?find_existing_event_item@@YAPAUEVENT_ITEM_ENTRY@@PAUEVENT_ENTRY@@F@Z 0041e19d f   v5subs:client.obj
 0001:0001d1d6       ?find_existing_event_topic@@YAPAUEVENT_ENTRY@@PAD@Z 0041e1d6 f   v5subs:client.obj
 0001:0001d686       ?cleanup_dcurves@@YAXXZ    0041e686 f   v5subs:dcurve.obj
 0001:0001d714       ?reload_dcurves@@YAEXZ     0041e714 f   v5subs:dcurve.obj
 0001:0001d91a       ?get_static_exe_directory@@YAXXZ 0041e91a f   v5subs:gexedir.obj
 0001:0001db2a       ?ftoasc@@YAXPADNH@Z        0041eb2a f   v5subs:ftoasc.obj
 0001:0001e756       ?add_seconds_to_systemtime@@YAEAAU_SYSTEMTIME@@J@Z 0041f756 f   v5subs:shift.obj
 0001:0001e9d5       ?shift_from_rec@@YAXPAFFAAVDB_TABLE@@@Z 0041f9d5 f   v5subs:shift.obj
 0001:0001ea96       ?shift_index@@YAFABU_SYSTEMTIME@@@Z 0041fa96 f   v5subs:shift.obj
 0001:0001ed23       ?units_index@@YAFF@Z       0041fd23 f   v5subs:units.obj
 0001:0001ef47       ?paint_temp_message@@YAXXZ 0041ff47 f   v5subs:temp_message.obj
 0001:0001efe4       ?position_temp_message@@YAXPAUHWND__@@@Z 0041ffe4 f   v5subs:temp_message.obj
 0001:0001f70d       ?init_systemtime@@YAXAAU_SYSTEMTIME@@@Z 0042070d f   v5subs:timeclas.obj
 0001:0001f731       ?leap_index@@YAHH@Z        00420731 f   v5subs:timeclas.obj
 0001:000203cb       ?do_nothing_paint_me@@YAXPAUHWND__@@@Z 004213cb f   v5subs:menuctrl.obj
 0001:0002075a       ?get_current_colors@@YAXPAD@Z 0042175a f   v5subs:menuctrl.obj
 0001:00021edd       ?variable_number@@YAHPBD@Z 00422edd f   v5subs:ftiiclas.obj
 0001:000240b1       ?downstate@@YAHPAD0@Z      004250b1 f   v5subs:dstat.obj
 0001:0002763c       ?add_err_number@@YAXPADF@Z 0042863c f   v5subs:error_ms.obj
 0001:000276be       ?add_string@@YAXPAD@Z      004286be f   v5subs:error_ms.obj
 0001:00027731       ?wait_for_key@@YAXXZ       00428731 f   v5subs:error_ms.obj
 0001:00027b23       __onexit_nolock            00428b23 f   LIBCMT:onexit.obj
 0001:00027c00       $$000000                   00428c00     LIBCMT:memset.obj
 0001:00027d40       $$000000                   00428d40     LIBCMT:memcpy.obj
 0001:00027f90       LeadUpVec                  00428f90     LIBCMT:memcpy.obj
 0001:0002800c       UnwindUpVec                0042900c     LIBCMT:memcpy.obj
 0001:00028078       TrailUpVec                 00429078     LIBCMT:memcpy.obj
 0001:0002811c       LeadDownVec                0042911c     LIBCMT:memcpy.obj
 0001:000281a8       UnwindDownVec              004291a8     LIBCMT:memcpy.obj
 0001:00028214       TrailDownVec               00429214     LIBCMT:memcpy.obj
 0001:00028423       __callthreadstart          00429423 f   LIBCMT:thread.obj
 0001:0002848f       __threadstart@4            0042948f f   LIBCMT:thread.obj
 0001:000284f0       $$000000                   004294f0     LIBCMT:chkstk.obj
 0001:00028747       ___tmainCRTStartup         00429747 f   LIBCMT:wincrt0.obj
 0001:00028897       _fast_error_exit           00429897 f   LIBCMT:wincrt0.obj
 0001:00028a72       ?strtoxl@@YAKPAUlocaleinfo_struct@@PBDPAPBDHH@Z 00429a72 f   LIBCMT:strtol.obj
 0001:00028cec       ?_fpcvt@@YAHPADIPAU_strflt@@HPAH2@Z 00429cec f   LIBCMT:fcvt.obj
 0001:00028e20       $$000000                   00429e20     LIBCMT:floor_pentium4.obj
 0001:00028f50       $$000000                   00429f50     LIBCMT:ulldiv.obj
 0001:00028fc0       $$000000                   00429fc0     LIBCMT:memmove.obj
 0001:00029210       LeadUpVec                  0042a210     LIBCMT:memmove.obj
 0001:0002928c       UnwindUpVec                0042a28c     LIBCMT:memmove.obj
 0001:000292f8       TrailUpVec                 0042a2f8     LIBCMT:memmove.obj
 0001:0002939c       LeadDownVec                0042a39c     LIBCMT:memmove.obj
 0001:00029428       UnwindDownVec              0042a428     LIBCMT:memmove.obj
 0001:00029494       TrailDownVec               0042a494     LIBCMT:memmove.obj
 0001:00029610       $$000000                   0042a610     LIBCMT:ftol2.obj
 0001:000296c0       $$000000                   0042a6c0     LIBCMT:ftol3.obj
 0001:00029a90       $$000000                   0042aa90     LIBCMT:ceil_pentium4.obj
 0001:00029bb0       $$000000                   0042abb0     LIBCMT:lldiv.obj
 0001:00029c60       $$000000                   0042ac60     LIBCMT:llmul.obj
 0001:0002a050       __initterm                 0042b050 f   LIBCMT:crt0dat.obj
 0001:0002a0ba       _doexit                    0042b0ba f   LIBCMT:crt0dat.obj
 0001:0002a310       $$000000                   0042b310     LIBCMT:sehprolg4.obj
 0001:0002a750       $$000000                   0042b750     LIBCMT:strcmp.obj
 0001:0002ac6e       __cftoe2_l                 0042bc6e f   LIBCMT:cvt.obj
 0001:0002ae8d       __cftof2_l                 0042be8d f   LIBCMT:cvt.obj
 0001:0002b2c3       __shift                    0042c2c3 f   LIBCMT:cvt.obj
 0001:0002c19e       _parse_cmdline             0042d19e f   LIBCMT:stdargv.obj
 0001:0002cc49       ?CPtoLocaleName@@YAPB_WH@Z 0042dc49 f   LIBCMT:mbctype.obj
 0001:0002cc83       ?getSystemCP@@YAHH@Z       0042dc83 f   LIBCMT:mbctype.obj
 0001:0002ccf1       ?setSBCS@@YAXPAUthreadmbcinfostruct@@@Z 0042dcf1 f   LIBCMT:mbctype.obj
 0001:0002cd50       ?setSBUpLow@@YAXPAUthreadmbcinfostruct@@@Z 0042dd50 f   LIBCMT:mbctype.obj
 0001:0002d8d8       $LN79                      0042e8d8     LIBCMT:libm_error.obj
 0001:0002e1d0       $$000000                   0042f1d0     LIBCMT:sqrt.obj
 0001:0002e560       $$000000                   0042f560     LIBCMT:strlen.obj
 0001:0002eae7       _siglookup                 0042fae7 f   LIBCMT:winsig.obj
 0001:0002ec60       $$000000                   0042fc60     LIBCMT:exsup4.obj
 0001:0002ecf0       __unwind_handler4          0042fcf0 f   LIBCMT:exsup4.obj
 0001:0002efa0       $$000000                   0042ffa0     LIBCMT:strrchr.obj
 0001:0002f230       $$000000                   00430230     LIBCMT:lldvrm.obj
 0001:0002f310       $$000000                   00430310     LIBCMT:ullshr.obj
 0001:0002f505       ?x_ismbbtype_l@@YAHPAUlocaleinfo_struct@@IHH@Z 00430505 f   LIBCMT:ismbbyte.obj
 0001:00030b56       $LN333                     00431b56     LIBCMT:strgtold.obj
 0001:00031069       ?__crtLCMapStringA_stat@@YAHPAUlocaleinfo_struct@@PB_WKPBDHPADHHH@Z 00432069 f   LIBCMT:a_map.obj
 0001:000312d1       ?__crtGetStringTypeA_stat@@YAHPAUlocaleinfo_struct@@KPBDHPAGHH@Z 004322d1 f   LIBCMT:a_str.obj
 0001:00031f80       $$000000                   00432f80     LIBCMT:87disp.obj
 0001:00032150       $$000000                   00433150     LIBCMT:genexcep.obj
 0001:000321b0       $$000000                   004331b0     LIBCMT:common.obj
 0001:000324aa       _flsall                    004334aa f   LIBCMT:fflush.obj
 0001:00032590       $$000000                   00433590     LIBCMT:exsup.obj
 0001:000325b0       __unwind_handler           004335b0 f   LIBCMT:exsup.obj
 0001:000326d0       $$000000                   004336d0     LIBCMT:ulldvrm.obj
 0001:00032765       ___hw_cw_sse2              00433765 f   LIBCMT:ieee87.obj
 0001:00032b10       __hw_cw                    00433b10 f   LIBCMT:ieee87.obj
 0001:00032e30       $$000000                   00433e30     LIBCMT:alloca16.obj
 0001:00034006       ??__FAltStepAcc@@YAXXZ     00435006 f   ft2.obj
 0001:00034010       ??__FAltStepAccPrefix@@YAXXZ 00435010 f   ft2.obj
 0001:0003401a       ??__FAltStepEnd@@YAXXZ     0043501a f   ft2.obj
 0001:00034024       ??__FAltStepNum@@YAXXZ     00435024 f   ft2.obj
 0001:0003402e       ??__FAltStepPos@@YAXXZ     0043502e f   ft2.obj
 0001:00034038       ??__FAltStepPosPrefix@@YAXXZ 00435038 f   ft2.obj
 0001:00034042       ??__FAltStepVel@@YAXXZ     00435042 f   ft2.obj
 0001:0003404c       ??__FAltStepVelPrefix@@YAXXZ 0043504c f   ft2.obj
 0001:00034056       ??__FAnalogSensor@@YAXXZ   00435056 f   ft2.obj
 0001:00034060       ??__FAutoBack@@YAXXZ       00435060 f   ft2.obj
 0001:0003406a       ??__FAutoShotDisplayWindow@@YAXXZ 0043506a f   ft2.obj
 0001:00034075       ??__FBoardVariable@@YAXXZ  00435075 f   ft2.obj
 0001:00034091       ??__FBoardVariableDescription@@YAXXZ 00435091 f   ft2.obj
 0001:000340ad       ??__FCVCurrentVariableTb@@YAXXZ 004350ad f   ft2.obj
 0001:000340b8       ??__FCVGettingTb@@YAXXZ    004350b8 f   ft2.obj
 0001:000340c3       ??__FCVLb@@YAXXZ           004350c3 f   ft2.obj
 0001:000340cd       ??__FCVofTb@@YAXXZ         004350cd f   ft2.obj
 0001:000340d8       ??__FCompareVariablesDialog@@YAXXZ 004350d8 f   ft2.obj
 0001:000340e3       ??__FComputerName@@YAXXZ   004350e3 f   ft2.obj
 0001:000340ed       ??__FConnected@@YAXXZ      004350ed f   ft2.obj
 0001:000340f7       ??__FConnecting@@YAXXZ     004350f7 f   ft2.obj
 0001:00034101       ??__FControlModsDialog@@YAXXZ 00435101 f   ft2.obj
 0001:0003410c       ??__FCurrentDacDialog@@YAXXZ 0043510c f   ft2.obj
 0001:00034117       ??__FCurrentMachine@@YAXXZ 00435117 f   ft2.obj
 0001:00034121       ??__FCurrentMachineVars@@YAXXZ 00435121 f   ft2.obj
 0001:0003412b       ??__FCurrentPart@@YAXXZ    0043512b f   ft2.obj
 0001:00034135       ??__FCurrentValuesDialog@@YAXXZ 00435135 f   ft2.obj
 0001:00034140       ??__FCurrentWindow@@YAXXZ  00435140 f   ft2.obj
 0001:0003414b       ??__FErrorLog@@YAXXZ       0043514b f   ft2.obj
 0001:00034155       ??__FFontList@@YAXXZ       00435155 f   ft2.obj
 0001:0003415f       ??__FFt2TestDialog@@YAXXZ  0043515f f   ft2.obj
 0001:0003416a       ??__FFtiiAutoNull@@YAXXZ   0043516a f   ft2.obj
 0001:00034174       ??__FGlobalParameterDialog@@YAXXZ 00435174 f   ft2.obj
 0001:0003417f       ??__FGlobalParameters@@YAXXZ 0043517f f   ft2.obj
 0001:00034189       ??__FHiresSensorTestDialog@@YAXXZ 00435189 f   ft2.obj
 0001:00034194       ??__FInputBitControl@@YAXXZ 00435194 f   ft2.obj
 0001:000341b5       ??__FInputOpto@@YAXXZ      004351b5 f   ft2.obj
 0001:000341ca       ??__FMainListBox@@YAXXZ    004351ca f   ft2.obj
 0001:000341d4       ??__FMainMenu@@YAXXZ       004351d4 f   ft2.obj
 0001:000341de       ??__FMainWindow@@YAXXZ     004351de f   ft2.obj
 0001:000341e9       ??__FMainWindowClientRect@@YAXXZ 004351e9 f   ft2.obj
 0001:000341f3       ??__FMainWindowMoveRect@@YAXXZ 004351f3 f   ft2.obj
 0001:000341fd       ??__FManualInfoTbox@@YAXXZ 004351fd f   ft2.obj
 0001:00034208       ??__FMonitorStatusControl@@YAXXZ 00435208 f   ft2.obj
 0001:0003421d       ??__FNoConnectState@@YAXXZ 0043521d f   ft2.obj
 0001:00034227       ??__FNoResponse@@YAXXZ     00435227 f   ft2.obj
 0001:00034231       ??__FNotConnected@@YAXXZ   00435231 f   ft2.obj
 0001:0003423b       ??__FNotMonitored@@YAXXZ   0043523b f   ft2.obj
 0001:00034245       ??__FNullStatusMessage@@YAXXZ 00435245 f   ft2.obj
 0001:00034250       ??__FOutputBitControl@@YAXXZ 00435250 f   ft2.obj
 0001:00034271       ??__FOutputListDialog@@YAXXZ 00435271 f   ft2.obj
 0001:0003427c       ??__FOutputListbox@@YAXXZ  0043527c f   ft2.obj
 0001:00034286       ??__FOutputOpto@@YAXXZ     00435286 f   ft2.obj
 0001:0003429b       ??__FParkStep2Num@@YAXXZ   0043529b f   ft2.obj
 0001:000342a5       ??__FParkStepNum@@YAXXZ    004352a5 f   ft2.obj
 0001:000342af       ??__FParkStepVolts@@YAXXZ  004352af f   ft2.obj
 0001:000342b9       ??__FParkStepVoltsPrefix@@YAXXZ 004352b9 f   ft2.obj
 0001:000342c3       ??__FResumeDialog@@YAXXZ   004352c3 f   ft2.obj
 0001:000342ce       ??__FSetDacDialog@@YAXXZ   004352ce f   ft2.obj
 0001:000342d9       ??__FSetNullDialog@@YAXXZ  004352d9 f   ft2.obj
 0001:000342e4       ??__FShutdownStatusDialog@@YAXXZ 004352e4 f   ft2.obj
 0001:000342ef       ??__FShutdownStatusListbox@@YAXXZ 004352ef f   ft2.obj
 0001:000342f9       ??__FStartStepNum@@YAXXZ   004352f9 f   ft2.obj
 0001:00034303       ??__FStartStepVolts@@YAXXZ 00435303 f   ft2.obj
 0001:0003430d       ??__FStartStepVoltsPrefix@@YAXXZ 0043530d f   ft2.obj
 0001:00034317       ??__FStatusWindow@@YAXXZ   00435317 f   ft2.obj
 0001:00034322       ??__FStepMessage@@YAXXZ    00435322 f   ft2.obj
 0001:0003432c       ??__FStringTable@@YAXXZ    0043532c f   ft2.obj
 0001:00034336       ??__FTerminalMenu@@YAXXZ   00435336 f   ft2.obj
 0001:00034340       ??__FTerminalWindow@@YAXXZ 00435340 f   ft2.obj
 0001:0003434b       ??__FTestAlarmOpto@@YAXXZ  0043534b f   ft2.obj
 0001:00034360       ??__FTestAlarmOutputsDialog@@YAXXZ 00435360 f   ft2.obj
 0001:0003436b       ??__FUploadAbortedDialog@@YAXXZ 0043536b f   ft2.obj
 0001:00034376       ??__FUploadAbortedList@@YAXXZ 00435376 f   ft2.obj
 0001:00034380       ??__FUploadFailed@@YAXXZ   00435380 f   ft2.obj
 0001:0003438a       ??__FUploadFlashDialog@@YAXXZ 0043538a f   ft2.obj
 0001:00034395       ??__FValveTestDialog@@YAXXZ 00435395 f   ft2.obj
 0001:000343a0       ??__FZeroStrokeLength@@YAXXZ 004353a0 f   ft2.obj
 0001:000343aa       ??__Ff@?1??write_log@@YAXPAD@Z@YAXXZ 004353aa f   ft2.obj
 0001:000343b4       ??__Flastcommand@?1??edit_control_proc@@YGJPAUHWND__@@IIJ@Z@YAXXZ 004353b4 f   ft2.obj
 0001:000343be       ??__Flogs@?1??do_new_current_values@@YAXXZ@YAXXZ 004353be f   ft2.obj
 0001:000343c8       ??__Fmy_machine@?1??check_for_new_board@@YAXXZ@YAXXZ 004353c8 f   ft2.obj
 0001:000343d2       ??__Fns@?1??do_new_current_values@@YAXXZ@YAXXZ 004353d2 f   ft2.obj
 0001:000343dc       ??__Fns@?1??do_new_set_dac_values@@YAXXZ@YAXXZ 004353dc f   ft2.obj
 0001:000343e6       ??__Fns@?1??do_new_set_null_values@@YAXXZ@YAXXZ 004353e6 f   ft2.obj
 0001:000343f0       ??__Fos@?1??do_new_current_values@@YAXXZ@YAXXZ 004353f0 f   ft2.obj
 0001:000343fa       ??__Fos@?1??do_new_set_dac_values@@YAXXZ@YAXXZ 004353fa f   ft2.obj
 0001:00034404       ??__Fs@?1??do_new_current_values@@YAXXZ@YAXXZ 00435404 f   ft2.obj
 0001:0003440e       ??__Fs@?1??edit_control_proc@@YGJPAUHWND__@@IIJ@Z@YAXXZ 0043540e f   ft2.obj
 0001:00034418       ??__Fs@?1??log_input_bits@@YAXXZ@YAXXZ 00435418 f   ft2.obj
 0001:00034422       ??__Fs@?1??log_output_bits@@YAXXZ@YAXXZ 00435422 f   ft2.obj
 0001:0003442c       ??__Fs@?1??push_log_message@@YAXPAD@Z@YAXXZ 0043542c f   ft2.obj
 0001:00034436       ??__Fs@?1??send_command_to_current_machine@@YAXPAD_N@Z@YAXXZ 00435436 f   ft2.obj
 0001:00034440       ??__Fs@?1??send_data_server_shot_notification@@YAXPAD0@Z@YAXXZ 00435440 f   ft2.obj
 0001:0003444a       ??__Fs@?1??write_log@@YAXPAD@Z@YAXXZ 0043544a f   ft2.obj
 0001:00034454       ??__Fsc@?1??get_ascii_rt_data@@YAXJ@Z@YAXXZ 00435454 f   ft2.obj
 0001:0003445e       ??__Fwc@?1??do_new_current_values@@YAXXZ@YAXXZ 0043545e f   ft2.obj
 0001:00034469       ??__Fwc@?1??do_new_set_dac_values@@YAXXZ@YAXXZ 00435469 f   ft2.obj
 0001:00034474       ??__FAckList@@YAXXZ        00435474 f   board_monitor.obj
 0001:0003447e       ??__FAckMessageStore@@YAXXZ 0043547e f   board_monitor.obj
 0001:00034488       ??__FNewData@@YAXXZ        00435488 f   board_monitor.obj
 0001:00034492       ??__FReceivedAcks@@YAXXZ   00435492 f   board_monitor.obj
 0001:0003449c       ??__FSocketMessageStore@@YAXXZ 0043549c f   board_monitor.obj
 0001:000344a6       ??__FStdDown@@YAXXZ        004354a6 f   board_monitor.obj
 0001:000344b0       ??__Fs@?1??continue_connecting_one_board@@YAXH@Z@YAXXZ 004354b0 f   board_monitor.obj
 0001:000344ba       ??__FEosEndFile@@YAXXZ     004354ba f   shotsave.obj
 0001:000344c4       ??__FEosStartFile@@YAXXZ   004354c4 f   shotsave.obj
 0001:000344ce       ??__FWorker@@YAXXZ         004354ce f   shotsave.obj
 0001:000344d8       ??__FSkipList@@YAXXZ       004354d8 f   skip.obj
 0001:000344e2       ??__FEmptyString@@YAXXZ    004354e2 f   v5subs:nameclas.obj
 0001:000344ec       ??__FEmptySensor@@YAXXZ    004354ec f   v5subs:asensor.obj
 0001:000344f6       ??__FMyComputer@@YAXXZ     004354f6 f   v5subs:computer.obj
 0001:00034500       ??__FNoComputer@@YAXXZ     00435500 f   v5subs:computer.obj
 0001:0003450a       ??__FEmptyString@@YAXXZ    0043550a f   v5subs:machname.obj
 0001:00034514       ??__FFontList@@YAXXZ       00435514 f   v5subs:optocontrol.obj
 0001:0003451e       ??__Fempty_entry@@YAXXZ    0043551e f   v5subs:setpoint.obj
 0001:00034532       ??__FFontList@@YAXXZ       00435532 f   v5subs:stringtable.obj
 0001:0003453c       ??__FEventList@@YAXXZ      0043553c f   v5subs:client.obj
 0001:00034546       ??__Ff@?1??one_hot_link@@YAXPAUHCONV__@@FI@Z@YAXXZ 00435546 f   v5subs:client.obj
 0001:00034550       ??__Fs@?1??one_hot_link@@YAXPAUHCONV__@@FI@Z@YAXXZ 00435550 f   v5subs:client.obj
 0001:0003455a       ??__FExeDirectory@@YAXXZ   0043555a f   v5subs:gexedir.obj
 0001:00034564       ??__FFontList@@YAXXZ       00435564 f   v5subs:menuctrl.obj
 0001:0003456e       ??__FEmpty@@YAXXZ          0043556e f   v5subs:runlist.obj
 0001:00034578       ??__FT@@YAXXZ              00435578 f   v5subs:semaphor.obj
 0002:00000380       _CurrentWindow$initializer$ 00436380     ft2.obj
 0002:00000384       _MainWindow$initializer$   00436384     ft2.obj
 0002:00000388       _AutoShotDisplayWindow$initializer$ 00436388     ft2.obj
 0002:0000038c       _CompareVariablesDialog$initializer$ 0043638c     ft2.obj
 0002:00000390       _CurrentDacDialog$initializer$ 00436390     ft2.obj
 0002:00000394       _CurrentValuesDialog$initializer$ 00436394     ft2.obj
 0002:00000398       _GlobalParameterDialog$initializer$ 00436398     ft2.obj
 0002:0000039c       _ControlModsDialog$initializer$ 0043639c     ft2.obj
 0002:000003a0       _SetNullDialog$initializer$ 004363a0     ft2.obj
 0002:000003a4       _SetDacDialog$initializer$ 004363a4     ft2.obj
 0002:000003a8       _StatusWindow$initializer$ 004363a8     ft2.obj
 0002:000003ac       _TerminalWindow$initializer$ 004363ac     ft2.obj
 0002:000003b0       _TestAlarmOutputsDialog$initializer$ 004363b0     ft2.obj
 0002:000003b4       _UploadFlashDialog$initializer$ 004363b4     ft2.obj
 0002:000003b8       _ValveTestDialog$initializer$ 004363b8     ft2.obj
 0002:000003bc       _HiresSensorTestDialog$initializer$ 004363bc     ft2.obj
 0002:000003c0       _UploadAbortedDialog$initializer$ 004363c0     ft2.obj
 0002:000003c4       _MainListBox$initializer$  004363c4     ft2.obj
 0002:000003c8       _CurrentMachine$initializer$ 004363c8     ft2.obj
 0002:000003cc       _CurrentPart$initializer$  004363cc     ft2.obj
 0002:000003d0       _ComputerName$initializer$ 004363d0     ft2.obj
 0002:000003d4       _NoConnectState$initializer$ 004363d4     ft2.obj
 0002:000003d8       _NoResponse$initializer$   004363d8     ft2.obj
 0002:000003dc       _NotMonitored$initializer$ 004363dc     ft2.obj
 0002:000003e0       _NotConnected$initializer$ 004363e0     ft2.obj
 0002:000003e4       _Connected$initializer$    004363e4     ft2.obj
 0002:000003e8       _Connecting$initializer$   004363e8     ft2.obj
 0002:000003ec       _ZeroStrokeLength$initializer$ 004363ec     ft2.obj
 0002:000003f0       _UploadFailed$initializer$ 004363f0     ft2.obj
 0002:000003f4       _AnalogSensor$initializer$ 004363f4     ft2.obj
 0002:000003f8       _CurrentOpStatus$initializer$ 004363f8     ft2.obj
 0002:000003fc       _StepMessage$initializer$  004363fc     ft2.obj
 0002:00000400       _ShutdownStatusListbox$initializer$ 00436400     ft2.obj
 0002:00000404       _ShutdownStatusDialog$initializer$ 00436404     ft2.obj
 0002:00000408       _OutputListbox$initializer$ 00436408     ft2.obj
 0002:0000040c       _OutputListDialog$initializer$ 0043640c     ft2.obj
 0002:00000410       _NullStatusMessage$initializer$ 00436410     ft2.obj
 0002:00000414       _ManualInfoTbox$initializer$ 00436414     ft2.obj
 0002:00000418       _InputOpto$initializer$    00436418     ft2.obj
 0002:0000041c       _OutputOpto$initializer$   0043641c     ft2.obj
 0002:00000420       _TestAlarmOpto$initializer$ 00436420     ft2.obj
 0002:00000424       _MainMenu$initializer$     00436424     ft2.obj
 0002:00000428       _TerminalMenu$initializer$ 00436428     ft2.obj
 0002:0000042c       _StringTable$initializer$  0043642c     ft2.obj
 0002:00000430       _MainWindowClientRect$initializer$ 00436430     ft2.obj
 0002:00000434       _MainWindowMoveRect$initializer$ 00436434     ft2.obj
 0002:00000438       _FontList$initializer$     00436438     ft2.obj
 0002:0000043c       _AutoBack$initializer$     0043643c     ft2.obj
 0002:00000440       _FtiiAutoNull$initializer$ 00436440     ft2.obj
 0002:00000444       _CurrentMachineVars$initializer$ 00436444     ft2.obj
 0002:00000448       _ErrorLog$initializer$     00436448     ft2.obj
 0002:0000044c       _BoardVariable$initializer$ 0043644c     ft2.obj
 0002:00000450       _BoardVariableDescription$initializer$ 00436450     ft2.obj
 0002:00000454       _CVLb$initializer$         00436454     ft2.obj
 0002:00000458       _CVGettingTb$initializer$  00436458     ft2.obj
 0002:0000045c       _CVCurrentVariableTb$initializer$ 0043645c     ft2.obj
 0002:00000460       _CVofTb$initializer$       00436460     ft2.obj
 0002:00000464       _ResumeDialog$initializer$ 00436464     ft2.obj
 0002:00000468       _Ft2TestDialog$initializer$ 00436468     ft2.obj
 0002:0000046c       _UploadAbortedList$initializer$ 0043646c     ft2.obj
 0002:00000470       _GlobalParameters$initializer$ 00436470     ft2.obj
 0002:00000474       _AltStepNum$initializer$   00436474     ft2.obj
 0002:00000478       _AltStepEnd$initializer$   00436478     ft2.obj
 0002:0000047c       _AltStepVel$initializer$   0043647c     ft2.obj
 0002:00000480       _AltStepAcc$initializer$   00436480     ft2.obj
 0002:00000484       _AltStepPos$initializer$   00436484     ft2.obj
 0002:00000488       _AltStepVelPrefix$initializer$ 00436488     ft2.obj
 0002:0000048c       _AltStepAccPrefix$initializer$ 0043648c     ft2.obj
 0002:00000490       _AltStepPosPrefix$initializer$ 00436490     ft2.obj
 0002:00000494       _ParkStepNum$initializer$  00436494     ft2.obj
 0002:00000498       _ParkStep2Num$initializer$ 00436498     ft2.obj
 0002:0000049c       _ParkStepVolts$initializer$ 0043649c     ft2.obj
 0002:000004a0       _ParkStepVoltsPrefix$initializer$ 004364a0     ft2.obj
 0002:000004a4       _StartStepNum$initializer$ 004364a4     ft2.obj
 0002:000004a8       _StartStepVolts$initializer$ 004364a8     ft2.obj
 0002:000004ac       _StartStepVoltsPrefix$initializer$ 004364ac     ft2.obj
 0002:000004b0       _InputBitControl$initializer$ 004364b0     ft2.obj
 0002:000004b4       _OutputBitControl$initializer$ 004364b4     ft2.obj
 0002:000004b8       _MonitorStatusControl$initializer$ 004364b8     ft2.obj
 0002:000004bc       _ReceivedAcks$initializer$ 004364bc     board_monitor.obj
 0002:000004c0       _AckList$initializer$      004364c0     board_monitor.obj
 0002:000004c4       _NewData$initializer$      004364c4     board_monitor.obj
 0002:000004c8       _SocketMessageStore$initializer$ 004364c8     board_monitor.obj
 0002:000004cc       _AckMessageStore$initializer$ 004364cc     board_monitor.obj
 0002:000004d0       _StdDown$initializer$      004364d0     board_monitor.obj
 0002:000004d4       _EosPyramidLines$initializer$ 004364d4     shotsave.obj
 0002:000004d8       _EosEndFile$initializer$   004364d8     shotsave.obj
 0002:000004dc       _EosStartFile$initializer$ 004364dc     shotsave.obj
 0002:000004e0       _Worker$initializer$       004364e0     shotsave.obj
 0002:000004e4       _SkipList$initializer$     004364e4     skip.obj
 0002:000004e8       _EmptyString$initializer$  004364e8     v5subs:nameclas.obj
 0002:000004ec       _MyComputer$initializer$   004364ec     v5subs:nameclas.obj
 0002:000004f0       _EmptySensor$initializer$  004364f0     v5subs:asensor.obj
 0002:000004f4       _MyComputer$initializer$   004364f4     v5subs:computer.obj
 0002:000004f8       _NoComputer$initializer$   004364f8     v5subs:computer.obj
 0002:000004fc       _EmptyString$initializer$  004364fc     v5subs:machname.obj
 0002:00000500       _FontList$initializer$     00436500     v5subs:optocontrol.obj
 0002:00000504       _empty_entry$initializer$  00436504     v5subs:setpoint.obj
 0002:00000508       _FontList$initializer$     00436508     v5subs:stringtable.obj
 0002:0000050c       _EventList$initializer$    0043650c     v5subs:client.obj
 0002:00000510       _ExeDirectory$initializer$ 00436510     v5subs:gexedir.obj
 0002:00000514       _FontList$initializer$     00436514     v5subs:menuctrl.obj
 0002:00000518       _Empty$initializer$        00436518     v5subs:runlist.obj
 0002:0000051c       _T$initializer$            0043651c     v5subs:semaphor.obj
 0002:00000528       _pinit                     00436528     LIBCMT:onexit.obj
 0002:0000052c       _pinit                     0043652c     LIBCMT:cpu_disp.obj
 0002:00000530       _pinit                     00436530     LIBCMT:mbctype.obj
 0002:00000534       _pinit                     00436534     LIBCMT:mathfcns.obj
 0002:00000538       _pinit                     00436538     LIBCMT:_file.obj
 0002:0000053c       _pinit                     0043653c     LIBCMT:wincrt0.obj
 0002:00000548       _pterm                     00436548     LIBCMT:wsetloca.obj
 0002:0000054c       _pterm                     0043654c     LIBCMT:initcon.obj
 0002:00000550       _pterm                     00436550     LIBCMT:_file.obj
 0002:000005cc       _InputBitControlId         004365cc     ft2.obj
 0002:000005f4       _OutputBitControlId        004365f4     ft2.obj
 0002:00001048       ?analog_response@?1??get_ascii_rt_data@@YAXJ@Z@4QBDB 00437048     ft2.obj
 0002:00001050       ?null_response@?1??get_ascii_rt_data@@YAXJ@Z@4QBDB 00437050     ft2.obj
 0002:00001058       ?osw1_response@?1??get_ascii_rt_data@@YAXJ@Z@4QBDB 00437058     ft2.obj
 0002:00001af0       _CrString                  00437af0     board_monitor.obj
 0002:00001af4       _ConfigSetString           00437af4     board_monitor.obj
 0002:00001afc       _INPUT_BITS_RESPONSE       00437afc     board_monitor.obj
 0002:00001c28       ?ANALOG_RESPONSE@?1??do_ascii_message@@YAXHPAD@Z@4QBDB 00437c28     board_monitor.obj
 0002:00001c30       ?TIMER_FREQ_RESPONSE@?1??do_ascii_message@@YAXHPAD@Z@4QBDB 00437c30     board_monitor.obj
 0002:00001c38       ?AT_HOME_RESPONSE@?1??do_ascii_message@@YAXHPAD@Z@4QBDB 00437c38     board_monitor.obj
 0002:00001c44       ?VERSION_RESPONSE@?1??do_ascii_message@@YAXHPAD@Z@4QBDB 00437c44     board_monitor.obj
 0002:00001c50       ?VERSION_RESPONSE2@?1??do_ascii_message@@YAXHPAD@Z@4QBDB 00437c50     board_monitor.obj
 0002:00001c5c       ?FATAL_OR_WARNING_RESPONSE@?1??do_ascii_message@@YAXHPAD@Z@4QBDB 00437c5c     board_monitor.obj
 0002:00001f78       _MAX_RAW_COUNTS            00437f78     v5subs:asensor.obj
 0002:00001fd0       _RECORD_DELIMITER_STRING   00437fd0     v5subs:dbsubs.obj
 0002:00001fd3       _EmptyString               00437fd3     v5subs:dbsubs.obj
 0002:0000206c       _ResetCmd                  0043806c     v5subs:listbox.obj
 0002:00002074       _AddCmd                    00438074     v5subs:listbox.obj
 0002:0000207c       _DeleteCmd                 0043807c     v5subs:listbox.obj
 0002:00002084       _GetCurSelCmd              00438084     v5subs:listbox.obj
 0002:0000208c       _SetCurSelCmd              0043808c     v5subs:listbox.obj
 0002:00002094       _FindStringCmd             00438094     v5subs:listbox.obj
 0002:0000209c       _FindPrefixCmd             0043809c     v5subs:listbox.obj
 0002:000020a4       _GetCountCmd               004380a4     v5subs:listbox.obj
 0002:000020ac       _GetTextCmd                004380ac     v5subs:listbox.obj
 0002:000020b4       _GetTextLenCmd             004380b4     v5subs:listbox.obj
 0002:000020bc       _InsertCmd                 004380bc     v5subs:listbox.obj
 0002:000020c4       _CmdError                  004380c4     v5subs:listbox.obj
 0002:000020cc       _ConfigSection             004380cc     v5subs:machine.obj
 0002:000020d4       _FlashVersionKey           004380d4     v5subs:machine.obj
 0002:00002470       _Cursors                   00438470     v5subs:rectclas.obj
 0002:000024c8       _CrLf                      004384c8     v5subs:client.obj
 0002:00002594       _ZeroPointZero             00438594     v5subs:ftoasc.obj
 0002:000025c0       _UnknownString             004385c0     v5subs:winsubs.obj
 0002:000025d0       ?s@?1??is_hex_char@@YAED@Z@4QBDB 004385d0     v5subs:hex.obj
 0002:00002608       _ZeroPointZero             00438608     v5subs:dtotchar.obj
 0002:00002710       _MinPosDouble              00438710     v5subs:zero.obj
 0002:00002718       _MinNegDouble              00438718     v5subs:zero.obj
 0002:00002790       _ShiftTag                  00438790     v5subs:dynamic_file_name.obj
 0002:00002818       _GS_ExceptionPointers      00438818     LIBCMT:gs_report.obj
 0002:00002820       _One                       00438820     LIBCMT:floor_pentium4.obj
 0002:00002830       _Bns                       00438830     LIBCMT:floor_pentium4.obj
 0002:00002840       _NegOne                    00438840     LIBCMT:floor_pentium4.obj
 0002:00002850       _NegZero                   00438850     LIBCMT:floor_pentium4.obj
 0002:00002860       _S                         00438860     LIBCMT:floor_pentium4.obj
 0002:00002870       _Int32ToUInt32             00438870     LIBCMT:ftol3.obj
 0002:00002880       _MantissaMask              00438880     LIBCMT:ftol3.obj
 0002:00002888       _IntegerBit                00438888     LIBCMT:ftol3.obj
 0002:00002890       _SignBit64                 00438890     LIBCMT:ftol3.obj
 0002:00002898       _MinFP64                   00438898     LIBCMT:ftol3.obj
 0002:000028a0       _MinInt64                  004388a0     LIBCMT:ftol3.obj
 0002:000028a8       _MaxInt64                  004388a8     LIBCMT:ftol3.obj
 0002:000028b0       _MaxUInt64                 004388b0     LIBCMT:ftol3.obj
 0002:000028b8       _MaxFP32                   004388b8     LIBCMT:ftol3.obj
 0002:000028c0       _MinFP32                   004388c0     LIBCMT:ftol3.obj
 0002:000028c8       _MinSubInexact             004388c8     LIBCMT:ftol3.obj
 0002:000028d0       _FpExcptTable              004388d0     LIBCMT:ftol3.obj
 0002:000028e0       _i1075                     004388e0     LIBCMT:ftol3.obj
 0002:000028e4       _i1087                     004388e4     LIBCMT:ftol3.obj
 0002:000028e8       _x0800                     004388e8     LIBCMT:ftol3.obj
 0002:000028ec       _x17FF                     004388ec     LIBCMT:ftol3.obj
 0002:000028f0       _CWMask                    004388f0     LIBCMT:ftol3.obj
 0002:00002900       _One                       00438900     LIBCMT:ceil_pentium4.obj
 0002:00002910       _Bns                       00438910     LIBCMT:ceil_pentium4.obj
 0002:00002920       _Zero                      00438920     LIBCMT:ceil_pentium4.obj
 0002:00002930       _S                         00438930     LIBCMT:ceil_pentium4.obj
 0002:00002940       _NegZero                   00438940     LIBCMT:ceil_pentium4.obj
 0002:00002968       ?ExceptionTemplate@?1??_CxxThrowException@@9@8@4UEHExceptionRecord@@B 00438968     LIBCMT:throw.obj
 0002:00002d38       _rterrs                    00438d38     LIBCMT:crt0msg.obj
 0002:0000379c       __mb_locale_names          0043979c     LIBCMT:mbctype.obj
 0002:00003b20       __first_127char            00439b20     LIBCMT:wsetloca.obj
 0002:00003ba0       _INF                       00439ba0     LIBCMT:libm_error.obj
 0002:00003bb0       _BIG                       00439bb0     LIBCMT:libm_error.obj
 0002:00003bc0       _ZERO                      00439bc0     LIBCMT:libm_error.obj
 0002:00003bd0       _INF_32                    00439bd0     LIBCMT:libm_error.obj
 0002:00003bd8       _NAN_32                    00439bd8     LIBCMT:libm_error.obj
 0002:00003be0       _ZERO_32                   00439be0     LIBCMT:libm_error.obj
 0002:00003be8       _libm_largef               00439be8     LIBCMT:libm_error.obj
 0002:00003bf0       _libm_smallf               00439bf0     LIBCMT:libm_error.obj
 0002:00003bf8       _libm_small                00439bf8     LIBCMT:libm_error.obj
 0002:00003cd8       _tokenTable                00439cd8     LIBCMT:undname.obj
 0002:00003d10       _nameTable                 00439d10     LIBCMT:undname.obj
 0002:00003e50       _rttiTable                 00439e50     LIBCMT:undname.obj
 0002:00006d54       One                        0043cd54     LIBCMT:87disp.obj
 0002:00006d5c       XAMtoTagTab                0043cd5c     LIBCMT:87disp.obj
 0002:00006d70       One                        0043cd70     LIBCMT:common.obj
 0002:00006d84       DblMax                     0043cd84     LIBCMT:common.obj
 0002:00006d8c       DblMin                     0043cd8c     LIBCMT:common.obj
 0002:00006d94       IeeeAdjO                   0043cd94     LIBCMT:common.obj
 0002:00006d9c       IeeeAdjU                   0043cd9c     LIBCMT:common.obj
 0002:00006da4       _infinity                  0043cda4     LIBCMT:common.obj
 0002:00006dac       _zero                      0043cdac     LIBCMT:common.obj
 0002:00007128       __sehtable$__onexit        0043d128     LIBCMT:onexit.obj
 0002:00007148       __sehtable$__callthreadstart 0043d148     LIBCMT:thread.obj
 0002:00007168       __sehtable$___tmainCRTStartup 0043d168     LIBCMT:wincrt0.obj
 0002:00007188       __sehtable$_doexit         0043d188     LIBCMT:crt0dat.obj
 0002:000071a8       __sehtable$?_Type_info_dtor@type_info@@CAXPAV1@@Z 0043d1a8     LIBCMT:typname.obj
 0002:000071c8       __sehtable$__freefls@4     0043d1c8     LIBCMT:tidtable.obj
 0002:000071f0       __sehtable$__initptd       0043d1f0     LIBCMT:tidtable.obj
 0002:00007218       __sehtable$__ioinit        0043d218     LIBCMT:ioinit.obj
 0002:00007238       __sehtable$___updatetlocinfo 0043d238     LIBCMT:localref.obj
 0002:00007258       __sehtable$___updatetmbcinfo 0043d258     LIBCMT:mbctype.obj
 0002:00007278       __sehtable$__setmbcp       0043d278     LIBCMT:mbctype.obj
 0002:00007298       __sehtable$__locterm       0043d298     LIBCMT:wsetloca.obj
 0002:000072b8       __sehtable$___set_fpsr_sse2 0043d2b8     LIBCMT:fpctrl.obj
 0002:000072d8       __sehtable$__mtinitlocknum 0043d2d8     LIBCMT:mlock.obj
 0002:000072f8       __sehtable$__IsNonwritableInCurrentImage 0043d2f8     LIBCMT:pesect.obj
 0002:00007318       __sehtable$?terminate@@YAXXZ 0043d318     LIBCMT:hooks.obj
 0002:00007338       __sehtable$_raise          0043d338     LIBCMT:winsig.obj
 0002:00007358       __sehtable$_flsall         0043d358     LIBCMT:fflush.obj
 0002:00007380       __sehtable$__fcloseall     0043d380     LIBCMT:closeall.obj
 0002:000073a0       __sehtable$__commit        0043d3a0     LIBCMT:commit.obj
 0002:000073c0       __sehtable$__write         0043d3c0     LIBCMT:write.obj
 0002:000073e0       __sehtable$_fclose         0043d3e0     LIBCMT:fclose.obj
 0002:00007400       __sehtable$___lock_fhandle 0043d400     LIBCMT:osfinfo.obj
 0002:00007420       __sehtable$__close         0043d420     LIBCMT:close.obj
 0002:00007976       .idata$6                   0043d976     kernel32:KERNEL32.dll
 0002:00007c10       .idata$6                   0043dc10     user32:USER32.dll
 0002:00007c80       .idata$6                   0043dc80     gdi32:GDI32.dll
 0002:00007c8a       .idata$6                   0043dc8a     comctl32:COMCTL32.dll
 0002:00007c98       .idata$6                   0043dc98     wsock32:WSOCK32.dll
 0003:00000042       _NeedToRefreshAnalogs      0043f042     ft2.obj
 0003:00000043       _NeedRefresh               0043f043     ft2.obj
 0003:000002b0       _CHANNEL_MODE_1            0043f2b0     ft2.obj
 0003:000002b8       _CHANNEL_MODE_2            0043f2b8     ft2.obj
 0003:000002c4       _CHANNEL_MODE_3            0043f2c4     ft2.obj
 0003:000002d0       _CHANNEL_MODE_4            0043f2d0     ft2.obj
 0003:000002d8       _CHANNEL_MODE_5            0043f2d8     ft2.obj
 0003:000002ec       _CHANNEL_MODE_6            0043f2ec     ft2.obj
 0003:00000300       _CHANNEL_MODE_7            0043f300     ft2.obj
 0003:000005bc       _OffString                 0043f5bc     ft2.obj
 0003:000005c4       _OnString                  0043f5c4     ft2.obj
 0003:000005c8       _PoundString               0043f5c8     ft2.obj
 0003:000005cc       _ResetString               0043f5cc     ft2.obj
 0003:000005d4       _TString                   0043f5d4     ft2.obj
 0003:000005d8       _TwoSpacesString           0043f5d8     ft2.obj
 0003:000005dc       _ZeroString                0043f5dc     ft2.obj
 0003:000005e0       _ZeroPointZero             0043f5e0     ft2.obj
 0003:000005e4       _DotTxt                    0043f5e4     ft2.obj
 0003:000005ec       _DotMsg                    0043f5ec     ft2.obj
 0003:000005f4       _ChannelModeSetString      0043f5f4     ft2.obj
 0003:000005fc       _ConfigWordMsg             0043f5fc     ft2.obj
 0003:00000604       _ConfigWord2Msg            0043f604     ft2.obj
 0003:0000060c       _ConfigWordMsgLen          0043f60c     ft2.obj
 0003:00000610       _OpenValve_1_Loop          0043f610     ft2.obj
 0003:00000618       _CloseValve_1_Loop         0043f618     ft2.obj
 0003:00000620       _OpenValve_2_Loop          0043f620     ft2.obj
 0003:00000628       _CloseValve_2_Loop         0043f628     ft2.obj
 0003:00000630       _ClearControlFileDate      0043f630     ft2.obj
 0003:00000638       _ZeroPositionCmd           0043f638     ft2.obj
 0003:00000640       _CycleString               0043f640     ft2.obj
 0003:00000648       _CycleStringLen            0043f648     ft2.obj
 0003:0000064c       _FatalString               0043f64c     ft2.obj
 0003:00000654       _FatalStringLen            0043f654     ft2.obj
 0003:00000658       _MainMenuWindowName        0043f658     ft2.obj
 0003:00000664       _TerminalMenuWindowName    0043f664     ft2.obj
 0003:00000674       _WarningString             0043f674     ft2.obj
 0003:0000067c       _WarningStringLen          0043f67c     ft2.obj
 0003:00000680       _NoFileString              0043f680     ft2.obj
 0003:00000690       _NoFileStringLen           0043f690     ft2.obj
 0003:00000694       _ArialFontName             0043f694     ft2.obj
 0003:0000069c       _MyFont                    0043f69c     ft2.obj
 0003:000006a0       _ValveMasterMax            0043f6a0     ft2.obj
 0003:000006a4       _ValveTestMax              0043f6a4     ft2.obj
 0003:000006a8       _CVListFileName            0043f6a8     ft2.obj
 0003:000006c4       _HiresSensorConfigFile     0043f6c4     ft2.obj
 0003:000006e4       _HIRES_SENSOR_FOLLOW_THRU_WIRE_INDEX 0043f6e4     ft2.obj
 0003:000006e8       _HIRES_SENSOR_RETRACT_WIRE_INDEX 0043f6e8     ft2.obj
 0003:000006ec       _HIRES_SENSOR_CYCLE_TIME_INDEX 0043f6ec     ft2.obj
 0003:000006f0       _HIRES_SENSOR_FOLLOW_THRU_TIME_INDEX 0043f6f0     ft2.obj
 0003:000006f4       _HIRES_SENSOR_RETRACT_TIME_INDEX 0043f6f4     ft2.obj
 0003:000006f8       _HIRES_SENSOR_RETRACT_END_TIME_INDEX 0043f6f8     ft2.obj
 0003:000006fc       _HIRES_SENSOR_SETPOINT_COUNT 0043f6fc     ft2.obj
 0003:00000700       _CurrentHiresSensorPeriod  0043f700     ft2.obj
 0003:00000704       _LVDT_DAC_INDEX            0043f704     ft2.obj
 0003:00000750       _JOG_SHOT_VALVE_INDEX      0043f750     ft2.obj
 0003:00000754       _FT_VALVE_INDEX            0043f754     ft2.obj
 0003:00000758       _RETRACT_VALVE_INDEX       0043f758     ft2.obj
 0003:0000075c       _ZERO_SPEED_CHECK_INDEX    0043f75c     ft2.obj
 0003:00000760       _VC_DITHER_FREQ_INDEX      0043f760     ft2.obj
 0003:00000764       _VC_DITHER_AMPL_INDEX      0043f764     ft2.obj
 0003:00000768       _PC_DITHER_FREQ_INDEX      0043f768     ft2.obj
 0003:0000076c       _PC_DITHER_AMPL_INDEX      0043f76c     ft2.obj
 0003:00000770       _NULL_DAC_2_INDEX          0043f770     ft2.obj
 0003:00000774       _LVDT_DAC_2_INDEX          0043f774     ft2.obj
 0003:00000778       _NormalStep                0043f778     ft2.obj
 0003:00000780       _SLOW_SHOT_OUTPUT_MASK     0043f780     ft2.obj
 0003:00000784       _ACCUMULATOR_OUTPUT_MASK   0043f784     ft2.obj
 0003:00000788       _MANUAL_MODE_MASK          0043f788     ft2.obj
 0003:0000078c       _MachineVars               0043f78c     ft2.obj
 0003:00000798       _Lindex                    0043f798     ft2.obj
 0003:0000079c       _CurrentChannelMode        0043f79c     ft2.obj
 0003:000007a0       _CurrentFlashVersion       0043f7a0     ft2.obj
 0003:000007a4       _MainEboxHeight            0043f7a4     ft2.obj
 0003:000008a0       _CVGettingTb               0043f8a0     ft2.obj
 0003:000008a8       _CVCurrentVariableTb       0043f8a8     ft2.obj
 0003:000008b0       _CVofTb                    0043f8b0     ft2.obj
 0003:000008b8       _ResumeDialog              0043f8b8     ft2.obj
 0003:000008c0       _Ft2TestDialog             0043f8c0     ft2.obj
 0003:000008e4       ?s@?1??get_help@@YAXXZ@4PADA 0043f8e4     ft2.obj
 0003:000008f8       ?info@?1??get_help@@YAXXZ@4U_STARTUPINFOA@@A 0043f8f8     ft2.obj
 0003:0000093c       ?id@?1??fatal_error_string@@YAPADH@Z@4PAIA 0043f93c     ft2.obj
 0003:00000954       ?fatal_error_number@?1??fatal_error_string@@YAPADH@Z@4PAHA 0043f954     ft2.obj
 0003:0000096c       ?id@?1??warning_error_string@@YAPADH@Z@4PAIA 0043f96c     ft2.obj
 0003:00000984       ?warning_number@?1??warning_error_string@@YAPADH@Z@4PAHA 0043f984     ft2.obj
 0003:0000099c       ?mask@?1??put_byte@@YAXAAIIH@Z@4PAIA 0043f99c     ft2.obj
 0003:000009ac       ?control4c@?1??ft2_control_program_name@@YAPADHAAVMACHINE_CLASS@@@Z@4PADA 0043f9ac     ft2.obj
 0003:000009bc       ?control4m@?1??ft2_control_program_name@@YAPADHAAVMACHINE_CLASS@@@Z@4PADA 0043f9bc     ft2.obj
 0003:000009cc       ?control5c@?1??ft2_control_program_name@@YAPADHAAVMACHINE_CLASS@@@Z@4PADA 0043f9cc     ft2.obj
 0003:000009dc       ?control5m@?1??ft2_control_program_name@@YAPADHAAVMACHINE_CLASS@@@Z@4PADA 0043f9dc     ft2.obj
 0003:000009ec       ?control5e@?1??ft2_control_program_name@@YAPADHAAVMACHINE_CLASS@@@Z@4PADA 0043f9ec     ft2.obj
 0003:000009fc       ?control5p@?1??ft2_control_program_name@@YAPADHAAVMACHINE_CLASS@@@Z@4PADA 0043f9fc     ft2.obj
 0003:00000a0c       ?controlall@?1??ft2_control_program_name@@YAPADHAAVMACHINE_CLASS@@@Z@4PADA 0043fa0c     ft2.obj
 0003:00000a1c       ?CmdString@?1??set_channel_5_8_labels@@YAXH@Z@4PADA 0043fa1c     ft2.obj
 0003:00000a20       ?LvdtString@?1??set_channel_5_8_labels@@YAXH@Z@4PADA 0043fa20     ft2.obj
 0003:00000a28       ?MeasString@?1??set_channel_5_8_labels@@YAXH@Z@4PADA 0043fa28     ft2.obj
 0003:00000a30       ?buf@?1??percent_to_hex@@YAPADN@Z@4PADA 0043fa30     ft2.obj
 0003:00000a3c       ?equalspad@?1??should_be_hex@@YAEPAD0@Z@4PADA 0043fa3c     ft2.obj
 0003:00000a40       ?pluspad@?1??should_be_hex@@YAEPAD0@Z@4PADA 0043fa40     ft2.obj
 0003:00000a44       ?ColWidth@?1??create_controls@@YAXH@Z@4PAHA 0043fa44     ft2.obj
 0003:00000a5c       ?default_text@?1??create_tooltips@@YAXXZ@4PADA 0043fa5c     ft2.obj
 0003:00000a64       ?NullMessage@?1??send_command_to_current_machine@@YAXPAD_N@Z@4PADA 0043fa64     ft2.obj
 0003:00000a6c       ?OnString@?1??send_output_bits_to_current_machine@@YAXIE@Z@4PADA 0043fa6c     ft2.obj
 0003:00000a74       ?OffString@?1??send_output_bits_to_current_machine@@YAXIE@Z@4PADA 0043fa74     ft2.obj
 0003:00000a7c       ?Description@?1??put_hires_sensor_test_config@@YAXPAUHWND__@@@Z@4PAPADA 0043fa7c     ft2.obj
 0003:00000a98       ?firstime@?1??do_new_set_null_values@@YAXXZ@4_NA 0043fa98     ft2.obj
 0003:00000a9c       ?response@?1??do_new_set_null_ascii_data@@YAXJ@Z@4PAUMY_ENTRY@?1??1@YAXJ@Z@A 0043fa9c     ft2.obj
 0003:00000abc       ?id@?1??show_revision_d_controls@@YAXXZ@4PAIA 0043fabc     ft2.obj
 0003:00000ae0       ?accel@?1??init_set_dac_dialog@@YAXXZ@4U_UDACCEL@@A 0043fae0     ft2.obj
 0003:00000ae8       ?firstime@?1??do_new_set_dac_values@@YAXXZ@4_NA 0043fae8     ft2.obj
 0003:00000aec       ?amp_1_cmd@?1??send_lvdt_digital_pot_command@@YAXE@Z@4PADA 0043faec     ft2.obj
 0003:00000af4       ?amp_2_cmd@?1??send_lvdt_digital_pot_command@@YAXE@Z@4PADA 0043faf4     ft2.obj
 0003:00000afc       ?amp_1_cmd@?1??send_set_dac_command@@YAXH@Z@4PADA 0043fafc     ft2.obj
 0003:00000b04       ?amp_2_cmd@?1??send_set_dac_command@@YAXH@Z@4PADA 0043fb04     ft2.obj
 0003:00000b0c       ?vars@?1??fill_global_parameters@@YAXXZ@4PAHA 0043fb0c     ft2.obj
 0003:00000b3c       ?zerostring@?1??get_string_value_from_line@@YAPADPAD@Z@4PADA 0043fb3c     ft2.obj
 0003:00000b40       ?amp_1_cmd@?1??send_current_digital_pot_command@@YAXXZ@4PADA 0043fb40     ft2.obj
 0003:00000b48       ?id@?1??show_valve_test_revision_d_controls@@YAXXZ@4PAIA 0043fb48     ft2.obj
 0003:00000b54       ?accel@?1??init_valve_test_data@@YAXXZ@4U_UDACCEL@@A 0043fb54     ft2.obj
 0003:00000b60       ?instring@?1??log_input_bits@@YAXXZ@4PAPADA 0043fb60     ft2.obj
 0003:00000be0       ?outstring@?1??log_output_bits@@YAXXZ@4PAPADA 0043fbe0     ft2.obj
 0003:00000c60       ?logfile@?1??kill_log_file@@YAXXZ@4PADA 0043fc60     ft2.obj
 0003:00000c6c       ?tempfile@?1??kill_log_file@@YAXXZ@4PADA 0043fc6c     ft2.obj
 0003:00000c7c       ?zipfile@?1??kill_log_file@@YAXXZ@4PADA 0043fc7c     ft2.obj
 0003:00000c87       ?firstime@?1??current_values_dialog_proc@@YGHPAUHWND__@@IIJ@Z@4EA 0043fc87     ft2.obj
 0003:00000c88       ?id@?1??show_buttons@@YAXXZ@4PAIA 0043fc88     ft2.obj
 0003:00000ca0       ?ns@?1??send_data_server_shot_notification@@YAXPAD0@Z@4PADA 0043fca0     ft2.obj
 0003:00000ca8       ?s@?1??send_data_server_down_notification@@YAXPAD@Z@4PADA 0043fca8     ft2.obj
 0003:00000cac       _ALS_BITS                  0043fcac     board_monitor.obj
 0003:00000cb0       _FOLLOW_THROUGH_MASK       0043fcb0     board_monitor.obj
 0003:00000cb4       _START_SHOT_MASK           0043fcb4     board_monitor.obj
 0003:00000cb8       _RETRACT_MASK              0043fcb8     board_monitor.obj
 0003:00000cbc       _ACCUMULATOR_MASK          0043fcbc     board_monitor.obj
 0003:00000cc0       _SLOW_SHOT_MASK            0043fcc0     board_monitor.obj
 0003:00000cc4       _MySocket                  0043fcc4     board_monitor.obj
 0003:00000cc8       _CHANNEL_MODE_1            0043fcc8     board_monitor.obj
 0003:00000ccc       _CHANNEL_MODE_2            0043fccc     board_monitor.obj
 0003:00000cd0       _CHANNEL_MODE_3            0043fcd0     board_monitor.obj
 0003:00000cd4       _CHANNEL_MODE_4            0043fcd4     board_monitor.obj
 0003:00000cd8       _CHANNEL_MODE_5            0043fcd8     board_monitor.obj
 0003:00000cdc       _CHANNEL_MODE_6            0043fcdc     board_monitor.obj
 0003:00000ce0       _CHANNEL_MODE_7            0043fce0     board_monitor.obj
 0003:00000ce4       _ControlFileDateString     0043fce4     board_monitor.obj
 0003:00000cec       _ControlStatusString       0043fcec     board_monitor.obj
 0003:00000cf4       _FlashVariablesString      0043fcf4     board_monitor.obj
 0003:00000cf8       _GoString                  0043fcf8     board_monitor.obj
 0003:00000cfc       _IsControlSetString        0043fcfc     board_monitor.obj
 0003:00000d04       _DigitalPotGainSetString   0043fd04     board_monitor.obj
 0003:00000d0c       _GetAllAnalogInputs        0043fd0c     board_monitor.obj
 0003:00000d14       _GetControlFileDateString  0043fd14     board_monitor.obj
 0003:00000d1c       _GetControlStatusString    0043fd1c     board_monitor.obj
 0003:00000d24       _GetMonitorStatusString    0043fd24     board_monitor.obj
 0003:00000d2c       _GetMSLString              0043fd2c     board_monitor.obj
 0003:00000d34       _GetTimerFrequencyString   0043fd34     board_monitor.obj
 0003:00000d3c       _GetInputBitsString        0043fd3c     board_monitor.obj
 0003:00000d44       _GetUploadCopyDateString   0043fd44     board_monitor.obj
 0003:00000d4c       _GetVersionString          0043fd4c     board_monitor.obj
 0003:00000d50       _MonitorStatusString       0043fd50     board_monitor.obj
 0003:00000d58       _PrinceRodPitch            0043fd58     board_monitor.obj
 0003:00000d5c       _ConfigWord2SetString      0043fd5c     board_monitor.obj
 0003:00000d64       _TimeoutString             0043fd64     board_monitor.obj
 0003:00000d6c       _UploadCopyDateString      0043fd6c     board_monitor.obj
 0003:00000d74       _PrinceCharOffset          0043fd74     board_monitor.obj
 0003:00000d78       _RetctlCharOffset          0043fd78     board_monitor.obj
 0003:00000d7c       _NString                   0043fd7c     board_monitor.obj
 0003:00000d80       _YString                   0043fd80     board_monitor.obj
 0003:00000d84       _ChannelModeSetString      0043fd84     board_monitor.obj
 0003:00000d8c       _OpDataPacketString        0043fd8c     board_monitor.obj
 0003:00000d94       _ChannelModeSetStringLen   0043fd94     board_monitor.obj
 0003:00000d98       _VarLineStart              0043fd98     board_monitor.obj
 0003:00000d9c       _OldStVarLineStart         0043fd9c     board_monitor.obj
 0003:00000da0       _ShutdownMessage           0043fda0     board_monitor.obj
 0003:00000dac       _ShutdownMessageLen        0043fdac     board_monitor.obj
 0003:00000db0       ?CycleString@?1??update_monitor_status@@YAXPAVFTII_BOARD_ENTRY@@PAD@Z@4PADA 0043fdb0     board_monitor.obj
 0003:00000db8       ?On@?1??bit_state@@YAPADI@Z@4PADA 0043fdb8     board_monitor.obj
 0003:00000dc0       ?Off@?1??bit_state@@YAPADI@Z@4PADA 0043fdc0     board_monitor.obj
 0003:00000dc8       ?getanalog@?1??check_inputs@FTII_BOARD_ENTRY@@QAEXPAD@Z@4PADA 0043fdc8     board_monitor.obj
 0003:00000dd0       ?OnString@?1??send_bits@FTII_BOARD_ENTRY@@QAEXI_N@Z@4PADA 0043fdd0     board_monitor.obj
 0003:00000dd8       ?OffString@?1??send_bits@FTII_BOARD_ENTRY@@QAEXI_N@Z@4PADA 0043fdd8     board_monitor.obj
 0003:00000de0       ?set_input_bitmask_string@?1??continue_connecting_one_board@@YAXH@Z@4PADA 0043fde0     board_monitor.obj
 0003:00000de8       ?CYCLE_START@?1??check_for_cycle_start@@YA_NPAVFTII_BOARD_ENTRY@@PAD@Z@4PADA 0043fde8     board_monitor.obj
 0003:00000df4       ?TIMEOUT@?1??check_for_cycle_start@@YA_NPAVFTII_BOARD_ENTRY@@PAD@Z@4PADA 0043fdf4     board_monitor.obj
 0003:00000dfc       ?lfchar@?1??do_ascii_message@@YAXHPAUSOCKET_MESSAGE@@@Z@4DA 0043fdfc     board_monitor.obj
 0003:00000e00       _ShowDate                  0043fe00     shotsave.obj
 0003:00000e01       _ShowTime                  0043fe01     shotsave.obj
 0003:00000e02       _ShowShot                  0043fe02     shotsave.obj
 0003:00000e03       _EosComDelimitChar         0043fe03     shotsave.obj
 0003:00000e04       _EosComEol                 0043fe04     shotsave.obj
 0003:00000e07       _EosKillOutputFile         0043fe07     shotsave.obj
 0003:00000e08       _HaveDelimitChar           0043fe08     shotsave.obj
 0003:00000e09       _DelimitChar               0043fe09     shotsave.obj
 0003:00000e0a       _ShowMachine               0043fe0a     shotsave.obj
 0003:00000e0b       _ShowPart                  0043fe0b     shotsave.obj
 0003:00000e0c       _EtxBuf                    0043fe0c     shotsave.obj
 0003:00000e10       _StxBuf                    0043fe10     shotsave.obj
 0003:00000e14       _EosComSetupKey            0043fe14     shotsave.obj
 0003:00000e20       _EosEndFileKey             0043fe20     shotsave.obj
 0003:00000e2c       _EosHaveAlarmShotKey       0043fe2c     shotsave.obj
 0003:00000e40       _EosHaveGoodShotKey        0043fe40     shotsave.obj
 0003:00000e50       _EosHaveWarningShotKey     0043fe50     shotsave.obj
 0003:00000e64       _EosKillOutputFileKey      0043fe64     shotsave.obj
 0003:00000e78       _EosMachineNameKey         0043fe78     shotsave.obj
 0003:00000e88       _EosOutputFileKey          0043fe88     shotsave.obj
 0003:00000e98       _EosOutputFileSetupKey     0043fe98     shotsave.obj
 0003:00000eac       _EosStartFileKey           0043feac     shotsave.obj
 0003:00000ebc       _EosParamFileDirKey        0043febc     shotsave.obj
 0003:00000ecc       _EosParamFileSetupKey      0043fecc     shotsave.obj
 0003:00000ee0       _EosParamFileInfoSetupKey  0043fee0     shotsave.obj
 0003:00000ef8       _WRITE_PARAM_TIMEOUT       0043fef8     shotsave.obj
 0003:00000efc       ?sbe@?1??init_serial_port@@YAXXZ@4PAUSTOP_BIT_ENTRY@?1??1@YAXXZ@A 0043fefc     shotsave.obj
 0003:00000f14       ?pe@?1??init_serial_port@@YAXXZ@4PAUPARITY_ENTRY@?1??1@YAXXZ@A 0043ff14     shotsave.obj
 0003:00000f48       ?param_number_tag@?1??write_eos_param_file@@YAXPAUSHOT_BUFFER_ENTRY@@@Z@4PADA 0043ff48     shotsave.obj
 0003:00000f58       ?param_name_tag@?1??write_eos_param_file@@YAXPAUSHOT_BUFFER_ENTRY@@@Z@4PADA 0043ff58     shotsave.obj
 0003:00000f68       ?param_value_tag@?1??write_eos_param_file@@YAXPAUSHOT_BUFFER_ENTRY@@@Z@4PADA 0043ff68     shotsave.obj
 0003:00000f78       ?param_units_tag@?1??write_eos_param_file@@YAXPAUSHOT_BUFFER_ENTRY@@@Z@4PADA 0043ff78     shotsave.obj
 0003:00000f88       ?part_name_tag@?1??write_eos_param_file@@YAXPAUSHOT_BUFFER_ENTRY@@@Z@4PADA 0043ff88     shotsave.obj
 0003:00000f94       ?shot_name_tag@?1??write_eos_param_file@@YAXPAUSHOT_BUFFER_ENTRY@@@Z@4PADA 0043ff94     shotsave.obj
 0003:00000fa0       ?shot_date_tag@?1??write_eos_param_file@@YAXPAUSHOT_BUFFER_ENTRY@@@Z@4PADA 0043ffa0     shotsave.obj
 0003:00000fac       ?shot_time_tag@?1??write_eos_param_file@@YAXPAUSHOT_BUFFER_ENTRY@@@Z@4PADA 0043ffac     shotsave.obj
 0003:00000fb8       ?On@?1??bit_state@@YAPADI@Z@4PADA 0043ffb8     shotsave.obj
 0003:00000fbc       ?Off@?1??bit_state@@YAPADI@Z@4PADA 0043ffbc     shotsave.obj
 0003:00000fc4       ?slow_shot_output_mask@?1??write_als_log@@YAXPADAAVFTII_FILE_DATA@@@Z@4IA 0043ffc4     shotsave.obj
 0003:00000fc8       ?accumulator_output_mask@?1??write_als_log@@YAXPADAAVFTII_FILE_DATA@@@Z@4IA 0043ffc8     shotsave.obj
 0003:00000fcc       ?retract_mask@?1??write_als_log@@YAXPADAAVFTII_FILE_DATA@@@Z@4IA 0043ffcc     shotsave.obj
 0003:00000fd0       ?follow_through_mask@?1??write_als_log@@YAXPADAAVFTII_FILE_DATA@@@Z@4IA 0043ffd0     shotsave.obj
 0003:00000fd4       ?start_shot_mask@?1??write_als_log@@YAXPADAAVFTII_FILE_DATA@@@Z@4IA 0043ffd4     shotsave.obj
 0003:00000fd8       ?accumulator_mask@?1??write_als_log@@YAXPADAAVFTII_FILE_DATA@@@Z@4IA 0043ffd8     shotsave.obj
 0003:00000fdc       ?slow_shot_mask@?1??write_als_log@@YAXPADAAVFTII_FILE_DATA@@@Z@4IA 0043ffdc     shotsave.obj
 0003:00000fe0       ?have_enough_disk_space@?1??save_shot@@YAXPAUSHOT_BUFFER_ENTRY@@@Z@4EA 0043ffe0     shotsave.obj
 0003:00000fe1       _MinusChar                 0043ffe1     v5subs:extract.obj
 0003:00000fe2       _PlusChar                  0043ffe2     v5subs:extract.obj
 0003:00000fe3       _DotChar                   0043ffe3     v5subs:extract.obj
 0003:00000fe4       _SpaceChar                 0043ffe4     v5subs:extract.obj
 0003:00000fe5       _ZeroChar                  0043ffe5     v5subs:extract.obj
 0003:00000fe6       _NineChar                  0043ffe6     v5subs:extract.obj
 0003:00000fe8       _BackSlashChar             0043ffe8     v5subs:stringcl.obj
 0003:00000fe9       _CommaChar                 0043ffe9     v5subs:stringcl.obj
 0003:00000fea       _CrChar                    0043ffea     v5subs:stringcl.obj
 0003:00000feb       _LfChar                    0043ffeb     v5subs:stringcl.obj
 0003:00000fec       _OneChar                   0043ffec     v5subs:stringcl.obj
 0003:00000fed       _SpaceChar                 0043ffed     v5subs:stringcl.obj
 0003:00000fee       _ZeroChar                  0043ffee     v5subs:stringcl.obj
 0003:00000ff0       _BackSlashString           0043fff0     v5subs:stringcl.obj
 0003:00000ff4       _FalseString               0043fff4     v5subs:stringcl.obj
 0003:00000ff8       _TrueString                0043fff8     v5subs:stringcl.obj
 0003:00000ffc       _BackSlashChar             0043fffc     v5subs:nameclas.obj
 0003:00000ffd       _ForwardSlashChar          0043fffd     v5subs:nameclas.obj
 0003:00000ffe       _PeriodChar                0043fffe     v5subs:nameclas.obj
 0003:00000fff       _ZeroChar                  0043ffff     v5subs:nameclas.obj
 0003:00001000       _Data                      00440000     v5subs:nameclas.obj
 0003:00001008       _Display                   00440008     v5subs:nameclas.obj
 0003:00001010       _Exes                      00440010     v5subs:nameclas.obj
 0003:00001018       _Results                   00440018     v5subs:nameclas.obj
 0003:00001020       _Resources                 00440020     v5subs:nameclas.obj
 0003:0000102c       _VisiTrakIniFile           0044002c     v5subs:nameclas.obj
 0003:0000103c       _ConfigSection             0044003c     v5subs:nameclas.obj
 0003:00001044       _ThisComputerKey           00440044     v5subs:nameclas.obj
 0003:00001054       _AutoBackupDirKey          00440054     v5subs:autoback.obj
 0003:00001064       _BackupSection             00440064     v5subs:autoback.obj
 0003:0000106c       _VisitrakIniFile           0044006c     v5subs:autoback.obj
 0003:000010b0       _SecurityAttributes        004400b0     v5subs:dbsubs.obj
 0003:000010bc       _FILE_SIZE_ERROR           004400bc     v5subs:fileclas.obj
 0003:000010c0       _CrLf                      004400c0     v5subs:fileclas.obj
 0003:000010c3       _LfChar                    004400c3     v5subs:fileclas.obj
 0003:000010c4       _CrChar                    004400c4     v5subs:fileclas.obj
 0003:000010c8       _Data                      004400c8     v5subs:computer.obj
 0003:000010cd       _BackSlashChar             004400cd     v5subs:computer.obj
 0003:000010ce       _CommaChar                 004400ce     v5subs:computer.obj
 0003:000010d0       _Exes                      004400d0     v5subs:computer.obj
 0003:000010d8       _VisiTrakIniFile           004400d8     v5subs:computer.obj
 0003:000010e8       _ConfigSection             004400e8     v5subs:computer.obj
 0003:000010f0       _ThisComputerKey           004400f0     v5subs:computer.obj
 0003:00001100       _CommaString               00440100     v5subs:computer.obj
 0003:00001104       _LeftBracket               00440104     v5subs:iniclass.obj
 0003:00001105       _RightBracket              00440105     v5subs:iniclass.obj
 0003:00001106       _NChar                     00440106     v5subs:iniclass.obj
 0003:00001107       _YChar                     00440107     v5subs:iniclass.obj
 0003:00001108       _LowerYChar                00440108     v5subs:iniclass.obj
 0003:0000110c       _UnknownString             0044010c     v5subs:iniclass.obj
 0003:00001114       _UnknownLen                00440114     v5subs:iniclass.obj
 0003:00001118       ?checkedchar@?1??put_boolean@INI_CLASS@@QAEEPBD0E@Z@4PADA 00440118     v5subs:iniclass.obj
 0003:0000111c       _CHANNEL_MODE_1            0044011c     v5subs:limit_switch_class.obj
 0003:00001120       _CHANNEL_MODE_2            00440120     v5subs:limit_switch_class.obj
 0003:00001124       _CHANNEL_MODE_3            00440124     v5subs:limit_switch_class.obj
 0003:00001128       _CHANNEL_MODE_4            00440128     v5subs:limit_switch_class.obj
 0003:0000112c       _CHANNEL_MODE_5            0044012c     v5subs:limit_switch_class.obj
 0003:00001130       _CHANNEL_MODE_6            00440130     v5subs:limit_switch_class.obj
 0003:00001134       _CHANNEL_MODE_7            00440134     v5subs:limit_switch_class.obj
 0003:00001138       ?maskvn@?1??get@LIMIT_SWITCH_WIRE_CLASS@@QAEEAAVSTRING_CLASS@@00@Z@4PAHA 00440138     v5subs:limit_switch_class.obj
 0003:00001150       _Description               00440150     v5subs:machine.obj
 0003:000011c8       _NofDescriptions           004401c8     v5subs:machine.obj
 0003:000011cc       ?DEVENT_TIME_INTRO@?1??get_binary_valve_settings_from_control_all@@YAXAAVMACHINE_CLASS@@@Z@4PADA 004401cc     v5subs:machine.obj
 0003:000011d4       ?PULSE_TIME_INTRO@?1??get_binary_valve_settings_from_control_all@@YAXAAVMACHINE_CLASS@@@Z@4PADA 004401d4     v5subs:machine.obj
 0003:000011dc       ?PULSE_WIRE_INTRO@?1??get_binary_valve_settings_from_control_all@@YAXAAVMACHINE_CLASS@@@Z@4PADA 004401dc     v5subs:machine.obj
 0003:000011e4       ?inifile@?1??read_machset_db@MACHINE_CLASS@@QAEEAAVSTRING_CLASS@@@Z@4PADA 004401e4     v5subs:machine.obj
 0003:00001200       _ResultsString             00440200     v5subs:machname.obj
 0003:00001208       _FontHandle                00440208     v5subs:optocontrol.obj
 0003:0000120c       _IChar                     0044020c     v5subs:optocontrol.obj
 0003:00001210       _VtwwOptoClassName         00440210     v5subs:optocontrol.obj
 0003:0000121e       ?firstime@?1??register_vtww_opto_control@@YAXXZ@4_NA 0044021e     v5subs:optocontrol.obj
 0003:0000121f       _PChar                     0044021f     v5subs:param.obj
 0003:00001220       _PCharLow                  00440220     v5subs:param.obj
 0003:00001224       _CommaChar                 00440224     v5subs:setpoint.obj
 0003:00001228       _CommaString               00440228     v5subs:setpoint.obj
 0003:0000122c       _YChar                     0044022c     v5subs:part.obj
 0003:00001230       _BackSlashString           00440230     v5subs:part.obj
 0003:00001234       _CommaString               00440234     v5subs:part.obj
 0003:00001238       _DefaultLanguage           00440238     v5subs:stringtable.obj
 0003:00001240       _IS_GOOSE_STRING           00440240     v5subs:stpres.obj
 0003:00001246       _NChar                     00440246     v5subs:stpres.obj
 0003:00001247       _PercentChar               00440247     v5subs:stpres.obj
 0003:00001248       _IS_OPEN_STRING            00440248     v5subs:stpres.obj
 0003:0000124d       _YChar                     0044024d     v5subs:stpres.obj
 0003:00001250       _YChar                     00440250     v5subs:get_ini.obj
 0003:00001251       _NChar                     00440251     v5subs:get_ini.obj
 0003:00001254       _UnknownString             00440254     v5subs:get_ini.obj
 0003:0000125c       _SpaceChar                 0044025c     v5subs:mem.obj
 0003:0000125d       _NineChar                  0044025d     v5subs:mem.obj
 0003:0000125e       _TabChar                   0044025e     v5subs:mem.obj
 0003:0000125f       _TildaChar                 0044025f     v5subs:mem.obj
 0003:00001260       _ZeroChar                  00440260     v5subs:mem.obj
 0003:00001264       _ServerName                00440264     v5subs:client.obj
 0003:00001270       _CodePageId                00440270     v5subs:client.obj
 0003:00001274       _DdeClipFormat             00440274     v5subs:client.obj
 0003:00001278       _First_Time                00440278     v5subs:gexedir.obj
 0003:0000127c       _DefaultDirectory          0044027c     v5subs:gexedir.obj
 0003:0000127f       _SpaceChar                 0044027f     v5subs:fix.obj
 0003:00001280       _ZeroChar                  00440280     v5subs:fix.obj
 0003:00001281       _CrChar                    00440281     v5subs:fix.obj
 0003:00001282       _LfChar                    00440282     v5subs:fix.obj
 0003:00001284       ?path@?1??free_megabytes@@YAJPBD@Z@4PADA 00440284     v5subs:winsubs.obj
 0003:00001288       _Radix                     00440288     v5subs:hex.obj
 0003:0000128c       _Days                      0044028c     v5subs:time.obj
 0003:000012ac       ?days@?1??dofyr@@YAGGGG@Z@4PAY0L@GA 004402ac     v5subs:time.obj
 0003:000012d8       _YChar                     004402d8     v5subs:misc.obj
 0003:000012d9       _LowYChar                  004402d9     v5subs:misc.obj
 0003:000012dc       _s                         004402dc     v5subs:misc.obj
 0003:000012e4       _YString                   004402e4     v5subs:misc.obj
 0003:000012e8       _NString                   004402e8     v5subs:misc.obj
 0003:000012ec       _Days                      004402ec     v5subs:shift.obj
 0003:00001308       _CurrentShiftDow           00440308     v5subs:shift.obj
 0003:0000130c       _CurrentShiftNumber        0044030c     v5subs:shift.obj
 0003:00001310       _TempMessageClassName      00440310     v5subs:temp_message.obj
 0003:00001324       _TempMessageMargin         00440324     v5subs:temp_message.obj
 0003:00001328       ?mycolor@?1??paint_temp_message@@YAXXZ@4KA 00440328     v5subs:temp_message.obj
 0003:0000132c       ?firstime@?1??register_temp_message@@YAXXZ@4_NA 0044032c     v5subs:temp_message.obj
 0003:00001330       _DotChar                   00440330     v5subs:textlist.obj
 0003:00001334       _StarDotStar               00440334     v5subs:textlist.obj
 0003:00001338       _DaysPerMonth              00440338     v5subs:timeclas.obj
 0003:00001368       _MonthAbreviation          00440368     v5subs:timeclas.obj
 0003:0000139c       _DefaultLanguage           0044039c     v5subs:menuctrl.obj
 0003:000013a4       _MenuClassName             004403a4     v5subs:menuctrl.obj
 0003:000013b4       _SubMenuClassName          004403b4     v5subs:menuctrl.obj
 0003:000013c4       _BackGroundColor           004403c4     v5subs:menuctrl.obj
 0003:000013c8       _CurrentColor              004403c8     v5subs:menuctrl.obj
 0003:000013e0       ?firstime@?1??register_window@MENU_CONTROL_ENTRY@@SAXXZ@4_NA 004403e0     v5subs:menuctrl.obj
 0003:000013e1       ?READ_COMPLETE@?1??read@MENU_CONTROL_ENTRY@@QAEEAAVNAME_CLASS@@H@Z@4DA 004403e1     v5subs:menuctrl.obj
 0003:000013e8       _CHANNEL_MODE_1            004403e8     v5subs:ftiiclas.obj
 0003:000013ec       _CHANNEL_MODE_2            004403ec     v5subs:ftiiclas.obj
 0003:000013f0       _CHANNEL_MODE_3            004403f0     v5subs:ftiiclas.obj
 0003:000013f4       _CHANNEL_MODE_4            004403f4     v5subs:ftiiclas.obj
 0003:000013f8       _CHANNEL_MODE_5            004403f8     v5subs:ftiiclas.obj
 0003:000013fc       _CHANNEL_MODE_6            004403fc     v5subs:ftiiclas.obj
 0003:00001400       _CHANNEL_MODE_7            00440400     v5subs:ftiiclas.obj
 0003:00001404       _EqualsString              00440404     v5subs:ftiiclas.obj
 0003:00001406       _HChar                     00440406     v5subs:ftiiclas.obj
 0003:00001407       _MinusChar                 00440407     v5subs:ftiiclas.obj
 0003:00001408       _OrHexString               00440408     v5subs:ftiiclas.obj
 0003:0000140b       _PoundChar                 0044040b     v5subs:ftiiclas.obj
 0003:0000140c       _HString                   0044040c     v5subs:ftiiclas.obj
 0003:0000140e       _OrChar                    0044040e     v5subs:ftiiclas.obj
 0003:0000140f       _SpaceChar                 0044040f     v5subs:ftiiclas.obj
 0003:00001410       _VString                   00440410     v5subs:ftiiclas.obj
 0003:00001412       _TabChar                   00440412     v5subs:ftiiclas.obj
 0003:00001414       _Bit30                     00440414     v5subs:ftiiclas.obj
 0003:00001418       _Bit31                     00440418     v5subs:ftiiclas.obj
 0003:0000141c       _HighMask                  0044041c     v5subs:ftiiclas.obj
 0003:00001420       _LowMask                   00440420     v5subs:ftiiclas.obj
 0003:00001428       _types                     00440428     v5subs:ftiiclas.obj
 0003:00001628       _CommaChar                 00440628     v5subs:ftii_shot_data.obj
 0003:0000162c       _CommaString               0044062c     v5subs:ftii_shot_data.obj
 0003:00001630       _FtAnalogCurveType         00440630     v5subs:structs.obj
 0003:00001640       _BackslashChar             00440640     v5subs:dstat.obj
 0003:00001644       _CommaChar                 00440644     v5subs:ftanalog.obj
 0003:00001648       _CommaString               00440648     v5subs:ftanalog.obj
 0003:0000164c       _ZeroString                0044064c     v5subs:runlist.obj
 0003:0000164e       _SpaceChar                 0044064e     v5subs:downsubs.obj
 0003:0000164f       _TabChar                   0044064f     v5subs:downsubs.obj
 0003:00001650       _AChar                     00440650     v5subs:ftii_parameters.obj
 0003:00001651       _PChar                     00440651     v5subs:ftii_parameters.obj
 0003:00001654       _IstName                   00440654     v5subs:ftii_parameters.obj
 0003:00001658       ?firstime@?1??calculate_ftii_parameters@@YAPANAAVFTII_PROFILE@@AAVMACHINE_CLASS@@AAVPART_CLASS@@AAVPARAMETER_CLASS@@AAVANALOG_SENSOR@@AAVFTANALOG_CLASS@@AAVFTCALC_CLASS@@@Z@4_NA 00440658     v5subs:ftii_parameters.obj
 0003:0000165c       ?epi_skip_count@?1??calculate_ftii_parameters@@YAPANAAVFTII_PROFILE@@AAVMACHINE_CLASS@@AAVPART_CLASS@@AAVPARAMETER_CLASS@@AAVANALOG_SENSOR@@AAVFTANALOG_CLASS@@AAVFTCALC_CLASS@@@Z@4HA 0044065c     v5subs:ftii_parameters.obj
 0003:00001660       _BackSlashChar             00440660     v5subs:path.obj
 0003:00001661       _ColonChar                 00440661     v5subs:path.obj
 0003:00001664       _BackSlashString           00440664     v5subs:path.obj
 0003:00001668       _ExeString                 00440668     v5subs:path.obj
 0003:00001670       _ExeStringLength           00440670     v5subs:path.obj
 0003:00001674       _Description               00440674     v5subs:plookup.obj
 0003:00001680       _SpaceChar                 00440680     v5subs:plookup.obj
 0003:00001681       _BackslashChar             00440681     v5subs:semaphor.obj
 0003:00001684       _UnknownWorker             00440684     v5subs:workclas.obj
 0003:0000168c       _RoutinesFile              0044068c     v5subs:error_ms.obj
 0003:0000169c       _ErrMsgFile                0044069c     v5subs:error_ms.obj
 0003:000016ac       _FtErrMsgFile              004406ac     v5subs:error_ms.obj
 0003:000016b9       _NullChar                  004406b9     v5subs:is_empty.obj
 0003:000016c0       ?ic@?1??dups_to_vu@@YANFF@Z@4PANA 004406c0     v5subs:unitadj.obj
 0003:000016e0       ?ft@?1??dups_to_vu@@YANFF@Z@4PANA 004406e0     v5subs:unitadj.obj
 0003:00001700       ?mm@?1??dups_to_vu@@YANFF@Z@4PANA 00440700     v5subs:unitadj.obj
 0003:00001720       ?cm@?1??dups_to_vu@@YANFF@Z@4PANA 00440720     v5subs:unitadj.obj
 0003:00001790       _errtable                  00440790     LIBCMT:dosmap.obj
 0003:000018f8       _ErrnoNoMem                004408f8     LIBCMT:dosmap.obj
 0003:000018fc       _DoserrorNoMem             004408fc     LIBCMT:dosmap.obj
 0003:00001900       ?isPackaged@?1??__crtIsPackagedApp@@9@9 00440900     LIBCMT:winapisupp.obj
 0003:00001d70       ___rgctypeflag             00440d70     LIBCMT:mbctype.obj
 0003:00001d78       ___rgcode_page_info        00440d78     LIBCMT:mbctype.obj
 0003:000020a8       __ctype_loc_style          004410a8     LIBCMT:wsetloca.obj
 0003:000020ac       _newcw                     004410ac     LIBCMT:floor.obj
 0003:000020b0       ?_names@?1??_get_fname@@9@9 004410b0     LIBCMT:fpexcept.obj
 0003:00002198       _newcw                     00441198     LIBCMT:ceil.obj
 0003:000021a0       _NAME_                     004411a0     LIBCMT:sqrt.obj
 0003:000021d0       _over                      004411d0     LIBCMT:fpctrl.obj
 0003:000021dc       _under                     004411dc     LIBCMT:fpctrl.obj
 0003:000021e8       ?__DAZ_ENABLED@?1??__set_fpsr_sse2@@9@9 004411e8     LIBCMT:fpctrl.obj
 0003:000021f0       __locktable                004411f0     LIBCMT:mlock.obj
 0003:00002590       _DoubleFormat              00441590     LIBCMT:intrncvt.obj
 0003:000025a8       _FloatFormat               004415a8     LIBCMT:intrncvt.obj
 0003:00002b38       _ToolTipWindow             00441b38     ft2.obj
 0003:00002b40       _HaveValveMasterData       00441b40     ft2.obj
 0003:00002b41       _HasPressureControl        00441b41     ft2.obj
 0003:00002b42       _SendingBoardVariableRequests 00441b42     ft2.obj
 0003:00002b43       _ShowDifOnly               00441b43     ft2.obj
 0003:00002b44       _ValveMasterMin            00441b44     ft2.obj
 0003:00002b48       _ValveTestMin              00441b48     ft2.obj
 0003:00002b4c       _CurrentListIndex          00441b4c     ft2.obj
 0003:00002b50       _CurrentBoardVariable      00441b50     ft2.obj
 0003:00002b54       _Start_Shot_Tbox_Handle    00441b54     ft2.obj
 0003:00002b58       _Follow_Thru_Tbox_Handle   00441b58     ft2.obj
 0003:00002b5c       _Retract_Tbox_Handle       00441b5c     ft2.obj
 0003:00002b60       _HIRES_SENSOR_START_SHOT_WIRE_INDEX 00441b60     ft2.obj
 0003:00002b64       _CurrentPasswordLevel      00441b64     ft2.obj
 0003:00002b68       _ServiceToolsGrayLevel     00441b68     ft2.obj
 0003:00002b6c       _HiresSensorPeriodMs       00441b6c     ft2.obj
 0003:00002b80       _HiresSensorStartShotWire  00441b80     ft2.obj
 0003:00002b84       _HiresSensorFollowThruWire 00441b84     ft2.obj
 0003:00002b88       _HiresSensorRetractWire    00441b88     ft2.obj
 0003:00002b8c       _WaitingToResume           00441b8c     ft2.obj
 0003:00002b8d       _ClosingAfterRemote        00441b8d     ft2.obj
 0003:00002b8e       _ShutdownAnyway            00441b8e     ft2.obj
 0003:00002b8f       _NeedToCloseMainWindow     00441b8f     ft2.obj
 0003:00002b90       _SwitchChannelsXbox        00441b90     ft2.obj
 0003:00002b94       _AbortedMachineNameTbox    00441b94     ft2.obj
 0003:00002b98       _MyMonitorSetupCount       00441b98     ft2.obj
 0003:00002b9c       _GreenBackgroundBrush      00441b9c     ft2.obj
 0003:00002ba0       _OrangeBackgroundBrush     00441ba0     ft2.obj
 0003:00002ba4       _RedBackgroundBrush        00441ba4     ft2.obj
 0003:00002ba8       _Max_Position              00441ba8     ft2.obj
 0003:00002bac       _Max_Velocity              00441bac     ft2.obj
 0003:00002bb0       _Control_Status            00441bb0     ft2.obj
 0003:00002bb4       _Monitor_Status            00441bb4     ft2.obj
 0003:00002bb8       _LastInputBits             00441bb8     ft2.obj
 0003:00002bbc       _LastOutputBits            00441bbc     ft2.obj
 0003:00002bc0       _AnalogValue               00441bc0     ft2.obj
 0003:00002c20       _NULL_DAC_INDEX            00441c20     ft2.obj
 0003:00002c24       _UpdatingControlModsDialog 00441c24     ft2.obj
 0003:00002c25       _OptoMode                  00441c25     ft2.obj
 0003:00002c26       _UpdatingSetDacScreen      00441c26     ft2.obj
 0003:00002c27       _UpdatingValveTestScreen   00441c27     ft2.obj
 0003:00002c28       _UsingValveTestOutput      00441c28     ft2.obj
 0003:00002c29       _UsingNullValveOutput      00441c29     ft2.obj
 0003:00002c2c       _TopOfListBox              00441c2c     ft2.obj
 0003:00002c30       _MainClientWidth           00441c30     ft2.obj
 0003:00002c4d       _UsingAltStep              00441c4d     ft2.obj
 0003:00002ef0       _InputOpto                 00441ef0     ft2.obj
 0003:00002f10       _OutputOpto                00441f10     ft2.obj
 0003:00002f30       _TestAlarmOpto             00441f30     ft2.obj
 0003:00003168       _FontList                  00442168     ft2.obj
 0003:0000316c       _AutoBack                  0044216c     ft2.obj
 0003:00003178       _ErrorLog                  00442178     ft2.obj
 0003:0000319c       _CVLb                      0044219c     ft2.obj
 0003:000031b0       _BoardVariable             004421b0     ft2.obj
 0003:000051b0       _BoardVariableDescription  004441b0     ft2.obj
 0003:000061c0       _AltStepNum                004451c0     ft2.obj
 0003:000061c8       _AltStepEnd                004451c8     ft2.obj
 0003:000061d0       _AltStepVel                004451d0     ft2.obj
 0003:000061d8       _AltStepAcc                004451d8     ft2.obj
 0003:000061e0       _AltStepPos                004451e0     ft2.obj
 0003:000061e8       _AltStepVelPrefix          004451e8     ft2.obj
 0003:000061f0       _AltStepAccPrefix          004451f0     ft2.obj
 0003:000061f8       _AltStepPosPrefix          004451f8     ft2.obj
 0003:00006200       _ParkStepNum               00445200     ft2.obj
 0003:00006208       _ParkStep2Num              00445208     ft2.obj
 0003:00006210       _ParkStepVolts             00445210     ft2.obj
 0003:00006218       _ParkStepVoltsPrefix       00445218     ft2.obj
 0003:00006220       _StartStepNum              00445220     ft2.obj
 0003:00006228       _StartStepVolts            00445228     ft2.obj
 0003:00006230       _StartStepVoltsPrefix      00445230     ft2.obj
 0003:0000630c       _MonitorStatusControl      0044530c     ft2.obj
 0003:000063e8       _ValveMasterData           004453e8     ft2.obj
 0003:00008328       _ValveTestData             00447328     ft2.obj
 0003:0000a268       ?f@?1??write_log@@YAXPAD@Z@4VFILE_CLASS@@A 00449268     ft2.obj
 0003:0000a28c       ?$S1@?1??write_log@@YAXPAD@Z@4IA 0044928c     ft2.obj
 0003:0000a290       ?t@?1??write_log@@YAXPAD@Z@4VTIME_CLASS@@A 00449290     ft2.obj
 0003:0000a294       ?s@?1??write_log@@YAXPAD@Z@4VSTRING_CLASS@@A 00449294     ft2.obj
 0003:0000a29c       ?cp@?1??write_log@@YAXPAD@Z@4PADA 0044929c     ft2.obj
 0003:0000a2a0       ?t@?1??push_log_message@@YAXPAD@Z@4VTIME_CLASS@@A 004492a0     ft2.obj
 0003:0000a2a4       ?$S2@?1??push_log_message@@YAXPAD@Z@4IA 004492a4     ft2.obj
 0003:0000a2a8       ?s@?1??push_log_message@@YAXPAD@Z@4VSTRING_CLASS@@A 004492a8     ft2.obj
 0003:0000a2b0       ?lastcommand@?1??edit_control_proc@@YGJPAUHWND__@@IIJ@Z@4VSTRING_CLASS@@A 004492b0     ft2.obj
 0003:0000a2b8       ?$S3@?1??edit_control_proc@@YGJPAUHWND__@@IIJ@Z@4IA 004492b8     ft2.obj
 0003:0000a2bc       ?s@?1??edit_control_proc@@YGJPAUHWND__@@IIJ@Z@4VSTRING_CLASS@@A 004492bc     ft2.obj
 0003:0000a2c4       ?new_is_diagnostic_window@?1??set_current_window@@YAXAAVWINDOW_CLASS@@@Z@4_NA 004492c4     ft2.obj
 0003:0000a2c5       ?current_is_diagnostic_window@?1??set_current_window@@YAXAAVWINDOW_CLASS@@@Z@4_NA 004492c5     ft2.obj
 0003:0000a2c8       ?mybuf@?1??get_ascii_rt_data@@YAXJ@Z@4PADA 004492c8     ft2.obj
 0003:0000a360       ?sc@?1??get_ascii_rt_data@@YAXJ@Z@4VSTRING_CLASS@@A 00449360     ft2.obj
 0003:0000a368       ?$S4@?1??get_ascii_rt_data@@YAXJ@Z@4IA 00449368     ft2.obj
 0003:0000a36c       ?NcButtonDown@?1??terminal_proc@@YGJPAUHWND__@@IIJ@Z@4EA 0044936c     ft2.obj
 0003:0000a36d       ?Moving@?1??terminal_proc@@YGJPAUHWND__@@IIJ@Z@4EA 0044936d     ft2.obj
 0003:0000a370       ?id@?1??terminal_proc@@YGJPAUHWND__@@IIJ@Z@4HA 00449370     ft2.obj
 0003:0000a374       ?cmd@?1??terminal_proc@@YGJPAUHWND__@@IIJ@Z@4HA 00449374     ft2.obj
 0003:0000a378       ?id@?1??upload_aborted_dialog_proc@@YGHPAUHWND__@@IIJ@Z@4HA 00449378     ft2.obj
 0003:0000a37c       ?s@?1??send_command_to_current_machine@@YAXPAD_N@Z@4VSTRING_CLASS@@A 0044937c     ft2.obj
 0003:0000a384       ?$S5@?1??send_command_to_current_machine@@YAXPAD_N@Z@4IA 00449384     ft2.obj
 0003:0000a388       ?id@?1??deactivate_control_dialog_proc@@YGHPAUHWND__@@IIJ@Z@4HA 00449388     ft2.obj
 0003:0000a38c       ?id@?1??choose_monitor_machine_dialog_proc@@YGHPAUHWND__@@IIJ@Z@4HA 0044938c     ft2.obj
 0003:0000a390       ?i@?1??do_new_set_null_values@@YAXXZ@4HA 00449390     ft2.obj
 0003:0000a394       ?w@?1??do_new_set_null_values@@YAXXZ@4PAUHWND__@@A 00449394     ft2.obj
 0003:0000a398       ?x@?1??do_new_set_null_values@@YAXXZ@4IA 00449398     ft2.obj
 0003:0000a39c       ?ns@?1??do_new_set_null_values@@YAXXZ@4VSTRING_CLASS@@A 0044939c     ft2.obj
 0003:0000a3a4       ?$S6@?1??do_new_set_null_values@@YAXXZ@4IA 004493a4     ft2.obj
 0003:0000a3a8       ?id@?1??set_null_dialog_proc@@YGHPAUHWND__@@IIJ@Z@4HA 004493a8     ft2.obj
 0003:0000a3ac       ?ns@?1??do_new_set_dac_values@@YAXXZ@4VSTRING_CLASS@@A 004493ac     ft2.obj
 0003:0000a3b4       ?$S7@?1??do_new_set_dac_values@@YAXXZ@4IA 004493b4     ft2.obj
 0003:0000a3b8       ?os@?1??do_new_set_dac_values@@YAXXZ@4VSTRING_CLASS@@A 004493b8     ft2.obj
 0003:0000a3c0       ?wc@?1??do_new_set_dac_values@@YAXXZ@4VWINDOW_CLASS@@A 004493c0     ft2.obj
 0003:0000a3c8       ?w@?1??do_new_set_dac_values@@YAXXZ@4PAUHWND__@@A 004493c8     ft2.obj
 0003:0000a3cc       ?i@?1??do_new_set_dac_values@@YAXXZ@4HA 004493cc     ft2.obj
 0003:0000a3d0       ?d@?1??do_new_set_dac_values@@YAXXZ@4NA 004493d0     ft2.obj
 0003:0000a3d8       ?x@?1??do_new_set_dac_values@@YAXXZ@4IA 004493d8     ft2.obj
 0003:0000a3dc       ?last_id@?1??send_test_message@@YAXH@Z@4HA 004493dc     ft2.obj
 0003:0000a3e0       ?id@?1??set_dac_dialog_proc@@YGHPAUHWND__@@IIJ@Z@4HA 004493e0     ft2.obj
 0003:0000a3e4       ?cmd@?1??set_dac_dialog_proc@@YGHPAUHWND__@@IIJ@Z@4HA 004493e4     ft2.obj
 0003:0000a3e8       ?buf@?1??ft2_volts_toascii@@YAPADPAD@Z@4PADA 004493e8     ft2.obj
 0003:0000a3f0       ?buf@?1??ascii_volts_to_ft2_volts@@YAPADPAD@Z@4PADA 004493f0     ft2.obj
 0003:0000a3f8       ?buf@?1??alt_step_text@@YAPADXZ@4PADA 004493f8     ft2.obj
 0003:0000a45c       ?my_machine@?1??check_for_new_board@@YAXXZ@4VSTRING_CLASS@@A 0044945c     ft2.obj
 0003:0000a464       ?$S8@?1??check_for_new_board@@YAXXZ@4IA 00449464     ft2.obj
 0003:0000a468       ?timer_id@?1??valve_test_dialog_proc@@YGHPAUHWND__@@IIJ@Z@4IA 00449468     ft2.obj
 0003:0000a46c       ?s@?1??log_input_bits@@YAXXZ@4VSTRING_CLASS@@A 0044946c     ft2.obj
 0003:0000a474       ?$S9@?1??log_input_bits@@YAXXZ@4IA 00449474     ft2.obj
 0003:0000a478       ?s@?1??log_output_bits@@YAXXZ@4VSTRING_CLASS@@A 00449478     ft2.obj
 0003:0000a480       ?$S10@?1??log_output_bits@@YAXXZ@4IA 00449480     ft2.obj
 0003:0000a484       ?ns@?1??do_new_current_values@@YAXXZ@4VSTRING_CLASS@@A 00449484     ft2.obj
 0003:0000a48c       ?$S11@?1??do_new_current_values@@YAXXZ@4IA 0044948c     ft2.obj
 0003:0000a490       ?os@?1??do_new_current_values@@YAXXZ@4VSTRING_CLASS@@A 00449490     ft2.obj
 0003:0000a498       ?wc@?1??do_new_current_values@@YAXXZ@4VWINDOW_CLASS@@A 00449498     ft2.obj
 0003:0000a4a0       ?w@?1??do_new_current_values@@YAXXZ@4PAUHWND__@@A 004494a0     ft2.obj
 0003:0000a4a4       ?i@?1??do_new_current_values@@YAXXZ@4HA 004494a4     ft2.obj
 0003:0000a4a8       ?chan@?1??do_new_current_values@@YAXXZ@4HA 004494a8     ft2.obj
 0003:0000a4ac       ?x@?1??do_new_current_values@@YAXXZ@4IA 004494ac     ft2.obj
 0003:0000a4b0       ?d@?1??do_new_current_values@@YAXXZ@4NA 004494b0     ft2.obj
 0003:0000a4b8       ?should_be_visible@?1??do_new_current_values@@YAXXZ@4_NA 004494b8     ft2.obj
 0003:0000a4b9       ?show_channels_17_20@?1??do_new_current_values@@YAXXZ@4EA 004494b9     ft2.obj
 0003:0000a4bc       ?channel_mode@?1??do_new_current_values@@YAXXZ@4HA 004494bc     ft2.obj
 0003:0000a4c0       ?cmdchan@?1??do_new_current_values@@YAXXZ@4HA 004494c0     ft2.obj
 0003:0000a4c4       ?lvdtchan@?1??do_new_current_values@@YAXXZ@4HA 004494c4     ft2.obj
 0003:0000a4c8       ?s@?1??do_new_current_values@@YAXXZ@4VSTRING_CLASS@@A 004494c8     ft2.obj
 0003:0000a4d0       ?logs@?1??do_new_current_values@@YAXXZ@4VSTRING_CLASS@@A 004494d0     ft2.obj
 0003:0000a4d8       ?Last_Osw1@?1??do_new_alarm_output_values@@YAXXZ@4IA 004494d8     ft2.obj
 0003:0000a4dc       ?w@?1??current_values_dialog_proc@@YGHPAUHWND__@@IIJ@Z@4PAU2@A 004494dc     ft2.obj
 0003:0000a4e0       ?id@?1??current_values_dialog_proc@@YGHPAUHWND__@@IIJ@Z@4HA 004494e0     ft2.obj
 0003:0000a4e4       ?error_log_tbox_handle@?1??current_values_dialog_proc@@YGHPAUHWND__@@IIJ@Z@4PAU2@A 004494e4     ft2.obj
 0003:0000a4e8       ?s@?1??send_data_server_shot_notification@@YAXPAD0@Z@4VSTRING_CLASS@@A 004494e8     ft2.obj
 0003:0000a4f0       ?$S12@?1??send_data_server_shot_notification@@YAXPAD0@Z@4IA 004494f0     ft2.obj
 0003:0000a4f4       ?id@?1??main_proc@@YGJPAUHWND__@@IIJ@Z@4HA 004494f4     ft2.obj
 0003:0000a4f8       ?cmd@?1??main_proc@@YGJPAUHWND__@@IIJ@Z@4HA 004494f8     ft2.obj
 0003:0000a4fc       _SendEvent                 004494fc     board_monitor.obj
 0003:0000a500       _NewDataEvent              00449500     board_monitor.obj
 0003:0000a504       _Wsa_Is_Started            00449504     board_monitor.obj
 0003:0000a505       _Read_Thread_Is_Running    00449505     board_monitor.obj
 0003:0000a506       _ShuttingDown              00449506     board_monitor.obj
 0003:0000a510       _ReceivedAcks              00449510     board_monitor.obj
 0003:0000a534       _AckList                   00449534     board_monitor.obj
 0003:0000a558       _NewData                   00449558     board_monitor.obj
 0003:0000a57c       _SocketMessageStore        0044957c     board_monitor.obj
 0003:0000a5a0       _AckMessageStore           004495a0     board_monitor.obj
 0003:0000a5c4       _StdDown                   004495c4     board_monitor.obj
 0003:0000a5d0       _MyAddress                 004495d0     board_monitor.obj
 0003:0000a5e0       ?CycleStartIsVisible@?1??update_monitor_status@@YAXPAVFTII_BOARD_ENTRY@@PAD@Z@4EA 004495e0     board_monitor.obj
 0003:0000a5e4       ?empty@?1???ABOARD_EXTENDED_ANALOG_ARRAY@@QAEAAUBOARD_EXTENDED_ANALOG_ENTRY@@H@Z@4U2@A 004495e4     board_monitor.obj
 0003:0000a5f8       ?$S1@?1???ABOARD_EXTENDED_ANALOG_ARRAY@@QAEAAUBOARD_EXTENDED_ANALOG_ENTRY@@H@Z@4IA 004495f8     board_monitor.obj
 0003:0000a600       ?fp@?1??check_alarms@@YAXAAU_SYSTEMTIME@@PAVFTII_BOARD_ENTRY@@PAN@Z@4PAMA 00449600     board_monitor.obj
 0003:0000a6f0       ?opnumber@?1??current_operator@@YAPADAAVSTRING_CLASS@@0@Z@4PADA 004496f0     board_monitor.obj
 0003:0000a6fc       ?InputOnBackgroundBrush@?1??AutoShotDisplayProc@@YGHPAUHWND__@@IIJ@Z@4PAUHBRUSH__@@A 004496fc     board_monitor.obj
 0003:0000a700       ?s@?1??continue_connecting_one_board@@YAXH@Z@4VSTRING_CLASS@@A 00449700     board_monitor.obj
 0003:0000a708       ?$S3@?1??continue_connecting_one_board@@YAXH@Z@4IA 00449708     board_monitor.obj
 0003:0000a70c       ?finished@?1??new_data_thread@@YAXPAX@Z@4_NA 0044970c     board_monitor.obj
 0003:0000a710       ?last_check_time@?1??send_thread@@YAXPAX@Z@4IA 00449710     board_monitor.obj
 0003:0000a714       _EosComPort                00449714     shotsave.obj
 0003:0000a718       _EosComSetup               00449718     shotsave.obj
 0003:0000a71c       _EosHaveAlarmShot          0044971c     shotsave.obj
 0003:0000a720       _EosHaveWarningShot        00449720     shotsave.obj
 0003:0000a724       _EosHaveGoodShot           00449724     shotsave.obj
 0003:0000a728       _EosMachineName            00449728     shotsave.obj
 0003:0000a72c       _EosOutputFile             0044972c     shotsave.obj
 0003:0000a730       _EosOutputFileSetup        00449730     shotsave.obj
 0003:0000a734       _EosFixedWidth             00449734     shotsave.obj
 0003:0000a738       _EosNeedsStxEtx            00449738     shotsave.obj
 0003:0000a739       _EosOnlyIfNoAlarms         00449739     shotsave.obj
 0003:0000a73a       _SaveAllAlarmShots         0044973a     shotsave.obj
 0003:0000a73c       _SerialFile                0044973c     shotsave.obj
 0003:0000a740       _EosPyramidLines           00449740     shotsave.obj
 0003:0000a744       _EosEndFile                00449744     shotsave.obj
 0003:0000a74c       _EosStartFile              0044974c     shotsave.obj
 0003:0000a760       _ShowParam                 00449760     shotsave.obj
 0003:0000a79c       ?current_index@?1??save_all_shots@@YAXXZ@4HA 0044979c     shotsave.obj
 0003:0000a7ac       ?mse@?1??find@@YAPAUMACH_SKIP_ENTRY@@AAVSTRING_CLASS@@@Z@4PAU2@A 004497ac     skip.obj
 0003:0000a7b4       _DriveName                 004497b4     v5subs:exists.obj
 0003:0000a7b8       ?s@?1??ascii_double@@YAPADN@Z@4PADA 004497b8     v5subs:ascfloat.obj
 0003:0000a7e1       _NullChar                  004497e1     v5subs:extract.obj
 0003:0000a7e4       ?s@?1??int32toasc@@YAPADJ@Z@4PADA 004497e4     v5subs:itoasc.obj
 0003:0000a7f8       ?s@?1??ultoascii@@YAPADKK@Z@4PADA 004497f8     v5subs:itoasc.obj
 0003:0000a80c       _NullChar                  0044980c     v5subs:stringcl.obj
 0003:0000a810       _NullChar                  00449810     v5subs:nameclas.obj
 0003:0000a814       _EmptyString               00449814     v5subs:nameclas.obj
 0003:0000a81c       _MyComputer                0044981c     v5subs:nameclas.obj
 0003:0000a828       _SensorArray               00449828     v5subs:asensor.obj
 0003:0000a82c       _NofSensors                0044982c     v5subs:asensor.obj
 0003:0000a830       _EmptySensor               00449830     v5subs:asensor.obj
 0003:0000a87c       _NullChar                  0044987c     v5subs:fileclas.obj
 0003:0000a880       _NullChar                  00449880     v5subs:computer.obj
 0003:0000a884       _First                     00449884     v5subs:computer.obj
 0003:0000a888       _MyComputer                00449888     v5subs:computer.obj
 0003:0000a890       _NoComputer                00449890     v5subs:computer.obj
 0003:0000a898       _NofComputers              00449898     v5subs:computer.obj
 0003:0000a89c       _NullChar                  0044989c     v5subs:iniclass.obj
 0003:0000a89d       ?empty_string@?1??get_string@INI_CLASS@@QAEPADXZ@4PADA 0044989d     v5subs:iniclass.obj
 0003:0000a89e       _EmptyString               0044989e     v5subs:listbox.obj
 0003:0000a8a0       _NullChar                  004498a0     v5subs:machname.obj
 0003:0000a8a4       _EmptyString               004498a4     v5subs:machname.obj
 0003:0000a8ac       _EmptyString               004498ac     v5subs:msgclas.obj
 0003:0000a8b0       _RedBrush                  004498b0     v5subs:optocontrol.obj
 0003:0000a8b4       _YellowBrush               004498b4     v5subs:optocontrol.obj
 0003:0000a8b8       _FontList                  004498b8     v5subs:optocontrol.obj
 0003:0000a8bc       _NullChar                  004498bc     v5subs:param.obj
 0003:0000a8c0       _NullChar                  004498c0     v5subs:setpoint.obj
 0003:0000a8c4       _empty_entry               004498c4     v5subs:setpoint.obj
 0003:0000a8d4       _EmptyStringtableText      004498d4     v5subs:stringtable.obj
 0003:0000a8d8       _FontList                  004498d8     v5subs:stringtable.obj
 0003:0000a8dc       _NullChar                  004498dc     v5subs:stpres.obj
 0003:0000a8e0       _NullChar                  004498e0     v5subs:get_ini.obj
 0003:0000a8e8       _Buf                       004498e8     v5subs:get_ini.obj
 0003:0000a9e8       _NullChar                  004499e8     v5subs:mem.obj
 0003:0000a9ec       _MyMainWindow              004499ec     v5subs:client.obj
 0003:0000a9f0       _EventList                 004499f0     v5subs:client.obj
 0003:0000a9fc       _ServerNameHandle          004499fc     v5subs:client.obj
 0003:0000aa00       _DdeId                     00449a00     v5subs:client.obj
 0003:0000aa04       _ServerHandle              00449a04     v5subs:client.obj
 0003:0000aa08       ?s@?1??one_hot_link@@YAXPAUHCONV__@@FI@Z@4VSTRING_CLASS@@A 00449a08     v5subs:client.obj
 0003:0000aa10       ?$S1@?1??one_hot_link@@YAXPAUHCONV__@@FI@Z@4IA 00449a10     v5subs:client.obj
 0003:0000aa14       ?f@?1??one_hot_link@@YAXPAUHCONV__@@FI@Z@4VFILE_CLASS@@A 00449a14     v5subs:client.obj
 0003:0000aa38       ?e@?1??one_hot_link@@YAXPAUHCONV__@@FI@Z@4PAUEVENT_ENTRY@@A 00449a38     v5subs:client.obj
 0003:0000aa3c       _NofDCurves                00449a3c     v5subs:dcurve.obj
 0003:0000aa40       _DCurve                    00449a40     v5subs:dcurve.obj
 0003:0000aa44       _EmptyString               00449a44     v5subs:execwait.obj
 0003:0000aa48       _ExeDirectory              00449a48     v5subs:gexedir.obj
 0003:0000aa50       _NullChar                  00449a50     v5subs:fix.obj
 0003:0000aa54       ?s@?1??fixed_string@@YAPADNJJ@Z@4PADA 00449a54     v5subs:ftoasc.obj
 0003:0000aa80       ?s@?1??resource_string@@YAPADPAUHINSTANCE__@@I@Z@4PADA 00449a80     v5subs:winsubs.obj
 0003:0000ab80       _NullChar                  00449b80     v5subs:hex.obj
 0003:0000ab81       _NullChar                  00449b81     v5subs:insalph.obj
 0003:0000ab84       ?s@?1??alphadate@@YAPADABU_SYSTEMTIME@@@Z@4PADA 00449b84     v5subs:time.obj
 0003:0000ab90       ?s@?1??alphatime@@YAPADABU_SYSTEMTIME@@@Z@4PADA 00449b90     v5subs:time.obj
 0003:0000aba2       _NullChar                  00449ba2     v5subs:shift.obj
 0003:0000aba4       _EmptyString               00449ba4     v5subs:units.obj
 0003:0000aba8       _UnitsArray                00449ba8     v5subs:units.obj
 0003:0000abac       _NofUnits                  00449bac     v5subs:units.obj
 0003:0000abb0       _OldCursor                 00449bb0     v5subs:hourglas.obj
 0003:0000abb4       _RefCount                  00449bb4     v5subs:hourglas.obj
 0003:0000abb8       _TempMessageWindow         00449bb8     v5subs:temp_message.obj
 0003:0000abbc       _TempMessage               00449bbc     v5subs:temp_message.obj
 0003:0000abc0       _TempMessageLen            00449bc0     v5subs:temp_message.obj
 0003:0000abc4       _TempMessageTimeoutMs      00449bc4     v5subs:temp_message.obj
 0003:0000abc8       _CenterTempMessage         00449bc8     v5subs:temp_message.obj
 0003:0000abcc       ?timer_id@?1??temp_message_proc@@YGJPAUHWND__@@IIJ@Z@4IA 00449bcc     v5subs:temp_message.obj
 0003:0000abd0       _NullChar                  00449bd0     v5subs:textlist.obj
 0003:0000abd4       ?st@?1??system_time@TIME_CLASS@@QAEAAU_SYSTEMTIME@@XZ@4U3@A 00449bd4     v5subs:timeclas.obj
 0003:0000abe4       ?ft@?1??file_time@TIME_CLASS@@QAEAAU_FILETIME@@XZ@4U3@A 00449be4     v5subs:timeclas.obj
 0003:0000abec       ?s@?1??text@TIME_CLASS@@QAEPADXZ@4PADA 00449bec     v5subs:timeclas.obj
 0003:0000ac00       ?s@?1??mmddyyyy@TIME_CLASS@@QAEPADXZ@4PADA 00449c00     v5subs:timeclas.obj
 0003:0000ac0c       ?s@?1??hhmmss@TIME_CLASS@@QAEPADXZ@4PADA 00449c0c     v5subs:timeclas.obj
 0003:0000ac18       _BorderHeight              00449c18     v5subs:menuctrl.obj
 0003:0000ac1c       _BorderWidth               00449c1c     v5subs:menuctrl.obj
 0003:0000ac20       _FontList                  00449c20     v5subs:menuctrl.obj
 0003:0000ac24       ?hex@?1??append_value@FTII_VAR@@QAE_NAAVSTRING_CLASS@@@Z@4PADA 00449c24     v5subs:ftiiclas.obj
 0003:0000ac37       _NullChar                  00449c37     v5subs:ftii_shot_data.obj
 0003:0000ac38       _EmptyString               00449c38     v5subs:ftii_shot_data.obj
 0003:0000ac40       ?empty_double@?1???ADOUBLE_ARRAY_CLASS@@QAEAANJ@Z@4NA 00449c40     v5subs:array.obj
 0003:0000ac48       _EmptyString               00449c48     v5subs:ftanalog.obj
 0003:0000ac4c       _Empty                     00449c4c     v5subs:runlist.obj
 0003:0000ac58       ?es@?1??cat@STDDOWN_CLASS@@QAEPADXZ@4PADA 00449c58     v5subs:stddown.obj
 0003:0000ac59       ?es@?1??subcat@STDDOWN_CLASS@@QAEPADXZ@4PADA 00449c59     v5subs:stddown.obj
 0003:0000ac5c       ?name@?1??category_name@@YAPADPAD@Z@4PADA 00449c5c     v5subs:downsubs.obj
 0003:0000ac6c       ?number@?1??category_name@@YAPADPAD@Z@4PADA 00449c6c     v5subs:downsubs.obj
 0003:0000ac70       ?cat@?1??subcategory_name@@YAPADPAD0@Z@4PADA 00449c70     v5subs:downsubs.obj
 0003:0000ac74       ?subcat@?1??subcategory_name@@YAPADPAD0@Z@4PADA 00449c74     v5subs:downsubs.obj
 0003:0000ac78       ?name@?1??subcategory_name@@YAPADPAD0@Z@4PADA 00449c78     v5subs:downsubs.obj
 0003:0000ac88       _NullChar                  00449c88     v5subs:path.obj
 0003:0000ac90       ?name@?1??dynamic_file_name@@YAPADAAVTIME_CLASS@@AAUPART_NAME_ENTRY@@PBD@Z@4PADA 00449c90     v5subs:dynamic_file_name.obj
 0003:0000ad98       _T                         00449d98     v5subs:semaphor.obj
 0003:0000adc4       ?s@?1??full_name@WORKER_LIST_CLASS@@QAEPADXZ@4PADA 00449dc4     v5subs:workclas.obj
 0003:0000ade4       _Msg                       00449de4     v5subs:error_ms.obj
 0003:0000ae24       _OVERWRITE_EXISTING        00449e24     v5subs:callfile.obj
 0003:0000ae30       _GS_ExceptionRecord        00449e30     LIBCMT:gs_report.obj
 0003:0000ae80       _GS_ContextRecord          00449e80     LIBCMT:gs_report.obj
 0003:0000b14c       _DebuggerWasPresent        0044a14c     LIBCMT:gs_report.obj
 0003:0000b19c       ___type_info_root_node     0044a19c     LIBCMT:typname.obj
 0003:0000b2b0       ?_pgmname@?1??_setargv@@9@9 0044a2b0     LIBCMT:stdargv.obj
 0003:0000b3c0       ?outmsg@?9??_NMSG_WRITE@@9@9 0044a3c0     LIBCMT:crt0msg.obj
 0003:0000ba04       _fSystemSet                0044aa04     LIBCMT:mbctype.obj
 0003:0000ba0c       __pmatherr_set             0044aa0c     LIBCMT:libm_error.obj
 0003:0000ba18       _lclcritsects              0044aa18     LIBCMT:mlock.obj
 0003:0000bb70       _ctrlc_action              0044ab70     LIBCMT:winsig.obj
 0003:0000bb74       _ctrlbreak_action          0044ab74     LIBCMT:winsig.obj
 0003:0000bb78       _abort_action              0044ab78     LIBCMT:winsig.obj
 0003:0000bb7c       _term_action               0044ab7c     LIBCMT:winsig.obj
 0003:0000bb80       _ConsoleCtrlHandler_Installed 0044ab80     LIBCMT:winsig.obj
 0003:0000bb84       _g_pfnRtlGenRandom         0044ab84     LIBCMT:rand_s.obj
 0003:0000bbb8       _heap                      0044abb8     LIBCMT:undname.obj
 0003:0000bbd4       ?pfnMessageBox@?1??__crtMessageBoxW@@9@9 0044abd4     LIBCMT:crtmboxw.obj
 0003:0000bbd8       ?pfnGetActiveWindow@?1??__crtMessageBoxW@@9@9 0044abd8     LIBCMT:crtmboxw.obj
 0003:0000bbdc       ?pfnGetLastActivePopup@?1??__crtMessageBoxW@@9@9 0044abdc     LIBCMT:crtmboxw.obj
 0003:0000bbe0       ?pfnGetProcessWindowStation@?1??__crtMessageBoxW@@9@9 0044abe0     LIBCMT:crtmboxw.obj
 0003:0000bbe4       ?pfnGetUserObjectInformation@?1??__crtMessageBoxW@@9@9 0044abe4     LIBCMT:crtmboxw.obj
 0003:0000bbf0       ___crtCallProc             0044abf0     LIBCMT:winapinls.obj
 0004:00000aa0       $R000000                   0044caa0     ft2.res
 0004:00000ce0       $R000240                   0044cce0     ft2.res
 0004:00000d70       $R0002D0                   0044cd70     ft2.res
 0004:00001048       $R0005A8                   0044d048     ft2.res
 0004:000021d0       $R001730                   0044e1d0     ft2.res
 0004:000025f0       $R001B50                   0044e5f0     ft2.res
 0004:00002828       $R001D88                   0044e828     ft2.res
 0004:00002ec8       $R002428                   0044eec8     ft2.res
 0004:00002fd8       $R002538                   0044efd8     ft2.res
 0004:00003268       $R0027C8                   0044f268     ft2.res
 0004:000037c8       $R002D28                   0044f7c8     ft2.res
 0004:000038c0       $R002E20                   0044f8c0     ft2.res
 0004:00003e30       $R003390                   0044fe30     ft2.res
 0004:00004058       $R0035B8                   00450058     ft2.res
 0004:000044a8       $R003A08                   004504a8     ft2.res
 0004:000045e8       $R003B48                   004505e8     ft2.res
 0004:000048d8       $R003E38                   004508d8     ft2.res
 0004:00004a50       $R003FB0                   00450a50     ft2.res
 0004:00004ae8       $R004048                   00450ae8     ft2.res
 0004:00004b40       $R0040A0                   00450b40     ft2.res
 0004:00004d00       $R004260                   00450d00     ft2.res
 0004:00005120       $R004680                   00451120     ft2.res
 0004:000052e8       $R004848                   004512e8     ft2.res
 0004:000055d0       $R004B30                   004515d0     ft2.res
 0004:000056f8       $R004C58                   004516f8     ft2.res
 0004:00005720       $R004C80                   00451720     ft2.res
 0004:00005780       $R004CE0                   00451780     ft2.res
 0004:00005b60       $R0050C0                   00451b60     ft2.res
 0004:00005d88       $R0052E8                   00451d88     ft2.res
 0004:00006058       $R0055B8                   00452058     ft2.res
 0004:000062e0       $R005840                   004522e0     ft2.res
 0004:000064a0       $R005A00                   004524a0     ft2.res
 0004:00006668       $R005BC8                   00452668     ft2.res
