 monedit

 Timestamp is 5fa2cb07 (Wed Nov 04 10:38:47 2020)

 Preferred load address is 00400000

 Start         Length     Name                   Class
 0001:00000000 0000013eH .text$di                CODE
 0001:00000140 000172bcH .text$mn                CODE
 0001:000173fc 000000a0H .text$yd                CODE
 0002:00000000 00000268H .idata$5                DATA
 0002:00000268 00000004H .CRT$XCA                DATA
 0002:0000026c 0000003cH .CRT$XCU                DATA
 0002:000002a8 00000004H .CRT$XCZ                DATA
 0002:000002ac 00000004H .CRT$XIA                DATA
 0002:000002b0 00000014H .CRT$XIC                DATA
 0002:000002c4 00000004H .CRT$XIY                DATA
 0002:000002c8 00000004H .CRT$XIZ                DATA
 0002:000002cc 00000004H .CRT$XPA                DATA
 0002:000002d0 00000008H .CRT$XPX                DATA
 0002:000002d8 00000004H .CRT$XPXA               DATA
 0002:000002dc 00000004H .CRT$XPZ                DATA
 0002:000002e0 00000004H .CRT$XTA                DATA
 0002:000002e4 00000004H .CRT$XTZ                DATA
 0002:000002f0 00005638H .rdata                  DATA
 0002:00005928 000001b8H .rdata$r                DATA
 0002:00005ae0 0000000cH .rdata$sxdata           DATA
 0002:00005aec 00000004H .rtc$IAA                DATA
 0002:00005af0 00000004H .rtc$IZZ                DATA
 0002:00005af4 00000004H .rtc$TAA                DATA
 0002:00005af8 00000004H .rtc$TZZ                DATA
 0002:00005b00 00000344H .xdata$x                DATA
 0002:00005e44 00000000H .edata                  DATA
 0002:00005e44 00000050H .idata$2                DATA
 0002:00005e94 00000014H .idata$3                DATA
 0002:00005ea8 00000268H .idata$4                DATA
 0002:00006110 00000a64H .idata$6                DATA
 0003:00000000 000025f4H .data                   DATA
 0003:000025f4 000000a4H .data$r                 DATA
 0003:000026a0 00002b44H .bss                    DATA
 0004:00000000 00000104H .rsrc$01                DATA
 0004:00000110 00000cd0H .rsrc$02                DATA

  Address         Publics by Value              Rva+Base       Lib:Object

 0000:00000000       ___guard_fids_count        00000000     <absolute>
 0000:00000000       ___guard_flags             00000000     <absolute>
 0000:00000000       ___guard_fids_table        00000000     <absolute>
 0000:00000000       __except_list              00000000     <absolute>
 0000:00000003       ___safe_se_handler_count   00000003     <absolute>
 0000:00000000       ___ImageBase               00400000     <linker-defined>
 0001:000003a1       ?main_proc@@YGJPAUHWND__@@IIJ@Z 004013a1 f   monedit.obj
 0001:00000492       ?new_machine_setup_callback@@YAXPA_WFPAUHDDEDATA__@@@Z 00401492 f   monedit.obj
 0001:00000510       ?paint_me@@YAXXZ           00401510 f   monedit.obj
 0001:0000054e       ?plot_min_callback@@YAXPA_WFPAUHDDEDATA__@@@Z 0040154e f   monedit.obj
 0001:0000056b       _WinMain@16                0040156b f   monedit.obj
 0001:0000060a       ??0MONITOR_ENTRY@@QAE@XZ   0040160a f i monitor.obj
 0001:0000062f       ??1MACHINE_CLASS@@QAE@XZ   0040162f f i monitor.obj
 0001:0000068e       ??1MONITOR_ENTRY@@QAE@XZ   0040168e f i monitor.obj
 0001:000006b0       ??4FTII_VAR@@UAEXABV0@@Z   004016b0 f i monitor.obj
 0001:000006c3       ??4FTII_VAR@@UAEXH@Z       004016c3 f i monitor.obj
 0001:000006c3       ??4FTII_VAR@@UAEXI@Z       004016c3 f i monitor.obj
 0001:000006cd       ??4MONITOR_ENTRY@@QAEAAU0@ABU0@@Z 004016cd f i monitor.obj
 0001:00000710       ??_EMONITOR_ENTRY@@QAEPAXI@Z 00401710 f i monitor.obj
 0001:0000076a       ??_GFTII_VAR_ARRAY@@UAEPAXI@Z 0040176a f i monitor.obj
 0001:0000076a       ??_EFTII_VAR_ARRAY@@UAEPAXI@Z 0040176a f i monitor.obj
 0001:00000786       ?MonitorProc@@YGHPAUHWND__@@IIJ@Z 00401786 f   monitor.obj
 0001:00000987       ?add_one_machine@@YAXAAVSTRING_CLASS@@@Z 00401987 f   monitor.obj
 0001:00000e62       ?enable_entries@@YAXHE@Z   00401e62 f   monitor.obj
 0001:00000ea2       ?fill_machines@@YAXXZ      00401ea2 f   monitor.obj
 0001:00001129       ?get_new_part@@YAXXZ       00402129 f   monitor.obj
 0001:000012ae       ?get_save_counts@@YAXHPAUSAVE_COUNTS@@@Z 004022ae f   monitor.obj
 0001:0000154e       ?monitor_proc_cleanup@@YAXXZ 0040254e f   monitor.obj
 0001:0000166b       ?put_vars_in_dlg@@YAXHPAUSAVE_COUNTS@@@Z 0040266b f   monitor.obj
 0001:000018da       ?save_changes@@YAXXZ       004028da f   monitor.obj
 0001:00001da5       ?save_counts_to_line@@YAPA_WPA_WPAUSAVE_COUNTS@@@Z 00402da5 f   monitor.obj
 0001:000021b2       ?set_skip_count_label@@YAXH@Z 004031b2 f   monitor.obj
 0001:000022f9       ?update_machine_listbox@@YAXH@Z 004032f9 f   monitor.obj
 0001:00002397       ?update_skip_value@@YAXH@Z 00403397 f   monitor.obj
 0001:000023f2       _DdeGetData@16             004033f2 f   user32:USER32.dll
 0001:000023f8       ??0STRING_CLASS@@QAE@ABV0@@Z 004033f8 f   v5subs:stringcl.obj
 0001:00002414       ??0STRING_CLASS@@QAE@XZ    00403414 f   v5subs:stringcl.obj
 0001:0000241e       ??1STRING_CLASS@@QAE@XZ    0040341e f   v5subs:stringcl.obj
 0001:00002423       ??4STRING_CLASS@@QAEXABV0@@Z 00403423 f   v5subs:stringcl.obj
 0001:00002432       ??4STRING_CLASS@@QAEXE@Z   00403432 f   v5subs:stringcl.obj
 0001:0000244d       ??4STRING_CLASS@@QAEXH@Z   0040344d f   v5subs:stringcl.obj
 0001:00002475       ??4STRING_CLASS@@QAEXI@Z   00403475 f   v5subs:stringcl.obj
 0001:0000249d       ??4STRING_CLASS@@QAEXN@Z   0040349d f   v5subs:stringcl.obj
 0001:000024cc       ??4STRING_CLASS@@QAEXPB_W@Z 004034cc f   v5subs:stringcl.obj
 0001:00002517       ??8STRING_CLASS@@QAEEABV0@@Z 00403517 f   v5subs:stringcl.obj
 0001:00002526       ??8STRING_CLASS@@QAEEPB_W@Z 00403526 f   v5subs:stringcl.obj
 0001:00002582       ??MSTRING_CLASS@@QAEEABV0@@Z 00403582 f   v5subs:stringcl.obj
 0001:000025a9       ??YSTRING_CLASS@@QAEXABV0@@Z 004035a9 f   v5subs:stringcl.obj
 0001:000025b8       ??YSTRING_CLASS@@QAEXH@Z   004035b8 f   v5subs:stringcl.obj
 0001:000025f0       ??YSTRING_CLASS@@QAEXI@Z   004035f0 f   v5subs:stringcl.obj
 0001:00002628       ??YSTRING_CLASS@@QAEXPB_W@Z 00403628 f   v5subs:stringcl.obj
 0001:00002669       ??YSTRING_CLASS@@QAEX_W@Z  00403669 f   v5subs:stringcl.obj
 0001:000026a0       ?acquire@STRING_CLASS@@QAEEAAV1@@Z 004036a0 f   v5subs:stringcl.obj
 0001:000026ce       ?add_finalchar@STRING_CLASS@@AAEXPA_W0@Z 004036ce f   v5subs:stringcl.obj
 0001:000026fe       ?boolean_value@STRING_CLASS@@QAEEXZ 004036fe f   v5subs:stringcl.obj
 0001:00002720       ?cat_path@STRING_CLASS@@QAEXPB_W@Z 00403720 f   v5subs:stringcl.obj
 0001:0000278f       ?cat_w_char@STRING_CLASS@@QAEXPB_W_W@Z 0040378f f   v5subs:stringcl.obj
 0001:000027e8       ?empty@STRING_CLASS@@QAEXXZ 004037e8 f   v5subs:stringcl.obj
 0001:00002803       ?find@STRING_CLASS@@QAEPA_WPB_W@Z 00403803 f   v5subs:stringcl.obj
 0001:00002821       ?find@STRING_CLASS@@QAEPA_W_W@Z 00403821 f   v5subs:stringcl.obj
 0001:00002848       ?get_text@STRING_CLASS@@QAE_NPAUHWND__@@@Z 00403848 f   v5subs:stringcl.obj
 0001:0000289e       ?init@STRING_CLASS@@QAEEJ@Z 0040389e f   v5subs:stringcl.obj
 0001:000028f1       ?isempty@STRING_CLASS@@QAEEXZ 004038f1 f   v5subs:stringcl.obj
 0001:0000290f       ?isnumeric@STRING_CLASS@@QAEEXZ 0040390f f   v5subs:stringcl.obj
 0001:00002998       ?len@STRING_CLASS@@QAEJXZ  00403998 f   v5subs:stringcl.obj
 0001:000029ab       ?next_field@STRING_CLASS@@QAE_NXZ 004039ab f   v5subs:stringcl.obj
 0001:000029b9       ?next_field@STRING_CLASS@@QAE_N_W@Z 004039b9 f   v5subs:stringcl.obj
 0001:00002afb       ?null@STRING_CLASS@@QAEXXZ 00403afb f   v5subs:stringcl.obj
 0001:00002b21       ?real_value@STRING_CLASS@@QAENXZ 00403b21 f   v5subs:stringcl.obj
 0001:00002b7e       ?remove_all_occurances@STRING_CLASS@@QAEH_W@Z 00403b7e f   v5subs:stringcl.obj
 0001:00002bb5       ?replace@STRING_CLASS@@QAEEPB_W0@Z 00403bb5 f   v5subs:stringcl.obj
 0001:00002c6b       ?replace_all@STRING_CLASS@@QAEH_W0@Z 00403c6b f   v5subs:stringcl.obj
 0001:00002ca4       ?rjust@STRING_CLASS@@QAEEJ_W@Z 00403ca4 f   v5subs:stringcl.obj
 0001:00002cfd       ?set_text@STRING_CLASS@@QAE_NPAUHWND__@@@Z 00403cfd f   v5subs:stringcl.obj
 0001:00002d22       ?upsize@STRING_CLASS@@QAEEJ@Z 00403d22 f   v5subs:stringcl.obj
 0001:00002d89       ?convert_to_data_dir@NAME_CLASS@@QAEEXZ 00403d89 f   v5subs:nameclas.obj
 0001:00002dce       ?copyto@NAME_CLASS@@QAEEAAVSTRING_CLASS@@@Z 00403dce f   v5subs:nameclas.obj
 0001:00002dfd       ?get_data_dir_file_name@NAME_CLASS@@QAEEAAVSTRING_CLASS@@PB_W@Z 00403dfd f   v5subs:nameclas.obj
 0001:00002e40       ?get_data_dir_file_name@NAME_CLASS@@QAEEPB_W@Z 00403e40 f   v5subs:nameclas.obj
 0001:00002e5d       ?get_exe_dir_file_name@NAME_CLASS@@QAEEAAVSTRING_CLASS@@PB_W@Z 00403e5d f   v5subs:nameclas.obj
 0001:00002ea0       ?get_exe_dir_file_name@NAME_CLASS@@QAEEPB_W@Z 00403ea0 f   v5subs:nameclas.obj
 0001:00002ed9       ?get_machine_dir_file_name@NAME_CLASS@@QAEEAAVSTRING_CLASS@@0PB_W@Z 00403ed9 f   v5subs:nameclas.obj
 0001:00002f22       ?get_machine_results_dir_file_name@NAME_CLASS@@QAEEAAVSTRING_CLASS@@0PB_W@Z 00403f22 f   v5subs:nameclas.obj
 0001:00002f60       ?get_part_dir_file_name@NAME_CLASS@@QAEEAAVSTRING_CLASS@@00PB_W@Z 00403f60 f   v5subs:nameclas.obj
 0001:00002fac       ?get_part_results_dir_file_name@NAME_CLASS@@QAEEAAVSTRING_CLASS@@00PB_W@Z 00403fac f   v5subs:nameclas.obj
 0001:00002fed       ?get_profile_name@NAME_CLASS@@QAEEAAVSTRING_CLASS@@00PB_W1@Z 00403fed f   v5subs:nameclas.obj
 0001:0000309a       ?get_stringtable_name@NAME_CLASS@@QAEEPB_W@Z 0040409a f   v5subs:nameclas.obj
 0001:000030eb       ??0FONT_CLASS@@QAE@XZ      004040eb f   v5subs:fontclas.obj
 0001:00003108       ??0FONT_LIST_CLASS@@QAE@XZ 00404108 f   v5subs:fontclas.obj
 0001:0000310e       ??0FONT_LIST_ENTRY@@QAE@XZ 0040410e f   v5subs:fontclas.obj
 0001:00003128       ??1FONT_CLASS@@QAE@XZ      00404128 f   v5subs:fontclas.obj
 0001:00003129       ??1FONT_LIST_CLASS@@QAE@XZ 00404129 f   v5subs:fontclas.obj
 0001:00003152       ??1FONT_LIST_ENTRY@@QAE@XZ 00404152 f   v5subs:fontclas.obj
 0001:0000316a       ??4FONT_CLASS@@QAEXABUtagLOGFONTW@@@Z 0040416a f   v5subs:fontclas.obj
 0001:000031cd       ??4FONT_CLASS@@QAEXABV0@@Z 004041cd f   v5subs:fontclas.obj
 0001:00003209       ??8FONT_CLASS@@QAE_NABUtagLOGFONTW@@@Z 00404209 f   v5subs:fontclas.obj
 0001:0000328e       ??8FONT_CLASS@@QAE_NABV0@@Z 0040428e f   v5subs:fontclas.obj
 0001:000032ca       ?free_handle@FONT_LIST_CLASS@@QAEXPAUHFONT__@@@Z 004042ca f   v5subs:fontclas.obj
 0001:0000330d       ?get@FONT_CLASS@@QAE_NPA_W@Z 0040430d f   v5subs:fontclas.obj
 0001:000034c1       ?get_handle@FONT_LIST_CLASS@@QAEPAUHFONT__@@ABVFONT_CLASS@@@Z 004044c1 f   v5subs:fontclas.obj
 0001:000035d8       ??1INI_CLASS@@QAE@XZ       004045d8 f   v5subs:iniclass.obj
 0001:00003691       ?cleanup@INI_CLASS@@QAEXXZ 00404691 f   v5subs:iniclass.obj
 0001:000036cc       ?find@INI_CLASS@@QAEEPB_W0@Z 004046cc f   v5subs:iniclass.obj
 0001:0000372f       ?find@INI_CLASS@@QAEEPB_W@Z 0040472f f   v5subs:iniclass.obj
 0001:00003748       ?get_bool@INI_CLASS@@QAE_NPB_W0@Z 00404748 f   v5subs:iniclass.obj
 0001:0000376b       ?get_bool@INI_CLASS@@QAE_NPB_W@Z 0040476b f   v5subs:iniclass.obj
 0001:00003784       ?get_bool@INI_CLASS@@QAE_NXZ 00404784 f   v5subs:iniclass.obj
 0001:000037a6       ?get_string@INI_CLASS@@QAEPA_WXZ 004047a6 f   v5subs:iniclass.obj
 0001:000037b4       ?put_string@INI_CLASS@@QAEEPB_W00@Z 004047b4 f   v5subs:iniclass.obj
 0001:00003803       ?put_string@INI_CLASS@@QAEEPB_W0@Z 00404803 f   v5subs:iniclass.obj
 0001:00003820       ?remove_key@INI_CLASS@@QAEXPB_W0@Z 00404820 f   v5subs:iniclass.obj
 0001:00003835       ?remove_key@INI_CLASS@@QAEXPB_W@Z 00404835 f   v5subs:iniclass.obj
 0001:0000384a       ?set_file@INI_CLASS@@QAEEPB_W@Z 0040484a f   v5subs:iniclass.obj
 0001:0000388c       ?set_section@INI_CLASS@@QAEEPB_W@Z 0040488c f   v5subs:iniclass.obj
 0001:000038c0       ??0COMPUTER_CLASS@@QAE@XZ  004048c0 f   v5subs:computer.obj
 0001:000038cb       ?add@COMPUTER_CLASS@@QAEEPA_W@Z 004048cb f   v5subs:computer.obj
 0001:00003977       ?empty@COMPUTER_CLASS@@QAEXXZ 00404977 f   v5subs:computer.obj
 0001:000039ab       ?find@COMPUTER_CLASS@@QAEEPA_W@Z 004049ab f   v5subs:computer.obj
 0001:000039d8       ?is_this_computer@COMPUTER_CLASS@@QAEEXZ 004049d8 f   v5subs:computer.obj
 0001:000039f2       ?load@COMPUTER_CLASS@@QAEEXZ 004049f2 f   v5subs:computer.obj
 0001:00003b1b       ?next@COMPUTER_CLASS@@QAEEXZ 00404b1b f   v5subs:computer.obj
 0001:00003b3e       ?startup@COMPUTER_CLASS@@QAEEXZ 00404b3e f   v5subs:computer.obj
 0001:00003b53       ?whoami@COMPUTER_CLASS@@QAEAAVSTRING_CLASS@@XZ 00404b53 f   v5subs:computer.obj
 0001:00003b59       ?fix_dde_name@@YAXPA_W@Z   00404b59 f   v5subs:fix.obj
 0001:00003b88       ?get_text@@YAEPA_WPAUHWND__@@H@Z 00404b88 f   v5subs:winsubs.obj
 0001:00003bb1       ?is_a_listbox@@YAEPAUHWND__@@@Z 00404bb1 f   v5subs:winsubs.obj
 0001:00003c1f       ?is_checked@@YAEPAUHWND__@@H@Z 00404c1f f   v5subs:winsubs.obj
 0001:00003c35       ?is_previous_instance@@YAEPA_W0@Z 00404c35 f   v5subs:winsubs.obj
 0001:00003c62       ?resource_message_box@@YAHPAUHWND__@@PAUHINSTANCE__@@III@Z 00404c62 f   v5subs:winsubs.obj
 0001:00003cfb       ?resource_message_box@@YAXPAUHINSTANCE__@@II@Z 00404cfb f   v5subs:winsubs.obj
 0001:00003d17       ?resource_string@@YAPA_WPAUHINSTANCE__@@I@Z 00404d17 f   v5subs:winsubs.obj
 0001:00003d45       ?set_checkbox@@YAXPAUHWND__@@E@Z 00404d45 f   v5subs:winsubs.obj
 0001:00003d61       ?set_checkbox@@YAXPAUHWND__@@HE@Z 00404d61 f   v5subs:winsubs.obj
 0001:00003d7c       ?set_listbox_tabs_from_title_positions@@YAXPAUHWND__@@IPAHH@Z 00404d7c f   v5subs:winsubs.obj
 0001:00003e94       ?set_text@@YAEPAUHWND__@@HPB_W@Z 00404e94 f   v5subs:winsubs.obj
 0001:00003eaf       ?set_text@@YAEPAUHWND__@@PB_W@Z 00404eaf f   v5subs:winsubs.obj
 0001:00003ed8       ?shrinkwrap@@YAXPAUHWND__@@0@Z 00404ed8 f   v5subs:winsubs.obj
 0001:00003f6e       ??0STRINGTABLE_CLASS@@QAE@XZ 00404f6e f   v5subs:stringtable.obj
 0001:00003fad       ??1STRINGTABLE_CLASS@@QAE@XZ 00404fad f   v5subs:stringtable.obj
 0001:00003fc6       ??_ESTRINGTABLE_ENTRY@@QAEPAXI@Z 00404fc6 f i v5subs:stringtable.obj
 0001:00004016       ?acquire@STRINGTABLE_ENTRY@@QAEXAAV1@@Z 00405016 f   v5subs:stringtable.obj
 0001:00004037       ?append@STRINGTABLE_CLASS@@QAE_NAAVSTRING_CLASS@@@Z 00405037 f   v5subs:stringtable.obj
 0001:000042bf       ?cleanup@STRINGTABLE_CLASS@@QAEXXZ 004052bf f   v5subs:stringtable.obj
 0001:000042de       ?cleanup@STRINGTABLE_ENTRY@@QAEXXZ 004052de f   v5subs:stringtable.obj
 0001:00004306       ?find@STRINGTABLE_CLASS@@QAEPA_WPA_W@Z 00405306 f   v5subs:stringtable.obj
 0001:0000438d       ?read@STRINGTABLE_CLASS@@QAE_NAAVSTRING_CLASS@@@Z 0040538d f   v5subs:stringtable.obj
 0001:000043e5       ?set_setup_strings@@YAXPAUHWND__@@PAURESOURCE_TEXT_ENTRY@@HPAIHPA_W@Z 004053e5 f   v5subs:statics.obj
 0001:000044b3       ?set_statics_font@@YAXAAVWINDOW_CLASS@@@Z 004054b3 f   v5subs:statics.obj
 0001:000044d0       ?statics_shutdown@@YAXXZ   004054d0 f   v5subs:statics.obj
 0001:000044ed       ?statics_startup@@YAXXZ    004054ed f   v5subs:statics.obj
 0001:00004502       ??0EVENT_ENTRY@@QAE@XZ     00405502 f i v5subs:client.obj
 0001:00004519       ??_GEVENT_ENTRY@@QAEPAXI@Z 00405519 f i v5subs:client.obj
 0001:0000453f       ?client_dde_shutdown@@YAXXZ 0040553f f   v5subs:client.obj
 0001:000045fb       ?client_dde_startup@@YAXPAUHWND__@@@Z 004055fb f   v5subs:client.obj
 0001:0000461d       ?client_dde_startup@@YAXXZ 0040561d f   v5subs:client.obj
 0001:000046b1       ?connect_to_server@@YAPAUHCONV__@@PA_W@Z 004056b1 f   v5subs:client.obj
 0001:00004714       ?connect_to_server@@YAXXZ  00405714 f   v5subs:client.obj
 0001:0000477c       ?dde_callback@@YGPAUHDDEDATA__@@IIPAUHCONV__@@PAUHSZ__@@1PAU1@KK@Z 0040577c f   v5subs:client.obj
 0001:0000487a       ?find_conversation@@YAPAUEVENT_ENTRY@@PAUHCONV__@@@Z 0040587a f   v5subs:client.obj
 0001:00004915       ?hot_links@@YAXPAUEVENT_ENTRY@@I@Z 00405915 f   v5subs:client.obj
 0001:0000494e       ?one_hot_link@@YAXPAUHCONV__@@FI@Z 0040594e f   v5subs:client.obj
 0001:000049b5       ?poke_data@@YAXPA_W00@Z    004059b5 f   v5subs:client.obj
 0001:00004ab0       ?register_for_event@@YAXPA_WFP6AX0FPAUHDDEDATA__@@@Z@Z 00405ab0 f   v5subs:client.obj
 0001:00004b83       ?unregister_for_event@@YAXPA_WF@Z 00405b83 f   v5subs:client.obj
 0001:00004c08       ?int32toasc@@YAPA_WJ@Z     00405c08 f   v5subs:itoasc.obj
 0001:00004c21       ?int32toasc@@YAXPA_WJJ@Z   00405c21 f   v5subs:itoasc.obj
 0001:00004c72       ?ultoascii@@YAXPA_WKK@Z    00405c72 f   v5subs:itoasc.obj
 0001:00004cab       ??0AUTO_BACKUP_CLASS@@QAE@XZ 00405cab f   v5subs:autoback.obj
 0001:00004cbd       ??1AUTO_BACKUP_CLASS@@QAE@XZ 00405cbd f   v5subs:autoback.obj
 0001:00004cc3       ?backup_machine@AUTO_BACKUP_CLASS@@QAEEAAVSTRING_CLASS@@@Z 00405cc3 f   v5subs:autoback.obj
 0001:00004e14       ?backup_part@AUTO_BACKUP_CLASS@@QAEEAAVSTRING_CLASS@@0@Z 00405e14 f   v5subs:autoback.obj
 0001:0000506b       ?get_backup_dir@AUTO_BACKUP_CLASS@@QAEEXZ 0040606b f   v5subs:autoback.obj
 0001:00005109       ??0BIT_CLASS@@QAE@J@Z      00406109 f   v5subs:bitclass.obj
 0001:00005126       ??1BIT_CLASS@@QAE@XZ       00406126 f   v5subs:bitclass.obj
 0001:0000512b       ??ABIT_CLASS@@QAE_NJ@Z     0040612b f   v5subs:bitclass.obj
 0001:00005175       ?cleanup@BIT_CLASS@@AAEXXZ 00406175 f   v5subs:bitclass.obj
 0001:00005191       ?init@BIT_CLASS@@QAE_NJPAI@Z 00406191 f   v5subs:bitclass.obj
 0001:00005221       ?set@BIT_CLASS@@QAEXJ@Z    00406221 f   v5subs:bitclass.obj
 0001:0000525d       ??1GENERIC_LIST_CLASS@@QAE@XZ 0040625d f   v5subs:genlist.obj
 0001:0000527f       ?append@GENERIC_LIST_CLASS@@QAEEPAX@Z 0040627f f   v5subs:genlist.obj
 0001:000052b5       ?count@GENERIC_LIST_CLASS@@QAEFXZ 004062b5 f   v5subs:genlist.obj
 0001:000052c1       ?find@GENERIC_LIST_CLASS@@QAEEPAX@Z 004062c1 f   v5subs:genlist.obj
 0001:000052f9       ?next@GENERIC_LIST_CLASS@@QAEPAXXZ 004062f9 f   v5subs:genlist.obj
 0001:00005323       ?remove@GENERIC_LIST_CLASS@@QAEEPAX@Z 00406323 f   v5subs:genlist.obj
 0001:00005342       ?remove@GENERIC_LIST_CLASS@@QAEEXZ 00406342 f   v5subs:genlist.obj
 0001:00005371       ?remove_all@GENERIC_LIST_CLASS@@QAEXXZ 00406371 f   v5subs:genlist.obj
 0001:0000539a       ?rewind@GENERIC_LIST_CLASS@@QAEXXZ 0040639a f   v5subs:genlist.obj
 0001:000053a3       ??0FILE_CLASS@@QAE@XZ      004063a3 f   v5subs:fileclas.obj
 0001:000053c7       ?cleanup@FILE_CLASS@@QAEXXZ 004063c7 f   v5subs:fileclas.obj
 0001:000053f5       ?cleanup_memory@FILE_CLASS@@QAEXXZ 004063f5 f   v5subs:fileclas.obj
 0001:00005421       ?close@FILE_CLASS@@QAEXXZ  00406421 f   v5subs:fileclas.obj
 0001:00005421       ??1FILE_CLASS@@QAE@XZ      00406421 f   v5subs:fileclas.obj
 0001:00005426       ?make_path@FILE_CLASS@@QAEEPA_W@Z 00406426 f   v5subs:fileclas.obj
 0001:00005471       ?nof_lines@FILE_CLASS@@QAEHXZ 00406471 f   v5subs:fileclas.obj
 0001:00005547       ?open@FILE_CLASS@@QAEEPA_WK@Z 00406547 f   v5subs:fileclas.obj
 0001:000055ca       ?open_for_append@FILE_CLASS@@QAEEPA_W@Z 004065ca f   v5subs:fileclas.obj
 0001:00005600       ?open_for_read@FILE_CLASS@@QAEEAAVSTRING_CLASS@@@Z 00406600 f   v5subs:fileclas.obj
 0001:0000561a       ?open_for_read@FILE_CLASS@@QAEEPA_W@Z 0040661a f   v5subs:fileclas.obj
 0001:00005636       ?open_for_write@FILE_CLASS@@QAEEAAVSTRING_CLASS@@@Z 00406636 f   v5subs:fileclas.obj
 0001:00005650       ?open_for_write@FILE_CLASS@@QAEEPA_W@Z 00406650 f   v5subs:fileclas.obj
 0001:00005669       ?readline@FILE_CLASS@@QAEPA_WXZ 00406669 f   v5subs:fileclas.obj
 0001:00005759       ?setpos@FILE_CLASS@@QAEEJ@Z 00406759 f   v5subs:fileclas.obj
 0001:0000579c       ?writeline@FILE_CLASS@@QAEEPA_W@Z 0040679c f   v5subs:fileclas.obj
 0001:00005833       ??1LISTBOX_CLASS@@QAE@XZ   00406833 f   v5subs:listbox.obj
 0001:00005843       ?add@LISTBOX_CLASS@@QAEHPA_W@Z 00406843 f   v5subs:listbox.obj
 0001:00005884       ?check_buf_size@LISTBOX_CLASS@@AAEEH@Z 00406884 f   v5subs:listbox.obj
 0001:000058d1       ?check_buf_size@LISTBOX_CLASS@@AAEEPA_W@Z 004068d1 f   v5subs:listbox.obj
 0001:000058ea       ?check_item_size@LISTBOX_CLASS@@AAEEH@Z 004068ea f   v5subs:listbox.obj
 0001:00005921       ?current_index@LISTBOX_CLASS@@QAEHXZ 00406921 f   v5subs:listbox.obj
 0001:00005940       ?empty@LISTBOX_CLASS@@QAEXXZ 00406940 f   v5subs:listbox.obj
 0001:00005957       ?init@LISTBOX_CLASS@@QAEEPAUHWND__@@@Z 00406957 f   v5subs:listbox.obj
 0001:000059b8       ?init@LISTBOX_CLASS@@QAEEPAUHWND__@@H@Z 004069b8 f   v5subs:listbox.obj
 0001:000059d5       ?insert@LISTBOX_CLASS@@QAEHHPA_W@Z 004069d5 f   v5subs:listbox.obj
 0001:00005a18       ?is_selected@LISTBOX_CLASS@@QAEEH@Z 00406a18 f   v5subs:listbox.obj
 0001:00005a3d       ?item_text@LISTBOX_CLASS@@QAEPA_WH@Z 00406a3d f   v5subs:listbox.obj
 0001:00005a85       ?redraw_off@LISTBOX_CLASS@@QAEXXZ 00406a85 f   v5subs:listbox.obj
 0001:00005a94       ?redraw_on@LISTBOX_CLASS@@QAEXXZ 00406a94 f   v5subs:listbox.obj
 0001:00005ab3       ?remove@LISTBOX_CLASS@@QAEEH@Z 00406ab3 f   v5subs:listbox.obj
 0001:00005adf       ?replace@LISTBOX_CLASS@@QAEEPA_W@Z 00406adf f   v5subs:listbox.obj
 0001:00005b3b       ?selected_index@LISTBOX_CLASS@@QAEHXZ 00406b3b f   v5subs:listbox.obj
 0001:00005b66       ?selected_text@LISTBOX_CLASS@@QAEPA_WXZ 00406b66 f   v5subs:listbox.obj
 0001:00005b84       ?set_current_index@LISTBOX_CLASS@@QAEEH@Z 00406b84 f   v5subs:listbox.obj
 0001:00005bab       ?setcursel@LISTBOX_CLASS@@QAEEH@Z 00406bab f   v5subs:listbox.obj
 0001:00005bec       ?setcursel@LISTBOX_CLASS@@QAEEPA_W@Z 00406bec f   v5subs:listbox.obj
 0001:00005c33       ??0MULTIPART_RUNLIST_SETTINGS_CLASS@@QAE@XZ 00406c33 f   v5subs:multipart_runlist.obj
 0001:00005c49       ??0MULTIPART_RUNLIST_WIRES_CLASS@@QAE@XZ 00406c49 f   v5subs:multipart_runlist.obj
 0001:00005c5f       ??1MULTIPART_RUNLIST_SETTINGS_CLASS@@QAE@XZ 00406c5f f   v5subs:multipart_runlist.obj
 0001:00005c67       ??1MULTIPART_RUNLIST_WIRES_CLASS@@QAE@XZ 00406c67 f   v5subs:multipart_runlist.obj
 0001:00005c6f       ??4MULTIPART_RUNLIST_SETTINGS_CLASS@@QAEXABV0@@Z 00406c6f f   v5subs:multipart_runlist.obj
 0001:00005c8c       ??4MULTIPART_RUNLIST_WIRES_CLASS@@QAEXABV0@@Z 00406c8c f   v5subs:multipart_runlist.obj
 0001:00005ca9       ?bits_from_wirelist@@YAIAAVSTRING_CLASS@@@Z 00406ca9 f   v5subs:multipart_runlist.obj
 0001:00005d62       ?countchars@STRING_CLASS@@QAEJ_W@Z 00406d62 f i v5subs:multipart_runlist.obj
 0001:00005d7d       ?get@MULTIPART_RUNLIST_SETTINGS_CLASS@@QAE_NAAVSTRING_CLASS@@0@Z 00406d7d f   v5subs:multipart_runlist.obj
 0001:00006061       ?get@MULTIPART_RUNLIST_WIRES_CLASS@@QAE_NAAVSTRING_CLASS@@00@Z 00407061 f   v5subs:multipart_runlist.obj
 0001:000061ff       ?get_multipart_runlist_wires_csvname@NAME_CLASS@@QAEEAAVSTRING_CLASS@@0V2@@Z 004071ff f i v5subs:multipart_runlist.obj
 0001:00006228       ?get_wirelist@MULTIPART_RUNLIST_SETTINGS_CLASS@@QAE_NAAVSTRING_CLASS@@H@Z 00407228 f   v5subs:multipart_runlist.obj
 0001:00006303       ?init@MULTIPART_RUNLIST_SETTINGS_CLASS@@QAEXXZ 00407303 f   v5subs:multipart_runlist.obj
 0001:0000630b       ?part_selection_number@MULTIPART_RUNLIST_SETTINGS_CLASS@@QAEHAAVSTRING_CLASS@@@Z 0040730b f   v5subs:multipart_runlist.obj
 0001:000063cf       ??0MACHINE_CLASS@@QAE@XZ   004073cf f   v5subs:machine.obj
 0001:00006436       ??4MACHINE_CLASS@@QAEXABV0@@Z 00407436 f   v5subs:machine.obj
 0001:0000657d       ?find@MACHINE_CLASS@@QAEEAAVSTRING_CLASS@@0@Z 0040757d f   v5subs:machine.obj
 0001:000067dd       ?init@MACHINE_CLASS@@QAEXXZ 004077dd f   v5subs:machine.obj
 0001:00006866       ?init_save_counts@@YAXPAUSAVE_COUNTS@@@Z 00407866 f   v5subs:machine.obj
 0001:0000687f       ?read_machset_db@MACHINE_CLASS@@QAEEAAVSTRING_CLASS@@@Z 0040787f f   v5subs:machine.obj
 0001:00006e38       ??1MACHINE_NAME_LIST_CLASS@@QAE@XZ 00407e38 f   v5subs:machname.obj
 0001:00006e49       ??_GMACHINE_NAME_LIST_ENTRY@@QAEPAXI@Z 00407e49 f i v5subs:machname.obj
 0001:00006e6f       ?add_computer@MACHINE_NAME_LIST_CLASS@@QAEEAAVSTRING_CLASS@@@Z 00407e6f f   v5subs:machname.obj
 0001:00006fd1       ?empty@MACHINE_NAME_LIST_CLASS@@QAEXXZ 00407fd1 f   v5subs:machname.obj
 0001:00006ffd       ?name@MACHINE_NAME_LIST_CLASS@@QAEAAVSTRING_CLASS@@XZ 00407ffd f   v5subs:machname.obj
 0001:0000700d       ?next@MACHINE_NAME_LIST_CLASS@@QAEEXZ 0040800d f   v5subs:machname.obj
 0001:0000700d       ?next@TEXT_LIST_CLASS@@QAEEXZ 0040800d f   v5subs:textlist.obj
 0001:00007021       ??0SETPOINT_CLASS@@QAE@XZ  00408021 f   v5subs:setpoint.obj
 0001:0000702b       ??1SETPOINT_CLASS@@QAE@XZ  0040802b f   v5subs:setpoint.obj
 0001:00007030       ??4SETPOINT_CLASS@@QAEXABV0@@Z 00408030 f   v5subs:setpoint.obj
 0001:00007083       ??ASETPOINT_CLASS@@QAEAAUSETPOINT_ENTRY@@H@Z 00408083 f   v5subs:setpoint.obj
 0001:0000709f       ??_ESETPOINT_ENTRY@@QAEPAXI@Z 0040809f f i v5subs:setpoint.obj
 0001:00007108       ?cleanup@SETPOINT_CLASS@@QAEXXZ 00408108 f   v5subs:setpoint.obj
 0001:00007123       ?get@SETPOINT_CLASS@@QAEHAAVSTRING_CLASS@@@Z 00408123 f   v5subs:setpoint.obj
 0001:0000713a       ?getfrom@SETPOINT_CLASS@@QAEHAAVSTRING_CLASS@@@Z 0040813a f   v5subs:setpoint.obj
 0001:00007230       ?put@SETPOINT_CLASS@@QAEEAAVSTRING_CLASS@@@Z 00408230 f   v5subs:setpoint.obj
 0001:00007317       ?setsize@SETPOINT_CLASS@@QAEEH@Z 00408317 f   v5subs:setpoint.obj
 0001:00007414       ??0PART_CLASS@@QAE@XZ      00408414 f   v5subs:part.obj
 0001:0000744a       ??1PART_CLASS@@QAE@XZ      0040844a f   v5subs:part.obj
 0001:00007478       ??4PART_CLASS@@QAEXABV0@@Z 00408478 f   v5subs:part.obj
 0001:000076a0       ?find@PART_CLASS@@QAEEAAVSTRING_CLASS@@00@Z 004086a0 f   v5subs:part.obj
 0001:000079de       ?init@PART_CLASS@@QAEXXZ   004089de f   v5subs:part.obj
 0001:00007b04       ?read_ftchan_db@PART_CLASS@@QAEEAAVSTRING_CLASS@@@Z 00408b04 f   v5subs:part.obj
 0001:00007baa       ?read_part_setup@PART_CLASS@@QAEEAAVSTRING_CLASS@@@Z 00408baa f   v5subs:part.obj
 0001:00007c0d       ?read_x4_divisor@PART_CLASS@@QAEEXZ 00408c0d f   v5subs:part.obj
 0001:00007d64       ?update@PART_CLASS@@QAEEXZ 00408d64 f   v5subs:part.obj
 0001:00008198       ?charlen@@YAFPB_WF@Z       00409198 f   v5subs:mem.obj
 0001:000081bf       ?compare@@YAFPB_W0F@Z      004091bf f   v5subs:mem.obj
 0001:00008227       ?copy_w_char@@YAPA_WPA_W0_W@Z 00409227 f   v5subs:mem.obj
 0001:00008242       ?copychars@@YAXPA_WPB_WF@Z 00409242 f   v5subs:mem.obj
 0001:00008268       ?copyfromstr@@YAXPA_WPB_WF@Z 00409268 f   v5subs:mem.obj
 0001:000082ab       ?copystring@@YAPA_WPA_WPB_W@Z 004092ab f   v5subs:mem.obj
 0001:000082ee       ?copystring@@YAPA_WPA_WPB_WH@Z 004092ee f   v5subs:mem.obj
 0001:0000833c       ?countchars@@YAJ_WPB_W@Z   0040933c f   v5subs:mem.obj
 0001:0000835a       ?fillchars@@YAXPA_W_WF@Z   0040935a f   v5subs:mem.obj
 0001:00008385       ?findchar@@YAPB_W_WPB_W@Z  00409385 f   v5subs:mem.obj
 0001:00008385       ?findchar@@YAPA_W_WPA_W@Z  00409385 f   v5subs:mem.obj
 0001:000083a0       ?findchar@@YAPA_W_WPA_WF@Z 004093a0 f   v5subs:mem.obj
 0001:000083cb       ?findstring@@YAPA_WPB_WPA_W@Z 004093cb f   v5subs:mem.obj
 0001:00008449       ?maketext@@YAPA_WJ@Z       00409449 f   v5subs:mem.obj
 0001:00008472       ?maketext@@YAPA_WPB_W@Z    00409472 f   v5subs:mem.obj
 0001:00008480       ?maketext@@YAPA_WPB_WJ@Z   00409480 f   v5subs:mem.obj
 0001:000084b3       ?move_string_forward@@YAXPA_WH@Z 004094b3 f   v5subs:mem.obj
 0001:000084e9       ?nextstring@@YAPA_WPA_W@Z  004094e9 f   v5subs:mem.obj
 0001:000084fd       ?remove_all_occurances@@YAXPA_W_W@Z 004094fd f   v5subs:mem.obj
 0001:00008525       ?remove_char@@YAXPA_W@Z    00409525 f   v5subs:mem.obj
 0001:0000854b       ?replace_char_with_null@@YAEPA_WPB_W@Z 0040954b f   v5subs:mem.obj
 0001:00008597       ?replace_char_with_null@@YAEPA_W_W@Z 00409597 f   v5subs:mem.obj
 0001:000085c6       ?start_chars_are_equal@@YA_NPB_W0@Z 004095c6 f   v5subs:mem.obj
 0001:000085fc       ?strings_are_equal@@YAEPB_W0@Z 004095fc f   v5subs:mem.obj
 0001:00008631       ?strings_are_equal@@YAEPB_W0F@Z 00409631 f   v5subs:mem.obj
 0001:0000864d       ?upper_case@@YAXAA_W@Z     0040964d f   v5subs:mem.obj
 0001:00008671       ?utoi@@YAHI@Z              00409671 f   v5subs:mem.obj
 0001:00008676       ?fill_part_listbox@@YAXPAUHWND__@@HAAVSTRING_CLASS@@1@Z 00409676 f   v5subs:fillpart.obj
 0001:0000872b       ?get_ini_string@@YAPA_WPB_W00@Z 0040972b f   v5subs:get_ini.obj
 0001:00008751       ?get_long_ini_string@@YAPA_WPB_W00@Z 00409751 f   v5subs:get_ini.obj
 0001:000087c6       ?log_file_string@@YAEAAVSTRING_CLASS@@PA_W1000@Z 004097c6 f   v5subs:log_file_string.obj
 0001:000088ed       ?monitor_is_running@@YAEXZ 004098ed f   v5subs:monrun.obj
 0001:00008964       ?post_impact_n_ms@@YAXPAF0PA_W@Z 00409964 f   v5subs:postsec.obj
 0001:000089b7       ?post_impact_seconds@@YAXPA_WFF@Z 004099b7 f   v5subs:postsec.obj
 0001:00008a14       ?ascii_to_bool@@YA_NPA_W@Z 00409a14 f   v5subs:misc.obj
 0001:00008a33       ?round@@YANNN@Z            00409a33 f   v5subs:misc.obj
 0001:00008a77       ?unknown_string@@YAPA_WXZ  00409a77 f   v5subs:misc.obj
 0001:00008a7d       ??0WARMUP_CLASS@@QAE@XZ    00409a7d f   v5subs:warmupcl.obj
 0001:00008a97       ?create_runlist@WARMUP_CLASS@@QAEEAAVSTRING_CLASS@@00@Z 00409a97 f   v5subs:warmupcl.obj
 0001:00008cb9       ?delete_file@NAME_CLASS@@QAEEXZ 00409cb9 f i v5subs:warmupcl.obj
 0001:00008cd3       ?get@WARMUP_CLASS@@QAEEAAVSTRING_CLASS@@00@Z 00409cd3 f   v5subs:warmupcl.obj
 0001:00008db4       ??1FTII_VAR_ARRAY@@UAE@XZ  00409db4 f   v5subs:ftiiclas.obj
 0001:00008dca       ??4FTII_VAR@@UAEXN@Z       00409dca f   v5subs:ftiiclas.obj
 0001:00008e20       ??4FTII_VAR@@UAEXPB_W@Z    00409e20 f   v5subs:ftiiclas.obj
 0001:00008ea4       ??4FTII_VAR_ARRAY@@UAEXABVFTII_VAR@@@Z 00409ea4 f   v5subs:ftiiclas.obj
 0001:00008eb6       ??4FTII_VAR_ARRAY@@UAEXH@Z 00409eb6 f   v5subs:ftiiclas.obj
 0001:00008ebb       ??4FTII_VAR_ARRAY@@UAEXI@Z 00409ebb f   v5subs:ftiiclas.obj
 0001:00008edc       ??4FTII_VAR_ARRAY@@UAEXN@Z 00409edc f   v5subs:ftiiclas.obj
 0001:00008f08       ??AFTII_VAR_ARRAY@@QAEAAVFTII_VAR@@H@Z 00409f08 f   v5subs:ftiiclas.obj
 0001:00008f3c       ??_EFTII_VAR@@UAEPAXI@Z    00409f3c f i v5subs:ftiiclas.obj
 0001:00008f8f       ?append_value@FTII_VAR@@QAE_NAAVSTRING_CLASS@@@Z 00409f8f f   v5subs:ftiiclas.obj
 0001:00009063       ?cleanup@FTII_VAR_ARRAY@@QAEXXZ 0040a063 f   v5subs:ftiiclas.obj
 0001:00009096       ?get@FTII_VAR@@UAE_NPB_W@Z 0040a096 f   v5subs:ftiiclas.obj
 0001:000090d3       ?makeline@FTII_VAR@@QAE_NAAVSTRING_CLASS@@@Z 0040a0d3 f   v5subs:ftiiclas.obj
 0001:0000911f       ?myfindchar@@YAPB_W_WPB_W@Z 0040a11f f   v5subs:ftiiclas.obj
 0001:0000911f       ?myfindchar@@YAPA_W_WPA_W@Z 0040a11f f   v5subs:ftiiclas.obj
 0001:00009143       ?put@FTII_VAR@@UAE_NAAVSTRING_CLASS@@@Z 0040a143 f   v5subs:ftiiclas.obj
 0001:000091e6       ?put@FTII_VAR_ARRAY@@UAE_NAAVSTRING_CLASS@@@Z 0040a1e6 f   v5subs:ftiiclas.obj
 0001:000092c7       ?put_into@FTII_VAR_ARRAY@@QAE_NAAVSTRING_CLASS@@@Z 0040a2c7 f   v5subs:ftiiclas.obj
 0001:00009475       ?set@FTII_VAR@@UAE_NHI@Z   0040a475 f   v5subs:ftiiclas.obj
 0001:00009493       ?set@FTII_VAR@@UAE_NHN@Z   0040a493 f   v5subs:ftiiclas.obj
 0001:000094fa       ?set@FTII_VAR_ARRAY@@UAE_NHI@Z 0040a4fa f   v5subs:ftiiclas.obj
 0001:0000952d       ?upsize@FTII_VAR_ARRAY@@QAE_NH@Z 0040a52d f   v5subs:ftiiclas.obj
 0001:0000963c       ?add@WORKER_LIST_CLASS@@QAEEPA_W00@Z 0040a63c f   v5subs:workclas.obj
 0001:000096c2       ?cleanup@WORKER_LIST_CLASS@@QAEXXZ 0040a6c2 f   v5subs:workclas.obj
 0001:000096df       ?full_name@WORKER_LIST_CLASS@@QAEPA_WPA_W@Z 0040a6df f   v5subs:workclas.obj
 0001:00009741       ?load@WORKER_LIST_CLASS@@QAEEXZ 0040a741 f   v5subs:workclas.obj
 0001:0000980a       ?asctoint32@@YAJPB_W@Z     0040a80a f   v5subs:extract.obj
 0001:00009827       ?asctoul@@YAKPB_W@Z        0040a827 f   v5subs:extract.obj
 0001:00009844       ?extdouble@@YANPB_WF@Z     0040a844 f   v5subs:extract.obj
 0001:000098b5       ?extlong@@YAJPB_WF@Z       0040a8b5 f   v5subs:extract.obj
 0001:000098c8       ?extlong@@YAJPB_WFH@Z      0040a8c8 f   v5subs:extract.obj
 0001:0000992e       ?extul@@YAKPB_WFH@Z        0040a92e f   v5subs:extract.obj
 0001:00009994       ?is_real_char@@YAE_W@Z     0040a994 f   v5subs:extract.obj
 0001:00009a40       ?is_empty@@YAEPB_W@Z       0040aa40 f   v5subs:is_empty.obj
 0001:00009a61       ?double_to_tchar@@YA_NPA_WNH@Z 0040aa61 f   v5subs:dtotchar.obj
 0001:00009b90       ?rounded_double_to_tchar@@YA_NPA_WN@Z 0040ab90 f   v5subs:dtotchar.obj
 0001:00009bf2       ?append_backslash_to_path@@YAXPA_W@Z 0040abf2 f   v5subs:path.obj
 0001:00009c21       ?append_filename_to_path@@YAXPA_WPB_W@Z 0040ac21 f   v5subs:path.obj
 0001:00009c3a       ?catpath@@YAPA_WPA_WPB_W@Z 0040ac3a f   v5subs:path.obj
 0001:00009c95       ?create_directory@@YAEPA_W@Z 0040ac95 f   v5subs:path.obj
 0001:00009de5       ?dir_from_filename@@YAEPA_W@Z 0040ade5 f   v5subs:path.obj
 0001:00009e37       ?remove_backslash_from_path@@YAXPA_W@Z 0040ae37 f   v5subs:path.obj
 0001:00009e67       ?directory_exists@@YAEPA_W@Z 0040ae67 f   v5subs:exists.obj
 0001:00009e8a       ?disk_is_in_drive@@YAEPA_W@Z 0040ae8a f   v5subs:exists.obj
 0001:00009ec2       ?file_exists@@YAEPA_W@Z    0040aec2 f   v5subs:exists.obj
 0001:00009f61       ?get_drive_name@@YAEPA_W@Z 0040af61 f   v5subs:exists.obj
 0001:00009f98       ?is_removable@@YAEPA_W@Z   0040af98 f   v5subs:exists.obj
 0001:00009fc3       ?exe_directory@@YAPB_WXZ   0040afc3 f   v5subs:gexedir.obj
 0001:00009fe9       ?get_exe_directory@@YAEPA_W@Z 0040afe9 f   v5subs:gexedir.obj
 0001:0000a0d2       ??_EWINDOW_CLASS@@UAEPAXI@Z 0040b0d2 f i v5subs:wclass.obj
 0001:0000a120       ?post@WINDOW_CLASS@@QAEXIIJ@Z 0040b120 f   v5subs:wclass.obj
 0001:0000a13e       ?refresh@WINDOW_CLASS@@QAEXXZ 0040b13e f   v5subs:wclass.obj
 0001:0000a15d       ?set_title@WINDOW_CLASS@@QAEXPA_W@Z 0040b15d f   v5subs:wclass.obj
 0001:0000a17e       ?reverse@@YAXPA_W@Z        0040b17e f   v5subs:reverse.obj
 0001:0000a1aa       ??0DB_TABLE@@QAE@XZ        0040b1aa f   v5subs:dbsubs.obj
 0001:0000a1d1       ??1DB_TABLE@@QAE@XZ        0040b1d1 f   v5subs:dbsubs.obj
 0001:0000a24e       ?close@DB_TABLE@@QAEXXZ    0040b24e f   v5subs:dbsubs.obj
 0001:0000a26f       ?compare_date@@YAFPA_W0@Z  0040b26f f   v5subs:dbsubs.obj
 0001:0000a2a5       ?compare_int32@@YAFPA_W0J@Z 0040b2a5 f   v5subs:dbsubs.obj
 0001:0000a2d9       ?compare_one_record@DB_TABLE@@AAEEPAFJJ@Z 0040b2d9 f   v5subs:dbsubs.obj
 0001:0000a3c1       ?create@DB_TABLE@@QAEEAAVSTRING_CLASS@@@Z 0040b3c1 f i v5subs:dbsubs.obj
 0001:0000a3db       ?create@DB_TABLE@@QAEEPA_W@Z 0040b3db f   v5subs:dbsubs.obj
 0001:0000a43b       ?determine_column_info@DB_TABLE@@QAEHXZ 0040b43b f   v5subs:dbsubs.obj
 0001:0000a61c       ?ensure_existance@DB_TABLE@@QAEEAAVSTRING_CLASS@@@Z 0040b61c f   v5subs:dbsubs.obj
 0001:0000a685       ?fill_searchbuf@DB_TABLE@@AAEEF@Z 0040b685 f   v5subs:dbsubs.obj
 0001:0000a6de       ?get_alpha@DB_TABLE@@QAEEPA_WGF@Z 0040b6de f   v5subs:dbsubs.obj
 0001:0000a6f4       ?get_alpha@DB_TABLE@@QAEEPA_WGFG@Z 0040b6f4 f   v5subs:dbsubs.obj
 0001:0000a75f       ?get_double@DB_TABLE@@QAENG@Z 0040b75f f   v5subs:dbsubs.obj
 0001:0000a79e       ?get_long@DB_TABLE@@QAEJG@Z 0040b79e f   v5subs:dbsubs.obj
 0001:0000a7ca       ?get_next_key_match@DB_TABLE@@QAEEFE@Z 0040b7ca f   v5subs:dbsubs.obj
 0001:0000a837       ?get_next_record@DB_TABLE@@QAEEE@Z 0040b837 f   v5subs:dbsubs.obj
 0001:0000a885       ?get_rec@DB_TABLE@@QAEEXZ  0040b885 f   v5subs:dbsubs.obj
 0001:0000a8d1       ?goto_first_key_record@DB_TABLE@@AAEEF@Z 0040b8d1 f   v5subs:dbsubs.obj
 0001:0000a8ec       ?goto_key_record@DB_TABLE@@AAEEFJJ@Z 0040b8ec f   v5subs:dbsubs.obj
 0001:0000aa18       ?goto_record_number@DB_TABLE@@QAEEJ@Z 0040ba18 f   v5subs:dbsubs.obj
 0001:0000aaad       ?initbuf@DB_TABLE@@AAEEPAPA_WPAFF@Z 0040baad f   v5subs:dbsubs.obj
 0001:0000ab45       ?lock_record@DB_TABLE@@QAEEXZ 0040bb45 f   v5subs:dbsubs.obj
 0001:0000abc6       ?nof_recs@DB_TABLE@@QAEKXZ 0040bbc6 f   v5subs:dbsubs.obj
 0001:0000abf0       ?open@DB_TABLE@@QAEEPA_WFF@Z 0040bbf0 f   v5subs:dbsubs.obj
 0001:0000ac06       ?open@DB_TABLE@@QAEEPA_WFFF@Z 0040bc06 f   v5subs:dbsubs.obj
 0001:0000ade5       ?point_to_start_of_field@DB_TABLE@@AAEPA_WG@Z 0040bde5 f   v5subs:dbsubs.obj
 0001:0000ae04       ?post_error@@YAXPA_W0@Z    0040be04 f   v5subs:dbsubs.obj
 0001:0000ae17       ?post_error@@YAXPA_W@Z     0040be17 f   v5subs:dbsubs.obj
 0001:0000ae2b       ?put_alpha@DB_TABLE@@QAEEGPB_WF@Z 0040be2b f   v5subs:dbsubs.obj
 0001:0000ae77       ?put_long@DB_TABLE@@QAEEGJF@Z 0040be77 f   v5subs:dbsubs.obj
 0001:0000aeb7       ?restore_from_searchbuf@DB_TABLE@@AAEXXZ 0040beb7 f   v5subs:dbsubs.obj
 0001:0000af06       ?unlock_record@DB_TABLE@@QAEEXZ 0040bf06 f   v5subs:dbsubs.obj
 0001:0000af4b       ?copy_all_files@@YAEPA_W00EPAUHWND__@@H@Z 0040bf4b f   v5subs:callfile.obj
 0001:0000b102       ??0MULTISTRING_CLASS@@QAE@XZ 0040c102 f   v5subs:multistring.obj
 0001:0000b11a       ??1MULTISTRING_CLASS@@QAE@XZ 0040c11a f   v5subs:multistring.obj
 0001:0000b12a       ??AMULTISTRING_CLASS@@QAEAAV0@H@Z 0040c12a f   v5subs:multistring.obj
 0001:0000b13c       ??_ESTRING_CLASS@@QAEPAXI@Z 0040c13c f i v5subs:multistring.obj
 0001:0000b18c       ?empty_array@MULTISTRING_CLASS@@QAE_NXZ 0040c18c f   v5subs:multistring.obj
 0001:0000b1ae       ?find@MULTISTRING_CLASS@@QAEHAAVSTRING_CLASS@@@Z 0040c1ae f   v5subs:multistring.obj
 0001:0000b1de       ?goto_index@MULTISTRING_CLASS@@QAE_NH@Z 0040c1de f   v5subs:multistring.obj
 0001:0000b21e       ?next@MULTISTRING_CLASS@@QAE_NXZ 0040c21e f   v5subs:multistring.obj
 0001:0000b25c       ?rewind@MULTISTRING_CLASS@@QAE_NXZ 0040c25c f   v5subs:multistring.obj
 0001:0000b27a       ?split@MULTISTRING_CLASS@@QAE_N_W@Z 0040c27a f   v5subs:multistring.obj
 0001:0000b334       ??0MACHINE_NAME_LIST_CLASS@@QAE@XZ 0040c334 f   v5subs:machname.obj
 0001:0000b334       ??0TEXT_LIST_CLASS@@QAE@XZ 0040c334 f   v5subs:textlist.obj
 0001:0000b344       ??1TEXT_LIST_CLASS@@QAE@XZ 0040c344 f   v5subs:textlist.obj
 0001:0000b355       ?append@TEXT_LIST_CLASS@@QAEEPA_WJ@Z 0040c355 f   v5subs:textlist.obj
 0001:0000b3cc       ?empty@TEXT_LIST_CLASS@@QAEXXZ 0040c3cc f   v5subs:textlist.obj
 0001:0000b3f6       ?get_directory_list@TEXT_LIST_CLASS@@QAEXPB_W@Z 0040c3f6 f   v5subs:textlist.obj
 0001:0000b4ac       ?remove@TEXT_LIST_CLASS@@QAEEXZ 0040c4ac f   v5subs:textlist.obj
 0001:0000b4cf       ?get_partlist@@YAEAAVTEXT_LIST_CLASS@@AAVSTRING_CLASS@@1@Z 0040c4cf f   v5subs:partlist.obj
 0001:0000b57e       ??0WIRE_CLASS@@QAE@XZ      0040c57e f   v5subs:wire_class.obj
 0001:0000b5ef       ??0WIRE_NAME_ENTRY@@QAE@XZ 0040c5ef f   v5subs:wire_class.obj
 0001:0000b60f       ??1WIRE_CLASS@@QAE@XZ      0040c60f f   v5subs:wire_class.obj
 0001:0000b62a       ??1WIRE_NAME_ENTRY@@QAE@XZ 0040c62a f   v5subs:wire_class.obj
 0001:0000b645       ?wirebit@WIRE_CLASS@@QAEIH@Z 0040c645 f   v5subs:wire_class.obj
 0001:0000b65a       ?dups_to_vu@@YANFF@Z       0040c65a f   v5subs:unitadj.obj
 0001:0000b6d1       ?get@TIME_CLASS@@QAEEAAU_SYSTEMTIME@@@Z 0040c6d1 f   v5subs:timeclas.obj
 0001:0000b7cc       ?get_local_time@TIME_CLASS@@QAEXXZ 0040c7cc f   v5subs:timeclas.obj
 0001:0000b803       ?hhmmss@TIME_CLASS@@QAEPA_WXZ 0040c803 f   v5subs:timeclas.obj
 0001:0000b8a8       ?mmddyyyy@TIME_CLASS@@QAEPA_WXZ 0040c8a8 f   v5subs:timeclas.obj
 0001:0000b8f1       ?set@TIME_CLASS@@QAEEABU_SYSTEMTIME@@@Z 0040c8f1 f   v5subs:timeclas.obj
 0001:0000b992       ?system_time@TIME_CLASS@@QAEAAU_SYSTEMTIME@@XZ 0040c992 f   v5subs:timeclas.obj
 0001:0000b9a2       ?insalph@@YAXPA_WJJ_WJ@Z   0040c9a2 f   v5subs:insalph.obj
 0001:0000b9f3       ?part_exists@@YAEAAVSTRING_CLASS@@00@Z 0040c9f3 f   v5subs:pexists.obj
 0001:0000ba3c       ?hextoul@@YAKPB_W@Z        0040ca3c f   v5subs:hex.obj
 0001:0000bab3       ?is_hex_char@@YAE_W@Z      0040cab3 f   v5subs:hex.obj
 0001:0000bad3       ?alphadate@@YAEPA_WABU_SYSTEMTIME@@@Z 0040cad3 f   v5subs:time.obj
 0001:0000bb34       ?alphadate@@YAPA_WABU_SYSTEMTIME@@@Z 0040cb34 f   v5subs:time.obj
 0001:0000bb4a       ?alphatime@@YAEPA_WABU_SYSTEMTIME@@@Z 0040cb4a f   v5subs:time.obj
 0001:0000bbac       ?alphatime@@YAPA_WABU_SYSTEMTIME@@@Z 0040cbac f   v5subs:time.obj
 0001:0000bbc2       ?is_numeric@@YAE_W@Z       0040cbc2 f   v5subs:time.obj
 0001:0000bbe3       ?rjust@@YAXPA_WF_W@Z       0040cbe3 f   v5subs:rjust.obj
 0001:0000bc2a       ??1INT_ARRAY_CLASS@@QAE@XZ 0040cc2a f   v5subs:array.obj
 0001:0000bc2f       ??AINT_ARRAY_CLASS@@QAEAAHH@Z 0040cc2f f   v5subs:array.obj
 0001:0000bca6       ?cleanup@INT_ARRAY_CLASS@@QAEXXZ 0040cca6 f   v5subs:array.obj
 0001:0000bcbf       ?day_of_the_week@@YAHHHH@Z 0040ccbf f   v5subs:dow.obj
 0001:0000bd1a       ___onexitinit              0040cd1a f   LIBCMT:onexit.obj
 0001:0000bd49       __onexit                   0040cd49 f   LIBCMT:onexit.obj
 0001:0000be45       _atexit                    0040ce45 f   LIBCMT:onexit.obj
 0001:0000be5a       @__security_check_cookie@4 0040ce5a f   LIBCMT:secchk.obj
 0001:0000be69       ??0bad_alloc@std@@QAE@ABV01@@Z 0040ce69 f i LIBCMT:new.obj
 0001:0000be84       ??1bad_alloc@std@@UAE@XZ   0040ce84 f i LIBCMT:new.obj
 0001:0000be8f       ??2@YAPAXI@Z               0040ce8f f   LIBCMT:new.obj
 0001:0000bee0       ??_Ebad_alloc@std@@UAEPAXI@Z 0040cee0 f i LIBCMT:new.obj
 0001:0000bee0       ??_Gbad_alloc@std@@UAEPAXI@Z 0040cee0 f i LIBCMT:new.obj
 0001:0000bf05       ??3@YAXPAX@Z               0040cf05 f   LIBCMT:delete.obj
 0001:0000bf0a       ??1type_info@@UAE@XZ       0040cf0a f   LIBCMT:typinfo.obj
 0001:0000bf18       ??_Gtype_info@@UAEPAXI@Z   0040cf18 f i LIBCMT:typinfo.obj
 0001:0000bf18       ??_Etype_info@@UAEPAXI@Z   0040cf18 f i LIBCMT:typinfo.obj
 0001:0000bf37       _WinMainCRTStartup         0040cf37 f   LIBCMT:wincrt0.obj
 0001:0000c0c0       _memset                    0040d0c0 f   LIBCMT:memset.obj
 0001:0000c150       __fpmath                   0040d150 f   LIBCMT:fpinit.obj
 0001:0000c167       __cfltcvt_init             0040d167 f   LIBCMT:fpinit.obj
 0001:0000c1c7       ??0_LocaleUpdate@@QAE@PAUlocaleinfo_struct@@@Z 0040d1c7 f i LIBCMT:strtol.obj
 0001:0000c475       _strtol                    0040d475 f   LIBCMT:strtol.obj
 0001:0000c49f       _strtoul                   0040d49f f   LIBCMT:strtol.obj
 0001:0000c4c9       ___raise_securityfailure   0040d4c9 f   LIBCMT:gs_report.obj
 0001:0000c506       ___report_gsfailure        0040d506 f   LIBCMT:gs_report.obj
 0001:0000c601       ___report_rangecheckfailure 0040d601 f   LIBCMT:gs_report.obj
 0001:0000c60d       ___report_securityfailure  0040d60d f   LIBCMT:gs_report.obj
 0001:0000c6e0       __aulldiv                  0040d6e0 f   LIBCMT:ulldiv.obj
 0001:0000c750       _memcpy                    0040d750 f   LIBCMT:memcpy.obj
 0001:0000cda0       __chkstk                   0040dda0 f   LIBCMT:chkstk.obj
 0001:0000cda0       __alloca_probe             0040dda0 f   LIBCMT:chkstk.obj
 0001:0000cdd0       __ftol2_sse                0040ddd0 f   LIBCMT:ftol2.obj
 0001:0000cdd9       __ftol2_pentium4           0040ddd9 f   LIBCMT:ftol2.obj
 0001:0000cdec       __ftol2_sse_excpt          0040ddec f   LIBCMT:ftol2.obj
 0001:0000ce06       __ftol2                    0040de06 f   LIBCMT:ftol2.obj
 0001:0000ce7b       __strtod_l                 0040de7b f   LIBCMT:strtod.obj
 0001:0000cf92       _strtod                    0040df92 f   LIBCMT:strtod.obj
 0001:0000cfb0       _memmove                   0040dfb0 f   LIBCMT:memmove.obj
 0001:0000d600       _floor                     0040e600 f   LIBCMT:floor_pentium4.obj
 0001:0000d640       __floor_pentium4           0040e640 f   LIBCMT:floor_pentium4.obj
 0001:0000d721       ___crtCorExitProcess       0040e721 f   LIBCMT:crt0dat.obj
 0001:0000d755       ___crtExitProcess          0040e755 f   LIBCMT:crt0dat.obj
 0001:0000d76b       __amsg_exit                0040e76b f   LIBCMT:crt0dat.obj
 0001:0000d787       __c_exit                   0040e787 f   LIBCMT:crt0dat.obj
 0001:0000d796       __cexit                    0040e796 f   LIBCMT:crt0dat.obj
 0001:0000d7a5       __cinit                    0040e7a5 f   LIBCMT:crt0dat.obj
 0001:0000d829       __exit                     0040e829 f   LIBCMT:crt0dat.obj
 0001:0000d83d       __init_pointers            0040e83d f   LIBCMT:crt0dat.obj
 0001:0000d8ab       __initterm_e               0040e8ab f   LIBCMT:crt0dat.obj
 0001:0000d8cd       __lockexit                 0040e8cd f   LIBCMT:crt0dat.obj
 0001:0000d8d6       __unlockexit               0040e8d6 f   LIBCMT:crt0dat.obj
 0001:0000da0e       _exit                      0040ea0e f   LIBCMT:crt0dat.obj
 0001:0000da22       __msize                    0040ea22 f   LIBCMT:msize.obj
 0001:0000da53       __calloc_crt               0040ea53 f   LIBCMT:crtheap.obj
 0001:0000da9b       __malloc_crt               0040ea9b f   LIBCMT:crtheap.obj
 0001:0000dae2       __realloc_crt              0040eae2 f   LIBCMT:crtheap.obj
 0001:0000db30       __SEH_prolog4              0040eb30 f   LIBCMT:sehprolg4.obj
 0001:0000db75       __SEH_epilog4              0040eb75 f   LIBCMT:sehprolg4.obj
 0001:0000db90       __except_handler4          0040eb90 f   LIBCMT:chandler4.obj
 0001:0000dd24       _malloc                    0040ed24 f   LIBCMT:malloc.obj
 0001:0000ddb6       ??0exception@std@@QAE@ABQBDH@Z 0040edb6 f   LIBCMT:stdexcpt.obj
 0001:0000ddd1       ??0exception@std@@QAE@ABV01@@Z 0040edd1 f   LIBCMT:stdexcpt.obj
 0001:0000ddf4       ??1exception@std@@UAE@XZ   0040edf4 f   LIBCMT:stdexcpt.obj
 0001:0000ddff       ??4exception@std@@QAEAAV01@ABV01@@Z 0040edff f   LIBCMT:stdexcpt.obj
 0001:0000de32       ??_Gexception@std@@UAEPAXI@Z 0040ee32 f i LIBCMT:stdexcpt.obj
 0001:0000de32       ??_Eexception@std@@UAEPAXI@Z 0040ee32 f i LIBCMT:stdexcpt.obj
 0001:0000de57       ?_Copy_str@exception@std@@AAEXPBD@Z 0040ee57 f   LIBCMT:stdexcpt.obj
 0001:0000de95       ?_Tidy@exception@std@@AAEXXZ 0040ee95 f   LIBCMT:stdexcpt.obj
 0001:0000deb1       ?what@exception@std@@UBEPBDXZ 0040eeb1 f   LIBCMT:stdexcpt.obj
 0001:0000debe       __callnewh                 0040eebe f   LIBCMT:handler.obj
 0001:0000dee4       __initp_heap_handler       0040eee4 f   LIBCMT:handler.obj
 0001:0000def1       __CxxThrowException@8      0040eef1 f   LIBCMT:throw.obj
 0001:0000df54       _free                      0040ef54 f   LIBCMT:free.obj
 0001:0000df90       _strcmp                    0040ef90 f   LIBCMT:strcmp.obj
 0001:0000e01c       ?_Type_info_dtor@type_info@@CAXPAV1@@Z 0040f01c f   LIBCMT:typname.obj
 0001:0000e08d       ?__CxxUnhandledExceptionFilter@@YGJPAU_EXCEPTION_POINTERS@@@Z 0040f08d f   LIBCMT:unhandld.obj
 0001:0000e0ce       ___CxxSetUnhandledExceptionFilter 0040f0ce f   LIBCMT:unhandld.obj
 0001:0000e0dc       __XcptFilter               0040f0dc f   LIBCMT:winxfltr.obj
 0001:0000e237       __freefls@4                0040f237 f   LIBCMT:tidtable.obj
 0001:0000e36c       __getptd                   0040f36c f   LIBCMT:tidtable.obj
 0001:0000e384       __getptd_noexit            0040f384 f   LIBCMT:tidtable.obj
 0001:0000e3f3       __initptd                  0040f3f3 f   LIBCMT:tidtable.obj
 0001:0000e4a6       __mtinit                   0040f4a6 f   LIBCMT:tidtable.obj
 0001:0000e51c       __mtterm                   0040f51c f   LIBCMT:tidtable.obj
 0001:0000e539       __heap_init                0040f539 f   LIBCMT:heapinit.obj
 0001:0000e54e       __ioinit                   0040f54e f   LIBCMT:ioinit.obj
 0001:0000e802       __setargv                  0040f802 f   LIBCMT:stdargv.obj
 0001:0000ea31       __setenvp                  0040fa31 f   LIBCMT:stdenvp.obj
 0001:0000eb12       __FF_MSGBANNER             0040fb12 f   LIBCMT:crt0msg.obj
 0001:0000eb4b       __GET_RTERRMSG             0040fb4b f   LIBCMT:crt0msg.obj
 0001:0000eb6f       __NMSG_WRITE               0040fb6f f   LIBCMT:crt0msg.obj
 0001:0000ed2c       ___set_app_type            0040fd2c f   LIBCMT:errmode.obj
 0001:0000ed39       __set_error_mode           0040fd39 f   LIBCMT:errmode.obj
 0001:0000ed79       ___security_init_cookie    0040fd79 f   LIBCMT:gs_support.obj
 0001:0000ee15       __RTC_Initialize           0040fe15 f   LIBCMT:initsect.obj
 0001:0000ee35       __RTC_Terminate            0040fe35 f   LIBCMT:initsect.obj
 0001:0000ee55       ___crtGetEnvironmentStringsA 0040fe55 f   LIBCMT:a_env.obj
 0001:0000eee2       ___crtFlsAlloc             0040fee2 f   LIBCMT:winapisupp.obj
 0001:0000ef00       ___crtFlsFree              0040ff00 f   LIBCMT:winapisupp.obj
 0001:0000ef1f       ___crtFlsGetValue          0040ff1f f   LIBCMT:winapisupp.obj
 0001:0000ef3e       ___crtFlsSetValue          0040ff3e f   LIBCMT:winapisupp.obj
 0001:0000ef60       ___crtGetShowWindowMode    0040ff60 f   LIBCMT:winapisupp.obj
 0001:0000ef83       ___crtInitializeCriticalSectionEx 0040ff83 f   LIBCMT:winapisupp.obj
 0001:0000efb1       ___crtIsPackagedApp        0040ffb1 f   LIBCMT:winapisupp.obj
 0001:0000eff1       ___crtLoadWinApiPointers   0040fff1 f   LIBCMT:winapisupp.obj
 0001:0000f27c       ___crtSetUnhandledExceptionFilter 0041027c f   LIBCMT:winapisupp.obj
 0001:0000f28a       ___crtSleep                0041028a f   LIBCMT:winapisupp.obj
 0001:0000f298       ___crtTerminateProcess     00410298 f   LIBCMT:winapisupp.obj
 0001:0000f2ad       ___crtUnhandledException   004102ad f   LIBCMT:winapisupp.obj
 0001:0000f2c3       __wincmdln                 004102c3 f   LIBCMT:wincmdln.obj
 0001:0000f322       __VEC_memset               00410322 f   LIBCMT:p4_memset.obj
 0001:0000f3ea       ___isa_available_init      004103ea f   LIBCMT:cpu_disp.obj
 0001:0000f563       __cfltcvt                  00410563 f   LIBCMT:cvt.obj
 0001:0000f584       __cfltcvt_l                00410584 f   LIBCMT:cvt.obj
 0001:0000f60a       __cftoa_l                  0041060a f   LIBCMT:cvt.obj
 0001:0000f966       __cftoe                    00410966 f   LIBCMT:cvt.obj
 0001:0000fad5       __cftoe_l                  00410ad5 f   LIBCMT:cvt.obj
 0001:0000fc8f       __cftof_l                  00410c8f f   LIBCMT:cvt.obj
 0001:0000fd50       __cftog_l                  00410d50 f   LIBCMT:cvt.obj
 0001:0000fe4f       __cropzeros                00410e4f f   LIBCMT:cvt.obj
 0001:0000fe60       __cropzeros_l              00410e60 f   LIBCMT:cvt.obj
 0001:0000fee0       __fassign                  00410ee0 f   LIBCMT:cvt.obj
 0001:0000fef8       __fassign_l                00410ef8 f   LIBCMT:cvt.obj
 0001:0000ff3a       __forcdecpt                00410f3a f   LIBCMT:cvt.obj
 0001:0000ff4b       __forcdecpt_l              00410f4b f   LIBCMT:cvt.obj
 0001:0000ffbf       __positive                 00410fbf f   LIBCMT:cvt.obj
 0001:00010001       __setdefaultprecision      00411001 f   LIBCMT:fp8.obj
 0001:00010028       __initp_misc_cfltcvt_tab   00411028 f   LIBCMT:cmiscdat.obj
 0001:00010047       __call_reportfault         00411047 f   LIBCMT:invarg.obj
 0001:0001016c       __initp_misc_invarg        0041116c f   LIBCMT:invarg.obj
 0001:00010179       __invalid_parameter        00411179 f   LIBCMT:invarg.obj
 0001:000101a4       __invalid_parameter_noinfo 004111a4 f   LIBCMT:invarg.obj
 0001:000101b4       __invoke_watson            004111b4 f   LIBCMT:invarg.obj
 0001:000101df       ___doserrno                004111df f   LIBCMT:dosmap.obj
 0001:000101f2       __dosmaperr                004111f2 f   LIBCMT:dosmap.obj
 0001:00010213       __errno                    00411213 f   LIBCMT:dosmap.obj
 0001:00010226       __get_errno_from_oserr     00411226 f   LIBCMT:dosmap.obj
 0001:00010267       ___addlocaleref            00411267 f   LIBCMT:localref.obj
 0001:000102fc       ___freetlocinfo            004112fc f   LIBCMT:localref.obj
 0001:00010456       ___removelocaleref         00411456 f   LIBCMT:localref.obj
 0001:000104f6       ___updatetlocinfo          004114f6 f   LIBCMT:localref.obj
 0001:00010576       __updatetlocinfoEx_nolock  00411576 f   LIBCMT:localref.obj
 0001:000105c1       ___initmbctable            004115c1 f   LIBCMT:mbctype.obj
 0001:00010878       ___updatetmbcinfo          00411878 f   LIBCMT:mbctype.obj
 0001:0001091e       __setmbcp                  0041191e f   LIBCMT:mbctype.obj
 0001:00010ac6       __setmbcp_nolock           00411ac6 f   LIBCMT:mbctype.obj
 0001:00010cb1       __isctype_l                00411cb1 f   LIBCMT:isctype.obj
 0001:00010d62       __locterm                  00411d62 f   LIBCMT:wsetloca.obj
 0001:00010db4       __crt_debugger_hook        00411db4 f   LIBCMT:dbghook.obj
 0001:00010dbc       __fltin2                   00411dbc f   LIBCMT:cfin.obj
 0001:00010e70       __fptostr                  00411e70 f   LIBCMT:_fptostr.obj
 0001:00010f20       ___dtold                   00411f20 f   LIBCMT:cfout.obj
 0001:00010fe8       __fltout2                  00411fe8 f   LIBCMT:cfout.obj
 0001:00011076       ___libm_error_support      00412076 f   LIBCMT:libm_error.obj
 0001:0001135e       __sse2_mathfcns_init       0041235e f   LIBCMT:mathfcns.obj
 0001:0001136d       __floor_default            0041236d f   LIBCMT:floor.obj
 0001:00011444       __lock                     00412444 f   LIBCMT:mlock.obj
 0001:00011478       __mtdeletelocks            00412478 f   LIBCMT:mlock.obj
 0001:000114cc       __mtinitlocknum            004124cc f   LIBCMT:mlock.obj
 0001:00011575       __mtinitlocks              00412575 f   LIBCMT:mlock.obj
 0001:000115ae       __unlock                   004125ae f   LIBCMT:mlock.obj
 0001:000115d0       __FindPESection            004125d0 f   LIBCMT:pesect.obj
 0001:00011620       __IsNonwritableInCurrentImage 00412620 f   LIBCMT:pesect.obj
 0001:000116e0       __ValidateImageBase        004126e0 f   LIBCMT:pesect.obj
 0001:00011711       ?terminate@@YAXXZ          00412711 f   LIBCMT:hooks.obj
 0001:00011745       __initp_eh_hooks           00412745 f   LIBCMT:hooks.obj
 0001:00011756       __initp_misc_purevirt      00412756 f   LIBCMT:inithelp.obj
 0001:00011763       ___get_sigabrt             00412763 f   LIBCMT:winsig.obj
 0001:00011770       __initp_misc_winsig        00412770 f   LIBCMT:winsig.obj
 0001:0001178c       _raise                     0041278c f   LIBCMT:winsig.obj
 0001:00011981       __initp_misc_rand_s        00412981 f   LIBCMT:rand_s.obj
 0001:0001198e       _realloc                   0041298e f   LIBCMT:realloc.obj
 0001:00011a39       __calloc_impl              00412a39 f   LIBCMT:calloc_impl.obj
 0001:00011ac0       __local_unwind4            00412ac0 f   LIBCMT:exsup4.obj
 0001:00011b96       __seh_longjmp_unwind4@4    00412b96 f   LIBCMT:exsup4.obj
 0001:00011bb2       @_EH4_CallFilterFunc@8     00412bb2 f   LIBCMT:exsup4.obj
 0001:00011bc9       @_EH4_TransferToHandler@8  00412bc9 f   LIBCMT:exsup4.obj
 0001:00011be2       @_EH4_GlobalUnwind2@8      00412be2 f   LIBCMT:exsup4.obj
 0001:00011bfb       @_EH4_LocalUnwind@16       00412bfb f   LIBCMT:exsup4.obj
 0001:00011c12       _strcpy_s                  00412c12 f   LIBCMT:strcpy_s.obj
 0001:00011c70       _strlen                    00412c70 f   LIBCMT:strlen.obj
 0001:00011cfb       ___initstdio               00412cfb f   LIBCMT:_file.obj
 0001:00011d6e       ___endstdio                00412d6e f   LIBCMT:_file.obj
 0001:00011d95       __lock_file                00412d95 f   LIBCMT:_file.obj
 0001:00011dd4       __lock_file2               00412dd4 f   LIBCMT:_file.obj
 0001:00011e04       __unlock_file              00412e04 f   LIBCMT:_file.obj
 0001:00011e3e       __unlock_file2             00412e3e f   LIBCMT:_file.obj
 0001:00011ec5       __ismbblead                00412ec5 f   LIBCMT:ismbbyte.obj
 0001:00011edb       _wcscat_s                  00412edb f   LIBCMT:wcscat_s.obj
 0001:00011f47       _wcscpy_s                  00412f47 f   LIBCMT:wcscpy_s.obj
 0001:00011fa3       _wcslen                    00412fa3 f   LIBCMT:wcslen.obj
 0001:00011fbc       _wcsncpy_s                 00412fbc f   LIBCMT:wcsncpy_s.obj
 0001:0001207a       ___crtMessageBoxW          0041307a f   LIBCMT:crtmboxw.obj
 0001:00012260       __isdigit_l                00413260 f i LIBCMT:_ctype.obj
 0001:000122b2       _isdigit                   004132b2 f i LIBCMT:_ctype.obj
 0001:000122dd       __tolower_l                004132dd f   LIBCMT:tolower.obj
 0001:00012420       _tolower                   00413420 f   LIBCMT:tolower.obj
 0001:00012450       _strrchr                   00413450 f   LIBCMT:strrchr.obj
 0001:00012587       ___crt_atoflt_l            00413587 f   LIBCMT:atodbl.obj
 0001:0001262b       __atodbl_l                 0041362b f   LIBCMT:atodbl.obj
 0001:000126b9       __atoflt_l                 004136b9 f   LIBCMT:atodbl.obj
 0001:000126e0       __alldvrm                  004136e0 f   LIBCMT:lldvrm.obj
 0001:000127c0       __aullshr                  004137c0 f   LIBCMT:ullshr.obj
 0001:000127df       __controlfp_s              004137df f   LIBCMT:contrlfp.obj
 0001:0001283c       __fptrap                   0041383c f   LIBCMT:crt0fp.obj
 0001:00012845       ___free_lconv_mon          00413845 f   LIBCMT:initmon.obj
 0001:00012941       ___free_lconv_num          00413941 f   LIBCMT:initnum.obj
 0001:000129a8       ___free_lc_time            004139a8 f   LIBCMT:inittime.obj
 0001:00012f2c       ___crtLCMapStringA         00413f2c f   LIBCMT:a_map.obj
 0001:00012f72       __freea                    00413f72 f i LIBCMT:a_map.obj
 0001:00013088       ___crtGetStringTypeA       00414088 f   LIBCMT:a_str.obj
 0001:000130c8       __isleadbyte_l             004140c8 f i LIBCMT:_wctype.obj
 0001:00013102       _isleadbyte                00414102 f i LIBCMT:_wctype.obj
 0001:00013113       _GetTableIndexFromLocaleName 00414113 f   LIBCMT:winapinls.obj
 0001:00013161       ___crtDownlevelLocaleNameToLCID 00414161 f   LIBCMT:winapinls.obj
 0001:0001318b       ___crtLCMapStringEx        0041418b f   LIBCMT:winapinls.obj
 0001:000131d7       ___wcsnicmp_ascii          004141d7 f   LIBCMT:winapinls.obj
 0001:00013245       __ld12tod                  00414245 f   LIBCMT:intrncvt.obj
 0001:000137b7       __ld12tof                  004147b7 f   LIBCMT:intrncvt.obj
 0001:00013d29       ___strgtold12_l            00414d29 f   LIBCMT:strgtold.obj
 0001:000144d1       _$I10_OUTPUT               004154d1 f   LIBCMT:x10fout.obj
 0001:00014ea5       __matherr                  00415ea5 f   LIBCMT:matherr.obj
 0001:00014ea8       __frnd                     00415ea8 f   LIBCMT:frnd.obj
 0001:00014ebc       __errcode                  00415ebc f   LIBCMT:fpexcept.obj
 0001:00014eee       __except1                  00415eee f   LIBCMT:fpexcept.obj
 0001:00014fb6       __handle_exc               00415fb6 f   LIBCMT:fpexcept.obj
 0001:00015194       __handle_qnan1             00416194 f   LIBCMT:fpexcept.obj
 0001:000151e4       __raise_exc_ex             004161e4 f   LIBCMT:fpexcept.obj
 0001:000154c9       __set_errno_from_matherr   004164c9 f   LIBCMT:fpexcept.obj
 0001:000154f6       __umatherr                 004164f6 f   LIBCMT:fpexcept.obj
 0001:00015596       __decomp                   00416596 f   LIBCMT:util.obj
 0001:00015668       __set_exp                  00416668 f   LIBCMT:util.obj
 0001:00015697       __sptype                   00416697 f   LIBCMT:util.obj
 0001:000156f2       ___set_fpsr_sse2           004166f2 f   LIBCMT:fpctrl.obj
 0001:00015768       __clrfp                    00416768 f   LIBCMT:fpctrl.obj
 0001:00015779       __ctrlfp                   00416779 f   LIBCMT:fpctrl.obj
 0001:000157a4       __set_statfp               004167a4 f   LIBCMT:fpctrl.obj
 0001:000157fc       __statfp                   004167fc f   LIBCMT:fpctrl.obj
 0001:0001580c       _abort                     0041680c f   LIBCMT:abort.obj
 0001:0001584f       __fileno                   0041684f f   LIBCMT:fileno.obj
 0001:00015873       __isatty                   00416873 f   LIBCMT:isatty.obj
 0001:000158c7       __fflush_nolock            004168c7 f   LIBCMT:fflush.obj
 0001:0001590d       __flush                    0041690d f   LIBCMT:fflush.obj
 0001:00015971       __flushall                 00416971 f   LIBCMT:fflush.obj
 0001:00015a60       __global_unwind2           00416a60 f   LIBCMT:exsup.obj
 0001:00015ac5       __local_unwind2            00416ac5 f   LIBCMT:exsup.obj
 0001:00015b49       __abnormal_termination     00416b49 f   LIBCMT:exsup.obj
 0001:00015b6c       __NLG_Notify1              00416b6c f   LIBCMT:exsup.obj
 0001:00015b75       __NLG_Notify               00416b75 f   LIBCMT:exsup.obj
 0001:00015b8c       __NLG_Dispatch             00416b8c     LIBCMT:exsup.obj
 0001:00015b8c       __NLG_Dispatch2            00416b8c     LIBCMT:exsup.obj
 0001:00015b94       __NLG_Call                 00416b94 f   LIBCMT:exsup.obj
 0001:00015b96       __NLG_Return2              00416b96     LIBCMT:exsup.obj
 0001:00015ba0       __aulldvrm                 00416ba0 f   LIBCMT:ulldvrm.obj
 0001:00015c35       __fcloseall                00416c35 f   LIBCMT:closeall.obj
 0001:00015d7b       __control87                00416d7b f i LIBCMT:ieee87.obj
 0001:00016120       __alloca_probe_16          00417120 f   LIBCMT:alloca16.obj
 0001:00016136       __alloca_probe_8           00417136     LIBCMT:alloca16.obj
 0001:0001614c       ___mtold12                 0041714c f   LIBCMT:mantold.obj
 0001:0001632c       __commit                   0041732c f   LIBCMT:commit.obj
 0001:00016415       __write                    00417415 f   LIBCMT:write.obj
 0001:00016504       __write_nolock             00417504 f   LIBCMT:write.obj
 0001:00016d69       __fclose_nolock            00417d69 f   LIBCMT:fclose.obj
 0001:00016dd5       _fclose                    00417dd5 f   LIBCMT:fclose.obj
 0001:00016e4c       ___lock_fhandle            00417e4c f   LIBCMT:osfinfo.obj
 0001:00016eda       __free_osfhnd              00417eda f   LIBCMT:osfinfo.obj
 0001:00016f60       __get_osfhandle            00417f60 f   LIBCMT:osfinfo.obj
 0001:00016fc7       __unlock_fhandle           00417fc7 f   LIBCMT:osfinfo.obj
 0001:00016fed       __lseeki64_nolock          00417fed f   LIBCMT:lseeki64.obj
 0001:00017060       __mbtowc_l                 00418060 f   LIBCMT:mbtowc.obj
 0001:00017155       _mbtowc                    00418155 f   LIBCMT:mbtowc.obj
 0001:0001716d       __putwch_nolock            0041816d f   LIBCMT:putwch.obj
 0001:000171b0       __allmul                   004181b0 f   LIBCMT:llmul.obj
 0001:000171e4       __close                    004181e4 f   LIBCMT:close.obj
 0001:000172bf       __close_nolock             004182bf f   LIBCMT:close.obj
 0001:00017359       __freebuf                  00418359 f   LIBCMT:_freebuf.obj
 0001:00017389       ___termconout              00418389 f   LIBCMT:initcon.obj
 0001:000173a0       ___initconout              004183a0 f   LIBCMT:initcon.obj
 0001:000173c0       _IsProcessorFeaturePresent@4 004183c0 f   kernel32:KERNEL32.dll
 0001:000173c6       _RtlUnwind@16              004183c6 f   kernel32:KERNEL32.dll
 0001:000173cc       _DdeInitializeW@16         004183cc f   user32:USER32.dll
 0001:000173d2       _DdeUninitialize@4         004183d2 f   user32:USER32.dll
 0001:000173d8       _DdeConnect@16             004183d8 f   user32:USER32.dll
 0001:000173de       _DdeDisconnect@4           004183de f   user32:USER32.dll
 0001:000173e4       _DdeClientTransaction@32   004183e4 f   user32:USER32.dll
 0001:000173ea       _DdeCreateStringHandleW@12 004183ea f   user32:USER32.dll
 0001:000173f0       _DdeFreeStringHandle@8     004183f0 f   user32:USER32.dll
 0001:000173f6       _DdeCmpStringHandles@8     004183f6 f   user32:USER32.dll
 0002:00000000       __imp__GetStockObject@4    00419000     gdi32:GDI32.dll
 0002:00000004       __imp__DeleteObject@4      00419004     gdi32:GDI32.dll
 0002:00000008       __imp__CreateFontIndirectW@4 00419008     gdi32:GDI32.dll
 0002:0000000c       \177GDI32_NULL_THUNK_DATA  0041900c     gdi32:GDI32.dll
 0002:00000010       __imp__WriteConsoleW@20    00419010     kernel32:KERNEL32.dll
 0002:00000014       __imp__SetFilePointerEx@20 00419014     kernel32:KERNEL32.dll
 0002:00000018       __imp__SetStdHandle@8      00419018     kernel32:KERNEL32.dll
 0002:0000001c       __imp__GetConsoleMode@8    0041901c     kernel32:KERNEL32.dll
 0002:00000020       __imp__GetConsoleCP@0      00419020     kernel32:KERNEL32.dll
 0002:00000024       __imp__FlushFileBuffers@4  00419024     kernel32:KERNEL32.dll
 0002:00000028       __imp__GetStringTypeW@16   00419028     kernel32:KERNEL32.dll
 0002:0000002c       __imp__OutputDebugStringW@4 0041902c     kernel32:KERNEL32.dll
 0002:00000030       __imp__RtlUnwind@16        00419030     kernel32:KERNEL32.dll
 0002:00000034       __imp__HeapReAlloc@16      00419034     kernel32:KERNEL32.dll
 0002:00000038       __imp__LoadLibraryExW@12   00419038     kernel32:KERNEL32.dll
 0002:0000003c       __imp__LeaveCriticalSection@4 0041903c     kernel32:KERNEL32.dll
 0002:00000040       __imp__EnterCriticalSection@4 00419040     kernel32:KERNEL32.dll
 0002:00000044       __imp__LCMapStringW@24     00419044     kernel32:KERNEL32.dll
 0002:00000048       __imp__CreateProcessW@40   00419048     kernel32:KERNEL32.dll
 0002:0000004c       __imp__lstrcmpiW@8         0041904c     kernel32:KERNEL32.dll
 0002:00000050       __imp__lstrcpyW@8          00419050     kernel32:KERNEL32.dll
 0002:00000054       __imp__lstrcatW@8          00419054     kernel32:KERNEL32.dll
 0002:00000058       __imp__lstrlenW@4          00419058     kernel32:KERNEL32.dll
 0002:0000005c       __imp__CreateFileW@28      0041905c     kernel32:KERNEL32.dll
 0002:00000060       __imp__CloseHandle@4       00419060     kernel32:KERNEL32.dll
 0002:00000064       __imp__CopyFileW@12        00419064     kernel32:KERNEL32.dll
 0002:00000068       __imp__MoveFileW@8         00419068     kernel32:KERNEL32.dll
 0002:0000006c       __imp__lstrcmpW@8          0041906c     kernel32:KERNEL32.dll
 0002:00000070       __imp__lstrcpynW@12        00419070     kernel32:KERNEL32.dll
 0002:00000074       __imp__GetPrivateProfileStringW@24 00419074     kernel32:KERNEL32.dll
 0002:00000078       __imp__WritePrivateProfileStringW@16 00419078     kernel32:KERNEL32.dll
 0002:0000007c       __imp__GetFileSize@8       0041907c     kernel32:KERNEL32.dll
 0002:00000080       __imp__ReadFile@20         00419080     kernel32:KERNEL32.dll
 0002:00000084       __imp__SetFilePointer@16   00419084     kernel32:KERNEL32.dll
 0002:00000088       __imp__WriteFile@20        00419088     kernel32:KERNEL32.dll
 0002:0000008c       __imp__GetLastError@0      0041908c     kernel32:KERNEL32.dll
 0002:00000090       __imp__Sleep@4             00419090     kernel32:KERNEL32.dll
 0002:00000094       __imp__GetComputerNameW@8  00419094     kernel32:KERNEL32.dll
 0002:00000098       __imp__DeleteFileW@4       00419098     kernel32:KERNEL32.dll
 0002:0000009c       __imp__CreateDirectoryW@8  0041909c     kernel32:KERNEL32.dll
 0002:000000a0       __imp__FindClose@4         004190a0     kernel32:KERNEL32.dll
 0002:000000a4       __imp__FindFirstFileW@8    004190a4     kernel32:KERNEL32.dll
 0002:000000a8       __imp__GetDriveTypeW@4     004190a8     kernel32:KERNEL32.dll
 0002:000000ac       __imp__GetFileAttributesW@4 004190ac     kernel32:KERNEL32.dll
 0002:000000b0       __imp__SetErrorMode@4      004190b0     kernel32:KERNEL32.dll
 0002:000000b4       __imp__GetCommandLineW@0   004190b4     kernel32:KERNEL32.dll
 0002:000000b8       __imp__LocalFree@4         004190b8     kernel32:KERNEL32.dll
 0002:000000bc       __imp__LockFile@20         004190bc     kernel32:KERNEL32.dll
 0002:000000c0       __imp__UnlockFile@20       004190c0     kernel32:KERNEL32.dll
 0002:000000c4       __imp__FindNextFileW@8     004190c4     kernel32:KERNEL32.dll
 0002:000000c8       __imp__GetLocalTime@4      004190c8     kernel32:KERNEL32.dll
 0002:000000cc       __imp__EncodePointer@4     004190cc     kernel32:KERNEL32.dll
 0002:000000d0       __imp__DecodePointer@4     004190d0     kernel32:KERNEL32.dll
 0002:000000d4       __imp__GetCommandLineA@0   004190d4     kernel32:KERNEL32.dll
 0002:000000d8       __imp__IsDebuggerPresent@0 004190d8     kernel32:KERNEL32.dll
 0002:000000dc       __imp__IsProcessorFeaturePresent@4 004190dc     kernel32:KERNEL32.dll
 0002:000000e0       __imp__ExitProcess@4       004190e0     kernel32:KERNEL32.dll
 0002:000000e4       __imp__GetModuleHandleExW@12 004190e4     kernel32:KERNEL32.dll
 0002:000000e8       __imp__GetProcAddress@8    004190e8     kernel32:KERNEL32.dll
 0002:000000ec       __imp__MultiByteToWideChar@24 004190ec     kernel32:KERNEL32.dll
 0002:000000f0       __imp__WideCharToMultiByte@32 004190f0     kernel32:KERNEL32.dll
 0002:000000f4       __imp__HeapSize@12         004190f4     kernel32:KERNEL32.dll
 0002:000000f8       __imp__HeapAlloc@12        004190f8     kernel32:KERNEL32.dll
 0002:000000fc       __imp__RaiseException@16   004190fc     kernel32:KERNEL32.dll
 0002:00000100       __imp__HeapFree@12         00419100     kernel32:KERNEL32.dll
 0002:00000104       __imp__SetLastError@4      00419104     kernel32:KERNEL32.dll
 0002:00000108       __imp__GetCurrentThreadId@0 00419108     kernel32:KERNEL32.dll
 0002:0000010c       __imp__GetProcessHeap@0    0041910c     kernel32:KERNEL32.dll
 0002:00000110       __imp__GetStdHandle@4      00419110     kernel32:KERNEL32.dll
 0002:00000114       __imp__GetFileType@4       00419114     kernel32:KERNEL32.dll
 0002:00000118       __imp__DeleteCriticalSection@4 00419118     kernel32:KERNEL32.dll
 0002:0000011c       __imp__GetStartupInfoW@4   0041911c     kernel32:KERNEL32.dll
 0002:00000120       __imp__GetModuleFileNameA@12 00419120     kernel32:KERNEL32.dll
 0002:00000124       __imp__GetModuleFileNameW@12 00419124     kernel32:KERNEL32.dll
 0002:00000128       __imp__QueryPerformanceCounter@4 00419128     kernel32:KERNEL32.dll
 0002:0000012c       __imp__GetCurrentProcessId@0 0041912c     kernel32:KERNEL32.dll
 0002:00000130       __imp__GetSystemTimeAsFileTime@4 00419130     kernel32:KERNEL32.dll
 0002:00000134       __imp__GetEnvironmentStringsW@0 00419134     kernel32:KERNEL32.dll
 0002:00000138       __imp__FreeEnvironmentStringsW@4 00419138     kernel32:KERNEL32.dll
 0002:0000013c       __imp__UnhandledExceptionFilter@4 0041913c     kernel32:KERNEL32.dll
 0002:00000140       __imp__SetUnhandledExceptionFilter@4 00419140     kernel32:KERNEL32.dll
 0002:00000144       __imp__InitializeCriticalSectionAndSpinCount@8 00419144     kernel32:KERNEL32.dll
 0002:00000148       __imp__GetCurrentProcess@0 00419148     kernel32:KERNEL32.dll
 0002:0000014c       __imp__TerminateProcess@8  0041914c     kernel32:KERNEL32.dll
 0002:00000150       __imp__TlsAlloc@0          00419150     kernel32:KERNEL32.dll
 0002:00000154       __imp__TlsGetValue@4       00419154     kernel32:KERNEL32.dll
 0002:00000158       __imp__TlsSetValue@8       00419158     kernel32:KERNEL32.dll
 0002:0000015c       __imp__TlsFree@4           0041915c     kernel32:KERNEL32.dll
 0002:00000160       __imp__GetModuleHandleW@4  00419160     kernel32:KERNEL32.dll
 0002:00000164       __imp__IsValidCodePage@4   00419164     kernel32:KERNEL32.dll
 0002:00000168       __imp__GetACP@0            00419168     kernel32:KERNEL32.dll
 0002:0000016c       __imp__GetOEMCP@0          0041916c     kernel32:KERNEL32.dll
 0002:00000170       __imp__GetCPInfo@8         00419170     kernel32:KERNEL32.dll
 0002:00000174       \177KERNEL32_NULL_THUNK_DATA 00419174     kernel32:KERNEL32.dll
 0002:00000178       __imp__CommandLineToArgvW@8 00419178     shell32:SHELL32.dll
 0002:0000017c       \177SHELL32_NULL_THUNK_DATA 0041917c     shell32:SHELL32.dll
 0002:00000180       __imp__GetWindowRect@8     00419180     user32:USER32.dll
 0002:00000184       __imp__GetClientRect@8     00419184     user32:USER32.dll
 0002:00000188       __imp__IsWindowEnabled@4   00419188     user32:USER32.dll
 0002:0000018c       __imp__EnableWindow@8      0041918c     user32:USER32.dll
 0002:00000190       __imp__SendDlgItemMessageW@20 00419190     user32:USER32.dll
 0002:00000194       __imp__GetDlgItemInt@16    00419194     user32:USER32.dll
 0002:00000198       __imp__SetDlgItemInt@16    00419198     user32:USER32.dll
 0002:0000019c       __imp__GetDlgItem@8        0041919c     user32:USER32.dll
 0002:000001a0       __imp__MoveWindow@24       004191a0     user32:USER32.dll
 0002:000001a4       __imp__DdeGetData@16       004191a4     user32:USER32.dll
 0002:000001a8       __imp__WinHelpW@16         004191a8     user32:USER32.dll
 0002:000001ac       __imp__IsDialogMessageW@8  004191ac     user32:USER32.dll
 0002:000001b0       __imp__LoadIconW@8         004191b0     user32:USER32.dll
 0002:000001b4       __imp__LoadCursorW@8       004191b4     user32:USER32.dll
 0002:000001b8       __imp__EndPaint@8          004191b8     user32:USER32.dll
 0002:000001bc       __imp__BeginPaint@8        004191bc     user32:USER32.dll
 0002:000001c0       __imp__UpdateWindow@4      004191c0     user32:USER32.dll
 0002:000001c4       __imp__CreateDialogParamW@20 004191c4     user32:USER32.dll
 0002:000001c8       __imp__IsIconic@4          004191c8     user32:USER32.dll
 0002:000001cc       __imp__CloseWindow@4       004191cc     user32:USER32.dll
 0002:000001d0       __imp__ShowWindow@8        004191d0     user32:USER32.dll
 0002:000001d4       __imp__GetWindowTextLengthW@4 004191d4     user32:USER32.dll
 0002:000001d8       __imp__CharToOemW@8        004191d8     user32:USER32.dll
 0002:000001dc       __imp__LoadStringW@16      004191dc     user32:USER32.dll
 0002:000001e0       __imp__IsDlgButtonChecked@8 004191e0     user32:USER32.dll
 0002:000001e4       __imp__SetForegroundWindow@4 004191e4     user32:USER32.dll
 0002:000001e8       __imp__MessageBoxW@16      004191e8     user32:USER32.dll
 0002:000001ec       __imp__FindWindowW@8       004191ec     user32:USER32.dll
 0002:000001f0       __imp__GetClassNameW@12    004191f0     user32:USER32.dll
 0002:000001f4       __imp__GetDesktopWindow@0  004191f4     user32:USER32.dll
 0002:000001f8       __imp__DdeInitializeW@16   004191f8     user32:USER32.dll
 0002:000001fc       __imp__DdeUninitialize@4   004191fc     user32:USER32.dll
 0002:00000200       __imp__DdeConnect@16       00419200     user32:USER32.dll
 0002:00000204       __imp__DdeDisconnect@4     00419204     user32:USER32.dll
 0002:00000208       __imp__DdeClientTransaction@32 00419208     user32:USER32.dll
 0002:0000020c       __imp__DdeCreateStringHandleW@12 0041920c     user32:USER32.dll
 0002:00000210       __imp__DdeFreeStringHandle@8 00419210     user32:USER32.dll
 0002:00000214       __imp__DdeCmpStringHandles@8 00419214     user32:USER32.dll
 0002:00000218       __imp__IsWindowVisible@4   00419218     user32:USER32.dll
 0002:0000021c       __imp__InvalidateRect@12   0041921c     user32:USER32.dll
 0002:00000220       __imp__GetWindowLongW@8    00419220     user32:USER32.dll
 0002:00000224       __imp__CharUpperW@4        00419224     user32:USER32.dll
 0002:00000228       __imp__SetCursor@4         00419228     user32:USER32.dll
 0002:0000022c       __imp__IsCharAlphaW@4      0041922c     user32:USER32.dll
 0002:00000230       __imp__wsprintfW           00419230     user32:USER32.dll
 0002:00000234       __imp__SetDlgItemTextW@12  00419234     user32:USER32.dll
 0002:00000238       __imp__IsCharAlphaNumericW@4 00419238     user32:USER32.dll
 0002:0000023c       __imp__CreateWindowExW@48  0041923c     user32:USER32.dll
 0002:00000240       __imp__RegisterClassW@4    00419240     user32:USER32.dll
 0002:00000244       __imp__PostQuitMessage@4   00419244     user32:USER32.dll
 0002:00000248       __imp__DefWindowProcW@16   00419248     user32:USER32.dll
 0002:0000024c       __imp__PostMessageW@16     0041924c     user32:USER32.dll
 0002:00000250       __imp__SendMessageW@16     00419250     user32:USER32.dll
 0002:00000254       __imp__DispatchMessageW@4  00419254     user32:USER32.dll
 0002:00000258       __imp__TranslateMessage@4  00419258     user32:USER32.dll
 0002:0000025c       __imp__GetMessageW@16      0041925c     user32:USER32.dll
 0002:00000260       __imp__MapDialogRect@8     00419260     user32:USER32.dll
 0002:00000264       \177USER32_NULL_THUNK_DATA 00419264     user32:USER32.dll
 0002:00000268       ___xc_a                    00419268     LIBCMT:crt0init.obj
 0002:000002a8       ___xc_z                    004192a8     LIBCMT:crt0init.obj
 0002:000002ac       ___xi_a                    004192ac     LIBCMT:crt0init.obj
 0002:000002c8       ___xi_z                    004192c8     LIBCMT:crt0init.obj
 0002:000002cc       ___xp_a                    004192cc     LIBCMT:crt0init.obj
 0002:000002dc       ___xp_z                    004192dc     LIBCMT:crt0init.obj
 0002:000002e0       ___xt_a                    004192e0     LIBCMT:crt0init.obj
 0002:000002e4       ___xt_z                    004192e4     LIBCMT:crt0init.obj
 0002:000002f0       ??_C@_1BG@GIMCIKAG@?$AAv?$AA5?$AAh?$AAe?$AAl?$AAp?$AA?4?$AAh?$AAl?$AAp?$AA?$AA@ 004192f0     monedit.obj
 0002:00000308       ??_C@_17OCANGMGN@?$AAC?$AAF?$AAG?$AA?$AA@ 00419308     monedit.obj
 0002:00000310       ??_C@_17LCEJACNC@?$AAA?$AAC?$AAT?$AA?$AA@ 00419310     monedit.obj
 0002:00000318       ??_C@_1BM@ONNHGDPO@?$AAM?$AAO?$AAN?$AAI?$AAT?$AAO?$AAR?$AA_?$AAS?$AAE?$AAT?$AAU?$AAP?$AA?$AA@ 00419318     monedit.obj
 0002:00000334       ??_C@_1BK@MOKBKEHF@?$AAM?$AAO?$AAN?$AAI?$AAT?$AAO?$AAR?$AA_?$AAL?$AAI?$AAS?$AAT?$AA?$AA@ 00419334     monedit.obj
 0002:00000350       ??_C@_1CO@DNCHNEPD@?$AAf?$AAt?$AAi?$AAi?$AA_?$AAp?$AAa?$AAr?$AAt?$AA_?$AAs?$AAe?$AAt?$AAt?$AAi?$AAn?$AAg?$AAs?$AA?4?$AAt?$AAx?$AAt?$AA?$AA@ 00419350     monitor.obj
 0002:00000380       ??_C@_1CE@MLPNJNJM@?$AAm?$AAa?$AAc?$AAh?$AAi?$AAn?$AAe?$AA_?$AAs?$AAe?$AAt?$AAu?$AAp?$AA?4?$AAc?$AAs?$AAv?$AA?$AA@ 00419380     monitor.obj
 0002:000003a4       ??_C@_1CA@BOEJAGDL@?$AAP?$AAA?$AAR?$AAT?$AAD?$AAI?$AAS?$AAP?$AAL?$AAA?$AAY?$AA?4?$AAI?$AAN?$AAI?$AA?$AA@ 004193a4     monitor.obj
 0002:000003c4       ??_C@_1BO@EHLBDBAF@?$AAp?$AAa?$AAr?$AAt?$AA_?$AAs?$AAe?$AAt?$AAu?$AAp?$AA?4?$AAc?$AAs?$AAv?$AA?$AA@ 004193c4     monitor.obj
 0002:000003e8       ??_7FTII_VAR@@6B@          004193e8     monitor.obj
 0002:00000414       ??_7FTII_VAR_ARRAY@@6B@    00419414     monitor.obj
 0002:0000043c       ??_C@_17KNIAGABN@?$AAM?$AAO?$AAN?$AA?$AA@ 0041943c     monitor.obj
 0002:00000444       ??_C@_1BG@HEPPECIE@?$AAm?$AAo?$AAn?$AAa?$AAl?$AAl?$AA?4?$AAe?$AAx?$AAe?$AA?$AA@ 00419444     monitor.obj
 0002:0000045c       ??_C@_1BK@FBLENINC@?$AAS?$AAH?$AAO?$AAT?$AAS?$AA_?$AAS?$AAT?$AAR?$AAI?$AAN?$AAG?$AA?$AA@ 0041945c     monitor.obj
 0002:00000478       ??_C@_1BG@NJGIPDJC@?$AAS?$AAE?$AAC?$AA_?$AAS?$AAT?$AAR?$AAI?$AAN?$AAG?$AA?$AA@ 00419478     monitor.obj
 0002:00000490       ??_C@_1BG@GCODDIBI@?$AAP?$AAA?$AAR?$AAA?$AAM?$AAE?$AAT?$AAE?$AAR?$AAS?$AA?$AA@ 00419490     monitor.obj
 0002:000004a8       ??_C@_1BC@BBPAGAIB@?$AAP?$AAR?$AAO?$AAF?$AAI?$AAL?$AAE?$AAS?$AA?$AA@ 004194a8     monitor.obj
 0002:000004bc       ??_C@_1BE@KDKHEDNI@?$AAA?$AAC?$AAQ?$AA_?$AAC?$AAO?$AAU?$AAN?$AAT?$AA?$AA@ 004194bc     monitor.obj
 0002:000004d0       ??_C@_1BO@DAGNIPBG@?$AAM?$AAA?$AAC?$AAH?$AAI?$AAN?$AAE?$AA_?$AAS?$AAT?$AAR?$AAI?$AAN?$AAG?$AA?$AA@ 004194d0     monitor.obj
 0002:000004f0       ??_C@_1BI@MCJPNFNB@?$AAP?$AAA?$AAR?$AAT?$AA_?$AAS?$AAT?$AAR?$AAI?$AAN?$AAG?$AA?$AA@ 004194f0     monitor.obj
 0002:00000508       ??_C@_1M@INGHPCKK@?$AAA?$AA_?$AAL?$AA_?$AAM?$AA?$AA@ 00419508     monitor.obj
 0002:00000514       ??_C@_1M@CPEJNCHM@?$AAM?$AA_?$AAT?$AA_?$AAR?$AA?$AA@ 00419514     monitor.obj
 0002:00000520       ??_C@_1O@DENKIOCP@?$AAS?$AAA?$AAM?$AAP?$AAL?$AAE?$AA?$AA@ 00419520     monitor.obj
 0002:00000530       ??_C@_1BA@PICGEGJB@?$AAD?$AAI?$AAS?$AAP?$AAL?$AAA?$AAY?$AA?$AA@ 00419530     monitor.obj
 0002:00000540       ??_C@_19NJPLCAHP@?$AAS?$AAK?$AAI?$AAP?$AA?$AA@ 00419540     monitor.obj
 0002:0000054c       ??_C@_1BA@INDHICLB@?$AAA?$AAC?$AAQ?$AAU?$AAI?$AAR?$AAE?$AA?$AA@ 0041954c     monitor.obj
 0002:0000055c       ??_C@_1BG@CGLEABHM@?$AAM?$AAA?$AAX?$AA_?$AAS?$AAT?$AAR?$AAI?$AAN?$AAG?$AA?$AA@ 0041955c     monitor.obj
 0002:00000574       ??_C@_1BE@OLOGGJO@?$AAM?$AAA?$AAX?$AA_?$AAS?$AAA?$AAV?$AAE?$AAD?$AA?$AA@ 00419574     monitor.obj
 0002:00000588       ??_C@_1BM@EJJIBJLB@?$AAC?$AAU?$AAR?$AA_?$AAP?$AAA?$AAR?$AAT?$AA_?$AAN?$AAA?$AAM?$AAE?$AA?$AA@ 00419588     monitor.obj
 0002:000005a4       ??_C@_1BI@MPOODCB@?$AAS?$AAA?$AAM?$AAP?$AAL?$AAE?$AA_?$AAT?$AAI?$AAM?$AAE?$AA?$AA@ 004195a4     monitor.obj
 0002:000005bc       ??_C@_1BI@CKAIFLIB@?$AAM?$AAO?$AAN?$AA_?$AAT?$AAH?$AAI?$AAS?$AA_?$AAP?$AAA?$AA?$AA@ 004195bc     monitor.obj
 0002:000005d4       ??_C@_1BG@CGPMGMLF@?$AAM?$AAO?$AAN?$AA_?$AAA?$AAL?$AAA?$AAR?$AAM?$AAS?$AA?$AA@ 004195d4     monitor.obj
 0002:000005ec       ??_C@_1BA@NCECFKM@?$AAA?$AAC?$AAQ?$AA_?$AAA?$AAL?$AAL?$AA?$AA@ 004195ec     monitor.obj
 0002:000005fc       ??_C@_1BC@NHDAHPOM@?$AAA?$AAC?$AAQ?$AA_?$AAN?$AAO?$AAN?$AAE?$AA?$AA@ 004195fc     monitor.obj
 0002:00000610       ??_C@_1BE@EADILDCB@?$AAT?$AAI?$AAM?$AAE?$AA_?$AAS?$AAK?$AAI?$AAP?$AA?$AA@ 00419610     monitor.obj
 0002:00000624       ??_C@_1BE@DCDDFLCK@?$AAS?$AAH?$AAO?$AAT?$AA_?$AAS?$AAK?$AAI?$AAP?$AA?$AA@ 00419624     monitor.obj
 0002:00000638       ??_C@_1BE@MOCHJJAI@?$AAS?$AAK?$AAI?$AAP?$AA_?$AAT?$AAI?$AAM?$AAE?$AA?$AA@ 00419638     monitor.obj
 0002:0000064c       ??_C@_1BK@PNMIFDMH@?$AAS?$AAA?$AAV?$AAE?$AA_?$AAC?$AAH?$AAA?$AAN?$AAG?$AAE?$AAS?$AA?$AA@ 0041964c     monitor.obj
 0002:00000668       ??_C@_1BE@MLBDFMPB@?$AAB?$AAE?$AAG?$AAI?$AAN?$AA_?$AAM?$AAO?$AAN?$AA?$AA@ 00419668     monitor.obj
 0002:0000067c       ??_C@_1BK@DMKHANAB@?$AAD?$AAI?$AAS?$AAP?$AAL?$AAA?$AAY?$AA_?$AAT?$AAI?$AAM?$AAE?$AA?$AA@ 0041967c     monitor.obj
 0002:00000698       ??_C@_1CA@CFIPPBAG@?$AAP?$AAO?$AAS?$AAT?$AA_?$AAI?$AAM?$AAP?$AAA?$AAC?$AAT?$AA_?$AAS?$AAE?$AAC?$AA?$AA@ 00419698     monitor.obj
 0002:000006c0       __xmm@00000099000000980000009700000096 004196c0     monitor.obj
 0002:000006d0       __xmm@0000009d0000009c0000009b0000009a 004196d0     monitor.obj
 0002:000006e0       ??_C@_19MOLCELM@?$AA?5?$AA?$CL?$AA?9?$AA?4?$AA?$AA@ 004196e0     v5subs:stringcl.obj
 0002:000006ec       ??_C@_1BG@PGBNDIAE@?$AA0?$AA1?$AA2?$AA3?$AA4?$AA5?$AA6?$AA7?$AA8?$AA9?$AA?$AA@ 004196ec     v5subs:stringcl.obj
 0002:00000704       ??_C@_1M@HEICHGGN@?$AA?4?$AAs?$AAt?$AAb?$AAl?$AA?$AA@ 00419704     v5subs:nameclas.obj
 0002:00000710       __real@0000000000000000    00419710     v5subs:iniclass.obj
 0002:00000718       ??_C@_1BK@KFPBILGH@?$AAC?$AAO?$AAM?$AAP?$AAU?$AAT?$AAE?$AAR?$AA?4?$AAC?$AAS?$AAV?$AA?$AA@ 00419718     v5subs:computer.obj
 0002:00000744       ??_C@_1BA@CIHEGHHL@?$AAL?$AAi?$AAs?$AAt?$AAB?$AAo?$AAx?$AA?$AA@ 00419744     v5subs:winsubs.obj
 0002:00000758       ??_7WINDOW_CLASS@@6B@      00419758     v5subs:statics.obj
 0002:00000764       ??_C@_1CE@JLENKCOM@?$AAD?$AAd?$AAe?$AAC?$AAo?$AAn?$AAn?$AAe?$AAc?$AAt?$AA?5?$AAF?$AAa?$AAi?$AAl?$AAe?$AAd?$AA?$AA@ 00419764     v5subs:client.obj
 0002:00000788       ??_C@_1BM@DAJBFGHB@?$AAD?$AAd?$AAe?$AAI?$AAn?$AAi?$AAt?$AAi?$AAa?$AAl?$AAi?$AAz?$AAe?$AA?$AA@ 00419788     v5subs:client.obj
 0002:000007a4       ??_C@_1O@GCADHOOL@?$AAF?$AAa?$AAi?$AAl?$AAe?$AAd?$AA?$AA@ 004197a4     v5subs:client.obj
 0002:000007b4       ??_C@_1CM@JLPCGICM@?$AAD?$AAd?$AAe?$AAC?$AAr?$AAe?$AAa?$AAt?$AAe?$AAS?$AAt?$AAr?$AAi?$AAn?$AAg?$AAH?$AAa?$AAn?$AAd?$AAl?$AAe?$AA?$AA@ 004197b4     v5subs:client.obj
 0002:000007e0       ??_C@_1BK@KNAMOOFG@?$AAA?$AAL?$AAA?$AAR?$AAM?$AAS?$AAU?$AAM?$AA?4?$AAT?$AAX?$AAT?$AA?$AA@ 004197e0     v5subs:autoback.obj
 0002:000007fc       ??_C@_1BK@EHLOGFNL@?$AAD?$AAO?$AAW?$AAN?$AAT?$AAI?$AAM?$AAE?$AA?4?$AAT?$AAX?$AAT?$AA?$AA@ 004197fc     v5subs:autoback.obj
 0002:00000818       ??_C@_1BK@KAADPACA@?$AAG?$AAR?$AAA?$AAP?$AAH?$AAL?$AAS?$AAT?$AA?4?$AAT?$AAX?$AAT?$AA?$AA@ 00419818     v5subs:autoback.obj
 0002:00000834       ??_C@_1BK@FLHBKDPP@?$AAS?$AAH?$AAO?$AAT?$AAP?$AAA?$AAR?$AAM?$AA?4?$AAC?$AAS?$AAV?$AA?$AA@ 00419834     v5subs:autoback.obj
 0002:00000850       ??_C@_19OCMFAKFD@?$AA?4?$AAM?$AAA?$AAS?$AA?$AA@ 00419850     v5subs:autoback.obj
 0002:0000085c       ??_C@_1BA@MKLLPONE@?$AAC?$AAU?$AAR?$AAR?$AAE?$AAN?$AAT?$AA?$AA@ 0041985c     v5subs:autoback.obj
 0002:0000086c       ??_C@_19GBFPJKDF@?$AA?4?$AAM?$AAA?$AA2?$AA?$AA@ 0041986c     v5subs:autoback.obj
 0002:000008d8       ??_C@_1DI@HGCLPLCJ@?$AAm?$AAu?$AAl?$AAt?$AAi?$AAp?$AAa?$AAr?$AAt?$AA_?$AAr?$AAu?$AAn?$AAl?$AAi?$AAs?$AAt?$AA_?$AAs?$AAe?$AAt?$AAu?$AAp?$AA?4?$AAc?$AAs?$AAv?$AA?$AA@ 004198d8     v5subs:multipart_runlist.obj
 0002:00000910       ??_C@_1DI@GGICOOAC@?$AAm?$AAu?$AAl?$AAt?$AAi?$AAp?$AAa?$AAr?$AAt?$AA_?$AAr?$AAu?$AAn?$AAl?$AAi?$AAs?$AAt?$AA_?$AAw?$AAi?$AAr?$AAe?$AAs?$AA?4?$AAc?$AAs?$AAv?$AA?$AA@ 00419910     v5subs:multipart_runlist.obj
 0002:00000974       ??_C@_1BK@IOEOFHEM@?$AAM?$AAa?$AAc?$AAh?$AAi?$AAn?$AAe?$AA?5?$AAT?$AAy?$AAp?$AAe?$AA?$AA@ 00419974     v5subs:machine.obj
 0002:00000990       ??_C@_1CO@GGMLBMKL@?$AAF?$AAa?$AAs?$AAt?$AA?5?$AAT?$AAr?$AAa?$AAk?$AA?5?$AAB?$AAo?$AAa?$AAr?$AAd?$AA?5?$AAN?$AAu?$AAm?$AAb?$AAe?$AAr?$AA?$AA@ 00419990     v5subs:machine.obj
 0002:000009c0       ??_C@_1DM@IJBBEHFE@?$AAM?$AAu?$AAx?$AA?5?$AAC?$AAh?$AAa?$AAn?$AAn?$AAe?$AAl?$AA?5?$AAN?$AAu?$AAm?$AAb?$AAe?$AAr?$AA?5?$AA?$CI?$AAF?$AAT?$AA1?$AA?5?$AAO?$AAn?$AAl?$AAy?$AA?$CJ?$AA?$AA@ 004199c0     v5subs:machine.obj
 0002:000009fc       ??_C@_1CI@EHIJFNDM@?$AAI?$AAs?$AA?5?$AAS?$AAu?$AAr?$AAe?$AAT?$AAr?$AAa?$AAk?$AA?5?$AAC?$AAo?$AAn?$AAt?$AAr?$AAo?$AAl?$AA?$AA@ 004199fc     v5subs:machine.obj
 0002:00000a24       ??_C@_1CE@GGCJKONB@?$AAC?$AAu?$AAr?$AAr?$AAe?$AAn?$AAt?$AA?5?$AAP?$AAa?$AAr?$AAt?$AA?5?$AAN?$AAa?$AAm?$AAe?$AA?$AA@ 00419a24     v5subs:machine.obj
 0002:00000a48       ??_C@_1BE@JHBLIEOJ@?$AAR?$AAo?$AAd?$AA?5?$AAP?$AAi?$AAt?$AAc?$AAh?$AA?$AA@ 00419a48     v5subs:machine.obj
 0002:00000a5c       ??_C@_1CG@ECHBBMDE@?$AAP?$AAr?$AAo?$AAf?$AAi?$AAl?$AAe?$AA?5?$AAS?$AAk?$AAi?$AAp?$AA?5?$AAC?$AAo?$AAu?$AAn?$AAt?$AA?$AA@ 00419a5c     v5subs:machine.obj
 0002:00000a84       ??_C@_1CM@FMLPHFJB@?$AAP?$AAr?$AAo?$AAf?$AAi?$AAl?$AAe?$AA?5?$AAA?$AAc?$AAq?$AAu?$AAi?$AAr?$AAe?$AA?5?$AAC?$AAo?$AAu?$AAn?$AAt?$AA?$AA@ 00419a84     v5subs:machine.obj
 0002:00000ab0       ??_C@_1DC@HHOKMCFD@?$AAP?$AAr?$AAo?$AAf?$AAi?$AAl?$AAe?$AA?5?$AAT?$AAi?$AAm?$AAe?$AA?5?$AAS?$AAk?$AAi?$AAp?$AA?5?$AA?$CI?$AAS?$AAe?$AAc?$AA?4?$AA?$CJ?$AA?$AA@ 00419ab0     v5subs:machine.obj
 0002:00000ae4       ??_C@_1BM@DAMONPCA@?$AAP?$AAr?$AAo?$AAf?$AAi?$AAl?$AAe?$AA?5?$AAF?$AAl?$AAa?$AAg?$AAs?$AA?$AA@ 00419ae4     v5subs:machine.obj
 0002:00000b00       ??_C@_1CE@FAJJDNEG@?$AAP?$AAr?$AAo?$AAf?$AAi?$AAl?$AAe?$AA?5?$AAM?$AAa?$AAx?$AA?5?$AAS?$AAa?$AAv?$AAe?$AAd?$AA?$AA@ 00419b00     v5subs:machine.obj
 0002:00000b24       ??_C@_1CC@CKKKJOKO@?$AAP?$AAa?$AAr?$AAa?$AAm?$AA?5?$AAS?$AAk?$AAi?$AAp?$AA?5?$AAC?$AAo?$AAu?$AAn?$AAt?$AA?$AA@ 00419b24     v5subs:machine.obj
 0002:00000b48       ??_C@_1CI@JMPFAHEG@?$AAP?$AAa?$AAr?$AAa?$AAm?$AA?5?$AAA?$AAc?$AAq?$AAu?$AAi?$AAr?$AAe?$AA?5?$AAC?$AAo?$AAu?$AAn?$AAt?$AA?$AA@ 00419b48     v5subs:machine.obj
 0002:00000b70       ??_C@_1CO@JOMFHDHC@?$AAP?$AAa?$AAr?$AAa?$AAm?$AA?5?$AAT?$AAi?$AAm?$AAe?$AA?5?$AAS?$AAk?$AAi?$AAp?$AA?5?$AA?$CI?$AAS?$AAe?$AAc?$AA?4?$AA?$CJ?$AA?$AA@ 00419b70     v5subs:machine.obj
 0002:00000ba0       ??_C@_1BI@MEDFOHML@?$AAP?$AAa?$AAr?$AAa?$AAm?$AA?5?$AAF?$AAl?$AAa?$AAg?$AAs?$AA?$AA@ 00419ba0     v5subs:machine.obj
 0002:00000bb8       ??_C@_1CA@NHEOPAAD@?$AAP?$AAa?$AAr?$AAa?$AAm?$AA?5?$AAM?$AAa?$AAx?$AA?5?$AAS?$AAa?$AAv?$AAe?$AAd?$AA?$AA@ 00419bb8     v5subs:machine.obj
 0002:00000bd8       ??_C@_1BM@OJNOGCJK@?$AAM?$AAo?$AAn?$AAi?$AAt?$AAo?$AAr?$AA?5?$AAF?$AAl?$AAa?$AAg?$AAs?$AA?$AA@ 00419bd8     v5subs:machine.obj
 0002:00000bf4       ??_C@_1DC@PDAOCBEF@?$AAA?$AAu?$AAt?$AAo?$AA?5?$AAS?$AAh?$AAo?$AAt?$AA?5?$AAT?$AAi?$AAm?$AAe?$AAo?$AAu?$AAt?$AA?5?$AA?$CI?$AAS?$AAe?$AAc?$AA?4?$AA?$CJ?$AA?$AA@ 00419bf4     v5subs:machine.obj
 0002:00000c28       ??_C@_1DA@DFCEGLGH@?$AAD?$AAo?$AAw?$AAn?$AAt?$AAi?$AAm?$AAe?$AA?5?$AAT?$AAi?$AAm?$AAe?$AAo?$AAu?$AAt?$AA?5?$AA?$CI?$AAS?$AAe?$AAc?$AA?4?$AA?$CJ?$AA?$AA@ 00419c28     v5subs:machine.obj
 0002:00000c58       ??_C@_1DE@FJHGAEFH@?$AAD?$AAi?$AAf?$AAf?$AAe?$AAr?$AAe?$AAn?$AAt?$AAi?$AAa?$AAl?$AA?5?$AAC?$AAu?$AAr?$AAv?$AAe?$AA?5?$AAN?$AAu?$AAm?$AAb?$AAe?$AAr?$AA?$AA@ 00419c58     v5subs:machine.obj
 0002:00000c8c       ??_C@_1DI@OLEOJOJB@?$AAP?$AAo?$AAs?$AAi?$AAt?$AAi?$AAo?$AAn?$AA?5?$AAB?$AAa?$AAs?$AAe?$AA?5?$AAI?$AAm?$AAp?$AAa?$AAc?$AAt?$AA?5?$AAP?$AAo?$AAi?$AAn?$AAt?$AAs?$AA?$AA@ 00419c8c     v5subs:machine.obj
 0002:00000cc4       ??_C@_1DA@NNGICMAD@?$AAT?$AAi?$AAm?$AAe?$AA?5?$AAB?$AAa?$AAs?$AAe?$AA?5?$AAI?$AAm?$AAp?$AAa?$AAc?$AAt?$AA?5?$AAP?$AAo?$AAi?$AAn?$AAt?$AAs?$AA?$AA@ 00419cc4     v5subs:machine.obj
 0002:00000cf4       ??_C@_1DC@LMJBJMOG@?$AAP?$AAr?$AAe?$AA?5?$AAI?$AAm?$AAp?$AAa?$AAc?$AAt?$AA?5?$AAP?$AAr?$AAe?$AAs?$AAs?$AAu?$AAr?$AAe?$AA?5?$AAT?$AAy?$AAp?$AAe?$AA?$AA@ 00419cf4     v5subs:machine.obj
 0002:00000d28       ??_C@_1DE@JNCHNEEO@?$AAP?$AAo?$AAs?$AAt?$AA?5?$AAI?$AAm?$AAp?$AAa?$AAc?$AAt?$AA?5?$AAP?$AAr?$AAe?$AAs?$AAs?$AAu?$AAr?$AAe?$AA?5?$AAT?$AAy?$AAp?$AAe?$AA?$AA@ 00419d28     v5subs:machine.obj
 0002:00000d5c       ??_C@_1CA@JGPCCIDO@?$AAO?$AAp?$AAe?$AAr?$AAa?$AAt?$AAo?$AAr?$AA?5?$AAN?$AAu?$AAm?$AAb?$AAe?$AAr?$AA?$AA@ 00419d5c     v5subs:machine.obj
 0002:00000d7c       ??_C@_1CG@NCAEKDPL@?$AAQ?$AAu?$AAa?$AAd?$AAr?$AAa?$AAt?$AAu?$AAr?$AAe?$AA?5?$AAD?$AAi?$AAv?$AAi?$AAs?$AAo?$AAr?$AA?$AA@ 00419d7c     v5subs:machine.obj
 0002:00000da4       ??_C@_1DA@LDECIIID@?$AAB?$AAi?$AAn?$AAa?$AAr?$AAy?$AA?5?$AAV?$AAa?$AAl?$AAv?$AAe?$AA?5?$AAP?$AAu?$AAl?$AAs?$AAe?$AA?5?$AAT?$AAi?$AAm?$AAe?$AA?$AA@ 00419da4     v5subs:machine.obj
 0002:00000dd4       ??_C@_1DC@GBIHGEOD@?$AAB?$AAi?$AAn?$AAa?$AAr?$AAy?$AA?5?$AAV?$AAa?$AAl?$AAv?$AAe?$AA?5?$AAD?$AAe?$AAv?$AAe?$AAn?$AAt?$AA?5?$AAT?$AAi?$AAm?$AAe?$AA?$AA@ 00419dd4     v5subs:machine.obj
 0002:00000e08       ??_C@_1DA@KKPFIDMO@?$AAB?$AAi?$AAn?$AAa?$AAr?$AAy?$AA?5?$AAV?$AAa?$AAl?$AAv?$AAe?$AA?5?$AAP?$AAu?$AAl?$AAs?$AAe?$AA?5?$AAW?$AAi?$AAr?$AAe?$AA?$AA@ 00419e08     v5subs:machine.obj
 0002:00000e38       ??_C@_1DK@OEOIBJNP@?$AAV?$AAa?$AAl?$AAv?$AAe?$AA?5?$AAS?$AAe?$AAt?$AAt?$AAi?$AAn?$AAg?$AA?5?$AAa?$AAf?$AAt?$AAe?$AAr?$AA?5?$AAJ?$AAo?$AAg?$AA?5?$AAS?$AAh?$AAo?$AAt?$AA?$AA@ 00419e38     v5subs:machine.obj
 0002:00000e74       ??_C@_1DC@NEGFOPPH@?$AAd?$AAe?$AAf?$AAa?$AAu?$AAl?$AAt?$AA_?$AAh?$AAm?$AAi?$AA_?$AAs?$AAe?$AAt?$AAt?$AAi?$AAn?$AAg?$AAs?$AA?4?$AAc?$AAs?$AAv?$AA?$AA@ 00419e74     v5subs:machine.obj
 0002:00000ea8       ??_C@_1CA@FPBKJBLC@?$AAf?$AAt?$AAi?$AAi?$AA_?$AAb?$AAo?$AAa?$AAr?$AAd?$AAs?$AA?4?$AAt?$AAx?$AAt?$AA?$AA@ 00419ea8     v5subs:machine.obj
 0002:00000ec8       ??_C@_15CJLJAKDA@?$AA?4?$AA2?$AA?$AA@ 00419ec8     v5subs:machine.obj
 0002:00000ed0       ??_C@_17BODHOPJC@?$AA1?$AA?4?$AA0?$AA?$AA@ 00419ed0     v5subs:machine.obj
 0002:00000ed8       ??_C@_15GKHDDIOC@?$AA2?$AA7?$AA?$AA@ 00419ed8     v5subs:machine.obj
 0002:00000ee0       ??_C@_1CA@JEODIJDH@?$AAc?$AAo?$AAn?$AAt?$AAr?$AAo?$AAl?$AA_?$AAa?$AAl?$AAl?$AA?4?$AAt?$AAx?$AAt?$AA?$AA@ 00419ee0     v5subs:machine.obj
 0002:00000f00       ??_C@_17CHOLIMHJ@?$AA1?$AA0?$AA0?$AA?$AA@ 00419f00     v5subs:machine.obj
 0002:00000f08       __real@412e848000000000    00419f08     v5subs:machine.obj
 0002:00000f10       ??_C@_1BG@FIHCLNNM@?$AAF?$AAT?$AAC?$AAH?$AAA?$AAN?$AA?4?$AAT?$AAX?$AAT?$AA?$AA@ 00419f10     v5subs:part.obj
 0002:00000f28       ??_C@_1CI@KJJNKCHF@?$AAg?$AAo?$AAo?$AAd?$AA_?$AAs?$AAh?$AAo?$AAt?$AA_?$AAs?$AAe?$AAt?$AAu?$AAp?$AA?4?$AAc?$AAs?$AAv?$AA?$AA@ 00419f28     v5subs:part.obj
 0002:00000f50       ??_C@_1BI@OACMEBED@?$AAP?$AAS?$AAE?$AAN?$AAS?$AAO?$AAR?$AA?4?$AAT?$AAX?$AAT?$AA?$AA@ 00419f50     v5subs:part.obj
 0002:00000f68       ??_C@_1CA@KLEIHIOM@?$AAs?$AAh?$AAo?$AAt?$AA_?$AAe?$AAv?$AAe?$AAn?$AAt?$AAs?$AA?4?$AAc?$AAs?$AAv?$AA?$AA@ 00419f68     v5subs:part.obj
 0002:00000f88       __real@3ff0000000000000    00419f88     v5subs:part.obj
 0002:00000f90       __real@4054000000000000    00419f90     v5subs:part.obj
 0002:00000f98       __real@3fe0000000000000    00419f98     v5subs:misc.obj
 0002:00000fa0       ??_C@_1BG@BAGDMPPM@?$AAI?$AAs?$AA?5?$AAE?$AAn?$AAa?$AAb?$AAl?$AAe?$AAd?$AA?$AA@ 00419fa0     v5subs:warmupcl.obj
 0002:00000fb8       ??_C@_1BE@LLFNEMBP@?$AAR?$AAu?$AAn?$AA?5?$AAI?$AAf?$AA?5?$AAO?$AAn?$AA?$AA@ 00419fb8     v5subs:warmupcl.obj
 0002:00000fcc       ??_C@_1BI@NADKABPH@?$AAW?$AAi?$AAr?$AAe?$AA?5?$AAN?$AAu?$AAm?$AAb?$AAe?$AAr?$AA?$AA@ 00419fcc     v5subs:warmupcl.obj
 0002:00000fe4       ??_C@_1BE@LKBJOMKP@?$AAP?$AAa?$AAr?$AAt?$AA?5?$AAN?$AAa?$AAm?$AAe?$AA?$AA@ 00419fe4     v5subs:warmupcl.obj
 0002:00000ff8       ??_C@_1BI@HLBOKLFO@?$AAR?$AAU?$AAN?$AAL?$AAI?$AAS?$AAT?$AA?4?$AAC?$AAS?$AAV?$AA?$AA@ 00419ff8     v5subs:warmupcl.obj
 0002:00001010       ??_C@_1BG@LKMOFCGH@?$AAW?$AAA?$AAR?$AAM?$AAU?$AAP?$AA?4?$AAC?$AAS?$AAV?$AA?$AA@ 0041a010     v5subs:warmupcl.obj
 0002:00001028       ??_C@_1BI@BCCAMBPE@?$AAC?$AAO?$AAN?$AAT?$AAR?$AAO?$AAL?$AA?4?$AAT?$AAM?$AAP?$AA?$AA@ 0041a028     v5subs:ftiiclas.obj
 0002:00001040       __real@4059000000000000    0041a040     v5subs:ftiiclas.obj
 0002:00001048       __real@408f400000000000    0041a048     v5subs:ftiiclas.obj
 0002:00001050       ??_C@_1BK@HEDDEFIC@?$AAO?$AAP?$AAE?$AAR?$AAA?$AAT?$AAO?$AAR?$AA?4?$AAT?$AAX?$AAT?$AA?$AA@ 0041a050     v5subs:workclas.obj
 0002:00001078       __real@4024000000000000    0041a078     v5subs:dtotchar.obj
 0002:00001080       __xmm@80000000000000008000000000000000 0041a080     v5subs:dtotchar.obj
 0002:000010a0       ??_C@_1FE@FBJEEEAL@?$AAU?$AAn?$AAa?$AAb?$AAl?$AAe?$AA?5?$AAt?$AAo?$AA?5?$AAA?$AAL?$AAL?$AAO?$AAC?$AAA?$AAT?$AAE?$AA?5?$AAD?$AAB?$AA_?$AAT?$AAA?$AAB?$AAL?$AAE?$AA?5?$AAr?$AAe?$AAc?$AAo@ 0041a0a0     v5subs:dbsubs.obj
 0002:000010f4       ??_C@_1CM@DAOKOCDE@?$AAd?$AAe?$AAt?$AAe?$AAr?$AAm?$AAi?$AAn?$AAe?$AA_?$AAc?$AAo?$AAl?$AAu?$AAm?$AAn?$AA_?$AAi?$AAn?$AAf?$AAo?$AA?$AA@ 0041a0f4     v5subs:dbsubs.obj
 0002:00001120       ??_C@_1CO@ENKMJGPE@?$AAC?$AAa?$AAn?$AA?8?$AAt?$AA?5?$AAs?$AAe?$AAt?$AA?5?$AAf?$AAi?$AAl?$AAe?$AA?5?$AAp?$AAo?$AAi?$AAn?$AAt?$AAe?$AAr?$AA?$AA@ 0041a120     v5subs:dbsubs.obj
 0002:00001150       ??_C@_1CM@HDOHBAN@?$AAU?$AAn?$AAa?$AAb?$AAl?$AAe?$AA?5?$AAt?$AAo?$AA?5?$AAl?$AAo?$AAc?$AAk?$AA?5?$AAr?$AAe?$AAc?$AAo?$AAr?$AAd?$AA?$AA@ 0041a150     v5subs:dbsubs.obj
 0002:0000117c       ??_C@_1M@LFIEEOKG@?$AA0?$AAx?$AA?$CF?$AAl?$AAX?$AA?$AA@ 0041a17c     v5subs:dbsubs.obj
 0002:00001188       ??_C@_13JGCMLPCH@?$AA1?$AA?$AA@ 0041a188     v5subs:wire_class.obj
 0002:0000118c       ??_C@_11LOCGONAA@?$AA?$AA@ 0041a18c     v5subs:wire_class.obj
 0002:00001190       ??_C@_13IEJJBAMJ@?$AA2?$AA?$AA@ 0041a190     v5subs:wire_class.obj
 0002:00001194       ??_C@_13DMCFHHKM@?$AA3?$AA?$AA@ 0041a194     v5subs:wire_class.obj
 0002:00001198       ??_C@_13KBPCEPBF@?$AA4?$AA?$AA@ 0041a198     v5subs:wire_class.obj
 0002:0000119c       ??_C@_13BJEOCIHA@?$AA5?$AA?$AA@ 0041a19c     v5subs:wire_class.obj
 0002:000011a0       ??_C@_13LPLIHJO@?$AA6?$AA?$AA@ 0041a1a0     v5subs:wire_class.obj
 0002:000011a4       ??_C@_13LDEHOAPL@?$AA7?$AA?$AA@ 0041a1a4     v5subs:wire_class.obj
 0002:000011a8       ??_C@_13OLCEPAKN@?$AA8?$AA?$AA@ 0041a1a8     v5subs:wire_class.obj
 0002:000011ac       ??_C@_13FDJIJHMI@?$AA9?$AA?$AA@ 0041a1ac     v5subs:wire_class.obj
 0002:000011b0       ??_C@_15HBDAHCPF@?$AA1?$AA0?$AA?$AA@ 0041a1b0     v5subs:wire_class.obj
 0002:000011b8       ??_C@_15MJIMBFJA@?$AA1?$AA1?$AA?$AA@ 0041a1b8     v5subs:wire_class.obj
 0002:000011c0       ??_C@_15NLDJLKHO@?$AA1?$AA2?$AA?$AA@ 0041a1c0     v5subs:wire_class.obj
 0002:000011c8       ??_C@_15GDIFNNBL@?$AA1?$AA3?$AA?$AA@ 0041a1c8     v5subs:wire_class.obj
 0002:000011d0       ??_C@_15POFCOFKC@?$AA1?$AA4?$AA?$AA@ 0041a1d0     v5subs:wire_class.obj
 0002:000011d8       ??_C@_15EGOOICMH@?$AA1?$AA5?$AA?$AA@ 0041a1d8     v5subs:wire_class.obj
 0002:000011e0       ??_C@_15FEFLCNCJ@?$AA1?$AA6?$AA?$AA@ 0041a1e0     v5subs:wire_class.obj
 0002:000011e8       ??_C@_15OMOHEKEM@?$AA1?$AA7?$AA?$AA@ 0041a1e8     v5subs:wire_class.obj
 0002:000011f0       ??_C@_17CHEEDONC@?$AA6?$AA1?$AAB?$AA?$AA@ 0041a1f0     v5subs:wire_class.obj
 0002:000011f8       ??_C@_17MLBHLMLP@?$AA6?$AA9?$AAB?$AA?$AA@ 0041a1f8     v5subs:wire_class.obj
 0002:00001200       ??_C@_15LEIEFKBK@?$AA1?$AA8?$AA?$AA@ 0041a200     v5subs:wire_class.obj
 0002:00001208       ??_C@_17DFPBJBDM@?$AA6?$AA1?$AAA?$AA?$AA@ 0041a208     v5subs:wire_class.obj
 0002:00001210       ??_C@_17NJKCBDFB@?$AA6?$AA9?$AAA?$AA?$AA@ 0041a210     v5subs:wire_class.obj
 0002:00001218       ??_C@_15MDIDNHP@?$AA1?$AA9?$AA?$AA@ 0041a218     v5subs:wire_class.obj
 0002:00001220       ??_C@_17OMBIONHH@?$AA6?$AA0?$AAB?$AA?$AA@ 0041a220     v5subs:wire_class.obj
 0002:00001228       ??_C@_17ELGPBK@?$AA6?$AA8?$AAB?$AA?$AA@ 0041a228     v5subs:wire_class.obj
 0002:00001230       ??_C@_15PHKEAAFL@?$AA2?$AA0?$AA?$AA@ 0041a230     v5subs:wire_class.obj
 0002:00001238       ??_C@_17POKNECJJ@?$AA6?$AA0?$AAA?$AA?$AA@ 0041a238     v5subs:wire_class.obj
 0002:00001240       ??_C@_17BCPOMAPE@?$AA6?$AA8?$AAA?$AA?$AA@ 0041a240     v5subs:wire_class.obj
 0002:00001248       ??_C@_15EPBIGHDO@?$AA2?$AA1?$AA?$AA@ 0041a248     v5subs:wire_class.obj
 0002:00001250       ??_C@_17EFJILLFM@?$AA5?$AA9?$AAB?$AA?$AA@ 0041a250     v5subs:wire_class.obj
 0002:00001258       ??_C@_17PBBNNNMP@?$AA6?$AA7?$AAB?$AA?$AA@ 0041a258     v5subs:wire_class.obj
 0002:00001260       ??_C@_15FNKNMINA@?$AA2?$AA2?$AA?$AA@ 0041a260     v5subs:wire_class.obj
 0002:00001268       ??_C@_17FHCNBELC@?$AA5?$AA9?$AAA?$AA?$AA@ 0041a268     v5subs:wire_class.obj
 0002:00001270       ??_C@_17ODKIHCCB@?$AA6?$AA7?$AAA?$AA?$AA@ 0041a270     v5subs:wire_class.obj
 0002:00001278       ??_C@_15OFBBKPLF@?$AA2?$AA3?$AA?$AA@ 0041a278     v5subs:wire_class.obj
 0002:00001280       ??_C@_17IOMEGIPJ@?$AA5?$AA8?$AAB?$AA?$AA@ 0041a280     v5subs:wire_class.obj
 0002:00001288       ??_C@_17DKEBAOGK@?$AA6?$AA6?$AAB?$AA?$AA@ 0041a288     v5subs:wire_class.obj
 0002:00001290       ??_C@_15HIMGJHAM@?$AA2?$AA4?$AA?$AA@ 0041a290     v5subs:wire_class.obj
 0002:00001298       ??_C@_17JMHBMHBH@?$AA5?$AA8?$AAA?$AA?$AA@ 0041a298     v5subs:wire_class.obj
 0002:000012a0       ??_C@_17CIPEKBIE@?$AA6?$AA6?$AAA?$AA?$AA@ 0041a2a0     v5subs:wire_class.obj
 0002:000012a8       ??_C@_15MAHKPAGJ@?$AA2?$AA5?$AA?$AA@ 0041a2a8     v5subs:wire_class.obj
 0002:000012b0       ??_C@_17HPJCNKCM@?$AA5?$AA7?$AAB?$AA?$AA@ 0041a2b0     v5subs:wire_class.obj
 0002:000012b8       ??_C@_17LMNFHMME@?$AA6?$AA5?$AAB?$AA?$AA@ 0041a2b8     v5subs:wire_class.obj
 0002:000012c0       ??_C@_15NCMPFPIH@?$AA2?$AA6?$AA?$AA@ 0041a2c0     v5subs:wire_class.obj
 0002:000012c8       ??_C@_17GNCHHFMC@?$AA5?$AA7?$AAA?$AA?$AA@ 0041a2c8     v5subs:wire_class.obj
 0002:000012d0       ??_C@_17KOGANDCK@?$AA6?$AA5?$AAA?$AA?$AA@ 0041a2d0     v5subs:wire_class.obj
 0002:000012d8       ??_C@_17LEMOAJIJ@?$AA5?$AA6?$AAB?$AA?$AA@ 0041a2d8     v5subs:wire_class.obj
 0002:000012e0       ??_C@_17HHIJKPGB@?$AA6?$AA4?$AAB?$AA?$AA@ 0041a2e0     v5subs:wire_class.obj
 0002:000012e8       ??_C@_15DCBACILE@?$AA2?$AA8?$AA?$AA@ 0041a2e8     v5subs:wire_class.obj
 0002:000012f0       ??_C@_17KGHLKGGH@?$AA5?$AA6?$AAA?$AA?$AA@ 0041a2f0     v5subs:wire_class.obj
 0002:000012f8       ??_C@_17GFDMAAIP@?$AA6?$AA4?$AAA?$AA?$AA@ 0041a2f8     v5subs:wire_class.obj
 0002:00001300       ??_C@_15IKKMEPNB@?$AA2?$AA9?$AA?$AA@ 0041a300     v5subs:wire_class.obj
 0002:00001308       ??_C@_17DCFKHLCH@?$AA5?$AA5?$AAB?$AA?$AA@ 0041a308     v5subs:wire_class.obj
 0002:00001310       ??_C@_17GKIMJPNJ@?$AA6?$AA3?$AAB?$AA?$AA@ 0041a310     v5subs:wire_class.obj
 0002:00001318       ??_C@_15DMPINDPO@?$AA3?$AA0?$AA?$AA@ 0041a318     v5subs:wire_class.obj
 0002:00001320       ??_C@_17CAOPNEMJ@?$AA5?$AA5?$AAA?$AA?$AA@ 0041a320     v5subs:wire_class.obj
 0002:00001328       ??_C@_17HIDJDADH@?$AA6?$AA3?$AAA?$AA?$AA@ 0041a328     v5subs:wire_class.obj
 0002:00001330       ??_C@_15IEEELEJL@?$AA3?$AA1?$AA?$AA@ 0041a330     v5subs:wire_class.obj
 0002:00001338       ??_C@_17PJAGKIIC@?$AA5?$AA4?$AAB?$AA?$AA@ 0041a338     v5subs:wire_class.obj
 0002:00001340       ??_C@_17KBNAEMHM@?$AA6?$AA2?$AAB?$AA?$AA@ 0041a340     v5subs:wire_class.obj
 0002:00001348       ??_C@_15JGPBBLHF@?$AA3?$AA2?$AA?$AA@ 0041a348     v5subs:wire_class.obj
 0002:00001350       ??_C@_17OLLDAHGM@?$AA5?$AA4?$AAA?$AA?$AA@ 0041a350     v5subs:wire_class.obj
 0002:00001358       ??_C@_17LDGFODJC@?$AA6?$AA2?$AAA?$AA?$AA@ 0041a358     v5subs:wire_class.obj
 0002:00001378       ??_C@_17JLFEDMMI@?$AA?$DP?$AA?$DP?$AA?$DP?$AA?$AA@ 0041a378     v5subs:timeclas.obj
 0002:00001380       ??_C@_17MDKHMACK@?$AAj?$AAa?$AAn?$AA?$AA@ 0041a380     v5subs:timeclas.obj
 0002:00001388       ??_C@_17EFEPCIML@?$AAf?$AAe?$AAb?$AA?$AA@ 0041a388     v5subs:timeclas.obj
 0002:00001390       ??_C@_17NDKNCBBE@?$AAm?$AAa?$AAr?$AA?$AA@ 0041a390     v5subs:timeclas.obj
 0002:00001398       ??_C@_17EMIIOFGF@?$AAa?$AAp?$AAr?$AA?$AA@ 0041a398     v5subs:timeclas.obj
 0002:000013a0       ??_C@_17EKMKGBF@?$AAm?$AAa?$AAy?$AA?$AA@ 0041a3a0     v5subs:timeclas.obj
 0002:000013a8       ??_C@_17FLOAIAKH@?$AAj?$AAu?$AAn?$AA?$AA@ 0041a3a8     v5subs:timeclas.obj
 0002:000013b0       ??_C@_17PBOJEICM@?$AAj?$AAu?$AAl?$AA?$AA@ 0041a3b0     v5subs:timeclas.obj
 0002:000013b8       ??_C@_17HLICNDHL@?$AAa?$AAu?$AAg?$AA?$AA@ 0041a3b8     v5subs:timeclas.obj
 0002:000013c0       ??_C@_17ILAEIIJA@?$AAs?$AAe?$AAp?$AA?$AA@ 0041a3c0     v5subs:timeclas.obj
 0002:000013c8       ??_C@_17PJCLNILO@?$AAo?$AAc?$AAt?$AA?$AA@ 0041a3c8     v5subs:timeclas.obj
 0002:000013d0       ??_C@_17OIEKNANA@?$AAn?$AAo?$AAv?$AA?$AA@ 0041a3d0     v5subs:timeclas.obj
 0002:000013d8       ??_C@_17LPNGEIND@?$AAd?$AAe?$AAc?$AA?$AA@ 0041a3d8     v5subs:timeclas.obj
 0002:00001410       ??_C@_17MBGCMIPB@?$AAS?$AAu?$AAn?$AA?$AA@ 0041a410     v5subs:time.obj
 0002:00001418       ??_C@_17KBOMKBF@?$AAM?$AAo?$AAn?$AA?$AA@ 0041a418     v5subs:time.obj
 0002:00001420       ??_C@_17BMKGEGOJ@?$AAT?$AAu?$AAe?$AA?$AA@ 0041a420     v5subs:time.obj
 0002:00001428       ??_C@_17CJEDCEPE@?$AAW?$AAe?$AAd?$AA?$AA@ 0041a428     v5subs:time.obj
 0002:00001430       ??_C@_17GOCADIIK@?$AAT?$AAh?$AAr?$AA?$AA@ 0041a430     v5subs:time.obj
 0002:00001438       ??_C@_17HFOLPPLP@?$AAF?$AAr?$AAi?$AA?$AA@ 0041a438     v5subs:time.obj
 0002:00001440       ??_C@_17GGIBDPIH@?$AAS?$AAa?$AAt?$AA?$AA@ 0041a440     v5subs:time.obj
 0002:00001458       ??_7bad_alloc@std@@6B@     0041a458     LIBCMT:new.obj
 0002:00001460       ??_C@_0P@GHFPNOJB@bad?5allocation?$AA@ 0041a460     LIBCMT:new.obj
 0002:00001474       ??_7type_info@@6B@         0041a474     LIBCMT:typinfo.obj
 0002:00001478       __FPinit                   0041a478     LIBCMT:fpinit.obj
 0002:000014e0       ??_C@_1BI@BGOHAHKC@?$AAm?$AAs?$AAc?$AAo?$AAr?$AAe?$AAe?$AA?4?$AAd?$AAl?$AAl?$AA?$AA@ 0041a4e0     LIBCMT:crt0dat.obj
 0002:000014f8       ??_C@_0P@MIGLKIOC@CorExitProcess?$AA@ 0041a4f8     LIBCMT:crt0dat.obj
 0002:0000150c       ??_7exception@std@@6B@     0041a50c     LIBCMT:stdexcpt.obj
 0002:00001514       ??_C@_0BC@EOODALEL@Unknown?5exception?$AA@ 0041a514     LIBCMT:stdexcpt.obj
 0002:00001548       __XcptActTab               0041a548     LIBCMT:winxfltr.obj
 0002:000015d8       __XcptActTabCount          0041a5d8     LIBCMT:winxfltr.obj
 0002:000015dc       __XcptActTabSize           0041a5dc     LIBCMT:winxfltr.obj
 0002:000015e0       __First_FPE_Indx           0041a5e0     LIBCMT:winxfltr.obj
 0002:000015e4       __Num_FPE                  0041a5e4     LIBCMT:winxfltr.obj
 0002:000016a0       ??_C@_1FK@PGACCAFB@?$AAR?$AA6?$AA0?$AA0?$AA2?$AA?$AN?$AA?6?$AA?9?$AA?5?$AAf?$AAl?$AAo?$AAa?$AAt?$AAi?$AAn?$AAg?$AA?5?$AAp?$AAo?$AAi?$AAn?$AAt?$AA?5?$AAs?$AAu?$AAp?$AAp?$AAo?$AAr?$AAt?$AA?5@ 0041a6a0     LIBCMT:crt0msg.obj
 0002:00001700       ??_C@_1FE@LLNEDJMD@?$AAR?$AA6?$AA0?$AA0?$AA8?$AA?$AN?$AA?6?$AA?9?$AA?5?$AAn?$AAo?$AAt?$AA?5?$AAe?$AAn?$AAo?$AAu?$AAg?$AAh?$AA?5?$AAs?$AAp?$AAa?$AAc?$AAe?$AA?5?$AAf?$AAo?$AAr?$AA?5?$AAa?$AAr@ 0041a700     LIBCMT:crt0msg.obj
 0002:00001758       ??_C@_1FI@HONFMGBI@?$AAR?$AA6?$AA0?$AA0?$AA9?$AA?$AN?$AA?6?$AA?9?$AA?5?$AAn?$AAo?$AAt?$AA?5?$AAe?$AAn?$AAo?$AAu?$AAg?$AAh?$AA?5?$AAs?$AAp?$AAa?$AAc?$AAe?$AA?5?$AAf?$AAo?$AAr?$AA?5?$AAe?$AAn@ 0041a758     LIBCMT:crt0msg.obj
 0002:000017b0       ??_C@_1EG@BEHAGFJD@?$AAR?$AA6?$AA0?$AA1?$AA0?$AA?$AN?$AA?6?$AA?9?$AA?5?$AAa?$AAb?$AAo?$AAr?$AAt?$AA?$CI?$AA?$CJ?$AA?5?$AAh?$AAa?$AAs?$AA?5?$AAb?$AAe?$AAe?$AAn?$AA?5?$AAc?$AAa?$AAl?$AAl?$AAe?$AAd@ 0041a7b0     LIBCMT:crt0msg.obj
 0002:000017f8       ??_C@_1FI@LOGNIKDM@?$AAR?$AA6?$AA0?$AA1?$AA6?$AA?$AN?$AA?6?$AA?9?$AA?5?$AAn?$AAo?$AAt?$AA?5?$AAe?$AAn?$AAo?$AAu?$AAg?$AAh?$AA?5?$AAs?$AAp?$AAa?$AAc?$AAe?$AA?5?$AAf?$AAo?$AAr?$AA?5?$AAt?$AAh@ 0041a7f8     LIBCMT:crt0msg.obj
 0002:00001850       ??_C@_1FK@BEOGODMC@?$AAR?$AA6?$AA0?$AA1?$AA7?$AA?$AN?$AA?6?$AA?9?$AA?5?$AAu?$AAn?$AAe?$AAx?$AAp?$AAe?$AAc?$AAt?$AAe?$AAd?$AA?5?$AAm?$AAu?$AAl?$AAt?$AAi?$AAt?$AAh?$AAr?$AAe?$AAa?$AAd?$AA?5@ 0041a850     LIBCMT:crt0msg.obj
 0002:000018b0       ??_C@_1EC@JIBHAOPH@?$AAR?$AA6?$AA0?$AA1?$AA8?$AA?$AN?$AA?6?$AA?9?$AA?5?$AAu?$AAn?$AAe?$AAx?$AAp?$AAe?$AAc?$AAt?$AAe?$AAd?$AA?5?$AAh?$AAe?$AAa?$AAp?$AA?5?$AAe?$AAr?$AAr?$AAo?$AAr?$AA?$AN?$AA?6@ 0041a8b0     LIBCMT:crt0msg.obj
 0002:000018f8       ??_C@_1FC@ECHBIFBC@?$AAR?$AA6?$AA0?$AA1?$AA9?$AA?$AN?$AA?6?$AA?9?$AA?5?$AAu?$AAn?$AAa?$AAb?$AAl?$AAe?$AA?5?$AAt?$AAo?$AA?5?$AAo?$AAp?$AAe?$AAn?$AA?5?$AAc?$AAo?$AAn?$AAs?$AAo?$AAl?$AAe?$AA?5@ 0041a8f8     LIBCMT:crt0msg.obj
 0002:00001950       ??_C@_1GK@FHCKBEFA@?$AAR?$AA6?$AA0?$AA2?$AA4?$AA?$AN?$AA?6?$AA?9?$AA?5?$AAn?$AAo?$AAt?$AA?5?$AAe?$AAn?$AAo?$AAu?$AAg?$AAh?$AA?5?$AAs?$AAp?$AAa?$AAc?$AAe?$AA?5?$AAf?$AAo?$AAr?$AA?5?$AA_?$AAo@ 0041a950     LIBCMT:crt0msg.obj
 0002:000019c0       ??_C@_1EM@MAADIHMB@?$AAR?$AA6?$AA0?$AA2?$AA5?$AA?$AN?$AA?6?$AA?9?$AA?5?$AAp?$AAu?$AAr?$AAe?$AA?5?$AAv?$AAi?$AAr?$AAt?$AAu?$AAa?$AAl?$AA?5?$AAf?$AAu?$AAn?$AAc?$AAt?$AAi?$AAo?$AAn?$AA?5?$AAc@ 0041a9c0     LIBCMT:crt0msg.obj
 0002:00001a10       ??_C@_1GK@MCAAGJMO@?$AAR?$AA6?$AA0?$AA2?$AA6?$AA?$AN?$AA?6?$AA?9?$AA?5?$AAn?$AAo?$AAt?$AA?5?$AAe?$AAn?$AAo?$AAu?$AAg?$AAh?$AA?5?$AAs?$AAp?$AAa?$AAc?$AAe?$AA?5?$AAf?$AAo?$AAr?$AA?5?$AAs?$AAt@ 0041aa10     LIBCMT:crt0msg.obj
 0002:00001a80       ??_C@_1GK@MFGOKLAG@?$AAR?$AA6?$AA0?$AA2?$AA7?$AA?$AN?$AA?6?$AA?9?$AA?5?$AAn?$AAo?$AAt?$AA?5?$AAe?$AAn?$AAo?$AAu?$AAg?$AAh?$AA?5?$AAs?$AAp?$AAa?$AAc?$AAe?$AA?5?$AAf?$AAo?$AAr?$AA?5?$AAl?$AAo@ 0041aa80     LIBCMT:crt0msg.obj
 0002:00001af0       ??_C@_1EK@HHFLMAOL@?$AAR?$AA6?$AA0?$AA2?$AA8?$AA?$AN?$AA?6?$AA?9?$AA?5?$AAu?$AAn?$AAa?$AAb?$AAl?$AAe?$AA?5?$AAt?$AAo?$AA?5?$AAi?$AAn?$AAi?$AAt?$AAi?$AAa?$AAl?$AAi?$AAz?$AAe?$AA?5?$AAh?$AAe@ 0041aaf0     LIBCMT:crt0msg.obj
 0002:00001b3c       ??_C@_1DO@BMFCDCD@?$AAR?$AA6?$AA0?$AA3?$AA0?$AA?$AN?$AA?6?$AA?9?$AA?5?$AAC?$AAR?$AAT?$AA?5?$AAn?$AAo?$AAt?$AA?5?$AAi?$AAn?$AAi?$AAt?$AAi?$AAa?$AAl?$AAi?$AAz?$AAe?$AAd?$AA?$AN?$AA?6?$AA?$AA@ 0041ab3c     LIBCMT:crt0msg.obj
 0002:00001b80       ??_C@_1MG@ENCOOIDF@?$AAR?$AA6?$AA0?$AA3?$AA1?$AA?$AN?$AA?6?$AA?9?$AA?5?$AAA?$AAt?$AAt?$AAe?$AAm?$AAp?$AAt?$AA?5?$AAt?$AAo?$AA?5?$AAi?$AAn?$AAi?$AAt?$AAi?$AAa?$AAl?$AAi?$AAz?$AAe?$AA?5?$AAt@ 0041ab80     LIBCMT:crt0msg.obj
 0002:00001c48       ??_C@_1GG@GOPILAJP@?$AAR?$AA6?$AA0?$AA3?$AA2?$AA?$AN?$AA?6?$AA?9?$AA?5?$AAn?$AAo?$AAt?$AA?5?$AAe?$AAn?$AAo?$AAu?$AAg?$AAh?$AA?5?$AAs?$AAp?$AAa?$AAc?$AAe?$AA?5?$AAf?$AAo?$AAr?$AA?5?$AAl?$AAo@ 0041ac48     LIBCMT:crt0msg.obj
 0002:00001cb0       ??_C@_1BOO@KGEDBGAJ@?$AAR?$AA6?$AA0?$AA3?$AA3?$AA?$AN?$AA?6?$AA?9?$AA?5?$AAA?$AAt?$AAt?$AAe?$AAm?$AAp?$AAt?$AA?5?$AAt?$AAo?$AA?5?$AAu?$AAs?$AAe?$AA?5?$AAM?$AAS?$AAI?$AAL?$AA?5?$AAc?$AAo?$AAd@ 0041acb0     LIBCMT:crt0msg.obj
 0002:00001ea0       ??_C@_1GG@MKFPEKFO@?$AAR?$AA6?$AA0?$AA3?$AA4?$AA?$AN?$AA?6?$AA?9?$AA?5?$AAi?$AAn?$AAc?$AAo?$AAn?$AAs?$AAi?$AAs?$AAt?$AAe?$AAn?$AAt?$AA?5?$AAo?$AAn?$AAe?$AAx?$AAi?$AAt?$AA?5?$AAb?$AAe?$AAg@ 0041aea0     LIBCMT:crt0msg.obj
 0002:00001f08       ??_C@_1BO@BFCDCGC@?$AAD?$AAO?$AAM?$AAA?$AAI?$AAN?$AA?5?$AAe?$AAr?$AAr?$AAo?$AAr?$AA?$AN?$AA?6?$AA?$AA@ 0041af08     LIBCMT:crt0msg.obj
 0002:00001f28       ??_C@_1BK@KMOMNAAI@?$AAS?$AAI?$AAN?$AAG?$AA?5?$AAe?$AAr?$AAr?$AAo?$AAr?$AA?$AN?$AA?6?$AA?$AA@ 0041af28     LIBCMT:crt0msg.obj
 0002:00001f44       ??_C@_1BM@JBBEPPHI@?$AAT?$AAL?$AAO?$AAS?$AAS?$AA?5?$AAe?$AAr?$AAr?$AAo?$AAr?$AA?$AN?$AA?6?$AA?$AA@ 0041af44     LIBCMT:crt0msg.obj
 0002:00001f60       ??_C@_15JNBOKNOG@?$AA?$AN?$AA?6?$AA?$AA@ 0041af60     LIBCMT:crt0msg.obj
 0002:00001f68       ??_C@_1BO@BKOMIGKJ@?$AAr?$AAu?$AAn?$AAt?$AAi?$AAm?$AAe?$AA?5?$AAe?$AAr?$AAr?$AAo?$AAr?$AA?5?$AA?$AA@ 0041af68     LIBCMT:crt0msg.obj
 0002:00001f88       ??_C@_1DE@JNGNBFGO@?$AAR?$AAu?$AAn?$AAt?$AAi?$AAm?$AAe?$AA?5?$AAE?$AAr?$AAr?$AAo?$AAr?$AA?$CB?$AA?6?$AA?6?$AAP?$AAr?$AAo?$AAg?$AAr?$AAa?$AAm?$AA?3?$AA?5?$AA?$AA@ 0041af88     LIBCMT:crt0msg.obj
 0002:00001fbc       ??_C@_1CO@EAEJAADC@?$AA?$DM?$AAp?$AAr?$AAo?$AAg?$AAr?$AAa?$AAm?$AA?5?$AAn?$AAa?$AAm?$AAe?$AA?5?$AAu?$AAn?$AAk?$AAn?$AAo?$AAw?$AAn?$AA?$DO?$AA?$AA@ 0041afbc     LIBCMT:crt0msg.obj
 0002:00001fec       ??_C@_17LGKOMLJ@?$AA?4?$AA?4?$AA?4?$AA?$AA@ 0041afec     LIBCMT:crt0msg.obj
 0002:00001ff4       ??_C@_15IABLJNFO@?$AA?6?$AA?6?$AA?$AA@ 0041aff4     LIBCMT:crt0msg.obj
 0002:00002000       ??_C@_1EK@MBDPDCGA@?$AAM?$AAi?$AAc?$AAr?$AAo?$AAs?$AAo?$AAf?$AAt?$AA?5?$AAV?$AAi?$AAs?$AAu?$AAa?$AAl?$AA?5?$AAC?$AA?$CL?$AA?$CL?$AA?5?$AAR?$AAu?$AAn?$AAt?$AAi?$AAm?$AAe?$AA?5?$AAL?$AAi?$AAb@ 0041b000     LIBCMT:crt0msg.obj
 0002:0000204c       ??_C@_1BK@MGMFAEKH@?$AAk?$AAe?$AAr?$AAn?$AAe?$AAl?$AA3?$AA2?$AA?4?$AAd?$AAl?$AAl?$AA?$AA@ 0041b04c     LIBCMT:winapisupp.obj
 0002:00002068       ??_C@_08KNHFBNJ@FlsAlloc?$AA@ 0041b068     LIBCMT:winapisupp.obj
 0002:00002074       ??_C@_07PEJMOBNF@FlsFree?$AA@ 0041b074     LIBCMT:winapisupp.obj
 0002:0000207c       ??_C@_0M@GDNOONDI@FlsGetValue?$AA@ 0041b07c     LIBCMT:winapisupp.obj
 0002:00002088       ??_C@_0M@JCPCPOEF@FlsSetValue?$AA@ 0041b088     LIBCMT:winapisupp.obj
 0002:00002094       ??_C@_0BM@HCFOFFN@InitializeCriticalSectionEx?$AA@ 0041b094     LIBCMT:winapisupp.obj
 0002:000020b0       ??_C@_0P@DLHPPCNH@CreateEventExW?$AA@ 0041b0b0     LIBCMT:winapisupp.obj
 0002:000020c0       ??_C@_0BD@KIEEOEEH@CreateSemaphoreExW?$AA@ 0041b0c0     LIBCMT:winapisupp.obj
 0002:000020d4       ??_C@_0BI@BKLFFAPO@SetThreadStackGuarantee?$AA@ 0041b0d4     LIBCMT:winapisupp.obj
 0002:000020ec       ??_C@_0BG@OGFAJCKC@CreateThreadpoolTimer?$AA@ 0041b0ec     LIBCMT:winapisupp.obj
 0002:00002104       ??_C@_0BD@LPLEMMDI@SetThreadpoolTimer?$AA@ 0041b104     LIBCMT:winapisupp.obj
 0002:00002118       ??_C@_0CA@FMNJENH@WaitForThreadpoolTimerCallbacks?$AA@ 0041b118     LIBCMT:winapisupp.obj
 0002:00002138       ??_C@_0BF@DCFCCNOC@CloseThreadpoolTimer?$AA@ 0041b138     LIBCMT:winapisupp.obj
 0002:00002150       ??_C@_0BF@FLABGKKM@CreateThreadpoolWait?$AA@ 0041b150     LIBCMT:winapisupp.obj
 0002:00002168       ??_C@_0BC@MGCOHNA@SetThreadpoolWait?$AA@ 0041b168     LIBCMT:winapisupp.obj
 0002:0000217c       ??_C@_0BE@OCIOMIMP@CloseThreadpoolWait?$AA@ 0041b17c     LIBCMT:winapisupp.obj
 0002:00002190       ??_C@_0BJ@LKGHFHBO@FlushProcessWriteBuffers?$AA@ 0041b190     LIBCMT:winapisupp.obj
 0002:000021ac       ??_C@_0BP@KALKKPMO@FreeLibraryWhenCallbackReturns?$AA@ 0041b1ac     LIBCMT:winapisupp.obj
 0002:000021cc       ??_C@_0BK@DFNBACLA@GetCurrentProcessorNumber?$AA@ 0041b1cc     LIBCMT:winapisupp.obj
 0002:000021e8       ??_C@_0BP@KHGALBC@GetLogicalProcessorInformation?$AA@ 0041b1e8     LIBCMT:winapisupp.obj
 0002:00002208       ??_C@_0BE@FKKLLFLM@CreateSymbolicLinkW?$AA@ 0041b208     LIBCMT:winapisupp.obj
 0002:0000221c       ??_C@_0BJ@OHNKDLIJ@SetDefaultDllDirectories?$AA@ 0041b21c     LIBCMT:winapisupp.obj
 0002:00002238       ??_C@_0BE@LJANKFHF@EnumSystemLocalesEx?$AA@ 0041b238     LIBCMT:winapisupp.obj
 0002:0000224c       ??_C@_0BA@IHGNDAEB@CompareStringEx?$AA@ 0041b24c     LIBCMT:winapisupp.obj
 0002:0000225c       ??_C@_0BA@EPCJIIPD@GetDateFormatEx?$AA@ 0041b25c     LIBCMT:winapisupp.obj
 0002:0000226c       ??_C@_0BA@ONOKGCMP@GetLocaleInfoEx?$AA@ 0041b26c     LIBCMT:winapisupp.obj
 0002:0000227c       ??_C@_0BA@CIJJKCJJ@GetTimeFormatEx?$AA@ 0041b27c     LIBCMT:winapisupp.obj
 0002:0000228c       ??_C@_0BJ@PBCCBIPI@GetUserDefaultLocaleName?$AA@ 0041b28c     LIBCMT:winapisupp.obj
 0002:000022a8       ??_C@_0BC@CELBKLLA@IsValidLocaleName?$AA@ 0041b2a8     LIBCMT:winapisupp.obj
 0002:000022bc       ??_C@_0O@KKBNKAPF@LCMapStringEx?$AA@ 0041b2bc     LIBCMT:winapisupp.obj
 0002:000022cc       ??_C@_0BE@JOGNEJCI@GetCurrentPackageId?$AA@ 0041b2cc     LIBCMT:winapisupp.obj
 0002:000022e0       ??_C@_0P@CDHHOHKP@GetTickCount64?$AA@ 0041b2e0     LIBCMT:winapisupp.obj
 0002:000022f0       ??_C@_0BO@KPCLFDJJ@GetFileInformationByHandleExW?$AA@ 0041b2f0     LIBCMT:winapisupp.obj
 0002:00002310       ??_C@_0BM@MHIDLABK@SetFileInformationByHandleW?$AA@ 0041b310     LIBCMT:winapisupp.obj
 0002:0000232c       ??_C@_00CNPNBAHC@?$AA@     0041b32c     LIBCMT:wincmdln.obj
 0002:00002330       ??_C@_05KLBDPFGC@e?$CL000?$AA@ 0041b330     LIBCMT:cvt.obj
 0002:00002348       ??_C@_1M@HPNHIDJI@?$AAj?$AAa?$AA?9?$AAJ?$AAP?$AA?$AA@ 0041b348     LIBCMT:mbctype.obj
 0002:00002354       ??_C@_1M@BIBDDEMK@?$AAz?$AAh?$AA?9?$AAC?$AAN?$AA?$AA@ 0041b354     LIBCMT:mbctype.obj
 0002:00002360       ??_C@_1M@JLOOOEGK@?$AAk?$AAo?$AA?9?$AAK?$AAR?$AA?$AA@ 0041b360     LIBCMT:mbctype.obj
 0002:0000236c       ??_C@_1M@CLNBBOPM@?$AAz?$AAh?$AA?9?$AAT?$AAW?$AA?$AA@ 0041b36c     LIBCMT:mbctype.obj
 0002:00002378       ??_C@_03KOEHGMDN@Sun?$AA@  0041b378     LIBCMT:nlsdata.obj
 0002:0000237c       ??_C@_03PDAGKDH@Mon?$AA@   0041b37c     LIBCMT:nlsdata.obj
 0002:00002380       ??_C@_03NAGEINEP@Tue?$AA@  0041b380     LIBCMT:nlsdata.obj
 0002:00002384       ??_C@_03MHOMLAJA@Wed?$AA@  0041b384     LIBCMT:nlsdata.obj
 0002:00002388       ??_C@_03IOFIKPDN@Thu?$AA@  0041b388     LIBCMT:nlsdata.obj
 0002:0000238c       ??_C@_03IDIOELNC@Fri?$AA@  0041b38c     LIBCMT:nlsdata.obj
 0002:00002390       ??_C@_03FEFJNEK@Sat?$AA@   0041b390     LIBCMT:nlsdata.obj
 0002:00002394       ??_C@_06OOPIFAJ@Sunday?$AA@ 0041b394     LIBCMT:nlsdata.obj
 0002:0000239c       ??_C@_06JLEDEDGH@Monday?$AA@ 0041b39c     LIBCMT:nlsdata.obj
 0002:000023a4       ??_C@_07BAAGCFCM@Tuesday?$AA@ 0041b3a4     LIBCMT:nlsdata.obj
 0002:000023ac       ??_C@_09DLIGFAKA@Wednesday?$AA@ 0041b3ac     LIBCMT:nlsdata.obj
 0002:000023b8       ??_C@_08HACCIKIA@Thursday?$AA@ 0041b3b8     LIBCMT:nlsdata.obj
 0002:000023c4       ??_C@_06JECMNKMI@Friday?$AA@ 0041b3c4     LIBCMT:nlsdata.obj
 0002:000023cc       ??_C@_08INBOOONO@Saturday?$AA@ 0041b3cc     LIBCMT:nlsdata.obj
 0002:000023d8       ??_C@_03JIHJHPIE@Jan?$AA@  0041b3d8     LIBCMT:nlsdata.obj
 0002:000023dc       ??_C@_03HJBDCHOM@Feb?$AA@  0041b3dc     LIBCMT:nlsdata.obj
 0002:000023e0       ??_C@_03ODNJBKGA@Mar?$AA@  0041b3e0     LIBCMT:nlsdata.obj
 0002:000023e4       ??_C@_03LEOLGMJP@Apr?$AA@  0041b3e4     LIBCMT:nlsdata.obj
 0002:000023e8       ??_C@_03CNMDKL@May?$AA@    0041b3e8     LIBCMT:nlsdata.obj
 0002:000023ec       ??_C@_03IDFGHECI@Jun?$AA@  0041b3ec     LIBCMT:nlsdata.obj
 0002:000023f0       ??_C@_03LBGABGKK@Jul?$AA@  0041b3f0     LIBCMT:nlsdata.obj
 0002:000023f4       ??_C@_03IFJFEIGA@Aug?$AA@  0041b3f4     LIBCMT:nlsdata.obj
 0002:000023f8       ??_C@_03GGCAPAJC@Sep?$AA@  0041b3f8     LIBCMT:nlsdata.obj
 0002:000023fc       ??_C@_03BMAOKBAD@Oct?$AA@  0041b3fc     LIBCMT:nlsdata.obj
 0002:00002400       ??_C@_03JPJOFNIA@Nov?$AA@  0041b400     LIBCMT:nlsdata.obj
 0002:00002404       ??_C@_03MKABNOCG@Dec?$AA@  0041b404     LIBCMT:nlsdata.obj
 0002:00002408       ??_C@_07CGJPFGJA@January?$AA@ 0041b408     LIBCMT:nlsdata.obj
 0002:00002410       ??_C@_08GNJGEPFN@February?$AA@ 0041b410     LIBCMT:nlsdata.obj
 0002:0000241c       ??_C@_05HPCKOFNC@March?$AA@ 0041b41c     LIBCMT:nlsdata.obj
 0002:00002424       ??_C@_05DMJDNLEJ@April?$AA@ 0041b424     LIBCMT:nlsdata.obj
 0002:0000242c       ??_C@_04CNLMGBGM@June?$AA@ 0041b42c     LIBCMT:nlsdata.obj
 0002:00002434       ??_C@_04MIEPOIFP@July?$AA@ 0041b434     LIBCMT:nlsdata.obj
 0002:0000243c       ??_C@_06LBBHFDDG@August?$AA@ 0041b43c     LIBCMT:nlsdata.obj
 0002:00002444       ??_C@_09BHHEALKD@September?$AA@ 0041b444     LIBCMT:nlsdata.obj
 0002:00002450       ??_C@_07JJNFCEND@October?$AA@ 0041b450     LIBCMT:nlsdata.obj
 0002:00002458       ??_C@_08HCHEGEOA@November?$AA@ 0041b458     LIBCMT:nlsdata.obj
 0002:00002464       ??_C@_08EDHMEBNP@December?$AA@ 0041b464     LIBCMT:nlsdata.obj
 0002:00002470       ??_C@_02DEDBPAFC@AM?$AA@   0041b470     LIBCMT:nlsdata.obj
 0002:00002474       ??_C@_02CJNFDJBF@PM?$AA@   0041b474     LIBCMT:nlsdata.obj
 0002:00002478       ??_C@_08BPBNCDIB@MM?1dd?1yy?$AA@ 0041b478     LIBCMT:nlsdata.obj
 0002:00002484       ??_C@_0BE@CKGJFCPC@dddd?0?5MMMM?5dd?0?5yyyy?$AA@ 0041b484     LIBCMT:nlsdata.obj
 0002:00002498       ??_C@_08JCCMCCIL@HH?3mm?3ss?$AA@ 0041b498     LIBCMT:nlsdata.obj
 0002:000024a4       ??_C@_17PDPHAADD@?$AAT?$AAh?$AAu?$AA?$AA@ 0041b4a4     LIBCMT:nlsdata.obj
 0002:000024ac       ??_C@_1O@IHNHDHPB@?$AAS?$AAu?$AAn?$AAd?$AAa?$AAy?$AA?$AA@ 0041b4ac     LIBCMT:nlsdata.obj
 0002:000024bc       ??_C@_1O@MMNBFLIA@?$AAM?$AAo?$AAn?$AAd?$AAa?$AAy?$AA?$AA@ 0041b4bc     LIBCMT:nlsdata.obj
 0002:000024cc       ??_C@_1BA@ENFBFFEK@?$AAT?$AAu?$AAe?$AAs?$AAd?$AAa?$AAy?$AA?$AA@ 0041b4cc     LIBCMT:nlsdata.obj
 0002:000024dc       ??_C@_1BE@EBOGMDOH@?$AAW?$AAe?$AAd?$AAn?$AAe?$AAs?$AAd?$AAa?$AAy?$AA?$AA@ 0041b4dc     LIBCMT:nlsdata.obj
 0002:000024f0       ??_C@_1BC@HHMNLIHE@?$AAT?$AAh?$AAu?$AAr?$AAs?$AAd?$AAa?$AAy?$AA?$AA@ 0041b4f0     LIBCMT:nlsdata.obj
 0002:00002504       ??_C@_1O@PDICJHAG@?$AAF?$AAr?$AAi?$AAd?$AAa?$AAy?$AA?$AA@ 0041b504     LIBCMT:nlsdata.obj
 0002:00002514       ??_C@_1BC@ENMNNPAJ@?$AAS?$AAa?$AAt?$AAu?$AAr?$AAd?$AAa?$AAy?$AA?$AA@ 0041b514     LIBCMT:nlsdata.obj
 0002:00002528       ??_C@_17DKNBKCHM@?$AAJ?$AAa?$AAn?$AA?$AA@ 0041b528     LIBCMT:nlsdata.obj
 0002:00002530       ??_C@_17LMDJEKJN@?$AAF?$AAe?$AAb?$AA?$AA@ 0041b530     LIBCMT:nlsdata.obj
 0002:00002538       ??_C@_17CKNLEDEC@?$AAM?$AAa?$AAr?$AA?$AA@ 0041b538     LIBCMT:nlsdata.obj
 0002:00002540       ??_C@_17LFPOIHDD@?$AAA?$AAp?$AAr?$AA?$AA@ 0041b540     LIBCMT:nlsdata.obj
 0002:00002548       ??_C@_17PNNKMEED@?$AAM?$AAa?$AAy?$AA?$AA@ 0041b548     LIBCMT:nlsdata.obj
 0002:00002550       ??_C@_17KCJGOCPB@?$AAJ?$AAu?$AAn?$AA?$AA@ 0041b550     LIBCMT:nlsdata.obj
 0002:00002558       ??_C@_17IJPCKHK@?$AAJ?$AAu?$AAl?$AA?$AA@ 0041b558     LIBCMT:nlsdata.obj
 0002:00002560       ??_C@_17ICPELBCN@?$AAA?$AAu?$AAg?$AA?$AA@ 0041b560     LIBCMT:nlsdata.obj
 0002:00002568       ??_C@_17HCHCOKMG@?$AAS?$AAe?$AAp?$AA?$AA@ 0041b568     LIBCMT:nlsdata.obj
 0002:00002570       ??_C@_17FNLKOI@?$AAO?$AAc?$AAt?$AA?$AA@ 0041b570     LIBCMT:nlsdata.obj
 0002:00002578       ??_C@_17BBDMLCIG@?$AAN?$AAo?$AAv?$AA?$AA@ 0041b578     LIBCMT:nlsdata.obj
 0002:00002580       ??_C@_17EGKACKIF@?$AAD?$AAe?$AAc?$AA?$AA@ 0041b580     LIBCMT:nlsdata.obj
 0002:00002588       ??_C@_1BA@EFMEIEBA@?$AAJ?$AAa?$AAn?$AAu?$AAa?$AAr?$AAy?$AA?$AA@ 0041b588     LIBCMT:nlsdata.obj
 0002:00002598       ??_C@_1BC@JGDDFFAM@?$AAF?$AAe?$AAb?$AAr?$AAu?$AAa?$AAr?$AAy?$AA?$AA@ 0041b598     LIBCMT:nlsdata.obj
 0002:000025ac       ??_C@_1M@IKEENEDF@?$AAM?$AAa?$AAr?$AAc?$AAh?$AA?$AA@ 0041b5ac     LIBCMT:nlsdata.obj
 0002:000025b8       ??_C@_1M@GJNLMHFD@?$AAA?$AAp?$AAr?$AAi?$AAl?$AA?$AA@ 0041b5b8     LIBCMT:nlsdata.obj
 0002:000025c4       ??_C@_19EPFLPGAP@?$AAJ?$AAu?$AAn?$AAe?$AA?$AA@ 0041b5c4     LIBCMT:nlsdata.obj
 0002:000025d0       ??_C@_19BIFMLPCD@?$AAJ?$AAu?$AAl?$AAy?$AA?$AA@ 0041b5d0     LIBCMT:nlsdata.obj
 0002:000025dc       ??_C@_1O@PAHLKOAC@?$AAA?$AAu?$AAg?$AAu?$AAs?$AAt?$AA?$AA@ 0041b5dc     LIBCMT:nlsdata.obj
 0002:000025ec       ??_C@_1BE@DKAAMBJL@?$AAS?$AAe?$AAp?$AAt?$AAe?$AAm?$AAb?$AAe?$AAr?$AA?$AA@ 0041b5ec     LIBCMT:nlsdata.obj
 0002:00002600       ??_C@_1BA@EPANDLNG@?$AAO?$AAc?$AAt?$AAo?$AAb?$AAe?$AAr?$AA?$AA@ 0041b600     LIBCMT:nlsdata.obj
 0002:00002610       ??_C@_1BC@BGLIFPF@?$AAN?$AAo?$AAv?$AAe?$AAm?$AAb?$AAe?$AAr?$AA?$AA@ 0041b610     LIBCMT:nlsdata.obj
 0002:00002624       ??_C@_1BC@FEMKIFH@?$AAD?$AAe?$AAc?$AAe?$AAm?$AAb?$AAe?$AAr?$AA?$AA@ 0041b624     LIBCMT:nlsdata.obj
 0002:00002638       ??_C@_15ODEHAHHF@?$AAA?$AAM?$AA?$AA@ 0041b638     LIBCMT:nlsdata.obj
 0002:00002640       ??_C@_15CLMNNGEL@?$AAP?$AAM?$AA?$AA@ 0041b640     LIBCMT:nlsdata.obj
 0002:00002648       ??_C@_1BC@IEBCMHCM@?$AAM?$AAM?$AA?1?$AAd?$AAd?$AA?1?$AAy?$AAy?$AA?$AA@ 0041b648     LIBCMT:nlsdata.obj
 0002:0000265c       ??_C@_1CI@KNAKOEBC@?$AAd?$AAd?$AAd?$AAd?$AA?0?$AA?5?$AAM?$AAM?$AAM?$AAM?$AA?5?$AAd?$AAd?$AA?0?$AA?5?$AAy?$AAy?$AAy?$AAy?$AA?$AA@ 0041b65c     LIBCMT:nlsdata.obj
 0002:00002684       ??_C@_1BC@GDGBMEMK@?$AAH?$AAH?$AA?3?$AAm?$AAm?$AA?3?$AAs?$AAs?$AA?$AA@ 0041b684     LIBCMT:nlsdata.obj
 0002:00002698       ??_C@_1M@BMHNFIME@?$AAe?$AAn?$AA?9?$AAU?$AAS?$AA?$AA@ 0041b698     LIBCMT:nlsdata.obj
 0002:00002790       ??_C@_03MGHMBJCF@log?$AA@  0041b790     LIBCMT:libm_error.obj
 0002:00002794       ??_C@_05HGHHAHAP@log10?$AA@ 0041b794     LIBCMT:libm_error.obj
 0002:0000279c       ??_C@_03KHJOGHMM@exp?$AA@  0041b79c     LIBCMT:libm_error.obj
 0002:000027a0       ??_C@_03JGHBODFD@pow?$AA@  0041b7a0     LIBCMT:libm_error.obj
 0002:000027a4       ??_C@_04FIHNOPOL@asin?$AA@ 0041b7a4     LIBCMT:libm_error.obj
 0002:000027ac       ??_C@_04PDIFKINK@acos?$AA@ 0041b7ac     LIBCMT:libm_error.obj
 0002:000027b4       ??_C@_05EOHGHCHD@exp10?$AA@ 0041b7b4     LIBCMT:libm_error.obj
 0002:000027bc       ??_C@_04MLLJIGOK@atan?$AA@ 0041b7bc     LIBCMT:libm_error.obj
 0002:000027c4       ??_C@_04GFPJNGEK@ceil?$AA@ 0041b7c4     LIBCMT:libm_error.obj
 0002:000027cc       ??_C@_05PBJFFIGL@floor?$AA@ 0041b7cc     LIBCMT:libm_error.obj
 0002:000027d4       ??_C@_04EHEDPDJG@modf?$AA@ 0041b7d4     LIBCMT:libm_error.obj
 0002:000027dc       ??_C@_03BLEJJJBH@sin?$AA@  0041b7dc     LIBCMT:libm_error.obj
 0002:000027e0       ??_C@_03LALBNOCG@cos?$AA@  0041b7e0     LIBCMT:libm_error.obj
 0002:000027e4       ??_C@_03IIINPABG@tan?$AA@  0041b7e4     LIBCMT:libm_error.obj
 0002:000027e8       ??_C@_04EIAKFFMI@sqrt?$AA@ 0041b7e8     LIBCMT:libm_error.obj
 0002:0000297c       ??_C@_08EHJDFFNH@__based?$CI?$AA@ 0041b97c     LIBCMT:undname.obj
 0002:00002988       ??_C@_07KOLFKCDI@__cdecl?$AA@ 0041b988     LIBCMT:undname.obj
 0002:00002990       ??_C@_08GHMPAG@__pascal?$AA@ 0041b990     LIBCMT:undname.obj
 0002:0000299c       ??_C@_09IFJBGAPI@__stdcall?$AA@ 0041b99c     LIBCMT:undname.obj
 0002:000029a8       ??_C@_0L@NPHFGOKO@__thiscall?$AA@ 0041b9a8     LIBCMT:undname.obj
 0002:000029b4       ??_C@_0L@JMKHOMEK@__fastcall?$AA@ 0041b9b4     LIBCMT:undname.obj
 0002:000029c0       ??_C@_0N@BCKKPABJ@__vectorcall?$AA@ 0041b9c0     LIBCMT:undname.obj
 0002:000029d0       ??_C@_09HIJEGCPM@__clrcall?$AA@ 0041b9d0     LIBCMT:undname.obj
 0002:000029dc       ??_C@_06GHPCKEAG@__eabi?$AA@ 0041b9dc     LIBCMT:undname.obj
 0002:000029e4       ??_C@_07JOMMBBKO@__ptr64?$AA@ 0041b9e4     LIBCMT:undname.obj
 0002:000029ec       ??_C@_0L@PILCLIHE@__restrict?$AA@ 0041b9ec     LIBCMT:undname.obj
 0002:000029f8       ??_C@_0M@GFIIJFMG@__unaligned?$AA@ 0041b9f8     LIBCMT:undname.obj
 0002:00002a04       ??_C@_09DHDLOLLB@restrict?$CI?$AA@ 0041ba04     LIBCMT:undname.obj
 0002:00002a10       ??_C@_04NIHEBCM@?5new?$AA@ 0041ba10     LIBCMT:undname.obj
 0002:00002a18       ??_C@_07FPCDHGMM@?5delete?$AA@ 0041ba18     LIBCMT:undname.obj
 0002:00002a20       ??_C@_01NEMOKFLO@?$DN?$AA@ 0041ba20     LIBCMT:undname.obj
 0002:00002a24       ??_C@_02GPIOPFAK@?$DO?$DO?$AA@ 0041ba24     LIBCMT:undname.obj
 0002:00002a28       ??_C@_02FODMEDOG@?$DM?$DM?$AA@ 0041ba28     LIBCMT:undname.obj
 0002:00002a2c       ??_C@_01DCLJPIOD@?$CB?$AA@ 0041ba2c     LIBCMT:undname.obj
 0002:00002a30       ??_C@_02EGOFBIJA@?$DN?$DN?$AA@ 0041ba30     LIBCMT:undname.obj
 0002:00002a34       ??_C@_02FDNJECIE@?$CB?$DN?$AA@ 0041ba34     LIBCMT:undname.obj
 0002:00002a38       ??_C@_02GPECMEKF@?$FL?$FN?$AA@ 0041ba38     LIBCMT:undname.obj
 0002:00002a3c       ??_C@_08LHJFAFGD@operator?$AA@ 0041ba3c     LIBCMT:undname.obj
 0002:00002a48       ??_C@_02HBOOOICD@?9?$DO?$AA@ 0041ba48     LIBCMT:undname.obj
 0002:00002a4c       ??_C@_01NBENCBCI@?$CK?$AA@ 0041ba4c     LIBCMT:undname.obj
 0002:00002a50       ??_C@_02ECNGHCIF@?$CL?$CL?$AA@ 0041ba50     LIBCMT:undname.obj
 0002:00002a54       ??_C@_02BAABKJLB@?9?9?$AA@ 0041ba54     LIBCMT:undname.obj
 0002:00002a58       ??_C@_01JOAMLHOP@?9?$AA@   0041ba58     LIBCMT:undname.obj
 0002:00002a5c       ??_C@_01MIFGBAGJ@?$CL?$AA@ 0041ba5c     LIBCMT:undname.obj
 0002:00002a60       ??_C@_01HNPIGOCE@?$CG?$AA@ 0041ba60     LIBCMT:undname.obj
 0002:00002a64       ??_C@_03MNHNFDLC@?9?$DO?$CK?$AA@ 0041ba64     LIBCMT:undname.obj
 0002:00002a68       ??_C@_01KMDKNFGN@?1?$AA@   0041ba68     LIBCMT:undname.obj
 0002:00002a6c       ??_C@_01FGNFDNOH@?$CF?$AA@ 0041ba6c     LIBCMT:undname.obj
 0002:00002a70       ??_C@_01MNNFJEPP@?$DM?$AA@ 0041ba70     LIBCMT:undname.obj
 0002:00002a74       ??_C@_02EHCHHCKH@?$DM?$DN?$AA@ 0041ba74     LIBCMT:undname.obj
 0002:00002a78       ??_C@_01PPODPGHN@?$DO?$AA@ 0041ba78     LIBCMT:undname.obj
 0002:00002a7c       ??_C@_02EEKDKGMJ@?$DO?$DN?$AA@ 0041ba7c     LIBCMT:undname.obj
 0002:00002a80       ??_C@_01IHBHIGKO@?0?$AA@   0041ba80     LIBCMT:undname.obj
 0002:00002a84       ??_C@_02HCKGKOFO@?$CI?$CJ?$AA@ 0041ba84     LIBCMT:undname.obj
 0002:00002a88       ??_C@_01PJKLJHI@?$HO?$AA@  0041ba88     LIBCMT:undname.obj
 0002:00002a8c       ??_C@_01JKBOJNNK@?$FO?$AA@ 0041ba8c     LIBCMT:undname.obj
 0002:00002a90       ??_C@_01DNKMNLPK@?$HM?$AA@ 0041ba90     LIBCMT:undname.obj
 0002:00002a94       ??_C@_02PPKAJPJL@?$CG?$CG?$AA@ 0041ba94     LIBCMT:undname.obj
 0002:00002a98       ??_C@_02NONPIBCD@?$HM?$HM?$AA@ 0041ba98     LIBCMT:undname.obj
 0002:00002a9c       ??_C@_02FPIMKNGF@?$CK?$DN?$AA@ 0041ba9c     LIBCMT:undname.obj
 0002:00002aa0       ??_C@_02FOEOMHFC@?$CL?$DN?$AA@ 0041baa0     LIBCMT:undname.obj
 0002:00002aa4       ??_C@_02FKMDLLOA@?9?$DN?$AA@ 0041baa4     LIBCMT:undname.obj
 0002:00002aa8       ??_C@_02FJEHGPIO@?1?$DN?$AA@ 0041baa8     LIBCMT:undname.obj
 0002:00002aac       ??_C@_02FENAOKFI@?$CF?$DN?$AA@ 0041baac     LIBCMT:undname.obj
 0002:00002ab0       ??_C@_03IKFCCPFF@?$DO?$DO?$DN?$AA@ 0041bab0     LIBCMT:undname.obj
 0002:00002ab4       ??_C@_03CDNPDDLA@?$DM?$DM?$DN?$AA@ 0041bab4     LIBCMT:undname.obj
 0002:00002ab8       ??_C@_02FGJGFEAB@?$CG?$DN?$AA@ 0041bab8     LIBCMT:undname.obj
 0002:00002abc       ??_C@_02DHLNPPGH@?$HM?$DN?$AA@ 0041babc     LIBCMT:undname.obj
 0002:00002ac0       ??_C@_02MHEGNOJ@?$FO?$DN?$AA@ 0041bac0     LIBCMT:undname.obj
 0002:00002ac4       ??_C@_09IFPLHPGF@?$GAvftable?8?$AA@ 0041bac4     LIBCMT:undname.obj
 0002:00002ad0       ??_C@_09BLBHBJP@?$GAvbtable?8?$AA@ 0041bad0     LIBCMT:undname.obj
 0002:00002adc       ??_C@_07FEEIOKP@?$GAvcall?8?$AA@ 0041badc     LIBCMT:undname.obj
 0002:00002ae4       ??_C@_08LLFFHHDJ@?$GAtypeof?8?$AA@ 0041bae4     LIBCMT:undname.obj
 0002:00002af0       ??_C@_0BF@KDPPACIK@?$GAlocal?5static?5guard?8?$AA@ 0041baf0     LIBCMT:undname.obj
 0002:00002b08       ??_C@_08OBABFOLI@?$GAstring?8?$AA@ 0041bb08     LIBCMT:undname.obj
 0002:00002b14       ??_C@_0BD@JDLKDPAB@?$GAvbase?5destructor?8?$AA@ 0041bb14     LIBCMT:undname.obj
 0002:00002b28       ??_C@_0BN@DEGPLNFK@?$GAvector?5deleting?5destructor?8?$AA@ 0041bb28     LIBCMT:undname.obj
 0002:00002b48       ??_C@_0BO@OBMKPJIG@?$GAdefault?5constructor?5closure?8?$AA@ 0041bb48     LIBCMT:undname.obj
 0002:00002b68       ??_C@_0BN@IMDCHIKM@?$GAscalar?5deleting?5destructor?8?$AA@ 0041bb68     LIBCMT:undname.obj
 0002:00002b88       ??_C@_0BO@PFGOCPJJ@?$GAvector?5constructor?5iterator?8?$AA@ 0041bb88     LIBCMT:undname.obj
 0002:00002ba8       ??_C@_0BN@LFPFMEDL@?$GAvector?5destructor?5iterator?8?$AA@ 0041bba8     LIBCMT:undname.obj
 0002:00002bc8       ??_C@_0CE@IKBNEHA@?$GAvector?5vbase?5constructor?5iterat@ 0041bbc8     LIBCMT:undname.obj
 0002:00002bec       ??_C@_0BL@NILFHHPC@?$GAvirtual?5displacement?5map?8?$AA@ 0041bbec     LIBCMT:undname.obj
 0002:00002c08       ??_C@_0CB@JONCMFFK@?$GAeh?5vector?5constructor?5iterator?8@ 0041bc08     LIBCMT:undname.obj
 0002:00002c2c       ??_C@_0CA@GCEOPDGL@?$GAeh?5vector?5destructor?5iterator?8?$AA@ 0041bc2c     LIBCMT:undname.obj
 0002:00002c4c       ??_C@_0CH@OOJPLCPH@?$GAeh?5vector?5vbase?5constructor?5ite@ 0041bc4c     LIBCMT:undname.obj
 0002:00002c74       ??_C@_0BL@LLKPOHJI@?$GAcopy?5constructor?5closure?8?$AA@ 0041bc74     LIBCMT:undname.obj
 0002:00002c90       ??_C@_0BA@KBCDOMBN@?$GAudt?5returning?8?$AA@ 0041bc90     LIBCMT:undname.obj
 0002:00002ca0       ??_C@_03KLGMFNMG@?$GAEH?$AA@ 0041bca0     LIBCMT:undname.obj
 0002:00002ca4       ??_C@_05KHLCHHI@?$GARTTI?$AA@ 0041bca4     LIBCMT:undname.obj
 0002:00002cac       ??_C@_0BA@KKLDJDLB@?$GAlocal?5vftable?8?$AA@ 0041bcac     LIBCMT:undname.obj
 0002:00002cbc       ??_C@_0CE@IIHCMGGL@?$GAlocal?5vftable?5constructor?5closu@ 0041bcbc     LIBCMT:undname.obj
 0002:00002ce0       ??_C@_06FHBGPFGH@?5new?$FL?$FN?$AA@ 0041bce0     LIBCMT:undname.obj
 0002:00002ce8       ??_C@_09LBNFPBCA@?5delete?$FL?$FN?$AA@ 0041bce8     LIBCMT:undname.obj
 0002:00002cf4       ??_C@_0P@HJKNJFNN@?$GAomni?5callsig?8?$AA@ 0041bcf4     LIBCMT:undname.obj
 0002:00002d04       ??_C@_0BL@CNOONJFP@?$GAplacement?5delete?5closure?8?$AA@ 0041bd04     LIBCMT:undname.obj
 0002:00002d20       ??_C@_0BN@CKNJLHMB@?$GAplacement?5delete?$FL?$FN?5closure?8?$AA@ 0041bd20     LIBCMT:undname.obj
 0002:00002d40       ??_C@_0CG@CFDHKGGD@?$GAmanaged?5vector?5constructor?5iter@ 0041bd40     LIBCMT:undname.obj
 0002:00002d68       ??_C@_0CF@IMGKMJNO@?$GAmanaged?5vector?5destructor?5itera@ 0041bd68     LIBCMT:undname.obj
 0002:00002d90       ??_C@_0CG@HLDDJMAG@?$GAeh?5vector?5copy?5constructor?5iter@ 0041bd90     LIBCMT:undname.obj
 0002:00002db8       ??_C@_0CM@FCBBDIGB@?$GAeh?5vector?5vbase?5copy?5constructo@ 0041bdb8     LIBCMT:undname.obj
 0002:00002de4       ??_C@_0BL@CLIPGLGB@?$GAdynamic?5initializer?5for?5?8?$AA@ 0041bde4     LIBCMT:undname.obj
 0002:00002e00       ??_C@_0CB@PDBIFEP@?$GAdynamic?5atexit?5destructor?5for?5?8@ 0041be00     LIBCMT:undname.obj
 0002:00002e24       ??_C@_0CD@CGAJBKEJ@?$GAvector?5copy?5constructor?5iterato@ 0041be24     LIBCMT:undname.obj
 0002:00002e48       ??_C@_0CJ@GJELGAMM@?$GAvector?5vbase?5copy?5constructor?5i@ 0041be48     LIBCMT:undname.obj
 0002:00002e74       ??_C@_0CL@FGIJHLCE@?$GAmanaged?5vector?5copy?5constructor@ 0041be74     LIBCMT:undname.obj
 0002:00002ea0       ??_C@_0BM@PMGGMLDN@?$GAlocal?5static?5thread?5guard?8?$AA@ 0041bea0     LIBCMT:undname.obj
 0002:00002ebc       ??_C@_0BC@DAFEJGAK@?5Type?5Descriptor?8?$AA@ 0041bebc     LIBCMT:undname.obj
 0002:00002ed0       ??_C@_0BM@LDKODKLH@?5Base?5Class?5Descriptor?5at?5?$CI?$AA@ 0041bed0     LIBCMT:undname.obj
 0002:00002eec       ??_C@_0BD@LGICGFMM@?5Base?5Class?5Array?8?$AA@ 0041beec     LIBCMT:undname.obj
 0002:00002f00       ??_C@_0BN@MECKDCOJ@?5Class?5Hierarchy?5Descriptor?8?$AA@ 0041bf00     LIBCMT:undname.obj
 0002:00002f20       ??_C@_0BK@CFCOFLF@?5Complete?5Object?5Locator?8?$AA@ 0041bf20     LIBCMT:undname.obj
 0002:00002f3c       ??_C@_1BG@GOEBHBDC@?$AAU?$AAS?$AAE?$AAR?$AA3?$AA2?$AA?4?$AAD?$AAL?$AAL?$AA?$AA@ 0041bf3c     LIBCMT:crtmboxw.obj
 0002:00002f54       ??_C@_0M@DLDCCGNP@MessageBoxW?$AA@ 0041bf54     LIBCMT:crtmboxw.obj
 0002:00002f60       ??_C@_0BA@HNOPNCHB@GetActiveWindow?$AA@ 0041bf60     LIBCMT:crtmboxw.obj
 0002:00002f70       ??_C@_0BD@HHGDFDBJ@GetLastActivePopup?$AA@ 0041bf70     LIBCMT:crtmboxw.obj
 0002:00002f84       ??_C@_0BK@DEKFELLI@GetUserObjectInformationW?$AA@ 0041bf84     LIBCMT:crtmboxw.obj
 0002:00002fa0       ??_C@_0BI@DFKBFLJE@GetProcessWindowStation?$AA@ 0041bfa0     LIBCMT:crtmboxw.obj
 0002:00002fb8       ___newctype                0041bfb8     LIBCMT:ctype.obj
 0002:000032b8       __wctype                   0041c2b8     LIBCMT:ctype.obj
 0002:000034c0       ___newclmap                0041c4c0     LIBCMT:ctype.obj
 0002:00003640       ___newcumap                0041c640     LIBCMT:ctype.obj
 0002:000037c0       ??_C@_15PJPFLCCM@?$AAu?$AAk?$AA?$AA@ 0041c7c0     LIBCMT:getqloc.obj
 0002:000037c8       ___rg_language_count       0041c7c8     LIBCMT:getqloc.obj
 0002:000037cc       ___rg_country_count        0041c7cc     LIBCMT:getqloc.obj
 0002:000037d0       _LcidToLocaleNameTable     0041c7d0     LIBCMT:winapinls.obj
 0002:00003ef0       _LocaleNameToIndexTable    0041cef0     LIBCMT:winapinls.obj
 0002:00004610       ??_C@_15EMKDOKLE@?$AAa?$AAr?$AA?$AA@ 0041d610     LIBCMT:winapinls.obj
 0002:00004618       ??_C@_15KNPADPLH@?$AAb?$AAg?$AA?$AA@ 0041d618     LIBCMT:winapinls.obj
 0002:00004620       ??_C@_15EDMHLDMO@?$AAc?$AAa?$AA?$AA@ 0041d620     LIBCMT:winapinls.obj
 0002:00004628       ??_C@_1O@BPEAJADD@?$AAz?$AAh?$AA?9?$AAC?$AAH?$AAS?$AA?$AA@ 0041d628     LIBCMT:winapinls.obj
 0002:00004638       ??_C@_15LJNHCMNK@?$AAc?$AAs?$AA?$AA@ 0041d638     LIBCMT:winapinls.obj
 0002:00004640       ??_C@_15FOMCIDHG@?$AAd?$AAa?$AA?$AA@ 0041d640     LIBCMT:winapinls.obj
 0002:00004648       ??_C@_15NBKABECB@?$AAd?$AAe?$AA?$AA@ 0041d648     LIBCMT:winapinls.obj
 0002:00004650       ??_C@_15GHPEIIAO@?$AAe?$AAl?$AA?$AA@ 0041d650     LIBCMT:winapinls.obj
 0002:00004658       ??_C@_15MNPNEAIF@?$AAe?$AAn?$AA?$AA@ 0041d658     LIBCMT:winapinls.obj
 0002:00004660       ??_C@_15GPIOMPMH@?$AAe?$AAs?$AA?$AA@ 0041d660     LIBCMT:winapinls.obj
 0002:00004668       ??_C@_15NGLOAKJC@?$AAf?$AAi?$AA?$AA@ 0041d668     LIBCMT:winapinls.obj
 0002:00004670       ??_C@_15FBKGNKAM@?$AAf?$AAr?$AA?$AA@ 0041d670     LIBCMT:winapinls.obj
 0002:00004678       ??_C@_15KGGCNEFK@?$AAh?$AAe?$AA?$AA@ 0041d678     LIBCMT:winapinls.obj
 0002:00004680       ??_C@_15PGHLIDMF@?$AAh?$AAu?$AA?$AA@ 0041d680     LIBCMT:winapinls.obj
 0002:00004688       ??_C@_15BIEMAPLM@?$AAi?$AAs?$AA?$AA@ 0041d688     LIBCMT:winapinls.obj
 0002:00004690       ??_C@_15IFJLDHAF@?$AAi?$AAt?$AA?$AA@ 0041d690     LIBCMT:winapinls.obj
 0002:00004698       ??_C@_15GEMIOCAG@?$AAj?$AAa?$AA?$AA@ 0041d698     LIBCMT:winapinls.obj
 0002:000046a0       ??_C@_15EPELEGJA@?$AAk?$AAo?$AA?$AA@ 0041d6a0     LIBCMT:winapinls.obj
 0002:000046a8       ??_C@_15NDDHIMN@?$AAn?$AAl?$AA?$AA@ 0041d6a8     LIBCMT:winapinls.obj
 0002:000046b0       ??_C@_15BPIGNHCD@?$AAn?$AAo?$AA?$AA@ 0041d6b0     LIBCMT:winapinls.obj
 0002:000046b8       ??_C@_15DEOPBLCG@?$AAp?$AAl?$AA?$AA@ 0041d6b8     LIBCMT:winapinls.obj
 0002:000046c0       ??_C@_15KBECGEFG@?$AAp?$AAt?$AA?$AA@ 0041d6c0     LIBCMT:winapinls.obj
 0002:000046c8       ??_C@_15GLJCBFMD@?$AAr?$AAo?$AA?$AA@ 0041d6c8     LIBCMT:winapinls.obj
 0002:000046d0       ??_C@_15FEDGKCDI@?$AAr?$AAu?$AA?$AA@ 0041d6d0     LIBCMT:winapinls.obj
 0002:000046d8       ??_C@_15GLKMLLHM@?$AAh?$AAr?$AA?$AA@ 0041d6d8     LIBCMT:winapinls.obj
 0002:000046e0       ??_C@_15CPKMFBDB@?$AAs?$AAk?$AA?$AA@ 0041d6e0     LIBCMT:winapinls.obj
 0002:000046e8       ??_C@_15BAAIOGMK@?$AAs?$AAq?$AA?$AA@ 0041d6e8     LIBCMT:winapinls.obj
 0002:000046f0       ??_C@_15INNPNOHD@?$AAs?$AAv?$AA?$AA@ 0041d6f0     LIBCMT:winapinls.obj
 0002:000046f8       ??_C@_15CABMMOGH@?$AAt?$AAh?$AA?$AA@ 0041d6f8     LIBCMT:winapinls.obj
 0002:00004700       ??_C@_15BPLIHJJM@?$AAt?$AAr?$AA?$AA@ 0041d700     LIBCMT:winapinls.obj
 0002:00004708       ??_C@_15NEOEKKDJ@?$AAu?$AAr?$AA?$AA@ 0041d708     LIBCMT:winapinls.obj
 0002:00004710       ??_C@_15NFICGAJK@?$AAi?$AAd?$AA?$AA@ 0041d710     LIBCMT:winapinls.obj
 0002:00004718       ??_C@_15HPJPHDM@?$AAb?$AAe?$AA?$AA@ 0041d718     LIBCMT:winapinls.obj
 0002:00004720       ??_C@_15LCHLGJII@?$AAs?$AAl?$AA?$AA@ 0041d720     LIBCMT:winapinls.obj
 0002:00004728       ??_C@_15PCFJPHHO@?$AAe?$AAt?$AA?$AA@ 0041d728     LIBCMT:winapinls.obj
 0002:00004730       ??_C@_15HPFPGODN@?$AAl?$AAv?$AA?$AA@ 0041d730     LIBCMT:winapinls.obj
 0002:00004738       ??_C@_15NFFGKGLG@?$AAl?$AAt?$AA?$AA@ 0041d738     LIBCMT:winapinls.obj
 0002:00004740       ??_C@_15BDAKCCHN@?$AAf?$AAa?$AA?$AA@ 0041d740     LIBCMT:winapinls.obj
 0002:00004748       ??_C@_15NFGIAIAJ@?$AAv?$AAi?$AA?$AA@ 0041d748     LIBCMT:winapinls.obj
 0002:00004750       ??_C@_15LMKNDMHN@?$AAh?$AAy?$AA?$AA@ 0041d750     LIBCMT:winapinls.obj
 0002:00004758       ??_C@_15IJBHMCFL@?$AAa?$AAz?$AA?$AA@ 0041d758     LIBCMT:winapinls.obj
 0002:00004760       ??_C@_15EKOFJABL@?$AAe?$AAu?$AA?$AA@ 0041d760     LIBCMT:winapinls.obj
 0002:00004768       ??_C@_15BGHADCNK@?$AAm?$AAk?$AA?$AA@ 0041d768     LIBCMT:winapinls.obj
 0002:00004770       ??_C@_15JDNICKHM@?$AAa?$AAf?$AA?$AA@ 0041d770     LIBCMT:winapinls.obj
 0002:00004778       ??_C@_15KPJEDBKD@?$AAk?$AAa?$AA?$AA@ 0041d778     LIBCMT:winapinls.obj
 0002:00004780       ??_C@_15PDNFFFEO@?$AAf?$AAo?$AA?$AA@ 0041d780     LIBCMT:winapinls.obj
 0002:00004788       ??_C@_15OMLEGLOC@?$AAh?$AAi?$AA?$AA@ 0041d788     LIBCMT:winapinls.obj
 0002:00004790       ??_C@_15IDNNENKK@?$AAm?$AAs?$AA?$AA@ 0041d790     LIBCMT:winapinls.obj
 0002:00004798       ??_C@_15MACJNBMH@?$AAk?$AAk?$AA?$AA@ 0041d798     LIBCMT:winapinls.obj
 0002:000047a0       ??_C@_15DKDJEOND@?$AAk?$AAy?$AA?$AA@ 0041d7a0     LIBCMT:winapinls.obj
 0002:000047a8       ??_C@_15DFGDLJBG@?$AAs?$AAw?$AA?$AA@ 0041d7a8     LIBCMT:winapinls.obj
 0002:000047b0       ??_C@_15BBFAICNG@?$AAu?$AAz?$AA?$AA@ 0041d7b0     LIBCMT:winapinls.obj
 0002:000047b8       ??_C@_15DKNDCGEA@?$AAt?$AAt?$AA?$AA@ 0041d7b8     LIBCMT:winapinls.obj
 0002:000047c0       ??_C@_15MGIFMDPL@?$AAp?$AAa?$AA?$AA@ 0041d7c0     LIBCMT:winapinls.obj
 0002:000047c8       ??_C@_15HCNDBBA@?$AAg?$AAu?$AA?$AA@ 0041d7c8     LIBCMT:winapinls.obj
 0002:000047d0       ??_C@_15FNBEIBON@?$AAt?$AAa?$AA?$AA@ 0041d7d0     LIBCMT:winapinls.obj
 0002:000047d8       ??_C@_15NCHGBGLK@?$AAt?$AAe?$AA?$AA@ 0041d7d8     LIBCMT:winapinls.obj
 0002:000047e0       ??_C@_15PHPHCBPF@?$AAk?$AAn?$AA?$AA@ 0041d7e0     LIBCMT:winapinls.obj
 0002:000047e8       ??_C@_15DLGBCKMP@?$AAm?$AAr?$AA?$AA@ 0041d7e8     LIBCMT:winapinls.obj
 0002:000047f0       ??_C@_15EABBLBFF@?$AAs?$AAa?$AA?$AA@ 0041d7f0     LIBCMT:winapinls.obj
 0002:000047f8       ??_C@_15CBKOMCOI@?$AAm?$AAn?$AA?$AA@ 0041d7f8     LIBCMT:winapinls.obj
 0002:00004800       ??_C@_15CKDMCJAF@?$AAg?$AAl?$AA?$AA@ 0041d800     LIBCMT:winapinls.obj
 0002:00004808       ??_C@_17CNJFBPG@?$AAk?$AAo?$AAk?$AA?$AA@ 0041d808     LIBCMT:winapinls.obj
 0002:00004810       ??_C@_17FFBJICPL@?$AAs?$AAy?$AAr?$AA?$AA@ 0041d810     LIBCMT:winapinls.obj
 0002:00004818       ??_C@_17KPNDCPAF@?$AAd?$AAi?$AAv?$AA?$AA@ 0041d818     LIBCMT:winapinls.obj
 0002:00004820       ??_C@_1M@OKAHONE@?$AAa?$AAr?$AA?9?$AAS?$AAA?$AA?$AA@ 0041d820     LIBCMT:winapinls.obj
 0002:0000482c       ??_C@_1M@FFFIGIGK@?$AAb?$AAg?$AA?9?$AAB?$AAG?$AA?$AA@ 0041d82c     LIBCMT:winapinls.obj
 0002:00004838       ??_C@_1M@BJNKEDC@?$AAc?$AAa?$AA?9?$AAE?$AAS?$AA?$AA@ 0041d838     LIBCMT:winapinls.obj
 0002:00004844       ??_C@_1M@IJJHFJHA@?$AAc?$AAs?$AA?9?$AAC?$AAZ?$AA?$AA@ 0041d844     LIBCMT:winapinls.obj
 0002:00004850       ??_C@_1M@CLPEOBGI@?$AAd?$AAa?$AA?9?$AAD?$AAK?$AA?$AA@ 0041d850     LIBCMT:winapinls.obj
 0002:0000485c       ??_C@_1M@MCMADGCB@?$AAd?$AAe?$AA?9?$AAD?$AAE?$AA?$AA@ 0041d85c     LIBCMT:winapinls.obj
 0002:00004868       ??_C@_1M@OOCKEMAM@?$AAe?$AAl?$AA?9?$AAG?$AAR?$AA?$AA@ 0041d868     LIBCMT:winapinls.obj
 0002:00004874       ??_C@_1M@DDNJFGID@?$AAf?$AAi?$AA?9?$AAF?$AAI?$AA?$AA@ 0041d874     LIBCMT:winapinls.obj
 0002:00004880       ??_C@_1M@GLIPPMAC@?$AAf?$AAr?$AA?9?$AAF?$AAR?$AA?$AA@ 0041d880     LIBCMT:winapinls.obj
 0002:0000488c       ??_C@_1M@GFMCHPE@?$AAh?$AAe?$AA?9?$AAI?$AAL?$AA?$AA@ 0041d88c     LIBCMT:winapinls.obj
 0002:00004898       ??_C@_1M@MHLPGNKM@?$AAh?$AAu?$AA?9?$AAH?$AAU?$AA?$AA@ 0041d898     LIBCMT:winapinls.obj
 0002:000048a4       ??_C@_1M@LPDDNNPN@?$AAi?$AAs?$AA?9?$AAI?$AAS?$AA?$AA@ 0041d8a4     LIBCMT:winapinls.obj
 0002:000048b0       ??_C@_1M@MADIPODN@?$AAi?$AAt?$AA?9?$AAI?$AAT?$AA?$AA@ 0041d8b0     LIBCMT:winapinls.obj
 0002:000048bc       ??_C@_1M@IHBJJGG@?$AAn?$AAl?$AA?9?$AAN?$AAL?$AA?$AA@ 0041d8bc     LIBCMT:winapinls.obj
 0002:000048c8       ??_C@_1M@EANAGDL@?$AAn?$AAb?$AA?9?$AAN?$AAO?$AA?$AA@ 0041d8c8     LIBCMT:winapinls.obj
 0002:000048d4       ??_C@_1M@NEIEMEGP@?$AAp?$AAl?$AA?9?$AAP?$AAL?$AA?$AA@ 0041d8d4     LIBCMT:winapinls.obj
 0002:000048e0       ??_C@_1M@BOCFIGEP@?$AAp?$AAt?$AA?9?$AAB?$AAR?$AA?$AA@ 0041d8e0     LIBCMT:winapinls.obj
 0002:000048ec       ??_C@_1M@IMPFOPBG@?$AAr?$AAo?$AA?9?$AAR?$AAO?$AA?$AA@ 0041d8ec     LIBCMT:winapinls.obj
 0002:000048f8       ??_C@_1M@IDNNEJMM@?$AAr?$AAu?$AA?9?$AAR?$AAU?$AA?$AA@ 0041d8f8     LIBCMT:winapinls.obj
 0002:00004904       ??_C@_1M@LILEEOGM@?$AAh?$AAr?$AA?9?$AAH?$AAR?$AA?$AA@ 0041d904     LIBCMT:winapinls.obj
 0002:00004910       ??_C@_1M@FKIFEHPB@?$AAs?$AAk?$AA?9?$AAS?$AAK?$AA?$AA@ 0041d910     LIBCMT:winapinls.obj
 0002:0000491c       ??_C@_1M@LJMAMNPJ@?$AAs?$AAq?$AA?9?$AAA?$AAL?$AA?$AA@ 0041d91c     LIBCMT:winapinls.obj
 0002:00004928       ??_C@_1M@GIAKDKJK@?$AAs?$AAv?$AA?9?$AAS?$AAE?$AA?$AA@ 0041d928     LIBCMT:winapinls.obj
 0002:00004934       ??_C@_1M@MKJKIKCL@?$AAt?$AAh?$AA?9?$AAT?$AAH?$AA?$AA@ 0041d934     LIBCMT:winapinls.obj
 0002:00004940       ??_C@_1M@MFLCCMPB@?$AAt?$AAr?$AA?9?$AAT?$AAR?$AA?$AA@ 0041d940     LIBCMT:winapinls.obj
 0002:0000494c       ??_C@_1M@OIJHDKJN@?$AAu?$AAr?$AA?9?$AAP?$AAK?$AA?$AA@ 0041d94c     LIBCMT:winapinls.obj
 0002:00004958       ??_C@_1M@LHIPCIEK@?$AAi?$AAd?$AA?9?$AAI?$AAD?$AA?$AA@ 0041d958     LIBCMT:winapinls.obj
 0002:00004964       ??_C@_1M@MFMOBGI@?$AAu?$AAk?$AA?9?$AAU?$AAA?$AA?$AA@ 0041d964     LIBCMT:winapinls.obj
 0002:00004970       ??_C@_1M@OBGLJIPL@?$AAb?$AAe?$AA?9?$AAB?$AAY?$AA?$AA@ 0041d970     LIBCMT:winapinls.obj
 0002:0000497c       ??_C@_1M@BCFAJEAD@?$AAs?$AAl?$AA?9?$AAS?$AAI?$AA?$AA@ 0041d97c     LIBCMT:winapinls.obj
 0002:00004988       ??_C@_1M@FKFFEDDN@?$AAe?$AAt?$AA?9?$AAE?$AAE?$AA?$AA@ 0041d988     LIBCMT:winapinls.obj
 0002:00004994       ??_C@_1M@KGKKAACI@?$AAl?$AAv?$AA?9?$AAL?$AAV?$AA?$AA@ 0041d994     LIBCMT:winapinls.obj
 0002:000049a0       ??_C@_1M@IFGBIJO@?$AAl?$AAt?$AA?9?$AAL?$AAT?$AA?$AA@ 0041d9a0     LIBCMT:winapinls.obj
 0002:000049ac       ??_C@_1M@FGEAHEDM@?$AAf?$AAa?$AA?9?$AAI?$AAR?$AA?$AA@ 0041d9ac     LIBCMT:winapinls.obj
 0002:000049b8       ??_C@_1M@KBMAIBFN@?$AAv?$AAi?$AA?9?$AAV?$AAN?$AA?$AA@ 0041d9b8     LIBCMT:winapinls.obj
 0002:000049c4       ??_C@_1M@GPCBKDJK@?$AAh?$AAy?$AA?9?$AAA?$AAM?$AA?$AA@ 0041d9c4     LIBCMT:winapinls.obj
 0002:000049d0       ??_C@_1BG@BECMDDJB@?$AAa?$AAz?$AA?9?$AAA?$AAZ?$AA?9?$AAL?$AAa?$AAt?$AAn?$AA?$AA@ 0041d9d0     LIBCMT:winapinls.obj
 0002:000049e8       ??_C@_1M@MAOFCAEA@?$AAe?$AAu?$AA?9?$AAE?$AAS?$AA?$AA@ 0041d9e8     LIBCMT:winapinls.obj
 0002:000049f4       ??_C@_1M@IGHABKPI@?$AAm?$AAk?$AA?9?$AAM?$AAK?$AA?$AA@ 0041d9f4     LIBCMT:winapinls.obj
 0002:00004a00       ??_C@_1M@IAIGNEJG@?$AAt?$AAn?$AA?9?$AAZ?$AAA?$AA?$AA@ 0041da00     LIBCMT:winapinls.obj
 0002:00004a0c       ??_C@_1M@IIJCOJFA@?$AAx?$AAh?$AA?9?$AAZ?$AAA?$AA?$AA@ 0041da0c     LIBCMT:winapinls.obj
 0002:00004a18       ??_C@_1M@LGPJHNJH@?$AAz?$AAu?$AA?9?$AAZ?$AAA?$AA?$AA@ 0041da18     LIBCMT:winapinls.obj
 0002:00004a24       ??_C@_1M@HOKAOIO@?$AAa?$AAf?$AA?9?$AAZ?$AAA?$AA?$AA@ 0041da24     LIBCMT:winapinls.obj
 0002:00004a30       ??_C@_1M@DPCLHLIE@?$AAk?$AAa?$AA?9?$AAG?$AAE?$AA?$AA@ 0041da30     LIBCMT:winapinls.obj
 0002:00004a3c       ??_C@_1M@BLKMHJBI@?$AAf?$AAo?$AA?9?$AAF?$AAO?$AA?$AA@ 0041da3c     LIBCMT:winapinls.obj
 0002:00004a48       ??_C@_1M@LGGJAPPB@?$AAh?$AAi?$AA?9?$AAI?$AAN?$AA?$AA@ 0041da48     LIBCMT:winapinls.obj
 0002:00004a54       ??_C@_1M@FIKPIHFE@?$AAm?$AAt?$AA?9?$AAM?$AAT?$AA?$AA@ 0041da54     LIBCMT:winapinls.obj
 0002:00004a60       ??_C@_1M@HEGGPBFA@?$AAs?$AAe?$AA?9?$AAN?$AAO?$AA?$AA@ 0041da60     LIBCMT:winapinls.obj
 0002:00004a6c       ??_C@_1M@EIBJEEPA@?$AAm?$AAs?$AA?9?$AAM?$AAY?$AA?$AA@ 0041da6c     LIBCMT:winapinls.obj
 0002:00004a78       ??_C@_1M@FHLBGMPP@?$AAk?$AAk?$AA?9?$AAK?$AAZ?$AA?$AA@ 0041da78     LIBCMT:winapinls.obj
 0002:00004a84       ??_C@_1M@NGJJLCGI@?$AAk?$AAy?$AA?9?$AAK?$AAG?$AA?$AA@ 0041da84     LIBCMT:winapinls.obj
 0002:00004a90       ??_C@_1M@GIENNBFC@?$AAs?$AAw?$AA?9?$AAK?$AAE?$AA?$AA@ 0041da90     LIBCMT:winapinls.obj
 0002:00004a9c       ??_C@_1BG@NDGMJIMJ@?$AAu?$AAz?$AA?9?$AAU?$AAZ?$AA?9?$AAL?$AAa?$AAt?$AAn?$AA?$AA@ 0041da9c     LIBCMT:winapinls.obj
 0002:00004ab4       ??_C@_1M@IDCCIHBC@?$AAt?$AAt?$AA?9?$AAR?$AAU?$AA?$AA@ 0041dab4     LIBCMT:winapinls.obj
 0002:00004ac0       ??_C@_1M@LOICPMOJ@?$AAb?$AAn?$AA?9?$AAI?$AAN?$AA?$AA@ 0041dac0     LIBCMT:winapinls.obj
 0002:00004acc       ??_C@_1M@KPKKNEAH@?$AAp?$AAa?$AA?9?$AAI?$AAN?$AA?$AA@ 0041dacc     LIBCMT:winapinls.obj
 0002:00004ad8       ??_C@_1M@PJGPPBOG@?$AAg?$AAu?$AA?9?$AAI?$AAN?$AA?$AA@ 0041dad8     LIBCMT:winapinls.obj
 0002:00004ae4       ??_C@_1M@KMKMOPHI@?$AAt?$AAa?$AA?9?$AAI?$AAN?$AA?$AA@ 0041dae4     LIBCMT:winapinls.obj
 0002:00004af0       ??_C@_1M@KFEHEPAC@?$AAt?$AAe?$AA?9?$AAI?$AAN?$AA?$AA@ 0041daf0     LIBCMT:winapinls.obj
 0002:00004afc       ??_C@_1M@CDCLMGHI@?$AAk?$AAn?$AA?9?$AAI?$AAN?$AA?$AA@ 0041dafc     LIBCMT:winapinls.obj
 0002:00004b08       ??_C@_1M@MIODLDKF@?$AAm?$AAl?$AA?9?$AAI?$AAN?$AA?$AA@ 0041db08     LIBCMT:winapinls.obj
 0002:00004b14       ??_C@_1M@PBIEACPO@?$AAm?$AAr?$AA?9?$AAI?$AAN?$AA?$AA@ 0041db14     LIBCMT:winapinls.obj
 0002:00004b20       ??_C@_1M@NIDEAGPH@?$AAs?$AAa?$AA?9?$AAI?$AAN?$AA?$AA@ 0041db20     LIBCMT:winapinls.obj
 0002:00004b2c       ??_C@_1M@FHIHCBIO@?$AAm?$AAn?$AA?9?$AAM?$AAN?$AA?$AA@ 0041db2c     LIBCMT:winapinls.obj
 0002:00004b38       ??_C@_1M@JAIJPENP@?$AAc?$AAy?$AA?9?$AAG?$AAB?$AA?$AA@ 0041db38     LIBCMT:winapinls.obj
 0002:00004b44       ??_C@_1M@PHGFBEPN@?$AAg?$AAl?$AA?9?$AAE?$AAS?$AA?$AA@ 0041db44     LIBCMT:winapinls.obj
 0002:00004b50       ??_C@_1O@KPIPDNCP@?$AAk?$AAo?$AAk?$AA?9?$AAI?$AAN?$AA?$AA@ 0041db50     LIBCMT:winapinls.obj
 0002:00004b60       ??_C@_1O@KNHJLDJA@?$AAs?$AAy?$AAr?$AA?9?$AAS?$AAY?$AA?$AA@ 0041db60     LIBCMT:winapinls.obj
 0002:00004b70       ??_C@_1O@MKEKBLAH@?$AAd?$AAi?$AAv?$AA?9?$AAM?$AAV?$AA?$AA@ 0041db70     LIBCMT:winapinls.obj
 0002:00004b80       ??_C@_1O@OHDCKDDF@?$AAq?$AAu?$AAz?$AA?9?$AAB?$AAO?$AA?$AA@ 0041db80     LIBCMT:winapinls.obj
 0002:00004b90       ??_C@_1M@LEPJNLFD@?$AAn?$AAs?$AA?9?$AAZ?$AAA?$AA?$AA@ 0041db90     LIBCMT:winapinls.obj
 0002:00004b9c       ??_C@_1M@OMLEIIJB@?$AAm?$AAi?$AA?9?$AAN?$AAZ?$AA?$AA@ 0041db9c     LIBCMT:winapinls.obj
 0002:00004ba8       ??_C@_1M@PMPEAILG@?$AAa?$AAr?$AA?9?$AAI?$AAQ?$AA?$AA@ 0041dba8     LIBCMT:winapinls.obj
 0002:00004bb4       ??_C@_1M@CNKPNOEE@?$AAd?$AAe?$AA?9?$AAC?$AAH?$AA?$AA@ 0041dbb4     LIBCMT:winapinls.obj
 0002:00004bc0       ??_C@_1M@LKMGMLKO@?$AAe?$AAn?$AA?9?$AAG?$AAB?$AA?$AA@ 0041dbc0     LIBCMT:winapinls.obj
 0002:00004bcc       ??_C@_1M@PGKJFFGL@?$AAe?$AAs?$AA?9?$AAM?$AAX?$AA?$AA@ 0041dbcc     LIBCMT:winapinls.obj
 0002:00004bd8       ??_C@_1M@DNNANBDC@?$AAf?$AAr?$AA?9?$AAB?$AAE?$AA?$AA@ 0041dbd8     LIBCMT:winapinls.obj
 0002:00004be4       ??_C@_1M@HLGMDFHM@?$AAi?$AAt?$AA?9?$AAC?$AAH?$AA?$AA@ 0041dbe4     LIBCMT:winapinls.obj
 0002:00004bf0       ??_C@_1M@CLLBGJH@?$AAn?$AAl?$AA?9?$AAB?$AAE?$AA?$AA@ 0041dbf0     LIBCMT:winapinls.obj
 0002:00004bfc       ??_C@_1M@BODBOGLF@?$AAn?$AAn?$AA?9?$AAN?$AAO?$AA?$AA@ 0041dbfc     LIBCMT:winapinls.obj
 0002:00004c08       ??_C@_1M@HFFAHKAD@?$AAp?$AAt?$AA?9?$AAP?$AAT?$AA?$AA@ 0041dc08     LIBCMT:winapinls.obj
 0002:00004c14       ??_C@_1BG@LNOAKHIE@?$AAs?$AAr?$AA?9?$AAS?$AAP?$AA?9?$AAL?$AAa?$AAt?$AAn?$AA?$AA@ 0041dc14     LIBCMT:winapinls.obj
 0002:00004c2c       ??_C@_1M@HBMHBGAK@?$AAs?$AAv?$AA?9?$AAF?$AAI?$AA?$AA@ 0041dc2c     LIBCMT:winapinls.obj
 0002:00004c38       ??_C@_1BG@DGCJGJBE@?$AAa?$AAz?$AA?9?$AAA?$AAZ?$AA?9?$AAC?$AAy?$AAr?$AAl?$AA?$AA@ 0041dc38     LIBCMT:winapinls.obj
 0002:00004c50       ??_C@_1M@KEJDAAHB@?$AAs?$AAe?$AA?9?$AAS?$AAE?$AA?$AA@ 0041dc50     LIBCMT:winapinls.obj
 0002:00004c5c       ??_C@_1M@HEIBJJAD@?$AAm?$AAs?$AA?9?$AAB?$AAN?$AA?$AA@ 0041dc5c     LIBCMT:winapinls.obj
 0002:00004c68       ??_C@_1BG@PBGJMCEM@?$AAu?$AAz?$AA?9?$AAU?$AAZ?$AA?9?$AAC?$AAy?$AAr?$AAl?$AA?$AA@ 0041dc68     LIBCMT:winapinls.obj
 0002:00004c80       ??_C@_1O@LAOBCMDF@?$AAq?$AAu?$AAz?$AA?9?$AAE?$AAC?$AA?$AA@ 0041dc80     LIBCMT:winapinls.obj
 0002:00004c90       ??_C@_1M@POEEMAIO@?$AAa?$AAr?$AA?9?$AAE?$AAG?$AA?$AA@ 0041dc90     LIBCMT:winapinls.obj
 0002:00004c9c       ??_C@_1M@EFAKDEDL@?$AAz?$AAh?$AA?9?$AAH?$AAK?$AA?$AA@ 0041dc9c     LIBCMT:winapinls.obj
 0002:00004ca8       ??_C@_1M@HKKIJHGI@?$AAd?$AAe?$AA?9?$AAA?$AAT?$AA?$AA@ 0041dca8     LIBCMT:winapinls.obj
 0002:00004cb4       ??_C@_1M@KBFBEHJF@?$AAe?$AAn?$AA?9?$AAA?$AAU?$AA?$AA@ 0041dcb4     LIBCMT:winapinls.obj
 0002:00004cc0       ??_C@_1M@MNPLFAAH@?$AAe?$AAs?$AA?9?$AAE?$AAS?$AA?$AA@ 0041dcc0     LIBCMT:winapinls.obj
 0002:00004ccc       ??_C@_1M@HJOOJFMA@?$AAf?$AAr?$AA?9?$AAC?$AAA?$AA?$AA@ 0041dccc     LIBCMT:winapinls.obj
 0002:00004cd8       ??_C@_1BG@JPOFPNAB@?$AAs?$AAr?$AA?9?$AAS?$AAP?$AA?9?$AAC?$AAy?$AAr?$AAl?$AA?$AA@ 0041dcd8     LIBCMT:winapinls.obj
 0002:00004cf0       ??_C@_1M@LNFOCMOB@?$AAs?$AAe?$AA?9?$AAF?$AAI?$AA?$AA@ 0041dcf0     LIBCMT:winapinls.obj
 0002:00004cfc       ??_C@_1O@MGJBOAMB@?$AAq?$AAu?$AAz?$AA?9?$AAP?$AAE?$AA?$AA@ 0041dcfc     LIBCMT:winapinls.obj
 0002:00004d0c       ??_C@_1M@GJINLBOK@?$AAa?$AAr?$AA?9?$AAL?$AAY?$AA?$AA@ 0041dd0c     LIBCMT:winapinls.obj
 0002:00004d18       ??_C@_1M@GGMNHJNL@?$AAz?$AAh?$AA?9?$AAS?$AAG?$AA?$AA@ 0041dd18     LIBCMT:winapinls.obj
 0002:00004d24       ??_C@_1M@HOIKODND@?$AAd?$AAe?$AA?9?$AAL?$AAU?$AA?$AA@ 0041dd24     LIBCMT:winapinls.obj
 0002:00004d30       ??_C@_1M@DDOCCGFG@?$AAe?$AAn?$AA?9?$AAC?$AAA?$AA?$AA@ 0041dd30     LIBCMT:winapinls.obj
 0002:00004d3c       ??_C@_1M@BNOEMJLF@?$AAe?$AAs?$AA?9?$AAG?$AAT?$AA?$AA@ 0041dd3c     LIBCMT:winapinls.obj
 0002:00004d48       ??_C@_1M@EOGNKEK@?$AAf?$AAr?$AA?9?$AAC?$AAH?$AA?$AA@ 0041dd48     LIBCMT:winapinls.obj
 0002:00004d54       ??_C@_1M@FLIDJFHL@?$AAh?$AAr?$AA?9?$AAB?$AAA?$AA?$AA@ 0041dd54     LIBCMT:winapinls.obj
 0002:00004d60       ??_C@_1O@FMCELNAJ@?$AAs?$AAm?$AAj?$AA?9?$AAN?$AAO?$AA?$AA@ 0041dd60     LIBCMT:winapinls.obj
 0002:00004d70       ??_C@_1M@JHGLJMGJ@?$AAa?$AAr?$AA?9?$AAD?$AAZ?$AA?$AA@ 0041dd70     LIBCMT:winapinls.obj
 0002:00004d7c       ??_C@_1M@JKKFDCNP@?$AAz?$AAh?$AA?9?$AAM?$AAO?$AA?$AA@ 0041dd7c     LIBCMT:winapinls.obj
 0002:00004d88       ??_C@_1M@GEEFALPE@?$AAd?$AAe?$AA?9?$AAL?$AAI?$AA?$AA@ 0041dd88     LIBCMT:winapinls.obj
 0002:00004d94       ??_C@_1M@IGEOFBG@?$AAe?$AAn?$AA?9?$AAN?$AAZ?$AA?$AA@ 0041dd94     LIBCMT:winapinls.obj
 0002:00004da0       ??_C@_1M@KDBONEHP@?$AAe?$AAs?$AA?9?$AAC?$AAR?$AA?$AA@ 0041dda0     LIBCMT:winapinls.obj
 0002:00004dac       ??_C@_1M@FHMDOHNN@?$AAf?$AAr?$AA?9?$AAL?$AAU?$AA?$AA@ 0041ddac     LIBCMT:winapinls.obj
 0002:00004db8       ??_C@_1BG@NFKKMAFG@?$AAb?$AAs?$AA?9?$AAB?$AAA?$AA?9?$AAL?$AAa?$AAt?$AAn?$AA?$AA@ 0041ddb8     LIBCMT:winapinls.obj
 0002:00004dd0       ??_C@_1O@IMNBEMCI@?$AAs?$AAm?$AAj?$AA?9?$AAS?$AAE?$AA?$AA@ 0041ddd0     LIBCMT:winapinls.obj
 0002:00004de0       ??_C@_1M@DHHMBNDP@?$AAa?$AAr?$AA?9?$AAM?$AAA?$AA?$AA@ 0041dde0     LIBCMT:winapinls.obj
 0002:00004dec       ??_C@_1M@BNBLJCGH@?$AAe?$AAn?$AA?9?$AAI?$AAE?$AA?$AA@ 0041ddec     LIBCMT:winapinls.obj
 0002:00004df8       ??_C@_1M@GEPAFMDL@?$AAe?$AAs?$AA?9?$AAP?$AAA?$AA?$AA@ 0041ddf8     LIBCMT:winapinls.obj
 0002:00004e04       ??_C@_1M@OJONDMDL@?$AAf?$AAr?$AA?9?$AAM?$AAC?$AA?$AA@ 0041de04     LIBCMT:winapinls.obj
 0002:00004e10       ??_C@_1BG@OBCNFJB@?$AAs?$AAr?$AA?9?$AAB?$AAA?$AA?9?$AAL?$AAa?$AAt?$AAn?$AA?$AA@ 0041de10     LIBCMT:winapinls.obj
 0002:00004e28       ??_C@_1O@KEMEEGPO@?$AAs?$AAm?$AAa?$AA?9?$AAN?$AAO?$AA?$AA@ 0041de28     LIBCMT:winapinls.obj
 0002:00004e38       ??_C@_1M@ELMGFODK@?$AAa?$AAr?$AA?9?$AAT?$AAN?$AA?$AA@ 0041de38     LIBCMT:winapinls.obj
 0002:00004e44       ??_C@_1M@BHDLHFAF@?$AAe?$AAn?$AA?9?$AAZ?$AAA?$AA?$AA@ 0041de44     LIBCMT:winapinls.obj
 0002:00004e50       ??_C@_1M@BMGIGLIF@?$AAe?$AAs?$AA?9?$AAD?$AAO?$AA?$AA@ 0041de50     LIBCMT:winapinls.obj
 0002:00004e5c       ??_C@_1BG@CMBHIPBE@?$AAs?$AAr?$AA?9?$AAB?$AAA?$AA?9?$AAC?$AAy?$AAr?$AAl?$AA?$AA@ 0041de5c     LIBCMT:winapinls.obj
 0002:00004e74       ??_C@_1O@HEDBLHNP@?$AAs?$AAm?$AAa?$AA?9?$AAS?$AAE?$AA?$AA@ 0041de74     LIBCMT:winapinls.obj
 0002:00004e84       ??_C@_1M@DAGCADIM@?$AAa?$AAr?$AA?9?$AAO?$AAM?$AA?$AA@ 0041de84     LIBCMT:winapinls.obj
 0002:00004e90       ??_C@_1M@FODLMICG@?$AAe?$AAn?$AA?9?$AAJ?$AAM?$AA?$AA@ 0041de90     LIBCMT:winapinls.obj
 0002:00004e9c       ??_C@_1M@DNMLCIHB@?$AAe?$AAs?$AA?9?$AAV?$AAE?$AA?$AA@ 0041de9c     LIBCMT:winapinls.obj
 0002:00004ea8       ??_C@_1O@EOKHMKJK@?$AAs?$AAm?$AAs?$AA?9?$AAF?$AAI?$AA?$AA@ 0041dea8     LIBCMT:winapinls.obj
 0002:00004eb8       ??_C@_1M@CAFJMKOF@?$AAa?$AAr?$AA?9?$AAY?$AAE?$AA?$AA@ 0041deb8     LIBCMT:winapinls.obj
 0002:00004ec4       ??_C@_1M@CBFHIJLI@?$AAe?$AAn?$AA?9?$AAC?$AAB?$AA?$AA@ 0041dec4     LIBCMT:winapinls.obj
 0002:00004ed0       ??_C@_1M@BGNFLDN@?$AAe?$AAs?$AA?9?$AAC?$AAO?$AA?$AA@ 0041ded0     LIBCMT:winapinls.obj
 0002:00004edc       ??_C@_1O@JMPHMAMC@?$AAs?$AAm?$AAn?$AA?9?$AAF?$AAI?$AA?$AA@ 0041dedc     LIBCMT:winapinls.obj
 0002:00004eec       ??_C@_1M@JLANABKE@?$AAa?$AAr?$AA?9?$AAS?$AAY?$AA?$AA@ 0041deec     LIBCMT:winapinls.obj
 0002:00004ef8       ??_C@_1M@HPKGCFGN@?$AAe?$AAn?$AA?9?$AAB?$AAZ?$AA?$AA@ 0041def8     LIBCMT:winapinls.obj
 0002:00004f04       ??_C@_1M@OLJCMLGM@?$AAe?$AAs?$AA?9?$AAP?$AAE?$AA?$AA@ 0041df04     LIBCMT:winapinls.obj
 0002:00004f10       ??_C@_1M@MKKGFKLE@?$AAa?$AAr?$AA?9?$AAJ?$AAO?$AA?$AA@ 0041df10     LIBCMT:winapinls.obj
 0002:00004f1c       ??_C@_1M@EKPGLDNI@?$AAe?$AAn?$AA?9?$AAT?$AAT?$AA?$AA@ 0041df1c     LIBCMT:winapinls.obj
 0002:00004f28       ??_C@_1M@OONGHFHE@?$AAe?$AAs?$AA?9?$AAA?$AAR?$AA?$AA@ 0041df28     LIBCMT:winapinls.obj
 0002:00004f34       ??_C@_1M@OOJFGBHE@?$AAa?$AAr?$AA?9?$AAL?$AAB?$AA?$AA@ 0041df34     LIBCMT:winapinls.obj
 0002:00004f40       ??_C@_1M@GCEJHNEG@?$AAe?$AAn?$AA?9?$AAZ?$AAW?$AA?$AA@ 0041df40     LIBCMT:winapinls.obj
 0002:00004f4c       ??_C@_1M@JNOCAHJI@?$AAe?$AAs?$AA?9?$AAE?$AAC?$AA?$AA@ 0041df4c     LIBCMT:winapinls.obj
 0002:00004f58       ??_C@_1M@JEFHPGGB@?$AAa?$AAr?$AA?9?$AAK?$AAW?$AA?$AA@ 0041df58     LIBCMT:winapinls.obj
 0002:00004f64       ??_C@_1M@MLKIBJOJ@?$AAe?$AAn?$AA?9?$AAP?$AAH?$AA?$AA@ 0041df64     LIBCMT:winapinls.obj
 0002:00004f70       ??_C@_1M@BDNIPEND@?$AAe?$AAs?$AA?9?$AAC?$AAL?$AA?$AA@ 0041df70     LIBCMT:winapinls.obj
 0002:00004f7c       ??_C@_1M@MPNMEKBD@?$AAa?$AAr?$AA?9?$AAA?$AAE?$AA?$AA@ 0041df7c     LIBCMT:winapinls.obj
 0002:00004f88       ??_C@_1M@KBJALCPI@?$AAe?$AAs?$AA?9?$AAU?$AAY?$AA?$AA@ 0041df88     LIBCMT:winapinls.obj
 0002:00004f94       ??_C@_1M@LLCCOAGA@?$AAa?$AAr?$AA?9?$AAB?$AAH?$AA?$AA@ 0041df94     LIBCMT:winapinls.obj
 0002:00004fa0       ??_C@_1M@PBFNCDEL@?$AAe?$AAs?$AA?9?$AAP?$AAY?$AA?$AA@ 0041dfa0     LIBCMT:winapinls.obj
 0002:00004fac       ??_C@_1M@EDGINPNP@?$AAa?$AAr?$AA?9?$AAQ?$AAA?$AA?$AA@ 0041dfac     LIBCMT:winapinls.obj
 0002:00004fb8       ??_C@_1M@MKDBIIJI@?$AAe?$AAs?$AA?9?$AAB?$AAO?$AA?$AA@ 0041dfb8     LIBCMT:winapinls.obj
 0002:00004fc4       ??_C@_1M@CPKKEBLD@?$AAe?$AAs?$AA?9?$AAS?$AAV?$AA?$AA@ 0041dfc4     LIBCMT:winapinls.obj
 0002:00004fd0       ??_C@_1M@NDBGMMJL@?$AAe?$AAs?$AA?9?$AAH?$AAN?$AA?$AA@ 0041dfd0     LIBCMT:winapinls.obj
 0002:00004fdc       ??_C@_1M@JIJIBHDP@?$AAe?$AAs?$AA?9?$AAN?$AAI?$AA?$AA@ 0041dfdc     LIBCMT:winapinls.obj
 0002:00004fe8       ??_C@_1M@CGFMKEEK@?$AAe?$AAs?$AA?9?$AAP?$AAR?$AA?$AA@ 0041dfe8     LIBCMT:winapinls.obj
 0002:00004ff4       ??_C@_1O@ICJHKIIK@?$AAz?$AAh?$AA?9?$AAC?$AAH?$AAT?$AA?$AA@ 0041dff4     LIBCMT:winapinls.obj
 0002:00005004       ??_C@_15CLNEJCE@?$AAs?$AAr?$AA?$AA@ 0041e004     LIBCMT:winapinls.obj
 0002:0000500c       ??_C@_1M@KAHEKEIG@?$AAa?$AAf?$AA?9?$AAz?$AAa?$AA?$AA@ 0041e00c     LIBCMT:winapinls.obj
 0002:00005018       ??_C@_1M@GIECOABL@?$AAa?$AAr?$AA?9?$AAa?$AAe?$AA?$AA@ 0041e018     LIBCMT:winapinls.obj
 0002:00005024       ??_C@_1M@BMLMEKGI@?$AAa?$AAr?$AA?9?$AAb?$AAh?$AA?$AA@ 0041e024     LIBCMT:winapinls.obj
 0002:00005030       ??_C@_1M@DAPFDGGB@?$AAa?$AAr?$AA?9?$AAd?$AAz?$AA?$AA@ 0041e030     LIBCMT:winapinls.obj
 0002:0000503c       ??_C@_1M@FJNKGKIG@?$AAa?$AAr?$AA?9?$AAe?$AAg?$AA?$AA@ 0041e03c     LIBCMT:winapinls.obj
 0002:00005048       ??_C@_1M@FLGKKCLO@?$AAa?$AAr?$AA?9?$AAi?$AAq?$AA?$AA@ 0041e048     LIBCMT:winapinls.obj
 0002:00005054       ??_C@_1M@GNDIPALM@?$AAa?$AAr?$AA?9?$AAj?$AAo?$AA?$AA@ 0041e054     LIBCMT:winapinls.obj
 0002:00005060       ??_C@_1M@DDMJFMGJ@?$AAa?$AAr?$AA?9?$AAk?$AAw?$AA?$AA@ 0041e060     LIBCMT:winapinls.obj
 0002:0000506c       ??_C@_1M@EJALMLHM@?$AAa?$AAr?$AA?9?$AAl?$AAb?$AA?$AA@ 0041e06c     LIBCMT:winapinls.obj
 0002:00005078       ??_C@_1M@MOBDBLOC@?$AAa?$AAr?$AA?9?$AAl?$AAy?$AA?$AA@ 0041e078     LIBCMT:winapinls.obj
 0002:00005084       ??_C@_1M@JAOCLHDH@?$AAa?$AAr?$AA?9?$AAm?$AAa?$AA?$AA@ 0041e084     LIBCMT:winapinls.obj
 0002:00005090       ??_C@_1M@JHPMKJIE@?$AAa?$AAr?$AA?9?$AAo?$AAm?$AA?$AA@ 0041e090     LIBCMT:winapinls.obj
 0002:0000509c       ??_C@_1M@OEPGHFNH@?$AAa?$AAr?$AA?9?$AAq?$AAa?$AA?$AA@ 0041e09c     LIBCMT:winapinls.obj
 0002:000050a8       ??_C@_1M@KJDONENM@?$AAa?$AAr?$AA?9?$AAs?$AAa?$AA?$AA@ 0041e0a8     LIBCMT:winapinls.obj
 0002:000050b4       ??_C@_1M@DMJDKLKM@?$AAa?$AAr?$AA?9?$AAs?$AAy?$AA?$AA@ 0041e0b4     LIBCMT:winapinls.obj
 0002:000050c0       ??_C@_1M@OMFIPEDC@?$AAa?$AAr?$AA?9?$AAt?$AAn?$AA?$AA@ 0041e0c0     LIBCMT:winapinls.obj
 0002:000050cc       ??_C@_1M@IHMHGAON@?$AAa?$AAr?$AA?9?$AAy?$AAe?$AA?$AA@ 0041e0cc     LIBCMT:winapinls.obj
 0002:000050d8       ??_C@_1BG@KDCPGJGB@?$AAa?$AAz?$AA?9?$AAa?$AAz?$AA?9?$AAc?$AAy?$AAr?$AAl?$AA?$AA@ 0041e0d8     LIBCMT:winapinls.obj
 0002:000050f0       ??_C@_1BG@IBCKDDOE@?$AAa?$AAz?$AA?9?$AAa?$AAz?$AA?9?$AAl?$AAa?$AAt?$AAn?$AA?$AA@ 0041e0f0     LIBCMT:winapinls.obj
 0002:00005108       ??_C@_1M@EGPFDCPD@?$AAb?$AAe?$AA?9?$AAb?$AAy?$AA?$AA@ 0041e108     LIBCMT:winapinls.obj
 0002:00005114       ??_C@_1M@PCMGMCGC@?$AAb?$AAg?$AA?9?$AAb?$AAg?$AA?$AA@ 0041e114     LIBCMT:winapinls.obj
 0002:00005120       ??_C@_1M@BJBMFGOB@?$AAb?$AAn?$AA?9?$AAi?$AAn?$AA?$AA@ 0041e120     LIBCMT:winapinls.obj
 0002:0000512c       ??_C@_1BG@EAKMMACD@?$AAb?$AAs?$AA?9?$AAb?$AAa?$AA?9?$AAl?$AAa?$AAt?$AAn?$AA?$AA@ 0041e12c     LIBCMT:winapinls.obj
 0002:00005144       ??_C@_1M@KGADAODK@?$AAc?$AAa?$AA?9?$AAe?$AAs?$AA?$AA@ 0041e144     LIBCMT:winapinls.obj
 0002:00005150       ??_C@_1M@COAJPDHI@?$AAc?$AAs?$AA?9?$AAc?$AAz?$AA?$AA@ 0041e150     LIBCMT:winapinls.obj
 0002:0000515c       ??_C@_1M@DHBHFONH@?$AAc?$AAy?$AA?9?$AAg?$AAb?$AA?$AA@ 0041e15c     LIBCMT:winapinls.obj
 0002:00005168       ??_C@_1M@IMGKELGA@?$AAd?$AAa?$AA?9?$AAd?$AAk?$AA?$AA@ 0041e168     LIBCMT:winapinls.obj
 0002:00005174       ??_C@_1M@NNDGDNGA@?$AAd?$AAe?$AA?9?$AAa?$AAt?$AA?$AA@ 0041e174     LIBCMT:winapinls.obj
 0002:00005180       ??_C@_1M@IKDBHEEM@?$AAd?$AAe?$AA?9?$AAc?$AAh?$AA?$AA@ 0041e180     LIBCMT:winapinls.obj
 0002:0000518c       ??_C@_1M@GFFOJMCJ@?$AAd?$AAe?$AA?9?$AAd?$AAe?$AA?$AA@ 0041e18c     LIBCMT:winapinls.obj
 0002:00005198       ??_C@_1M@MDNLKBPM@?$AAd?$AAe?$AA?9?$AAl?$AAi?$AA?$AA@ 0041e198     LIBCMT:winapinls.obj
 0002:000051a4       ??_C@_1M@NJBEEJNL@?$AAd?$AAe?$AA?9?$AAl?$AAu?$AA?$AA@ 0041e1a4     LIBCMT:winapinls.obj
 0002:000051b0       ??_C@_1O@GNNELBAP@?$AAd?$AAi?$AAv?$AA?9?$AAm?$AAv?$AA?$AA@ 0041e1b0     LIBCMT:winapinls.obj
 0002:000051c0       ??_C@_1M@EJLEOGAE@?$AAe?$AAl?$AA?9?$AAg?$AAr?$AA?$AA@ 0041e1c0     LIBCMT:winapinls.obj
 0002:000051cc       ??_C@_1M@GMPONJN@?$AAe?$AAn?$AA?9?$AAa?$AAu?$AA?$AA@ 0041e1cc     LIBCMT:winapinls.obj
 0002:000051d8       ??_C@_1M@NIDIIPGF@?$AAe?$AAn?$AA?9?$AAb?$AAz?$AA?$AA@ 0041e1d8     LIBCMT:winapinls.obj
 0002:000051e4       ??_C@_1M@JEHMIMFO@?$AAe?$AAn?$AA?9?$AAc?$AAa?$AA?$AA@ 0041e1e4     LIBCMT:winapinls.obj
 0002:000051f0       ??_C@_1M@IGMJCDLA@?$AAe?$AAn?$AA?9?$AAc?$AAb?$AA?$AA@ 0041e1f0     LIBCMT:winapinls.obj
 0002:000051fc       ??_C@_1M@BNFIGBKG@?$AAe?$AAn?$AA?9?$AAg?$AAb?$AA?$AA@ 0041e1fc     LIBCMT:winapinls.obj
 0002:00005208       ??_C@_1M@LKIFDIGP@?$AAe?$AAn?$AA?9?$AAi?$AAe?$AA?$AA@ 0041e208     LIBCMT:winapinls.obj
 0002:00005214       ??_C@_1M@PJKFGCCO@?$AAe?$AAn?$AA?9?$AAj?$AAm?$AA?$AA@ 0041e214     LIBCMT:winapinls.obj
 0002:00005220       ??_C@_1M@KPPKEPBO@?$AAe?$AAn?$AA?9?$AAn?$AAz?$AA?$AA@ 0041e220     LIBCMT:winapinls.obj
 0002:0000522c       ??_C@_1M@GMDGLDOB@?$AAe?$AAn?$AA?9?$AAp?$AAh?$AA?$AA@ 0041e22c     LIBCMT:winapinls.obj
 0002:00005238       ??_C@_1M@ONGIBJNA@?$AAe?$AAn?$AA?9?$AAt?$AAt?$AA?$AA@ 0041e238     LIBCMT:winapinls.obj
 0002:00005244       ??_C@_1M@LLODPCMM@?$AAe?$AAn?$AA?9?$AAu?$AAs?$AA?$AA@ 0041e244     LIBCMT:winapinls.obj
 0002:00005250       ??_C@_1M@LAKFNPAN@?$AAe?$AAn?$AA?9?$AAz?$AAa?$AA?$AA@ 0041e250     LIBCMT:winapinls.obj
 0002:0000525c       ??_C@_1M@MFNHNHEO@?$AAe?$AAn?$AA?9?$AAz?$AAw?$AA?$AA@ 0041e25c     LIBCMT:winapinls.obj
 0002:00005268       ??_C@_1M@EJEINPHM@?$AAe?$AAs?$AA?9?$AAa?$AAr?$AA?$AA@ 0041e268     LIBCMT:winapinls.obj
 0002:00005274       ??_C@_1M@GNKPCCJA@?$AAe?$AAs?$AA?9?$AAb?$AAo?$AA?$AA@ 0041e274     LIBCMT:winapinls.obj
 0002:00005280       ??_C@_1M@LEEGFONL@?$AAe?$AAs?$AA?9?$AAc?$AAl?$AA?$AA@ 0041e280     LIBCMT:winapinls.obj
 0002:0000528c       ??_C@_1M@KGPDPBDF@?$AAe?$AAs?$AA?9?$AAc?$AAo?$AA?$AA@ 0041e28c     LIBCMT:winapinls.obj
 0002:00005298       ??_C@_1M@EIAHOHH@?$AAe?$AAs?$AA?9?$AAc?$AAr?$AA?$AA@ 0041e298     LIBCMT:winapinls.obj
 0002:000052a4       ??_C@_1M@LLPGMBIN@?$AAe?$AAs?$AA?9?$AAd?$AAo?$AA?$AA@ 0041e2a4     LIBCMT:winapinls.obj
 0002:000052b0       ??_C@_1M@DKHMKNJA@?$AAe?$AAs?$AA?9?$AAe?$AAc?$AA?$AA@ 0041e2b0     LIBCMT:winapinls.obj
 0002:000052bc       ??_C@_1M@GKGFPKAP@?$AAe?$AAs?$AA?9?$AAe?$AAs?$AA?$AA@ 0041e2bc     LIBCMT:winapinls.obj
 0002:000052c8       ??_C@_1M@LKHKGDLN@?$AAe?$AAs?$AA?9?$AAg?$AAt?$AA?$AA@ 0041e2c8     LIBCMT:winapinls.obj
 0002:000052d4       ??_C@_1M@HEIIGGJD@?$AAe?$AAs?$AA?9?$AAh?$AAn?$AA?$AA@ 0041e2d4     LIBCMT:winapinls.obj
 0002:000052e0       ??_C@_1M@FBDHPPGD@?$AAe?$AAs?$AA?9?$AAm?$AAx?$AA?$AA@ 0041e2e0     LIBCMT:winapinls.obj
 0002:000052ec       ??_C@_1M@DPAGLNDH@?$AAe?$AAs?$AA?9?$AAn?$AAi?$AA?$AA@ 0041e2ec     LIBCMT:winapinls.obj
 0002:000052f8       ??_C@_1M@MDGOPGDD@?$AAe?$AAs?$AA?9?$AAp?$AAa?$AA?$AA@ 0041e2f8     LIBCMT:winapinls.obj
 0002:00005304       ??_C@_1M@EMAMGBGE@?$AAe?$AAs?$AA?9?$AAp?$AAe?$AA?$AA@ 0041e304     LIBCMT:winapinls.obj
 0002:00005310       ??_C@_1M@IBMCAOEC@?$AAe?$AAs?$AA?9?$AAp?$AAr?$AA?$AA@ 0041e310     LIBCMT:winapinls.obj
 0002:0000531c       ??_C@_1M@FGMDIJED@?$AAe?$AAs?$AA?9?$AAp?$AAy?$AA?$AA@ 0041e31c     LIBCMT:winapinls.obj
 0002:00005328       ??_C@_1M@IIDEOLLL@?$AAe?$AAs?$AA?9?$AAs?$AAv?$AA?$AA@ 0041e328     LIBCMT:winapinls.obj
 0002:00005334       ??_C@_1M@GAOBIPA@?$AAe?$AAs?$AA?9?$AAu?$AAy?$AA?$AA@ 0041e334     LIBCMT:winapinls.obj
 0002:00005340       ??_C@_1M@JKFFICHJ@?$AAe?$AAs?$AA?9?$AAv?$AAe?$AA?$AA@ 0041e340     LIBCMT:winapinls.obj
 0002:0000534c       ??_C@_1M@PNMLOJDF@?$AAe?$AAt?$AA?9?$AAe?$AAe?$AA?$AA@ 0041e34c     LIBCMT:winapinls.obj
 0002:00005358       ??_C@_1M@GHHLIKEI@?$AAe?$AAu?$AA?9?$AAe?$AAs?$AA?$AA@ 0041e358     LIBCMT:winapinls.obj
 0002:00005364       ??_C@_1M@PBNONODE@?$AAf?$AAa?$AA?9?$AAi?$AAr?$AA?$AA@ 0041e364     LIBCMT:winapinls.obj
 0002:00005370       ??_C@_1M@JEEHPMIL@?$AAf?$AAi?$AA?9?$AAf?$AAi?$AA?$AA@ 0041e370     LIBCMT:winapinls.obj
 0002:0000537c       ??_C@_1M@LMDCNDBA@?$AAf?$AAo?$AA?9?$AAf?$AAo?$AA?$AA@ 0041e37c     LIBCMT:winapinls.obj
 0002:00005388       ??_C@_1M@JKEOHLDK@?$AAf?$AAr?$AA?9?$AAb?$AAe?$AA?$AA@ 0041e388     LIBCMT:winapinls.obj
 0002:00005394       ??_C@_1M@NOHADPMI@?$AAf?$AAr?$AA?9?$AAc?$AAa?$AA?$AA@ 0041e394     LIBCMT:winapinls.obj
 0002:000053a0       ??_C@_1M@KDHIHAEC@?$AAf?$AAr?$AA?9?$AAc?$AAh?$AA?$AA@ 0041e3a0     LIBCMT:winapinls.obj
 0002:000053ac       ??_C@_1M@MMBBFGAK@?$AAf?$AAr?$AA?9?$AAf?$AAr?$AA?$AA@ 0041e3ac     LIBCMT:winapinls.obj
 0002:000053b8       ??_C@_1M@PAFNENNF@?$AAf?$AAr?$AA?9?$AAl?$AAu?$AA?$AA@ 0041e3b8     LIBCMT:winapinls.obj
 0002:000053c4       ??_C@_1M@EOHDJGDD@?$AAf?$AAr?$AA?9?$AAm?$AAc?$AA?$AA@ 0041e3c4     LIBCMT:winapinls.obj
 0002:000053d0       ??_C@_1M@FAPLLOPF@?$AAg?$AAl?$AA?9?$AAe?$AAs?$AA?$AA@ 0041e3d0     LIBCMT:winapinls.obj
 0002:000053dc       ??_C@_1M@FOPBFLOO@?$AAg?$AAu?$AA?9?$AAi?$AAn?$AA?$AA@ 0041e3dc     LIBCMT:winapinls.obj
 0002:000053e8       ??_C@_1M@KBMCINPM@?$AAh?$AAe?$AA?9?$AAi?$AAl?$AA?$AA@ 0041e3e8     LIBCMT:winapinls.obj
 0002:000053f4       ??_C@_1M@BBPHKFPJ@?$AAh?$AAi?$AA?9?$AAi?$AAn?$AA?$AA@ 0041e3f4     LIBCMT:winapinls.obj
 0002:00005400       ??_C@_1M@PMBNDPHD@?$AAh?$AAr?$AA?9?$AAb?$AAa?$AA?$AA@ 0041e400     LIBCMT:winapinls.obj
 0002:0000540c       ??_C@_1M@BPCKOEGE@?$AAh?$AAr?$AA?9?$AAh?$AAr?$AA?$AA@ 0041e40c     LIBCMT:winapinls.obj
 0002:00005418       ??_C@_1M@GACBMHKE@?$AAh?$AAu?$AA?9?$AAh?$AAu?$AA?$AA@ 0041e418     LIBCMT:winapinls.obj
 0002:00005424       ??_C@_1M@MILPAJJC@?$AAh?$AAy?$AA?9?$AAa?$AAm?$AA?$AA@ 0041e424     LIBCMT:winapinls.obj
 0002:00005430       ??_C@_1M@BABBICEC@?$AAi?$AAd?$AA?9?$AAi?$AAd?$AA?$AA@ 0041e430     LIBCMT:winapinls.obj
 0002:0000543c       ??_C@_1M@BIKNHHPF@?$AAi?$AAs?$AA?9?$AAi?$AAs?$AA?$AA@ 0041e43c     LIBCMT:winapinls.obj
 0002:00005448       ??_C@_1M@NMPCJPHE@?$AAi?$AAt?$AA?9?$AAc?$AAh?$AA?$AA@ 0041e448     LIBCMT:winapinls.obj
 0002:00005454       ??_C@_1M@GHKGFEDF@?$AAi?$AAt?$AA?9?$AAi?$AAt?$AA?$AA@ 0041e454     LIBCMT:winapinls.obj
 0002:00005460       ??_C@_1M@NIEJCJJA@?$AAj?$AAa?$AA?9?$AAj?$AAp?$AA?$AA@ 0041e460     LIBCMT:winapinls.obj
 0002:0000546c       ??_C@_1M@JILFNBIM@?$AAk?$AAa?$AA?9?$AAg?$AAe?$AA?$AA@ 0041e46c     LIBCMT:winapinls.obj
 0002:00005478       ??_C@_1M@PACPMGPH@?$AAk?$AAk?$AA?9?$AAk?$AAz?$AA?$AA@ 0041e478     LIBCMT:winapinls.obj
 0002:00005484       ??_C@_1M@IELFGMHA@?$AAk?$AAn?$AA?9?$AAi?$AAn?$AA?$AA@ 0041e484     LIBCMT:winapinls.obj
 0002:00005490       ??_C@_1O@IBBJHCH@?$AAk?$AAo?$AAk?$AA?9?$AAi?$AAn?$AA?$AA@ 0041e490     LIBCMT:winapinls.obj
 0002:000054a0       ??_C@_1M@DMHAEOGC@?$AAk?$AAo?$AA?9?$AAk?$AAr?$AA?$AA@ 0041e4a0     LIBCMT:winapinls.obj
 0002:000054ac       ??_C@_1M@HBAHBIGA@?$AAk?$AAy?$AA?9?$AAk?$AAg?$AA?$AA@ 0041e4ac     LIBCMT:winapinls.obj
 0002:000054b8       ??_C@_1M@KPMILCJG@?$AAl?$AAt?$AA?9?$AAl?$AAt?$AA?$AA@ 0041e4b8     LIBCMT:winapinls.obj
 0002:000054c4       ??_C@_1M@BDEKKCA@?$AAl?$AAv?$AA?9?$AAl?$AAv?$AA?$AA@ 0041e4c4     LIBCMT:winapinls.obj
 0002:000054d0       ??_C@_1M@ELCKCCJJ@?$AAm?$AAi?$AA?9?$AAn?$AAz?$AA?$AA@ 0041e4d0     LIBCMT:winapinls.obj
 0002:000054dc       ??_C@_1M@CBOOLAPA@?$AAm?$AAk?$AA?9?$AAm?$AAk?$AA?$AA@ 0041e4dc     LIBCMT:winapinls.obj
 0002:000054e8       ??_C@_1M@GPHNBJKN@?$AAm?$AAl?$AA?9?$AAi?$AAn?$AA?$AA@ 0041e4e8     LIBCMT:winapinls.obj
 0002:000054f4       ??_C@_1M@PABJILIG@?$AAm?$AAn?$AA?9?$AAm?$AAn?$AA?$AA@ 0041e4f4     LIBCMT:winapinls.obj
 0002:00005500       ??_C@_1M@FGBKKIPG@?$AAm?$AAr?$AA?9?$AAi?$AAn?$AA?$AA@ 0041e500     LIBCMT:winapinls.obj
 0002:0000550c       ??_C@_1M@NDBPDDAL@?$AAm?$AAs?$AA?9?$AAb?$AAn?$AA?$AA@ 0041e50c     LIBCMT:winapinls.obj
 0002:00005518       ??_C@_1M@OPIHOOPI@?$AAm?$AAs?$AA?9?$AAm?$AAy?$AA?$AA@ 0041e518     LIBCMT:winapinls.obj
 0002:00005524       ??_C@_1M@PPDBCNFM@?$AAm?$AAt?$AA?9?$AAm?$AAt?$AA?$AA@ 0041e524     LIBCMT:winapinls.obj
 0002:00005530       ??_C@_1M@KDJDKMDD@?$AAn?$AAb?$AA?9?$AAn?$AAo?$AA?$AA@ 0041e530     LIBCMT:winapinls.obj
 0002:0000553c       ??_C@_1M@KFCFLMJP@?$AAn?$AAl?$AA?9?$AAb?$AAe?$AA?$AA@ 0041e53c     LIBCMT:winapinls.obj
 0002:00005548       ??_C@_1M@KPOPDDGO@?$AAn?$AAl?$AA?9?$AAn?$AAl?$AA?$AA@ 0041e548     LIBCMT:winapinls.obj
 0002:00005554       ??_C@_1M@LJKPEMLN@?$AAn?$AAn?$AA?9?$AAn?$AAo?$AA?$AA@ 0041e554     LIBCMT:winapinls.obj
 0002:00005560       ??_C@_1M@BDGHHBFL@?$AAn?$AAs?$AA?9?$AAz?$AAa?$AA?$AA@ 0041e560     LIBCMT:winapinls.obj
 0002:0000556c       ??_C@_1M@IDEHOAP@?$AAp?$AAa?$AA?9?$AAi?$AAn?$AA?$AA@ 0041e56c     LIBCMT:winapinls.obj
 0002:00005578       ??_C@_1M@HDBKGOGH@?$AAp?$AAl?$AA?9?$AAp?$AAl?$AA?$AA@ 0041e578     LIBCMT:winapinls.obj
 0002:00005584       ??_C@_1M@LJLLCMEH@?$AAp?$AAt?$AA?9?$AAb?$AAr?$AA?$AA@ 0041e584     LIBCMT:winapinls.obj
 0002:00005590       ??_C@_1M@NCMONAAL@?$AAp?$AAt?$AA?9?$AAp?$AAt?$AA?$AA@ 0041e590     LIBCMT:winapinls.obj
 0002:0000559c       ??_C@_1O@EAKMAJDN@?$AAq?$AAu?$AAz?$AA?9?$AAb?$AAo?$AA?$AA@ 0041e59c     LIBCMT:winapinls.obj
 0002:000055ac       ??_C@_1O@BHHPIGDN@?$AAq?$AAu?$AAz?$AA?9?$AAe?$AAc?$AA?$AA@ 0041e5ac     LIBCMT:winapinls.obj
 0002:000055bc       ??_C@_1O@GBAPEKMJ@?$AAq?$AAu?$AAz?$AA?9?$AAp?$AAe?$AA?$AA@ 0041e5bc     LIBCMT:winapinls.obj
 0002:000055cc       ??_C@_1M@CLGLEFBO@?$AAr?$AAo?$AA?9?$AAr?$AAo?$AA?$AA@ 0041e5cc     LIBCMT:winapinls.obj
 0002:000055d8       ??_C@_1M@CEEDODME@?$AAr?$AAu?$AA?9?$AAr?$AAu?$AA?$AA@ 0041e5d8     LIBCMT:winapinls.obj
 0002:000055e4       ??_C@_1M@HPKKKMPP@?$AAs?$AAa?$AA?9?$AAi?$AAn?$AA?$AA@ 0041e5e4     LIBCMT:winapinls.obj
 0002:000055f0       ??_C@_1M@BKMAIGOJ@?$AAs?$AAe?$AA?9?$AAf?$AAi?$AA?$AA@ 0041e5f0     LIBCMT:winapinls.obj
 0002:000055fc       ??_C@_1M@NDPIFLFI@?$AAs?$AAe?$AA?9?$AAn?$AAo?$AA?$AA@ 0041e5fc     LIBCMT:winapinls.obj
 0002:00005608       ??_C@_1M@DANKKHJ@?$AAs?$AAe?$AA?9?$AAs?$AAe?$AA?$AA@ 0041e608     LIBCMT:winapinls.obj
 0002:00005614       ??_C@_1M@PNBLONPJ@?$AAs?$AAk?$AA?9?$AAs?$AAk?$AA?$AA@ 0041e614     LIBCMT:winapinls.obj
 0002:00005620       ??_C@_1M@LFMODOAL@?$AAs?$AAl?$AA?9?$AAs?$AAi?$AA?$AA@ 0041e620     LIBCMT:winapinls.obj
 0002:0000562c       ??_C@_1O@DFKOMPG@?$AAs?$AAm?$AAa?$AA?9?$AAn?$AAo?$AA?$AA@ 0041e62c     LIBCMT:winapinls.obj
 0002:0000563c       ??_C@_1O@NDKPBNNH@?$AAs?$AAm?$AAa?$AA?9?$AAs?$AAe?$AA?$AA@ 0041e63c     LIBCMT:winapinls.obj
 0002:0000564c       ??_C@_1O@PLLKBHAB@?$AAs?$AAm?$AAj?$AA?9?$AAn?$AAo?$AA?$AA@ 0041e64c     LIBCMT:winapinls.obj
 0002:0000565c       ??_C@_1O@CLEPOGCA@?$AAs?$AAm?$AAj?$AA?9?$AAs?$AAe?$AA?$AA@ 0041e65c     LIBCMT:winapinls.obj
 0002:0000566c       ??_C@_1O@DLGJGKMK@?$AAs?$AAm?$AAn?$AA?9?$AAf?$AAi?$AA?$AA@ 0041e66c     LIBCMT:winapinls.obj
 0002:0000567c       ??_C@_1O@OJDJGAJC@?$AAs?$AAm?$AAs?$AA?9?$AAf?$AAi?$AA?$AA@ 0041e67c     LIBCMT:winapinls.obj
 0002:0000568c       ??_C@_1M@BOFOGHPB@?$AAs?$AAq?$AA?9?$AAa?$AAl?$AA?$AA@ 0041e68c     LIBCMT:winapinls.obj
 0002:00005698       ??_C@_1BG@LJBBIPGB@?$AAs?$AAr?$AA?9?$AAb?$AAa?$AA?9?$AAc?$AAy?$AAr?$AAl?$AA?$AA@ 0041e698     LIBCMT:winapinls.obj
 0002:000056b0       ??_C@_1BG@JLBENFOE@?$AAs?$AAr?$AA?9?$AAb?$AAa?$AA?9?$AAl?$AAa?$AAt?$AAn?$AA?$AA@ 0041e6b0     LIBCMT:winapinls.obj
 0002:000056c8       ??_C@_1BG@KODPNHE@?$AAs?$AAr?$AA?9?$AAs?$AAp?$AA?9?$AAc?$AAy?$AAr?$AAl?$AA?$AA@ 0041e6c8     LIBCMT:winapinls.obj
 0002:000056e0       ??_C@_1BG@CIOGKHPB@?$AAs?$AAr?$AA?9?$AAs?$AAp?$AA?9?$AAl?$AAa?$AAt?$AAn?$AA?$AA@ 0041e6e0     LIBCMT:winapinls.obj
 0002:000056f8       ??_C@_1M@NGFJLMAC@?$AAs?$AAv?$AA?9?$AAf?$AAi?$AA?$AA@ 0041e6f8     LIBCMT:winapinls.obj
 0002:00005704       ??_C@_1M@MPJEJAJC@?$AAs?$AAv?$AA?9?$AAs?$AAe?$AA?$AA@ 0041e704     LIBCMT:winapinls.obj
 0002:00005710       ??_C@_1M@MPNDHLFK@?$AAs?$AAw?$AA?9?$AAk?$AAe?$AA?$AA@ 0041e710     LIBCMT:winapinls.obj
 0002:0000571c       ??_C@_1O@KOHBJJI@?$AAs?$AAy?$AAr?$AA?9?$AAs?$AAy?$AA?$AA@ 0041e71c     LIBCMT:winapinls.obj
 0002:0000572c       ??_C@_1M@LDCEFHA@?$AAt?$AAa?$AA?9?$AAi?$AAn?$AA?$AA@ 0041e72c     LIBCMT:winapinls.obj
 0002:00005738       ??_C@_1M@CNJOFAK@?$AAt?$AAe?$AA?9?$AAi?$AAn?$AA?$AA@ 0041e738     LIBCMT:winapinls.obj
 0002:00005744       ??_C@_1M@GNAECACD@?$AAt?$AAh?$AA?9?$AAt?$AAh?$AA?$AA@ 0041e744     LIBCMT:winapinls.obj
 0002:00005750       ??_C@_1M@CHBIHOJO@?$AAt?$AAn?$AA?9?$AAz?$AAa?$AA?$AA@ 0041e750     LIBCMT:winapinls.obj
 0002:0000575c       ??_C@_1M@GCCMIGPJ@?$AAt?$AAr?$AA?9?$AAt?$AAr?$AA?$AA@ 0041e75c     LIBCMT:winapinls.obj
 0002:00005768       ??_C@_1M@CELMCNBK@?$AAt?$AAt?$AA?9?$AAr?$AAu?$AA?$AA@ 0041e768     LIBCMT:winapinls.obj
 0002:00005774       ??_C@_1M@KLMCELGA@?$AAu?$AAk?$AA?9?$AAu?$AAa?$AA?$AA@ 0041e774     LIBCMT:winapinls.obj
 0002:00005780       ??_C@_1M@EPAJJAJF@?$AAu?$AAr?$AA?9?$AAp?$AAk?$AA?$AA@ 0041e780     LIBCMT:winapinls.obj
 0002:0000578c       ??_C@_1BG@GEGPMCDJ@?$AAu?$AAz?$AA?9?$AAu?$AAz?$AA?9?$AAc?$AAy?$AAr?$AAl?$AA?$AA@ 0041e78c     LIBCMT:winapinls.obj
 0002:000057a4       ??_C@_1BG@EGGKJILM@?$AAu?$AAz?$AA?9?$AAu?$AAz?$AA?9?$AAl?$AAa?$AAt?$AAn?$AA?$AA@ 0041e7a4     LIBCMT:winapinls.obj
 0002:000057bc       ??_C@_1M@GFOCLFF@?$AAv?$AAi?$AA?9?$AAv?$AAn?$AA?$AA@ 0041e7bc     LIBCMT:winapinls.obj
 0002:000057c8       ??_C@_1M@CPAMEDFI@?$AAx?$AAh?$AA?9?$AAz?$AAa?$AA?$AA@ 0041e7c8     LIBCMT:winapinls.obj
 0002:000057d4       ??_C@_1O@EBKIFIGN@?$AAz?$AAh?$AA?9?$AAc?$AAh?$AAs?$AA?$AA@ 0041e7d4     LIBCMT:winapinls.obj
 0002:000057e4       ??_C@_1O@NMHPGANE@?$AAz?$AAh?$AA?9?$AAc?$AAh?$AAt?$AA?$AA@ 0041e7e4     LIBCMT:winapinls.obj
 0002:000057f4       ??_C@_1M@LPINJOMC@?$AAz?$AAh?$AA?9?$AAc?$AAn?$AA?$AA@ 0041e7f4     LIBCMT:winapinls.obj
 0002:00005800       ??_C@_1M@OCJEJODD@?$AAz?$AAh?$AA?9?$AAh?$AAk?$AA?$AA@ 0041e800     LIBCMT:winapinls.obj
 0002:0000580c       ??_C@_1M@DNDLJINH@?$AAz?$AAh?$AA?9?$AAm?$AAo?$AA?$AA@ 0041e80c     LIBCMT:winapinls.obj
 0002:00005818       ??_C@_1M@MBFDNDND@?$AAz?$AAh?$AA?9?$AAs?$AAg?$AA?$AA@ 0041e818     LIBCMT:winapinls.obj
 0002:00005824       ??_C@_1M@IMEPLEPE@?$AAz?$AAh?$AA?9?$AAt?$AAw?$AA?$AA@ 0041e824     LIBCMT:winapinls.obj
 0002:00005830       ??_C@_1M@BBGHNHJP@?$AAz?$AAu?$AA?9?$AAz?$AAa?$AA?$AA@ 0041e830     LIBCMT:winapinls.obj
 0002:0000583c       ??_C@_06PGGFOGJG@1?$CDSNAN?$AA@ 0041e83c     LIBCMT:x10fout.obj
 0002:00005844       ??_C@_05PHHOCPM@1?$CDIND?$AA@ 0041e844     LIBCMT:x10fout.obj
 0002:0000584c       ??_C@_05DNEBIAHO@1?$CDINF?$AA@ 0041e84c     LIBCMT:x10fout.obj
 0002:00005854       ??_C@_06IMKFLFPG@1?$CDQNAN?$AA@ 0041e854     LIBCMT:x10fout.obj
 0002:0000585c       ??_C@_04FJHINJAO@tanh?$AA@ 0041e85c     LIBCMT:fpexcept.obj
 0002:00005864       ??_C@_05KNGEOGJB@atan2?$AA@ 0041e864     LIBCMT:fpexcept.obj
 0002:0000586c       ??_C@_04ODHECPBC@fabs?$AA@ 0041e86c     LIBCMT:fpexcept.obj
 0002:00005874       ??_C@_05CEJMAHNP@ldexp?$AA@ 0041e874     LIBCMT:fpexcept.obj
 0002:0000587c       ??_C@_05KBKMEMPO@_cabs?$AA@ 0041e87c     LIBCMT:fpexcept.obj
 0002:00005884       ??_C@_06MEIMCGCF@_hypot?$AA@ 0041e884     LIBCMT:fpexcept.obj
 0002:0000588c       ??_C@_04KEPJIHGP@fmod?$AA@ 0041e88c     LIBCMT:fpexcept.obj
 0002:00005894       ??_C@_05GKKHEGJL@frexp?$AA@ 0041e894     LIBCMT:fpexcept.obj
 0002:0000589c       ??_C@_03MJLDFKDL@_y0?$AA@  0041e89c     LIBCMT:fpexcept.obj
 0002:000058a0       ??_C@_03NAKIGLHK@_y1?$AA@  0041e8a0     LIBCMT:fpexcept.obj
 0002:000058a4       ??_C@_03ONILCKOB@_yn?$AA@  0041e8a4     LIBCMT:fpexcept.obj
 0002:000058a8       ??_C@_05JGDBENOH@_logb?$AA@ 0041e8a8     LIBCMT:fpexcept.obj
 0002:000058b0       ??_C@_0L@KDOEJCKC@_nextafter?$AA@ 0041e8b0     LIBCMT:fpexcept.obj
 0002:000058bc       ??_C@_04COOMCNPB@sinh?$AA@ 0041e8bc     LIBCMT:fpexcept.obj
 0002:000058c4       ??_C@_04HPJJNFIM@cosh?$AA@ 0041e8c4     LIBCMT:fpexcept.obj
 0002:000058cc       ??_C@_1BA@BALFACEM@?$AAC?$AAO?$AAN?$AAO?$AAU?$AAT?$AA$?$AA?$AA@ 0041e8cc     LIBCMT:initcon.obj
 0002:000058e0       __load_config_used         0041e8e0     LIBCMT:loadcfg.obj
 0002:00005928       ??_R4FTII_VAR@@6B@         0041e928     monitor.obj
 0002:0000593c       ??_R3FTII_VAR@@8           0041e93c     monitor.obj
 0002:0000594c       ??_R2FTII_VAR@@8           0041e94c     monitor.obj
 0002:00005954       ??_R1A@?0A@EA@FTII_VAR@@8  0041e954     monitor.obj
 0002:00005970       ??_R4FTII_VAR_ARRAY@@6B@   0041e970     monitor.obj
 0002:00005984       ??_R3FTII_VAR_ARRAY@@8     0041e984     monitor.obj
 0002:00005994       ??_R2FTII_VAR_ARRAY@@8     0041e994     monitor.obj
 0002:000059a0       ??_R1A@?0A@EA@FTII_VAR_ARRAY@@8 0041e9a0     monitor.obj
 0002:000059bc       ??_R4WINDOW_CLASS@@6B@     0041e9bc     v5subs:statics.obj
 0002:000059d0       ??_R3WINDOW_CLASS@@8       0041e9d0     v5subs:statics.obj
 0002:000059e0       ??_R2WINDOW_CLASS@@8       0041e9e0     v5subs:statics.obj
 0002:000059e8       ??_R1A@?0A@EA@WINDOW_CLASS@@8 0041e9e8     v5subs:statics.obj
 0002:00005a04       ??_R1A@?0A@EA@exception@std@@8 0041ea04     LIBCMT:new.obj
 0002:00005a20       ??_R3exception@std@@8      0041ea20     LIBCMT:new.obj
 0002:00005a30       ??_R2exception@std@@8      0041ea30     LIBCMT:new.obj
 0002:00005a38       ??_R4bad_alloc@std@@6B@    0041ea38     LIBCMT:new.obj
 0002:00005a4c       ??_R3bad_alloc@std@@8      0041ea4c     LIBCMT:new.obj
 0002:00005a5c       ??_R2bad_alloc@std@@8      0041ea5c     LIBCMT:new.obj
 0002:00005a68       ??_R1A@?0A@EA@bad_alloc@std@@8 0041ea68     LIBCMT:new.obj
 0002:00005a84       ??_R4type_info@@6B@        0041ea84     LIBCMT:typinfo.obj
 0002:00005a98       ??_R3type_info@@8          0041ea98     LIBCMT:typinfo.obj
 0002:00005aa8       ??_R2type_info@@8          0041eaa8     LIBCMT:typinfo.obj
 0002:00005ab0       ??_R1A@?0A@EA@type_info@@8 0041eab0     LIBCMT:typinfo.obj
 0002:00005acc       ??_R4exception@std@@6B@    0041eacc     LIBCMT:stdexcpt.obj
 0002:00005ae0       ___safe_se_handler_table   0041eae0     <linker-defined>
 0002:00005aec       ___rtc_iaa                 0041eaec     LIBCMT:initsect.obj
 0002:00005af0       ___rtc_izz                 0041eaf0     LIBCMT:initsect.obj
 0002:00005af4       ___rtc_taa                 0041eaf4     LIBCMT:initsect.obj
 0002:00005af8       ___rtc_tzz                 0041eaf8     LIBCMT:initsect.obj
 0002:00005b1c       __TI2?AVbad_alloc@std@@    0041eb1c     LIBCMT:new.obj
 0002:00005b2c       __CTA2?AVbad_alloc@std@@   0041eb2c     LIBCMT:new.obj
 0002:00005b38       __CT??_R0?AVbad_alloc@std@@@8??0bad_alloc@std@@QAE@ABV01@@Z12 0041eb38     LIBCMT:new.obj
 0002:00005b54       __CT??_R0?AVexception@std@@@8??0exception@std@@QAE@ABV01@@Z12 0041eb54     LIBCMT:new.obj
 0002:00005e44       __IMPORT_DESCRIPTOR_KERNEL32 0041ee44     kernel32:KERNEL32.dll
 0002:00005e58       __IMPORT_DESCRIPTOR_USER32 0041ee58     user32:USER32.dll
 0002:00005e6c       __IMPORT_DESCRIPTOR_GDI32  0041ee6c     gdi32:GDI32.dll
 0002:00005e80       __IMPORT_DESCRIPTOR_SHELL32 0041ee80     shell32:SHELL32.dll
 0002:00005e94       __NULL_IMPORT_DESCRIPTOR   0041ee94     kernel32:KERNEL32.dll
 0003:00000000       ?XChar@@3_WA               00420000     monedit.obj
 0003:00000004       ?YChar@@3_WA               00420004     monedit.obj
 0003:00000008       ?ZChar@@3_WA               00420008     monedit.obj
 0003:0000000c       ?ACharLow@@3_WA            0042000c     monedit.obj
 0003:00000010       ?BCharLow@@3_WA            00420010     monedit.obj
 0003:00000014       ?CCharLow@@3_WA            00420014     monedit.obj
 0003:00000018       ?DCharLow@@3_WA            00420018     monedit.obj
 0003:0000001c       ?ECharLow@@3_WA            0042001c     monedit.obj
 0003:00000020       ?FCharLow@@3_WA            00420020     monedit.obj
 0003:00000024       ?GCharLow@@3_WA            00420024     monedit.obj
 0003:00000028       ?HCharLow@@3_WA            00420028     monedit.obj
 0003:0000002c       ?ICharLow@@3_WA            0042002c     monedit.obj
 0003:00000030       ?JCharLow@@3_WA            00420030     monedit.obj
 0003:00000034       ?KCharLow@@3_WA            00420034     monedit.obj
 0003:00000038       ?LCharLow@@3_WA            00420038     monedit.obj
 0003:0000003c       ?MCharLow@@3_WA            0042003c     monedit.obj
 0003:00000040       ?NCharLow@@3_WA            00420040     monedit.obj
 0003:00000044       ?OCharLow@@3_WA            00420044     monedit.obj
 0003:00000048       ?PCharLow@@3_WA            00420048     monedit.obj
 0003:0000004c       ?QCharLow@@3_WA            0042004c     monedit.obj
 0003:00000050       ?RCharLow@@3_WA            00420050     monedit.obj
 0003:00000054       ?SCharLow@@3_WA            00420054     monedit.obj
 0003:00000058       ?TCharLow@@3_WA            00420058     monedit.obj
 0003:0000005c       ?UCharLow@@3_WA            0042005c     monedit.obj
 0003:00000060       ?VCharLow@@3_WA            00420060     monedit.obj
 0003:00000064       ?WCharLow@@3_WA            00420064     monedit.obj
 0003:00000068       ?XCharLow@@3_WA            00420068     monedit.obj
 0003:0000006c       ?YCharLow@@3_WA            0042006c     monedit.obj
 0003:00000070       ?ZCharLow@@3_WA            00420070     monedit.obj
 0003:00000074       ?AsterixChar@@3_WA         00420074     monedit.obj
 0003:00000078       ?BackSlashChar@@3_WA       00420078     monedit.obj
 0003:0000007c       ?CaretChar@@3_WA           0042007c     monedit.obj
 0003:00000080       ?CloseParen@@3_WA          00420080     monedit.obj
 0003:00000084       ?ColonChar@@3_WA           00420084     monedit.obj
 0003:00000088       ?CommaChar@@3_WA           00420088     monedit.obj
 0003:0000008c       ?CrChar@@3_WA              0042008c     monedit.obj
 0003:00000090       ?DoubleQuoteChar@@3_WA     00420090     monedit.obj
 0003:00000094       ?EqualsChar@@3_WA          00420094     monedit.obj
 0003:00000098       ?EtxChar@@3_WA             00420098     monedit.obj
 0003:0000009c       ?ForwardSlashChar@@3_WA    0042009c     monedit.obj
 0003:000000a0       ?LeftBracketChar@@3_WA     004200a0     monedit.obj
 0003:000000a4       ?LeftCurlyBracket@@3_WA    004200a4     monedit.obj
 0003:000000a8       ?LeftParen@@3_WA           004200a8     monedit.obj
 0003:000000ac       ?LfChar@@3_WA              004200ac     monedit.obj
 0003:000000b0       ?MinusChar@@3_WA           004200b0     monedit.obj
 0003:000000b4       ?OpenParen@@3_WA           004200b4     monedit.obj
 0003:000000b8       ?PercentChar@@3_WA         004200b8     monedit.obj
 0003:000000bc       ?PeriodChar@@3_WA          004200bc     monedit.obj
 0003:000000c0       ?PlusChar@@3_WA            004200c0     monedit.obj
 0003:000000c4       ?PoundChar@@3_WA           004200c4     monedit.obj
 0003:000000c8       ?QuoteChar@@3_WA           004200c8     monedit.obj
 0003:000000cc       ?RightBracketChar@@3_WA    004200cc     monedit.obj
 0003:000000d0       ?RightCurlyBracket@@3_WA   004200d0     monedit.obj
 0003:000000d4       ?RightParen@@3_WA          004200d4     monedit.obj
 0003:000000d8       ?SemiColonChar@@3_WA       004200d8     monedit.obj
 0003:000000dc       ?SpaceChar@@3_WA           004200dc     monedit.obj
 0003:000000e0       ?TabChar@@3_WA             004200e0     monedit.obj
 0003:000000e4       ?TildaChar@@3_WA           004200e4     monedit.obj
 0003:000000e8       ?UnderScoreChar@@3_WA      004200e8     monedit.obj
 0003:000000ec       ?ZeroChar@@3_WA            004200ec     monedit.obj
 0003:000000f0       ?OneChar@@3_WA             004200f0     monedit.obj
 0003:000000f4       ?TwoChar@@3_WA             004200f4     monedit.obj
 0003:000000f8       ?ThreeChar@@3_WA           004200f8     monedit.obj
 0003:000000fc       ?FourChar@@3_WA            004200fc     monedit.obj
 0003:00000100       ?FiveChar@@3_WA            00420100     monedit.obj
 0003:00000104       ?SixChar@@3_WA             00420104     monedit.obj
 0003:00000108       ?SevenChar@@3_WA           00420108     monedit.obj
 0003:0000010c       ?StxChar@@3_WA             0042010c     monedit.obj
 0003:00000110       ?EightChar@@3_WA           00420110     monedit.obj
 0003:00000114       ?NineChar@@3_WA            00420114     monedit.obj
 0003:00000118       ?AsterixString@@3PA_WA     00420118     monedit.obj
 0003:0000011c       ?CommaString@@3PA_WA       0042011c     monedit.obj
 0003:00000120       ?CrLfString@@3PA_WA        00420120     monedit.obj
 0003:00000128       ?SpaceString@@3PA_WA       00420128     monedit.obj
 0003:0000012c       ?StarDotStar@@3PA_WA       0042012c     monedit.obj
 0003:00000134       ?ZeroPointZero@@3PA_WA     00420134     monedit.obj
 0003:0000013c       ?NofItems@@3HA             0042013c     monedit.obj
 0003:00000140       ?ItemList@@3PAUITEM_ENTRY@@A 00420140     monedit.obj
 0003:00000588       ?MyClassName@@3PA_WA       00420588     monedit.obj
 0003:00000600       ?NoComputer@@3PA_WA        00420600     monedit.obj
 0003:00000608       ?NoMachine@@3PA_WA         00420608     monedit.obj
 0003:00000610       ?CurrentMachineIndex@@3HA  00420610     monedit.obj
 0003:00000614       ?AChar@@3_WA               00420614     monedit.obj
 0003:00000618       ?BChar@@3_WA               00420618     monedit.obj
 0003:0000061c       ?CChar@@3_WA               0042061c     monedit.obj
 0003:00000620       ?DChar@@3_WA               00420620     monedit.obj
 0003:00000624       ?EChar@@3_WA               00420624     monedit.obj
 0003:00000628       ?FChar@@3_WA               00420628     monedit.obj
 0003:0000062c       ?GChar@@3_WA               0042062c     monedit.obj
 0003:00000630       ?HChar@@3_WA               00420630     monedit.obj
 0003:00000634       ?IChar@@3_WA               00420634     monedit.obj
 0003:00000638       ?JChar@@3_WA               00420638     monedit.obj
 0003:0000063c       ?KChar@@3_WA               0042063c     monedit.obj
 0003:00000640       ?LChar@@3_WA               00420640     monedit.obj
 0003:00000644       ?MChar@@3_WA               00420644     monedit.obj
 0003:00000648       ?NChar@@3_WA               00420648     monedit.obj
 0003:0000064c       ?OChar@@3_WA               0042064c     monedit.obj
 0003:00000650       ?PChar@@3_WA               00420650     monedit.obj
 0003:00000654       ?QChar@@3_WA               00420654     monedit.obj
 0003:00000658       ?RChar@@3_WA               00420658     monedit.obj
 0003:0000065c       ?SChar@@3_WA               0042065c     monedit.obj
 0003:00000660       ?TChar@@3_WA               00420660     monedit.obj
 0003:00000664       ?UChar@@3_WA               00420664     monedit.obj
 0003:00000668       ?VChar@@3_WA               00420668     monedit.obj
 0003:0000066c       ?WChar@@3_WA               0042066c     monedit.obj
 0003:00001094       ?FileTimeoutError@@3PA_WA  00421094     v5subs:dbsubs.obj
 0003:000010b8       ?FileNotFoundError@@3PA_WA 004210b8     v5subs:dbsubs.obj
 0003:000010d8       ?PathNotFoundError@@3PA_WA 004210d8     v5subs:dbsubs.obj
 0003:00001110       ?ResultsString@@3PA_WA     00421110     v5subs:partlist.obj
 0003:0000143c       ___security_cookie         0042143c     LIBCMT:gs_cookie.obj
 0003:00001440       ___security_cookie_complement 00421440     LIBCMT:gs_cookie.obj
 0003:00001450       __fltused                  00421450     LIBCMT:fpinit.obj
 0003:00001454       __ldused                   00421454     LIBCMT:fpinit.obj
 0003:00001460       ___flsindex                00421460     LIBCMT:tidtable.obj
 0003:00001468       ___badioinfo               00421468     LIBCMT:ioinit.obj
 0003:000014ac       ___isa_enabled             004214ac     LIBCMT:cpu_disp.obj
 0003:000014b0       __cfltcvt_tab              004214b0     LIBCMT:cmiscdat.obj
 0003:00001648       __mbctype                  00421648     LIBCMT:mbctype.obj
 0003:00001750       __mbcasemap                00421750     LIBCMT:mbctype.obj
 0003:00001850       ___initialmbcinfo          00421850     LIBCMT:mbctype.obj
 0003:00001a74       ___ptmbcinfo               00421a74     LIBCMT:mbctype.obj
 0003:00001b68       ___mb_cur_max              00421b68     LIBCMT:nlsdata.obj
 0003:00001b6c       ___wclocalestr             00421b6c     LIBCMT:nlsdata.obj
 0003:00001b70       ___lc_time_c               00421b70     LIBCMT:nlsdata.obj
 0003:00001cd4       ___ptlocinfo               00421cd4     LIBCMT:nlsdata.obj
 0003:00001cd8       ___initiallocinfo          00421cd8     LIBCMT:nlsdata.obj
 0003:00001d90       ___initiallocalestructinfo 00421d90     LIBCMT:nlsdata.obj
 0003:00001d98       ___globallocalestatus      00421d98     LIBCMT:glstatus.obj
 0003:00001da0       __HUGE                     00421da0     LIBCMT:huge.obj
 0003:00001ed0       __iob                      00421ed0     LIBCMT:_file.obj
 0003:00002150       ___lconv                   00422150     LIBCMT:lconv.obj
 0003:00002154       ___lconv_static_decimal    00422154     LIBCMT:lconv.obj
 0003:00002158       ___lconv_c                 00422158     LIBCMT:lconv.obj
 0003:000021a8       ___lconv_static_W_decimal  004221a8     LIBCMT:lconv.obj
 0003:000021ac       __pctype                   004221ac     LIBCMT:ctype.obj
 0003:000021b0       __pwctype                  004221b0     LIBCMT:ctype.obj
 0003:000021e4       __matherr_flag             004221e4     LIBCMT:matherr.obj
 0003:000022d0       __d_inf                    004222d0     LIBCMT:util.obj
 0003:000022d8       __d_ind                    004222d8     LIBCMT:util.obj
 0003:000022e0       __d_max                    004222e0     LIBCMT:util.obj
 0003:000022e8       __d_min                    004222e8     LIBCMT:util.obj
 0003:000022f0       __d_mzero                  004222f0     LIBCMT:util.obj
 0003:00002314       ___abort_behavior          00422314     LIBCMT:abort.obj
 0003:00002320       __NLG_Destination          00422320     LIBCMT:exsup.obj
 0003:00002330       __pow10pos                 00422330     LIBCMT:constpow.obj
 0003:00002490       __pow10neg                 00422490     LIBCMT:constpow.obj
 0003:000025f0       __confh                    004225f0     LIBCMT:initcon.obj
 0003:000025f4       ??_R0?AVFTII_VAR@@@8       004225f4     monitor.obj
 0003:0000260c       ??_R0?AVFTII_VAR_ARRAY@@@8 0042260c     monitor.obj
 0003:0000262c       ??_R0?AVWINDOW_CLASS@@@8   0042262c     v5subs:statics.obj
 0003:00002648       ??_R0?AVbad_alloc@std@@@8  00422648     LIBCMT:new.obj
 0003:00002664       ??_R0?AVexception@std@@@8  00422664     LIBCMT:new.obj
 0003:00002680       ??_R0?AVtype_info@@@8      00422680     LIBCMT:typinfo.obj
 0003:000026a0       ?NullChar@@3_WA            004226a0     monedit.obj
 0003:000026a2       ?ShuttingDown@@3EA         004226a2     monedit.obj
 0003:000026a4       ?EmptyString@@3PA_WA       004226a4     monedit.obj
 0003:000026a8       ?MainInstance@@3PAUHINSTANCE__@@A 004226a8     monedit.obj
 0003:000026ac       ?MainWindow@@3PAUHWND__@@A 004226ac     monedit.obj
 0003:000026b0       ?MonitorWindow@@3PAUHWND__@@A 004226b0     monedit.obj
 0003:000026b4       ?MachineList@@3PAUMONITOR_ENTRY@@A 004226b4     monedit.obj
 0003:000026b8       ?NofMachines@@3HA          004226b8     monedit.obj
 0003:000026bc       ?ComputerName@@3VSTRING_CLASS@@A 004226bc     monedit.obj
 0003:000026c4       ?NewSetupMachine@@3VSTRING_CLASS@@A 004226c4     monedit.obj
 0003:000026cc       ?MyWindowTitle@@3VSTRING_CLASS@@A 004226cc     monedit.obj
 0003:000026d4       ?FontList@@3VFONT_LIST_CLASS@@A 004226d4     monedit.obj
 0003:000026d8       ?StringTable@@3VSTRINGTABLE_CLASS@@A 004226d8     monedit.obj
 0003:00002758       ?ProgramIsUpdating@@3EA    00422758     monitor.obj
 0003:00002764       ___@@_PchSym_@00@UhlfixvhUevihrlmICFxUvnkgbUfuivvUvnkgbOlyq@6B73A80F87A14A31 00422764     empty.obj
 0003:00002768       ?emptystring@STRING_CLASS@@0PA_WA 00422768     v5subs:stringcl.obj
 0003:00003350       __aenvptr                  00423350     LIBCMT:wincrt0.obj
 0003:00003354       __wenvptr                  00423354     LIBCMT:wincrt0.obj
 0003:00003358       ___fastflag                00423358     LIBCMT:fpinit.obj
 0003:00003680       __C_Exit_Done              00423680     LIBCMT:crt0dat.obj
 0003:00003684       ___argc                    00423684     LIBCMT:crt0dat.obj
 0003:00003688       ___argv                    00423688     LIBCMT:crt0dat.obj
 0003:0000368c       ___wargv                   0042368c     LIBCMT:crt0dat.obj
 0003:00003690       __environ                  00423690     LIBCMT:crt0dat.obj
 0003:00003694       __wenviron                 00423694     LIBCMT:crt0dat.obj
 0003:00003698       __pgmptr                   00423698     LIBCMT:crt0dat.obj
 0003:0000369c       __wpgmptr                  0042369c     LIBCMT:crt0dat.obj
 0003:000036a0       __umaskval                 004236a0     LIBCMT:crt0dat.obj
 0003:000036a4       __exitflag                 004236a4     LIBCMT:crt0dat.obj
 0003:000036a8       __C_Termination_Done       004236a8     LIBCMT:crt0dat.obj
 0003:000036ac       ___winitenv                004236ac     LIBCMT:crt0dat.obj
 0003:000036b0       ___initenv                 004236b0     LIBCMT:crt0dat.obj
 0003:000036b4       __maxwait                  004236b4     LIBCMT:crtheap.obj
 0003:000036b8       ?_pnhHeap@@3P6AHI@ZA       004236b8     LIBCMT:handler.obj
 0003:000036c4       __crtheap                  004236c4     LIBCMT:heapinit.obj
 0003:000036c8       ___pioinfo                 004236c8     LIBCMT:ioinit.obj
 0003:000038d0       ___app_type                004238d0     LIBCMT:crt0msg.obj
 0003:00003f00       ___error_mode              00423f00     LIBCMT:errmode.obj
 0003:00003f04       ___isa_available           00423f04     LIBCMT:cpu_disp.obj
 0003:00003f08       ___favor                   00423f08     LIBCMT:cpu_disp.obj
 0003:00003f0c       ___pInvalidArgHandler      00423f0c     LIBCMT:invarg.obj
 0003:00003f10       ___mbcodepage              00423f10     LIBCMT:mbctype.obj
 0003:00003f14       ___ismbcodepage            00423f14     LIBCMT:mbctype.obj
 0003:00003f18       ___mbulinfo                00423f18     LIBCMT:mbctype.obj
 0003:00003f24       ___mblocalename            00423f24     LIBCMT:mbctype.obj
 0003:00003f2c       ___locale_changed          00423f2c     LIBCMT:wsetloca.obj
 0003:00004088       ?__pInconsistency@@3P6AXXZA 00424088     LIBCMT:hooks.obj
 0003:0000408c       ___pPurecall               0042408c     LIBCMT:inithelp.obj
 0003:000040a8       __stdbuf                   004240a8     LIBCMT:_sftbuf.obj
 0003:000040b0       __newmode                  004240b0     LIBCMT:_newmode.obj
 0003:000040b4       ?pArgList@UnDecorator@@0PAVReplicator@@A 004240b4     LIBCMT:undname.obj
 0003:000040b8       ?pZNameList@UnDecorator@@0PAVReplicator@@A 004240b8     LIBCMT:undname.obj
 0003:000040bc       ?pTemplateArgList@UnDecorator@@0PAVReplicator@@A 004240bc     LIBCMT:undname.obj
 0003:000040c0       ?gName@UnDecorator@@0PBDB  004240c0     LIBCMT:undname.obj
 0003:000040c4       ?name@UnDecorator@@0PBDB   004240c4     LIBCMT:undname.obj
 0003:000040c8       ?outputString@UnDecorator@@0PADA 004240c8     LIBCMT:undname.obj
 0003:000040cc       ?maxStringLength@UnDecorator@@0HA 004240cc     LIBCMT:undname.obj
 0003:000040d0       ?disableFlags@UnDecorator@@0KA 004240d0     LIBCMT:undname.obj
 0003:000040d4       ?fExplicitTemplateParams@UnDecorator@@0_NA 004240d4     LIBCMT:undname.obj
 0003:000040d5       ?fGetTemplateArgumentList@UnDecorator@@0_NA 004240d5     LIBCMT:undname.obj
 0003:000040d8       ?m_pGetParameter@UnDecorator@@0P6APADJ@ZA 004240d8     LIBCMT:undname.obj
 0003:000040f0       __cflush                   004240f0     LIBCMT:_file.obj
 0003:00004108       __outputformat             00424108     LIBCMT:outputformat.obj
 0003:0000410c       ___lconv_static_null       0042410c     LIBCMT:lconv.obj
 0003:00004110       ___lconv_static_W_null     00424110     LIBCMT:lconv.obj
 0003:00004120       __bufin                    00424120     <common>
 0003:00005120       ___piob                    00425120     <common>
 0003:00005124       __nstream                  00425124     <common>
 0003:00005128       ___use_sse2_mathfcns       00425128     <common>
 0003:0000512c       __pmatherr                 0042512c     <common>
 0003:00005130       __debugger_hook_dummy      00425130     <common>
 0003:00005140       _encodedKERNEL32Functions  00425140     <common>
 0003:000051c4       __nhandle                  004251c4     <common>
 0003:000051c8       __pDestructExceptionObject 004251c8     <common>
 0003:000051cc       ___dyn_tls_init_callback   004251cc     <common>
 0003:000051d0       ___onexitend               004251d0     <common>
 0003:000051d4       ___onexitbegin             004251d4     <common>
 0003:000051d8       ___mbctype_initialized     004251d8     <common>
 0003:000051dc       ___env_initialized         004251dc     <common>
 0003:000051e0       __acmdln                   004251e0     <common>

 entry point at        0001:0000bf37

 Static symbols

 0002:fffe7000       .idata$6                   00400000     comdlg32:COMDLG32.dll
 0001:00000000       ??__EComputerName@@YAXXZ   00401000 f   monedit.obj
 0001:00000016       ??__EFontList@@YAXXZ       00401016 f   monedit.obj
 0001:0000002c       ??__EMyWindowTitle@@YAXXZ  0040102c f   monedit.obj
 0001:00000042       ??__ENewSetupMachine@@YAXXZ 00401042 f   monedit.obj
 0001:00000058       ??__EStringTable@@YAXXZ    00401058 f   monedit.obj
 0001:0000006e       ??__EMachineLineBuf@@YAXXZ 0040106e f   monitor.obj
 0001:00000084       ??__EEmptyString@@YAXXZ    00401084 f   v5subs:nameclas.obj
 0001:0000009a       ??__EMyComputer@@YAXXZ     0040109a f   v5subs:nameclas.obj
 0001:000000a4       ??__EMyComputer@@YAXXZ     004010a4 f   v5subs:computer.obj
 0001:000000ba       ??__ENoComputer@@YAXXZ     004010ba f   v5subs:computer.obj
 0001:000000d0       ??__EFontList@@YAXXZ       004010d0 f   v5subs:stringtable.obj
 0001:000000e6       ??__EEventList@@YAXXZ      004010e6 f   v5subs:client.obj
 0001:000000f2       ??__EEmptyString@@YAXXZ    004010f2 f   v5subs:machname.obj
 0001:00000108       ??__Eempty_entry@@YAXXZ    00401108 f   v5subs:setpoint.obj
 0001:00000128       ??__EExeDirectory@@YAXXZ   00401128 f   v5subs:gexedir.obj
 0001:00000140       ?gethelp@@YAXIK@Z          00401140 f   monedit.obj
 0001:0000018a       ?init@@YA_NH@Z             0040118a f   monedit.obj
 0001:000002d5       ?load_resources@@YAXXZ     004012d5 f   monedit.obj
 0001:0000095e       $LN36                      0040195e     monitor.obj
 0001:00000976       $LN30                      00401976     monitor.obj
 0001:00000b1c       ?check_monitor_status@@YAXXZ 00401b1c f   monitor.obj
 0001:00000bca       ?cleanup@@YAXXZ            00401bca f   monitor.obj
 0001:00000bea       ?display_config@@YAXXZ     00401bea f   monitor.obj
 0001:00000d09       ?display_post_impact_seconds@@YAXPAVPART_CLASS@@@Z 00401d09 f   monitor.obj
 0001:00000d5e       ?do_machine_select@@YAEXZ  00401d5e f   monitor.obj
 0001:00000e1f       ?do_newsetup@@YAXXZ        00401e1f f   monitor.obj
 0001:00001373       ?load_partlist@@YAXXZ      00402373 f   monitor.obj
 0001:000013a2       ?machine_listbox_string@@YAEH@Z 004023a2 f   monitor.obj
 0001:00001582       ?position_myself@@YAXPAUHWND__@@@Z 00402582 f   monitor.obj
 0001:00001774       ?refresh_machine_listbox@@YAXXZ 00402774 f   monitor.obj
 0001:00001f13       ?save_sample_seconds@@YAXH@Z 00402f13 f   monitor.obj
 0001:000021f7       ?set_tab_stops@@YAXXZ      004031f7 f   monitor.obj
 0001:0000225a       ?start_board_monitor@@YAXXZ 0040325a f   monitor.obj
 0001:000022af       ?startup@@YAXXZ            004032af f   monitor.obj
 0001:0000355c       ?goto_next_string@@YAPA_WPA_W@Z 0040455c f   v5subs:fontclas.obj
 0001:00003570       ?long_from_text@@YAJPB_W@Z 00404570 f   v5subs:fontclas.obj
 0001:000035dd       ?check_for_unicode_ini_file@@YAXPB_W0@Z 004045dd f   v5subs:iniclass.obj
 0001:000043a4       ?strip_whitespace_from_eol@@YAXPA_W@Z 004053a4 f   v5subs:stringtable.obj
 0001:000048ab       ?find_existing_event_item@@YAPAUEVENT_ITEM_ENTRY@@PAUEVENT_ENTRY@@F@Z 004058ab f   v5subs:client.obj
 0001:000048e4       ?find_existing_event_topic@@YAPAUEVENT_ENTRY@@PA_W@Z 004058e4 f   v5subs:client.obj
 0001:000065df       ?get_binary_valve_settings_from_control_all@@YAXAAVMACHINE_CLASS@@@Z 004075df f   v5subs:machine.obj
 0001:00008903       ?ascii_to_total_ms@@YAJPA_W@Z 00409903 f   v5subs:postsec.obj
 0001:00009602       ?variable_number@@YAHPB_W@Z 0040a602 f   v5subs:ftiiclas.obj
 0001:000099cc       ?numberlen@@YAFPB_W@Z      0040a9cc f   v5subs:extract.obj
 0001:00009ed4       ?file_type@@YAHPA_W@Z      0040aed4 f   v5subs:exists.obj
 0001:0000a003       ?get_static_exe_directory@@YAXXZ 0040b003 f   v5subs:gexedir.obj
 0001:0000a23d       ?add_field_delimiter@@YAXPA_W@Z 0040b23d f   v5subs:dbsubs.obj
 0001:0000a650       ?fieldlength@@YAFPB_W@Z    0040b650 f   v5subs:dbsubs.obj
 0001:0000aed6       ?trim_text@@YAFPA_WF@Z     0040bed6 f   v5subs:dbsubs.obj
 0001:0000b84c       ?init_systemtime@@YAXAAU_SYSTEMTIME@@@Z 0040c84c f   v5subs:timeclas.obj
 0001:0000b870       ?leap_index@@YAHH@Z        0040c870 f   v5subs:timeclas.obj
 0001:0000bd8d       __onexit_nolock            0040cd8d f   LIBCMT:onexit.obj
 0001:0000bf41       ___tmainCRTStartup         0040cf41 f   LIBCMT:wincrt0.obj
 0001:0000c091       _fast_error_exit           0040d091 f   LIBCMT:wincrt0.obj
 0001:0000c0c0       $$000000                   0040d0c0     LIBCMT:memset.obj
 0001:0000c24f       ?strtoxl@@YAKPAUlocaleinfo_struct@@PBDPAPBDHH@Z 0040d24f f   LIBCMT:strtol.obj
 0001:0000c6e0       $$000000                   0040d6e0     LIBCMT:ulldiv.obj
 0001:0000c750       $$000000                   0040d750     LIBCMT:memcpy.obj
 0001:0000c9a0       LeadUpVec                  0040d9a0     LIBCMT:memcpy.obj
 0001:0000ca1c       UnwindUpVec                0040da1c     LIBCMT:memcpy.obj
 0001:0000ca88       TrailUpVec                 0040da88     LIBCMT:memcpy.obj
 0001:0000cb2c       LeadDownVec                0040db2c     LIBCMT:memcpy.obj
 0001:0000cbb8       UnwindDownVec              0040dbb8     LIBCMT:memcpy.obj
 0001:0000cc24       TrailDownVec               0040dc24     LIBCMT:memcpy.obj
 0001:0000cda0       $$000000                   0040dda0     LIBCMT:chkstk.obj
 0001:0000cdd0       $$000000                   0040ddd0     LIBCMT:ftol2.obj
 0001:0000cfb0       $$000000                   0040dfb0     LIBCMT:memmove.obj
 0001:0000d200       LeadUpVec                  0040e200     LIBCMT:memmove.obj
 0001:0000d27c       UnwindUpVec                0040e27c     LIBCMT:memmove.obj
 0001:0000d2e8       TrailUpVec                 0040e2e8     LIBCMT:memmove.obj
 0001:0000d38c       LeadDownVec                0040e38c     LIBCMT:memmove.obj
 0001:0000d418       UnwindDownVec              0040e418     LIBCMT:memmove.obj
 0001:0000d484       TrailDownVec               0040e484     LIBCMT:memmove.obj
 0001:0000d600       $$000000                   0040e600     LIBCMT:floor_pentium4.obj
 0001:0000d875       __initterm                 0040e875 f   LIBCMT:crt0dat.obj
 0001:0000d8df       _doexit                    0040e8df f   LIBCMT:crt0dat.obj
 0001:0000db30       $$000000                   0040eb30     LIBCMT:sehprolg4.obj
 0001:0000df90       $$000000                   0040ef90     LIBCMT:strcmp.obj
 0001:0000e8b5       _parse_cmdline             0040f8b5 f   LIBCMT:stdargv.obj
 0001:0000f984       __cftoe2_l                 00410984 f   LIBCMT:cvt.obj
 0001:0000fba3       __cftof2_l                 00410ba3 f   LIBCMT:cvt.obj
 0001:0000ffd9       __shift                    00410fd9 f   LIBCMT:cvt.obj
 0001:000105df       ?CPtoLocaleName@@YAPB_WH@Z 004115df f   LIBCMT:mbctype.obj
 0001:00010619       ?getSystemCP@@YAHH@Z       00411619 f   LIBCMT:mbctype.obj
 0001:00010687       ?setSBCS@@YAXPAUthreadmbcinfostruct@@@Z 00411687 f   LIBCMT:mbctype.obj
 0001:000106e6       ?setSBUpLow@@YAXPAUthreadmbcinfostruct@@@Z 004116e6 f   LIBCMT:mbctype.obj
 0001:00011326       $LN79                      00412326     LIBCMT:libm_error.obj
 0001:00011947       _siglookup                 00412947 f   LIBCMT:winsig.obj
 0001:00011ac0       $$000000                   00412ac0     LIBCMT:exsup4.obj
 0001:00011b50       __unwind_handler4          00412b50 f   LIBCMT:exsup4.obj
 0001:00011c70       $$000000                   00412c70     LIBCMT:strlen.obj
 0001:00011e6b       ?x_ismbbtype_l@@YAHPAUlocaleinfo_struct@@IHH@Z 00412e6b f   LIBCMT:ismbbyte.obj
 0001:00012450       $$000000                   00413450     LIBCMT:strrchr.obj
 0001:000126e0       $$000000                   004136e0     LIBCMT:lldvrm.obj
 0001:000127c0       $$000000                   004137c0     LIBCMT:ullshr.obj
 0001:00012d28       ?__crtLCMapStringA_stat@@YAHPAUlocaleinfo_struct@@PB_WKPBDHPADHHH@Z 00413d28 f   LIBCMT:a_map.obj
 0001:00012f90       ?__crtGetStringTypeA_stat@@YAHPAUlocaleinfo_struct@@KPBDHPAGHH@Z 00413f90 f   LIBCMT:a_str.obj
 0001:000144a1       $LN333                     004154a1     LIBCMT:strgtold.obj
 0001:0001597a       _flsall                    0041697a f   LIBCMT:fflush.obj
 0001:00015a60       $$000000                   00416a60     LIBCMT:exsup.obj
 0001:00015a80       __unwind_handler           00416a80 f   LIBCMT:exsup.obj
 0001:00015ba0       $$000000                   00416ba0     LIBCMT:ulldvrm.obj
 0001:00015cd2       ___hw_cw_sse2              00416cd2 f   LIBCMT:ieee87.obj
 0001:0001607d       __hw_cw                    0041707d f   LIBCMT:ieee87.obj
 0001:00016120       $$000000                   00417120     LIBCMT:alloca16.obj
 0001:000171b0       $$000000                   004181b0     LIBCMT:llmul.obj
 0001:000173fc       ??__FComputerName@@YAXXZ   004183fc f   monedit.obj
 0001:00017406       ??__FFontList@@YAXXZ       00418406 f   monedit.obj
 0001:00017410       ??__FMyWindowTitle@@YAXXZ  00418410 f   monedit.obj
 0001:0001741a       ??__FNewSetupMachine@@YAXXZ 0041841a f   monedit.obj
 0001:00017424       ??__FStringTable@@YAXXZ    00418424 f   monedit.obj
 0001:0001742e       ??__FMachineLineBuf@@YAXXZ 0041842e f   monitor.obj
 0001:00017438       ??__FEmptyString@@YAXXZ    00418438 f   v5subs:nameclas.obj
 0001:00017442       ??__FMyComputer@@YAXXZ     00418442 f   v5subs:computer.obj
 0001:0001744c       ??__FNoComputer@@YAXXZ     0041844c f   v5subs:computer.obj
 0001:00017456       ??__FFontList@@YAXXZ       00418456 f   v5subs:stringtable.obj
 0001:00017460       ??__FEventList@@YAXXZ      00418460 f   v5subs:client.obj
 0001:0001746a       ??__Fs@?1??one_hot_link@@YAXPAUHCONV__@@FI@Z@YAXXZ 0041846a f   v5subs:client.obj
 0001:00017474       ??__FEmptyString@@YAXXZ    00418474 f   v5subs:machname.obj
 0001:0001747e       ??__Fempty_entry@@YAXXZ    0041847e f   v5subs:setpoint.obj
 0001:00017492       ??__FExeDirectory@@YAXXZ   00418492 f   v5subs:gexedir.obj
 0002:0000026c       _ComputerName$initializer$ 0041926c     monedit.obj
 0002:00000270       _NewSetupMachine$initializer$ 00419270     monedit.obj
 0002:00000274       _MyWindowTitle$initializer$ 00419274     monedit.obj
 0002:00000278       _FontList$initializer$     00419278     monedit.obj
 0002:0000027c       _StringTable$initializer$  0041927c     monedit.obj
 0002:00000280       _MachineLineBuf$initializer$ 00419280     monitor.obj
 0002:00000284       _EmptyString$initializer$  00419284     v5subs:nameclas.obj
 0002:00000288       _MyComputer$initializer$   00419288     v5subs:nameclas.obj
 0002:0000028c       _MyComputer$initializer$   0041928c     v5subs:computer.obj
 0002:00000290       _NoComputer$initializer$   00419290     v5subs:computer.obj
 0002:00000294       _FontList$initializer$     00419294     v5subs:stringtable.obj
 0002:00000298       _EventList$initializer$    00419298     v5subs:client.obj
 0002:0000029c       _EmptyString$initializer$  0041929c     v5subs:machname.obj
 0002:000002a0       _empty_entry$initializer$  004192a0     v5subs:setpoint.obj
 0002:000002a4       _ExeDirectory$initializer$ 004192a4     v5subs:gexedir.obj
 0002:000002b0       _pinit                     004192b0     LIBCMT:onexit.obj
 0002:000002b4       _pinit                     004192b4     LIBCMT:cpu_disp.obj
 0002:000002b8       _pinit                     004192b8     LIBCMT:mbctype.obj
 0002:000002bc       _pinit                     004192bc     LIBCMT:mathfcns.obj
 0002:000002c0       _pinit                     004192c0     LIBCMT:_file.obj
 0002:000002c4       _pinit                     004192c4     LIBCMT:wincrt0.obj
 0002:000002d0       _pterm                     004192d0     LIBCMT:wsetloca.obj
 0002:000002d4       _pterm                     004192d4     LIBCMT:initcon.obj
 0002:000002d8       _pterm                     004192d8     LIBCMT:_file.obj
 0002:00000734       _UnknownString             00419734     v5subs:winsubs.obj
 0002:0000075c       _CrLf                      0041975c     v5subs:client.obj
 0002:00000878       _ResetCmd                  00419878     v5subs:listbox.obj
 0002:00000880       _AddCmd                    00419880     v5subs:listbox.obj
 0002:00000888       _DeleteCmd                 00419888     v5subs:listbox.obj
 0002:00000890       _GetCurSelCmd              00419890     v5subs:listbox.obj
 0002:00000898       _SetCurSelCmd              00419898     v5subs:listbox.obj
 0002:000008a0       _FindStringCmd             004198a0     v5subs:listbox.obj
 0002:000008a8       _FindPrefixCmd             004198a8     v5subs:listbox.obj
 0002:000008b0       _GetCountCmd               004198b0     v5subs:listbox.obj
 0002:000008b8       _GetTextCmd                004198b8     v5subs:listbox.obj
 0002:000008c0       _GetTextLenCmd             004198c0     v5subs:listbox.obj
 0002:000008c8       _InsertCmd                 004198c8     v5subs:listbox.obj
 0002:000008d0       _CmdError                  004198d0     v5subs:listbox.obj
 0002:00000948       _ConfigSection             00419948     v5subs:machine.obj
 0002:00000958       _FlashVersionKey           00419958     v5subs:machine.obj
 0002:0000106c       _ZeroPointZero             0041a06c     v5subs:dtotchar.obj
 0002:00001090       _RECORD_DELIMITER_STRING   0041a090     v5subs:dbsubs.obj
 0002:00001098       _EmptyString               0041a098     v5subs:dbsubs.obj
 0002:00001360       _MinPosDouble              0041a360     v5subs:zero.obj
 0002:00001368       _MinNegDouble              0041a368     v5subs:zero.obj
 0002:00001370       _RECORD_DELIMITER_STRING   0041a370     v5subs:vdbclass.obj
 0002:000013e0       ?s@?1??is_hex_char@@YAE_W@Z@4QB_WB 0041a3e0     v5subs:hex.obj
 0002:00001448       _PeriodString              0041a448     v5subs:ftoasc.obj
 0002:0000144c       _ZeroPointZero             0041a44c     v5subs:ftoasc.obj
 0002:0000147c       _GS_ExceptionPointers      0041a47c     LIBCMT:gs_report.obj
 0002:00001490       _One                       0041a490     LIBCMT:floor_pentium4.obj
 0002:000014a0       _Bns                       0041a4a0     LIBCMT:floor_pentium4.obj
 0002:000014b0       _NegOne                    0041a4b0     LIBCMT:floor_pentium4.obj
 0002:000014c0       _NegZero                   0041a4c0     LIBCMT:floor_pentium4.obj
 0002:000014d0       _S                         0041a4d0     LIBCMT:floor_pentium4.obj
 0002:00001528       ?ExceptionTemplate@?1??_CxxThrowException@@9@8@4UEHExceptionRecord@@B 0041a528     LIBCMT:throw.obj
 0002:000015e8       _rterrs                    0041a5e8     LIBCMT:crt0msg.obj
 0002:00002338       __mb_locale_names          0041b338     LIBCMT:mbctype.obj
 0002:000026a8       __first_127char            0041b6a8     LIBCMT:wsetloca.obj
 0002:00002728       _INF                       0041b728     LIBCMT:libm_error.obj
 0002:00002738       _BIG                       0041b738     LIBCMT:libm_error.obj
 0002:00002748       _ZERO                      0041b748     LIBCMT:libm_error.obj
 0002:00002758       _INF_32                    0041b758     LIBCMT:libm_error.obj
 0002:00002760       _NAN_32                    0041b760     LIBCMT:libm_error.obj
 0002:00002768       _ZERO_32                   0041b768     LIBCMT:libm_error.obj
 0002:00002770       _libm_largef               0041b770     LIBCMT:libm_error.obj
 0002:00002778       _libm_smallf               0041b778     LIBCMT:libm_error.obj
 0002:00002780       _libm_small                0041b780     LIBCMT:libm_error.obj
 0002:000027f0       _tokenTable                0041b7f0     LIBCMT:undname.obj
 0002:00002828       _nameTable                 0041b828     LIBCMT:undname.obj
 0002:00002968       _rttiTable                 0041b968     LIBCMT:undname.obj
 0002:00005b00       __sehtable$__onexit        0041eb00     LIBCMT:onexit.obj
 0002:00005b70       __sehtable$___tmainCRTStartup 0041eb70     LIBCMT:wincrt0.obj
 0002:00005b90       __sehtable$_doexit         0041eb90     LIBCMT:crt0dat.obj
 0002:00005bb0       __sehtable$?_Type_info_dtor@type_info@@CAXPAV1@@Z 0041ebb0     LIBCMT:typname.obj
 0002:00005bd0       __sehtable$__freefls@4     0041ebd0     LIBCMT:tidtable.obj
 0002:00005bf8       __sehtable$__initptd       0041ebf8     LIBCMT:tidtable.obj
 0002:00005c20       __sehtable$__ioinit        0041ec20     LIBCMT:ioinit.obj
 0002:00005c40       __sehtable$___updatetlocinfo 0041ec40     LIBCMT:localref.obj
 0002:00005c60       __sehtable$___updatetmbcinfo 0041ec60     LIBCMT:mbctype.obj
 0002:00005c80       __sehtable$__setmbcp       0041ec80     LIBCMT:mbctype.obj
 0002:00005ca0       __sehtable$__locterm       0041eca0     LIBCMT:wsetloca.obj
 0002:00005cc0       __sehtable$__mtinitlocknum 0041ecc0     LIBCMT:mlock.obj
 0002:00005ce0       __sehtable$__IsNonwritableInCurrentImage 0041ece0     LIBCMT:pesect.obj
 0002:00005d00       __sehtable$?terminate@@YAXXZ 0041ed00     LIBCMT:hooks.obj
 0002:00005d20       __sehtable$_raise          0041ed20     LIBCMT:winsig.obj
 0002:00005d40       __sehtable$___set_fpsr_sse2 0041ed40     LIBCMT:fpctrl.obj
 0002:00005d60       __sehtable$_flsall         0041ed60     LIBCMT:fflush.obj
 0002:00005d88       __sehtable$__fcloseall     0041ed88     LIBCMT:closeall.obj
 0002:00005da8       __sehtable$__commit        0041eda8     LIBCMT:commit.obj
 0002:00005dc8       __sehtable$__write         0041edc8     LIBCMT:write.obj
 0002:00005de8       __sehtable$_fclose         0041ede8     LIBCMT:fclose.obj
 0002:00005e08       __sehtable$___lock_fhandle 0041ee08     LIBCMT:osfinfo.obj
 0002:00005e28       __sehtable$__close         0041ee28     LIBCMT:close.obj
 0002:00006122       .idata$6                   0041f122     kernel32:KERNEL32.dll
 0002:00006326       .idata$6                   0041f326     user32:USER32.dll
 0002:00006344       .idata$6                   0041f344     gdi32:GDI32.dll
 0002:00006b68       .idata$6                   0041fb68     shell32:SHELL32.dll
 0003:00000578       _HmiCurrentString          00420578     monedit.obj
 0003:00000598       _ConfigSection             00420598     monedit.obj
 0003:000005a8       _CommonResourceFile        004205a8     monedit.obj
 0003:000005b8       _DisplayIniFile            004205b8     monedit.obj
 0003:000005d0       _MoneditResourceFile       004205d0     monedit.obj
 0003:000005e0       _CurrentLanguageKey        004205e0     monedit.obj
 0003:00000670       _CHANNEL_MODE_1            00420670     monitor.obj
 0003:00000674       _CHANNEL_MODE_2            00420674     monitor.obj
 0003:00000678       _CHANNEL_MODE_3            00420678     monitor.obj
 0003:0000067c       _CHANNEL_MODE_4            0042067c     monitor.obj
 0003:00000680       _CHANNEL_MODE_5            00420680     monitor.obj
 0003:00000684       _CHANNEL_MODE_6            00420684     monitor.obj
 0003:00000688       _CHANNEL_MODE_7            00420688     monitor.obj
 0003:0000068c       _TabString                 0042068c     monitor.obj
 0003:00000690       _ZeroString                00420690     monitor.obj
 0003:00000694       _VisiTrakIniFile           00420694     monitor.obj
 0003:000006b0       _ConfigSection             004206b0     monitor.obj
 0003:000006c0       _DisplaySecondsKey         004206c0     monitor.obj
 0003:000006e0       _MonitorLogFileKey         004206e0     monitor.obj
 0003:00000700       _MonitorLogFormatKey       00420700     monitor.obj
 0003:00000724       ?yes@?1??machine_listbox_string@@YAEH@Z@4PA_WA 00420724     monitor.obj
 0003:00000728       ?no@?1??machine_listbox_string@@YAEH@Z@4PA_WA 00420728     monitor.obj
 0003:0000072c       ?skip_count_id@?1??set_skip_count_label@@YAXH@Z@4PA_WA 0042072c     monitor.obj
 0003:00000744       ?skip_seconds_id@?1??set_skip_count_label@@YAXH@Z@4PA_WA 00420744     monitor.obj
 0003:00000758       ?info@?1??start_board_monitor@@YAXXZ@4U_STARTUPINFOW@@A 00420758     monitor.obj
 0003:000007a0       ?rsn@?1??set_monitorproc_setup_strings@@YAXPAUHWND__@@@Z@4PAURESOURCE_TEXT_ENTRY@@A 004207a0     monitor.obj
 0003:000008d8       ?box@?1??set_monitorproc_setup_strings@@YAXPAUHWND__@@@Z@4PAIA 004208d8     monitor.obj
 0003:000008e8       _FinalChar                 004208e8     v5subs:stringcl.obj
 0003:000008ec       _BackSlashChar             004208ec     v5subs:stringcl.obj
 0003:000008f0       _CommaChar                 004208f0     v5subs:stringcl.obj
 0003:000008f4       _CrChar                    004208f4     v5subs:stringcl.obj
 0003:000008f8       _DoubleQuoteChar           004208f8     v5subs:stringcl.obj
 0003:000008fc       _LfChar                    004208fc     v5subs:stringcl.obj
 0003:00000900       _OneChar                   00420900     v5subs:stringcl.obj
 0003:00000904       _SpaceChar                 00420904     v5subs:stringcl.obj
 0003:00000908       _ZeroChar                  00420908     v5subs:stringcl.obj
 0003:0000090c       _BackSlashString           0042090c     v5subs:stringcl.obj
 0003:00000910       _FalseString               00420910     v5subs:stringcl.obj
 0003:00000914       _TrueString                00420914     v5subs:stringcl.obj
 0003:00000918       _BackSlashChar             00420918     v5subs:nameclas.obj
 0003:0000091c       _ForwardSlashChar          0042091c     v5subs:nameclas.obj
 0003:00000920       _PeriodChar                00420920     v5subs:nameclas.obj
 0003:00000924       _SpaceChar                 00420924     v5subs:nameclas.obj
 0003:00000928       _ZeroChar                  00420928     v5subs:nameclas.obj
 0003:0000092c       _Data                      0042092c     v5subs:nameclas.obj
 0003:00000938       _Display                   00420938     v5subs:nameclas.obj
 0003:00000948       _Log                       00420948     v5subs:nameclas.obj
 0003:00000950       _Exes                      00420950     v5subs:nameclas.obj
 0003:0000095c       _Results                   0042095c     v5subs:nameclas.obj
 0003:0000096c       _Resources                 0042096c     v5subs:nameclas.obj
 0003:00000980       _VisiTrakIniFile           00420980     v5subs:nameclas.obj
 0003:0000099c       _ConfigSection             0042099c     v5subs:nameclas.obj
 0003:000009ac       _ThisComputerKey           004209ac     v5subs:nameclas.obj
 0003:000009c8       _LeftBracket               004209c8     v5subs:iniclass.obj
 0003:000009cc       _RightBracket              004209cc     v5subs:iniclass.obj
 0003:000009d0       _NChar                     004209d0     v5subs:iniclass.obj
 0003:000009d4       _YChar                     004209d4     v5subs:iniclass.obj
 0003:000009d8       _LowerYChar                004209d8     v5subs:iniclass.obj
 0003:000009dc       _UnknownString             004209dc     v5subs:iniclass.obj
 0003:000009ec       _UnknownLen                004209ec     v5subs:iniclass.obj
 0003:000009f0       _Data                      004209f0     v5subs:computer.obj
 0003:000009fc       _Exes                      004209fc     v5subs:computer.obj
 0003:00000a08       _VisiTrakIniFile           00420a08     v5subs:computer.obj
 0003:00000a24       _ConfigSection             00420a24     v5subs:computer.obj
 0003:00000a34       _ThisComputerKey           00420a34     v5subs:computer.obj
 0003:00000a50       _BackSlashChar             00420a50     v5subs:computer.obj
 0003:00000a54       _CommaChar                 00420a54     v5subs:computer.obj
 0003:00000a58       _CommaString               00420a58     v5subs:computer.obj
 0003:00000a5c       _ColonChar                 00420a5c     v5subs:fix.obj
 0003:00000a60       _CrChar                    00420a60     v5subs:fix.obj
 0003:00000a64       _LfChar                    00420a64     v5subs:fix.obj
 0003:00000a68       _SpaceChar                 00420a68     v5subs:fix.obj
 0003:00000a6c       _TabChar                   00420a6c     v5subs:fix.obj
 0003:00000a70       _ZeroChar                  00420a70     v5subs:fix.obj
 0003:00000a74       _DefaultLanguage           00420a74     v5subs:stringtable.obj
 0003:00000a84       ?UnicodeIntroducer@?1??append@STRINGTABLE_CLASS@@QAE_NAAVSTRING_CLASS@@@Z@4_WA 00420a84     v5subs:stringtable.obj
 0003:00000a88       _StaticsFont               00420a88     v5subs:statics.obj
 0003:00000a8c       ?lParam@?1??set_statics_font@@YAXAAVWINDOW_CLASS@@@Z@4JA 00420a8c     v5subs:statics.obj
 0003:00000a90       _ServerName                00420a90     v5subs:client.obj
 0003:00000aa4       _CodePageId                00420aa4     v5subs:client.obj
 0003:00000aa8       _DdeClipFormat             00420aa8     v5subs:client.obj
 0003:00000aac       _AutoBackupDirKey          00420aac     v5subs:autoback.obj
 0003:00000ac8       _BackupSection             00420ac8     v5subs:autoback.obj
 0003:00000ad8       _VisitrakIniFile           00420ad8     v5subs:autoback.obj
 0003:00000af4       _FILE_SIZE_ERROR           00420af4     v5subs:fileclas.obj
 0003:00000af8       _CrLf                      00420af8     v5subs:fileclas.obj
 0003:00000b00       _LfChar                    00420b00     v5subs:fileclas.obj
 0003:00000b04       _CrChar                    00420b04     v5subs:fileclas.obj
 0003:00000b08       _ConfigSection             00420b08     v5subs:multipart_runlist.obj
 0003:00000b18       _EnabledString             00420b18     v5subs:multipart_runlist.obj
 0003:00000b28       _InputWiresString          00420b28     v5subs:multipart_runlist.obj
 0003:00000b40       _PartSelectionNumberString 00420b40     v5subs:multipart_runlist.obj
 0003:00000b6c       _VisiTrakIniFile           00420b6c     v5subs:multipart_runlist.obj
 0003:00000b88       _ZeroString                00420b88     v5subs:multipart_runlist.obj
 0003:00000b8c       ?HaveMultipartRunlistKey@?1??get@MULTIPART_RUNLIST_SETTINGS_CLASS@@QAE_NAAVSTRING_CLASS@@0@Z@4PA_WA 00420b8c     v5subs:multipart_runlist.obj
 0003:00000bb8       ?MultipartBaseWireKey@?1??get@MULTIPART_RUNLIST_SETTINGS_CLASS@@QAE_NAAVSTRING_CLASS@@0@Z@4PA_WA 00420bb8     v5subs:multipart_runlist.obj
 0003:00000bc4       ?MultipartSetupSection@?1??get@MULTIPART_RUNLIST_SETTINGS_CLASS@@QAE_NAAVSTRING_CLASS@@0@Z@4PA_WA 00420bc4     v5subs:multipart_runlist.obj
 0003:00000bd8       _Description               00420bd8     v5subs:machine.obj
 0003:00000c50       _NofDescriptions           00420c50     v5subs:machine.obj
 0003:00000c54       ?DEVENT_TIME_INTRO@?1??get_binary_valve_settings_from_control_all@@YAXAAVMACHINE_CLASS@@@Z@4PA_WA 00420c54     v5subs:machine.obj
 0003:00000c60       ?PULSE_TIME_INTRO@?1??get_binary_valve_settings_from_control_all@@YAXAAVMACHINE_CLASS@@@Z@4PA_WA 00420c60     v5subs:machine.obj
 0003:00000c6c       ?PULSE_WIRE_INTRO@?1??get_binary_valve_settings_from_control_all@@YAXAAVMACHINE_CLASS@@@Z@4PA_WA 00420c6c     v5subs:machine.obj
 0003:00000c78       ?inifile@?1??read_machset_db@MACHINE_CLASS@@QAEEAAVSTRING_CLASS@@@Z@4PA_WA 00420c78     v5subs:machine.obj
 0003:00000cac       _ResultsString             00420cac     v5subs:machname.obj
 0003:00000cbc       _CommaChar                 00420cbc     v5subs:setpoint.obj
 0003:00000cc0       _CommaString               00420cc0     v5subs:setpoint.obj
 0003:00000cc4       _YChar                     00420cc4     v5subs:part.obj
 0003:00000cc8       _BackSlashString           00420cc8     v5subs:part.obj
 0003:00000ccc       _CommaString               00420ccc     v5subs:part.obj
 0003:00000cd0       _SpaceChar                 00420cd0     v5subs:mem.obj
 0003:00000cd4       _NineChar                  00420cd4     v5subs:mem.obj
 0003:00000cd8       _TabChar                   00420cd8     v5subs:mem.obj
 0003:00000cdc       _TildaChar                 00420cdc     v5subs:mem.obj
 0003:00000ce0       _ZeroChar                  00420ce0     v5subs:mem.obj
 0003:00000ce4       _SpaceChar                 00420ce4     v5subs:fillpart.obj
 0003:00000ce8       _TabChar                   00420ce8     v5subs:fillpart.obj
 0003:00000cec       _YChar                     00420cec     v5subs:get_ini.obj
 0003:00000cf0       _NChar                     00420cf0     v5subs:get_ini.obj
 0003:00000cf4       _UnknownString             00420cf4     v5subs:get_ini.obj
 0003:00000d04       _Cchar                     00420d04     v5subs:log_file_string.obj
 0003:00000d08       _Dchar                     00420d08     v5subs:log_file_string.obj
 0003:00000d0c       _Ochar                     00420d0c     v5subs:log_file_string.obj
 0003:00000d10       _Pchar                     00420d10     v5subs:log_file_string.obj
 0003:00000d14       _Mchar                     00420d14     v5subs:log_file_string.obj
 0003:00000d18       _Nchar                     00420d18     v5subs:log_file_string.obj
 0003:00000d1c       _Tchar                     00420d1c     v5subs:log_file_string.obj
 0003:00000d20       ?buf@?1??log_file_string@@YAEAAVSTRING_CLASS@@PA_W1000@Z@4PA_WA 00420d20     v5subs:log_file_string.obj
 0003:00000d24       _MonitorClassName          00420d24     v5subs:monrun.obj
 0003:00000d34       _MonitorWindowTitle        00420d34     v5subs:monrun.obj
 0003:00000d50       _YChar                     00420d50     v5subs:misc.obj
 0003:00000d54       _LowYChar                  00420d54     v5subs:misc.obj
 0003:00000d58       _s                         00420d58     v5subs:misc.obj
 0003:00000d68       _YString                   00420d68     v5subs:misc.obj
 0003:00000d6c       _NString                   00420d6c     v5subs:misc.obj
 0003:00000d70       _ZeroString                00420d70     v5subs:warmupcl.obj
 0003:00000d74       _MultipartSetupSection     00420d74     v5subs:warmupcl.obj
 0003:00000d88       _SureTrakIniFile           00420d88     v5subs:warmupcl.obj
 0003:00000da4       _EnabledKey                00420da4     v5subs:warmupcl.obj
 0003:00000db4       _MultipartBasePartKey      00420db4     v5subs:warmupcl.obj
 0003:00000dc8       _MultipartBaseWireKey      00420dc8     v5subs:warmupcl.obj
 0003:00000dd4       _Description               00420dd4     v5subs:warmupcl.obj
 0003:00000de8       _CHANNEL_MODE_1            00420de8     v5subs:ftiiclas.obj
 0003:00000dec       _CHANNEL_MODE_2            00420dec     v5subs:ftiiclas.obj
 0003:00000df0       _CHANNEL_MODE_3            00420df0     v5subs:ftiiclas.obj
 0003:00000df4       _CHANNEL_MODE_4            00420df4     v5subs:ftiiclas.obj
 0003:00000df8       _CHANNEL_MODE_5            00420df8     v5subs:ftiiclas.obj
 0003:00000dfc       _CHANNEL_MODE_6            00420dfc     v5subs:ftiiclas.obj
 0003:00000e00       _CHANNEL_MODE_7            00420e00     v5subs:ftiiclas.obj
 0003:00000e04       _EqualsString              00420e04     v5subs:ftiiclas.obj
 0003:00000e08       _OrHexString               00420e08     v5subs:ftiiclas.obj
 0003:00000e10       _HString                   00420e10     v5subs:ftiiclas.obj
 0003:00000e14       _VString                   00420e14     v5subs:ftiiclas.obj
 0003:00000e18       _HChar                     00420e18     v5subs:ftiiclas.obj
 0003:00000e1c       _MinusChar                 00420e1c     v5subs:ftiiclas.obj
 0003:00000e20       _PoundChar                 00420e20     v5subs:ftiiclas.obj
 0003:00000e24       _OrChar                    00420e24     v5subs:ftiiclas.obj
 0003:00000e28       _SpaceChar                 00420e28     v5subs:ftiiclas.obj
 0003:00000e2c       _TabChar                   00420e2c     v5subs:ftiiclas.obj
 0003:00000e30       _Bit30                     00420e30     v5subs:ftiiclas.obj
 0003:00000e34       _Bit31                     00420e34     v5subs:ftiiclas.obj
 0003:00000e38       _HighMask                  00420e38     v5subs:ftiiclas.obj
 0003:00000e3c       _LowMask                   00420e3c     v5subs:ftiiclas.obj
 0003:00000e40       _types                     00420e40     v5subs:ftiiclas.obj
 0003:00001040       _UnknownWorker             00421040     v5subs:workclas.obj
 0003:00001050       _MinusChar                 00421050     v5subs:extract.obj
 0003:00001054       _PlusChar                  00421054     v5subs:extract.obj
 0003:00001058       _DotChar                   00421058     v5subs:extract.obj
 0003:0000105c       _SpaceChar                 0042105c     v5subs:extract.obj
 0003:00001060       _ZeroChar                  00421060     v5subs:extract.obj
 0003:00001064       _NineChar                  00421064     v5subs:extract.obj
 0003:00001068       _NullChar                  00421068     v5subs:is_empty.obj
 0003:0000106c       _BackSlashChar             0042106c     v5subs:path.obj
 0003:00001070       _ColonChar                 00421070     v5subs:path.obj
 0003:00001074       _BackSlashString           00421074     v5subs:path.obj
 0003:00001078       _ExeString                 00421078     v5subs:path.obj
 0003:00001084       _ExeStringLength           00421084     v5subs:path.obj
 0003:00001088       _First_Time                00421088     v5subs:gexedir.obj
 0003:0000108c       _DefaultDirectory          0042108c     v5subs:gexedir.obj
 0003:000010f8       _SecurityAttributes        004210f8     v5subs:dbsubs.obj
 0003:00001104       _DotChar                   00421104     v5subs:textlist.obj
 0003:00001108       _StarDotStar               00421108     v5subs:textlist.obj
 0003:00001120       _CommaChar                 00421120     v5subs:wire_class.obj
 0003:00001128       _DefaultWireList           00421128     v5subs:wire_class.obj
 0003:00001328       ?ic@?1??dups_to_vu@@YANFF@Z@4PANA 00421328     v5subs:unitadj.obj
 0003:00001348       ?ft@?1??dups_to_vu@@YANFF@Z@4PANA 00421348     v5subs:unitadj.obj
 0003:00001368       ?mm@?1??dups_to_vu@@YANFF@Z@4PANA 00421368     v5subs:unitadj.obj
 0003:00001388       ?cm@?1??dups_to_vu@@YANFF@Z@4PANA 00421388     v5subs:unitadj.obj
 0003:000013a8       _SecurityAttributes        004213a8     v5subs:vdbclass.obj
 0003:000013b4       _DaysPerMonth              004213b4     v5subs:timeclas.obj
 0003:000013e4       _MonthAbreviation          004213e4     v5subs:timeclas.obj
 0003:00001418       _Radix                     00421418     v5subs:hex.obj
 0003:0000141c       _Days                      0042141c     v5subs:time.obj
 0003:000014a8       ?isPackaged@?1??__crtIsPackagedApp@@9@9 004214a8     LIBCMT:winapisupp.obj
 0003:000014d8       _errtable                  004214d8     LIBCMT:dosmap.obj
 0003:00001640       _ErrnoNoMem                00421640     LIBCMT:dosmap.obj
 0003:00001644       _DoserrorNoMem             00421644     LIBCMT:dosmap.obj
 0003:00001a70       ___rgctypeflag             00421a70     LIBCMT:mbctype.obj
 0003:00001a78       ___rgcode_page_info        00421a78     LIBCMT:mbctype.obj
 0003:00001d9c       __ctype_loc_style          00421d9c     LIBCMT:wsetloca.obj
 0003:00001da8       _newcw                     00421da8     LIBCMT:floor.obj
 0003:00001db0       __locktable                00421db0     LIBCMT:mlock.obj
 0003:000021b4       _DoubleFormat              004221b4     LIBCMT:intrncvt.obj
 0003:000021cc       _FloatFormat               004221cc     LIBCMT:intrncvt.obj
 0003:000021e8       ?_names@?1??_get_fname@@9@9 004221e8     LIBCMT:fpexcept.obj
 0003:000022f8       _over                      004222f8     LIBCMT:fpctrl.obj
 0003:00002304       _under                     00422304     LIBCMT:fpctrl.obj
 0003:00002310       ?__DAZ_ENABLED@?1??__set_fpsr_sse2@@9@9 00422310     LIBCMT:fpctrl.obj
 0003:00002750       _ShotsString               00422750     monitor.obj
 0003:00002754       _SecString                 00422754     monitor.obj
 0003:0000275c       _MachineLineBuf            0042275c     monitor.obj
 0003:0000276c       _NullChar                  0042276c     v5subs:stringcl.obj
 0003:00002770       _NullChar                  00422770     v5subs:nameclas.obj
 0003:00002774       _EmptyString               00422774     v5subs:nameclas.obj
 0003:0000277c       _MyComputer                0042277c     v5subs:nameclas.obj
 0003:00002784       _NullChar                  00422784     v5subs:iniclass.obj
 0003:00002788       ?empty_string@?1??get_string@INI_CLASS@@QAEPA_WXZ@4PA_WA 00422788     v5subs:iniclass.obj
 0003:0000278c       _NullChar                  0042278c     v5subs:computer.obj
 0003:00002790       _First                     00422790     v5subs:computer.obj
 0003:00002794       _MyComputer                00422794     v5subs:computer.obj
 0003:0000279c       _NoComputer                0042279c     v5subs:computer.obj
 0003:000027a4       _NofComputers              004227a4     v5subs:computer.obj
 0003:000027a8       _NullChar                  004227a8     v5subs:fix.obj
 0003:000027b0       ?s@?1??resource_string@@YAPA_WPAUHINSTANCE__@@I@Z@4PA_WA 004227b0     v5subs:winsubs.obj
 0003:000029b0       _EmptyStringtableText      004229b0     v5subs:stringtable.obj
 0003:000029b4       _FontList                  004229b4     v5subs:stringtable.obj
 0003:000029b8       _MyMainWindow              004229b8     v5subs:client.obj
 0003:000029bc       _EventList                 004229bc     v5subs:client.obj
 0003:000029c8       _ServerNameHandle          004229c8     v5subs:client.obj
 0003:000029cc       _DdeId                     004229cc     v5subs:client.obj
 0003:000029d0       _ServerHandle              004229d0     v5subs:client.obj
 0003:000029d4       ?s@?1??one_hot_link@@YAXPAUHCONV__@@FI@Z@4VSTRING_CLASS@@A 004229d4     v5subs:client.obj
 0003:000029dc       ?$S1@?1??one_hot_link@@YAXPAUHCONV__@@FI@Z@4IA 004229dc     v5subs:client.obj
 0003:000029e0       ?s@?1??int32toasc@@YAPA_WJ@Z@4PA_WA 004229e0     v5subs:itoasc.obj
 0003:00002a08       _NullChar                  00422a08     v5subs:fileclas.obj
 0003:00002a0c       _EmptyString               00422a0c     v5subs:listbox.obj
 0003:00002a10       _NullChar                  00422a10     v5subs:machname.obj
 0003:00002a14       _EmptyString               00422a14     v5subs:machname.obj
 0003:00002a1c       _NullChar                  00422a1c     v5subs:setpoint.obj
 0003:00002a20       _empty_entry               00422a20     v5subs:setpoint.obj
 0003:00002a30       _NullChar                  00422a30     v5subs:mem.obj
 0003:00002a34       _NullChar                  00422a34     v5subs:fillpart.obj
 0003:00002a38       _NullChar                  00422a38     v5subs:get_ini.obj
 0003:00002a40       _Buf                       00422a40     v5subs:get_ini.obj
 0003:00003244       _NullChar                  00423244     v5subs:log_file_string.obj
 0003:00003248       _EmptyString               00423248     v5subs:log_file_string.obj
 0003:0000324c       _EmptyString               0042324c     v5subs:warmupcl.obj
 0003:00003250       ?hex@?1??append_value@FTII_VAR@@QAE_NAAVSTRING_CLASS@@@Z@4PA_WA 00423250     v5subs:ftiiclas.obj
 0003:00003278       ?s@?1??full_name@WORKER_LIST_CLASS@@QAEPA_WPA_W@Z@4PA_WA 00423278     v5subs:workclas.obj
 0003:000032b8       _NullChar                  004232b8     v5subs:extract.obj
 0003:000032bc       _NullChar                  004232bc     v5subs:path.obj
 0003:000032c0       _DriveName                 004232c0     v5subs:exists.obj
 0003:000032c8       _ExeDirectory              004232c8     v5subs:gexedir.obj
 0003:000032d0       _OVERWRITE_EXISTING        004232d0     v5subs:callfile.obj
 0003:000032d4       _NullChar                  004232d4     v5subs:textlist.obj
 0003:000032d8       ?st@?1??system_time@TIME_CLASS@@QAEAAU_SYSTEMTIME@@XZ@4U3@A 004232d8     v5subs:timeclas.obj
 0003:000032e8       ?s@?1??mmddyyyy@TIME_CLASS@@QAEPA_WXZ@4PA_WA 004232e8     v5subs:timeclas.obj
 0003:00003300       ?s@?1??hhmmss@TIME_CLASS@@QAEPA_WXZ@4PA_WA 00423300     v5subs:timeclas.obj
 0003:00003314       _NullChar                  00423314     v5subs:insalph.obj
 0003:00003318       _NullChar                  00423318     v5subs:hex.obj
 0003:0000331c       ?s@?1??alphadate@@YAPA_WABU_SYSTEMTIME@@@Z@4PA_WA 0042331c     v5subs:time.obj
 0003:00003334       ?s@?1??alphatime@@YAPA_WABU_SYSTEMTIME@@@Z@4PA_WA 00423334     v5subs:time.obj
 0003:00003348       _EmptyString               00423348     v5subs:execwait.obj
 0003:0000334c       ?empty_int@?1???AINT_ARRAY_CLASS@@QAEAAHH@Z@4HA 0042334c     v5subs:array.obj
 0003:00003360       _GS_ExceptionRecord        00423360     LIBCMT:gs_report.obj
 0003:000033b0       _GS_ContextRecord          004233b0     LIBCMT:gs_report.obj
 0003:0000367c       _DebuggerWasPresent        0042367c     LIBCMT:gs_report.obj
 0003:000036bc       ___type_info_root_node     004236bc     LIBCMT:typname.obj
 0003:000037c8       ?_pgmname@?1??_setargv@@9@9 004237c8     LIBCMT:stdargv.obj
 0003:000038d8       ?outmsg@?8??_NMSG_WRITE@@9@9 004238d8     LIBCMT:crt0msg.obj
 0003:00003f28       _fSystemSet                00423f28     LIBCMT:mbctype.obj
 0003:00003f30       __pmatherr_set             00423f30     LIBCMT:libm_error.obj
 0003:00003f38       _lclcritsects              00423f38     LIBCMT:mlock.obj
 0003:00004090       _ctrlc_action              00424090     LIBCMT:winsig.obj
 0003:00004094       _ctrlbreak_action          00424094     LIBCMT:winsig.obj
 0003:00004098       _abort_action              00424098     LIBCMT:winsig.obj
 0003:0000409c       _term_action               0042409c     LIBCMT:winsig.obj
 0003:000040a0       _ConsoleCtrlHandler_Installed 004240a0     LIBCMT:winsig.obj
 0003:000040a4       _g_pfnRtlGenRandom         004240a4     LIBCMT:rand_s.obj
 0003:000040dc       _heap                      004240dc     LIBCMT:undname.obj
 0003:000040f4       ?pfnMessageBox@?1??__crtMessageBoxW@@9@9 004240f4     LIBCMT:crtmboxw.obj
 0003:000040f8       ?pfnGetActiveWindow@?1??__crtMessageBoxW@@9@9 004240f8     LIBCMT:crtmboxw.obj
 0003:000040fc       ?pfnGetLastActivePopup@?1??__crtMessageBoxW@@9@9 004240fc     LIBCMT:crtmboxw.obj
 0003:00004100       ?pfnGetProcessWindowStation@?1??__crtMessageBoxW@@9@9 00424100     LIBCMT:crtmboxw.obj
 0003:00004104       ?pfnGetUserObjectInformation@?1??__crtMessageBoxW@@9@9 00424104     LIBCMT:crtmboxw.obj
 0003:00004114       ___crtCallProc             00424114     LIBCMT:winapinls.obj
 0004:00000110       $R000000                   00426110     monedit.res
 0004:00000ae0       $R0009D0                   00426ae0     monedit.res
 0004:00000dc8       $R000CB8                   00426dc8     monedit.res
