 editpart

 Timestamp is 68232ce2 (Tue May 13 07:28:34 2025)

 Preferred load address is 00400000

 Start         Length     Name                   Class
 0001:00000000 0000091aH .text$di                CODE
 0001:00000920 000380acH .text$mn                CODE
 0001:000389cc 0000032cH .text$yd                CODE
 0002:00000000 00000390H .idata$5                DATA
 0002:00000390 00000004H .CRT$XCA                DATA
 0002:00000394 000000e0H .CRT$XCU                DATA
 0002:00000474 00000004H .CRT$XCZ                DATA
 0002:00000478 00000004H .CRT$XIA                DATA
 0002:0000047c 00000014H .CRT$XIC                DATA
 0002:00000490 00000004H .CRT$XIY                DATA
 0002:00000494 00000004H .CRT$XIZ                DATA
 0002:00000498 00000004H .CRT$XPA                DATA
 0002:0000049c 00000008H .CRT$XPX                DATA
 0002:000004a4 00000004H .CRT$XPXA               DATA
 0002:000004a8 00000004H .CRT$XPZ                DATA
 0002:000004ac 00000004H .CRT$XTA                DATA
 0002:000004b0 00000004H .CRT$XTZ                DATA
 0002:000004c0 0000a950H .rdata                  DATA
 0002:0000ae10 00000294H .rdata$r                DATA
 0002:0000b0b0 0000000cH .rdata$sxdata           DATA
 0002:0000b0bc 00000004H .rtc$IAA                DATA
 0002:0000b0c0 00000004H .rtc$IZZ                DATA
 0002:0000b0c4 00000004H .rtc$TAA                DATA
 0002:0000b0c8 00000004H .rtc$TZZ                DATA
 0002:0000b0d0 0000034cH .xdata$x                DATA
 0002:0000b41c 00000000H .edata                  DATA
 0002:0000b41c 00000078H .idata$2                DATA
 0002:0000b494 00000014H .idata$3                DATA
 0002:0000b4a8 00000390H .idata$4                DATA
 0002:0000b838 00000ee2H .idata$6                DATA
 0003:00000000 000045d4H .data                   DATA
 0003:000045d4 00000108H .data$r                 DATA
 0003:000046e0 0000b6e4H .bss                    DATA
 0004:00000000 00001074H .rsrc$01                DATA
 0004:00001080 0000b7b8H .rsrc$02                DATA

  Address         Publics by Value              Rva+Base       Lib:Object

 0000:00000000       ___guard_fids_table        00000000     <absolute>
 0000:00000000       __except_list              00000000     <absolute>
 0000:00000000       ___guard_flags             00000000     <absolute>
 0000:00000000       ___guard_fids_count        00000000     <absolute>
 0000:00000003       ___safe_se_handler_count   00000003     <absolute>
 0000:00000000       ___ImageBase               00400000     <linker-defined>
 0001:00000920       ??0FTANALOG_CLASS@@QAE@XZ  00401920 f i editpart.obj
 0001:0000093d       ??0RESTRICTED_PART_ENTRY@@QAE@XZ 0040193d f   editpart.obj
 0001:00000967       ??1FTANALOG_CLASS@@QAE@XZ  00401967 f i editpart.obj
 0001:00000982       ??1FTCALC_CLASS@@QAE@XZ    00401982 f i editpart.obj
 0001:000009c3       ??1MACHINE_CLASS@@QAE@XZ   004019c3 f i editpart.obj
 0001:00000a22       ??1MARKS_CLASS@@QAE@XZ     00401a22 f i editpart.obj
 0001:00000a59       ??1PART_NAME_ENTRY@@QAE@XZ 00401a59 f   editpart.obj
 0001:00000a59       ??1MULTIPART_LB_ENTRY@@QAE@XZ 00401a59 f   editpart.obj
 0001:00000a59       ??1WIRE_NAME_ENTRY@@QAE@XZ 00401a59 f   v5subs:wire_class.obj
 0001:00000a74       ??1PARAMETER_CLASS@@QAE@XZ 00401a74 f i editpart.obj
 0001:00000aac       ??1PARAMETER_ENTRY@@QAE@XZ 00401aac f i editpart.obj
 0001:00000ad7       ??1RESTRICTED_PART_ENTRY@@QAE@XZ 00401ad7 f   editpart.obj
 0001:00000aeb       ??4FTII_VAR@@UAEXABV0@@Z   00401aeb f i editpart.obj
 0001:00000afe       ??4FTII_VAR@@UAEXI@Z       00401afe f i editpart.obj
 0001:00000afe       ??4FTII_VAR@@UAEXH@Z       00401afe f i editpart.obj
 0001:00000b08       ??AMULTIPART_LB_CLASS@@QAEAAVMULTIPART_LB_ENTRY@@H@Z 00401b08 f   editpart.obj
 0001:00000b4f       ??_EMULTIPART_LB_ENTRY@@QAEPAXI@Z 00401b4f f i editpart.obj
 0001:00000ba4       ??_GFTII_VAR_ARRAY@@UAEPAXI@Z 00401ba4 f i editpart.obj
 0001:00000ba4       ??_EFTII_VAR_ARRAY@@UAEPAXI@Z 00401ba4 f i editpart.obj
 0001:00000bc0       ?MainDialogProc@@YGHPAUHWND__@@IIJ@Z 00401bc0 f   editpart.obj
 0001:00001055       ?add_marks_dialog_proc@@YGHPAUHWND__@@IIJ@Z 00402055 f   editpart.obj
 0001:00001146       ?add_one_parameter@@YAEF@Z 00402146 f   editpart.obj
 0001:00001416       ?add_part_dialog_proc@@YGHPAUHWND__@@IIJ@Z 00402416 f   editpart.obj
 0001:000019da       ?advanced_setup_proc@@YGHPAUHWND__@@IIJ@Z 004029da f   editpart.obj
 0001:00001c7a       ?basic_setup_proc@@YGHPAUHWND__@@IIJ@Z 00402c7a f   editpart.obj
 0001:0000276f       ?check_for_previous_instance@@YAEAAVSTRING_CLASS@@@Z 0040376f f   editpart.obj
 0001:00002813       ?check_low_impact_values@@YAEXZ 00403813 f   editpart.obj
 0001:00002c74       ?cleanup@MULTIPART_LB_CLASS@@QAEXXZ 00403c74 f   editpart.obj
 0001:00002c8d       ?cleanup@RESTRICTED_PART_ENTRY@@QAEXXZ 00403c8d f   editpart.obj
 0001:0000326b       ?copy_multiple_dialog_proc@@YGHPAUHWND__@@IIJ@Z 0040426b f   editpart.obj
 0001:000032ec       ?copy_to_dialog_proc@@YGHPAUHWND__@@IIJ@Z 004042ec f   editpart.obj
 0001:0000374a       ?copyto_machine@@YAXPAUMACHINE_ENTRY@@IF@Z 0040474a f   editpart.obj
 0001:0000396a       ?create@DB_TABLE@@QAEEAAVSTRING_CLASS@@@Z 0040496a f i editpart.obj
 0001:00003a71       ?current_param_listbox_index@@YAHXZ 00404a71 f   editpart.obj
 0001:00003c84       ?delete_file@NAME_CLASS@@QAEEXZ 00404c84 f i editpart.obj
 0001:000041c5       ?ebox_float@@YAMPAUHWND__@@H@Z 004051c5 f   editpart.obj
 0001:00004b66       ?enumerate_child_windows_proc@@YGHPAUHWND__@@J@Z 00405b66 f   editpart.obj
 0001:00004c94       ?extended_channels_proc@@YGHPAUHWND__@@IIJ@Z 00405c94 f   editpart.obj
 0001:00004d14       ?fastrak_channels_proc@@YGHPAUHWND__@@IIJ@Z 00405d14 f   editpart.obj
 0001:00004df3       ?file_exists@NAME_CLASS@@QAEEXZ 00405df3 f i editpart.obj
 0001:00005556       ?fill_part_listbox@@YAFPAUHWND__@@HPAUMACHINE_ENTRY@@@Z 00406556 f   editpart.obj
 0001:00005853       ?get@RESTRICTED_PART_ENTRY@@QAEEXZ 00406853 f   editpart.obj
 0001:00005ebd       ?get_default_printer_dc@@YAPAUHDC__@@XZ 00406ebd f   editpart.obj
 0001:0000687d       ?gethelp@@YAXIK@Z          0040787d f   editpart.obj
 0001:000068da       ?has_any_limits@PARAMETER_ENTRY@@QAEEXZ 004078da f i editpart.obj
 0001:00006984       ?init@@YAXH@Z              00407984 f   editpart.obj
 0001:00006feb       ?init@MULTIPART_LB_CLASS@@QAE_NH@Z 00407feb f   editpart.obj
 0001:0000724b       ?is_a_step@@YAEPAUHWND__@@H@Z 0040824b f   editpart.obj
 0001:00007434       ?lb_line@MULTIPART_LB_ENTRY@@QAE_NAAVSTRING_CLASS@@@Z 00408434 f   editpart.obj
 0001:00007799       ?main_proc@@YGJPAUHWND__@@IIJ@Z 00408799 f   editpart.obj
 0001:0000791d       ?mark_name@@YAPA_WAAUMARKLIST_ENTRY@@@Z 0040891d f   editpart.obj
 0001:00007932       ?mark_name@@YAPA_W_WF@Z    00408932 f   editpart.obj
 0001:00007ac8       ?missing_file_dialog_proc@@YGHPAUHWND__@@IIJ@Z 00408ac8 f   editpart.obj
 0001:00007da0       ?multipart_runlist_setup_dialog_proc@@YGHPAUHWND__@@IIJ@Z 00408da0 f   editpart.obj
 0001:00008028       ?new_machine_setup_callback@@YAXPA_WFPAUHDDEDATA__@@@Z 00409028 f   editpart.obj
 0001:0000803e       ?new_parameter_dialog_proc@@YGHPAUHWND__@@IIJ@Z 0040903e f   editpart.obj
 0001:000080e0       ?no_last_step_end_pos_dialog_proc@@YGHPAUHWND__@@IIJ@Z 004090e0 f   editpart.obj
 0001:0000811d       ?no_last_step_low_impact_dialog_proc@@YGHPAUHWND__@@IIJ@Z 0040911d f   editpart.obj
 0001:000081ce       ?parameter_limits_proc@@YGHPAUHWND__@@IIJ@Z 004091ce f   editpart.obj
 0001:000084af       ?password_level_callback@@YAXPA_WFPAUHDDEDATA__@@@Z 004094af f   editpart.obj
 0001:00008546       ?percent_to_volts@@YANAAVSTRING_CLASS@@@Z 00409546 f   editpart.obj
 0001:000085c0       ?plot_min_callback@@YAXPA_WFPAUHDDEDATA__@@@Z 004095c0 f   editpart.obj
 0001:00008d31       ?pressure_control_profile_proc@@YGHPAUHWND__@@IIJ@Z 00409d31 f   editpart.obj
 0001:00008eab       ?pressure_to_volts_16bit@@YAIAAVSTRING_CLASS@@@Z 00409eab f   editpart.obj
 0001:00008ee7       ?pressure_to_volts_16bit@@YAIAAVSTRING_CLASS@@N@Z 00409ee7 f   editpart.obj
 0001:0000900f       ?print_fastrak_channels@@YAXPAUHDC__@@HHHAAUtagRECT@@@Z 0040a00f f   editpart.obj
 0001:000093c1       ?print_parameters@@YAXPAUHDC__@@HHHAAUtagRECT@@@Z 0040a3c1 f   editpart.obj
 0001:0000a942       ?print_suretrak_steps@@YAXPAUHDC__@@HHHAAUtagRECT@@@Z 0040b942 f   editpart.obj
 0001:0000ad2e       ?profile_marks_proc@@YGHPAUHWND__@@IIJ@Z 0040bd2e f   editpart.obj
 0001:0000af23       ?read@MULTIPART_LB_CLASS@@QAE_NXZ 0040bf23 f   editpart.obj
 0001:0000b6d0       ?refresh_current_parameter_limits@@YAXXZ 0040c6d0 f   editpart.obj
 0001:0000bbfc       ?refresh_st_params@@YAXPAUHWND__@@@Z 0040cbfc f   editpart.obj
 0001:0000c52f       ?resource_string@@YA_NAAVSTRING_CLASS@@I@Z 0040d52f f   editpart.obj
 0001:0000c756       ?return_from_parameter_edit@@YAXXZ 0040d756 f   editpart.obj
 0001:0000c770       ?save_all_parts_dialog_proc@@YGHPAUHWND__@@IIJ@Z 0040d770 f   editpart.obj
 0001:0000d839       ?save_velocity_changes@@YAXXZ 0040e839 f   editpart.obj
 0001:0000dd7f       ?set_statics_font@@YAXAAVWINDOW_CLASS@@@Z 0040ed7f f   editpart.obj
 0001:0000dd9c       ?set_statics_font@@YAXPAUHWND__@@I@Z 0040ed9c f   editpart.obj
 0001:0000ddc9       ?set_vacuum_limit_switch_number@SURETRAK_SETUP_CLASS@@QAEXH@Z 0040edc9 f i editpart.obj
 0001:0000de30       ?setup_sheet_proc@@YGHPAUHWND__@@IIJ@Z 0040ee30 f   editpart.obj
 0001:0000de35       ?shot_events_dialog_proc@@YGHPAUHWND__@@IIJ@Z 0040ee35 f   editpart.obj
 0001:0000e529       ?show_percent_error@@YAXXZ 0040f529 f   editpart.obj
 0001:0000ecbb       ?static_text_parameter_dialog_proc@@YGHPAUHWND__@@IIJ@Z 0040fcbb f   editpart.obj
 0001:0000eeea       ?sub_proc@@YGJPAUHWND__@@IIJ@Z 0040feea f   editpart.obj
 0001:0000ef45       ?suretrak_plot_proc@@YGJPAUHWND__@@IIJ@Z 0040ff45 f   editpart.obj
 0001:0000f084       ?suretrak_profile_proc@@YGHPAUHWND__@@IIJ@Z 00410084 f   editpart.obj
 0001:0000f462       ?text_out@@YAXPAUHDC__@@JJPA_W@Z 00410462 f   editpart.obj
 0001:0000f483       ?toggle_focus@@YAXXZ       00410483 f   editpart.obj
 0001:00010574       ?update_statics@@YAXPAUHWND__@@PAURESOURCE_TEXT_ENTRY@@H@Z 00411574 f   editpart.obj
 0001:00010a3f       ?user_defined_proc@@YGHPAUHWND__@@IIJ@Z 00411a3f f   editpart.obj
 0001:00010b09       ?vacuum_limit_switch_index@SURETRAK_SETUP_CLASS@@QAEHXZ 00411b09 f i editpart.obj
 0001:00010b2b       ?vacuum_limit_switch_number@SURETRAK_SETUP_CLASS@@QAEHXZ 00411b2b f i editpart.obj
 0001:00010b4b       ?write@MULTIPART_LB_CLASS@@QAE_NXZ 00411b4b f   editpart.obj
 0001:00010c4d       ?zero_break_gain_changed_dialog_proc@@YGHPAUHWND__@@IIJ@Z 00411c4d f   editpart.obj
 0001:00010c8a       _WinMain@16                00411c8a f   editpart.obj
 0001:00010e3a       ??0MACHINE_ENTRY@@QAE@XZ   00411e3a f i partdata.obj
 0001:00010e56       ??1MACHINE_ENTRY@@QAE@XZ   00411e56 f i partdata.obj
 0001:00010eb1       ?cleanup_machines_and_parts@@YAXXZ 00411eb1 f   partdata.obj
 0001:00010eb6       ?find_machine_entry@@YAPAUMACHINE_ENTRY@@AAVSTRING_CLASS@@@Z 00411eb6 f   partdata.obj
 0001:00010ee7       ?find_part_entry@@YAEPAUMACHINE_ENTRY@@AAVSTRING_CLASS@@@Z 00411ee7 f   partdata.obj
 0001:00010f1c       ?machine_count@@YAHAAVSTRING_CLASS@@@Z 00411f1c f   partdata.obj
 0001:00010f4f       ?machine_is_local@@YAEAAVSTRING_CLASS@@@Z 00411f4f f   partdata.obj
 0001:00010f8c       ?read_machines_and_parts@@YAEXZ 00411f8c f   partdata.obj
 0001:000111c1       ?reload_partlist@@YAEAAVSTRING_CLASS@@@Z 004121c1 f   partdata.obj
 0001:000111f2       ??_EVARTYPE_ENTRY@@QAEPAXI@Z 004121f2 f i edparam.obj
 0001:0001124b       ?ParamDialogProc@@YGHPAUHWND__@@IIJ@Z 0041224b f   edparam.obj
 0001:00011397       ?cleanup@VARTYPE_CLASS@@QAEXXZ 00412397 f   edparam.obj
 0001:000113cf       ?clear_parameter_settings@@YAXXZ 004123cf f   edparam.obj
 0001:00011418       ?create_param_dialogs@@YAXXZ 00412418 f   edparam.obj
 0001:00011858       ?ft_analog_proc@@YGHPAUHWND__@@IIJ@Z 00412858 f   edparam.obj
 0001:00011abb       ?ft_calc_proc@@YGHPAUHWND__@@IIJ@Z 00412abb f   edparam.obj
 0001:00011b6c       ?ft_digital_proc@@YGHPAUHWND__@@IIJ@Z 00412b6c f   edparam.obj
 0001:00011bba       ?ft_extended_analog_proc@@YGHPAUHWND__@@IIJ@Z 00412bba f   edparam.obj
 0001:00011cde       ?ft_external_parameter_proc@@YGHPAUHWND__@@IIJ@Z 00412cde f   edparam.obj
 0001:00011d61       ?ft_onoff_proc@@YGHPAUHWND__@@IIJ@Z 00412d61 f   edparam.obj
 0001:00011db3       ?ft_peak_fs_velocity_proc@@YGHPAUHWND__@@IIJ@Z 00412db3 f   edparam.obj
 0001:00011e68       ?ft_static_text_parameter_proc@@YGHPAUHWND__@@IIJ@Z 00412e68 f   edparam.obj
 0001:00011f37       ?ft_target_proc@@YGHPAUHWND__@@IIJ@Z 00412f37 f   edparam.obj
 0001:00011ffe       ?get@VARTYPE_CLASS@@QAEHXZ 00412ffe f   edparam.obj
 0001:0001244d       ?get_new_ft_digital_settings@@YAXPAUHWND__@@@Z 0041344d f   edparam.obj
 0001:00012558       ?get_new_ft_onoff_settings@@YAXXZ 00413558 f   edparam.obj
 0001:000129c2       ?internal_param_proc@@YGHPAUHWND__@@IIJ@Z 004139c2 f   edparam.obj
 0001:00012b24       ?load_new_parameter@@YAXH@Z 00413b24 f   edparam.obj
 0001:00012d40       ?name@VARTYPE_CLASS@@QAEAAVSTRING_CLASS@@G@Z 00413d40 f   edparam.obj
 0001:00012daf       ?name@VARTYPE_CLASS@@QAEAAVSTRING_CLASS@@XZ 00413daf f   edparam.obj
 0001:00012df3       ?next@VARTYPE_CLASS@@QAE_NXZ 00413df3 f   edparam.obj
 0001:00013696       ?show_time_position_desciption@@YAXPAUHWND__@@@Z 00414696 f   edparam.obj
 0001:000137b3       ?type@VARTYPE_CLASS@@QAEGAAVSTRING_CLASS@@@Z 004147b3 f   edparam.obj
 0001:000138d7       ?draw_vertical_string@@YAJPAUHDC__@@PA_WJJ@Z 004148d7 f   drawstr.obj
 0001:00013971       ??0DENSITY_CLASS@@QAE@XZ   00414971 f   calc.obj
 0001:00013a7c       ?calculator_dialog_proc@@YGHPAUHWND__@@IIJ@Z 00414a7c f   calc.obj
 0001:00013e74       ?density_dialog_proc@@YGHPAUHWND__@@IIJ@Z 00414e74 f   calc.obj
 0001:0001474c       ?fill_editboxes@DENSITY_CLASS@@QAEEXZ 0041574c f   calc.obj
 0001:000149a1       ?lbline@DENSITY_CLASS@@QAEPA_WXZ 004159a1 f   calc.obj
 0001:000149e3       ?put_record@DENSITY_CLASS@@QAEEAAVDB_TABLE@@H@Z 004159e3 f   calc.obj
 0001:00014a56       ?read@DENSITY_CLASS@@QAEEAAVDB_TABLE@@@Z 00415a56 f   calc.obj
 0001:00014abd       ?read@DENSITY_CLASS@@QAEEPA_W@Z 00415abd f   calc.obj
 0001:00014b15       ?read_editboxes@DENSITY_CLASS@@QAEEXZ 00415b15 f   calc.obj
 0001:00014bf3       ?save_calc_changes@@YAXXZ  00415bf3 f   calc.obj
 0001:00014e5a       ?save_densities@@YAEXZ     00415e5a f   calc.obj
 0001:00014f81       ?set@INT32_ARRAY_CLASS@@UAEXJ@Z 00415f81 f i calc.obj
 0001:00015cdc       _DdeGetData@16             00416cdc f   user32:USER32.dll
 0001:00015ce2       _OpenPrinterW@12           00416ce2 f   winspool:WINSPOOL.DRV
 0001:00015ce8       _DocumentPropertiesW@24    00416ce8 f   winspool:WINSPOOL.DRV
 0001:00015cee       _ClosePrinter@4            00416cee f   winspool:WINSPOOL.DRV
 0001:00015cf4       ?empty_directory@@YAEPA_W0@Z 00416cf4 f   v5subs:killdir.obj
 0001:00015de2       ?kill_directory@@YAEPA_W@Z 00416de2 f   v5subs:killdir.obj
 0001:00015e47       ?directory_exists@@YAEPA_W@Z 00416e47 f   v5subs:exists.obj
 0001:00015e6a       ?disk_is_in_drive@@YAEPA_W@Z 00416e6a f   v5subs:exists.obj
 0001:00015ea2       ?file_exists@@YAEPA_W@Z    00416ea2 f   v5subs:exists.obj
 0001:00015f41       ?get_drive_name@@YAEPA_W@Z 00416f41 f   v5subs:exists.obj
 0001:00015f78       ?is_removable@@YAEPA_W@Z   00416f78 f   v5subs:exists.obj
 0001:00015fa3       ?ascii_double@@YAPA_WN@Z   00416fa3 f   v5subs:ascfloat.obj
 0001:00015fc3       ?ascii_float@@YAPA_WM@Z    00416fc3 f   v5subs:ascfloat.obj
 0001:00015fdb       ?asctoint32@@YAJPB_W@Z     00416fdb f   v5subs:extract.obj
 0001:00015ff8       ?asctoul@@YAKPB_W@Z        00416ff8 f   v5subs:extract.obj
 0001:00016015       ?extdouble@@YANPB_W@Z      00417015 f   v5subs:extract.obj
 0001:0001602c       ?extdouble@@YANPB_WF@Z     0041702c f   v5subs:extract.obj
 0001:0001609d       ?extfloat@@YAMPB_W@Z       0041709d f   v5subs:extract.obj
 0001:000160c2       ?extfloat@@YAMPB_WF@Z      004170c2 f   v5subs:extract.obj
 0001:000160dd       ?extlong@@YAJPB_WF@Z       004170dd f   v5subs:extract.obj
 0001:000160f0       ?extlong@@YAJPB_WFH@Z      004170f0 f   v5subs:extract.obj
 0001:00016156       ?extul@@YAKPB_WFH@Z        00417156 f   v5subs:extract.obj
 0001:000161bc       ?is_real_char@@YAE_W@Z     004171bc f   v5subs:extract.obj
 0001:00016268       ?int32toasc@@YAPA_WJ@Z     00417268 f   v5subs:itoasc.obj
 0001:00016281       ?int32toasc@@YAXPA_WJJ@Z   00417281 f   v5subs:itoasc.obj
 0001:000162d2       ?ultoascii@@YAPA_WKK@Z     004172d2 f   v5subs:itoasc.obj
 0001:000162ed       ?ultoascii@@YAXPA_WKK@Z    004172ed f   v5subs:itoasc.obj
 0001:00016326       ??0STRING_CLASS@@QAE@ABV0@@Z 00417326 f   v5subs:stringcl.obj
 0001:00016342       ??0STRING_CLASS@@QAE@PB_W@Z 00417342 f   v5subs:stringcl.obj
 0001:0001635b       ??0STRING_CLASS@@QAE@XZ    0041735b f   v5subs:stringcl.obj
 0001:00016365       ??1STRING_CLASS@@QAE@XZ    00417365 f   v5subs:stringcl.obj
 0001:0001636a       ??4STRING_CLASS@@QAEXABV0@@Z 0041736a f   v5subs:stringcl.obj
 0001:00016379       ??4STRING_CLASS@@QAEXE@Z   00417379 f   v5subs:stringcl.obj
 0001:00016394       ??4STRING_CLASS@@QAEXH@Z   00417394 f   v5subs:stringcl.obj
 0001:000163bc       ??4STRING_CLASS@@QAEXI@Z   004173bc f   v5subs:stringcl.obj
 0001:000163e4       ??4STRING_CLASS@@QAEXN@Z   004173e4 f   v5subs:stringcl.obj
 0001:00016413       ??4STRING_CLASS@@QAEXPB_W@Z 00417413 f   v5subs:stringcl.obj
 0001:0001645e       ??4STRING_CLASS@@QAEX_W@Z  0041745e f   v5subs:stringcl.obj
 0001:00016475       ??8STRING_CLASS@@QAEEABV0@@Z 00417475 f   v5subs:stringcl.obj
 0001:0001649d       ??8STRING_CLASS@@QAEEPB_W@Z 0041749d f   v5subs:stringcl.obj
 0001:000164c4       ??MSTRING_CLASS@@QAEEABV0@@Z 004174c4 f   v5subs:stringcl.obj
 0001:000164eb       ??YSTRING_CLASS@@QAEXABV0@@Z 004174eb f   v5subs:stringcl.obj
 0001:000164fa       ??YSTRING_CLASS@@QAEXE@Z   004174fa f   v5subs:stringcl.obj
 0001:00016515       ??YSTRING_CLASS@@QAEXH@Z   00417515 f   v5subs:stringcl.obj
 0001:0001654d       ??YSTRING_CLASS@@QAEXI@Z   0041754d f   v5subs:stringcl.obj
 0001:00016585       ??YSTRING_CLASS@@QAEXPB_W@Z 00417585 f   v5subs:stringcl.obj
 0001:000165c6       ??YSTRING_CLASS@@QAEX_W@Z  004175c6 f   v5subs:stringcl.obj
 0001:000165fd       ?acquire@STRING_CLASS@@QAEEAAV1@@Z 004175fd f   v5subs:stringcl.obj
 0001:0001662b       ?boolean_value@STRING_CLASS@@QAEEXZ 0041762b f   v5subs:stringcl.obj
 0001:0001664d       ?cat_path@STRING_CLASS@@QAEXPB_W@Z 0041764d f   v5subs:stringcl.obj
 0001:000166bc       ?cat_w_char@STRING_CLASS@@QAEXPB_W_W@Z 004176bc f   v5subs:stringcl.obj
 0001:00016715       ?contains@STRING_CLASS@@QAE_NPB_W@Z 00417715 f   v5subs:stringcl.obj
 0001:00016726       ?contains@STRING_CLASS@@QAE_N_W@Z 00417726 f   v5subs:stringcl.obj
 0001:00016737       ?empty@STRING_CLASS@@QAEXXZ 00417737 f   v5subs:stringcl.obj
 0001:00016752       ?find@STRING_CLASS@@QAEPA_WPB_W@Z 00417752 f   v5subs:stringcl.obj
 0001:00016770       ?find@STRING_CLASS@@QAEPA_W_W@Z 00417770 f   v5subs:stringcl.obj
 0001:00016797       ?get_ascii@STRING_CLASS@@QAEEPAD@Z 00417797 f   v5subs:stringcl.obj
 0001:000167ef       ?get_substring@STRING_CLASS@@QAEEABV1@_W1@Z 004177ef f   v5subs:stringcl.obj
 0001:00016877       ?get_text@STRING_CLASS@@QAE_NPAUHWND__@@@Z 00417877 f   v5subs:stringcl.obj
 0001:000168cd       ?init@STRING_CLASS@@QAEEJ@Z 004178cd f   v5subs:stringcl.obj
 0001:00016920       ?isempty@STRING_CLASS@@QAEEXZ 00417920 f   v5subs:stringcl.obj
 0001:0001693e       ?isnumeric@STRING_CLASS@@QAEEXZ 0041793e f   v5subs:stringcl.obj
 0001:000169c7       ?last_char@STRING_CLASS@@QAEPA_WXZ 004179c7 f   v5subs:stringcl.obj
 0001:000169e2       ?len@STRING_CLASS@@QAEJXZ  004179e2 f   v5subs:stringcl.obj
 0001:000169f5       ?next_field@STRING_CLASS@@QAE_NXZ 004179f5 f   v5subs:stringcl.obj
 0001:00016a03       ?next_field@STRING_CLASS@@QAE_N_W@Z 00417a03 f   v5subs:stringcl.obj
 0001:00016b3a       ?null@STRING_CLASS@@QAEXXZ 00417b3a f   v5subs:stringcl.obj
 0001:00016b60       ?real_value@STRING_CLASS@@QAENXZ 00417b60 f   v5subs:stringcl.obj
 0001:00016bbd       ?remove_all_occurances@STRING_CLASS@@QAEH_W@Z 00417bbd f   v5subs:stringcl.obj
 0001:00016bf4       ?remove_leading_chars@STRING_CLASS@@QAE_NH@Z 00417bf4 f   v5subs:stringcl.obj
 0001:00016c2d       ?replace@STRING_CLASS@@QAEEPB_W0@Z 00417c2d f   v5subs:stringcl.obj
 0001:00016ce3       ?replace@STRING_CLASS@@QAEE_W0@Z 00417ce3 f   v5subs:stringcl.obj
 0001:00016d18       ?replace_all@STRING_CLASS@@QAEH_W0@Z 00417d18 f   v5subs:stringcl.obj
 0001:00016d51       ?rjust@STRING_CLASS@@QAEEJ@Z 00417d51 f   v5subs:stringcl.obj
 0001:00016d65       ?rjust@STRING_CLASS@@QAEEJ_W@Z 00417d65 f   v5subs:stringcl.obj
 0001:00016dbe       ?set_text@STRING_CLASS@@QAE_NPAUHWND__@@@Z 00417dbe f   v5subs:stringcl.obj
 0001:00016de3       ?uppercase@STRING_CLASS@@QAEXXZ 00417de3 f   v5subs:stringcl.obj
 0001:00016df3       ?upsize@STRING_CLASS@@QAEEJ@Z 00417df3 f   v5subs:stringcl.obj
 0001:00016e5a       ?convert_to_data_dir@NAME_CLASS@@QAEEXZ 00417e5a f   v5subs:nameclas.obj
 0001:00016e9f       ?copyto@NAME_CLASS@@QAEEAAVSTRING_CLASS@@@Z 00417e9f f   v5subs:nameclas.obj
 0001:00016ece       ?directory_exists@NAME_CLASS@@QAEEXZ 00417ece f i v5subs:nameclas.obj
 0001:00016ee3       ?find_extension@NAME_CLASS@@QAEPA_WXZ 00417ee3 f   v5subs:nameclas.obj
 0001:00016f23       ?get_data_dir_file_name@NAME_CLASS@@QAEEAAVSTRING_CLASS@@PB_W@Z 00417f23 f   v5subs:nameclas.obj
 0001:00016f66       ?get_data_dir_file_name@NAME_CLASS@@QAEEPB_W@Z 00417f66 f   v5subs:nameclas.obj
 0001:00016f83       ?get_exe_dir_file_name@NAME_CLASS@@QAEEAAVSTRING_CLASS@@PB_W@Z 00417f83 f   v5subs:nameclas.obj
 0001:00016fc6       ?get_exe_dir_file_name@NAME_CLASS@@QAEEPB_W@Z 00417fc6 f   v5subs:nameclas.obj
 0001:00016fff       ?get_machine_dir_file_name@NAME_CLASS@@QAEEAAVSTRING_CLASS@@0PB_W@Z 00417fff f   v5subs:nameclas.obj
 0001:00017048       ?get_part_dir_file_name@NAME_CLASS@@QAEEAAVSTRING_CLASS@@00PB_W@Z 00418048 f   v5subs:nameclas.obj
 0001:00017094       ?get_part_results_dir_file_name@NAME_CLASS@@QAEEAAVSTRING_CLASS@@00PB_W@Z 00418094 f   v5subs:nameclas.obj
 0001:000170d5       ?get_profile_name@NAME_CLASS@@QAEEAAVSTRING_CLASS@@00PB_W1@Z 004180d5 f   v5subs:nameclas.obj
 0001:00017182       ?get_static_text_parameters_csvname@NAME_CLASS@@QAEEAAVSTRING_CLASS@@00@Z 00418182 f   v5subs:nameclas.obj
 0001:0001719b       ?moveto@NAME_CLASS@@QAEEAAVSTRING_CLASS@@@Z 0041819b f   v5subs:nameclas.obj
 0001:000171c8       ?remove_extension@NAME_CLASS@@QAEEXZ 004181c8 f   v5subs:nameclas.obj
 0001:000171e1       ?replace_extension@NAME_CLASS@@QAEXPA_W@Z 004181e1 f   v5subs:nameclas.obj
 0001:00017211       ??0AUTO_BACKUP_CLASS@@QAE@XZ 00418211 f   v5subs:autoback.obj
 0001:00017223       ??1AUTO_BACKUP_CLASS@@QAE@XZ 00418223 f   v5subs:autoback.obj
 0001:00017229       ?backup_data_dir@AUTO_BACKUP_CLASS@@QAEEXZ 00418229 f   v5subs:autoback.obj
 0001:000172cb       ?backup_part@AUTO_BACKUP_CLASS@@QAEEAAVSTRING_CLASS@@0@Z 004182cb f   v5subs:autoback.obj
 0001:00017522       ?get_backup_dir@AUTO_BACKUP_CLASS@@QAEEXZ 00418522 f   v5subs:autoback.obj
 0001:000175c0       ??1DOUBLE_ARRAY_CLASS@@QAE@XZ 004185c0 f   v5subs:array.obj
 0001:000175cb       ??1INT32_ARRAY_CLASS@@QAE@XZ 004185cb f   v5subs:array.obj
 0001:000175d6       ??1INT_ARRAY_CLASS@@QAE@XZ 004185d6 f   v5subs:array.obj
 0001:000175db       ??ADOUBLE_ARRAY_CLASS@@QAEAANJ@Z 004185db f   v5subs:array.obj
 0001:000175fa       ??AINT32_ARRAY_CLASS@@QAEAAJJ@Z 004185fa f   v5subs:array.obj
 0001:00017619       ??AINT_ARRAY_CLASS@@QAEAAHH@Z 00418619 f   v5subs:array.obj
 0001:00017690       ?cleanup@DOUBLE_ARRAY_CLASS@@QAEXXZ 00418690 f   v5subs:array.obj
 0001:000176ac       ?cleanup@INT32_ARRAY_CLASS@@QAEXXZ 004186ac f   v5subs:array.obj
 0001:000176d1       ?cleanup@INT_ARRAY_CLASS@@QAEXXZ 004186d1 f   v5subs:array.obj
 0001:000176ea       ?contains@INT_ARRAY_CLASS@@QAE_NH@Z 004186ea f   v5subs:array.obj
 0001:00017711       ?init@DOUBLE_ARRAY_CLASS@@UAEEJ@Z 00418711 f   v5subs:array.obj
 0001:00017765       ?init@DOUBLE_ARRAY_CLASS@@UAEEJPAN@Z 00418765 f   v5subs:array.obj
 0001:00017789       ?init@INT32_ARRAY_CLASS@@UAEEJ@Z 00418789 f   v5subs:array.obj
 0001:000177ee       ?left_shift@INT32_ARRAY_CLASS@@UAEXJ@Z 004187ee f   v5subs:array.obj
 0001:0001783e       ??0ANALOG_SENSOR@@QAE@XZ   0041883e f   v5subs:asensor.obj
 0001:00017844       ??0ANALOG_SENSOR_ENTRY@@QAE@XZ 00418844 f   v5subs:asensor.obj
 0001:00017894       ??1ANALOG_SENSOR_ENTRY@@QAE@XZ 00418894 f   v5subs:asensor.obj
 0001:000178c0       ??AANALOG_SENSOR@@QAEAAUANALOG_SENSOR_ENTRY@@H@Z 004188c0 f   v5subs:asensor.obj
 0001:000178e3       ??_EANALOG_SENSOR_ENTRY@@QAEPAXI@Z 004188e3 f i v5subs:asensor.obj
 0001:00017938       ?count@ANALOG_SENSOR@@QAEHXZ 00418938 f   v5subs:asensor.obj
 0001:0001793e       ?desc@ANALOG_SENSOR@@QAEPA_WXZ 0041893e f   v5subs:asensor.obj
 0001:00017962       ?exists@ANALOG_SENSOR@@QAEEH@Z 00418962 f   v5subs:asensor.obj
 0001:0001797b       ?find@ANALOG_SENSOR@@QAEEH@Z 0041897b f   v5subs:asensor.obj
 0001:0001799c       ?get@ANALOG_SENSOR@@SAEXZ  0041899c f   v5subs:asensor.obj
 0001:00017b9a       ?get@ANALOG_SENSOR_ENTRY@@QAEEPA_W@Z 00418b9a f   v5subs:asensor.obj
 0001:00017cd3       ?index@ANALOG_SENSOR@@QAEHPA_W@Z 00418cd3 f   v5subs:asensor.obj
 0001:00017d35       ?shutdown@ANALOG_SENSOR@@SAXXZ 00418d35 f   v5subs:asensor.obj
 0001:00017d3a       ?units_index@ANALOG_SENSOR@@QAEHXZ 00418d3a f   v5subs:asensor.obj
 0001:00017d51       ?update@ANALOG_SENSOR_ENTRY@@QAEEXZ 00418d51 f   v5subs:asensor.obj
 0001:00017e3f       ?vartype@ANALOG_SENSOR@@QAEIXZ 00418e3f f   v5subs:asensor.obj
 0001:00017e56       ??1CHAXIS_LABEL_CLASS@@QAE@XZ 00418e56 f   v5subs:chaxis.obj
 0001:00017e5b       ??ACHAXIS_LABEL_CLASS@@QAEPA_WH@Z 00418e5b f   v5subs:chaxis.obj
 0001:00017e79       ?cleanup@CHAXIS_LABEL_CLASS@@QAEXXZ 00418e79 f   v5subs:chaxis.obj
 0001:00017eb8       ?get@CHAXIS_LABEL_CLASS@@QAEEAAVSTRING_CLASS@@00@Z 00418eb8 f   v5subs:chaxis.obj
 0001:00017f89       ?init@CHAXIS_LABEL_CLASS@@QAEEH@Z 00418f89 f   v5subs:chaxis.obj
 0001:00017fd7       ?put@CHAXIS_LABEL_CLASS@@QAEEAAVSTRING_CLASS@@00@Z 00418fd7 f   v5subs:chaxis.obj
 0001:0001806b       ?set@CHAXIS_LABEL_CLASS@@QAEEHPA_W@Z 0041906b f   v5subs:chaxis.obj
 0001:000180a7       ??0COLORS_CLASS@@QAE@XZ    004190a7 f   v5subs:color.obj
 0001:000180bc       ??1COLORS_CLASS@@QAE@XZ    004190bc f   v5subs:color.obj
 0001:000180c1       ?clear@@YAXXZ              004190c1 f   v5subs:color.obj
 0001:000180e1       ?count@COLORS_CLASS@@QAEFXZ 004190e1 f   v5subs:color.obj
 0001:000180e8       ?index@COLORS_CLASS@@QAEFPA_W@Z 004190e8 f   v5subs:color.obj
 0001:0001812c       ?name@COLORS_CLASS@@QAEPA_WF@Z 0041912c f   v5subs:color.obj
 0001:00018153       ?reload@COLORS_CLASS@@QAEEXZ 00419153 f   v5subs:color.obj
 0001:000182af       ??0DB_TABLE@@QAE@XZ        004192af f   v5subs:dbsubs.obj
 0001:000182d6       ??1DB_TABLE@@QAE@XZ        004192d6 f   v5subs:dbsubs.obj
 0001:00018353       ?close@DB_TABLE@@QAEXXZ    00419353 f   v5subs:dbsubs.obj
 0001:00018374       ?compare_date@@YAFPA_W0@Z  00419374 f   v5subs:dbsubs.obj
 0001:000183aa       ?compare_int32@@YAFPA_W0J@Z 004193aa f   v5subs:dbsubs.obj
 0001:000183de       ?compare_one_record@DB_TABLE@@AAEEPAFJJ@Z 004193de f   v5subs:dbsubs.obj
 0001:000184c6       ?create@DB_TABLE@@QAEEPA_W@Z 004194c6 f   v5subs:dbsubs.obj
 0001:00018526       ?determine_column_info@DB_TABLE@@QAEHXZ 00419526 f   v5subs:dbsubs.obj
 0001:00018707       ?empty@DB_TABLE@@QAEEXZ    00419707 f   v5subs:dbsubs.obj
 0001:0001872e       ?ensure_existance@DB_TABLE@@QAEEAAVSTRING_CLASS@@@Z 0041972e f   v5subs:dbsubs.obj
 0001:00018797       ?fill_searchbuf@DB_TABLE@@AAEEF@Z 00419797 f   v5subs:dbsubs.obj
 0001:000187f0       ?get_alpha@DB_TABLE@@QAEEAAVSTRING_CLASS@@GF@Z 004197f0 f   v5subs:dbsubs.obj
 0001:00018853       ?get_alpha@DB_TABLE@@QAEEPA_WGF@Z 00419853 f   v5subs:dbsubs.obj
 0001:00018869       ?get_alpha@DB_TABLE@@QAEEPA_WGFG@Z 00419869 f   v5subs:dbsubs.obj
 0001:000188d4       ?get_bitsetype@DB_TABLE@@QAEGG@Z 004198d4 f   v5subs:dbsubs.obj
 0001:000188d4       ?get_long@DB_TABLE@@QAEJG@Z 004198d4 f   v5subs:dbsubs.obj
 0001:00018900       ?get_boolean@DB_TABLE@@QAEEG@Z 00419900 f   v5subs:dbsubs.obj
 0001:00018930       ?get_char@DB_TABLE@@QAE_WG@Z 00419930 f   v5subs:dbsubs.obj
 0001:0001894b       ?get_double@DB_TABLE@@QAENG@Z 0041994b f   v5subs:dbsubs.obj
 0001:0001898a       ?get_next_key_match@DB_TABLE@@QAEEFE@Z 0041998a f   v5subs:dbsubs.obj
 0001:000189f7       ?get_next_record@DB_TABLE@@QAEEE@Z 004199f7 f   v5subs:dbsubs.obj
 0001:00018a45       ?get_rec@DB_TABLE@@QAEEXZ  00419a45 f   v5subs:dbsubs.obj
 0001:00018a91       ?goto_first_key_record@DB_TABLE@@AAEEF@Z 00419a91 f   v5subs:dbsubs.obj
 0001:00018aac       ?goto_key_record@DB_TABLE@@AAEEFJJ@Z 00419aac f   v5subs:dbsubs.obj
 0001:00018bd8       ?goto_record_number@DB_TABLE@@QAEEJ@Z 00419bd8 f   v5subs:dbsubs.obj
 0001:00018c6d       ?initbuf@DB_TABLE@@AAEEPAPA_WPAFF@Z 00419c6d f   v5subs:dbsubs.obj
 0001:00018d05       ?lock_record@DB_TABLE@@QAEEXZ 00419d05 f   v5subs:dbsubs.obj
 0001:00018d86       ?nof_recs@DB_TABLE@@QAEKXZ 00419d86 f   v5subs:dbsubs.obj
 0001:00018db0       ?open@DB_TABLE@@QAEEPA_WFF@Z 00419db0 f   v5subs:dbsubs.obj
 0001:00018dc6       ?open@DB_TABLE@@QAEEPA_WFFF@Z 00419dc6 f   v5subs:dbsubs.obj
 0001:00018fa5       ?point_to_start_of_field@DB_TABLE@@AAEPA_WG@Z 00419fa5 f   v5subs:dbsubs.obj
 0001:00018fc4       ?post_error@@YAXPA_W0@Z    00419fc4 f   v5subs:dbsubs.obj
 0001:00018fd7       ?post_error@@YAXPA_W@Z     00419fd7 f   v5subs:dbsubs.obj
 0001:00018feb       ?put_alpha@DB_TABLE@@QAEEGPB_WF@Z 00419feb f   v5subs:dbsubs.obj
 0001:00019037       ?put_boolean@DB_TABLE@@QAEEGE@Z 0041a037 f   v5subs:dbsubs.obj
 0001:00019063       ?put_double@DB_TABLE@@QAEEGNF@Z 0041a063 f   v5subs:dbsubs.obj
 0001:000190aa       ?put_long@DB_TABLE@@QAEEGJF@Z 0041a0aa f   v5subs:dbsubs.obj
 0001:000190ea       ?rec_append@DB_TABLE@@QAEEXZ 0041a0ea f   v5subs:dbsubs.obj
 0001:00019110       ?restore_from_searchbuf@DB_TABLE@@AAEXXZ 0041a110 f   v5subs:dbsubs.obj
 0001:0001915f       ?unlock_record@DB_TABLE@@QAEEXZ 0041a15f f   v5subs:dbsubs.obj
 0001:000191a4       ?write_record@DB_TABLE@@AAEEXZ 0041a1a4 f   v5subs:dbsubs.obj
 0001:000191fc       ??0EXTERNAL_PARAMETER_SETTINGS_CLASS@@QAE@XZ 0041a1fc f   v5subs:external_parameter.obj
 0001:0001920e       ??1EXTERNAL_PARAMETER_SETTINGS_CLASS@@QAE@XZ 0041a20e f   v5subs:external_parameter.obj
 0001:00019213       ?clear@EXTERNAL_PARAMETER_SETTINGS_CLASS@@QAEXXZ 0041a213 f   v5subs:external_parameter.obj
 0001:00019223       ?get@EXTERNAL_PARAMETER_SETTINGS_CLASS@@QAEEAAVSTRING_CLASS@@00@Z 0041a223 f   v5subs:external_parameter.obj
 0001:00019363       ?put@EXTERNAL_PARAMETER_SETTINGS_CLASS@@QAEEAAVSTRING_CLASS@@00@Z 0041a363 f   v5subs:external_parameter.obj
 0001:00019515       ??0FONT_CLASS@@QAE@XZ      0041a515 f   v5subs:fontclas.obj
 0001:00019532       ??0FONT_LIST_CLASS@@QAE@XZ 0041a532 f   v5subs:fontclas.obj
 0001:00019538       ??0FONT_LIST_ENTRY@@QAE@XZ 0041a538 f   v5subs:fontclas.obj
 0001:00019552       ??1FONT_LIST_CLASS@@QAE@XZ 0041a552 f   v5subs:fontclas.obj
 0001:0001957b       ??1FONT_LIST_ENTRY@@QAE@XZ 0041a57b f   v5subs:fontclas.obj
 0001:00019593       ??4FONT_CLASS@@QAEXABUtagLOGFONTW@@@Z 0041a593 f   v5subs:fontclas.obj
 0001:000195f6       ??4FONT_CLASS@@QAEXABV0@@Z 0041a5f6 f   v5subs:fontclas.obj
 0001:00019632       ??8FONT_CLASS@@QAE_NABUtagLOGFONTW@@@Z 0041a632 f   v5subs:fontclas.obj
 0001:000196b7       ??8FONT_CLASS@@QAE_NABV0@@Z 0041a6b7 f   v5subs:fontclas.obj
 0001:000196f3       ?free_handle@FONT_LIST_CLASS@@QAEXPAUHFONT__@@@Z 0041a6f3 f   v5subs:fontclas.obj
 0001:00019736       ?get@FONT_CLASS@@QAE_NPA_W@Z 0041a736 f   v5subs:fontclas.obj
 0001:000198ea       ?get_handle@FONT_LIST_CLASS@@QAEPAUHFONT__@@ABVFONT_CLASS@@@Z 0041a8ea f   v5subs:fontclas.obj
 0001:00019a01       ??1GENERIC_LIST_CLASS@@QAE@XZ 0041aa01 f   v5subs:genlist.obj
 0001:00019a23       ?append@GENERIC_LIST_CLASS@@QAEEPAX@Z 0041aa23 f   v5subs:genlist.obj
 0001:00019a59       ?count@GENERIC_LIST_CLASS@@QAEFXZ 0041aa59 f   v5subs:genlist.obj
 0001:00019a65       ?find@GENERIC_LIST_CLASS@@QAEEPAX@Z 0041aa65 f   v5subs:genlist.obj
 0001:00019a9d       ?next@GENERIC_LIST_CLASS@@QAEPAXXZ 0041aa9d f   v5subs:genlist.obj
 0001:00019ac7       ?remove@GENERIC_LIST_CLASS@@QAEEPAX@Z 0041aac7 f   v5subs:genlist.obj
 0001:00019ae6       ?remove@GENERIC_LIST_CLASS@@QAEEXZ 0041aae6 f   v5subs:genlist.obj
 0001:00019b15       ?remove_all@GENERIC_LIST_CLASS@@QAEXXZ 0041ab15 f   v5subs:genlist.obj
 0001:00019b3e       ?rewind@GENERIC_LIST_CLASS@@QAEXXZ 0041ab3e f   v5subs:genlist.obj
 0001:00019b47       ??1INI_CLASS@@QAE@XZ       0041ab47 f   v5subs:iniclass.obj
 0001:00019c00       ?cleanup@INI_CLASS@@QAEXXZ 0041ac00 f   v5subs:iniclass.obj
 0001:00019c3b       ?find@INI_CLASS@@QAEEPB_W0@Z 0041ac3b f   v5subs:iniclass.obj
 0001:00019c9e       ?find@INI_CLASS@@QAEEPB_W@Z 0041ac9e f   v5subs:iniclass.obj
 0001:00019cb7       ?get_bool@INI_CLASS@@QAE_NPB_W@Z 0041acb7 f   v5subs:iniclass.obj
 0001:00019cd0       ?get_boolean@INI_CLASS@@QAEEXZ 0041acd0 f   v5subs:iniclass.obj
 0001:00019cd0       ?get_bool@INI_CLASS@@QAE_NXZ 0041acd0 f   v5subs:iniclass.obj
 0001:00019cf2       ?get_bool@INI_CLASS@@QAE_NPB_W0@Z 0041acf2 f   v5subs:iniclass.obj
 0001:00019cf2       ?get_boolean@INI_CLASS@@QAEEPB_W0@Z 0041acf2 f   v5subs:iniclass.obj
 0001:00019d15       ?get_double@INI_CLASS@@QAENPB_W@Z 0041ad15 f   v5subs:iniclass.obj
 0001:00019d34       ?get_double@INI_CLASS@@QAENXZ 0041ad34 f   v5subs:iniclass.obj
 0001:00019d59       ?get_int@INI_CLASS@@QAEHXZ 0041ad59 f   v5subs:iniclass.obj
 0001:00019d6a       ?get_string@INI_CLASS@@QAEPA_WXZ 0041ad6a f   v5subs:iniclass.obj
 0001:00019d78       ?put_int@INI_CLASS@@QAEEPB_WH@Z 0041ad78 f   v5subs:iniclass.obj
 0001:00019dbe       ?put_string@INI_CLASS@@QAEEPB_W00@Z 0041adbe f   v5subs:iniclass.obj
 0001:00019e0d       ?put_string@INI_CLASS@@QAEEPB_W0@Z 0041ae0d f   v5subs:iniclass.obj
 0001:00019e2a       ?set_file@INI_CLASS@@QAEEPB_W@Z 0041ae2a f   v5subs:iniclass.obj
 0001:00019e6c       ?set_section@INI_CLASS@@QAEEPB_W@Z 0041ae6c f   v5subs:iniclass.obj
 0001:00019ea0       ??1LISTBOX_CLASS@@QAE@XZ   0041aea0 f   v5subs:listbox.obj
 0001:00019eb0       ?add@LISTBOX_CLASS@@QAEHPA_W@Z 0041aeb0 f   v5subs:listbox.obj
 0001:00019ef1       ?check_buf_size@LISTBOX_CLASS@@AAEEH@Z 0041aef1 f   v5subs:listbox.obj
 0001:00019f3e       ?check_buf_size@LISTBOX_CLASS@@AAEEPA_W@Z 0041af3e f   v5subs:listbox.obj
 0001:00019f57       ?check_item_size@LISTBOX_CLASS@@AAEEH@Z 0041af57 f   v5subs:listbox.obj
 0001:00019f8e       ?convert_tab_array_to_dialog_units@LISTBOX_CLASS@@AAE_NPAHH@Z 0041af8e f   v5subs:listbox.obj
 0001:0001a00a       ?count@LISTBOX_CLASS@@QAEHXZ 0041b00a f   v5subs:listbox.obj
 0001:0001a034       ?current_index@LISTBOX_CLASS@@QAEHXZ 0041b034 f   v5subs:listbox.obj
 0001:0001a053       ?empty@LISTBOX_CLASS@@QAEXXZ 0041b053 f   v5subs:listbox.obj
 0001:0001a06a       ?get_select_list@LISTBOX_CLASS@@QAEHPAPAH@Z 0041b06a f   v5subs:listbox.obj
 0001:0001a0d2       ?init@LISTBOX_CLASS@@QAEEPAUHWND__@@@Z 0041b0d2 f   v5subs:listbox.obj
 0001:0001a133       ?init@LISTBOX_CLASS@@QAEEPAUHWND__@@H@Z 0041b133 f   v5subs:listbox.obj
 0001:0001a150       ?insert@LISTBOX_CLASS@@QAEHHPA_W@Z 0041b150 f   v5subs:listbox.obj
 0001:0001a193       ?is_selected@LISTBOX_CLASS@@QAEEH@Z 0041b193 f   v5subs:listbox.obj
 0001:0001a1b8       ?item_text@LISTBOX_CLASS@@QAEPA_WH@Z 0041b1b8 f   v5subs:listbox.obj
 0001:0001a200       ?redraw_off@LISTBOX_CLASS@@QAEXXZ 0041b200 f   v5subs:listbox.obj
 0001:0001a20f       ?redraw_on@LISTBOX_CLASS@@QAEXXZ 0041b20f f   v5subs:listbox.obj
 0001:0001a22e       ?remove@LISTBOX_CLASS@@QAEEH@Z 0041b22e f   v5subs:listbox.obj
 0001:0001a25a       ?replace@LISTBOX_CLASS@@QAEEPA_W@Z 0041b25a f   v5subs:listbox.obj
 0001:0001a2b6       ?select_count@LISTBOX_CLASS@@QAEHXZ 0041b2b6 f   v5subs:listbox.obj
 0001:0001a2e0       ?selected_index@LISTBOX_CLASS@@QAEHXZ 0041b2e0 f   v5subs:listbox.obj
 0001:0001a30b       ?selected_text@LISTBOX_CLASS@@QAEPA_WXZ 0041b30b f   v5subs:listbox.obj
 0001:0001a329       ?set_current_index@LISTBOX_CLASS@@QAEEH@Z 0041b329 f   v5subs:listbox.obj
 0001:0001a350       ?set_pixel_tabs@LISTBOX_CLASS@@QAE_NPAHH@Z 0041b350 f   v5subs:listbox.obj
 0001:0001a38c       ?set_tabs@LISTBOX_CLASS@@QAE_NHH@Z 0041b38c f   v5subs:listbox.obj
 0001:0001a469       ?setcursel@LISTBOX_CLASS@@QAEEH@Z 0041b469 f   v5subs:listbox.obj
 0001:0001a4aa       ?setcursel@LISTBOX_CLASS@@QAEEPA_W@Z 0041b4aa f   v5subs:listbox.obj
 0001:0001a4f1       ??0MULTIPART_LB_ENTRY@@QAE@XZ 0041b4f1 f   editpart.obj
 0001:0001a4f1       ??0PART_NAME_ENTRY@@QAE@XZ 0041b4f1 f   v5subs:structs.obj
 0001:0001a50d       ??0COMPUTER_CLASS@@QAE@XZ  0041b50d f   v5subs:computer.obj
 0001:0001a518       ?add@COMPUTER_CLASS@@QAEEPA_W@Z 0041b518 f   v5subs:computer.obj
 0001:0001a5cc       ?empty@COMPUTER_CLASS@@QAEXXZ 0041b5cc f   v5subs:computer.obj
 0001:0001a600       ?find@COMPUTER_CLASS@@QAEEPA_W@Z 0041b600 f   v5subs:computer.obj
 0001:0001a630       ?is_present@COMPUTER_CLASS@@QAEEXZ 0041b630 f   v5subs:computer.obj
 0001:0001a651       ?load@COMPUTER_CLASS@@QAEEXZ 0041b651 f   v5subs:computer.obj
 0001:0001a781       ?name@COMPUTER_CLASS@@QAEAAVSTRING_CLASS@@XZ 0041b781 f   v5subs:computer.obj
 0001:0001a791       ?next@COMPUTER_CLASS@@QAEEXZ 0041b791 f   v5subs:computer.obj
 0001:0001a7b3       ?rewind@COMPUTER_CLASS@@QAEXXZ 0041b7b3 f   v5subs:computer.obj
 0001:0001a7ba       ?startup@COMPUTER_CLASS@@QAEEXZ 0041b7ba f   v5subs:computer.obj
 0001:0001a7cf       ?whoami@COMPUTER_CLASS@@QAEAAVSTRING_CLASS@@XZ 0041b7cf f   v5subs:computer.obj
 0001:0001a7d5       ??0LIMIT_SWITCH_CLASS@@QAE@XZ 0041b7d5 f   v5subs:limit_switch_class.obj
 0001:0001a7f1       ??0LIMIT_SWITCH_WIRE_CLASS@@QAE@XZ 0041b7f1 f   v5subs:limit_switch_class.obj
 0001:0001a7f1       ??0LIMIT_SWITCH_POS_CLASS@@QAE@XZ 0041b7f1 f   v5subs:limit_switch_class.obj
 0001:0001a7f1       ??0LIMIT_SWITCH_DESC_CLASS@@QAE@XZ 0041b7f1 f   v5subs:limit_switch_class.obj
 0001:0001a80e       ??1LIMIT_SWITCH_CLASS@@QAE@XZ 0041b80e f   v5subs:limit_switch_class.obj
 0001:0001a829       ??1LIMIT_SWITCH_DESC_CLASS@@QAE@XZ 0041b829 f   v5subs:limit_switch_class.obj
 0001:0001a829       ??1LIMIT_SWITCH_WIRE_CLASS@@QAE@XZ 0041b829 f   v5subs:limit_switch_class.obj
 0001:0001a829       ??1LIMIT_SWITCH_POS_CLASS@@QAE@XZ 0041b829 f   v5subs:limit_switch_class.obj
 0001:0001a841       ??ALIMIT_SWITCH_DESC_CLASS@@QAEAAVSTRING_CLASS@@H@Z 0041b841 f   v5subs:limit_switch_class.obj
 0001:0001a880       ??ALIMIT_SWITCH_POS_CLASS@@QAEAAVSTRING_CLASS@@H@Z 0041b880 f   v5subs:limit_switch_class.obj
 0001:0001a8bf       ??ALIMIT_SWITCH_WIRE_CLASS@@QAEAAVSTRING_CLASS@@H@Z 0041b8bf f   v5subs:limit_switch_class.obj
 0001:0001a8fe       ?empty@LIMIT_SWITCH_CLASS@@QAEXXZ 0041b8fe f   v5subs:limit_switch_class.obj
 0001:0001a917       ?empty@LIMIT_SWITCH_DESC_CLASS@@QAEXXZ 0041b917 f   v5subs:limit_switch_class.obj
 0001:0001a917       ?empty@LIMIT_SWITCH_POS_CLASS@@QAEXXZ 0041b917 f   v5subs:limit_switch_class.obj
 0001:0001a92e       ?empty@LIMIT_SWITCH_WIRE_CLASS@@QAEXXZ 0041b92e f   v5subs:limit_switch_class.obj
 0001:0001a947       ?get@LIMIT_SWITCH_CLASS@@QAEEAAVSTRING_CLASS@@00@Z 0041b947 f   v5subs:limit_switch_class.obj
 0001:0001a9a3       ?get@LIMIT_SWITCH_DESC_CLASS@@QAEEAAVSTRING_CLASS@@00@Z 0041b9a3 f   v5subs:limit_switch_class.obj
 0001:0001aa41       ?get@LIMIT_SWITCH_POS_CLASS@@QAEEAAVSTRING_CLASS@@00@Z 0041ba41 f   v5subs:limit_switch_class.obj
 0001:0001aaa3       ?get@LIMIT_SWITCH_POS_CLASS@@QAEEAAVSTRING_CLASS@@@Z 0041baa3 f   v5subs:limit_switch_class.obj
 0001:0001aaff       ?get@LIMIT_SWITCH_WIRE_CLASS@@QAEEAAVSTRING_CLASS@@00@Z 0041baff f   v5subs:limit_switch_class.obj
 0001:0001ac52       ?mask@LIMIT_SWITCH_WIRE_CLASS@@QAEIH@Z 0041bc52 f   v5subs:limit_switch_class.obj
 0001:0001ac87       ?put@LIMIT_SWITCH_CLASS@@QAEEAAVSTRING_CLASS@@00@Z 0041bc87 f   v5subs:limit_switch_class.obj
 0001:0001acdc       ?put@LIMIT_SWITCH_DESC_CLASS@@QAEEAAVSTRING_CLASS@@00@Z 0041bcdc f   v5subs:limit_switch_class.obj
 0001:0001ad58       ?put@LIMIT_SWITCH_POS_CLASS@@QAEEAAVSTRING_CLASS@@00@Z 0041bd58 f   v5subs:limit_switch_class.obj
 0001:0001ad9e       ?put@LIMIT_SWITCH_POS_CLASS@@QAEEAAVSTRING_CLASS@@@Z 0041bd9e f   v5subs:limit_switch_class.obj
 0001:0001adf3       ?put@LIMIT_SWITCH_WIRE_CLASS@@QAEEAAVSTRING_CLASS@@00@Z 0041bdf3 f   v5subs:limit_switch_class.obj
 0001:0001ae6f       ?real_pos@LIMIT_SWITCH_POS_CLASS@@QAENH@Z 0041be6f f   v5subs:limit_switch_class.obj
 0001:0001ae87       ?wire_number@LIMIT_SWITCH_WIRE_CLASS@@QAEHH@Z 0041be87 f   v5subs:limit_switch_class.obj
 0001:0001aea1       ??0MULTIPART_RUNLIST_SETTINGS_CLASS@@QAE@XZ 0041bea1 f   v5subs:multipart_runlist.obj
 0001:0001aeb7       ??0MULTIPART_RUNLIST_WIRES_CLASS@@QAE@XZ 0041beb7 f   v5subs:multipart_runlist.obj
 0001:0001aecd       ??1MULTIPART_RUNLIST_SETTINGS_CLASS@@QAE@XZ 0041becd f   v5subs:multipart_runlist.obj
 0001:0001aed5       ??1MULTIPART_RUNLIST_WIRES_CLASS@@QAE@XZ 0041bed5 f   v5subs:multipart_runlist.obj
 0001:0001aedd       ??4MULTIPART_RUNLIST_WIRES_CLASS@@QAEXABV0@@Z 0041bedd f   v5subs:multipart_runlist.obj
 0001:0001aefa       ?bits_from_wirelist@@YAIAAVSTRING_CLASS@@@Z 0041befa f   v5subs:multipart_runlist.obj
 0001:0001afb3       ?cleanup@MULTIPART_RUNLIST_WIRES_CLASS@@QAEXXZ 0041bfb3 f   v5subs:multipart_runlist.obj
 0001:0001afc2       ?countchars@STRING_CLASS@@QAEJ_W@Z 0041bfc2 f i v5subs:multipart_runlist.obj
 0001:0001afdd       ?get@MULTIPART_RUNLIST_SETTINGS_CLASS@@QAE_NAAVSTRING_CLASS@@0@Z 0041bfdd f   v5subs:multipart_runlist.obj
 0001:0001b2c1       ?get@MULTIPART_RUNLIST_WIRES_CLASS@@QAE_NAAVSTRING_CLASS@@00@Z 0041c2c1 f   v5subs:multipart_runlist.obj
 0001:0001b45f       ?get_multipart_runlist_wires_csvname@NAME_CLASS@@QAEEAAVSTRING_CLASS@@0V2@@Z 0041c45f f i v5subs:multipart_runlist.obj
 0001:0001b488       ?get_wirelist@MULTIPART_RUNLIST_SETTINGS_CLASS@@QAE_NAAVSTRING_CLASS@@H@Z 0041c488 f   v5subs:multipart_runlist.obj
 0001:0001b563       ?init@MULTIPART_RUNLIST_SETTINGS_CLASS@@QAEXXZ 0041c563 f   v5subs:multipart_runlist.obj
 0001:0001b56b       ?max_part_selection_number@MULTIPART_RUNLIST_SETTINGS_CLASS@@QAEHXZ 0041c56b f   v5subs:multipart_runlist.obj
 0001:0001b583       ?part_selection_number@MULTIPART_RUNLIST_SETTINGS_CLASS@@QAEHAAVSTRING_CLASS@@@Z 0041c583 f   v5subs:multipart_runlist.obj
 0001:0001b647       ?put@MULTIPART_RUNLIST_WIRES_CLASS@@QAE_NAAVSTRING_CLASS@@00@Z 0041c647 f   v5subs:multipart_runlist.obj
 0001:0001b6e0       ??0MACHINE_CLASS@@QAE@XZ   0041c6e0 f   v5subs:machine.obj
 0001:0001b747       ?find@MACHINE_CLASS@@QAEEAAVSTRING_CLASS@@0@Z 0041c747 f   v5subs:machine.obj
 0001:0001b99e       ?has_binary_valve@MACHINE_CLASS@@QAEEXZ 0041c99e f   v5subs:machine.obj
 0001:0001b9a7       ?init@MACHINE_CLASS@@QAEXXZ 0041c9a7 f   v5subs:machine.obj
 0001:0001ba30       ?init_save_counts@@YAXPAUSAVE_COUNTS@@@Z 0041ca30 f   v5subs:machine.obj
 0001:0001ba49       ?read_machset_db@MACHINE_CLASS@@QAEEAAVSTRING_CLASS@@@Z 0041ca49 f   v5subs:machine.obj
 0001:0001bfe2       ??0MULTISTRING_CLASS@@QAE@XZ 0041cfe2 f   v5subs:multistring.obj
 0001:0001bffa       ??1MULTISTRING_CLASS@@QAE@XZ 0041cffa f   v5subs:multistring.obj
 0001:0001c00a       ??AMULTISTRING_CLASS@@QAEAAV0@H@Z 0041d00a f   v5subs:multistring.obj
 0001:0001c01c       ??_ESTRING_CLASS@@QAEPAXI@Z 0041d01c f i v5subs:multistring.obj
 0001:0001c06c       ?append@MULTISTRING_CLASS@@QAE_NABVSTRING_CLASS@@@Z 0041d06c f   v5subs:multistring.obj
 0001:0001c09a       ?empty_array@MULTISTRING_CLASS@@QAE_NXZ 0041d09a f   v5subs:multistring.obj
 0001:0001c0bc       ?find@MULTISTRING_CLASS@@QAEHAAVSTRING_CLASS@@@Z 0041d0bc f   v5subs:multistring.obj
 0001:0001c0ec       ?goto_index@MULTISTRING_CLASS@@QAE_NH@Z 0041d0ec f   v5subs:multistring.obj
 0001:0001c12c       ?next@MULTISTRING_CLASS@@QAE_NXZ 0041d12c f   v5subs:multistring.obj
 0001:0001c16a       ?rewind@MULTISTRING_CLASS@@QAE_NXZ 0041d16a f   v5subs:multistring.obj
 0001:0001c188       ?set_array_size@MULTISTRING_CLASS@@QAE_NH@Z 0041d188 f   v5subs:multistring.obj
 0001:0001c282       ?split@MULTISTRING_CLASS@@QAE_N_W@Z 0041d282 f   v5subs:multistring.obj
 0001:0001c33c       ??0STATIC_TEXT_PARAMETER_CLASS@@QAE@XZ 0041d33c f   v5subs:static_text_parameter.obj
 0001:0001c359       ??1STATIC_TEXT_PARAMETER_CLASS@@QAE@XZ 0041d359 f   v5subs:static_text_parameter.obj
 0001:0001c36c       ??4STATIC_TEXT_PARAMETER_CLASS@@QAEXABV0@@Z 0041d36c f   v5subs:static_text_parameter.obj
 0001:0001c39d       ?clear@STATIC_TEXT_PARAMETER_CLASS@@QAEXXZ 0041d39d f   v5subs:static_text_parameter.obj
 0001:0001c3b8       ?get@STATIC_TEXT_PARAMETER_CLASS@@QAEEH@Z 0041d3b8 f   v5subs:static_text_parameter.obj
 0001:0001c49a       ?init@STATIC_TEXT_PARAMETER_CLASS@@QAEEAAVSTRING_CLASS@@00@Z 0041d49a f   v5subs:static_text_parameter.obj
 0001:0001c49f       ?put@STATIC_TEXT_PARAMETER_CLASS@@QAEEH@Z 0041d49f f   v5subs:static_text_parameter.obj
 0001:0001c691       ??0PARAMETER_CLASS@@QAE@XZ 0041d691 f   v5subs:param.obj
 0001:0001c6d8       ??0PARAMETER_ENTRY@@QAE@XZ 0041d6d8 f i v5subs:param.obj
 0001:0001c706       ??4PARAMETER_ENTRY@@QAEXABU0@@Z 0041d706 f   v5subs:param.obj
 0001:0001c788       ?count@PARAMETER_CLASS@@QAEFXZ 0041d788 f   v5subs:param.obj
 0001:0001c7a9       ?find@PARAMETER_CLASS@@QAEEAAVSTRING_CLASS@@00@Z 0041d7a9 f   v5subs:param.obj
 0001:0001c867       ?has_alarm_limits@PARAMETER_ENTRY@@QAEEXZ 0041d867 f   v5subs:param.obj
 0001:0001c87e       ?has_warning_limits@PARAMETER_ENTRY@@QAEEXZ 0041d87e f   v5subs:param.obj
 0001:0001c895       ?init@PARAMETER_CLASS@@QAEXF@Z 0041d895 f   v5subs:param.obj
 0001:0001c90d       ?read_param_csv@PARAMETER_CLASS@@QAEEAAVSTRING_CLASS@@@Z 0041d90d f   v5subs:param.obj
 0001:0001cbb8       ?read_param_db@PARAMETER_CLASS@@QAEEAAVSTRING_CLASS@@@Z 0041dbb8 f   v5subs:param.obj
 0001:0001cd6a       ?remove@PARAMETER_CLASS@@QAEEF@Z 0041dd6a f   v5subs:param.obj
 0001:0001cdb9       ?save@PARAMETER_CLASS@@QAEEXZ 0041ddb9 f   v5subs:param.obj
 0001:0001cfca       ??0PARAM_INDEX_CLASS@@QAE@XZ 0041dfca f   v5subs:param_index_class.obj
 0001:0001cfd8       ?index@PARAM_INDEX_CLASS@@QAEHH@Z 0041dfd8 f   v5subs:param_index_class.obj
 0001:0001cfee       ?load@PARAM_INDEX_CLASS@@QAE_NAAVSTRING_CLASS@@00@Z 0041dfee f   v5subs:param_index_class.obj
 0001:0001d0de       ?move@PARAM_INDEX_CLASS@@QAE_NHH@Z 0041e0de f   v5subs:param_index_class.obj
 0001:0001d138       ?parameter_number@PARAM_INDEX_CLASS@@QAEHH@Z 0041e138 f   v5subs:param_index_class.obj
 0001:0001d14b       ?remove@PARAM_INDEX_CLASS@@QAE_NH@Z 0041e14b f   v5subs:param_index_class.obj
 0001:0001d1a8       ?save@PARAM_INDEX_CLASS@@QAE_NAAVSTRING_CLASS@@00@Z 0041e1a8 f   v5subs:param_index_class.obj
 0001:0001d261       ??0SETPOINT_CLASS@@QAE@XZ  0041e261 f   v5subs:setpoint.obj
 0001:0001d26b       ??1SETPOINT_CLASS@@QAE@XZ  0041e26b f   v5subs:setpoint.obj
 0001:0001d270       ??4SETPOINT_CLASS@@QAEXABV0@@Z 0041e270 f   v5subs:setpoint.obj
 0001:0001d2c3       ??4SETPOINT_ENTRY@@QAEXABU0@@Z 0041e2c3 f   v5subs:setpoint.obj
 0001:0001d2e2       ??ASETPOINT_CLASS@@QAEAAUSETPOINT_ENTRY@@H@Z 0041e2e2 f   v5subs:setpoint.obj
 0001:0001d2fe       ??_ESETPOINT_ENTRY@@QAEPAXI@Z 0041e2fe f i v5subs:setpoint.obj
 0001:0001d367       ?cleanup@SETPOINT_CLASS@@QAEXXZ 0041e367 f   v5subs:setpoint.obj
 0001:0001d382       ?empty@SETPOINT_CLASS@@QAEXXZ 0041e382 f   v5subs:setpoint.obj
 0001:0001d3b2       ?get@SETPOINT_CLASS@@QAEHAAVSTRING_CLASS@@@Z 0041e3b2 f   v5subs:setpoint.obj
 0001:0001d3c9       ?getfrom@SETPOINT_CLASS@@QAEHAAVSTRING_CLASS@@@Z 0041e3c9 f   v5subs:setpoint.obj
 0001:0001d4bc       ?put@SETPOINT_CLASS@@QAEEAAVSTRING_CLASS@@@Z 0041e4bc f   v5subs:setpoint.obj
 0001:0001d5a3       ?setsize@SETPOINT_CLASS@@QAEEH@Z 0041e5a3 f   v5subs:setpoint.obj
 0001:0001d6a0       ??0PART_CLASS@@QAE@XZ      0041e6a0 f   v5subs:part.obj
 0001:0001d6d6       ??1PART_CLASS@@QAE@XZ      0041e6d6 f   v5subs:part.obj
 0001:0001d704       ??4PART_CLASS@@QAEXABV0@@Z 0041e704 f   v5subs:part.obj
 0001:0001d932       ?find@PART_CLASS@@QAEEAAVSTRING_CLASS@@00@Z 0041e932 f   v5subs:part.obj
 0001:0001dc6b       ?init@PART_CLASS@@QAEXXZ   0041ec6b f   v5subs:part.obj
 0001:0001dd91       ?read_ftchan_db@PART_CLASS@@QAEEAAVSTRING_CLASS@@@Z 0041ed91 f   v5subs:part.obj
 0001:0001de37       ?read_part_setup@PART_CLASS@@QAEEAAVSTRING_CLASS@@@Z 0041ee37 f   v5subs:part.obj
 0001:0001de98       ?read_x4_divisor@PART_CLASS@@QAEEXZ 0041ee98 f   v5subs:part.obj
 0001:0001dfef       ?refresh_time_sample@PART_CLASS@@QAEEXZ 0041efef f   v5subs:part.obj
 0001:0001e0ee       ?save@PART_CLASS@@QAEEXZ   0041f0ee f   v5subs:part.obj
 0001:0001e507       ?set_alarm_timeout@PART_CLASS@@QAEXJ@Z 0041f507 f   v5subs:part.obj
 0001:0001e544       ?set_biscuit_time_delay@PART_CLASS@@QAEXJ@Z 0041f544 f   v5subs:part.obj
 0001:0001e563       ?set_csfs_min_position@PART_CLASS@@QAEXN@Z 0041f563 f   v5subs:part.obj
 0001:0001e58c       ?set_csfs_min_velocity@PART_CLASS@@QAEXN@Z 0041f58c f   v5subs:part.obj
 0001:0001e5b5       ?set_csfs_rise_velocity@PART_CLASS@@QAEXN@Z 0041f5b5 f   v5subs:part.obj
 0001:0001e5de       ?set_distance_units@PART_CLASS@@QAEXF@Z 0041f5de f   v5subs:part.obj
 0001:0001e61e       ?set_eos_velocity@PART_CLASS@@QAEXN@Z 0041f61e f   v5subs:part.obj
 0001:0001e647       ?set_head_pressure_channel@PART_CLASS@@QAEXF@Z 0041f647 f   v5subs:part.obj
 0001:0001e669       ?set_min_stroke_length@PART_CLASS@@QAEXN@Z 0041f669 f   v5subs:part.obj
 0001:0001e692       ?set_plunger_diameter@PART_CLASS@@QAEXN@Z 0041f692 f   v5subs:part.obj
 0001:0001e6be       ?set_pressure_units@PART_CLASS@@QAEXF@Z 0041f6be f   v5subs:part.obj
 0001:0001e6e3       ?set_rod_pressure_channel@PART_CLASS@@QAEXF@Z 0041f6e3 f   v5subs:part.obj
 0001:0001e708       ?set_runner_fill_distance@PART_CLASS@@QAEXN@Z 0041f708 f   v5subs:part.obj
 0001:0001e734       ?set_sleeve_fill_distance@PART_CLASS@@QAEXN@Z 0041f734 f   v5subs:part.obj
 0001:0001e760       ?set_total_stroke_length@PART_CLASS@@QAEXN@Z 0041f760 f   v5subs:part.obj
 0001:0001e78c       ?set_user_avg_velocity_end@PART_CLASS@@QAEXHN@Z 0041f78c f   v5subs:part.obj
 0001:0001e7bf       ?set_user_avg_velocity_start@PART_CLASS@@QAEXHN@Z 0041f7bf f   v5subs:part.obj
 0001:0001e7f2       ?set_user_velocity_position@PART_CLASS@@QAEXHN@Z 0041f7f2 f   v5subs:part.obj
 0001:0001e825       ?set_velocity_units@PART_CLASS@@QAEXF@Z 0041f825 f   v5subs:part.obj
 0001:0001e868       ?set_zero_speed_output_enable@PART_CLASS@@QAEXE@Z 0041f868 f   v5subs:part.obj
 0001:0001e88a       ?set_zero_speed_output_wire@PART_CLASS@@QAEXF@Z 0041f88a f   v5subs:part.obj
 0001:0001e8af       ?update@PART_CLASS@@QAEEXZ 0041f8af f   v5subs:part.obj
 0001:0001eca8       ??0MARKS_CLASS@@QAE@XZ     0041fca8 f   v5subs:marks.obj
 0001:0001ece3       ??4MARKLIST_ENTRY@@QAEAAU0@ABU0@@Z 0041fce3 f i v5subs:marks.obj
 0001:0001ed35       ?add@MARKS_CLASS@@QAEX_WF@Z 0041fd35 f   v5subs:marks.obj
 0001:0001eda4       ?index@MARKS_CLASS@@QAEF_WF@Z 0041fda4 f   v5subs:marks.obj
 0001:0001ede6       ?load@MARKS_CLASS@@QAEEAAVSTRING_CLASS@@00@Z 0041fde6 f   v5subs:marks.obj
 0001:0001f0fe       ?new_index@MARKS_CLASS@@AAEF_WF@Z 004200fe f   v5subs:marks.obj
 0001:0001f257       ?remove@MARKS_CLASS@@QAEXF@Z 00420257 f   v5subs:marks.obj
 0001:0001f29e       ?save@MARKS_CLASS@@QAEEXZ  0042029e f   v5subs:marks.obj
 0001:0001f442       ?set_defaults@MARKS_CLASS@@AAEXF@Z 00420442 f   v5subs:marks.obj
 0001:0001f50a       ??0FILE_CLASS@@QAE@XZ      0042050a f   v5subs:fileclas.obj
 0001:0001f52e       ?cleanup@FILE_CLASS@@QAEXXZ 0042052e f   v5subs:fileclas.obj
 0001:0001f55c       ?cleanup_memory@FILE_CLASS@@QAEXXZ 0042055c f   v5subs:fileclas.obj
 0001:0001f588       ??1FILE_CLASS@@QAE@XZ      00420588 f   v5subs:fileclas.obj
 0001:0001f588       ?close@FILE_CLASS@@QAEXXZ  00420588 f   v5subs:fileclas.obj
 0001:0001f58d       ?get_file_size@FILE_CLASS@@QAEEAAK@Z 0042058d f   v5subs:fileclas.obj
 0001:0001f5ba       ?make_path@FILE_CLASS@@QAEEPA_W@Z 004205ba f   v5subs:fileclas.obj
 0001:0001f605       ?nof_lines@FILE_CLASS@@QAEHXZ 00420605 f   v5subs:fileclas.obj
 0001:0001f6db       ?open@FILE_CLASS@@QAEEPA_WK@Z 004206db f   v5subs:fileclas.obj
 0001:0001f75e       ?open_for_append@FILE_CLASS@@QAEEPA_W@Z 0042075e f   v5subs:fileclas.obj
 0001:0001f794       ?open_for_read@FILE_CLASS@@QAEEAAVSTRING_CLASS@@@Z 00420794 f   v5subs:fileclas.obj
 0001:0001f7ae       ?open_for_read@FILE_CLASS@@QAEEPA_W@Z 004207ae f   v5subs:fileclas.obj
 0001:0001f7ca       ?open_for_write@FILE_CLASS@@QAEEAAVSTRING_CLASS@@@Z 004207ca f   v5subs:fileclas.obj
 0001:0001f7e4       ?open_for_write@FILE_CLASS@@QAEEPA_W@Z 004207e4 f   v5subs:fileclas.obj
 0001:0001f7fd       ?read_unicode_file@FILE_CLASS@@QAEEAAVSTRING_CLASS@@@Z 004207fd f   v5subs:fileclas.obj
 0001:0001f88a       ?readbinary@FILE_CLASS@@QAEKPAXK@Z 0042088a f   v5subs:fileclas.obj
 0001:0001f8f0       ?readline@FILE_CLASS@@QAEPA_WXZ 004208f0 f   v5subs:fileclas.obj
 0001:0001f9e0       ?setpos@FILE_CLASS@@QAEEJ@Z 004209e0 f   v5subs:fileclas.obj
 0001:0001fa23       ?writeline@FILE_CLASS@@QAEEAAVSTRING_CLASS@@@Z 00420a23 f   v5subs:fileclas.obj
 0001:0001fa3d       ?writeline@FILE_CLASS@@QAEEPA_W@Z 00420a3d f   v5subs:fileclas.obj
 0001:0001fad4       ??0FTANALOG_ENTRY@@QAE@XZ  00420ad4 f   v5subs:ftanalog.obj
 0001:0001fb0e       ??1FTANALOG_ENTRY@@QAE@XZ  00420b0e f   v5subs:ftanalog.obj
 0001:0001fb32       ??4FTANALOG_ENTRY@@QAEAAU0@ABU0@@Z 00420b32 f i v5subs:ftanalog.obj
 0001:0001fc84       ?init@FTANALOG_CLASS@@QAEXF@Z 00420c84 f   v5subs:ftanalog.obj
 0001:0001fce6       ?load@FTANALOG_CLASS@@QAEEAAVSTRING_CLASS@@00@Z 00420ce6 f   v5subs:ftanalog.obj
 0001:000200ea       ?remove@FTANALOG_CLASS@@QAEEF@Z 004210ea f   v5subs:ftanalog.obj
 0001:00020130       ?save@FTANALOG_CLASS@@QAEEAAVSTRING_CLASS@@00@Z 00421130 f   v5subs:ftanalog.obj
 0001:00020331       ??0FTCALC_CLASS@@QAE@XZ    00421331 f   v5subs:ftcalc.obj
 0001:00020378       ?cleanup@FTCALC_CLASS@@QAEXXZ 00421378 f   v5subs:ftcalc.obj
 0001:0002038f       ?load@FTCALC_CLASS@@QAEEAAVSTRING_CLASS@@00@Z 0042138f f   v5subs:ftcalc.obj
 0001:000204ab       ?remove@FTCALC_CLASS@@QAEEH@Z 004214ab f   v5subs:ftcalc.obj
 0001:00020540       ?save@FTCALC_CLASS@@QAEEAAVSTRING_CLASS@@00@Z 00421540 f   v5subs:ftcalc.obj
 0001:000205f1       ??0SURETRAK_PARAM_CLASS@@QAE@XZ 004215f1 f   v5subs:stparam.obj
 0001:00020637       ?find@SURETRAK_PARAM_CLASS@@QAEEAAVSTRING_CLASS@@0@Z 00421637 f   v5subs:stparam.obj
 0001:0002072d       ??0PRESSURE_CONTROL_CLASS@@QAE@XZ 0042172d f   v5subs:stpres.obj
 0001:00020792       ??0PRES_CONTROL_STEP_ENTRY@@QAE@XZ 00421792 f i v5subs:stpres.obj
 0001:000207ae       ??1PRESSURE_CONTROL_CLASS@@QAE@XZ 004217ae f   v5subs:stpres.obj
 0001:0002080c       ??1PRES_CONTROL_STEP_ENTRY@@QAE@XZ 0042180c f i v5subs:stpres.obj
 0001:00020827       ?find@PRESSURE_CONTROL_CLASS@@QAEEAAVSTRING_CLASS@@00@Z 00421827 f   v5subs:stpres.obj
 0001:00020ad2       ?init@PRESSURE_CONTROL_CLASS@@QAEXXZ 00421ad2 f   v5subs:stpres.obj
 0001:00020b5d       ?save@PRESSURE_CONTROL_CLASS@@QAEEAAVSTRING_CLASS@@00@Z 00421b5d f   v5subs:stpres.obj
 0001:00020e0f       ??0STRINGTABLE_CLASS@@QAE@XZ 00421e0f f   v5subs:stringtable.obj
 0001:00020e27       ??1STRINGTABLE_CLASS@@QAE@XZ 00421e27 f   v5subs:stringtable.obj
 0001:00020e51       ?append@STRINGTABLE_CLASS@@QAE_NAAVSTRING_CLASS@@PA_W@Z 00421e51 f   v5subs:stringtable.obj
 0001:00020e63       ?find@STRINGTABLE_CLASS@@QAEPA_WPA_W@Z 00421e63 f   v5subs:stringtable.obj
 0001:00020eb7       ?find@STRINGTABLE_CLASS@@QAE_NAAVSTRING_CLASS@@0@Z 00421eb7 f   v5subs:stringtable.obj
 0001:00020ed7       ?find@STRINGTABLE_CLASS@@QAE_NAAVSTRING_CLASS@@PA_W@Z 00421ed7 f   v5subs:stringtable.obj
 0001:00020ee9       ?find@STRINGTABLE_CLASS@@QAE_NAAVSTRING_CLASS@@PA_W_N@Z 00421ee9 f   v5subs:stringtable.obj
 0001:00020f99       ?set_language@STRINGTABLE_CLASS@@QAEXAAVSTRING_CLASS@@@Z 00421f99 f   v5subs:stringtable.obj
 0001:00021080       ??0SURETRAK_SETUP_CLASS@@QAE@XZ 00422080 f   v5subs:stsetup.obj
 0001:000210a6       ??1SURETRAK_SETUP_CLASS@@QAE@XZ 004220a6 f   v5subs:stsetup.obj
 0001:000210b1       ?accel_value@SURETRAK_SETUP_CLASS@@QAENXZ 004220b1 f   v5subs:stsetup.obj
 0001:000210c2       ?append@SURETRAK_SETUP_CLASS@@QAEEXZ 004220c2 f   v5subs:stsetup.obj
 0001:000210db       ?clear_steps@SURETRAK_SETUP_CLASS@@QAEXXZ 004220db f   v5subs:stsetup.obj
 0001:00021109       ?empty@SURETRAK_SETUP_CLASS@@QAEXXZ 00422109 f   v5subs:stsetup.obj
 0001:00021190       ?end_pos_value@SURETRAK_SETUP_CLASS@@QAENXZ 00422190 f   v5subs:stsetup.obj
 0001:000211a1       ?find@SURETRAK_SETUP_CLASS@@QAEEAAVSTRING_CLASS@@00@Z 004221a1 f   v5subs:stsetup.obj
 0001:000213f0       ?gain_break_gain@SURETRAK_SETUP_CLASS@@QAEAAVSTRING_CLASS@@H@Z 004223f0 f   v5subs:stsetup.obj
 0001:00021412       ?gain_break_gain_value@SURETRAK_SETUP_CLASS@@QAENH@Z 00422412 f   v5subs:stsetup.obj
 0001:00021438       ?gain_break_velocity@SURETRAK_SETUP_CLASS@@QAEAAVSTRING_CLASS@@H@Z 00422438 f   v5subs:stsetup.obj
 0001:00021452       ?gain_break_velocity_value@SURETRAK_SETUP_CLASS@@QAENH@Z 00422452 f   v5subs:stsetup.obj
 0001:00021476       ?gotostep@SURETRAK_SETUP_CLASS@@QAEEH@Z 00422476 f   v5subs:stsetup.obj
 0001:000214c4       ?low_impact_value@SURETRAK_SETUP_CLASS@@QAENXZ 004224c4 f   v5subs:stsetup.obj
 0001:000214d5       ?next@SURETRAK_SETUP_CLASS@@QAEEXZ 004224d5 f   v5subs:stsetup.obj
 0001:000214fc       ?save@SURETRAK_SETUP_CLASS@@QAEEAAVSTRING_CLASS@@00@Z 004224fc f   v5subs:stsetup.obj
 0001:0002168f       ?set_accel@SURETRAK_SETUP_CLASS@@QAEXPA_W@Z 0042268f f   v5subs:stsetup.obj
 0001:000216bc       ?set_gain_break_gain@SURETRAK_SETUP_CLASS@@QAEXHAAVSTRING_CLASS@@@Z 004226bc f   v5subs:stsetup.obj
 0001:000216e2       ?set_gain_break_velocity@SURETRAK_SETUP_CLASS@@QAEXHAAVSTRING_CLASS@@@Z 004226e2 f   v5subs:stsetup.obj
 0001:00021706       ?set_vel@SURETRAK_SETUP_CLASS@@QAEXPA_W@Z 00422706 f   v5subs:stsetup.obj
 0001:00021733       ?vel_value@SURETRAK_SETUP_CLASS@@QAENXZ 00422733 f   v5subs:stsetup.obj
 0001:00021744       ??ZTIME_CLASS@@QAEXK@Z     00422744 f   v5subs:timeclas.obj
 0001:0002175a       ?dd@TIME_CLASS@@QAEPA_WXZ  0042275a f   v5subs:timeclas.obj
 0001:00021769       ?get@TIME_CLASS@@QAEEAAU_SYSTEMTIME@@@Z 00422769 f   v5subs:timeclas.obj
 0001:00021864       ?get_local_time@TIME_CLASS@@QAEXXZ 00422864 f   v5subs:timeclas.obj
 0001:0002189b       ?hh@TIME_CLASS@@QAEPA_WXZ  0042289b f   v5subs:timeclas.obj
 0001:000218a7       ?hhmmss@TIME_CLASS@@QAEPA_WXZ 004228a7 f   v5subs:timeclas.obj
 0001:00021914       ?jjj@TIME_CLASS@@QAEPA_WXZ 00422914 f   v5subs:timeclas.obj
 0001:000219ad       ?mm@TIME_CLASS@@QAEPA_WXZ  004229ad f   v5subs:timeclas.obj
 0001:000219b9       ?mmddyyyy@TIME_CLASS@@QAEPA_WXZ 004229b9 f   v5subs:timeclas.obj
 0001:00021a02       ?set@TIME_CLASS@@QAEEABU_SYSTEMTIME@@@Z 00422a02 f   v5subs:timeclas.obj
 0001:00021aa3       ?system_time@TIME_CLASS@@QAEAAU_SYSTEMTIME@@XZ 00422aa3 f   v5subs:timeclas.obj
 0001:00021ab3       ?yy@TIME_CLASS@@QAEPA_WXZ  00422ab3 f   v5subs:timeclas.obj
 0001:00021ac2       ?exists@PLOOKUP_CLASS@@QAEEXZ 00422ac2 f   v5subs:plookup.obj
 0001:00021aca       ?get@PLOOKUP_CLASS@@QAEHXZ 00422aca f   v5subs:plookup.obj
 0001:00021c01       ?get_last_shot_number@PLOOKUP_CLASS@@QAEHAAVSTRING_CLASS@@00@Z 00422c01 f   v5subs:plookup.obj
 0001:00021c40       ?init@PLOOKUP_CLASS@@QAEEAAVSTRING_CLASS@@00@Z 00422c40 f   v5subs:plookup.obj
 0001:00021c5c       ?put@PLOOKUP_CLASS@@QAEEXZ 00422c5c f   v5subs:plookup.obj
 0001:00021d7a       ??0PLOT_CLASS@@QAE@XZ      00422d7a f   v5subs:plotclas.obj
 0001:00021dda       ??1PLOT_CLASS@@QAE@XZ      00422dda f   v5subs:plotclas.obj
 0001:00021e09       ?add_axis@PLOT_CLASS@@QAEEJJMMK@Z 00422e09 f   v5subs:plotclas.obj
 0001:00021eca       ?add_curve@PLOT_CLASS@@QAEEJJJPAUFLOAT_POINT@@@Z 00422eca f   v5subs:plotclas.obj
 0001:00021f96       ?add_label@PLOT_CLASS@@QAEEJPA_WK@Z 00422f96 f   v5subs:plotclas.obj
 0001:0002200f       ?cleanup@PLOT_CLASS@@QAEXXZ 0042300f f   v5subs:plotclas.obj
 0001:00022026       ?draw_axes@PLOT_CLASS@@QAEXXZ 00423026 f   v5subs:plotclas.obj
 0001:0002210c       ?draw_curves@PLOT_CLASS@@QAEXXZ 0042310c f   v5subs:plotclas.obj
 0001:000222b3       ?draw_x_tics@PLOT_CLASS@@AAEXXZ 004232b3 f   v5subs:plotclas.obj
 0001:00022425       ?draw_y_tics@PLOT_CLASS@@AAEXXZ 00423425 f   v5subs:plotclas.obj
 0001:0002259a       ?empty_axes@PLOT_CLASS@@QAEXXZ 0042359a f   v5subs:plotclas.obj
 0001:000225c1       ?empty_curves@PLOT_CLASS@@QAEXXZ 004235c1 f   v5subs:plotclas.obj
 0001:000225fb       ?empty_labels@PLOT_CLASS@@QAEXXZ 004235fb f   v5subs:plotclas.obj
 0001:0002263a       ?findaxis@PLOT_CLASS@@QAEPAUAXIS_ENTRY@@J@Z 0042363a f   v5subs:plotclas.obj
 0001:0002266b       ?get_pixel_equation@PLOT_CLASS@@QAEEAAM0J@Z 0042366b f   v5subs:plotclas.obj
 0001:000226c9       ?paint@PLOT_CLASS@@QAEXPAUHDC__@@@Z 004236c9 f   v5subs:plotclas.obj
 0001:00022718       ?set_decimal_places@PLOT_CLASS@@QAEXJJ@Z 00423718 f   v5subs:plotclas.obj
 0001:0002272f       ?set_tic_count@PLOT_CLASS@@QAEXJJ@Z 0042372f f   v5subs:plotclas.obj
 0001:00022746       ?show_labels@PLOT_CLASS@@QAEXXZ 00423746 f   v5subs:plotclas.obj
 0001:000227ed       ?size@PLOT_CLASS@@QAEXPAUHWND__@@@Z 004237ed f   v5subs:plotclas.obj
 0001:0002283b       ?size@PLOT_CLASS@@QAEXPAUHWND__@@UtagRECT@@@Z 0042383b f   v5subs:plotclas.obj
 0001:00022ab4       ?widest_char@PLOT_CLASS@@AAEJPA_W@Z 00423ab4 f   v5subs:plotclas.obj
 0001:00022af3       ??0RECTANGLE_CLASS@@QAE@JJJJ@Z 00423af3 f   v5subs:rectclas.obj
 0001:00022b13       ??0RECTANGLE_CLASS@@QAE@XZ 00423b13 f   v5subs:rectclas.obj
 0001:00022b23       ??4RECTANGLE_CLASS@@QAEXABV0@@Z 00423b23 f   v5subs:rectclas.obj
 0001:00022b40       ?contains@RECTANGLE_CLASS@@QAEEABUtagPOINT@@@Z 00423b40 f   v5subs:rectclas.obj
 0001:00022b65       ?fill@RECTANGLE_CLASS@@QAEXPAUHDC__@@K@Z 00423b65 f   v5subs:rectclas.obj
 0001:00022ba7       ?offset@RECTANGLE_CLASS@@QAEXJJ@Z 00423ba7 f   v5subs:rectclas.obj
 0001:00022bbd       ?setsize@RECTANGLE_CLASS@@QAEXUtagSIZE@@@Z 00423bbd f   v5subs:rectclas.obj
 0001:00022bd3       ?adjust_for_units@@YAMFMF@Z 00423bd3 f   v5subs:unitadj.obj
 0001:00022bfb       ?adjust_for_units@@YANFNF@Z 00423bfb f   v5subs:unitadj.obj
 0001:00023137       ?dups_to_vu@@YANFF@Z       00424137 f   v5subs:unitadj.obj
 0001:000231ae       ?boolean_from_ini@@YAEPB_W00@Z 004241ae f   v5subs:get_ini.obj
 0001:000231d0       ?get_ini_string@@YAPA_WPB_W00@Z 004241d0 f   v5subs:get_ini.obj
 0001:000231f6       ?get_long_ini_string@@YAPA_WPB_W00@Z 004241f6 f   v5subs:get_ini.obj
 0001:0002326b       ?put_ini_string@@YAXPB_W000@Z 0042426b f   v5subs:get_ini.obj
 0001:000232de       ??_ECHOOSE_WIRE_CLASS@@UAEPAXI@Z 004242de f i v5subs:choose_wire.obj
 0001:000232de       ??_GCHOOSE_WIRE_CLASS@@UAEPAXI@Z 004242de f i v5subs:choose_wire.obj
 0001:0002354f       ?check_wire@@YAEPAUHWND__@@@Z 0042454f f   v5subs:choose_wire.obj
 0001:000235fa       ?choose_wire@@YAEPAUHWND__@@0HHPAVMACHINE_CLASS@@PAVPART_CLASS@@PAVPARAMETER_CLASS@@PAVLIMIT_SWITCH_CLASS@@@Z 004245fa f   v5subs:choose_wire.obj
 0001:00023936       ?choose_wire_dialog_proc@@YGHPAUHWND__@@IIJ@Z 00424936 f   v5subs:choose_wire.obj
 0001:00023a9e       ?choose_wire_proc@@YGJPAUHWND__@@IIJ@Z 00424a9e f   v5subs:choose_wire.obj
 0001:00023c54       ?create_all_purpose_palette@@YAXPAUHWND__@@@Z 00424c54 f   v5subs:choose_wire.obj
 0001:00023ea8       ?ft_output_wire_dialog_proc@@YGHPAUHWND__@@IIJ@Z 00424ea8 f   v5subs:choose_wire.obj
 0001:00024626       ?register_choose_wire_control@@YAXXZ 00425626 f   v5subs:choose_wire.obj
 0001:00024a2a       ?wire_number@CHOOSE_WIRE_CLASS@@QAEHXZ 00425a2a f   v5subs:choose_wire.obj
 0001:00024a3f       ?char_to_tchar@@YAXPA_WPADH@Z 00425a3f f   v5subs:mem.obj
 0001:00024a92       ?charlen@@YAFPB_WF@Z       00425a92 f   v5subs:mem.obj
 0001:00024ab9       ?compare@@YAFPB_W0F@Z      00425ab9 f   v5subs:mem.obj
 0001:00024b21       ?copy_w_char@@YAPA_WPA_W0_W@Z 00425b21 f   v5subs:mem.obj
 0001:00024b3c       ?copychars@@YAXPA_WPB_WF@Z 00425b3c f   v5subs:mem.obj
 0001:00024b62       ?copyfromstr@@YAXPA_WPB_WF@Z 00425b62 f   v5subs:mem.obj
 0001:00024ba5       ?copystring@@YAPA_WPA_WPB_W@Z 00425ba5 f   v5subs:mem.obj
 0001:00024be8       ?copystring@@YAPA_WPA_WPB_WH@Z 00425be8 f   v5subs:mem.obj
 0001:00024c36       ?countchars@@YAJ_WPB_W@Z   00425c36 f   v5subs:mem.obj
 0001:00024c54       ?fillchars@@YAXPA_W_WF@Z   00425c54 f   v5subs:mem.obj
 0001:00024c7f       ?findchar@@YAPB_W_WPB_W@Z  00425c7f f   v5subs:mem.obj
 0001:00024c7f       ?findchar@@YAPA_W_WPA_W@Z  00425c7f f   v5subs:mem.obj
 0001:00024c9a       ?findchar@@YAPA_W_WPA_WF@Z 00425c9a f   v5subs:mem.obj
 0001:00024cc5       ?findstring@@YAPA_WPB_WPA_W@Z 00425cc5 f   v5subs:mem.obj
 0001:00024d43       ?maketext@@YAPA_WJ@Z       00425d43 f   v5subs:mem.obj
 0001:00024d6c       ?maketext@@YAPA_WPB_W@Z    00425d6c f   v5subs:mem.obj
 0001:00024d7a       ?maketext@@YAPA_WPB_WJ@Z   00425d7a f   v5subs:mem.obj
 0001:00024dad       ?move_string_forward@@YAXPA_WH@Z 00425dad f   v5subs:mem.obj
 0001:00024de3       ?nextstring@@YAPA_WPA_W@Z  00425de3 f   v5subs:mem.obj
 0001:00024df7       ?remove_char@@YAXPA_W@Z    00425df7 f   v5subs:mem.obj
 0001:00024e1d       ?replace_char_with_null@@YAEPA_WPB_W@Z 00425e1d f   v5subs:mem.obj
 0001:00024e69       ?replace_char_with_null@@YAEPA_W_W@Z 00425e69 f   v5subs:mem.obj
 0001:00024e98       ?replace_tab_with_null@@YAEPA_W@Z 00425e98 f   v5subs:mem.obj
 0001:00024eac       ?start_chars_are_equal@@YA_NPB_W0@Z 00425eac f   v5subs:mem.obj
 0001:00024ee2       ?strings_are_equal@@YAEPB_W0@Z 00425ee2 f   v5subs:mem.obj
 0001:00024f17       ?strings_are_equal@@YAEPB_W0F@Z 00425f17 f   v5subs:mem.obj
 0001:00024f33       ?strip@@YAXPA_W@Z          00425f33 f   v5subs:mem.obj
 0001:00024f64       ?trim@@YAXPA_W@Z           00425f64 f   v5subs:mem.obj
 0001:00024f96       ?upper_case@@YAXAA_W@Z     00425f96 f   v5subs:mem.obj
 0001:00024fba       ?upper_case@@YAXPA_W@Z     00425fba f   v5subs:mem.obj
 0001:00024feb       ?utoi@@YAHI@Z              00425feb f   v5subs:mem.obj
 0001:00024ff0       ?current_part_name@@YAEAAVSTRING_CLASS@@00@Z 00425ff0 f   v5subs:current.obj
 0001:0002507a       ?set_current_part_name@@YAEAAVSTRING_CLASS@@00@Z 0042607a f   v5subs:current.obj
 0001:00025107       ??0EVENT_ENTRY@@QAE@XZ     00426107 f i v5subs:client.obj
 0001:0002511e       ??_GEVENT_ENTRY@@QAEPAXI@Z 0042611e f i v5subs:client.obj
 0001:00025144       ?client_dde_shutdown@@YAXXZ 00426144 f   v5subs:client.obj
 0001:00025200       ?client_dde_startup@@YAXPAUHWND__@@@Z 00426200 f   v5subs:client.obj
 0001:00025222       ?client_dde_startup@@YAXXZ 00426222 f   v5subs:client.obj
 0001:000252b6       ?connect_to_server@@YAPAUHCONV__@@PA_W@Z 004262b6 f   v5subs:client.obj
 0001:00025319       ?connect_to_server@@YAXXZ  00426319 f   v5subs:client.obj
 0001:00025381       ?dde_callback@@YGPAUHDDEDATA__@@IIPAUHCONV__@@PAUHSZ__@@1PAU1@KK@Z 00426381 f   v5subs:client.obj
 0001:0002547f       ?find_conversation@@YAPAUEVENT_ENTRY@@PAUHCONV__@@@Z 0042647f f   v5subs:client.obj
 0001:0002551a       ?get_current_password_level@@YAXXZ 0042651a f   v5subs:client.obj
 0001:0002555f       ?hot_links@@YAXPAUEVENT_ENTRY@@I@Z 0042655f f   v5subs:client.obj
 0001:00025598       ?one_hot_link@@YAXPAUHCONV__@@FI@Z 00426598 f   v5subs:client.obj
 0001:000255ff       ?poke_data@@YAXPA_W00@Z    004265ff f   v5subs:client.obj
 0001:000256fa       ?register_for_event@@YAXPA_WFP6AX0FPAUHDDEDATA__@@@Z@Z 004266fa f   v5subs:client.obj
 0001:000257cd       ?unregister_for_event@@YAXPA_WF@Z 004267cd f   v5subs:client.obj
 0001:00025852       ?append_backslash_to_path@@YAXPA_W@Z 00426852 f   v5subs:path.obj
 0001:00025881       ?append_filename_to_path@@YAXPA_WPB_W@Z 00426881 f   v5subs:path.obj
 0001:0002589a       ?catpath@@YAPA_WPA_WPB_W@Z 0042689a f   v5subs:path.obj
 0001:000258f5       ?create_directory@@YAEPA_W@Z 004268f5 f   v5subs:path.obj
 0001:00025a45       ?dir_from_command_line@@YAEPA_W@Z 00426a45 f   v5subs:path.obj
 0001:00025a6f       ?dir_from_filename@@YAEPA_W@Z 00426a6f f   v5subs:path.obj
 0001:00025ac1       ?execute@@YAEPA_W@Z        00426ac1 f   v5subs:path.obj
 0001:00025aed       ?remove_backslash_from_path@@YAXPA_W@Z 00426aed f   v5subs:path.obj
 0001:00025b1d       ?get_startup_part@@YAEAAVSTRING_CLASS@@0@Z 00426b1d f   v5subs:startpar.obj
 0001:00025be8       ?fix_dde_name@@YAXPA_W@Z   00426be8 f   v5subs:fix.obj
 0001:00025c17       ?highest_password_level@@YAFXZ 00426c17 f   v5subs:pw.obj
 0001:00025cc7       ?log_file_string@@YAEAAVSTRING_CLASS@@PA_W1000@Z 00426cc7 f   v5subs:log_file_string.obj
 0001:00025dee       ?part_exists@@YAEAAVSTRING_CLASS@@00@Z 00426dee f   v5subs:pexists.obj
 0001:00025e37       ?maxfloat@@YAXAAMM@Z       00426e37 f   v5subs:maximize.obj
 0001:00025e4b       ?is_empty@@YAEPB_W@Z       00426e4b f   v5subs:is_empty.obj
 0001:00025e6c       ?is_float_zero@@YAEM@Z     00426e6c f   v5subs:zero.obj
 0001:00025e9c       ?is_zero@@YA_NN@Z          00426e9c f   v5subs:zero.obj
 0001:00025ec0       ?not_float_zero@@YAEM@Z    00426ec0 f   v5subs:zero.obj
 0001:00025ef0       ?not_zero@@YA_NN@Z         00426ef0 f   v5subs:zero.obj
 0001:00025f13       ?ascii_to_bool@@YA_NPA_W@Z 00426f13 f   v5subs:misc.obj
 0001:00025f32       ?boolean_to_ascii@@YAPA_WE@Z 00426f32 f   v5subs:misc.obj
 0001:00025f45       ?mask_from_wire@@YAII@Z    00426f45 f   v5subs:misc.obj
 0001:00025f54       ?round@@YANNN@Z            00426f54 f   v5subs:misc.obj
 0001:00025f98       ?unknown@@YAEPA_W@Z        00426f98 f   v5subs:misc.obj
 0001:00025fae       ?unknown_string@@YAPA_WXZ  00426fae f   v5subs:misc.obj
 0001:00025fb4       ?wire_from_mask@@YAII@Z    00426fb4 f   v5subs:misc.obj
 0001:00025fc9       ??0SHOT_NAME_CLASS@@QAE@XZ 00426fc9 f   v5subs:shot_name.obj
 0001:00025fc9       ??0SHOT_NAME_RESET_CLASS@@QAE@XZ 00426fc9 f   v5subs:shot_name_reset.obj
 0001:00025fc9       ??0PLOOKUP_CLASS@@QAE@XZ   00426fc9 f   v5subs:plookup.obj
 0001:00025fc9       ??0EXTERNAL_SHOT_NAME_CLASS@@QAE@XZ 00426fc9 f   v5subs:shot_name.obj
 0001:00025fdd       ??1SHOT_NAME_RESET_CLASS@@QAE@XZ 00426fdd f   v5subs:shot_name_reset.obj
 0001:00025fdd       ??1SHOT_NAME_CLASS@@QAE@XZ 00426fdd f   v5subs:shot_name.obj
 0001:00025fdd       ??1EXTERNAL_SHOT_NAME_CLASS@@QAE@XZ 00426fdd f   v5subs:shot_name.obj
 0001:00025fdd       ??1PLOOKUP_CLASS@@QAE@XZ   00426fdd f   v5subs:plookup.obj
 0001:00026042       ?get@EXTERNAL_SHOT_NAME_CLASS@@QAEHAAVSTRING_CLASS@@00@Z 00427042 f   v5subs:shot_name.obj
 0001:00026071       ?get@EXTERNAL_SHOT_NAME_CLASS@@QAEHXZ 00427071 f   v5subs:shot_name.obj
 0001:000262a4       ?get@SHOT_NAME_CLASS@@QAEHXZ 004272a4 f   v5subs:shot_name.obj
 0001:000262c1       ?get_shot_name_template@SHOT_NAME_CLASS@@QAEEAAVSTRING_CLASS@@@Z 004272c1 f   v5subs:shot_name.obj
 0001:000262e1       ?init@EXTERNAL_SHOT_NAME_CLASS@@QAEEAAVSTRING_CLASS@@00@Z 004272e1 f   v5subs:shot_name.obj
 0001:000262fd       ?init@SHOT_NAME_CLASS@@QAEEAAVSTRING_CLASS@@00@Z 004272fd f   v5subs:shot_name.obj
 0001:00026319       ?is_enabled@EXTERNAL_SHOT_NAME_CLASS@@QAEEXZ 00427319 f   v5subs:shot_name.obj
 0001:00026330       ?put@EXTERNAL_SHOT_NAME_CLASS@@QAEEXZ 00427330 f   v5subs:shot_name.obj
 0001:0002634b       ?put@SHOT_NAME_CLASS@@QAEEXZ 0042734b f   v5subs:shot_name.obj
 0001:00026366       ?set_defaults@EXTERNAL_SHOT_NAME_CLASS@@QAEXXZ 00427366 f   v5subs:shot_name.obj
 0001:00026412       ?set_defaults@SHOT_NAME_CLASS@@QAEXXZ 00427412 f   v5subs:shot_name.obj
 0001:000264be       ?set_enable@EXTERNAL_SHOT_NAME_CLASS@@QAEEE@Z 004274be f   v5subs:shot_name.obj
 0001:000264df       ?set_shot_name_length@SHOT_NAME_CLASS@@QAEEAAVSTRING_CLASS@@@Z 004274df f   v5subs:shot_name.obj
 0001:00026500       ?set_shot_name_template@SHOT_NAME_CLASS@@QAEEAAVSTRING_CLASS@@@Z 00427500 f   v5subs:shot_name.obj
 0001:00026521       ?shot_name@@YAEAAVSTRING_CLASS@@AAUPART_NAME_ENTRY@@H@Z 00427521 f   v5subs:shot_name.obj
 0001:0002654a       ?shot_name@@YAEAAVSTRING_CLASS@@AAUPART_NAME_ENTRY@@HAAVTIME_CLASS@@@Z 0042754a f   v5subs:shot_name.obj
 0001:00026b05       ?shot_name_length@SHOT_NAME_CLASS@@QAEHXZ 00427b05 f   v5subs:shot_name.obj
 0001:00026b2b       ??0UNITS_CLASS@@QAE@XZ     00427b2b f   v5subs:units.obj
 0001:00026b35       ??1PARAM_INDEX_CLASS@@QAE@XZ 00427b35 f   v5subs:param_index_class.obj
 0001:00026b35       ??1ANALOG_SENSOR@@QAE@XZ   00427b35 f   v5subs:asensor.obj
 0001:00026b35       ??1SURETRAK_PARAM_CLASS@@QAE@XZ 00427b35 f   v5subs:stparam.obj
 0001:00026b35       ??1RECTANGLE_CLASS@@QAE@XZ 00427b35 f   v5subs:rectclas.obj
 0001:00026b35       ??1FONT_CLASS@@QAE@XZ      00427b35 f   v5subs:fontclas.obj
 0001:00026b35       ??1UNITS_CLASS@@QAE@XZ     00427b35 f   v5subs:units.obj
 0001:00026b35       ??1SOURCE_DATA@@QAE@XZ     00427b35 f   v5subs:ftcalc.obj
 0001:00026b36       ?count@UNITS_CLASS@@QAEHXZ 00427b36 f   v5subs:units.obj
 0001:00026b3e       ?id@UNITS_CLASS@@QAEFXZ    00427b3e f   v5subs:units.obj
 0001:00026b58       ?name@UNITS_CLASS@@QAEPA_WXZ 00427b58 f   v5subs:units.obj
 0001:00026b76       ?next@UNITS_CLASS@@QAE_NXZ 00427b76 f   v5subs:units.obj
 0001:00026ba6       ?type@UNITS_CLASS@@QAEGXZ  00427ba6 f   v5subs:units.obj
 0001:00026bc1       ?units_id@@YAFPA_W@Z       00427bc1 f   v5subs:units.obj
 0001:00026c50       ?units_name@@YAPA_WF@Z     00427c50 f   v5subs:units.obj
 0001:00026c77       ?units_shutdown@@YAXXZ     00427c77 f   v5subs:units.obj
 0001:00026c8f       ?units_startup@@YAEXZ      00427c8f f   v5subs:units.obj
 0001:00026eeb       ?copypart@@YAEAAVSTRING_CLASS@@00000I@Z 00427eeb f   v5subs:copypart.obj
 0001:000285e3       ?average_character_width@@YAJPAUHDC__@@@Z 004295e3 f   v5subs:winsubs.obj
 0001:00028612       ?character_height@@YAJPAUHDC__@@@Z 00429612 f   v5subs:winsubs.obj
 0001:00028641       ?create_font@@YAPAUHFONT__@@PAUHDC__@@JJPA_W@Z 00429641 f   v5subs:winsubs.obj
 0001:000286d7       ?eb_select_all@@YAXPAUHWND__@@@Z 004296d7 f   v5subs:winsubs.obj
 0001:000286eb       ?get_double_from_ebox@@YANPAUHWND__@@@Z 004296eb f   v5subs:winsubs.obj
 0001:00028742       ?get_double_from_ebox@@YANPAUHWND__@@H@Z 00429742 f   v5subs:winsubs.obj
 0001:00028758       ?get_int_from_ebox@@YAHPAUHWND__@@@Z 00429758 f   v5subs:winsubs.obj
 0001:0002879e       ?get_int_from_ebox@@YAHPAUHWND__@@H@Z 0042979e f   v5subs:winsubs.obj
 0001:000287b4       ?get_text@@YAEPA_WPAUHWND__@@H@Z 004297b4 f   v5subs:winsubs.obj
 0001:000287dd       ?get_text@@YAEPA_WPAUHWND__@@HH@Z 004297dd f   v5subs:winsubs.obj
 0001:000287fd       ?is_a_listbox@@YAEPAUHWND__@@@Z 004297fd f   v5subs:winsubs.obj
 0001:0002886b       ?is_checked@@YAEPAUHWND__@@@Z 0042986b f   v5subs:winsubs.obj
 0001:00028886       ?is_checked@@YAEPAUHWND__@@H@Z 00429886 f   v5subs:winsubs.obj
 0001:0002889c       ?limit_text@@YAXPAUHWND__@@H@Z 0042989c f   v5subs:winsubs.obj
 0001:000288b2       ?limit_text@@YAXPAUHWND__@@HH@Z 004298b2 f   v5subs:winsubs.obj
 0001:000288cd       ?pixel_width@@YAJPAUHDC__@@PA_W@Z 004298cd f   v5subs:winsubs.obj
 0001:000288f3       ?pixel_width@@YAJPAUHDC__@@PA_WJ@Z 004298f3 f   v5subs:winsubs.obj
 0001:00028912       ?resource_string@@YAPA_WPAUHINSTANCE__@@I@Z 00429912 f   v5subs:winsubs.obj
 0001:00028940       ?set_checkbox@@YAXPAUHWND__@@E@Z 00429940 f   v5subs:winsubs.obj
 0001:0002895c       ?set_checkbox@@YAXPAUHWND__@@HE@Z 0042995c f   v5subs:winsubs.obj
 0001:00028977       ?set_current_lb_item@@YAEPAUHWND__@@HPA_W@Z 00429977 f   v5subs:winsubs.obj
 0001:00028992       ?set_current_lb_item@@YAEPAUHWND__@@PA_W@Z 00429992 f   v5subs:winsubs.obj
 0001:000289c4       ?set_int_in_ebox@@YAXPAUHWND__@@H@Z 004299c4 f   v5subs:winsubs.obj
 0001:000289f3       ?set_int_in_ebox@@YAXPAUHWND__@@HH@Z 004299f3 f   v5subs:winsubs.obj
 0001:00028a0e       ?set_listbox_tabs_from_title_positions@@YAXPAUHWND__@@IPAHH@Z 00429a0e f   v5subs:winsubs.obj
 0001:00028b26       ?set_text@@YAEPAUHWND__@@HPB_W@Z 00429b26 f   v5subs:winsubs.obj
 0001:00028b41       ?set_text@@YAEPAUHWND__@@PB_W@Z 00429b41 f   v5subs:winsubs.obj
 0001:00028b6a       ?show_window@@YAXPAUHWND__@@E@Z 00429b6a f   v5subs:winsubs.obj
 0001:00028b82       ?show_window@@YAXPAUHWND__@@HE@Z 00429b82 f   v5subs:winsubs.obj
 0001:00028ba5       ?shrinkwrap@@YAXPAUHWND__@@0@Z 00429ba5 f   v5subs:winsubs.obj
 0001:00028c3b       ?hourglass_cursor@@YAXXZ   00429c3b f   v5subs:hourglas.obj
 0001:00028c68       ?restore_cursor@@YAXXZ     00429c68 f   v5subs:hourglas.obj
 0001:00028e4c       ?register_temp_message@@YAXXZ 00429e4c f   v5subs:temp_message.obj
 0001:00028eb2       ?temp_message@@YAXPA_W@Z   00429eb2 f   v5subs:temp_message.obj
 0001:00028ec3       ?temp_message@@YAXPA_WH@Z  00429ec3 f   v5subs:temp_message.obj
 0001:00028f7b       ?temp_message_proc@@YGJPAUHWND__@@IIJ@Z 00429f7b f   v5subs:temp_message.obj
 0001:00029042       ?get@SHOT_NAME_RESET_CLASS@@QAEHXZ 0042a042 f   v5subs:shot_name_reset.obj
 0001:0002905f       ?init@SHOT_NAME_RESET_CLASS@@QAEEAAVSTRING_CLASS@@00@Z 0042a05f f   v5subs:shot_name_reset.obj
 0001:0002907b       ?is_enabled@SHOT_NAME_RESET_CLASS@@QAEEXZ 0042a07b f   v5subs:shot_name_reset.obj
 0001:00029092       ?purge_on_reset@SHOT_NAME_RESET_CLASS@@QAEEXZ 0042a092 f   v5subs:shot_name_reset.obj
 0001:000290a9       ?put@SHOT_NAME_RESET_CLASS@@QAEEXZ 0042a0a9 f   v5subs:shot_name_reset.obj
 0001:000290c4       ?reset_time@SHOT_NAME_RESET_CLASS@@QAEAAVSTRING_CLASS@@XZ 0042a0c4 f   v5subs:shot_name_reset.obj
 0001:000290d8       ?set_defaults@SHOT_NAME_RESET_CLASS@@QAEXXZ 0042a0d8 f   v5subs:shot_name_reset.obj
 0001:00029184       ?set_enable@SHOT_NAME_RESET_CLASS@@QAEXE@Z 0042a184 f   v5subs:shot_name_reset.obj
 0001:000291aa       ?set_purge_on_reset@SHOT_NAME_RESET_CLASS@@QAEXE@Z 0042a1aa f   v5subs:shot_name_reset.obj
 0001:000291d0       ?set_time@SHOT_NAME_RESET_CLASS@@QAEXAAVSTRING_CLASS@@@Z 0042a1d0 f   v5subs:shot_name_reset.obj
 0001:000291f6       ?check@TEXT_LEN_CLASS@@QAEXPA_W@Z 0042a1f6 f   v5subs:textlen.obj
 0001:00029239       ??0TEXT_LIST_CLASS@@QAE@XZ 0042a239 f   v5subs:textlist.obj
 0001:00029239       ??0MACHINE_NAME_LIST_CLASS@@QAE@XZ 0042a239 f   v5subs:machname.obj
 0001:00029249       ??1TEXT_LIST_CLASS@@QAE@XZ 0042a249 f   v5subs:textlist.obj
 0001:0002925a       ??4TEXT_LIST_CLASS@@QAEXAAV0@@Z 0042a25a f   v5subs:textlist.obj
 0001:000292a5       ?append@TEXT_LIST_CLASS@@QAEEPA_WJ@Z 0042a2a5 f   v5subs:textlist.obj
 0001:0002931c       ?empty@TEXT_LIST_CLASS@@QAEXXZ 0042a31c f   v5subs:textlist.obj
 0001:00029346       ?get_directory_list@TEXT_LIST_CLASS@@QAEXPB_W@Z 0042a346 f   v5subs:textlist.obj
 0001:000293fc       ?remove@TEXT_LIST_CLASS@@QAEEXZ 0042a3fc f   v5subs:textlist.obj
 0001:0002941f       ??0WARMUP_CLASS@@QAE@XZ    0042a41f f   v5subs:warmupcl.obj
 0001:00029439       ?create_runlist@WARMUP_CLASS@@QAEEAAVSTRING_CLASS@@00@Z 0042a439 f   v5subs:warmupcl.obj
 0001:0002965b       ?get@WARMUP_CLASS@@QAEEAAVSTRING_CLASS@@00@Z 0042a65b f   v5subs:warmupcl.obj
 0001:00029737       ?put@WARMUP_CLASS@@QAEEAAVSTRING_CLASS@@00@Z 0042a737 f   v5subs:warmupcl.obj
 0001:00029849       ??1WINDOW_ARRAY_CLASS@@QAE@XZ 0042a849 f   v5subs:wclass.obj
 0001:0002984e       ??_EWINDOW_CLASS@@UAEPAXI@Z 0042a84e f i v5subs:wclass.obj
 0001:0002989c       ?add@WINDOW_ARRAY_CLASS@@QAE_NPAUHWND__@@@Z 0042a89c f   v5subs:wclass.obj
 0001:000298d1       ?contains@WINDOW_ARRAY_CLASS@@QAE_NPAUHWND__@@@Z 0042a8d1 f   v5subs:wclass.obj
 0001:000298f9       ?empty@WINDOW_ARRAY_CLASS@@QAEXXZ 0042a8f9 f   v5subs:wclass.obj
 0001:0002992a       ?enable@WINDOW_CLASS@@QAEXE@Z 0042a92a f   v5subs:wclass.obj
 0001:0002992a       ?enable@WINDOW_CLASS@@QAEX_N@Z 0042a92a f   v5subs:wclass.obj
 0001:00029946       ?get_move_rect@WINDOW_CLASS@@QAEHAAUtagRECT@@@Z 0042a946 f   v5subs:wclass.obj
 0001:000299da       ?getrect@WINDOW_CLASS@@QAEHAAUtagRECT@@@Z 0042a9da f   v5subs:wclass.obj
 0001:000299fb       ?is_enabled@WINDOW_CLASS@@QAEHXZ 0042a9fb f   v5subs:wclass.obj
 0001:00029a0e       ?is_visible@WINDOW_CLASS@@QAEHXZ 0042aa0e f   v5subs:wclass.obj
 0001:00029a21       ?move@WINDOW_CLASS@@QAEXAAUtagRECT@@@Z 0042aa21 f   v5subs:wclass.obj
 0001:00029a4a       ?move@WINDOW_CLASS@@QAEXHHHHH@Z 0042aa4a f   v5subs:wclass.obj
 0001:00029a6f       ?offset@WINDOW_CLASS@@QAEXJJ@Z 0042aa6f f   v5subs:wclass.obj
 0001:00029abd       ?post@WINDOW_CLASS@@QAEXI@Z 0042aabd f   v5subs:wclass.obj
 0001:00029ad7       ?post@WINDOW_CLASS@@QAEXIIJ@Z 0042aad7 f   v5subs:wclass.obj
 0001:00029af5       ?refresh@WINDOW_CLASS@@QAEXXZ 0042aaf5 f   v5subs:wclass.obj
 0001:00029b14       ?remove_all@WINDOW_ARRAY_CLASS@@QAEXXZ 0042ab14 f   v5subs:wclass.obj
 0001:00029b37       ?set_title@WINDOW_CLASS@@QAEXPA_W@Z 0042ab37 f   v5subs:wclass.obj
 0001:00029b58       ?setsize@WINDOW_ARRAY_CLASS@@QAE_NH@Z 0042ab58 f   v5subs:wclass.obj
 0001:00029c2a       ?show@WINDOW_CLASS@@QAEXH@Z 0042ac2a f   v5subs:wclass.obj
 0001:00029c40       ?style@WINDOW_CLASS@@QAEJXZ 0042ac40 f   v5subs:wclass.obj
 0001:00029c53       ?userdata@WINDOW_CLASS@@QAEJXZ 0042ac53 f   v5subs:wclass.obj
 0001:00029c66       ?add@WORKER_LIST_CLASS@@QAEEPA_W00@Z 0042ac66 f   v5subs:workclas.obj
 0001:00029cec       ?cleanup@WORKER_LIST_CLASS@@QAEXXZ 0042acec f   v5subs:workclas.obj
 0001:00029d09       ?full_name@WORKER_LIST_CLASS@@QAEPA_WPA_W@Z 0042ad09 f   v5subs:workclas.obj
 0001:00029d6b       ?load@WORKER_LIST_CLASS@@QAEEXZ 0042ad6b f   v5subs:workclas.obj
 0001:00029e34       ??1FTII_VAR_ARRAY@@UAE@XZ  0042ae34 f   v5subs:ftiiclas.obj
 0001:00029e4a       ??4FTII_VAR@@UAEXN@Z       0042ae4a f   v5subs:ftiiclas.obj
 0001:00029ea0       ??4FTII_VAR@@UAEXPB_W@Z    0042aea0 f   v5subs:ftiiclas.obj
 0001:00029f24       ??4FTII_VAR_ARRAY@@QAEXABV0@@Z 0042af24 f   v5subs:ftiiclas.obj
 0001:00029f76       ??4FTII_VAR_ARRAY@@UAEXABVFTII_VAR@@@Z 0042af76 f   v5subs:ftiiclas.obj
 0001:00029f88       ??4FTII_VAR_ARRAY@@UAEXH@Z 0042af88 f   v5subs:ftiiclas.obj
 0001:00029f8d       ??4FTII_VAR_ARRAY@@UAEXI@Z 0042af8d f   v5subs:ftiiclas.obj
 0001:00029fae       ??4FTII_VAR_ARRAY@@UAEXN@Z 0042afae f   v5subs:ftiiclas.obj
 0001:00029fda       ??AFTII_VAR_ARRAY@@QAEAAVFTII_VAR@@H@Z 0042afda f   v5subs:ftiiclas.obj
 0001:0002a00e       ??_EFTII_VAR@@UAEPAXI@Z    0042b00e f i v5subs:ftiiclas.obj
 0001:0002a05e       ?append_value@FTII_VAR@@QAE_NAAVSTRING_CLASS@@@Z 0042b05e f   v5subs:ftiiclas.obj
 0001:0002a132       ?cleanup@FTII_VAR_ARRAY@@QAEXXZ 0042b132 f   v5subs:ftiiclas.obj
 0001:0002a165       ?find@FTII_VAR_ARRAY@@QAE_NH@Z 0042b165 f   v5subs:ftiiclas.obj
 0001:0002a1a6       ?get@FTII_VAR@@UAE_NPB_W@Z 0042b1a6 f   v5subs:ftiiclas.obj
 0001:0002a1e3       ?get@FTII_VAR_ARRAY@@QAE_NAAVSTRING_CLASS@@@Z 0042b1e3 f   v5subs:ftiiclas.obj
 0001:0002a2d8       ?get_from@FTII_VAR_ARRAY@@QAE_NAAVSTRING_CLASS@@@Z 0042b2d8 f   v5subs:ftiiclas.obj
 0001:0002a3bf       ?makeline@FTII_VAR@@QAE_NAAVSTRING_CLASS@@@Z 0042b3bf f   v5subs:ftiiclas.obj
 0001:0002a40b       ?myfindchar@@YAPB_W_WPB_W@Z 0042b40b f   v5subs:ftiiclas.obj
 0001:0002a40b       ?myfindchar@@YAPA_W_WPA_W@Z 0042b40b f   v5subs:ftiiclas.obj
 0001:0002a42f       ?put@FTII_VAR@@UAE_NAAVSTRING_CLASS@@@Z 0042b42f f   v5subs:ftiiclas.obj
 0001:0002a4d2       ?put@FTII_VAR_ARRAY@@UAE_NAAVSTRING_CLASS@@@Z 0042b4d2 f   v5subs:ftiiclas.obj
 0001:0002a5b3       ?put_into@FTII_VAR_ARRAY@@QAE_NAAVSTRING_CLASS@@@Z 0042b5b3 f   v5subs:ftiiclas.obj
 0001:0002a761       ?set@FTII_VAR@@UAE_NHI@Z   0042b761 f   v5subs:ftiiclas.obj
 0001:0002a77f       ?set@FTII_VAR@@UAE_NHN@Z   0042b77f f   v5subs:ftiiclas.obj
 0001:0002a7e6       ?set@FTII_VAR_ARRAY@@UAE_NHI@Z 0042b7e6 f   v5subs:ftiiclas.obj
 0001:0002a819       ?upsize@FTII_VAR_ARRAY@@QAE_NH@Z 0042b819 f   v5subs:ftiiclas.obj
 0001:0002a928       ??1MACHINE_NAME_LIST_CLASS@@QAE@XZ 0042b928 f   v5subs:machname.obj
 0001:0002a939       ??_GMACHINE_NAME_LIST_ENTRY@@QAEPAXI@Z 0042b939 f i v5subs:machname.obj
 0001:0002a95f       ?add_computer@MACHINE_NAME_LIST_CLASS@@QAEEAAVSTRING_CLASS@@@Z 0042b95f f   v5subs:machname.obj
 0001:0002aac1       ?computer_name@MACHINE_NAME_LIST_CLASS@@QAEAAVSTRING_CLASS@@XZ 0042bac1 f   v5subs:machname.obj
 0001:0002aacd       ?empty@MACHINE_NAME_LIST_CLASS@@QAEXXZ 0042bacd f   v5subs:machname.obj
 0001:0002aaf9       ?name@MACHINE_NAME_LIST_CLASS@@QAEAAVSTRING_CLASS@@XZ 0042baf9 f   v5subs:machname.obj
 0001:0002ab09       ?next@MACHINE_NAME_LIST_CLASS@@QAEEXZ 0042bb09 f   v5subs:machname.obj
 0001:0002ab09       ?next@TEXT_LIST_CLASS@@QAEEXZ 0042bb09 f   v5subs:textlist.obj
 0001:0002ab1d       ?get_partlist@@YAEAAVTEXT_LIST_CLASS@@AAVSTRING_CLASS@@1@Z 0042bb1d f   v5subs:partlist.obj
 0001:0002abcc       ?double_to_tchar@@YA_NPA_WNH@Z 0042bbcc f   v5subs:dtotchar.obj
 0001:0002acfb       ?rounded_double_to_tchar@@YA_NPA_WN@Z 0042bcfb f   v5subs:dtotchar.obj
 0001:0002ad5d       ?alphadate@@YAEPA_WABU_SYSTEMTIME@@@Z 0042bd5d f   v5subs:time.obj
 0001:0002adbe       ?alphadate@@YAPA_WABU_SYSTEMTIME@@@Z 0042bdbe f   v5subs:time.obj
 0001:0002add4       ?alphatime@@YAEPA_WABU_SYSTEMTIME@@@Z 0042bdd4 f   v5subs:time.obj
 0001:0002ae36       ?alphatime@@YAPA_WABU_SYSTEMTIME@@@Z 0042be36 f   v5subs:time.obj
 0001:0002ae4c       ?compare_file_times@@YAHAAU_FILETIME@@0@Z 0042be4c f   v5subs:time.obj
 0001:0002ae8d       ?dofyr@@YAGABU_SYSTEMTIME@@@Z 0042be8d f   v5subs:time.obj
 0001:0002aea8       ?dofyr@@YAGGGG@Z           0042bea8 f   v5subs:time.obj
 0001:0002aef8       ?is_leap_year@@YAEG@Z      0042bef8 f   v5subs:time.obj
 0001:0002af32       ?is_numeric@@YAE_W@Z       0042bf32 f   v5subs:time.obj
 0001:0002af53       ?reverse@@YAXPA_W@Z        0042bf53 f   v5subs:reverse.obj
 0001:0002af7f       ?copy_all_files@@YAEPA_W00EPAUHWND__@@H@Z 0042bf7f f   v5subs:callfile.obj
 0001:0002afa0       ?copy_all_files@@YAEPA_W00EPAUHWND__@@H_N@Z 0042bfa0 f   v5subs:callfile.obj
 0001:0002b2c6       ?error_message@@YAXFF@Z    0042c2c6 f   v5subs:error_ms.obj
 0001:0002b30a       ?insalph@@YAXPA_WJJ_WJ@Z   0042c30a f   v5subs:insalph.obj
 0001:0002b35b       ?insalph@@YAXPA_WNJ_W@Z    0042c35b f   v5subs:insalph.obj
 0001:0002b3b2       ?exe_directory@@YAPB_WXZ   0042c3b2 f   v5subs:gexedir.obj
 0001:0002b3d8       ?get_exe_directory@@YAEPA_W@Z 0042c3d8 f   v5subs:gexedir.obj
 0001:0002b4c1       ?rjust@@YAXPA_WF_W@Z       0042c4c1 f   v5subs:rjust.obj
 0001:0002b508       ??0WIRE_CLASS@@QAE@XZ      0042c508 f   v5subs:wire_class.obj
 0001:0002b579       ??0WIRE_NAME_ENTRY@@QAE@XZ 0042c579 f   v5subs:wire_class.obj
 0001:0002b599       ??1WIRE_CLASS@@QAE@XZ      0042c599 f   v5subs:wire_class.obj
 0001:0002b5b4       ?wirebit@WIRE_CLASS@@QAEIH@Z 0042c5b4 f   v5subs:wire_class.obj
 0001:0002b5c9       ??0STRING_ARRAY_CLASS@@QAE@XZ 0042c5c9 f   v5subs:strarray.obj
 0001:0002b5ff       ??1STRING_ARRAY_CLASS@@QAE@XZ 0042c5ff f   v5subs:strarray.obj
 0001:0002b63d       ??4STRING_ARRAY_CLASS@@QAEAAV0@PB_W@Z 0042c63d f   v5subs:strarray.obj
 0001:0002b699       ?add@STRING_ARRAY_CLASS@@QAE_NPB_W@Z 0042c699 f   v5subs:strarray.obj
 0001:0002b6cc       ?add@STRING_ARRAY_CLASS@@QAE_NXZ 0042c6cc f   v5subs:strarray.obj
 0001:0002b711       ?empty@STRING_ENTRY@@QAEXXZ 0042c711 f   v5subs:strarray.obj
 0001:0002b72d       ?init@STRING_ARRAY_CLASS@@QAE_NH@Z 0042c72d f   v5subs:strarray.obj
 0001:0002b79f       ?next@STRING_ARRAY_CLASS@@QAE_NXZ 0042c79f f   v5subs:strarray.obj
 0001:0002b7c0       ?split@STRING_ARRAY_CLASS@@QAE_NPB_W@Z 0042c7c0 f   v5subs:strarray.obj
 0001:0002b868       ?day_of_the_week@@YAHHHH@Z 0042c868 f   v5subs:dow.obj
 0001:0002b8c3       ?fixed_string@@YAPA_WNJJ@Z 0042c8c3 f   v5subs:ftoasc.obj
 0001:0002ba07       ?ftoasc@@YAXPA_WN@Z        0042ca07 f   v5subs:ftoasc.obj
 0001:0002bb56       ?pixel_equation@@YAXAAM0JJMM@Z 0042cb56 f   v5subs:plotsubs.obj
 0001:0002bbed       ?whole_places@@YAJM@Z      0042cbed f   v5subs:plotsubs.obj
 0001:0002bc38       ?execute_and_wait@@YAEPA_W0K@Z 0042cc38 f   v5subs:execwait.obj
 0001:0002bcff       ?get_shift_number_and_date@@YAXPAFPAU_SYSTEMTIME@@ABU1@@Z 0042ccff f   v5subs:shift.obj
 0001:0002bd6f       ?minutes_past_sunday@@YAFABU_SYSTEMTIME@@@Z 0042cd6f f   v5subs:shift.obj
 0001:0002bdff       ?shift_number@@YAFPAFABU_SYSTEMTIME@@@Z 0042cdff f   v5subs:shift.obj
 0001:0002be54       ?hextoul@@YAKPB_W@Z        0042ce54 f   v5subs:hex.obj
 0001:0002becb       ?is_hex_char@@YAE_W@Z      0042cecb f   v5subs:hex.obj
 0001:0002beeb       ?ultohex@@YAPA_WK@Z        0042ceeb f   v5subs:hex.obj
 0001:0002befd       ??0bad_alloc@std@@QAE@ABV01@@Z 0042cefd f i LIBCMT:new.obj
 0001:0002bf18       ??1bad_alloc@std@@UAE@XZ   0042cf18 f i LIBCMT:new.obj
 0001:0002bf23       ??2@YAPAXI@Z               0042cf23 f   LIBCMT:new.obj
 0001:0002bf74       ??_Gbad_alloc@std@@UAEPAXI@Z 0042cf74 f i LIBCMT:new.obj
 0001:0002bf74       ??_Ebad_alloc@std@@UAEPAXI@Z 0042cf74 f i LIBCMT:new.obj
 0001:0002bf99       ??3@YAXPAX@Z               0042cf99 f   LIBCMT:delete.obj
 0001:0002bf9e       ___onexitinit              0042cf9e f   LIBCMT:onexit.obj
 0001:0002bfcd       __onexit                   0042cfcd f   LIBCMT:onexit.obj
 0001:0002c0c9       _atexit                    0042d0c9 f   LIBCMT:onexit.obj
 0001:0002c0de       ___raise_securityfailure   0042d0de f   LIBCMT:gs_report.obj
 0001:0002c11b       ___report_gsfailure        0042d11b f   LIBCMT:gs_report.obj
 0001:0002c216       ___report_rangecheckfailure 0042d216 f   LIBCMT:gs_report.obj
 0001:0002c222       ___report_securityfailure  0042d222 f   LIBCMT:gs_report.obj
 0001:0002c300       _ceil                      0042d300 f   LIBCMT:ceil_pentium4.obj
 0001:0002c340       __ceil_pentium4            0042d340 f   LIBCMT:ceil_pentium4.obj
 0001:0002c41d       @__security_check_cookie@4 0042d41d f   LIBCMT:secchk.obj
 0001:0002c430       __ftoui3                   0042d430 f   LIBCMT:ftol3.obj
 0001:0002c43f       __ftoul3                   0042d43f f   LIBCMT:ftol3.obj
 0001:0002c44e       __ftol3                    0042d44e f   LIBCMT:ftol3.obj
 0001:0002c45b       __ftol3_NaN                0042d45b f   LIBCMT:ftol3.obj
 0001:0002c473       __ftol3_work               0042d473 f   LIBCMT:ftol3.obj
 0001:0002c4f9       __ftol3_common             0042d4f9 f   LIBCMT:ftol3.obj
 0001:0002c5bb       __ftol3_arg_error          0042d5bb f   LIBCMT:ftol3.obj
 0001:0002c5cd       __ftol3_except             0042d5cd f   LIBCMT:ftol3.obj
 0001:0002c611       __dtoui3                   0042d611 f   LIBCMT:ftol3.obj
 0001:0002c620       __dtoul3                   0042d620 f   LIBCMT:ftol3.obj
 0001:0002c62f       __dtol3                    0042d62f f   LIBCMT:ftol3.obj
 0001:0002c63c       __dtol3_NaN                0042d63c f   LIBCMT:ftol3.obj
 0001:0002c659       __dtol3_work               0042d659 f   LIBCMT:ftol3.obj
 0001:0002c73e       __ultod3                   0042d73e f   LIBCMT:ftol3.obj
 0001:0002c7cf       __ltod3                    0042d7cf f   LIBCMT:ftol3.obj
 0001:0002c800       __ftol2_sse                0042d800 f   LIBCMT:ftol2.obj
 0001:0002c809       __ftol2_pentium4           0042d809 f   LIBCMT:ftol2.obj
 0001:0002c81c       __ftol2_sse_excpt          0042d81c f   LIBCMT:ftol2.obj
 0001:0002c836       __ftol2                    0042d836 f   LIBCMT:ftol2.obj
 0001:0002c8ab       ??1type_info@@UAE@XZ       0042d8ab f   LIBCMT:typinfo.obj
 0001:0002c8b9       ??_Gtype_info@@UAEPAXI@Z   0042d8b9 f i LIBCMT:typinfo.obj
 0001:0002c8b9       ??_Etype_info@@UAEPAXI@Z   0042d8b9 f i LIBCMT:typinfo.obj
 0001:0002c8d8       __fpmath                   0042d8d8 f   LIBCMT:fpinit.obj
 0001:0002c8ef       __cfltcvt_init             0042d8ef f   LIBCMT:fpinit.obj
 0001:0002c94f       _WinMainCRTStartup         0042d94f f   LIBCMT:wincrt0.obj
 0001:0002cad0       ??0_LocaleUpdate@@QAE@PAUlocaleinfo_struct@@@Z 0042dad0 f i LIBCMT:strtod.obj
 0001:0002cb58       __strtod_l                 0042db58 f   LIBCMT:strtod.obj
 0001:0002cc6f       _strtod                    0042dc6f f   LIBCMT:strtod.obj
 0001:0002ceaa       _strtol                    0042deaa f   LIBCMT:strtol.obj
 0001:0002ced4       _strtoul                   0042ded4 f   LIBCMT:strtol.obj
 0001:0002cf00       _memset                    0042df00 f   LIBCMT:memset.obj
 0001:0002cf90       _memcpy                    0042df90 f   LIBCMT:memcpy.obj
 0001:0002d5e0       __chkstk                   0042e5e0 f   LIBCMT:chkstk.obj
 0001:0002d5e0       __alloca_probe             0042e5e0 f   LIBCMT:chkstk.obj
 0001:0002d610       _log10                     0042e610 f   LIBCMT:log10.obj
 0001:0002d650       __CIlog10                  0042e650 f   LIBCMT:log10.obj
 0001:0002d68b       __CIlog10_default          0042e68b f   LIBCMT:log10.obj
 0001:0002d69f       __log10_default            0042e69f     LIBCMT:log10.obj
 0001:0002d760       _floor                     0042e760 f   LIBCMT:floor_pentium4.obj
 0001:0002d7a0       __floor_pentium4           0042e7a0 f   LIBCMT:floor_pentium4.obj
 0001:0002d890       __aulldiv                  0042e890 f   LIBCMT:ulldiv.obj
 0001:0002d900       _memmove                   0042e900 f   LIBCMT:memmove.obj
 0001:0002dfb9       __ecvt_s                   0042efb9 f   LIBCMT:fcvt.obj
 0001:0002e069       _malloc                    0042f069 f   LIBCMT:malloc.obj
 0001:0002e0fb       ??0exception@std@@QAE@ABQBDH@Z 0042f0fb f   LIBCMT:stdexcpt.obj
 0001:0002e116       ??0exception@std@@QAE@ABV01@@Z 0042f116 f   LIBCMT:stdexcpt.obj
 0001:0002e139       ??1exception@std@@UAE@XZ   0042f139 f   LIBCMT:stdexcpt.obj
 0001:0002e144       ??4exception@std@@QAEAAV01@ABV01@@Z 0042f144 f   LIBCMT:stdexcpt.obj
 0001:0002e177       ??_Eexception@std@@UAEPAXI@Z 0042f177 f i LIBCMT:stdexcpt.obj
 0001:0002e177       ??_Gexception@std@@UAEPAXI@Z 0042f177 f i LIBCMT:stdexcpt.obj
 0001:0002e19c       ?_Copy_str@exception@std@@AAEXPBD@Z 0042f19c f   LIBCMT:stdexcpt.obj
 0001:0002e1da       ?_Tidy@exception@std@@AAEXXZ 0042f1da f   LIBCMT:stdexcpt.obj
 0001:0002e1f6       ?what@exception@std@@UBEPBDXZ 0042f1f6 f   LIBCMT:stdexcpt.obj
 0001:0002e203       __callnewh                 0042f203 f   LIBCMT:handler.obj
 0001:0002e229       __initp_heap_handler       0042f229 f   LIBCMT:handler.obj
 0001:0002e236       __CxxThrowException@8      0042f236 f   LIBCMT:throw.obj
 0001:0002e299       _free                      0042f299 f   LIBCMT:free.obj
 0001:0002e2d1       ___crtCorExitProcess       0042f2d1 f   LIBCMT:crt0dat.obj
 0001:0002e305       ___crtExitProcess          0042f305 f   LIBCMT:crt0dat.obj
 0001:0002e31b       __amsg_exit                0042f31b f   LIBCMT:crt0dat.obj
 0001:0002e337       __c_exit                   0042f337 f   LIBCMT:crt0dat.obj
 0001:0002e346       __cexit                    0042f346 f   LIBCMT:crt0dat.obj
 0001:0002e355       __cinit                    0042f355 f   LIBCMT:crt0dat.obj
 0001:0002e3d9       __exit                     0042f3d9 f   LIBCMT:crt0dat.obj
 0001:0002e3ed       __init_pointers            0042f3ed f   LIBCMT:crt0dat.obj
 0001:0002e45b       __initterm_e               0042f45b f   LIBCMT:crt0dat.obj
 0001:0002e47d       __lockexit                 0042f47d f   LIBCMT:crt0dat.obj
 0001:0002e486       __unlockexit               0042f486 f   LIBCMT:crt0dat.obj
 0001:0002e5be       _exit                      0042f5be f   LIBCMT:crt0dat.obj
 0001:0002e5d2       __msize                    0042f5d2 f   LIBCMT:msize.obj
 0001:0002e603       __calloc_crt               0042f603 f   LIBCMT:crtheap.obj
 0001:0002e64b       __malloc_crt               0042f64b f   LIBCMT:crtheap.obj
 0001:0002e692       __realloc_crt              0042f692 f   LIBCMT:crtheap.obj
 0001:0002e6e0       __SEH_prolog4              0042f6e0 f   LIBCMT:sehprolg4.obj
 0001:0002e725       __SEH_epilog4              0042f725 f   LIBCMT:sehprolg4.obj
 0001:0002e740       __except_handler4          0042f740 f   LIBCMT:chandler4.obj
 0001:0002e8d4       __crt_debugger_hook        0042f8d4 f   LIBCMT:dbghook.obj
 0001:0002e8dc       ___crtFlsAlloc             0042f8dc f   LIBCMT:winapisupp.obj
 0001:0002e8fa       ___crtFlsFree              0042f8fa f   LIBCMT:winapisupp.obj
 0001:0002e919       ___crtFlsGetValue          0042f919 f   LIBCMT:winapisupp.obj
 0001:0002e938       ___crtFlsSetValue          0042f938 f   LIBCMT:winapisupp.obj
 0001:0002e95a       ___crtGetShowWindowMode    0042f95a f   LIBCMT:winapisupp.obj
 0001:0002e97d       ___crtInitializeCriticalSectionEx 0042f97d f   LIBCMT:winapisupp.obj
 0001:0002e9ab       ___crtIsPackagedApp        0042f9ab f   LIBCMT:winapisupp.obj
 0001:0002e9eb       ___crtLoadWinApiPointers   0042f9eb f   LIBCMT:winapisupp.obj
 0001:0002ec76       ___crtSetUnhandledExceptionFilter 0042fc76 f   LIBCMT:winapisupp.obj
 0001:0002ec84       ___crtSleep                0042fc84 f   LIBCMT:winapisupp.obj
 0001:0002ec92       ___crtTerminateProcess     0042fc92 f   LIBCMT:winapisupp.obj
 0001:0002eca7       ___crtUnhandledException   0042fca7 f   LIBCMT:winapisupp.obj
 0001:0002ecbd       ___libm_error_support      0042fcbd f   LIBCMT:libm_error.obj
 0001:0002efa5       __sse2_mathfcns_init       0042ffa5 f   LIBCMT:mathfcns.obj
 0001:0002efb4       __ceil_default             0042ffb4 f   LIBCMT:ceil.obj
 0001:0002f08b       __errcode                  0043008b f   LIBCMT:fpexcept.obj
 0001:0002f0bd       __except1                  004300bd f   LIBCMT:fpexcept.obj
 0001:0002f185       __handle_exc               00430185 f   LIBCMT:fpexcept.obj
 0001:0002f363       __handle_qnan1             00430363 f   LIBCMT:fpexcept.obj
 0001:0002f3b3       __raise_exc                004303b3 f   LIBCMT:fpexcept.obj
 0001:0002f3d4       __raise_exc_ex             004303d4 f   LIBCMT:fpexcept.obj
 0001:0002f6b9       __set_errno_from_matherr   004306b9 f   LIBCMT:fpexcept.obj
 0001:0002f6e6       __umatherr                 004306e6 f   LIBCMT:fpexcept.obj
 0001:0002f786       ___isa_available_init      00430786 f   LIBCMT:cpu_disp.obj
 0001:0002f900       _strcmp                    00430900 f   LIBCMT:strcmp.obj
 0001:0002f98c       ?_Type_info_dtor@type_info@@CAXPAV1@@Z 0043098c f   LIBCMT:typname.obj
 0001:0002f9fd       __cfltcvt                  004309fd f   LIBCMT:cvt.obj
 0001:0002fa1e       __cfltcvt_l                00430a1e f   LIBCMT:cvt.obj
 0001:0002faa4       __cftoa_l                  00430aa4 f   LIBCMT:cvt.obj
 0001:0002fe00       __cftoe                    00430e00 f   LIBCMT:cvt.obj
 0001:0002ff6f       __cftoe_l                  00430f6f f   LIBCMT:cvt.obj
 0001:00030129       __cftof_l                  00431129 f   LIBCMT:cvt.obj
 0001:000301ea       __cftog_l                  004311ea f   LIBCMT:cvt.obj
 0001:000302e9       __cropzeros                004312e9 f   LIBCMT:cvt.obj
 0001:000302fa       __cropzeros_l              004312fa f   LIBCMT:cvt.obj
 0001:0003037a       __fassign                  0043137a f   LIBCMT:cvt.obj
 0001:00030392       __fassign_l                00431392 f   LIBCMT:cvt.obj
 0001:000303d4       __forcdecpt                004313d4 f   LIBCMT:cvt.obj
 0001:000303e5       __forcdecpt_l              004313e5 f   LIBCMT:cvt.obj
 0001:00030459       __positive                 00431459 f   LIBCMT:cvt.obj
 0001:0003049b       __setdefaultprecision      0043149b f   LIBCMT:fp8.obj
 0001:000304c2       __initp_misc_cfltcvt_tab   004314c2 f   LIBCMT:cmiscdat.obj
 0001:000304e1       ?__CxxUnhandledExceptionFilter@@YGJPAU_EXCEPTION_POINTERS@@@Z 004314e1 f   LIBCMT:unhandld.obj
 0001:00030522       ___CxxSetUnhandledExceptionFilter 00431522 f   LIBCMT:unhandld.obj
 0001:00030530       __XcptFilter               00431530 f   LIBCMT:winxfltr.obj
 0001:0003068b       __freefls@4                0043168b f   LIBCMT:tidtable.obj
 0001:000307c0       __getptd                   004317c0 f   LIBCMT:tidtable.obj
 0001:000307d8       __getptd_noexit            004317d8 f   LIBCMT:tidtable.obj
 0001:00030847       __initptd                  00431847 f   LIBCMT:tidtable.obj
 0001:000308fa       __mtinit                   004318fa f   LIBCMT:tidtable.obj
 0001:00030970       __mtterm                   00431970 f   LIBCMT:tidtable.obj
 0001:0003098d       __heap_init                0043198d f   LIBCMT:heapinit.obj
 0001:000309a2       __ioinit                   004319a2 f   LIBCMT:ioinit.obj
 0001:00030c56       __setargv                  00431c56 f   LIBCMT:stdargv.obj
 0001:00030e85       __setenvp                  00431e85 f   LIBCMT:stdenvp.obj
 0001:00030f66       __FF_MSGBANNER             00431f66 f   LIBCMT:crt0msg.obj
 0001:00030f9f       __GET_RTERRMSG             00431f9f f   LIBCMT:crt0msg.obj
 0001:00030fc3       __NMSG_WRITE               00431fc3 f   LIBCMT:crt0msg.obj
 0001:00031180       ___set_app_type            00432180 f   LIBCMT:errmode.obj
 0001:0003118d       __set_error_mode           0043218d f   LIBCMT:errmode.obj
 0001:000311cd       ___security_init_cookie    004321cd f   LIBCMT:gs_support.obj
 0001:00031269       __RTC_Initialize           00432269 f   LIBCMT:initsect.obj
 0001:00031289       __RTC_Terminate            00432289 f   LIBCMT:initsect.obj
 0001:000312a9       ___crtGetEnvironmentStringsA 004322a9 f   LIBCMT:a_env.obj
 0001:00031336       __wincmdln                 00432336 f   LIBCMT:wincmdln.obj
 0001:00031395       __call_reportfault         00432395 f   LIBCMT:invarg.obj
 0001:000314ba       __initp_misc_invarg        004324ba f   LIBCMT:invarg.obj
 0001:000314c7       __invalid_parameter        004324c7 f   LIBCMT:invarg.obj
 0001:000314f2       __invalid_parameter_noinfo 004324f2 f   LIBCMT:invarg.obj
 0001:00031502       __invoke_watson            00432502 f   LIBCMT:invarg.obj
 0001:0003152d       ___doserrno                0043252d f   LIBCMT:dosmap.obj
 0001:00031540       __dosmaperr                00432540 f   LIBCMT:dosmap.obj
 0001:00031561       __errno                    00432561 f   LIBCMT:dosmap.obj
 0001:00031574       __get_errno_from_oserr     00432574 f   LIBCMT:dosmap.obj
 0001:000315b5       __fltin2                   004325b5 f   LIBCMT:cfin.obj
 0001:0003165c       ___addlocaleref            0043265c f   LIBCMT:localref.obj
 0001:000316f1       ___freetlocinfo            004326f1 f   LIBCMT:localref.obj
 0001:0003184b       ___removelocaleref         0043284b f   LIBCMT:localref.obj
 0001:000318eb       ___updatetlocinfo          004328eb f   LIBCMT:localref.obj
 0001:0003196b       __updatetlocinfoEx_nolock  0043296b f   LIBCMT:localref.obj
 0001:000319b6       ___initmbctable            004329b6 f   LIBCMT:mbctype.obj
 0001:00031c6d       ___updatetmbcinfo          00432c6d f   LIBCMT:mbctype.obj
 0001:00031d13       __setmbcp                  00432d13 f   LIBCMT:mbctype.obj
 0001:00031ebb       __setmbcp_nolock           00432ebb f   LIBCMT:mbctype.obj
 0001:000320a6       __isctype_l                004330a6 f   LIBCMT:isctype.obj
 0001:00032160       __locterm                  00433160 f   LIBCMT:wsetloca.obj
 0001:000321b2       __VEC_memset               004331b2 f   LIBCMT:p4_memset.obj
 0001:00032280       __CIlog10_pentium4         00433280 f   LIBCMT:log10_pentium4.obj
 0001:00032298       __log10_pentium4           00433298     LIBCMT:log10_pentium4.obj
 0001:00032521       __fFEXP                    00433521     LIBCMT:87tran.obj
 0001:00032578       __rtinfpopse               00433578     LIBCMT:87tran.obj
 0001:0003257a       __rtinfnpopse              0043357a     LIBCMT:87tran.obj
 0001:0003258a       __fFLN                     0043358a     LIBCMT:87tran.obj
 0001:0003263f       __rtinfpop                 0043363f     LIBCMT:87tran.obj
 0001:00032641       __rtinfnpop                00433641     LIBCMT:87tran.obj
 0001:0003265e       __ffexpm1                  0043365e     LIBCMT:87tran.obj
 0001:00032710       __trandisp1                00433710 f   LIBCMT:87disp.obj
 0001:00032777       __trandisp2                00433777 f   LIBCMT:87disp.obj
 0001:00032803       __rttospopde               00433803     LIBCMT:87disp.obj
 0001:00032808       __rttospop                 00433808     LIBCMT:87disp.obj
 0001:0003280a       __rtnospop                 0043380a     LIBCMT:87disp.obj
 0001:0003280c       __rttosnpop                0043380c     LIBCMT:87disp.obj
 0001:0003280d       __rtnospopde               0043380d     LIBCMT:87disp.obj
 0001:00032814       __rtzeropop                00433814     LIBCMT:87disp.obj
 0001:00032816       __rtzeronpop               00433816     LIBCMT:87disp.obj
 0001:0003281b       __rtonepop                 0043381b     LIBCMT:87disp.obj
 0001:0003281d       __rtonenpop                0043381d     LIBCMT:87disp.obj
 0001:00032822       __tosnan1                  00433822     LIBCMT:87disp.obj
 0001:0003284d       __nosnan2                  0043384d     LIBCMT:87disp.obj
 0001:0003284f       __tosnan2                  0043384f     LIBCMT:87disp.obj
 0001:00032877       __nan2                     00433877     LIBCMT:87disp.obj
 0001:000328b6       __rtindfpop                004338b6     LIBCMT:87disp.obj
 0001:000328b8       __rtindfnpop               004338b8     LIBCMT:87disp.obj
 0001:000328c9       __rttosnpopde              004338c9     LIBCMT:87disp.obj
 0001:000328d3       __rtchsifneg               004338d3     LIBCMT:87disp.obj
 0001:000328e0       __twoToTOS                 004338e0 f   LIBCMT:common.obj
 0001:000328f5       __load_CW                  004338f5 f   LIBCMT:common.obj
 0001:0003290c       __convertTOStoQNaN         0043390c f   LIBCMT:common.obj
 0001:00032925       __fload_withFB             00433925 f   LIBCMT:common.obj
 0001:00032968       __checkTOS_withFB          00433968 f   LIBCMT:common.obj
 0001:0003297e       __fast_exit                0043397e f   LIBCMT:common.obj
 0001:0003298b       __math_exit                0043398b f   LIBCMT:common.obj
 0001:000329b5       __check_overflow_exit      004339b5 f   LIBCMT:common.obj
 0001:000329c9       __check_range_exit         004339c9 f   LIBCMT:common.obj
 0001:00032a70       __startTwoArgErrorHandling 00433a70 f   LIBCMT:genexcep.obj
 0001:00032a87       __startOneArgErrorHandling 00433a87 f   LIBCMT:genexcep.obj
 0001:00032ac3       __floor_default            00433ac3 f   LIBCMT:floor.obj
 0001:00032b9a       __fptostr                  00433b9a f   LIBCMT:_fptostr.obj
 0001:00032c4a       ___dtold                   00433c4a f   LIBCMT:cfout.obj
 0001:00032d12       __fltout2                  00433d12 f   LIBCMT:cfout.obj
 0001:00032da0       _strcpy_s                  00433da0 f   LIBCMT:strcpy_s.obj
 0001:00032e00       _strlen                    00433e00 f   LIBCMT:strlen.obj
 0001:00032e8b       __lock                     00433e8b f   LIBCMT:mlock.obj
 0001:00032ebf       __mtdeletelocks            00433ebf f   LIBCMT:mlock.obj
 0001:00032f13       __mtinitlocknum            00433f13 f   LIBCMT:mlock.obj
 0001:00032fbc       __mtinitlocks              00433fbc f   LIBCMT:mlock.obj
 0001:00032ff7       __unlock                   00433ff7 f   LIBCMT:mlock.obj
 0001:00033010       __FindPESection            00434010 f   LIBCMT:pesect.obj
 0001:00033060       __IsNonwritableInCurrentImage 00434060 f   LIBCMT:pesect.obj
 0001:00033120       __ValidateImageBase        00434120 f   LIBCMT:pesect.obj
 0001:00033151       ?terminate@@YAXXZ          00434151 f   LIBCMT:hooks.obj
 0001:00033185       __initp_eh_hooks           00434185 f   LIBCMT:hooks.obj
 0001:00033196       __initp_misc_purevirt      00434196 f   LIBCMT:inithelp.obj
 0001:000331a3       ___get_sigabrt             004341a3 f   LIBCMT:winsig.obj
 0001:000331b0       __initp_misc_winsig        004341b0 f   LIBCMT:winsig.obj
 0001:000331cc       _raise                     004341cc f   LIBCMT:winsig.obj
 0001:000333c1       __initp_misc_rand_s        004343c1 f   LIBCMT:rand_s.obj
 0001:000333ce       _realloc                   004343ce f   LIBCMT:realloc.obj
 0001:00033479       __calloc_impl              00434479 f   LIBCMT:calloc_impl.obj
 0001:00033500       __local_unwind4            00434500 f   LIBCMT:exsup4.obj
 0001:000335d6       __seh_longjmp_unwind4@4    004345d6 f   LIBCMT:exsup4.obj
 0001:000335f2       @_EH4_CallFilterFunc@8     004345f2 f   LIBCMT:exsup4.obj
 0001:00033609       @_EH4_TransferToHandler@8  00434609 f   LIBCMT:exsup4.obj
 0001:00033622       @_EH4_GlobalUnwind2@8      00434622 f   LIBCMT:exsup4.obj
 0001:0003363b       @_EH4_LocalUnwind@16       0043463b f   LIBCMT:exsup4.obj
 0001:00033652       __matherr                  00434652 f   LIBCMT:matherr.obj
 0001:00033655       __frnd                     00434655 f   LIBCMT:frnd.obj
 0001:00033669       __decomp                   00434669 f   LIBCMT:util.obj
 0001:0003373b       __set_exp                  0043473b f   LIBCMT:util.obj
 0001:0003376a       __sptype                   0043476a f   LIBCMT:util.obj
 0001:000337c5       ___set_fpsr_sse2           004347c5 f   LIBCMT:fpctrl.obj
 0001:0003383b       __clrfp                    0043483b f   LIBCMT:fpctrl.obj
 0001:0003384c       __ctrlfp                   0043484c f   LIBCMT:fpctrl.obj
 0001:00033877       __set_statfp               00434877 f   LIBCMT:fpctrl.obj
 0001:000338cf       __statfp                   004348cf f   LIBCMT:fpctrl.obj
 0001:000338df       __isdigit_l                004348df f i LIBCMT:_ctype.obj
 0001:00033931       _isdigit                   00434931 f i LIBCMT:_ctype.obj
 0001:0003395c       __tolower_l                0043495c f   LIBCMT:tolower.obj
 0001:00033a9f       _tolower                   00434a9f f   LIBCMT:tolower.obj
 0001:00033ad0       _strrchr                   00434ad0 f   LIBCMT:strrchr.obj
 0001:00033c07       ___crt_atoflt_l            00434c07 f   LIBCMT:atodbl.obj
 0001:00033cab       __atodbl_l                 00434cab f   LIBCMT:atodbl.obj
 0001:00033d39       __atoflt_l                 00434d39 f   LIBCMT:atodbl.obj
 0001:00033d60       __alldvrm                  00434d60 f   LIBCMT:lldvrm.obj
 0001:00033e40       __aullshr                  00434e40 f   LIBCMT:ullshr.obj
 0001:00033e5f       __controlfp_s              00434e5f f   LIBCMT:contrlfp.obj
 0001:00033ebc       __fptrap                   00434ebc f   LIBCMT:crt0fp.obj
 0001:00033ec5       ___initstdio               00434ec5 f   LIBCMT:_file.obj
 0001:00033f38       ___endstdio                00434f38 f   LIBCMT:_file.obj
 0001:00033f5f       __lock_file                00434f5f f   LIBCMT:_file.obj
 0001:00033f9e       __lock_file2               00434f9e f   LIBCMT:_file.obj
 0001:00033fce       __unlock_file              00434fce f   LIBCMT:_file.obj
 0001:00034008       __unlock_file2             00435008 f   LIBCMT:_file.obj
 0001:0003408f       __ismbblead                0043508f f   LIBCMT:ismbbyte.obj
 0001:000340a5       _wcscat_s                  004350a5 f   LIBCMT:wcscat_s.obj
 0001:00034111       _wcscpy_s                  00435111 f   LIBCMT:wcscpy_s.obj
 0001:0003416d       _wcslen                    0043516d f   LIBCMT:wcslen.obj
 0001:00034186       _wcsncpy_s                 00435186 f   LIBCMT:wcsncpy_s.obj
 0001:00034244       ___crtMessageBoxW          00435244 f   LIBCMT:crtmboxw.obj
 0001:0003442a       __ld12tod                  0043542a f   LIBCMT:intrncvt.obj
 0001:0003499c       __ld12tof                  0043599c f   LIBCMT:intrncvt.obj
 0001:00034f0e       ___strgtold12_l            00435f0e f   LIBCMT:strgtold.obj
 0001:000356b6       ___free_lconv_mon          004366b6 f   LIBCMT:initmon.obj
 0001:000357b2       ___free_lconv_num          004367b2 f   LIBCMT:initnum.obj
 0001:00035819       ___free_lc_time            00436819 f   LIBCMT:inittime.obj
 0001:00035d9d       ___crtLCMapStringA         00436d9d f   LIBCMT:a_map.obj
 0001:00035de3       __freea                    00436de3 f i LIBCMT:a_map.obj
 0001:00035ef9       ___crtGetStringTypeA       00436ef9 f   LIBCMT:a_str.obj
 0001:00035f39       __isleadbyte_l             00436f39 f i LIBCMT:_wctype.obj
 0001:00035f73       _isleadbyte                00436f73 f i LIBCMT:_wctype.obj
 0001:00035f84       _GetTableIndexFromLocaleName 00436f84 f   LIBCMT:winapinls.obj
 0001:00035fd2       ___crtDownlevelLocaleNameToLCID 00436fd2 f   LIBCMT:winapinls.obj
 0001:00035ffc       ___crtLCMapStringEx        00436ffc f   LIBCMT:winapinls.obj
 0001:00036048       ___wcsnicmp_ascii          00437048 f   LIBCMT:winapinls.obj
 0001:000360b6       __d_inttype                004370b6 f   LIBCMT:powhlp.obj
 0001:0003611e       __powhlp                   0043711e f   LIBCMT:powhlp.obj
 0001:00036254       __87except                 00437254 f   LIBCMT:87except.obj
 0001:0003635d       _$I10_OUTPUT               0043735d f   LIBCMT:x10fout.obj
 0001:00036d31       _abort                     00437d31 f   LIBCMT:abort.obj
 0001:00036d74       __fileno                   00437d74 f   LIBCMT:fileno.obj
 0001:00036d98       __isatty                   00437d98 f   LIBCMT:isatty.obj
 0001:00036dec       __fflush_nolock            00437dec f   LIBCMT:fflush.obj
 0001:00036e32       __flush                    00437e32 f   LIBCMT:fflush.obj
 0001:00036e96       __flushall                 00437e96 f   LIBCMT:fflush.obj
 0001:00036f90       __global_unwind2           00437f90 f   LIBCMT:exsup.obj
 0001:00036ff5       __local_unwind2            00437ff5 f   LIBCMT:exsup.obj
 0001:00037079       __abnormal_termination     00438079 f   LIBCMT:exsup.obj
 0001:0003709c       __NLG_Notify1              0043809c f   LIBCMT:exsup.obj
 0001:000370a5       __NLG_Notify               004380a5 f   LIBCMT:exsup.obj
 0001:000370bc       __NLG_Dispatch             004380bc     LIBCMT:exsup.obj
 0001:000370bc       __NLG_Dispatch2            004380bc     LIBCMT:exsup.obj
 0001:000370c4       __NLG_Call                 004380c4 f   LIBCMT:exsup.obj
 0001:000370c6       __NLG_Return2              004380c6     LIBCMT:exsup.obj
 0001:000370d0       __aulldvrm                 004380d0 f   LIBCMT:ulldvrm.obj
 0001:0003720e       __control87                0043820e f i LIBCMT:ieee87.obj
 0001:000375a7       __fcloseall                004385a7 f   LIBCMT:closeall.obj
 0001:00037644       ___mtold12                 00438644 f   LIBCMT:mantold.obj
 0001:00037830       __alloca_probe_16          00438830 f   LIBCMT:alloca16.obj
 0001:00037846       __alloca_probe_8           00438846     LIBCMT:alloca16.obj
 0001:0003785c       __fpclass                  0043885c f   LIBCMT:ieeemisc.obj
 0001:000378f8       __commit                   004388f8 f   LIBCMT:commit.obj
 0001:000379e1       __write                    004389e1 f   LIBCMT:write.obj
 0001:00037ad0       __write_nolock             00438ad0 f   LIBCMT:write.obj
 0001:00038335       __fclose_nolock            00439335 f   LIBCMT:fclose.obj
 0001:000383a1       _fclose                    004393a1 f   LIBCMT:fclose.obj
 0001:00038418       ___lock_fhandle            00439418 f   LIBCMT:osfinfo.obj
 0001:000384a6       __free_osfhnd              004394a6 f   LIBCMT:osfinfo.obj
 0001:0003852c       __get_osfhandle            0043952c f   LIBCMT:osfinfo.obj
 0001:00038593       __unlock_fhandle           00439593 f   LIBCMT:osfinfo.obj
 0001:000385b9       __lseeki64_nolock          004395b9 f   LIBCMT:lseeki64.obj
 0001:0003862c       __mbtowc_l                 0043962c f   LIBCMT:mbtowc.obj
 0001:00038721       _mbtowc                    00439721 f   LIBCMT:mbtowc.obj
 0001:00038739       __putwch_nolock            00439739 f   LIBCMT:putwch.obj
 0001:00038780       __allmul                   00439780 f   LIBCMT:llmul.obj
 0001:000387b4       __close                    004397b4 f   LIBCMT:close.obj
 0001:0003888f       __close_nolock             0043988f f   LIBCMT:close.obj
 0001:00038929       __freebuf                  00439929 f   LIBCMT:_freebuf.obj
 0001:00038959       ___termconout              00439959 f   LIBCMT:initcon.obj
 0001:00038970       ___initconout              00439970 f   LIBCMT:initcon.obj
 0001:00038990       _IsProcessorFeaturePresent@4 00439990 f   kernel32:KERNEL32.dll
 0001:00038996       _RtlUnwind@16              00439996 f   kernel32:KERNEL32.dll
 0001:0003899c       _DdeInitializeW@16         0043999c f   user32:USER32.dll
 0001:000389a2       _DdeUninitialize@4         004399a2 f   user32:USER32.dll
 0001:000389a8       _DdeConnect@16             004399a8 f   user32:USER32.dll
 0001:000389ae       _DdeDisconnect@4           004399ae f   user32:USER32.dll
 0001:000389b4       _DdeClientTransaction@32   004399b4 f   user32:USER32.dll
 0001:000389ba       _DdeCreateStringHandleW@12 004399ba f   user32:USER32.dll
 0001:000389c0       _DdeFreeStringHandle@8     004399c0 f   user32:USER32.dll
 0001:000389c6       _DdeCmpStringHandles@8     004399c6 f   user32:USER32.dll
 0002:00000000       __imp__InitCommonControls@0 0043a000     comctl32:COMCTL32.dll
 0002:00000004       \177COMCTL32_NULL_THUNK_DATA 0043a004     comctl32:COMCTL32.dll
 0002:00000008       __imp__TextOutW@20         0043a008     gdi32:GDI32.dll
 0002:0000000c       __imp__EndPage@4           0043a00c     gdi32:GDI32.dll
 0002:00000010       __imp__StartPage@4         0043a010     gdi32:GDI32.dll
 0002:00000014       __imp__EndDoc@4            0043a014     gdi32:GDI32.dll
 0002:00000018       __imp__StartDocW@8         0043a018     gdi32:GDI32.dll
 0002:0000001c       __imp__GetTextExtentPoint32W@16 0043a01c     gdi32:GDI32.dll
 0002:00000020       __imp__SetTextColor@8      0043a020     gdi32:GDI32.dll
 0002:00000024       __imp__SetBkColor@8        0043a024     gdi32:GDI32.dll
 0002:00000028       __imp__SelectObject@8      0043a028     gdi32:GDI32.dll
 0002:0000002c       __imp__Rectangle@20        0043a02c     gdi32:GDI32.dll
 0002:00000030       __imp__GetStockObject@4    0043a030     gdi32:GDI32.dll
 0002:00000034       __imp__GetDeviceCaps@8     0043a034     gdi32:GDI32.dll
 0002:00000038       __imp__SetTextAlign@8      0043a038     gdi32:GDI32.dll
 0002:0000003c       __imp__DPtoLP@12           0043a03c     gdi32:GDI32.dll
 0002:00000040       __imp__UpdateColors@4      0043a040     gdi32:GDI32.dll
 0002:00000044       __imp__StretchDIBits@52    0043a044     gdi32:GDI32.dll
 0002:00000048       __imp__SelectPalette@12    0043a048     gdi32:GDI32.dll
 0002:0000004c       __imp__RealizePalette@4    0043a04c     gdi32:GDI32.dll
 0002:00000050       __imp__GetSystemPaletteEntries@16 0043a050     gdi32:GDI32.dll
 0002:00000054       __imp__CreatePalette@4     0043a054     gdi32:GDI32.dll
 0002:00000058       __imp__MoveToEx@16         0043a058     gdi32:GDI32.dll
 0002:0000005c       __imp__SetBkMode@8         0043a05c     gdi32:GDI32.dll
 0002:00000060       __imp__LineTo@12           0043a060     gdi32:GDI32.dll
 0002:00000064       __imp__Ellipse@20          0043a064     gdi32:GDI32.dll
 0002:00000068       __imp__CreatePen@12        0043a068     gdi32:GDI32.dll
 0002:0000006c       __imp__DeleteObject@4      0043a06c     gdi32:GDI32.dll
 0002:00000070       __imp__DeleteDC@4          0043a070     gdi32:GDI32.dll
 0002:00000074       __imp__CreateSolidBrush@4  0043a074     gdi32:GDI32.dll
 0002:00000078       __imp__CreateFontIndirectW@4 0043a078     gdi32:GDI32.dll
 0002:0000007c       __imp__CreateDCW@16        0043a07c     gdi32:GDI32.dll
 0002:00000080       __imp__GetTextMetricsW@8   0043a080     gdi32:GDI32.dll
 0002:00000084       \177GDI32_NULL_THUNK_DATA  0043a084     gdi32:GDI32.dll
 0002:00000088       __imp__LCMapStringW@24     0043a088     kernel32:KERNEL32.dll
 0002:0000008c       __imp__GetStringTypeW@16   0043a08c     kernel32:KERNEL32.dll
 0002:00000090       __imp__OutputDebugStringW@4 0043a090     kernel32:KERNEL32.dll
 0002:00000094       __imp__RtlUnwind@16        0043a094     kernel32:KERNEL32.dll
 0002:00000098       __imp__HeapReAlloc@16      0043a098     kernel32:KERNEL32.dll
 0002:0000009c       __imp__LoadLibraryExW@12   0043a09c     kernel32:KERNEL32.dll
 0002:000000a0       __imp__LeaveCriticalSection@4 0043a0a0     kernel32:KERNEL32.dll
 0002:000000a4       __imp__FlushFileBuffers@4  0043a0a4     kernel32:KERNEL32.dll
 0002:000000a8       __imp__GetCPInfo@8         0043a0a8     kernel32:KERNEL32.dll
 0002:000000ac       __imp__DeleteFileW@4       0043a0ac     kernel32:KERNEL32.dll
 0002:000000b0       __imp__GetACP@0            0043a0b0     kernel32:KERNEL32.dll
 0002:000000b4       __imp__IsValidCodePage@4   0043a0b4     kernel32:KERNEL32.dll
 0002:000000b8       __imp__FreeEnvironmentStringsW@4 0043a0b8     kernel32:KERNEL32.dll
 0002:000000bc       __imp__GetEnvironmentStringsW@0 0043a0bc     kernel32:KERNEL32.dll
 0002:000000c0       __imp__GetSystemTimeAsFileTime@4 0043a0c0     kernel32:KERNEL32.dll
 0002:000000c4       __imp__GetCurrentProcessId@0 0043a0c4     kernel32:KERNEL32.dll
 0002:000000c8       __imp__QueryPerformanceCounter@4 0043a0c8     kernel32:KERNEL32.dll
 0002:000000cc       __imp__GetModuleFileNameW@12 0043a0cc     kernel32:KERNEL32.dll
 0002:000000d0       __imp__GetModuleFileNameA@12 0043a0d0     kernel32:KERNEL32.dll
 0002:000000d4       __imp__DeleteCriticalSection@4 0043a0d4     kernel32:KERNEL32.dll
 0002:000000d8       __imp__GetFileType@4       0043a0d8     kernel32:KERNEL32.dll
 0002:000000dc       __imp__GetStdHandle@4      0043a0dc     kernel32:KERNEL32.dll
 0002:000000e0       __imp__GetProcessHeap@0    0043a0e0     kernel32:KERNEL32.dll
 0002:000000e4       __imp__GetCurrentThreadId@0 0043a0e4     kernel32:KERNEL32.dll
 0002:000000e8       __imp__GetModuleHandleW@4  0043a0e8     kernel32:KERNEL32.dll
 0002:000000ec       __imp__GetStartupInfoW@4   0043a0ec     kernel32:KERNEL32.dll
 0002:000000f0       __imp__TlsFree@4           0043a0f0     kernel32:KERNEL32.dll
 0002:000000f4       __imp__TlsSetValue@8       0043a0f4     kernel32:KERNEL32.dll
 0002:000000f8       __imp__TlsGetValue@4       0043a0f8     kernel32:KERNEL32.dll
 0002:000000fc       __imp__TlsAlloc@0          0043a0fc     kernel32:KERNEL32.dll
 0002:00000100       __imp__TerminateProcess@8  0043a100     kernel32:KERNEL32.dll
 0002:00000104       __imp__GetCurrentProcess@0 0043a104     kernel32:KERNEL32.dll
 0002:00000108       __imp__InitializeCriticalSectionAndSpinCount@8 0043a108     kernel32:KERNEL32.dll
 0002:0000010c       __imp__SetLastError@4      0043a10c     kernel32:KERNEL32.dll
 0002:00000110       __imp__SetUnhandledExceptionFilter@4 0043a110     kernel32:KERNEL32.dll
 0002:00000114       __imp__UnhandledExceptionFilter@4 0043a114     kernel32:KERNEL32.dll
 0002:00000118       __imp__GetConsoleCP@0      0043a118     kernel32:KERNEL32.dll
 0002:0000011c       __imp__GetConsoleMode@8    0043a11c     kernel32:KERNEL32.dll
 0002:00000120       __imp__SetStdHandle@8      0043a120     kernel32:KERNEL32.dll
 0002:00000124       __imp__SetFilePointerEx@20 0043a124     kernel32:KERNEL32.dll
 0002:00000128       __imp__WriteConsoleW@20    0043a128     kernel32:KERNEL32.dll
 0002:0000012c       __imp__GetUserDefaultLangID@0 0043a12c     kernel32:KERNEL32.dll
 0002:00000130       __imp__GetProfileStringW@20 0043a130     kernel32:KERNEL32.dll
 0002:00000134       __imp__lstrlenW@4          0043a134     kernel32:KERNEL32.dll
 0002:00000138       __imp__lstrcatW@8          0043a138     kernel32:KERNEL32.dll
 0002:0000013c       __imp__lstrcpyW@8          0043a13c     kernel32:KERNEL32.dll
 0002:00000140       __imp__lstrcpynW@12        0043a140     kernel32:KERNEL32.dll
 0002:00000144       __imp__GlobalUnlock@4      0043a144     kernel32:KERNEL32.dll
 0002:00000148       __imp__GlobalLock@4        0043a148     kernel32:KERNEL32.dll
 0002:0000014c       __imp__GlobalAlloc@8       0043a14c     kernel32:KERNEL32.dll
 0002:00000150       __imp__CloseHandle@4       0043a150     kernel32:KERNEL32.dll
 0002:00000154       __imp__WriteFile@20        0043a154     kernel32:KERNEL32.dll
 0002:00000158       __imp__ReadFile@20         0043a158     kernel32:KERNEL32.dll
 0002:0000015c       __imp__EnterCriticalSection@4 0043a15c     kernel32:KERNEL32.dll
 0002:00000160       __imp__GetFileSize@8       0043a160     kernel32:KERNEL32.dll
 0002:00000164       __imp__HeapSize@12         0043a164     kernel32:KERNEL32.dll
 0002:00000168       __imp__WideCharToMultiByte@32 0043a168     kernel32:KERNEL32.dll
 0002:0000016c       __imp__MultiByteToWideChar@24 0043a16c     kernel32:KERNEL32.dll
 0002:00000170       __imp__GetOEMCP@0          0043a170     kernel32:KERNEL32.dll
 0002:00000174       __imp__CreateFileW@28      0043a174     kernel32:KERNEL32.dll
 0002:00000178       __imp__FindClose@4         0043a178     kernel32:KERNEL32.dll
 0002:0000017c       __imp__FindFirstFileW@8    0043a17c     kernel32:KERNEL32.dll
 0002:00000180       __imp__FindNextFileW@8     0043a180     kernel32:KERNEL32.dll
 0002:00000184       __imp__RemoveDirectoryW@4  0043a184     kernel32:KERNEL32.dll
 0002:00000188       __imp__GetDriveTypeW@4     0043a188     kernel32:KERNEL32.dll
 0002:0000018c       __imp__GetFileAttributesW@4 0043a18c     kernel32:KERNEL32.dll
 0002:00000190       __imp__SetErrorMode@4      0043a190     kernel32:KERNEL32.dll
 0002:00000194       __imp__lstrcmpiW@8         0043a194     kernel32:KERNEL32.dll
 0002:00000198       __imp__CopyFileW@12        0043a198     kernel32:KERNEL32.dll
 0002:0000019c       __imp__MoveFileW@8         0043a19c     kernel32:KERNEL32.dll
 0002:000001a0       __imp__LockFile@20         0043a1a0     kernel32:KERNEL32.dll
 0002:000001a4       __imp__SetEndOfFile@4      0043a1a4     kernel32:KERNEL32.dll
 0002:000001a8       __imp__SetFilePointer@16   0043a1a8     kernel32:KERNEL32.dll
 0002:000001ac       __imp__UnlockFile@20       0043a1ac     kernel32:KERNEL32.dll
 0002:000001b0       __imp__GetLastError@0      0043a1b0     kernel32:KERNEL32.dll
 0002:000001b4       __imp__Sleep@4             0043a1b4     kernel32:KERNEL32.dll
 0002:000001b8       __imp__lstrcmpW@8          0043a1b8     kernel32:KERNEL32.dll
 0002:000001bc       __imp__GetPrivateProfileStringW@24 0043a1bc     kernel32:KERNEL32.dll
 0002:000001c0       __imp__WritePrivateProfileStringW@16 0043a1c0     kernel32:KERNEL32.dll
 0002:000001c4       __imp__GetFileTime@16      0043a1c4     kernel32:KERNEL32.dll
 0002:000001c8       __imp__GetLocalTime@4      0043a1c8     kernel32:KERNEL32.dll
 0002:000001cc       __imp__CreateDirectoryW@8  0043a1cc     kernel32:KERNEL32.dll
 0002:000001d0       __imp__GetCommandLineW@0   0043a1d0     kernel32:KERNEL32.dll
 0002:000001d4       __imp__GetComputerNameW@8  0043a1d4     kernel32:KERNEL32.dll
 0002:000001d8       __imp__LocalFree@4         0043a1d8     kernel32:KERNEL32.dll
 0002:000001dc       __imp__WaitForSingleObject@8 0043a1dc     kernel32:KERNEL32.dll
 0002:000001e0       __imp__CreateProcessW@40   0043a1e0     kernel32:KERNEL32.dll
 0002:000001e4       __imp__EncodePointer@4     0043a1e4     kernel32:KERNEL32.dll
 0002:000001e8       __imp__DecodePointer@4     0043a1e8     kernel32:KERNEL32.dll
 0002:000001ec       __imp__IsDebuggerPresent@0 0043a1ec     kernel32:KERNEL32.dll
 0002:000001f0       __imp__IsProcessorFeaturePresent@4 0043a1f0     kernel32:KERNEL32.dll
 0002:000001f4       __imp__GetCommandLineA@0   0043a1f4     kernel32:KERNEL32.dll
 0002:000001f8       __imp__HeapAlloc@12        0043a1f8     kernel32:KERNEL32.dll
 0002:000001fc       __imp__RaiseException@16   0043a1fc     kernel32:KERNEL32.dll
 0002:00000200       __imp__HeapFree@12         0043a200     kernel32:KERNEL32.dll
 0002:00000204       __imp__ExitProcess@4       0043a204     kernel32:KERNEL32.dll
 0002:00000208       __imp__GetModuleHandleExW@12 0043a208     kernel32:KERNEL32.dll
 0002:0000020c       __imp__GetProcAddress@8    0043a20c     kernel32:KERNEL32.dll
 0002:00000210       \177KERNEL32_NULL_THUNK_DATA 0043a210     kernel32:KERNEL32.dll
 0002:00000214       __imp__CommandLineToArgvW@8 0043a214     shell32:SHELL32.dll
 0002:00000218       \177SHELL32_NULL_THUNK_DATA 0043a218     shell32:SHELL32.dll
 0002:0000021c       __imp__GetMessageW@16      0043a21c     user32:USER32.dll
 0002:00000220       __imp__TranslateMessage@4  0043a220     user32:USER32.dll
 0002:00000224       __imp__GetSystemMetrics@4  0043a224     user32:USER32.dll
 0002:00000228       __imp__IsDlgButtonChecked@8 0043a228     user32:USER32.dll
 0002:0000022c       __imp__GetDlgItemInt@16    0043a22c     user32:USER32.dll
 0002:00000230       __imp__SetDlgItemInt@16    0043a230     user32:USER32.dll
 0002:00000234       __imp__GetWindowPlacement@8 0043a234     user32:USER32.dll
 0002:00000238       __imp__DdeGetData@16       0043a238     user32:USER32.dll
 0002:0000023c       __imp__WinHelpW@16         0043a23c     user32:USER32.dll
 0002:00000240       __imp__MapDialogRect@8     0043a240     user32:USER32.dll
 0002:00000244       __imp__IsDialogMessageW@8  0043a244     user32:USER32.dll
 0002:00000248       __imp__LoadIconW@8         0043a248     user32:USER32.dll
 0002:0000024c       __imp__LoadCursorW@8       0043a24c     user32:USER32.dll
 0002:00000250       __imp__GetClassNameW@12    0043a250     user32:USER32.dll
 0002:00000254       __imp__FindWindowW@8       0043a254     user32:USER32.dll
 0002:00000258       __imp__EnumChildWindows@12 0043a258     user32:USER32.dll
 0002:0000025c       __imp__GetParent@4         0043a25c     user32:USER32.dll
 0002:00000260       __imp__GetDesktopWindow@0  0043a260     user32:USER32.dll
 0002:00000264       __imp__SetWindowLongW@12   0043a264     user32:USER32.dll
 0002:00000268       __imp__GetWindowLongW@8    0043a268     user32:USER32.dll
 0002:0000026c       __imp__PtInRect@12         0043a26c     user32:USER32.dll
 0002:00000270       __imp__GetSysColor@4       0043a270     user32:USER32.dll
 0002:00000274       __imp__MessageBeep@4       0043a274     user32:USER32.dll
 0002:00000278       __imp__MessageBoxW@16      0043a278     user32:USER32.dll
 0002:0000027c       __imp__SetWindowContextHelpId@8 0043a27c     user32:USER32.dll
 0002:00000280       __imp__GetWindowRect@8     0043a280     user32:USER32.dll
 0002:00000284       __imp__GetClientRect@8     0043a284     user32:USER32.dll
 0002:00000288       __imp__GetWindowTextLengthW@4 0043a288     user32:USER32.dll
 0002:0000028c       __imp__InvalidateRect@12   0043a28c     user32:USER32.dll
 0002:00000290       __imp__GetUpdateRect@12    0043a290     user32:USER32.dll
 0002:00000294       __imp__EndPaint@8          0043a294     user32:USER32.dll
 0002:00000298       __imp__BeginPaint@8        0043a298     user32:USER32.dll
 0002:0000029c       __imp__ReleaseDC@8         0043a29c     user32:USER32.dll
 0002:000002a0       __imp__GetDC@4             0043a2a0     user32:USER32.dll
 0002:000002a4       __imp__SetForegroundWindow@4 0043a2a4     user32:USER32.dll
 0002:000002a8       __imp__UpdateWindow@4      0043a2a8     user32:USER32.dll
 0002:000002ac       __imp__DrawTextW@20        0043a2ac     user32:USER32.dll
 0002:000002b0       __imp__TranslateAcceleratorW@12 0043a2b0     user32:USER32.dll
 0002:000002b4       __imp__LoadAcceleratorsW@8 0043a2b4     user32:USER32.dll
 0002:000002b8       __imp__EnableWindow@8      0043a2b8     user32:USER32.dll
 0002:000002bc       __imp__GetKeyState@4       0043a2bc     user32:USER32.dll
 0002:000002c0       __imp__GetFocus@0          0043a2c0     user32:USER32.dll
 0002:000002c4       __imp__SetFocus@4          0043a2c4     user32:USER32.dll
 0002:000002c8       __imp__IsCharAlphaNumericW@4 0043a2c8     user32:USER32.dll
 0002:000002cc       __imp__IsCharAlphaW@4      0043a2cc     user32:USER32.dll
 0002:000002d0       __imp__SendDlgItemMessageW@20 0043a2d0     user32:USER32.dll
 0002:000002d4       __imp__CheckRadioButton@16 0043a2d4     user32:USER32.dll
 0002:000002d8       __imp__CheckDlgButton@12   0043a2d8     user32:USER32.dll
 0002:000002dc       __imp__GetDlgItemTextW@16  0043a2dc     user32:USER32.dll
 0002:000002e0       __imp__SetDlgItemTextW@12  0043a2e0     user32:USER32.dll
 0002:000002e4       __imp__GetDlgItem@8        0043a2e4     user32:USER32.dll
 0002:000002e8       __imp__EndDialog@8         0043a2e8     user32:USER32.dll
 0002:000002ec       __imp__DialogBoxParamW@20  0043a2ec     user32:USER32.dll
 0002:000002f0       __imp__CreateDialogParamW@20 0043a2f0     user32:USER32.dll
 0002:000002f4       __imp__BringWindowToTop@4  0043a2f4     user32:USER32.dll
 0002:000002f8       __imp__IsIconic@4          0043a2f8     user32:USER32.dll
 0002:000002fc       __imp__CharToOemW@8        0043a2fc     user32:USER32.dll
 0002:00000300       __imp__wsprintfW           0043a300     user32:USER32.dll
 0002:00000304       __imp__GetSysColorBrush@4  0043a304     user32:USER32.dll
 0002:00000308       __imp__FillRect@12         0043a308     user32:USER32.dll
 0002:0000030c       __imp__CharUpperW@4        0043a30c     user32:USER32.dll
 0002:00000310       __imp__DdeInitializeW@16   0043a310     user32:USER32.dll
 0002:00000314       __imp__DdeUninitialize@4   0043a314     user32:USER32.dll
 0002:00000318       __imp__DdeConnect@16       0043a318     user32:USER32.dll
 0002:0000031c       __imp__DdeDisconnect@4     0043a31c     user32:USER32.dll
 0002:00000320       __imp__DdeClientTransaction@32 0043a320     user32:USER32.dll
 0002:00000324       __imp__DdeCreateStringHandleW@12 0043a324     user32:USER32.dll
 0002:00000328       __imp__DdeFreeStringHandle@8 0043a328     user32:USER32.dll
 0002:0000032c       __imp__DdeCmpStringHandles@8 0043a32c     user32:USER32.dll
 0002:00000330       __imp__LoadStringW@16      0043a330     user32:USER32.dll
 0002:00000334       __imp__SetCursor@4         0043a334     user32:USER32.dll
 0002:00000338       __imp__SetTimer@16         0043a338     user32:USER32.dll
 0002:0000033c       __imp__KillTimer@8         0043a33c     user32:USER32.dll
 0002:00000340       __imp__IsWindowEnabled@4   0043a340     user32:USER32.dll
 0002:00000344       __imp__ScreenToClient@8    0043a344     user32:USER32.dll
 0002:00000348       __imp__IsWindowVisible@4   0043a348     user32:USER32.dll
 0002:0000034c       __imp__MoveWindow@24       0043a34c     user32:USER32.dll
 0002:00000350       __imp__CloseWindow@4       0043a350     user32:USER32.dll
 0002:00000354       __imp__ShowWindow@8        0043a354     user32:USER32.dll
 0002:00000358       __imp__DestroyWindow@4     0043a358     user32:USER32.dll
 0002:0000035c       __imp__CreateWindowExW@48  0043a35c     user32:USER32.dll
 0002:00000360       __imp__RegisterClassW@4    0043a360     user32:USER32.dll
 0002:00000364       __imp__CallWindowProcW@20  0043a364     user32:USER32.dll
 0002:00000368       __imp__PostQuitMessage@4   0043a368     user32:USER32.dll
 0002:0000036c       __imp__DefWindowProcW@16   0043a36c     user32:USER32.dll
 0002:00000370       __imp__PostMessageW@16     0043a370     user32:USER32.dll
 0002:00000374       __imp__SendMessageW@16     0043a374     user32:USER32.dll
 0002:00000378       __imp__DispatchMessageW@4  0043a378     user32:USER32.dll
 0002:0000037c       \177USER32_NULL_THUNK_DATA 0043a37c     user32:USER32.dll
 0002:00000380       __imp__DocumentPropertiesW@24 0043a380     winspool:WINSPOOL.DRV
 0002:00000384       __imp__ClosePrinter@4      0043a384     winspool:WINSPOOL.DRV
 0002:00000388       __imp__OpenPrinterW@12     0043a388     winspool:WINSPOOL.DRV
 0002:0000038c       \177WINSPOOL_NULL_THUNK_DATA 0043a38c     winspool:WINSPOOL.DRV
 0002:00000390       ___xc_a                    0043a390     LIBCMT:crt0init.obj
 0002:00000474       ___xc_z                    0043a474     LIBCMT:crt0init.obj
 0002:00000478       ___xi_a                    0043a478     LIBCMT:crt0init.obj
 0002:00000494       ___xi_z                    0043a494     LIBCMT:crt0init.obj
 0002:00000498       ___xp_a                    0043a498     LIBCMT:crt0init.obj
 0002:000004a8       ___xp_z                    0043a4a8     LIBCMT:crt0init.obj
 0002:000004ac       ___xt_a                    0043a4ac     LIBCMT:crt0init.obj
 0002:000004b0       ___xt_z                    0043a4b0     LIBCMT:crt0init.obj
 0002:000004c0       ??_C@_1BI@EFNLHILH@?$AAB?$AAA?$AAS?$AAI?$AAC?$AA_?$AAS?$AAE?$AAT?$AAU?$AAP?$AA?$AA@ 0043a4c0     editpart.obj
 0002:000004d8       ??_C@_1BO@HNADFAIP@?$AAA?$AAD?$AAV?$AAA?$AAN?$AAC?$AAE?$AAD?$AA_?$AAS?$AAE?$AAT?$AAU?$AAP?$AA?$AA@ 0043a4d8     editpart.obj
 0002:000004f8       ??_C@_1CC@EEGIKJAF@?$AAP?$AAA?$AAR?$AAA?$AAM?$AAE?$AAT?$AAE?$AAR?$AA_?$AAL?$AAI?$AAM?$AAI?$AAT?$AAS?$AA?$AA@ 0043a4f8     editpart.obj
 0002:0000051c       ??_C@_1CO@NLKBOLEI@?$AAU?$AAS?$AAE?$AAR?$AA_?$AAD?$AAE?$AAF?$AAI?$AAN?$AAE?$AAD?$AA_?$AAP?$AAO?$AAS?$AAI?$AAT?$AAI?$AAO?$AAN?$AAS?$AA?$AA@ 0043a51c     editpart.obj
 0002:0000054c       ??_C@_1BM@DFADIFFO@?$AAP?$AAR?$AAO?$AAF?$AAI?$AAL?$AAE?$AA_?$AAM?$AAA?$AAR?$AAK?$AAS?$AA?$AA@ 0043a54c     editpart.obj
 0002:00000568       ??_C@_1CC@FMNODMHI@?$AAF?$AAA?$AAS?$AAT?$AAR?$AAA?$AAK?$AA_?$AAC?$AAH?$AAA?$AAN?$AAN?$AAE?$AAL?$AAS?$AA?$AA@ 0043a568     editpart.obj
 0002:0000058c       ??_C@_1CC@LDDLKDII@?$AAS?$AAU?$AAR?$AAE?$AAT?$AAR?$AAA?$AAK?$AA_?$AAP?$AAR?$AAO?$AAF?$AAI?$AAL?$AAE?$AA?$AA@ 0043a58c     editpart.obj
 0002:000005b0       ??_C@_1DC@JLKMNDO@?$AAP?$AAR?$AAE?$AAS?$AAS?$AAU?$AAR?$AAE?$AA_?$AAC?$AAO?$AAN?$AAT?$AAR?$AAO?$AAL?$AA_?$AAP?$AAR?$AAO?$AAF?$AAI?$AAL?$AAE?$AA?$AA@ 0043a5b0     editpart.obj
 0002:000005e4       ??_C@_1CG@EILFJOJH@?$AAS?$AAE?$AAT?$AAU?$AAP?$AA_?$AAS?$AAH?$AAE?$AAE?$AAT?$AA_?$AAD?$AAI?$AAA?$AAL?$AAO?$AAG?$AA?$AA@ 0043a5e4     editpart.obj
 0002:0000060c       ??_C@_1DK@FNIFHLIL@?$AAn?$AAe?$AAe?$AAd?$AA_?$AAa?$AAu?$AAt?$AAo?$AA_?$AAs?$AAa?$AAv?$AAe?$AA_?$AAa?$AAl?$AAl?$AA_?$AAp?$AAa?$AAr?$AAt?$AAs?$AA?4?$AAt?$AAx?$AAt?$AA?$AA@ 0043a60c     editpart.obj
 0002:00000648       ??_C@_1DC@NEGFOPPH@?$AAd?$AAe?$AAf?$AAa?$AAu?$AAl?$AAt?$AA_?$AAh?$AAm?$AAi?$AA_?$AAs?$AAe?$AAt?$AAt?$AAi?$AAn?$AAg?$AAs?$AA?4?$AAc?$AAs?$AAv?$AA?$AA@ 0043a648     editpart.obj
 0002:0000067c       ??_C@_1DC@IMHKOKID@?$AAf?$AAt?$AAi?$AAi?$AA_?$AAe?$AAd?$AAi?$AAt?$AAo?$AAr?$AA_?$AAs?$AAe?$AAt?$AAt?$AAi?$AAn?$AAg?$AAs?$AA?4?$AAi?$AAn?$AAi?$AA?$AA@ 0043a67c     editpart.obj
 0002:000006b0       ??_C@_1CO@DNCHNEPD@?$AAf?$AAt?$AAi?$AAi?$AA_?$AAp?$AAa?$AAr?$AAt?$AA_?$AAs?$AAe?$AAt?$AAt?$AAi?$AAn?$AAg?$AAs?$AA?4?$AAt?$AAx?$AAt?$AA?$AA@ 0043a6b0     editpart.obj
 0002:000006e0       ??_C@_1BG@FIHCLNNM@?$AAF?$AAT?$AAC?$AAH?$AAA?$AAN?$AA?4?$AAT?$AAX?$AAT?$AA?$AA@ 0043a6e0     editpart.obj
 0002:000006f8       ??_C@_1BK@KAADPACA@?$AAG?$AAR?$AAA?$AAP?$AAH?$AAL?$AAS?$AAT?$AA?4?$AAT?$AAX?$AAT?$AA?$AA@ 0043a6f8     editpart.obj
 0002:00000714       ??_C@_1CM@OGICAEDA@?$AAI?$AAM?$AAP?$AAA?$AAC?$AAT?$AA_?$AAP?$AAA?$AAR?$AAA?$AAM?$AA_?$AAF?$AAI?$AAL?$AAE?$AA?4?$AAC?$AAS?$AAV?$AA?$AA@ 0043a714     editpart.obj
 0002:00000740       ??_C@_1BO@HMPNJNPO@?$AAS?$AAe?$AAt?$AAu?$AAp?$AAS?$AAh?$AAe?$AAe?$AAt?$AA?4?$AAt?$AAx?$AAt?$AA?$AA@ 0043a740     editpart.obj
 0002:00000760       ??_C@_1BK@FLHBKDPP@?$AAS?$AAH?$AAO?$AAT?$AAP?$AAA?$AAR?$AAM?$AA?4?$AAC?$AAS?$AAV?$AA?$AA@ 0043a760     editpart.obj
 0002:00000780       ??_7WINDOW_CLASS@@6B@      0043a780     editpart.obj
 0002:00000788       ??_7FTII_VAR@@6B@          0043a788     editpart.obj
 0002:000007b4       ??_7FTII_VAR_ARRAY@@6B@    0043a7b4     editpart.obj
 0002:000007e0       ??_C@_1EC@LHMBCLOK@?$AAr?$AAe?$AAs?$AAt?$AAr?$AAi?$AAc?$AAt?$AAe?$AAd?$AA?9?$AAp?$AAa?$AAr?$AAt?$AA?9?$AAe?$AAn?$AAt?$AAr?$AAy?$AA?9?$AAs?$AAc?$AAr?$AAe?$AAe?$AAn?$AA?4?$AAi?$AAn?$AAi@ 0043a7e0     editpart.obj
 0002:00000824       ??_C@_1BK@PMNKINEA@?$AAC?$AAU?$AAR?$AAR?$AAE?$AAN?$AAT?$AA_?$AAP?$AAA?$AAR?$AAT?$AA?$AA@ 0043a824     editpart.obj
 0002:00000840       ??_C@_1CE@KBBOMLLD@?$AAM?$AAO?$AAN?$AAI?$AAT?$AAO?$AAR?$AA_?$AAT?$AAH?$AAI?$AAS?$AA_?$AAP?$AAA?$AAR?$AAT?$AA?$AA@ 0043a840     editpart.obj
 0002:00000864       ??_C@_1CC@GIDNAGLE@?$AAN?$AAO?$AAT?$AA_?$AAC?$AAU?$AAR?$AAR?$AAE?$AAN?$AAT?$AA_?$AAP?$AAA?$AAR?$AAT?$AA?$AA@ 0043a864     editpart.obj
 0002:00000888       ??_C@_1CG@ELIJAAML@?$AAB?$AAI?$AAS?$AAC?$AAU?$AAI?$AAT?$AA_?$AAT?$AAI?$AAM?$AAE?$AA_?$AAD?$AAE?$AAL?$AAA?$AAY?$AA?$AA@ 0043a888     editpart.obj
 0002:000008b0       ??_C@_1DA@DBNGJJAD@?$AAT?$AAI?$AAM?$AAE?$AA_?$AAT?$AAO?$AA_?$AAM?$AAE?$AAA?$AAS?$AAU?$AAR?$AAE?$AA_?$AAB?$AAI?$AAS?$AAC?$AAU?$AAI?$AAT?$AA?$AA@ 0043a8b0     editpart.obj
 0002:000008e0       ??_C@_1BA@GEPPDPCA@?$AAB?$AAR?$AAE?$AAA?$AAK?$AA_?$AA1?$AA?$AA@ 0043a8e0     editpart.obj
 0002:000008f0       ??_C@_1BA@HGEKJAMO@?$AAB?$AAR?$AAE?$AAA?$AAK?$AA_?$AA2?$AA?$AA@ 0043a8f0     editpart.obj
 0002:00000900       ??_C@_1BA@MOPGPHKL@?$AAB?$AAR?$AAE?$AAA?$AAK?$AA_?$AA3?$AA?$AA@ 0043a900     editpart.obj
 0002:00000910       ??_C@_1BM@IODFBCOF@?$AAV?$AAE?$AAL?$AA_?$AAL?$AAO?$AAO?$AAP?$AA_?$AAG?$AAA?$AAI?$AAN?$AA?$AA@ 0043a910     editpart.obj
 0002:0000092c       ??_C@_1CE@NIHMMMMF@?$AAM?$AAI?$AAS?$AAS?$AAI?$AAN?$AAG?$AA_?$AAF?$AAI?$AAL?$AAE?$AA_?$AAD?$AAE?$AAS?$AAC?$AA?$AA@ 0043a92c     editpart.obj
 0002:00000950       ??_C@_1CI@EPODEGIH@?$AAM?$AAI?$AAS?$AAS?$AAI?$AAN?$AAG?$AA_?$AAF?$AAI?$AAL?$AAE?$AA_?$AAA?$AAC?$AAT?$AAI?$AAO?$AAN?$AA?$AA@ 0043a950     editpart.obj
 0002:00000978       ??_C@_1BG@OBIDLKBA@?$AAC?$AAH?$AA_?$AA1?$AA_?$AAL?$AAA?$AAB?$AAE?$AAL?$AA?$AA@ 0043a978     editpart.obj
 0002:00000990       ??_C@_1BG@MIELAOOC@?$AAC?$AAH?$AA_?$AA2?$AA_?$AAL?$AAA?$AAB?$AAE?$AAL?$AA?$AA@ 0043a990     editpart.obj
 0002:000009a8       ??_C@_1BG@GGCDJPHD@?$AAC?$AAH?$AA_?$AA3?$AA_?$AAL?$AAA?$AAB?$AAE?$AAL?$AA?$AA@ 0043a9a8     editpart.obj
 0002:000009c0       ??_C@_1BG@JLNKGHAG@?$AAC?$AAH?$AA_?$AA4?$AA_?$AAL?$AAA?$AAB?$AAE?$AAL?$AA?$AA@ 0043a9c0     editpart.obj
 0002:000009d8       ??_C@_1BG@DFLCPGJH@?$AAC?$AAH?$AA_?$AA5?$AA_?$AAL?$AAA?$AAB?$AAE?$AAL?$AA?$AA@ 0043a9d8     editpart.obj
 0002:000009f0       ??_C@_1BG@BMHKECGF@?$AAC?$AAH?$AA_?$AA6?$AA_?$AAL?$AAA?$AAB?$AAE?$AAL?$AA?$AA@ 0043a9f0     editpart.obj
 0002:00000a08       ??_C@_1BG@LCBCNDPE@?$AAC?$AAH?$AA_?$AA7?$AA_?$AAL?$AAA?$AAB?$AAE?$AAL?$AA?$AA@ 0043aa08     editpart.obj
 0002:00000a20       ??_C@_1BG@DMPILEMO@?$AAC?$AAH?$AA_?$AA8?$AA_?$AAL?$AAA?$AAB?$AAE?$AAL?$AA?$AA@ 0043aa20     editpart.obj
 0002:00000a38       ??_C@_1BO@DHCMIMAL@?$AAI?$AAN?$AAT?$AAE?$AAR?$AAN?$AAA?$AAL?$AA_?$AAP?$AAA?$AAR?$AAA?$AAM?$AA?$AA@ 0043aa38     editpart.obj
 0002:00000a58       ??_C@_1CK@PDGPDPOJ@?$AAF?$AAA?$AAS?$AAT?$AAR?$AAA?$AAK?$AA_?$AAA?$AAN?$AAA?$AAL?$AAO?$AAG?$AA_?$AAI?$AAN?$AAP?$AAU?$AAT?$AA?$AA@ 0043aa58     editpart.obj
 0002:00000a84       ??_C@_1BC@BEKFCGJM@?$AAF?$AAT?$AA_?$AAO?$AAN?$AAO?$AAF?$AAF?$AA?$AA@ 0043aa84     editpart.obj
 0002:00000a98       ??_C@_1BE@IIOGCMCD@?$AAF?$AAT?$AA_?$AAT?$AAA?$AAR?$AAG?$AAE?$AAT?$AA?$AA@ 0043aa98     editpart.obj
 0002:00000aac       ??_C@_1BG@OBLFFMIL@?$AAF?$AAT?$AA_?$AAD?$AAI?$AAG?$AAI?$AAT?$AAA?$AAL?$AA?$AA@ 0043aaac     editpart.obj
 0002:00000ac4       ??_C@_1BA@HPGCOJFL@?$AAF?$AAT?$AA_?$AAC?$AAA?$AAL?$AAC?$AA?$AA@ 0043aac4     editpart.obj
 0002:00000ad4       ??_C@_1CG@LLEFDLF@?$AAF?$AAT?$AA_?$AAE?$AAX?$AAT?$AAE?$AAN?$AAD?$AAE?$AAD?$AA_?$AAA?$AAN?$AAA?$AAL?$AAO?$AAG?$AA?$AA@ 0043aad4     editpart.obj
 0002:00000afc       ??_C@_1BO@NDHEHMPM@?$AAF?$AAT?$AA_?$AAP?$AAE?$AAA?$AAK?$AA_?$AAF?$AAS?$AA_?$AAV?$AAE?$AAL?$AA?$AA@ 0043aafc     editpart.obj
 0002:00000b1c       ??_C@_1CE@GCHFPHKB@?$AAF?$AAT?$AA_?$AAE?$AAX?$AAT?$AAE?$AAR?$AAN?$AAA?$AAL?$AA_?$AAP?$AAA?$AAR?$AAA?$AAM?$AA?$AA@ 0043ab1c     editpart.obj
 0002:00000b40       ??_C@_1CK@JGBHHFDP@?$AAF?$AAT?$AA_?$AAS?$AAT?$AAA?$AAT?$AAI?$AAC?$AA_?$AAT?$AAE?$AAX?$AAT?$AA_?$AAP?$AAA?$AAR?$AAA?$AAM?$AA?$AA@ 0043ab40     editpart.obj
 0002:00000b6c       ??_C@_1CM@KFLPDOII@?$AAM?$AAA?$AAC?$AAH?$AAI?$AAN?$AAE?$AA_?$AAN?$AAO?$AAT?$AA_?$AAM?$AAO?$AAN?$AAI?$AAT?$AAO?$AAR?$AAE?$AAD?$AA?$AA@ 0043ab6c     editpart.obj
 0002:00000b98       ??_C@_1BA@HABJOAEE@?$AAU?$AAN?$AAK?$AAN?$AAO?$AAW?$AAN?$AA?$AA@ 0043ab98     editpart.obj
 0002:00000ba8       ??_C@_17KNIAGABN@?$AAM?$AAO?$AAN?$AA?$AA@ 0043aba8     editpart.obj
 0002:00000bb0       ??_C@_1BG@GIMCIKAG@?$AAv?$AA5?$AAh?$AAe?$AAl?$AAp?$AA?4?$AAh?$AAl?$AAp?$AA?$AA@ 0043abb0     editpart.obj
 0002:00000bc8       ??_C@_17LGKOMLJ@?$AA?4?$AA?4?$AA?4?$AA?$AA@ 0043abc8     editpart.obj
 0002:00000bd0       ??_C@_1O@LNKPKJJI@?$AAd?$AAe?$AAv?$AAi?$AAc?$AAe?$AA?$AA@ 0043abd0     editpart.obj
 0002:00000be0       ??_C@_1BA@GMFJBEKP@?$AAw?$AAi?$AAn?$AAd?$AAo?$AAw?$AAs?$AA?$AA@ 0043abe0     editpart.obj
 0002:00000bf0       ??_C@_1CI@EBHHMJBG@?$AAC?$AAH?$AAA?$AAN?$AAN?$AAE?$AAL?$AAS?$AA_?$AAT?$AAA?$AAB?$AA_?$AAS?$AAT?$AAR?$AAI?$AAN?$AAG?$AA?$AA@ 0043abf0     editpart.obj
 0002:00000c18       ??_C@_1BE@ONONGLFB@?$AAS?$AAT?$AA_?$AAP?$AAA?$AAR?$AAA?$AAM?$AAS?$AA?$AA@ 0043ac18     editpart.obj
 0002:00000c2c       ??_C@_1BI@GCHODEFB@?$AAG?$AAA?$AAI?$AAN?$AA_?$AAS?$AAT?$AAR?$AAI?$AAN?$AAG?$AA?$AA@ 0043ac2c     editpart.obj
 0002:00000c44       ??_C@_1BO@CLJKOFCM@?$AAP?$AAA?$AAR?$AAA?$AAM?$AAE?$AAT?$AAE?$AAR?$AAS?$AA_?$AAT?$AAA?$AAB?$AA?$AA@ 0043ac44     editpart.obj
 0002:00000c64       ??_C@_1CA@LCPHFGGJ@?$AAS?$AAE?$AAT?$AAU?$AAP?$AA_?$AAS?$AAH?$AAE?$AAE?$AAT?$AA_?$AAT?$AAA?$AAB?$AA?$AA@ 0043ac64     editpart.obj
 0002:00000c84       ??_C@_1CC@DLJEMNON@?$AAT?$AAr?$AAu?$AAe?$AAT?$AAr?$AAa?$AAk?$AA?5?$AAP?$AAr?$AAo?$AAf?$AAi?$AAl?$AAe?$AA?$AA@ 0043ac84     editpart.obj
 0002:00000ca8       ??_C@_1BK@EDNKBALB@?$AAA?$AAD?$AAV?$AAA?$AAN?$AAC?$AAE?$AAD?$AA_?$AAT?$AAA?$AAB?$AA?$AA@ 0043aca8     editpart.obj
 0002:00000cc4       ??_C@_1BM@PBHHDILE@?$AAP?$AAO?$AAS?$AAI?$AAT?$AAI?$AAO?$AAN?$AAS?$AA_?$AAT?$AAA?$AAB?$AA?$AA@ 0043acc4     editpart.obj
 0002:00000ce0       ??_C@_1CI@IAMPPDGE@?$AAS?$AAU?$AAR?$AAE?$AAT?$AAR?$AAA?$AAK?$AA_?$AAT?$AAA?$AAB?$AA_?$AAS?$AAT?$AAR?$AAI?$AAN?$AAG?$AA?$AA@ 0043ace0     editpart.obj
 0002:00000d08       ??_C@_1CA@HBGGIBBF@?$AAS?$AAT?$AAA?$AAR?$AAT?$AA_?$AAP?$AAO?$AAS?$AA_?$AAM?$AAA?$AAR?$AAK?$AA_?$AA?$AA@ 0043ad08     editpart.obj
 0002:00000d28       ??_C@_1BM@HMMCFDJL@?$AAE?$AAN?$AAD?$AA_?$AAP?$AAO?$AAS?$AA_?$AAM?$AAA?$AAR?$AAK?$AA_?$AA?$AA@ 0043ad28     editpart.obj
 0002:00000d44       ??_C@_1BM@BADAHJJG@?$AAV?$AAE?$AAL?$AA_?$AAP?$AAO?$AAS?$AA_?$AAM?$AAA?$AAR?$AAK?$AA_?$AA?$AA@ 0043ad44     editpart.obj
 0002:00000d60       ??_C@_13KDLDGPGJ@?$AA?7?$AA?$AA@ 0043ad60     editpart.obj
 0002:00000d64       ??_C@_1CA@DNBJCPJO@?$AAP?$AAO?$AAS?$AAI?$AAT?$AAI?$AAO?$AAN?$AA_?$AAS?$AAT?$AAR?$AAI?$AAN?$AAG?$AA?$AA@ 0043ad64     editpart.obj
 0002:00000d84       ??_C@_1CA@EKIMNJAB@?$AAV?$AAE?$AAL?$AAO?$AAC?$AAI?$AAT?$AAY?$AA_?$AAS?$AAT?$AAR?$AAI?$AAN?$AAG?$AA?$AA@ 0043ad84     editpart.obj
 0002:00000da4       ??_C@_1BO@FAIMABMJ@?$AAP?$AAE?$AAR?$AAC?$AAE?$AAN?$AAT?$AA_?$AAS?$AAT?$AAR?$AAI?$AAN?$AAG?$AA?$AA@ 0043ada4     editpart.obj
 0002:00000dc4       ??_C@_1BE@IAOLHCOM@?$AAO?$AAN?$AA_?$AAS?$AAT?$AAR?$AAI?$AAN?$AAG?$AA?$AA@ 0043adc4     editpart.obj
 0002:00000dd8       ??_C@_1BG@NOCOCAPO@?$AAO?$AAF?$AAF?$AA_?$AAS?$AAT?$AAR?$AAI?$AAN?$AAG?$AA?$AA@ 0043add8     editpart.obj
 0002:00000df0       ??_C@_1BG@NCANJLAO@?$AAL?$AAO?$AAW?$AA_?$AAI?$AAM?$AAP?$AAA?$AAC?$AAT?$AA?$AA@ 0043adf0     editpart.obj
 0002:00000e08       ??_C@_1CA@JKPPJGFA@?$AAP?$AAR?$AAE?$AAS?$AAS?$AAU?$AAR?$AAE?$AA_?$AAS?$AAT?$AAR?$AAI?$AAN?$AAG?$AA?$AA@ 0043ae08     editpart.obj
 0002:00000e28       ??_C@_1CA@HNJIJBHM@?$AAR?$AAE?$AAT?$AAR?$AAA?$AAC?$AAT?$AA_?$AAP?$AAE?$AAR?$AAC?$AAE?$AAN?$AAT?$AA?$AA@ 0043ae28     editpart.obj
 0002:00000e48       ??_C@_1BM@JPMOFLBD@?$AAR?$AAE?$AAT?$AAR?$AAA?$AAC?$AAT?$AA_?$AAV?$AAO?$AAL?$AAT?$AAS?$AA?$AA@ 0043ae48     editpart.obj
 0002:00000e64       ??_C@_1CG@HNEDNMHL@?$AAV?$AAA?$AAL?$AAV?$AAE?$AA_?$AAP?$AAA?$AAR?$AAK?$AA_?$AAP?$AAE?$AAR?$AAC?$AAE?$AAN?$AAT?$AA?$AA@ 0043ae64     editpart.obj
 0002:00000e8c       ??_C@_1CC@GIIPBIBC@?$AAV?$AAA?$AAL?$AAV?$AAE?$AA_?$AAP?$AAA?$AAR?$AAK?$AA_?$AAV?$AAO?$AAL?$AAT?$AAS?$AA?$AA@ 0043ae8c     editpart.obj
 0002:00000eb0       ??_C@_17OFLHAIFD@?$AA?4?$AA0?$AA?$CF?$AA?$AA@ 0043aeb0     editpart.obj
 0002:00000eb8       ??_C@_15OPBPDEAH@?$AAL?$AAS?$AA?$AA@ 0043aeb8     editpart.obj
 0002:00000ec0       ??_C@_17OCEDFABH@?$AAP?$AA1?$AA3?$AA?$AA@ 0043aec0     editpart.obj
 0002:00000ec8       ??_C@_17BHDHJGHJ@?$AAP?$AA3?$AA2?$AA?$AA@ 0043aec8     editpart.obj
 0002:00000ed0       ??_C@_1CC@LNBCBCAA@?$AAP?$AAE?$AAA?$AAK?$AA_?$AAF?$AAS?$AA_?$AAV?$AAE?$AAL?$AAO?$AAC?$AAI?$AAT?$AAY?$AA?$AA@ 0043aed0     editpart.obj
 0002:00000ef4       ??_C@_1BM@MJMAJLBM@?$AAN?$AAE?$AAW?$AA_?$AAP?$AAA?$AAR?$AAM?$AA_?$AAN?$AAA?$AAM?$AAE?$AA?$AA@ 0043aef4     editpart.obj
 0002:00000f10       ??_C@_1CK@JLOCFCBE@?$AAC?$AAA?$AAN?$AAN?$AAO?$AAT?$AA_?$AAC?$AAO?$AAM?$AAP?$AAL?$AAY?$AA_?$AAS?$AAT?$AAR?$AAI?$AAN?$AAG?$AA?$AA@ 0043af10     editpart.obj
 0002:00000f3c       ??_C@_1CM@HLJHKDHP@?$AAN?$AAO?$AA_?$AAD?$AAE?$AAL?$AA_?$AAI?$AAN?$AAT?$AAE?$AAR?$AAN?$AAA?$AAL?$AA_?$AAP?$AAA?$AAR?$AAA?$AAM?$AA?$AA@ 0043af3c     editpart.obj
 0002:00000f68       ??_C@_1M@JNIKMMA@?$AAL?$AAI?$AA_?$AAG?$AAT?$AA?$AA@ 0043af68     editpart.obj
 0002:00000f74       ??_C@_1BM@KFCHAOCP@?$AAI?$AAN?$AAV?$AAA?$AAL?$AAI?$AAD?$AA_?$AAE?$AAN?$AAT?$AAR?$AAY?$AA?$AA@ 0043af74     editpart.obj
 0002:00000f90       ??_C@_1DA@LPINAKJK@?$AAV?$AAE?$AAL?$AAO?$AAC?$AAI?$AAT?$AAY?$AA_?$AAC?$AAH?$AAA?$AAN?$AAG?$AAE?$AAS?$AA_?$AAS?$AAT?$AAR?$AAI?$AAN?$AAG?$AA?$AA@ 0043af90     editpart.obj
 0002:00000fc0       ??_C@_13IEJJBAMJ@?$AA2?$AA?$AA@ 0043afc0     editpart.obj
 0002:00000fc4       ??_C@_13DMCFHHKM@?$AA3?$AA?$AA@ 0043afc4     editpart.obj
 0002:00000fc8       ??_C@_1BI@LKEDGFNC@?$AAO?$AAN?$AAE?$AA_?$AAO?$AAR?$AA_?$AAM?$AAO?$AAR?$AAE?$AA?$AA@ 0043afc8     editpart.obj
 0002:00000fe0       ??_C@_1BO@FBHMHOFI@?$AAZ?$AAE?$AAR?$AAO?$AA_?$AAN?$AAO?$AAT?$AA_?$AAV?$AAA?$AAL?$AAI?$AAD?$AA?$AA@ 0043afe0     editpart.obj
 0002:00001000       ??_C@_1BK@FDHLFLPL@?$AAC?$AAL?$AAO?$AAS?$AAE?$AA_?$AAS?$AAT?$AAR?$AAI?$AAN?$AAG?$AA?$AA@ 0043b000     editpart.obj
 0002:0000101c       ??_C@_1BI@LOHCJFPN@?$AAC?$AAH?$AAA?$AAN?$AAG?$AAE?$AA_?$AAI?$AAN?$AAF?$AAO?$AA?$AA@ 0043b01c     editpart.obj
 0002:00001034       ??_C@_1DC@ILJIBECB@?$AAM?$AAA?$AAC?$AAH?$AAI?$AAN?$AAE?$AA_?$AAH?$AAA?$AAS?$AA_?$AAB?$AAI?$AAN?$AAA?$AAR?$AAY?$AA_?$AAV?$AAA?$AAL?$AAV?$AAE?$AA?$AA@ 0043b034     editpart.obj
 0002:00001068       ??_C@_1DO@MDIBLLGG@?$AAM?$AAU?$AAS?$AAT?$AA_?$AAS?$AAP?$AAE?$AAC?$AAI?$AAF?$AAY?$AA_?$AAL?$AAA?$AAS?$AAT?$AA_?$AAS?$AAT?$AAE?$AAP?$AA_?$AAE?$AAN?$AAD?$AA_?$AAP?$AAO?$AAS?$AA?$AA@ 0043b068     editpart.obj
 0002:000010a8       ??_C@_1DG@KIAMANOH@?$AAN?$AAO?$AA_?$AAL?$AAA?$AAS?$AAT?$AA_?$AAS?$AAT?$AAE?$AAP?$AA_?$AAE?$AAN?$AAD?$AA_?$AAP?$AAO?$AAS?$AA_?$AAF?$AAO?$AAU?$AAN?$AAD?$AA?$AA@ 0043b0a8     editpart.obj
 0002:000010e0       ??_C@_1EE@JHODBAAN@?$AAM?$AAU?$AAS?$AAT?$AA_?$AAS?$AAP?$AAE?$AAC?$AAI?$AAF?$AAY?$AA_?$AAL?$AAA?$AAS?$AAT?$AA_?$AAS?$AAT?$AAE?$AAP?$AA_?$AAL?$AAO?$AAW?$AA_?$AAI?$AAM?$AAP?$AAA?$AAC@ 0043b0e0     editpart.obj
 0002:00001124       ??_C@_1DM@DJDOLFEA@?$AAN?$AAO?$AA_?$AAL?$AAA?$AAS?$AAT?$AA_?$AAS?$AAT?$AAE?$AAP?$AA_?$AAL?$AAO?$AAW?$AA_?$AAI?$AAM?$AAP?$AAA?$AAC?$AAT?$AA_?$AAF?$AAO?$AAU?$AAN?$AAD?$AA?$AA@ 0043b124     editpart.obj
 0002:00001160       ??_C@_1BK@OAECGKB@?$AAM?$AAI?$AAS?$AAS?$AAI?$AAN?$AAG?$AA_?$AAF?$AAI?$AAL?$AAE?$AA?$AA@ 0043b160     editpart.obj
 0002:0000117c       ??_C@_1CI@NFBIMLMJ@?$AAM?$AAI?$AAS?$AAS?$AAI?$AAN?$AAG?$AA_?$AAF?$AAI?$AAL?$AAE?$AA_?$AAD?$AAI?$AAA?$AAL?$AAO?$AAG?$AA?$AA@ 0043b17c     editpart.obj
 0002:000011a4       ??_C@_1CI@HJCIPAAM@?$AAM?$AAi?$AAn?$AAL?$AAo?$AAw?$AAI?$AAm?$AAp?$AAa?$AAc?$AAt?$AAP?$AAe?$AAr?$AAc?$AAe?$AAn?$AAt?$AA?$AA@ 0043b1a4     editpart.obj
 0002:000011cc       ??_C@_1BI@BBHINJNB@?$AAM?$AAa?$AAx?$AAV?$AAe?$AAl?$AAo?$AAc?$AAi?$AAt?$AAy?$AA?$AA@ 0043b1cc     editpart.obj
 0002:00001200       ??_C@_1CC@OLLEBEFG@?$AAN?$AAO?$AA_?$AAA?$AAS?$AAE?$AAN?$AAS?$AAO?$AAR?$AA_?$AAS?$AAT?$AAA?$AAR?$AAT?$AA?$AA@ 0043b200     editpart.obj
 0002:00001224       ??_C@_1BO@LPOFFCIE@?$AAN?$AAO?$AA_?$AAA?$AAS?$AAE?$AAN?$AAS?$AAO?$AAR?$AA_?$AAE?$AAN?$AAD?$AA?$AA@ 0043b224     editpart.obj
 0002:00001244       ??_C@_1CC@JONGOEND@?$AAN?$AAO?$AA_?$AAA?$AAS?$AAE?$AAN?$AAS?$AAO?$AAR?$AA_?$AAL?$AAI?$AAN?$AAE?$AA2?$AA?$AA@ 0043b244     editpart.obj
 0002:00001268       ??_C@_1CC@HKIDFAPB@?$AAI?$AAN?$AAV?$AAA?$AAL?$AAI?$AAD?$AA_?$AAL?$AAI?$AA_?$AAE?$AAN?$AAT?$AAR?$AAY?$AA?$AA@ 0043b268     editpart.obj
 0002:0000128c       ??_C@_1CA@LAOBOCAN@?$AAS?$AAO?$AAM?$AAE?$AA_?$AAL?$AAI?$AA_?$AAC?$AAH?$AAA?$AAN?$AAG?$AAE?$AAD?$AA?$AA@ 0043b28c     editpart.obj
 0002:000012ac       ??_C@_1CA@IKCFDBGM@?$AAN?$AAO?$AA_?$AAB?$AAO?$AAT?$AAH?$AA_?$AAP?$AAE?$AAR?$AAC?$AAE?$AAN?$AAT?$AA?$AA@ 0043b2ac     editpart.obj
 0002:000012cc       ??_C@_1DI@GBLJGGHP@?$AAN?$AAO?$AA_?$AAL?$AAA?$AAS?$AAT?$AA_?$AAS?$AAT?$AAE?$AAP?$AA_?$AAE?$AAN?$AAD?$AA_?$AAP?$AAO?$AAS?$AA_?$AAD?$AAI?$AAA?$AAL?$AAO?$AAG?$AA?$AA@ 0043b2cc     editpart.obj
 0002:00001304       ??_C@_1DO@EFEFOGNN@?$AAN?$AAO?$AA_?$AAL?$AAA?$AAS?$AAT?$AA_?$AAS?$AAT?$AAE?$AAP?$AA_?$AAL?$AAO?$AAW?$AA_?$AAI?$AAM?$AAP?$AAA?$AAC?$AAT?$AA_?$AAD?$AAI?$AAA?$AAL?$AAO?$AAG?$AA?$AA@ 0043b304     editpart.obj
 0002:00001344       ??_C@_1CG@FHLHJEKK@?$AAI?$AAN?$AAP?$AAU?$AAT?$AA_?$AAE?$AAR?$AAR?$AAO?$AAR?$AA_?$AAS?$AAT?$AAR?$AAI?$AAN?$AAG?$AA?$AA@ 0043b344     editpart.obj
 0002:0000136c       ??_C@_1CI@PDOPBIFJ@?$AAP?$AAE?$AAR?$AAC?$AAE?$AAN?$AAT?$AA_?$AAN?$AAO?$AAT?$AA_?$AAA?$AAL?$AAL?$AAO?$AAW?$AAE?$AAD?$AA?$AA@ 0043b36c     editpart.obj
 0002:00001394       ??_C@_1CC@BPKLHEMB@?$AAP?$AAC?$AA_?$AAP?$AAR?$AAO?$AAF?$AAI?$AAL?$AAE?$AA_?$AAS?$AAE?$AAT?$AAU?$AAP?$AA?$AA@ 0043b394     editpart.obj
 0002:000013b8       ??_C@_1BI@IMFFBFNM@?$AAR?$AAA?$AAM?$AAP?$AA_?$AAS?$AAT?$AAR?$AAI?$AAN?$AAG?$AA?$AA@ 0043b3b8     editpart.obj
 0002:000013d0       ??_C@_1BE@BCHMBADC@?$AAH?$AAO?$AAL?$AAD?$AA_?$AAT?$AAI?$AAM?$AAE?$AA?$AA@ 0043b3d0     editpart.obj
 0002:000013e4       ??_C@_1CI@JJKJLOPC@?$AAE?$AAN?$AAA?$AAB?$AAL?$AAE?$AA_?$AAP?$AAR?$AAE?$AAS?$AA_?$AAC?$AAO?$AAN?$AAT?$AAR?$AAO?$AAL?$AA?$AA@ 0043b3e4     editpart.obj
 0002:0000140c       ??_C@_1BO@FHPKKGMA@?$AAT?$AAW?$AAO?$AA_?$AAV?$AAO?$AAL?$AAT?$AA_?$AAR?$AAA?$AAN?$AAG?$AAE?$AA?$AA@ 0043b40c     editpart.obj
 0002:0000142c       ??_C@_1CA@LGHBLHKG@?$AAF?$AAI?$AAV?$AAE?$AA_?$AAV?$AAO?$AAL?$AAT?$AA_?$AAR?$AAA?$AAN?$AAG?$AAE?$AA?$AA@ 0043b42c     editpart.obj
 0002:0000144c       ??_C@_1BO@KINDCLLN@?$AAT?$AAE?$AAN?$AA_?$AAV?$AAO?$AAL?$AAT?$AA_?$AAR?$AAA?$AAN?$AAG?$AAE?$AA?$AA@ 0043b44c     editpart.obj
 0002:0000146c       ??_C@_1BM@HBEKBBND@?$AAP?$AAO?$AAS?$AAI?$AAT?$AAI?$AAV?$AAE?$AA_?$AAO?$AAN?$AAL?$AAY?$AA?$AA@ 0043b46c     editpart.obj
 0002:00001488       ??_C@_1CA@IEKPGPIA@?$AAR?$AAE?$AAT?$AAR?$AAA?$AAC?$AAT?$AA_?$AAC?$AAO?$AAN?$AAT?$AAR?$AAO?$AAL?$AA?$AA@ 0043b488     editpart.obj
 0002:000014a8       ??_C@_1BI@OPBIDCEI@?$AAA?$AAR?$AAM?$AA_?$AAP?$AAE?$AAR?$AAC?$AAE?$AAN?$AAT?$AA?$AA@ 0043b4a8     editpart.obj
 0002:000014c0       ??_C@_1BO@NEAKIKF@?$AAR?$AAE?$AAT?$AAR?$AAA?$AAC?$AAT?$AA_?$AAE?$AAN?$AAA?$AAB?$AAL?$AAE?$AA?$AA@ 0043b4c0     editpart.obj
 0002:000014e0       ??_C@_1CA@BHIJJOFM@?$AAT?$AAO?$AAT?$AAA?$AAL?$AA_?$AAO?$AAP?$AAE?$AAN?$AA_?$AAL?$AAO?$AAO?$AAP?$AA?$AA@ 0043b4e0     editpart.obj
 0002:00001500       ??_C@_1BI@FJHDKMBM@?$AAP?$AAR?$AAE?$AAS?$AA_?$AAS?$AAE?$AAN?$AAS?$AAO?$AAR?$AA?$AA@ 0043b500     editpart.obj
 0002:00001518       ??_C@_1BO@PMMFBBHC@?$AAP?$AAR?$AAE?$AAS?$AA_?$AAL?$AAO?$AAO?$AAP?$AA_?$AAG?$AAA?$AAI?$AAN?$AA?$AA@ 0043b518     editpart.obj
 0002:00001538       ??_C@_1BM@CLIPKNOJ@?$AAI?$AAN?$AAT?$AAE?$AAG?$AAR?$AAA?$AAL?$AA_?$AAG?$AAA?$AAI?$AAN?$AA?$AA@ 0043b538     editpart.obj
 0002:00001554       ??_C@_1CA@DNMFNEG@?$AAD?$AAE?$AAR?$AAI?$AAV?$AAA?$AAT?$AAI?$AAV?$AAE?$AA_?$AAG?$AAA?$AAI?$AAN?$AA?$AA@ 0043b554     editpart.obj
 0002:00001574       ??_C@_1CE@MBCIHFJF@?$AAO?$AAU?$AAT?$AAP?$AAU?$AAT?$AA_?$AAV?$AAO?$AAL?$AAT?$AA_?$AAR?$AAA?$AAN?$AAG?$AAE?$AA?$AA@ 0043b574     editpart.obj
 0002:00001598       ??_C@_1CK@GFFMGPKE@?$AAH?$AAA?$AAR?$AAD?$AAW?$AAA?$AAR?$AAE?$AA_?$AAC?$AAL?$AAO?$AAS?$AAE?$AAD?$AA_?$AAL?$AAO?$AAO?$AAP?$AA?$AA@ 0043b598     editpart.obj
 0002:000015c4       ??_C@_1BE@HJDKLICI@?$AAP?$AAC?$AA_?$AAA?$AAR?$AAM?$AA_?$AAL?$AAS?$AA?$AA@ 0043b5c4     editpart.obj
 0002:000015d8       ??_C@_1BK@JKCGKHGB@?$AAP?$AAE?$AAR?$AAC?$AAE?$AAN?$AAT?$AA_?$AAO?$AAN?$AAL?$AAY?$AA?$AA@ 0043b5d8     editpart.obj
 0002:000015f4       ??_C@_1CC@PKKFHIJO@?$AAD?$AAI?$AAG?$AAI?$AAT?$AAA?$AAL?$AA_?$AAP?$AAO?$AAT?$AA_?$AAG?$AAA?$AAI?$AAN?$AA?$AA@ 0043b5f4     editpart.obj
 0002:00001618       ??_C@_1M@HDCEMHPI@?$AAA?$AAC?$AAC?$AAE?$AAL?$AA?$AA@ 0043b618     editpart.obj
 0002:00001624       ??_C@_1BG@EMGHOEND@?$AAE?$AAN?$AAD?$AAI?$AAN?$AAG?$AA_?$AAP?$AAO?$AAS?$AA?$AA@ 0043b624     editpart.obj
 0002:0000163c       ??_C@_1BI@FKDMMOPF@?$AAV?$AAA?$AAC?$AAU?$AAU?$AAM?$AA_?$AAW?$AAA?$AAI?$AAT?$AA?$AA@ 0043b63c     editpart.obj
 0002:00001654       ??_C@_1CM@INLAKKAI@?$AAL?$AAO?$AAW?$AA_?$AAI?$AAM?$AAP?$AAA?$AAC?$AAT?$AA_?$AAF?$AAR?$AAO?$AAM?$AA_?$AAI?$AAN?$AAP?$AAU?$AAT?$AA?$AA@ 0043b654     editpart.obj
 0002:00001680       ??_C@_1BO@GCNPFJFI@?$AAL?$AAI?$AAM?$AAI?$AAT?$AA_?$AAS?$AAW?$AAI?$AAT?$AAC?$AAH?$AAE?$AAS?$AA?$AA@ 0043b680     editpart.obj
 0002:000016a0       ??_C@_1BI@CHDKLJDA@?$AAD?$AAE?$AAS?$AAC?$AAR?$AAI?$AAP?$AAT?$AAI?$AAO?$AAN?$AA?$AA@ 0043b6a0     editpart.obj
 0002:000016b8       ??_C@_1BG@JJKGKCPE@?$AAP?$AAO?$AAS?$AA_?$AAS?$AAT?$AAR?$AAI?$AAN?$AAG?$AA?$AA@ 0043b6b8     editpart.obj
 0002:000016d0       ??_C@_1BI@ILDFCOFP@?$AAW?$AAI?$AAR?$AAE?$AA_?$AAS?$AAT?$AAR?$AAI?$AAN?$AAG?$AA?$AA@ 0043b6d0     editpart.obj
 0002:000016e8       ??_C@_1BG@HHJPGAJG@?$AAV?$AAA?$AAC?$AA_?$AAS?$AAW?$AAI?$AAT?$AAC?$AAH?$AA?$AA@ 0043b6e8     editpart.obj
 0002:00001700       ??_C@_1BI@CPHPEGKK@?$AAF?$AAT?$AA_?$AAS?$AAT?$AAO?$AAP?$AA_?$AAP?$AAO?$AAS?$AA?$AA@ 0043b700     editpart.obj
 0002:00001718       ??_C@_1CG@NMIJJDML@?$AAV?$AAE?$AAL?$AAO?$AAC?$AAI?$AAT?$AAY?$AA_?$AAL?$AAO?$AAO?$AAP?$AA_?$AAG?$AAA?$AAI?$AAN?$AA?$AA@ 0043b718     editpart.obj
 0002:00001740       ??_C@_1BO@BJMGBPPK@?$AAB?$AAR?$AAE?$AAA?$AAK?$AA_?$AAS?$AAE?$AAT?$AAT?$AAI?$AAN?$AAG?$AAS?$AA?$AA@ 0043b740     editpart.obj
 0002:00001760       ??_C@_1CE@LHCCHGFF@?$AAC?$AAH?$AAA?$AAN?$AAG?$AAE?$AAS?$AA_?$AAN?$AAO?$AAT?$AA_?$AAS?$AAA?$AAV?$AAE?$AAD?$AA?$AA@ 0043b760     editpart.obj
 0002:00001784       ??_C@_1BK@LDANCEGA@?$AAF?$AAS?$AA_?$AAS?$AAT?$AAA?$AAR?$AAT?$AA_?$AAP?$AAO?$AAS?$AA?$AA@ 0043b784     editpart.obj
 0002:000017a0       ??_C@_1BI@HGPPNNNO@?$AAW?$AAA?$AAR?$AAM?$AAU?$AAP?$AA_?$AAS?$AAH?$AAO?$AAT?$AA?$AA@ 0043b7a0     editpart.obj
 0002:000017b8       ??_C@_1CC@KHKIJCPH@?$AAW?$AAA?$AAR?$AAM?$AAU?$AAP?$AA_?$AAI?$AAF?$AA_?$AAS?$AAT?$AAR?$AAI?$AAN?$AAG?$AA?$AA@ 0043b7b8     editpart.obj
 0002:000017dc       ??_C@_1BM@NKOHAMPO@?$AAE?$AAN?$AAA?$AAB?$AAL?$AAE?$AA_?$AAS?$AAT?$AAR?$AAI?$AAN?$AAG?$AA?$AA@ 0043b7dc     editpart.obj
 0002:000017f8       ??_C@_1BE@NJMAHMMK@?$AAI?$AAS?$AA_?$AAS?$AAT?$AAR?$AAI?$AAN?$AAG?$AA?$AA@ 0043b7f8     editpart.obj
 0002:00001820       ??_C@_1O@BBCBLEAP@?$AAI?$AAN?$AAC?$AAH?$AAE?$AAS?$AA?$AA@ 0043b820     editpart.obj
 0002:00001830       ??_C@_1BI@IAKJKBFJ@?$AAM?$AAI?$AAL?$AAL?$AAI?$AAM?$AAE?$AAT?$AAE?$AAR?$AAS?$AA?$AA@ 0043b830     editpart.obj
 0002:00001848       ??_C@_1BI@PEEHPOCP@?$AAC?$AAE?$AAN?$AAT?$AAI?$AAM?$AAE?$AAT?$AAE?$AAR?$AAS?$AA?$AA@ 0043b848     editpart.obj
 0002:00001860       ??_C@_17HJDJFBOL@?$AAI?$AAP?$AAS?$AA?$AA@ 0043b860     editpart.obj
 0002:00001868       ??_C@_17BANPGDOL@?$AAF?$AAP?$AAM?$AA?$AA@ 0043b868     editpart.obj
 0002:00001870       ??_C@_19OFGFEKN@?$AAC?$AAM?$AAP?$AAS?$AA?$AA@ 0043b870     editpart.obj
 0002:0000187c       ??_C@_17PNHDFPBB@?$AAM?$AAP?$AAS?$AA?$AA@ 0043b87c     editpart.obj
 0002:00001884       ??_C@_1BO@DLJFPHF@?$AAD?$AAI?$AAS?$AAT?$AAA?$AAN?$AAC?$AAE?$AA_?$AAU?$AAN?$AAI?$AAT?$AAS?$AA?$AA@ 0043b884     editpart.obj
 0002:000018a4       ??_C@_1BO@JDLAIKIL@?$AAV?$AAE?$AAL?$AAO?$AAC?$AAI?$AAT?$AAY?$AA_?$AAU?$AAN?$AAI?$AAT?$AAS?$AA?$AA@ 0043b8a4     editpart.obj
 0002:000018c4       ??_C@_1CI@HKIINJO@?$AAT?$AAO?$AAT?$AAA?$AAL?$AA_?$AAS?$AAT?$AAR?$AAO?$AAK?$AAE?$AA_?$AAL?$AAE?$AAN?$AAG?$AAT?$AAH?$AA?$AA@ 0043b8c4     editpart.obj
 0002:000018ec       ??_C@_1BO@CDALENCN@?$AAM?$AAI?$AAN?$AA_?$AAS?$AAT?$AAR?$AAO?$AAK?$AAE?$AA_?$AAL?$AAE?$AAN?$AA?$AA@ 0043b8ec     editpart.obj
 0002:0000190c       ??_C@_1BK@OKGCMCOP@?$AAE?$AAO?$AAS?$AA_?$AAV?$AAE?$AAL?$AAO?$AAC?$AAI?$AAT?$AAY?$AA?$AA@ 0043b90c     editpart.obj
 0002:00001928       ??_C@_1CE@LPCNJBOD@?$AAZ?$AAE?$AAR?$AAO?$AA_?$AAS?$AAP?$AAE?$AAE?$AAD?$AA_?$AAO?$AAU?$AAT?$AAP?$AAU?$AAT?$AA?$AA@ 0043b928     editpart.obj
 0002:0000194c       ??_C@_1BI@PMOEEHHK@?$AAO?$AAU?$AAT?$AAP?$AAU?$AAT?$AA_?$AAW?$AAI?$AAR?$AAE?$AA?$AA@ 0043b94c     editpart.obj
 0002:00001964       ??_C@_1BO@DAGNIPBG@?$AAM?$AAA?$AAC?$AAH?$AAI?$AAN?$AAE?$AA_?$AAS?$AAT?$AAR?$AAI?$AAN?$AAG?$AA?$AA@ 0043b964     editpart.obj
 0002:00001984       ??_C@_1BI@MCJPNFNB@?$AAP?$AAA?$AAR?$AAT?$AA_?$AAS?$AAT?$AAR?$AAI?$AAN?$AAG?$AA?$AA@ 0043b984     editpart.obj
 0002:0000199c       ??_C@_1CA@BDHFIPMD@?$AAP?$AAA?$AAR?$AAA?$AAM?$AAE?$AAT?$AAE?$AAR?$AA_?$AAL?$AAI?$AAM?$AAI?$AAT?$AA?$AA@ 0043b99c     editpart.obj
 0002:000019bc       ??_C@_1CC@KGAHHNPL@?$AAU?$AAS?$AAE?$AAR?$AA_?$AAD?$AAE?$AAF?$AAI?$AAN?$AAE?$AAD?$AA_?$AAP?$AAO?$AAS?$AA?$AA@ 0043b9bc     editpart.obj
 0002:000019e0       ??_C@_1CA@BIOLFPMD@?$AAR?$AAE?$AAF?$AAE?$AAR?$AAE?$AAN?$AAC?$AAE?$AA_?$AAT?$AAR?$AAA?$AAC?$AAE?$AA?$AA@ 0043b9e0     editpart.obj
 0002:00001a00       ??_C@_1BO@CIFEOOHB@?$AAS?$AAU?$AAR?$AAE?$AAT?$AAR?$AAA?$AAK?$AA_?$AAS?$AAT?$AAE?$AAP?$AAS?$AA?$AA@ 0043ba00     editpart.obj
 0002:00001a20       ??_C@_1CA@GIMKJGK@?$AAP?$AAA?$AAR?$AAA?$AAM?$AAE?$AAT?$AAE?$AAR?$AA_?$AAN?$AAA?$AAM?$AAE?$AAS?$AA?$AA@ 0043ba20     editpart.obj
 0002:00001a40       ??_C@_1BI@DNMPGMLD@?$AAW?$AAA?$AAR?$AAM?$AAU?$AAP?$AA_?$AAP?$AAA?$AAR?$AAT?$AA?$AA@ 0043ba40     editpart.obj
 0002:00001a58       ??_C@_1CG@BEHALJBC@?$AAP?$AAA?$AAR?$AAT?$AA_?$AAD?$AAI?$AAS?$AAP?$AAL?$AAA?$AAY?$AA_?$AAS?$AAE?$AAT?$AAU?$AAP?$AA?$AA@ 0043ba58     editpart.obj
 0002:00001a80       ??_C@_1CI@NMHGANPO@?$AAC?$AAH?$AAA?$AAN?$AAN?$AAE?$AAL?$AA_?$AAA?$AAX?$AAI?$AAS?$AA_?$AAL?$AAA?$AAB?$AAE?$AAL?$AAS?$AA?$AA@ 0043ba80     editpart.obj
 0002:00001aa8       ??_C@_1CK@HNHFPNAA@?$AAP?$AAA?$AAR?$AAA?$AAM?$AAE?$AAT?$AAE?$AAR?$AA_?$AAS?$AAO?$AAR?$AAT?$AA_?$AAO?$AAR?$AAD?$AAE?$AAR?$AA?$AA@ 0043baa8     editpart.obj
 0002:00001ad4       ??_C@_1CC@MFOABDFH@?$AAP?$AAR?$AAE?$AAS?$AA_?$AAC?$AAO?$AAN?$AAT?$AAR?$AAO?$AAL?$AA_?$AAT?$AAA?$AAB?$AA?$AA@ 0043bad4     editpart.obj
 0002:00001af8       ??_C@_1BE@INPFKIAB@?$AAS?$AAH?$AAO?$AAT?$AA_?$AAN?$AAA?$AAM?$AAE?$AA?$AA@ 0043baf8     editpart.obj
 0002:00001b0c       ??_C@_1CA@KIHLDHLE@?$AAS?$AAH?$AAO?$AAT?$AA_?$AAN?$AAA?$AAM?$AAE?$AA_?$AAR?$AAE?$AAS?$AAE?$AAT?$AA?$AA@ 0043bb0c     editpart.obj
 0002:00001b2c       ??_C@_1BA@HKAKFMHK@?$AAL?$AAS?$AA_?$AAD?$AAE?$AAS?$AAC?$AA?$AA@ 0043bb2c     editpart.obj
 0002:00001b3c       ??_C@_1O@DEGCFOOO@?$AAL?$AAS?$AA_?$AAP?$AAO?$AAS?$AA?$AA@ 0043bb3c     editpart.obj
 0002:00001b4c       ??_C@_1BA@PALPPKH@?$AAL?$AAS?$AA_?$AAW?$AAI?$AAR?$AAE?$AA?$AA@ 0043bb4c     editpart.obj
 0002:00001b5c       ??_C@_1BO@GFBHCPEE@?$AAS?$AAE?$AAL?$AAE?$AAC?$AAT?$AAE?$AAD?$AA_?$AAP?$AAA?$AAR?$AAT?$AAS?$AA?$AA@ 0043bb5c     editpart.obj
 0002:00001b7c       ??_C@_1BE@OKKFIEJF@?$AAA?$AAL?$AAL?$AA_?$AAP?$AAA?$AAR?$AAT?$AAS?$AA?$AA@ 0043bb7c     editpart.obj
 0002:00001b90       ??_C@_1CC@BDPMKJEP@?$AAA?$AAL?$AAL?$AA_?$AAP?$AAA?$AAR?$AAT?$AAS?$AA_?$AAA?$AAL?$AAL?$AA_?$AAM?$AAA?$AA?$AA@ 0043bb90     editpart.obj
 0002:00001bb4       ??_C@_1CC@LDNHCFGO@?$AAS?$AAA?$AAM?$AAE?$AA_?$AAP?$AAA?$AAR?$AAT?$AA_?$AAA?$AAL?$AAL?$AA_?$AAM?$AAA?$AA?$AA@ 0043bbb4     editpart.obj
 0002:00001bd8       ??_C@_1BG@FAAMDJMP@?$AAA?$AAL?$AAL?$AA_?$AAS?$AAT?$AAR?$AAI?$AAN?$AAG?$AA?$AA@ 0043bbd8     editpart.obj
 0002:00001bf0       ??_C@_1CC@GJMIKAEP@?$AAS?$AAE?$AAC?$AAT?$AAI?$AAO?$AAN?$AAS?$AA_?$AAT?$AAO?$AA_?$AAC?$AAO?$AAP?$AAY?$AA?$AA@ 0043bbf0     editpart.obj
 0002:00001c14       ??_C@_1CC@GKJINEGJ@?$AAP?$AAA?$AAR?$AAT?$AAS?$AA_?$AAT?$AAO?$AA_?$AAC?$AAO?$AAP?$AAY?$AA_?$AAT?$AAO?$AA?$AA@ 0043bc14     editpart.obj
 0002:00001c38       ??_C@_1BE@GEBBBDAL@?$AAO?$AAK?$AA_?$AAS?$AAT?$AAR?$AAI?$AAN?$AAG?$AA?$AA@ 0043bc38     editpart.obj
 0002:00001c4c       ??_C@_1CE@FFMDIFNJ@?$AAM?$AAU?$AAL?$AAT?$AAI?$AAP?$AAA?$AAR?$AAT?$AA_?$AAR?$AAU?$AAN?$AAL?$AAI?$AAS?$AAT?$AA?$AA@ 0043bc4c     editpart.obj
 0002:00001c70       ??_C@_17NDBLCNAI@?$AA?7?$AAY?$AA?7?$AA?$AA@ 0043bc70     editpart.obj
 0002:00001c78       ??_C@_17PPDGHBAB@?$AA?7?$AA?5?$AA?7?$AA?$AA@ 0043bc78     editpart.obj
 0002:00001c80       ??_C@_1BC@PJKBNHLM@?$AAH?$AAA?$AAS?$AA_?$AAP?$AAA?$AAR?$AAT?$AA?$AA@ 0043bc80     editpart.obj
 0002:00001c94       ??_C@_1BK@ENEKCMEK@?$AAM?$AAA?$AAC?$AAH?$AAI?$AAN?$AAE?$AA_?$AAN?$AAA?$AAM?$AAE?$AA?$AA@ 0043bc94     editpart.obj
 0002:00001cb0       ??_C@_1BM@EJNKIJHN@?$AAB?$AAE?$AAG?$AAI?$AAN?$AA_?$AAC?$AAO?$AAP?$AAY?$AAI?$AAN?$AAG?$AA?$AA@ 0043bcb0     editpart.obj
 0002:00001ccc       ??_C@_1CE@MMJEOCGK@?$AAC?$AAM?$AAU?$AAL?$AAT?$AAI?$AAP?$AAL?$AAE?$AA_?$AAC?$AAA?$AAP?$AAT?$AAI?$AAO?$AAN?$AA?$AA@ 0043bccc     editpart.obj
 0002:00001cf0       ??_C@_1DE@JJDEOMAO@?$AAP?$AAO?$AAP?$AAU?$AAP?$AA_?$AAS?$AAT?$AAA?$AAT?$AAI?$AAC?$AA_?$AAT?$AAE?$AAX?$AAT?$AA_?$AAC?$AAA?$AAP?$AAT?$AAI?$AAO?$AAN?$AA?$AA@ 0043bcf0     editpart.obj
 0002:00001d24       ??_C@_1BM@BCEFIDA@?$AAN?$AAE?$AAW?$AA_?$AAP?$AAA?$AAR?$AAT?$AA_?$AAN?$AAA?$AAM?$AAE?$AA?$AA@ 0043bd24     editpart.obj
 0002:00001d40       ??_C@_1BO@BDCMHGJJ@?$AAC?$AAO?$AAP?$AAY?$AA_?$AAR?$AAE?$AAF?$AA_?$AAT?$AAR?$AAA?$AAC?$AAE?$AA?$AA@ 0043bd40     editpart.obj
 0002:00001d60       ??_C@_1CI@CHLBCINI@?$AAF?$AAA?$AAS?$AAT?$AAR?$AAA?$AAK?$AA_?$AAO?$AAN?$AAO?$AAF?$AAF?$AA_?$AAI?$AAN?$AAP?$AAU?$AAT?$AA?$AA@ 0043bd60     editpart.obj
 0002:00001d88       ??_C@_1BK@HJJAHAFD@?$AAT?$AAA?$AAR?$AAG?$AAE?$AAT?$AA_?$AAI?$AAN?$AAP?$AAU?$AAT?$AA?$AA@ 0043bd88     editpart.obj
 0002:00001da4       ??_C@_1BM@EHFEEPFI@?$AAD?$AAI?$AAG?$AAI?$AAT?$AAA?$AAL?$AA_?$AAI?$AAN?$AAP?$AAU?$AAT?$AA?$AA@ 0043bda4     editpart.obj
 0002:00001dc0       ??_C@_1CK@MACIHBKO@?$AAC?$AAA?$AAL?$AAC?$AAU?$AAL?$AAA?$AAT?$AAE?$AAD?$AA_?$AAP?$AAA?$AAR?$AAA?$AAM?$AAE?$AAT?$AAE?$AAR?$AA?$AA@ 0043bdc0     editpart.obj
 0002:00001dec       ??_C@_1BO@BEEIAFIH@?$AAE?$AAX?$AAT?$AAE?$AAN?$AAD?$AAE?$AAD?$AA_?$AAI?$AAN?$AAP?$AAU?$AAT?$AA?$AA@ 0043bdec     editpart.obj
 0002:00001e0c       ??_C@_1CG@CCINMCFI@?$AAE?$AAX?$AAT?$AAE?$AAR?$AAN?$AAA?$AAL?$AA_?$AAP?$AAA?$AAR?$AAA?$AAM?$AAE?$AAT?$AAE?$AAR?$AA?$AA@ 0043be0c     editpart.obj
 0002:00001e34       ??_C@_1CM@BNLBPHMM@?$AAS?$AAT?$AAA?$AAT?$AAI?$AAC?$AA_?$AAT?$AAE?$AAX?$AAT?$AA_?$AAP?$AAA?$AAR?$AAA?$AAM?$AAE?$AAT?$AAE?$AAR?$AA?$AA@ 0043be34     editpart.obj
 0002:00001e60       ??_C@_1CE@BHDPDAGE@?$AAC?$AAH?$AAO?$AAO?$AAS?$AAE?$AA_?$AAP?$AAA?$AAR?$AAA?$AAM?$AA_?$AAT?$AAY?$AAP?$AAE?$AA?$AA@ 0043be60     editpart.obj
 0002:00001e84       ??_C@_1O@BBGMCBMK@?$AAC?$AAA?$AAN?$AAC?$AAE?$AAL?$AA?$AA@ 0043be84     editpart.obj
 0002:00001e94       ??_C@_1CG@PGNHDLCI@?$AAU?$AAN?$AAA?$AAB?$AAL?$AAE?$AA_?$AAT?$AAO?$AA_?$AAC?$AAO?$AAN?$AAT?$AAI?$AAN?$AAU?$AAE?$AA?$AA@ 0043be94     editpart.obj
 0002:00001ebc       ??_C@_1CI@JOCLDKEH@?$AAT?$AAO?$AAO?$AA_?$AAF?$AAE?$AAW?$AA_?$AAI?$AAN?$AAP?$AAU?$AAT?$AA_?$AAW?$AAI?$AAR?$AAE?$AAS?$AA?$AA@ 0043bebc     editpart.obj
 0002:00001ee4       ??_C@_1BK@PNMIFDMH@?$AAS?$AAA?$AAV?$AAE?$AA_?$AAC?$AAH?$AAA?$AAN?$AAG?$AAE?$AAS?$AA?$AA@ 0043bee4     editpart.obj
 0002:00001f00       ??_C@_1CM@CFAIOACL@?$AAP?$AAA?$AAR?$AAT?$AA_?$AAS?$AAE?$AAL?$AAE?$AAC?$AAT?$AAI?$AAO?$AAN?$AA_?$AAN?$AAU?$AAM?$AAB?$AAE?$AAR?$AA?$AA@ 0043bf00     editpart.obj
 0002:00001f2c       ??_C@_1BE@DOPDMMPN@?$AAW?$AAI?$AAR?$AAE?$AA_?$AAL?$AAI?$AAS?$AAT?$AA?$AA@ 0043bf2c     editpart.obj
 0002:00001f40       ??_C@_1CM@HLKKAPBE@?$AAT?$AAH?$AAI?$AAR?$AAT?$AAY?$AA_?$AAS?$AAE?$AAC?$AAO?$AAN?$AAD?$AA_?$AAT?$AAI?$AAM?$AAE?$AAO?$AAU?$AAT?$AA?$AA@ 0043bf40     editpart.obj
 0002:00001f6c       ??_C@_1CE@EHBKJJDC@?$AAS?$AAT?$AA2?$AA_?$AAP?$AAR?$AAO?$AAG?$AAR?$AAA?$AAM?$AA_?$AAA?$AAB?$AAO?$AAR?$AAT?$AA?$AA@ 0043bf6c     editpart.obj
 0002:00001f90       ??_C@_1BM@CNHLALPL@?$AAS?$AAH?$AAO?$AAT?$AA_?$AAC?$AAO?$AAM?$AAP?$AAL?$AAE?$AAT?$AAE?$AA?$AA@ 0043bf90     editpart.obj
 0002:00001fac       ??_C@_1CG@HPOEIIOE@?$AAS?$AAH?$AAO?$AAT?$AA_?$AAS?$AAA?$AAV?$AAE?$AA_?$AAC?$AAO?$AAM?$AAP?$AAL?$AAE?$AAT?$AAE?$AA?$AA@ 0043bfac     editpart.obj
 0002:00001fd4       ??_C@_1BK@BEJLOGJK@?$AAW?$AAA?$AAR?$AAN?$AAI?$AAN?$AAG?$AA_?$AAS?$AAH?$AAO?$AAT?$AA?$AA@ 0043bfd4     editpart.obj
 0002:00001ff0       ??_C@_1BG@NMMODJOL@?$AAA?$AAL?$AAA?$AAR?$AAM?$AA_?$AAS?$AAH?$AAO?$AAT?$AA?$AA@ 0043bff0     editpart.obj
 0002:00002008       ??_C@_1BE@MMDAFOPH@?$AAG?$AAO?$AAO?$AAD?$AA_?$AAS?$AAH?$AAO?$AAT?$AA?$AA@ 0043c008     editpart.obj
 0002:0000201c       ??_C@_1CM@IFLNOAFJ@?$AAG?$AAO?$AAO?$AAD?$AA_?$AAS?$AAH?$AAO?$AAT?$AA_?$AAN?$AAO?$AA_?$AAW?$AAA?$AAR?$AAN?$AAI?$AAN?$AAG?$AAS?$AA?$AA@ 0043c01c     editpart.obj
 0002:00002048       ??_C@_1BM@GOIDNIGN@?$AAA?$AAL?$AAA?$AAR?$AAM?$AA_?$AAT?$AAI?$AAM?$AAE?$AAO?$AAU?$AAT?$AA?$AA@ 0043c048     editpart.obj
 0002:00002064       ??_C@_1CK@JLGHPHLF@?$AAR?$AAE?$AAT?$AAU?$AAR?$AAN?$AA_?$AAT?$AAO?$AA_?$AAP?$AAA?$AAR?$AAA?$AAM?$AAE?$AAT?$AAE?$AAR?$AAS?$AA?$AA@ 0043c064     editpart.obj
 0002:00002090       ??_C@_1CG@NGEGNFDA@?$AAS?$AAH?$AAO?$AAT?$AA_?$AAE?$AAV?$AAE?$AAN?$AAT?$AA_?$AAO?$AAU?$AAT?$AAP?$AAU?$AAT?$AAS?$AA?$AA@ 0043c090     editpart.obj
 0002:000020b8       ??_C@_1BM@CHPODLJI@?$AAA?$AAD?$AAD?$AA_?$AAP?$AAA?$AAR?$AAA?$AAM?$AAE?$AAT?$AAE?$AAR?$AA?$AA@ 0043c0b8     editpart.obj
 0002:000020d4       ??_C@_1CC@DCNKENMK@?$AAR?$AAE?$AAM?$AAO?$AAV?$AAE?$AA_?$AAP?$AAA?$AAR?$AAA?$AAM?$AAE?$AAT?$AAE?$AAR?$AA?$AA@ 0043c0d4     editpart.obj
 0002:000020f8       ??_C@_1BO@PBJCPAOB@?$AAW?$AAA?$AAR?$AAN?$AAI?$AAN?$AAG?$AA_?$AAL?$AAI?$AAM?$AAI?$AAT?$AAS?$AA?$AA@ 0043c0f8     editpart.obj
 0002:00002118       ??_C@_1CI@DDEGKMGP@?$AAA?$AAL?$AAA?$AAR?$AAM?$AA_?$AAL?$AAI?$AAM?$AAI?$AAT?$AAS?$AA_?$AAS?$AAT?$AAR?$AAI?$AAN?$AAG?$AA?$AA@ 0043c118     editpart.obj
 0002:00002140       ??_C@_1BK@KMKGANLD@?$AAU?$AAN?$AAI?$AAT?$AAS?$AA_?$AAS?$AAT?$AAR?$AAI?$AAN?$AAG?$AA?$AA@ 0043c140     editpart.obj
 0002:0000215c       ??_C@_1BG@DICHDIFH@?$AAP?$AAA?$AAR?$AAA?$AAM?$AA_?$AAD?$AAE?$AAS?$AAC?$AA?$AA@ 0043c15c     editpart.obj
 0002:00002174       ??_C@_1BG@NOBLIKLD@?$AAL?$AAO?$AAW?$AA_?$AAS?$AAT?$AAR?$AAI?$AAN?$AAG?$AA?$AA@ 0043c174     editpart.obj
 0002:0000218c       ??_C@_1BI@CPKMOOHK@?$AAH?$AAI?$AAG?$AAH?$AA_?$AAS?$AAT?$AAR?$AAI?$AAN?$AAG?$AA?$AA@ 0043c18c     editpart.obj
 0002:000021a4       ??_C@_1BI@KCLHAIEJ@?$AAS?$AAH?$AAO?$AAT?$AA_?$AAE?$AAV?$AAE?$AAN?$AAT?$AAS?$AA?$AA@ 0043c1a4     editpart.obj
 0002:000021bc       ??_C@_1BM@BIFGFAHB@?$AAT?$AAA?$AAR?$AAG?$AAE?$AAT?$AA_?$AAS?$AAT?$AAR?$AAI?$AAN?$AAG?$AA?$AA@ 0043c1bc     editpart.obj
 0002:000021d8       ??_C@_1CG@FIGAFBOK@?$AAS?$AAH?$AAO?$AAT?$AA_?$AAE?$AAV?$AAE?$AAN?$AAT?$AAS?$AA_?$AAD?$AAI?$AAA?$AAL?$AAO?$AAG?$AA?$AA@ 0043c1d8     editpart.obj
 0002:00002200       ??_C@_1BK@HLIOEGGL@?$AAL?$AAO?$AAW?$AA_?$AAP?$AAA?$AAS?$AAS?$AAW?$AAO?$AAR?$AAD?$AA?$AA@ 0043c200     editpart.obj
 0002:0000221c       ??_C@_1CK@PPBDMGEM@?$AAN?$AAE?$AAW?$AA_?$AAP?$AAA?$AAR?$AAA?$AAM?$AAE?$AAT?$AAE?$AAR?$AA_?$AAD?$AAI?$AAA?$AAL?$AAO?$AAG?$AA?$AA@ 0043c21c     editpart.obj
 0002:00002248       ??_C@_1CC@HDJBCGLG@?$AAE?$AAX?$AAT?$AAE?$AAN?$AAD?$AAE?$AAD?$AA_?$AAC?$AAH?$AAA?$AAN?$AAN?$AAE?$AAL?$AA?$AA@ 0043c248     editpart.obj
 0002:0000226c       ??_C@_1CK@GOGFGMGJ@?$AAA?$AAN?$AAA?$AAL?$AAO?$AAG?$AA_?$AAS?$AAE?$AAN?$AAS?$AAO?$AAR?$AA_?$AAS?$AAT?$AAR?$AAI?$AAN?$AAG?$AA?$AA@ 0043c26c     editpart.obj
 0002:00002298       ??_C@_1DE@KFKDGBNJ@?$AAE?$AAX?$AAT?$AAE?$AAN?$AAD?$AAE?$AAD?$AA_?$AAC?$AAH?$AAA?$AAN?$AAN?$AAE?$AAL?$AAS?$AA_?$AAC?$AAA?$AAP?$AAT?$AAI?$AAO?$AAN?$AA?$AA@ 0043c298     editpart.obj
 0002:000022cc       ??_C@_1CI@MEOPHNNH@?$AAA?$AAN?$AAA?$AAL?$AAO?$AAG?$AA_?$AAS?$AAE?$AAN?$AAS?$AAO?$AAR?$AA_?$AAS?$AAE?$AAT?$AAU?$AAP?$AA?$AA@ 0043c2cc     editpart.obj
 0002:000022f4       ??_C@_1DG@KIDJEACK@?$AAH?$AAE?$AAA?$AAD?$AA_?$AAP?$AAR?$AAE?$AAS?$AAS?$AAU?$AAR?$AAE?$AA_?$AAL?$AAA?$AAB?$AAE?$AAL?$AA_?$AAS?$AAT?$AAR?$AAI?$AAN?$AAG?$AA?$AA@ 0043c2f4     editpart.obj
 0002:0000232c       ??_C@_1BG@HIHLDNAI@?$AAR?$AAO?$AAD?$AA_?$AAS?$AAT?$AAR?$AAI?$AAN?$AAG?$AA?$AA@ 0043c32c     editpart.obj
 0002:00002344       ??_C@_1BO@IHJMGKDI@?$AAC?$AAH?$AAA?$AAN?$AAN?$AAE?$AAL?$AA_?$AAS?$AAT?$AAR?$AAI?$AAN?$AAG?$AA?$AA@ 0043c344     editpart.obj
 0002:00002364       ??_C@_1CE@LJCKFPBO@?$AAE?$AAX?$AAT?$AAE?$AAN?$AAD?$AAE?$AAD?$AA_?$AAC?$AAH?$AAA?$AAN?$AAN?$AAE?$AAL?$AAS?$AA?$AA@ 0043c364     editpart.obj
 0002:00002388       ??_C@_1BM@DBPDAGEL@?$AAC?$AAH?$AAA?$AAN?$AAN?$AAE?$AAL?$AA_?$AAN?$AAA?$AAM?$AAE?$AAS?$AA?$AA@ 0043c388     editpart.obj
 0002:000023a4       ??_C@_1CG@HLNILDIH@?$AAC?$AAH?$AAA?$AAN?$AAN?$AAE?$AAL?$AA_?$AAN?$AAA?$AAM?$AAE?$AAS?$AA_?$AAH?$AAE?$AAL?$AAP?$AA?$AA@ 0043c3a4     editpart.obj
 0002:000023cc       ??_C@_1BI@OGHHMELF@?$AAN?$AAO?$AAN?$AAE?$AA_?$AAS?$AAT?$AAR?$AAI?$AAN?$AAG?$AA?$AA@ 0043c3cc     editpart.obj
 0002:000023e4       ??_C@_1CC@EKLEDPPE@?$AAM?$AAE?$AAA?$AAS?$AAU?$AAR?$AAE?$AA_?$AAV?$AAE?$AAL?$AAO?$AAC?$AAI?$AAT?$AAY?$AA?$AA@ 0043c3e4     editpart.obj
 0002:00002408       ??_C@_1DC@KKKIKKPM@?$AAM?$AAE?$AAA?$AAS?$AAU?$AAR?$AAE?$AA_?$AAA?$AAV?$AAE?$AAR?$AAA?$AAG?$AAE?$AA_?$AAV?$AAE?$AAL?$AAO?$AAC?$AAI?$AAT?$AAY?$AA?$AA@ 0043c408     editpart.obj
 0002:0000243c       ??_C@_1CG@DFDNAJKI@?$AAS?$AAE?$AAT?$AA_?$AAL?$AAI?$AAM?$AAI?$AAT?$AA_?$AAS?$AAW?$AAI?$AAT?$AAC?$AAH?$AAE?$AAS?$AA?$AA@ 0043c43c     editpart.obj
 0002:00002464       ??_C@_1CE@BDAKJCCG@?$AAS?$AAT?$AAA?$AAR?$AAT?$AAI?$AAN?$AAG?$AA_?$AAP?$AAO?$AAS?$AAI?$AAT?$AAI?$AAO?$AAN?$AA?$AA@ 0043c464     editpart.obj
 0002:00002488       ??_C@_1CA@CEFLLHCA@?$AAE?$AAN?$AAD?$AAI?$AAN?$AAG?$AA_?$AAP?$AAO?$AAS?$AAI?$AAT?$AAI?$AAO?$AAN?$AA?$AA@ 0043c488     editpart.obj
 0002:000024a8       ??_C@_1BK@MFFDFBOG@?$AAL?$AAI?$AAM?$AAI?$AAT?$AA_?$AAS?$AAW?$AAI?$AAT?$AAC?$AAH?$AA?$AA@ 0043c4a8     editpart.obj
 0002:000024c4       ??_C@_1BK@IICPJFAE@?$AAM?$AAA?$AAR?$AAK?$AAS?$AA_?$AAT?$AAO?$AA_?$AAA?$AAD?$AAD?$AA?$AA@ 0043c4c4     editpart.obj
 0002:000024e0       ??_C@_1BC@HPPCDCMI@?$AAV?$AAE?$AAR?$AAT?$AAI?$AAC?$AAA?$AAL?$AA?$AA@ 0043c4e0     editpart.obj
 0002:000024f4       ??_C@_19EFNNFADB@?$AAB?$AAA?$AAS?$AAE?$AA?$AA@ 0043c4f4     editpart.obj
 0002:00002500       ??_C@_1CC@HFGGGMJN@?$AAM?$AAA?$AAR?$AAK?$AA_?$AAS?$AAO?$AAU?$AAR?$AAC?$AAE?$AA_?$AAD?$AAE?$AAS?$AAC?$AA?$AA@ 0043c500     editpart.obj
 0002:00002524       ??_C@_1M@ENFOKIIP@?$AAC?$AAO?$AAL?$AAO?$AAR?$AA?$AA@ 0043c524     editpart.obj
 0002:00002530       ??_C@_1BE@ILLBKDJF@?$AAL?$AAI?$AAN?$AAE?$AA_?$AAT?$AAY?$AAP?$AAE?$AA?$AA@ 0043c530     editpart.obj
 0002:00002544       ??_C@_1M@CFNEBGLF@?$AAL?$AAA?$AAB?$AAE?$AAL?$AA?$AA@ 0043c544     editpart.obj
 0002:00002550       ??_C@_1O@LFMAFHMH@?$AAO?$AAF?$AAF?$AAS?$AAE?$AAT?$AA?$AA@ 0043c550     editpart.obj
 0002:00002560       ??_C@_1BE@OONAOJIK@?$AAA?$AAD?$AAD?$AA_?$AAM?$AAA?$AAR?$AAK?$AAS?$AA?$AA@ 0043c560     editpart.obj
 0002:00002574       ??_C@_1CC@LLCDCJIM@?$AAP?$AAL?$AAU?$AAN?$AAG?$AAE?$AAR?$AA_?$AAD?$AAI?$AAA?$AAM?$AAE?$AAT?$AAE?$AAR?$AA?$AA@ 0043c574     editpart.obj
 0002:00002598       ??_C@_1BC@BAPPDEFP@?$AAP?$AA1?$AA_?$AAT?$AAO?$AA_?$AAP?$AA3?$AA?$AA@ 0043c598     editpart.obj
 0002:000025ac       ??_C@_1BC@DJDHIAKN@?$AAP?$AA2?$AA_?$AAT?$AAO?$AA_?$AAP?$AA3?$AA?$AA@ 0043c5ac     editpart.obj
 0002:000025c0       ??_C@_1BK@KIELGPLL@?$AAM?$AAI?$AAN?$AA_?$AAC?$AAS?$AAF?$AAS?$AA_?$AAP?$AAO?$AAS?$AA?$AA@ 0043c5c0     editpart.obj
 0002:000025dc       ??_C@_1BK@MHMFACJD@?$AAM?$AAI?$AAN?$AA_?$AAC?$AAS?$AAF?$AAS?$AA_?$AAV?$AAE?$AAL?$AA?$AA@ 0043c5dc     editpart.obj
 0002:000025f8       ??_C@_1CE@KAJDNHNB@?$AAV?$AAE?$AAL?$AAO?$AAC?$AAI?$AAT?$AAY?$AA_?$AAF?$AAO?$AAR?$AA_?$AAR?$AAI?$AAS?$AAE?$AA?$AA@ 0043c5f8     editpart.obj
 0002:0000261c       ??_C@_1CA@BKJDBNPO@?$AAT?$AAI?$AAM?$AAE?$AA_?$AAF?$AAO?$AAR?$AA_?$AAI?$AAN?$AAT?$AAE?$AAN?$AAS?$AA?$AA@ 0043c61c     editpart.obj
 0002:0000263c       ??_C@_1CE@BGIFKHJI@?$AAP?$AAR?$AAE?$AAS?$AA_?$AAF?$AAO?$AAR?$AA_?$AAR?$AAE?$AAS?$AAP?$AAO?$AAN?$AAS?$AAE?$AA?$AA@ 0043c63c     editpart.obj
 0002:00002660       ??_C@_1BG@MKKLEGPB@?$AAE?$AAO?$AAF?$AA_?$AAF?$AAS?$AA_?$AAV?$AAE?$AAL?$AA?$AA@ 0043c660     editpart.obj
 0002:00002678       ??_C@_1CG@CEHKLALE@?$AAS?$AAH?$AAO?$AAT?$AA_?$AAN?$AAA?$AAM?$AAE?$AA_?$AAT?$AAE?$AAM?$AAP?$AAL?$AAA?$AAT?$AAE?$AA?$AA@ 0043c678     editpart.obj
 0002:000026a0       ??_C@_1CE@MOIKHEJG@?$AAS?$AAH?$AAO?$AAT?$AA_?$AAN?$AAA?$AAM?$AAE?$AA_?$AAE?$AAX?$AAA?$AAM?$AAP?$AAL?$AAE?$AA?$AA@ 0043c6a0     editpart.obj
 0002:000026c4       ??_C@_1BE@HLJOAMDC@?$AAF?$AAI?$AAL?$AAE?$AA_?$AAN?$AAA?$AAM?$AAE?$AA?$AA@ 0043c6c4     editpart.obj
 0002:000026d8       ??_C@_1BK@CPOLFBEM@?$AAC?$AAO?$AAM?$AAM?$AAA?$AAN?$AAD?$AA_?$AAN?$AAA?$AAM?$AAE?$AA?$AA@ 0043c6d8     editpart.obj
 0002:000026f4       ??_C@_1CC@MAGCAMCK@?$AAS?$AAH?$AAO?$AAT?$AA_?$AAC?$AAO?$AAU?$AAN?$AAT?$AA_?$AAR?$AAE?$AAS?$AAE?$AAT?$AA?$AA@ 0043c6f4     editpart.obj
 0002:00002718       ??_C@_1DA@PODJFMON@?$AAR?$AAE?$AAA?$AAD?$AA_?$AAF?$AAR?$AAO?$AAM?$AA_?$AAE?$AAX?$AAT?$AAE?$AAR?$AAN?$AAA?$AAL?$AA_?$AAF?$AAI?$AAL?$AAE?$AA?$AA@ 0043c718     editpart.obj
 0002:00002748       ??_C@_1DA@JDCHFMII@?$AAE?$AAX?$AAT?$AAE?$AAR?$AAN?$AAA?$AAL?$AA_?$AAP?$AAA?$AAR?$AAA?$AAM?$AAE?$AAT?$AAE?$AAR?$AA_?$AAF?$AAI?$AAL?$AAE?$AA?$AA@ 0043c748     editpart.obj
 0002:00002778       ??_C@_1CC@IDPGNFBE@?$AAA?$AAV?$AAA?$AAI?$AAL?$AAA?$AAB?$AAL?$AAE?$AA_?$AAA?$AAT?$AA_?$AAE?$AAO?$AAS?$AA?$AA@ 0043c778     editpart.obj
 0002:0000279c       ??_C@_1CE@KKIMKJPH@?$AAI?$AAM?$AAP?$AAA?$AAC?$AAT?$AA_?$AAP?$AAA?$AAR?$AAA?$AAM?$AA_?$AAF?$AAI?$AAL?$AAE?$AA?$AA@ 0043c79c     editpart.obj
 0002:000027c0       ??_C@_1BG@IDNNPOIL@?$AAW?$AAI?$AAR?$AAE?$AAS?$AA_?$AAU?$AAS?$AAE?$AAD?$AA?$AA@ 0043c7c0     editpart.obj
 0002:000027d8       ??_C@_1DA@HEECFMGF@?$AAS?$AAH?$AAO?$AAT?$AA_?$AAC?$AAO?$AAU?$AAN?$AAT?$AA_?$AAR?$AAE?$AAS?$AAE?$AAT?$AA_?$AAE?$AAN?$AAA?$AAB?$AAL?$AAE?$AA?$AA@ 0043c7d8     editpart.obj
 0002:00002808       ??_C@_1CC@GCDAICDC@?$AAS?$AAH?$AAO?$AAT?$AA_?$AAC?$AAO?$AAU?$AAN?$AAT?$AA_?$AAP?$AAU?$AAR?$AAG?$AAE?$AA?$AA@ 0043c808     editpart.obj
 0002:0000282c       ??_C@_1CM@DHFGNDHE@?$AAS?$AAH?$AAO?$AAT?$AA_?$AAC?$AAO?$AAU?$AAN?$AAT?$AA_?$AAR?$AAE?$AAS?$AAE?$AAT?$AA_?$AAT?$AAI?$AAM?$AAE?$AA?$AA@ 0043c82c     editpart.obj
 0002:00002858       ??_C@_1CO@KILKIIDD@?$AAN?$AAO?$AA_?$AAS?$AAP?$AAA?$AAC?$AAE?$AAS?$AA_?$AAI?$AAN?$AA_?$AAS?$AAH?$AAO?$AAT?$AA_?$AAN?$AAA?$AAM?$AAE?$AA?$AA@ 0043c858     editpart.obj
 0002:00002888       ??_C@_1CA@FNNDNFHC@?$AAS?$AAH?$AAO?$AAT?$AA_?$AAN?$AAA?$AAM?$AAE?$AA_?$AAE?$AAR?$AAR?$AAO?$AAR?$AA?$AA@ 0043c888     editpart.obj
 0002:000028a8       ??_C@_1DO@ONEGIPLO@?$AAM?$AAU?$AAL?$AAT?$AAI?$AAP?$AAA?$AAR?$AAT?$AA_?$AAR?$AAU?$AAN?$AAL?$AAI?$AAS?$AAT?$AA_?$AAS?$AAE?$AAT?$AAU?$AAP?$AA_?$AAD?$AAI?$AAA?$AAL?$AAO?$AAG?$AA?$AA@ 0043c8a8     editpart.obj
 0002:000028e8       ??_C@_17BODHOPJC@?$AA1?$AA?4?$AA0?$AA?$AA@ 0043c8e8     editpart.obj
 0002:000028f0       ??_C@_1BM@MMPCOHCC@?$AAM?$AAS?$AAL?$AA_?$AAT?$AAO?$AAO?$AA_?$AAS?$AAM?$AAA?$AAL?$AAL?$AA?$AA@ 0043c8f0     editpart.obj
 0002:0000290c       ??_C@_1CA@HBHEHPGK@?$AAR?$AAE?$AAC?$AAO?$AAM?$AAM?$AAE?$AAN?$AAD?$AAE?$AAD?$AA_?$AAM?$AAS?$AAL?$AA?$AA@ 0043c90c     editpart.obj
 0002:0000292c       ??_C@_1DA@LJJBBOEM@?$AAS?$AAA?$AAV?$AAI?$AAN?$AAG?$AA_?$AAV?$AAE?$AAL?$AAO?$AAC?$AAI?$AAT?$AAY?$AA_?$AAC?$AAH?$AAA?$AAN?$AAG?$AAE?$AAS?$AA?$AA@ 0043c92c     editpart.obj
 0002:0000295c       ??_C@_1CC@LHDJNIEN@?$AAD?$AAE?$AAL?$AAE?$AAT?$AAE?$AA_?$AAA?$AAL?$AAL?$AA_?$AAS?$AAH?$AAO?$AAT?$AAS?$AA?$AA@ 0043c95c     editpart.obj
 0002:00002980       ??_C@_1CM@BJIGJLGF@?$AAS?$AAH?$AAO?$AAT?$AA_?$AAN?$AAA?$AAM?$AAE?$AA_?$AAH?$AAA?$AAS?$AA_?$AAC?$AAH?$AAA?$AAN?$AAG?$AAE?$AAD?$AA?$AA@ 0043c980     editpart.obj
 0002:000029ac       ??_C@_1O@GPKBLHLA@?$AAS?$AAA?$AAV?$AAI?$AAN?$AAG?$AA?$AA@ 0043c9ac     editpart.obj
 0002:000029bc       ??_C@_1O@PFBIKACK@?$AAE?$AAn?$AAa?$AAb?$AAl?$AAe?$AA?$AA@ 0043c9bc     editpart.obj
 0002:000029cc       ??_C@_1BE@PELFGBHM@?$AAF?$AAi?$AAl?$AAe?$AA?5?$AAN?$AAa?$AAm?$AAe?$AA?$AA@ 0043c9cc     editpart.obj
 0002:000029e0       ??_C@_19NLBMFKGJ@?$AAL?$AAV?$AAD?$AAT?$AA?$AA@ 0043c9e0     editpart.obj
 0002:000029ec       ??_C@_1BG@MGKGFAF@?$AAC?$AAM?$AAD?$AA_?$AAS?$AAT?$AAR?$AAI?$AAN?$AAG?$AA?$AA@ 0043c9ec     editpart.obj
 0002:00002a04       ??_C@_1DO@BNGNDJDI@?$AAZ?$AAE?$AAR?$AAO?$AA_?$AAB?$AAR?$AAE?$AAA?$AAK?$AA_?$AAG?$AAA?$AAI?$AAN?$AA_?$AAC?$AAH?$AAA?$AAN?$AAG?$AAE?$AAD?$AA_?$AAD?$AAI?$AAA?$AAL?$AAO?$AAG?$AA?$AA@ 0043ca04     editpart.obj
 0002:00002a44       ??_C@_1BE@BKFNMJMN@?$AAN?$AAO?$AAT?$AA_?$AAS?$AAT?$AA_?$AAM?$AAA?$AA?$AA@ 0043ca44     editpart.obj
 0002:00002a58       ??_C@_1CA@EKIGDGOM@?$AAC?$AAH?$AAA?$AAN?$AAG?$AAE?$AA_?$AAM?$AAA?$AA_?$AAS?$AAE?$AAT?$AAU?$AAP?$AA?$AA@ 0043ca58     editpart.obj
 0002:00002a78       ??_C@_1BI@BAKMGBAF@?$AAM?$AAU?$AAS?$AAT?$AA_?$AAS?$AAE?$AAL?$AAE?$AAC?$AAT?$AA?$AA@ 0043ca78     editpart.obj
 0002:00002a90       ??_C@_1BE@ILOILHFB@?$AAL?$AAA?$AAS?$AAT?$AA_?$AAP?$AAA?$AAR?$AAT?$AA?$AA@ 0043ca90     editpart.obj
 0002:00002aa4       ??_C@_1BM@OEIBHHJD@?$AAI?$AAS?$AA_?$AAC?$AAU?$AAR?$AAR?$AAE?$AAN?$AAT?$AA_?$AAP?$AAA?$AA?$AA@ 0043caa4     editpart.obj
 0002:00002ac0       ??_C@_1CA@JFIHEOLM@?$AAW?$AAA?$AAR?$AAM?$AAU?$AAP?$AA_?$AAP?$AAA?$AAR?$AAT?$AA_?$AAF?$AAO?$AAR?$AA?$AA@ 0043cac0     editpart.obj
 0002:00002ae0       ??_C@_1CO@GPFDCBLN@?$AAA?$AAB?$AAO?$AAU?$AAT?$AA_?$AAT?$AAO?$AA_?$AAD?$AAE?$AAL?$AAE?$AAT?$AAE?$AA_?$AAS?$AAT?$AAR?$AAI?$AAN?$AAG?$AA?$AA@ 0043cae0     editpart.obj
 0002:00002b10       ??_C@_1CC@FOMPJCGE@?$AAW?$AAI?$AAS?$AAH?$AA_?$AAT?$AAO?$AA_?$AAC?$AAO?$AAN?$AAT?$AAI?$AAN?$AAU?$AAE?$AA?$AA@ 0043cb10     editpart.obj
 0002:00002b34       ??_C@_1DI@JPMOMNMO@?$AAP?$AAO?$AAP?$AAU?$AAP?$AA_?$AAS?$AAT?$AAA?$AAT?$AAI?$AAC?$AA_?$AAT?$AAE?$AAX?$AAT?$AA_?$AAP?$AAA?$AAR?$AAA?$AAM?$AAE?$AAT?$AAE?$AAR?$AA?$AA@ 0043cb34     editpart.obj
 0002:00002b6c       ??_C@_1CK@OOGKGNCK@?$AAS?$AAA?$AAV?$AAE?$AA_?$AAA?$AAL?$AAL?$AA_?$AAP?$AAR?$AAE?$AAS?$AAS?$AA_?$AAB?$AAE?$AAG?$AAI?$AAN?$AA?$AA@ 0043cb6c     editpart.obj
 0002:00002b98       ??_C@_1CI@DMLHIMDP@?$AAS?$AAA?$AAV?$AAE?$AA_?$AAA?$AAL?$AAL?$AA_?$AAO?$AAN?$AAL?$AAY?$AA_?$AAP?$AAA?$AAR?$AAT?$AAS?$AA?$AA@ 0043cb98     editpart.obj
 0002:00002bc0       ??_C@_1BO@IFLIOFEC@?$AAS?$AAA?$AAV?$AAE?$AA_?$AAA?$AAL?$AAL?$AA_?$AAP?$AAA?$AAR?$AAT?$AAS?$AA?$AA@ 0043cbc0     editpart.obj
 0002:00002be0       ??_C@_1M@FACFGDEF@?$AAB?$AAE?$AAG?$AAI?$AAN?$AA?$AA@ 0043cbe0     editpart.obj
 0002:00002bec       ??_C@_1BI@OKCPNNPM@?$AAC?$AAR?$AAE?$AAA?$AAT?$AAE?$AA_?$AAP?$AAA?$AAR?$AAT?$AA?$AA@ 0043cbec     editpart.obj
 0002:00002c04       ??_C@_1BI@OEANKEHI@?$AAD?$AAE?$AAL?$AAE?$AAT?$AAE?$AA_?$AAP?$AAA?$AAR?$AAT?$AA?$AA@ 0043cc04     editpart.obj
 0002:00002c1c       ??_C@_1CO@EHDDNHJP@?$AAC?$AAO?$AAP?$AAY?$AA_?$AAT?$AAO?$AA_?$AAE?$AAX?$AAI?$AAS?$AAT?$AAI?$AAN?$AAG?$AA_?$AAP?$AAA?$AAR?$AAT?$AAS?$AA?$AA@ 0043cc1c     editpart.obj
 0002:00002c4c       ??_C@_1CO@DNKOMDPD@?$AAC?$AAO?$AAP?$AAY?$AA_?$AAT?$AAO?$AA_?$AAO?$AAT?$AAH?$AAE?$AAR?$AA_?$AAM?$AAA?$AAC?$AAH?$AAI?$AAN?$AAE?$AAS?$AA?$AA@ 0043cc4c     editpart.obj
 0002:00002c7c       ??_C@_1BG@PMGCKBBJ@?$AAC?$AAA?$AAL?$AAC?$AAU?$AAL?$AAA?$AAT?$AAO?$AAR?$AA?$AA@ 0043cc7c     editpart.obj
 0002:00002c94       ??_C@_1M@ECFPBPMG@?$AAP?$AAR?$AAI?$AAN?$AAT?$AA?$AA@ 0043cc94     editpart.obj
 0002:00002ca0       ??_C@_1BK@IPDEDNND@?$AAC?$AAH?$AAA?$AAN?$AAG?$AAE?$AA_?$AAF?$AAO?$AAC?$AAU?$AAS?$AA?$AA@ 0043cca0     editpart.obj
 0002:00002cbc       ??_C@_1O@OEKIGICE@?$AAR?$AAE?$AAL?$AAO?$AAA?$AAD?$AA?$AA@ 0043ccbc     editpart.obj
 0002:00002ccc       ??_C@_1BE@HPCKAMMI@?$AAB?$AAA?$AAS?$AAI?$AAC?$AA_?$AAT?$AAA?$AAB?$AA?$AA@ 0043cccc     editpart.obj
 0002:00002ce0       ??_C@_1BE@EAKLMECJ@?$AAM?$AAA?$AAR?$AAK?$AAS?$AA_?$AAT?$AAA?$AAB?$AA?$AA@ 0043cce0     editpart.obj
 0002:00002cf4       ??_C@_1BK@NIGNGPMI@?$AAC?$AAH?$AAA?$AAN?$AAN?$AAE?$AAL?$AAS?$AA_?$AAT?$AAA?$AAB?$AA?$AA@ 0043ccf4     editpart.obj
 0002:00002d10       ??_C@_1BK@PJBEEBH@?$AAS?$AAU?$AAR?$AAE?$AAT?$AAR?$AAA?$AAK?$AA_?$AAT?$AAA?$AAB?$AA?$AA@ 0043cd10     editpart.obj
 0002:00002d2c       ??_C@_1CC@ICHGIKNM@?$AAN?$AAO?$AA_?$AAP?$AAA?$AAR?$AAT?$AA_?$AAS?$AAE?$AAL?$AAE?$AAC?$AAT?$AAE?$AAD?$AA?$AA@ 0043cd2c     editpart.obj
 0002:00002d50       ??_C@_1CM@CDNOPABF@?$AAS?$AAA?$AAV?$AAE?$AA_?$AAA?$AAL?$AAL?$AA_?$AAP?$AAA?$AAR?$AAT?$AAS?$AA_?$AAD?$AAI?$AAA?$AAL?$AAO?$AAG?$AA?$AA@ 0043cd50     editpart.obj
 0002:00002d7c       ??_C@_1BM@CIBEDMPG@?$AAC?$AAO?$AAP?$AAY?$AA_?$AAM?$AAU?$AAL?$AAT?$AAI?$AAP?$AAL?$AAE?$AA?$AA@ 0043cd7c     editpart.obj
 0002:00002d98       ??_C@_1BK@NACGEJBP@?$AAC?$AAO?$AAP?$AAY?$AAT?$AAO?$AAD?$AAI?$AAA?$AAL?$AAO?$AAG?$AA?$AA@ 0043cd98     editpart.obj
 0002:00002db4       ??_C@_1CE@FDNEKKD@?$AAC?$AAA?$AAL?$AAC?$AAU?$AAL?$AAA?$AAT?$AAO?$AAR?$AA_?$AAD?$AAI?$AAA?$AAL?$AAO?$AAG?$AA?$AA@ 0043cdb4     editpart.obj
 0002:00002dd8       ??_C@_1BC@HIIEIEOL@?$AAA?$AAD?$AAD?$AA_?$AAP?$AAA?$AAR?$AAT?$AA?$AA@ 0043cdd8     editpart.obj
 0002:00002dec       ??_C@_1O@MHJJMELH@?$AAB?$AAu?$AAt?$AAt?$AAo?$AAn?$AA?$AA@ 0043cdec     editpart.obj
 0002:00002dfc       ??_C@_19PLOBJMHF@?$AAE?$AAd?$AAi?$AAt?$AA?$AA@ 0043cdfc     editpart.obj
 0002:00002e08       ??_C@_1DG@DPDCFJCM@?$AAA?$AAU?$AAT?$AAO?$AA_?$AAS?$AAA?$AAV?$AAE?$AA_?$AAA?$AAL?$AAL?$AA_?$AAP?$AAA?$AAR?$AAT?$AAS?$AA_?$AAD?$AAI?$AAA?$AAL?$AAO?$AAG?$AA?$AA@ 0043ce08     editpart.obj
 0002:00002e40       ??_C@_17OCANGMGN@?$AAC?$AAF?$AAG?$AA?$AA@ 0043ce40     editpart.obj
 0002:00002e48       ??_C@_17LCEJACNC@?$AAA?$AAC?$AAT?$AA?$AA@ 0043ce48     editpart.obj
 0002:00002e50       ??_C@_1BA@CPEEGDLC@?$AAM?$AAS?$AA?5?5?$BD?$AA?$LO?5?$BJ?$AA?$KJ?$AA?$AA@ 0043ce50     editpart.obj
 0002:00002e60       ??_C@_1M@KAKMLIHO@?$AAA?$AAr?$AAi?$AAa?$AAl?$AA?$AA@ 0043ce60     editpart.obj
 0002:00002e6c       ??_C@_1CC@GPJLCFOI@?$AAE?$AAD?$AAI?$AAT?$AAP?$AAA?$AAR?$AAT?$AA_?$AAC?$AAA?$AAP?$AAT?$AAI?$AAO?$AAN?$AA?$AA@ 0043ce6c     editpart.obj
 0002:00002e90       ??_C@_1BI@LHKFFJHE@?$AAM?$AAA?$AAI?$AAN?$AA_?$AAD?$AAI?$AAA?$AAL?$AAO?$AAG?$AA?$AA@ 0043ce90     editpart.obj
 0002:00002ea8       ??_C@_1CC@JDIHGLEJ@?$AAP?$AAA?$AAR?$AAA?$AAM?$AAE?$AAT?$AAE?$AAR?$AA_?$AAD?$AAI?$AAA?$AAL?$AAO?$AAG?$AA?$AA@ 0043cea8     editpart.obj
 0002:00002ecc       __real@00000000            0043cecc     editpart.obj
 0002:00002ed0       __real@3f000000            0043ced0     editpart.obj
 0002:00002ed8       __real@3f50624dd2f1a9fc    0043ced8     editpart.obj
 0002:00002ee0       __real@3f847ae147ae147b    0043cee0     editpart.obj
 0002:00002ee8       __real@3fd0000000000000    0043cee8     editpart.obj
 0002:00002ef0       __real@3fe0000000000000    0043cef0     editpart.obj
 0002:00002ef8       __real@3ff0000000000000    0043cef8     editpart.obj
 0002:00002f00       __real@4000000000000000    0043cf00     editpart.obj
 0002:00002f08       __real@4004000000000000    0043cf08     editpart.obj
 0002:00002f10       __real@4008000000000000    0043cf10     editpart.obj
 0002:00002f18       __real@4014000000000000    0043cf18     editpart.obj
 0002:00002f20       __real@4024000000000000    0043cf20     editpart.obj
 0002:00002f28       __real@4059000000000000    0043cf28     editpart.obj
 0002:00002f30       __real@4069000000000000    0043cf30     editpart.obj
 0002:00002f38       __real@4072c00000000000    0043cf38     editpart.obj
 0002:00002f40       __real@408f400000000000    0043cf40     editpart.obj
 0002:00002f48       __real@41200000            0043cf48     editpart.obj
 0002:00002f4c       __real@42c80000            0043cf4c     editpart.obj
 0002:00002f50       __real@bff0000000000000    0043cf50     editpart.obj
 0002:00002f58       __real@c024000000000000    0043cf58     editpart.obj
 0002:00002f60       __real@c059000000000000    0043cf60     editpart.obj
 0002:00002f68       __real@c2c80000            0043cf68     editpart.obj
 0002:00002f70       __xmm@0000000000000000000000000000000e 0043cf70     editpart.obj
 0002:00002f80       __xmm@0000009b0000006d0000009900000068 0043cf80     editpart.obj
 0002:00002f90       __xmm@0000009c0000006a0000009600000065 0043cf90     editpart.obj
 0002:00002fa0       __xmm@0000009d0000006b0000009700000066 0043cfa0     editpart.obj
 0002:00002fb0       __xmm@0000009e0000006c0000009800000067 0043cfb0     editpart.obj
 0002:00002fc0       __xmm@000003ff000003fd000003fe000003fc 0043cfc0     editpart.obj
 0002:00002fd0       __xmm@00000403000004020000040100000400 0043cfd0     editpart.obj
 0002:00002fe0       __xmm@00000407000004060000040500000404 0043cfe0     editpart.obj
 0002:00002ff0       __xmm@0000040900000408000003fb000003fa 0043cff0     editpart.obj
 0002:00003000       __xmm@80000000000000008000000000000000 0043d000     editpart.obj
 0002:00003010       ??_C@_1CI@FKCAMHIC@?$AAI?$AAN?$AAT?$AAE?$AAR?$AAN?$AAA?$AAL?$AA_?$AAP?$AAA?$AAR?$AAA?$AAM?$AAE?$AAT?$AAE?$AAR?$AAS?$AA?$AA@ 0043d010     edparam.obj
 0002:00003038       ??_C@_1BE@GKKHBMPJ@?$AAF?$AAT?$AA_?$AAA?$AAN?$AAA?$AAL?$AAO?$AAG?$AA?$AA@ 0043d038     edparam.obj
 0002:0000304c       ??_C@_1CI@IOGEJNEJ@?$AAF?$AAT?$AA_?$AAP?$AAE?$AAA?$AAK?$AA_?$AAF?$AAS?$AA_?$AAV?$AAE?$AAL?$AAO?$AAC?$AAI?$AAT?$AAY?$AA?$AA@ 0043d04c     edparam.obj
 0002:00003074       ??_C@_1CM@OIENDGDE@?$AAF?$AAT?$AA_?$AAE?$AAX?$AAT?$AAE?$AAR?$AAN?$AAA?$AAL?$AA_?$AAP?$AAA?$AAR?$AAA?$AAM?$AAE?$AAT?$AAE?$AAR?$AA?$AA@ 0043d074     edparam.obj
 0002:000030a0       ??_C@_1DC@DFEGDDOA@?$AAF?$AAT?$AA_?$AAS?$AAT?$AAA?$AAT?$AAI?$AAC?$AA_?$AAT?$AAE?$AAX?$AAT?$AA_?$AAP?$AAA?$AAR?$AAA?$AAM?$AAE?$AAT?$AAE?$AAR?$AA?$AA@ 0043d0a0     edparam.obj
 0002:000030d4       ??_C@_1BI@FGAHDCDG@?$AAV?$AAA?$AAR?$AAT?$AAY?$AAP?$AAE?$AA?4?$AAT?$AAX?$AAT?$AA?$AA@ 0043d0d4     edparam.obj
 0002:000030ec       ??_C@_1BI@EPHCFMHD@?$AAT?$AAI?$AAM?$AAE?$AA_?$AAS?$AAT?$AAR?$AAI?$AAN?$AAG?$AA?$AA@ 0043d0ec     edparam.obj
 0002:00003104       ??_C@_1BO@GHFDGELE@?$AAQ?$AAU?$AAE?$AAS?$AAT?$AAI?$AAO?$AAN?$AA_?$AAM?$AAA?$AAR?$AAK?$AAS?$AA?$AA@ 0043d104     edparam.obj
 0002:00003124       ??_C@_1BK@OFNHKEB@?$AAP?$AAA?$AAR?$AAM?$AAN?$AAA?$AAM?$AAE?$AA?4?$AAT?$AAX?$AAT?$AA?$AA@ 0043d124     edparam.obj
 0002:00003140       ??_C@_1BM@GCBMBNBM@?$AAI?$AAN?$AAT?$AAE?$AAR?$AAN?$AAA?$AAL?$AA_?$AAN?$AAA?$AAM?$AAE?$AA?$AA@ 0043d140     edparam.obj
 0002:0000315c       ??_C@_1BG@CCIKNLJP@?$AAD?$AAI?$AAF?$AA_?$AAS?$AAT?$AAR?$AAI?$AAN?$AAG?$AA?$AA@ 0043d15c     edparam.obj
 0002:00003174       ??_C@_1CA@PJKHPNHE@?$AAT?$AAI?$AAM?$AAE?$AA_?$AAP?$AAO?$AAS?$AA_?$AAS?$AAT?$AAR?$AAI?$AAN?$AAG?$AA?$AA@ 0043d174     edparam.obj
 0002:00003194       ??_C@_1CG@KFMDEFK@?$AAF?$AAT?$AA2?$AA_?$AAA?$AAN?$AAA?$AAL?$AAO?$AAG?$AA_?$AAC?$AAH?$AAA?$AAN?$AAN?$AAE?$AAL?$AA?$AA@ 0043d194     edparam.obj
 0002:000031bc       ??_C@_1CA@MAAJHGMF@?$AAP?$AAO?$AAS?$AA_?$AAD?$AAU?$AAR?$AAI?$AAN?$AAG?$AA_?$AAS?$AAH?$AAO?$AAT?$AA?$AA@ 0043d1bc     edparam.obj
 0002:000031dc       ??_C@_1CG@DNNCIMKI@?$AAT?$AAI?$AAM?$AAE?$AA_?$AAD?$AAU?$AAR?$AAI?$AAN?$AAG?$AA_?$AAI?$AAN?$AAT?$AAE?$AAN?$AAS?$AA?$AA@ 0043d1dc     edparam.obj
 0002:00003204       ??_C@_1BK@PLJBBLGD@?$AAS?$AAI?$AAN?$AAG?$AAL?$AAE?$AA_?$AAP?$AAO?$AAI?$AAN?$AAT?$AA?$AA@ 0043d204     edparam.obj
 0002:00003220       ??_C@_1BG@CGLEABHM@?$AAM?$AAA?$AAX?$AA_?$AAS?$AAT?$AAR?$AAI?$AAN?$AAG?$AA?$AA@ 0043d220     edparam.obj
 0002:00003238       ??_C@_1BG@JLLADHFD@?$AAM?$AAI?$AAN?$AA_?$AAS?$AAT?$AAR?$AAI?$AAN?$AAG?$AA?$AA@ 0043d238     edparam.obj
 0002:00003250       ??_C@_1BG@BKAIEBLK@?$AAA?$AAV?$AAG?$AA_?$AAS?$AAT?$AAR?$AAI?$AAN?$AAG?$AA?$AA@ 0043d250     edparam.obj
 0002:00003268       ??_C@_1CA@KCLHJFO@?$AAS?$AAU?$AAB?$AAT?$AAR?$AAA?$AAC?$AAT?$AA_?$AAS?$AAT?$AAR?$AAI?$AAN?$AAG?$AA?$AA@ 0043d268     edparam.obj
 0002:00003288       ??_C@_1BE@JOMKANPH@?$AAS?$AAA?$AAM?$AAP?$AAL?$AAE?$AA_?$AAA?$AAT?$AA?$AA@ 0043d288     edparam.obj
 0002:0000329c       ??_C@_1BK@DLGLOODP@?$AAS?$AAT?$AAA?$AAR?$AAT?$AA_?$AAS?$AAT?$AAR?$AAI?$AAN?$AAG?$AA?$AA@ 0043d29c     edparam.obj
 0002:000032b8       ??_C@_1BG@NBDCHCEP@?$AAE?$AAN?$AAD?$AA_?$AAS?$AAT?$AAR?$AAI?$AAN?$AAG?$AA?$AA@ 0043d2b8     edparam.obj
 0002:000032d0       ??_C@_1CA@MMLGKGNK@?$AAT?$AAR?$AAI?$AAG?$AAG?$AAE?$AAR?$AA_?$AAW?$AAH?$AAE?$AAN?$AA_?$AAG?$AAT?$AA?$AA@ 0043d2d0     edparam.obj
 0002:000032f0       ??_C@_1CA@KGHBFGBJ@?$AAT?$AAR?$AAI?$AAG?$AAG?$AAE?$AAR?$AA_?$AAW?$AAH?$AAE?$AAN?$AA_?$AAL?$AAT?$AA?$AA@ 0043d2f0     edparam.obj
 0002:00003310       ??_C@_1BK@DFKGENMN@?$AAT?$AAA?$AAR?$AAG?$AAE?$AAT?$AA_?$AAV?$AAA?$AAL?$AAU?$AAE?$AA?$AA@ 0043d310     edparam.obj
 0002:0000332c       ??_C@_1BK@PJMGDAMP@?$AAT?$AAR?$AAI?$AAG?$AAG?$AAE?$AAR?$AA_?$AAT?$AAY?$AAP?$AAE?$AA?$AA@ 0043d32c     edparam.obj
 0002:00003348       ??_C@_1CE@LEIGFACE@?$AAI?$AAN?$AAP?$AAU?$AAT?$AA_?$AAW?$AAI?$AAR?$AAE?$AA_?$AAN?$AAU?$AAM?$AAB?$AAE?$AAR?$AA?$AA@ 0043d348     edparam.obj
 0002:0000336c       ??_C@_1BK@FEFGIKHM@?$AAT?$AAR?$AAI?$AAG?$AAG?$AAE?$AAR?$AA_?$AAH?$AAI?$AAG?$AAH?$AA?$AA@ 0043d36c     edparam.obj
 0002:00003388       ??_C@_1BI@OPKFGPKN@?$AAT?$AAR?$AAI?$AAG?$AAG?$AAE?$AAR?$AA_?$AAL?$AAO?$AAW?$AA?$AA@ 0043d388     edparam.obj
 0002:000033a0       ??_C@_1BK@DGLOEFAP@?$AAI?$AAN?$AAP?$AAU?$AAT?$AA_?$AAN?$AAU?$AAM?$AAB?$AAE?$AAR?$AA?$AA@ 0043d3a0     edparam.obj
 0002:000033bc       ??_C@_1BO@DLLECMEN@?$AAW?$AAH?$AAE?$AAN?$AA_?$AAT?$AAO?$AA_?$AAS?$AAA?$AAM?$AAP?$AAL?$AAE?$AA?$AA@ 0043d3bc     edparam.obj
 0002:000033dc       ??_C@_1CE@MGJCNOCC@?$AAI?$AAN?$AAP?$AAU?$AAT?$AA_?$AAW?$AAI?$AAR?$AAE?$AA_?$AAP?$AAR?$AAO?$AAM?$AAP?$AAT?$AA?$AA@ 0043d3dc     edparam.obj
 0002:00003400       ??_C@_1BM@CJMCGDDN@?$AAI?$AAN?$AAP?$AAU?$AAT?$AA_?$AAC?$AAO?$AAM?$AAM?$AAA?$AAN?$AAD?$AA?$AA@ 0043d400     edparam.obj
 0002:0000341c       ??_C@_1BM@HMMAGOLL@?$AAV?$AAA?$AAR?$AAI?$AAA?$AAB?$AAL?$AAE?$AA_?$AAT?$AAY?$AAP?$AAE?$AA?$AA@ 0043d41c     edparam.obj
 0002:00003438       ??_C@_1BM@ICOKLBBB@?$AAC?$AAU?$AAR?$AAR?$AAE?$AAN?$AAT?$AA_?$AAV?$AAA?$AAL?$AAU?$AAE?$AA?$AA@ 0043d438     edparam.obj
 0002:00003454       ??_C@_1BK@BMNGABDO@?$AAC?$AAR?$AAE?$AAA?$AAT?$AAE?$AA_?$AAP?$AAO?$AAP?$AAU?$AAP?$AA?$AA@ 0043d454     edparam.obj
 0002:00003470       ??_C@_1BM@JCBCPDN@?$AAM?$AAO?$AAN?$AAI?$AAT?$AAO?$AAR?$AA_?$AAP?$AAO?$AAP?$AAU?$AAP?$AA?$AA@ 0043d470     edparam.obj
 0002:0000348c       ??_C@_1CA@KPBCBJLG@?$AAT?$AAR?$AAA?$AAN?$AAS?$AAI?$AAT?$AAI?$AAO?$AAN?$AA_?$AAT?$AAY?$AAP?$AAE?$AA?$AA@ 0043d48c     edparam.obj
 0002:000034ac       ??_C@_1BE@FIMDNDFG@?$AAO?$AAF?$AAF?$AA_?$AAT?$AAO?$AA_?$AAO?$AAN?$AA?$AA@ 0043d4ac     edparam.obj
 0002:000034c0       ??_C@_1BE@PPNCPGOB@?$AAO?$AAN?$AA_?$AAT?$AAO?$AA_?$AAO?$AAF?$AAF?$AA?$AA@ 0043d4c0     edparam.obj
 0002:000034d4       ??_C@_1BC@FIDGHEML@?$AAS?$AAM?$AAO?$AAO?$AAT?$AAH?$AA_?$AAN?$AA?$AA@ 0043d4d4     edparam.obj
 0002:000034e8       ??_C@_1CE@DPJFMDMH@?$AAS?$AAM?$AAO?$AAO?$AAT?$AAH?$AA_?$AAM?$AAU?$AAL?$AAT?$AAI?$AAP?$AAL?$AAI?$AAE?$AAR?$AA?$AA@ 0043d4e8     edparam.obj
 0002:0000350c       ??_C@_1BK@CGPLEBCM@?$AAS?$AAA?$AAM?$AAP?$AAL?$AAE?$AA_?$AAR?$AAA?$AAN?$AAG?$AAE?$AA?$AA@ 0043d50c     edparam.obj
 0002:00003528       ??_C@_1CA@NDHOGBKO@?$AAS?$AAM?$AAO?$AAO?$AAT?$AAH?$AA_?$AAS?$AAE?$AAT?$AAT?$AAI?$AAN?$AAG?$AAS?$AA?$AA@ 0043d528     edparam.obj
 0002:00003548       ??_C@_1BK@CBONDPKO@?$AAC?$AAL?$AAE?$AAA?$AAR?$AA_?$AAS?$AAT?$AAR?$AAI?$AAN?$AAG?$AA?$AA@ 0043d548     edparam.obj
 0002:00003564       ??_C@_1BO@BICIKPAM@?$AAP?$AAA?$AAR?$AAA?$AAM?$AAE?$AAT?$AAE?$AAR?$AA_?$AAT?$AAY?$AAP?$AAE?$AA?$AA@ 0043d564     edparam.obj
 0002:00003584       ??_C@_1BM@FEIAGBGE@?$AAN?$AAU?$AAM?$AAB?$AAE?$AAR?$AA_?$AAS?$AAT?$AAR?$AAI?$AAN?$AAG?$AA?$AA@ 0043d584     edparam.obj
 0002:000035a0       ??_C@_1BK@GNJHEMAF@?$AAH?$AAI?$AAG?$AAH?$AA_?$AAW?$AAA?$AAR?$AAN?$AAI?$AAN?$AAG?$AA?$AA@ 0043d5a0     edparam.obj
 0002:000035bc       ??_C@_1BI@DNHAHEPE@?$AAL?$AAO?$AAW?$AA_?$AAW?$AAA?$AAR?$AAN?$AAI?$AAN?$AAG?$AA?$AA@ 0043d5bc     edparam.obj
 0002:000035d4       ??_C@_1BE@PMGGJFCD@?$AAL?$AAO?$AAW?$AA_?$AAA?$AAL?$AAA?$AAR?$AAM?$AA?$AA@ 0043d5d4     edparam.obj
 0002:000035e8       ??_C@_1BG@HMIBJNDO@?$AAH?$AAI?$AAG?$AAH?$AA_?$AAA?$AAL?$AAA?$AAR?$AAM?$AA?$AA@ 0043d5e8     edparam.obj
 0002:00003600       ??_C@_1BK@LDNFMHJJ@?$AAV?$AAA?$AAL?$AAU?$AAE?$AA_?$AAS?$AAT?$AAR?$AAI?$AAN?$AAG?$AA?$AA@ 0043d600     edparam.obj
 0002:0000361c       ??_C@_1BG@EOGCLILA@?$AAA?$AAL?$AAA?$AAR?$AAM?$AA_?$AAW?$AAI?$AAR?$AAE?$AA?$AA@ 0043d61c     edparam.obj
 0002:0000373c       ??_C@_1BC@BIGAEHEP@?$AAC?$AAA?$AAL?$AAC?$AA?4?$AAD?$AAA?$AAT?$AA?$AA@ 0043d73c     calc.obj
 0002:00003754       ??_7DOUBLE_ARRAY_CLASS@@6B@ 0043d754     calc.obj
 0002:00003760       ??_7INT32_ARRAY_CLASS@@6B@ 0043d760     calc.obj
 0002:0000376c       ??_C@_1BI@IILBJPFG@?$AAD?$AAE?$AAN?$AAS?$AAI?$AAT?$AAY?$AA?4?$AAT?$AAX?$AAT?$AA?$AA@ 0043d76c     calc.obj
 0002:00003784       ??_C@_1BG@KHFOODAN@?$AAN?$AAE?$AAW?$AA_?$AAS?$AAT?$AAR?$AAI?$AAN?$AAG?$AA?$AA@ 0043d784     calc.obj
 0002:0000379c       ??_C@_1BC@PJNHAOGB@?$AAI?$AAN?$AA_?$AAU?$AAN?$AAI?$AAT?$AAS?$AA?$AA@ 0043d79c     calc.obj
 0002:000037b0       ??_C@_1BC@MCJKHPBM@?$AAC?$AAM?$AA_?$AAU?$AAN?$AAI?$AAT?$AAS?$AA?$AA@ 0043d7b0     calc.obj
 0002:000037c4       ??_C@_1BC@NLLHGNJF@?$AAM?$AAM?$AA_?$AAU?$AAN?$AAI?$AAT?$AAS?$AA?$AA@ 0043d7c4     calc.obj
 0002:000037d8       ??_C@_1BC@CBHIGLDM@?$AAK?$AAG?$AA_?$AAU?$AAN?$AAI?$AAT?$AAS?$AA?$AA@ 0043d7d8     calc.obj
 0002:000037ec       ??_C@_1BE@GFGNMIPF@?$AAL?$AAB?$AAS?$AA_?$AAU?$AAN?$AAI?$AAT?$AAS?$AA?$AA@ 0043d7ec     calc.obj
 0002:00003800       ??_C@_1BI@MMOKJGAJ@?$AAE?$AAD?$AAI?$AAT?$AA_?$AAS?$AAT?$AAR?$AAI?$AAN?$AAG?$AA?$AA@ 0043d800     calc.obj
 0002:00003818       ??_C@_1BG@HMPEOPLL@?$AAC?$AAO?$AAP?$AAY?$AA_?$AAP?$AA1?$AA_?$AAP?$AA2?$AA?$AA@ 0043d818     calc.obj
 0002:00003830       ??_C@_1CA@KIIPCHAA@?$AAU?$AAS?$AAE?$AA_?$AAP?$AAL?$AAU?$AAN?$AAG?$AAE?$AAR?$AA_?$AAD?$AAI?$AAA?$AA?$AA@ 0043d830     calc.obj
 0002:00003850       ??_C@_1BM@OBJPJPGI@?$AAY?$AAO?$AAU?$AA_?$AAM?$AAU?$AAS?$AAT?$AA_?$AAS?$AAA?$AAV?$AAE?$AA?$AA@ 0043d850     calc.obj
 0002:0000386c       ??_C@_1BK@DKDEPHPC@?$AAP?$AAL?$AAU?$AAN?$AAG?$AAE?$AAR?$AA_?$AAA?$AAR?$AAE?$AAA?$AA?$AA@ 0043d86c     calc.obj
 0002:00003888       ??_C@_1CA@CAEACDLL@?$AAD?$AAR?$AAY?$AA_?$AAS?$AAH?$AAO?$AAT?$AA_?$AAL?$AAE?$AAN?$AAG?$AAT?$AAH?$AA?$AA@ 0043d888     calc.obj
 0002:000038a8       ??_C@_1CA@MIMKLMPE@?$AAS?$AAH?$AAO?$AAT?$AA_?$AAS?$AAL?$AAE?$AAE?$AAV?$AAE?$AA_?$AAV?$AAO?$AAL?$AA?$AA@ 0043d8a8     calc.obj
 0002:000038c8       ??_C@_1BO@DKJPGLMJ@?$AAC?$AAA?$AAS?$AAT?$AAI?$AAN?$AAG?$AA_?$AAW?$AAE?$AAI?$AAG?$AAH?$AAT?$AA?$AA@ 0043d8c8     calc.obj
 0002:000038e8       ??_C@_1CA@PHKNLPNB@?$AAO?$AAV?$AAE?$AAR?$AAF?$AAL?$AAO?$AAW?$AA_?$AAW?$AAE?$AAI?$AAG?$AAH?$AAT?$AA?$AA@ 0043d8e8     calc.obj
 0002:00003908       ??_C@_1BM@DJOJCGM@?$AAC?$AAA?$AAV?$AAI?$AAT?$AAY?$AA_?$AAW?$AAE?$AAI?$AAG?$AAH?$AAT?$AA?$AA@ 0043d908     calc.obj
 0002:00003924       ??_C@_1BG@IJIEIM@?$AAW?$AAE?$AAI?$AAG?$AAH?$AAT?$AA_?$AAR?$AA_?$AAB?$AA?$AA@ 0043d924     calc.obj
 0002:0000393c       ??_C@_1CE@LPJKLMHA@?$AAT?$AAO?$AAT?$AAA?$AAL?$AA_?$AAS?$AAH?$AAO?$AAT?$AA_?$AAW?$AAE?$AAI?$AAG?$AAH?$AAT?$AA?$AA@ 0043d93c     calc.obj
 0002:00003960       ??_C@_1BA@LAKIBNOB@?$AAD?$AAE?$AAN?$AAS?$AAI?$AAT?$AAY?$AA?$AA@ 0043d960     calc.obj
 0002:00003970       ??_C@_1BI@GCMFOAMI@?$AAV?$AAO?$AAL?$AA_?$AAO?$AAF?$AA_?$AAS?$AAH?$AAO?$AAT?$AA?$AA@ 0043d970     calc.obj
 0002:00003988       ??_C@_1BI@INBOAIFL@?$AAP?$AAE?$AAR?$AAC?$AAE?$AAN?$AAT?$AA_?$AAS?$AAS?$AAF?$AA?$AA@ 0043d988     calc.obj
 0002:000039a0       ??_C@_1BA@EMGOACJM@?$AAS?$AAS?$AAF?$AA_?$AAP?$AAO?$AAS?$AA?$AA@ 0043d9a0     calc.obj
 0002:000039b0       ??_C@_1BI@JNIBELJP@?$AAB?$AAI?$AAS?$AAC?$AAU?$AAI?$AAT?$AA_?$AAL?$AAE?$AAN?$AA?$AA@ 0043d9b0     calc.obj
 0002:000039c8       ??_C@_1BI@HLGIINJB@?$AAB?$AAI?$AAS?$AAC?$AAU?$AAI?$AAT?$AA_?$AAV?$AAO?$AAL?$AA?$AA@ 0043d9c8     calc.obj
 0002:000039e0       ??_C@_1BG@GAONBFNL@?$AAB?$AAI?$AAS?$AAC?$AAU?$AAI?$AAT?$AA_?$AAW?$AAT?$AA?$AA@ 0043d9e0     calc.obj
 0002:000039f8       ??_C@_1BE@NHBDCBDH@?$AAR?$AAU?$AAN?$AAN?$AAE?$AAR?$AA_?$AAW?$AAT?$AA?$AA@ 0043d9f8     calc.obj
 0002:00003a0c       ??_C@_1BG@KIBHHCDK@?$AAR?$AAU?$AAN?$AAN?$AAE?$AAR?$AA_?$AAV?$AAO?$AAL?$AA?$AA@ 0043da0c     calc.obj
 0002:00003a24       ??_C@_1CC@GGLBKHID@?$AAR?$AAU?$AAN?$AAN?$AAE?$AAR?$AA_?$AAF?$AAI?$AAL?$AAL?$AA_?$AAD?$AAI?$AAS?$AAT?$AA?$AA@ 0043da24     calc.obj
 0002:00003a48       ??_C@_1BM@CKPMOKFE@?$AAM?$AAE?$AAT?$AAA?$AAL?$AA_?$AAA?$AAT?$AA_?$AAG?$AAA?$AAT?$AAE?$AA?$AA@ 0043da48     calc.obj
 0002:00003a64       ??_C@_1BC@NEDEMDAA@?$AAF?$AAI?$AAL?$AAL?$AA_?$AAV?$AAE?$AAL?$AA?$AA@ 0043da64     calc.obj
 0002:00003a78       ??_C@_1BE@PMJCEANG@?$AAG?$AAA?$AAT?$AAE?$AA_?$AAA?$AAR?$AAE?$AAA?$AA?$AA@ 0043da78     calc.obj
 0002:00003a8c       ??_C@_1BC@IADHPCGF@?$AAG?$AAA?$AAT?$AAE?$AA_?$AAV?$AAE?$AAL?$AA?$AA@ 0043da8c     calc.obj
 0002:00003aa0       ??_C@_1BG@PGMHGPLC@?$AAC?$AAA?$AAV?$AAI?$AAT?$AAY?$AA_?$AAV?$AAO?$AAL?$AA?$AA@ 0043daa0     calc.obj
 0002:00003ab8       ??_C@_1BK@DJICFPG@?$AAC?$AAA?$AAV?$AAI?$AAT?$AAY?$AA_?$AAS?$AAW?$AAE?$AAE?$AAP?$AA?$AA@ 0043dab8     calc.obj
 0002:00003ad4       ??_C@_1BE@DGKBPJOG@?$AAF?$AAI?$AAL?$AAL?$AA_?$AAT?$AAI?$AAM?$AAE?$AA?$AA@ 0043dad4     calc.obj
 0002:00003ae8       ??_C@_1BI@NONBFKFD@?$AAI?$AAN?$AAT?$AAE?$AAN?$AAS?$AA_?$AAP?$AAR?$AAE?$AAS?$AA?$AA@ 0043dae8     calc.obj
 0002:00003b00       ??_C@_1CG@BAPMEJOO@?$AAP?$AAL?$AAU?$AAN?$AAG?$AAE?$AAR?$AA_?$AAG?$AAA?$AAT?$AAE?$AA_?$AAR?$AAA?$AAT?$AAI?$AAO?$AA?$AA@ 0043db00     calc.obj
 0002:00003b28       ??_C@_1BC@OCCIMEAJ@?$AAC?$AAY?$AAL?$AA_?$AAA?$AAR?$AAE?$AAA?$AA?$AA@ 0043db28     calc.obj
 0002:00003b3c       ??_C@_1BA@EGPBENCA@?$AAC?$AAY?$AAL?$AA_?$AAD?$AAI?$AAA?$AA?$AA@ 0043db3c     calc.obj
 0002:00003b4c       ??_C@_1BG@GDCJLKMF@?$AAM?$AAE?$AAT?$AAA?$AAL?$AA_?$AAP?$AAR?$AAE?$AAS?$AA?$AA@ 0043db4c     calc.obj
 0002:00003b64       ??_C@_1BE@KJPONMLD@?$AAA?$AAR?$AAE?$AAA?$AA_?$AAC?$AAA?$AAS?$AAT?$AA?$AA@ 0043db64     calc.obj
 0002:00003b78       ??_C@_1BM@PEMLICJI@?$AAO?$AAP?$AAE?$AAN?$AAI?$AAN?$AAG?$AA_?$AAF?$AAO?$AAR?$AAC?$AAE?$AA?$AA@ 0043db78     calc.obj
 0002:00003b94       ??_C@_1BC@NMMNMEEC@?$AAW?$AAT?$AA_?$AAU?$AAN?$AAI?$AAT?$AAS?$AA?$AA@ 0043db94     calc.obj
 0002:00003ba8       ??_C@_1M@JNFDAKBC@?$AAA?$AAL?$AAL?$AAO?$AAY?$AA?$AA@ 0043dba8     calc.obj
 0002:00003bb4       ??_C@_1BO@EBAMCKI@?$AAD?$AAE?$AAN?$AAS?$AAI?$AAT?$AAY?$AA_?$AAD?$AAI?$AAA?$AAL?$AAO?$AAG?$AA?$AA@ 0043dbb4     calc.obj
 0002:00003bd8       __real@0000000000000000    0043dbd8     calc.obj
 0002:00003be0       __real@3f1a36e2eb1c432d    0043dbe0     calc.obj
 0002:00003be8       __real@400921f9f01b866e    0043dbe8     calc.obj
 0002:00003bf0       ??_C@_19MOLCELM@?$AA?5?$AA?$CL?$AA?9?$AA?4?$AA?$AA@ 0043dbf0     v5subs:stringcl.obj
 0002:00003bfc       ??_C@_1BG@PGBNDIAE@?$AA0?$AA1?$AA2?$AA3?$AA4?$AA5?$AA6?$AA7?$AA8?$AA9?$AA?$AA@ 0043dbfc     v5subs:stringcl.obj
 0002:00003c14       ??_C@_1DG@FFFODPPN@?$AAS?$AAT?$AAA?$AAT?$AAI?$AAC?$AA_?$AAT?$AAE?$AAX?$AAT?$AA_?$AAP?$AAA?$AAR?$AAA?$AAM?$AAE?$AAT?$AAE?$AAR?$AAS?$AA?4?$AAC?$AAS?$AAV?$AA?$AA@ 0043dc14     v5subs:nameclas.obj
 0002:00003c4c       ??_C@_1BK@KNAMOOFG@?$AAA?$AAL?$AAA?$AAR?$AAM?$AAS?$AAU?$AAM?$AA?4?$AAT?$AAX?$AAT?$AA?$AA@ 0043dc4c     v5subs:autoback.obj
 0002:00003c68       ??_C@_19OCMFAKFD@?$AA?4?$AAM?$AAA?$AAS?$AA?$AA@ 0043dc68     v5subs:autoback.obj
 0002:00003c74       ??_C@_1BA@MKLLPONE@?$AAC?$AAU?$AAR?$AAR?$AAE?$AAN?$AAT?$AA?$AA@ 0043dc74     v5subs:autoback.obj
 0002:00003c84       ??_C@_19GBFPJKDF@?$AA?4?$AAM?$AAA?$AA2?$AA?$AA@ 0043dc84     v5subs:autoback.obj
 0002:00003c98       ??_C@_1BI@KINCFLCD@?$AAA?$AAS?$AAE?$AAN?$AAS?$AAO?$AAR?$AA?4?$AAC?$AAS?$AAV?$AA?$AA@ 0043dc98     v5subs:asensor.obj
 0002:00003cb0       ??_C@_1BC@PGICHKIC@?$AAN?$AAo?$AAt?$AA?5?$AAU?$AAs?$AAe?$AAd?$AA?$AA@ 0043dcb0     v5subs:asensor.obj
 0002:00003cc8       __real@4004020c49ba5e35    0043dcc8     v5subs:asensor.obj
 0002:00003cd0       __real@4014010624dd2f1b    0043dcd0     v5subs:asensor.obj
 0002:00003cd8       __real@40affe0000000000    0043dcd8     v5subs:asensor.obj
 0002:00003ce0       __xmm@3ff00000000000004024000000000000 0043dce0     v5subs:asensor.obj
 0002:00003cf0       ??_C@_1CA@FLIDEKFH@?$AAc?$AAh?$AAa?$AAx?$AAi?$AAs?$AAl?$AAa?$AAb?$AAe?$AAl?$AA?4?$AAd?$AAa?$AAt?$AA?$AA@ 0043dcf0     v5subs:chaxis.obj
 0002:00003d10       ??_C@_1BE@EMPCCDDA@?$AAC?$AAO?$AAL?$AAO?$AAR?$AA?4?$AAT?$AAX?$AAT?$AA?$AA@ 0043dd10     v5subs:color.obj
 0002:00003d30       ??_C@_1FE@FBJEEEAL@?$AAU?$AAn?$AAa?$AAb?$AAl?$AAe?$AA?5?$AAt?$AAo?$AA?5?$AAA?$AAL?$AAL?$AAO?$AAC?$AAA?$AAT?$AAE?$AA?5?$AAD?$AAB?$AA_?$AAT?$AAA?$AAB?$AAL?$AAE?$AA?5?$AAr?$AAe?$AAc?$AAo@ 0043dd30     v5subs:dbsubs.obj
 0002:00003d84       ??_C@_1CM@DAOKOCDE@?$AAd?$AAe?$AAt?$AAe?$AAr?$AAm?$AAi?$AAn?$AAe?$AA_?$AAc?$AAo?$AAl?$AAu?$AAm?$AAn?$AA_?$AAi?$AAn?$AAf?$AAo?$AA?$AA@ 0043dd84     v5subs:dbsubs.obj
 0002:00003db0       ??_C@_1CO@ENKMJGPE@?$AAC?$AAa?$AAn?$AA?8?$AAt?$AA?5?$AAs?$AAe?$AAt?$AA?5?$AAf?$AAi?$AAl?$AAe?$AA?5?$AAp?$AAo?$AAi?$AAn?$AAt?$AAe?$AAr?$AA?$AA@ 0043ddb0     v5subs:dbsubs.obj
 0002:00003de0       ??_C@_1CM@HDOHBAN@?$AAU?$AAn?$AAa?$AAb?$AAl?$AAe?$AA?5?$AAt?$AAo?$AA?5?$AAl?$AAo?$AAc?$AAk?$AA?5?$AAr?$AAe?$AAc?$AAo?$AAr?$AAd?$AA?$AA@ 0043dde0     v5subs:dbsubs.obj
 0002:00003e0c       ??_C@_1M@LFIEEOKG@?$AA0?$AAx?$AA?$CF?$AAl?$AAX?$AA?$AA@ 0043de0c     v5subs:dbsubs.obj
 0002:00003e18       ??_C@_1EA@BNFAFGNP@?$AAE?$AAX?$AAT?$AAE?$AAR?$AAN?$AAA?$AAL?$AA_?$AAP?$AAA?$AAR?$AAA?$AAM?$AAE?$AAT?$AAE?$AAR?$AA_?$AAS?$AAE?$AAT?$AAT?$AAI?$AAN?$AAG?$AAS?$AA?4?$AAC?$AAS?$AAV?$AA?$AA@ 0043de18     v5subs:external_parameter.obj
 0002:00003e58       ??_C@_1CC@FDJOEOEH@?$AAA?$AAv?$AAa?$AAi?$AAl?$AAa?$AAb?$AAl?$AAe?$AA?5?$AAa?$AAt?$AA?5?$AAE?$AAO?$AAS?$AA?$AA@ 0043de58     v5subs:external_parameter.obj
 0002:00003edc       ??_C@_1BK@KFPBILGH@?$AAC?$AAO?$AAM?$AAP?$AAU?$AAT?$AAE?$AAR?$AA?4?$AAC?$AAS?$AAV?$AA?$AA@ 0043dedc     v5subs:computer.obj
 0002:00003ef8       ??_C@_1CM@NNPCLCBK@?$AAl?$AAi?$AAm?$AAi?$AAt?$AA_?$AAs?$AAw?$AAi?$AAt?$AAc?$AAh?$AA_?$AAd?$AAe?$AAs?$AAc?$AA?4?$AAd?$AAa?$AAt?$AA?$AA@ 0043def8     v5subs:limit_switch_class.obj
 0002:00003f24       ??_C@_1CK@IONIGPIC@?$AAl?$AAi?$AAm?$AAi?$AAt?$AA_?$AAs?$AAw?$AAi?$AAt?$AAc?$AAh?$AA_?$AAp?$AAo?$AAs?$AA?4?$AAd?$AAa?$AAt?$AA?$AA@ 0043df24     v5subs:limit_switch_class.obj
 0002:00003f50       ??_C@_1CO@EEJENGEH@?$AAl?$AAi?$AAm?$AAi?$AAt?$AA_?$AAs?$AAw?$AAi?$AAt?$AAc?$AAh?$AA_?$AAw?$AAi?$AAr?$AAe?$AAs?$AA?4?$AAd?$AAa?$AAt?$AA?$AA@ 0043df50     v5subs:limit_switch_class.obj
 0002:00003f80       ??_C@_1DI@HGCLPLCJ@?$AAm?$AAu?$AAl?$AAt?$AAi?$AAp?$AAa?$AAr?$AAt?$AA_?$AAr?$AAu?$AAn?$AAl?$AAi?$AAs?$AAt?$AA_?$AAs?$AAe?$AAt?$AAu?$AAp?$AA?4?$AAc?$AAs?$AAv?$AA?$AA@ 0043df80     v5subs:multipart_runlist.obj
 0002:00003fb8       ??_C@_1DI@GGICOOAC@?$AAm?$AAu?$AAl?$AAt?$AAi?$AAp?$AAa?$AAr?$AAt?$AA_?$AAr?$AAu?$AAn?$AAl?$AAi?$AAs?$AAt?$AA_?$AAw?$AAi?$AAr?$AAe?$AAs?$AA?4?$AAc?$AAs?$AAv?$AA?$AA@ 0043dfb8     v5subs:multipart_runlist.obj
 0002:0000401c       ??_C@_1BK@IOEOFHEM@?$AAM?$AAa?$AAc?$AAh?$AAi?$AAn?$AAe?$AA?5?$AAT?$AAy?$AAp?$AAe?$AA?$AA@ 0043e01c     v5subs:machine.obj
 0002:00004038       ??_C@_1CO@GGMLBMKL@?$AAF?$AAa?$AAs?$AAt?$AA?5?$AAT?$AAr?$AAa?$AAk?$AA?5?$AAB?$AAo?$AAa?$AAr?$AAd?$AA?5?$AAN?$AAu?$AAm?$AAb?$AAe?$AAr?$AA?$AA@ 0043e038     v5subs:machine.obj
 0002:00004068       ??_C@_1DM@IJBBEHFE@?$AAM?$AAu?$AAx?$AA?5?$AAC?$AAh?$AAa?$AAn?$AAn?$AAe?$AAl?$AA?5?$AAN?$AAu?$AAm?$AAb?$AAe?$AAr?$AA?5?$AA?$CI?$AAF?$AAT?$AA1?$AA?5?$AAO?$AAn?$AAl?$AAy?$AA?$CJ?$AA?$AA@ 0043e068     v5subs:machine.obj
 0002:000040a4       ??_C@_1CI@EHIJFNDM@?$AAI?$AAs?$AA?5?$AAS?$AAu?$AAr?$AAe?$AAT?$AAr?$AAa?$AAk?$AA?5?$AAC?$AAo?$AAn?$AAt?$AAr?$AAo?$AAl?$AA?$AA@ 0043e0a4     v5subs:machine.obj
 0002:000040cc       ??_C@_1CE@GGCJKONB@?$AAC?$AAu?$AAr?$AAr?$AAe?$AAn?$AAt?$AA?5?$AAP?$AAa?$AAr?$AAt?$AA?5?$AAN?$AAa?$AAm?$AAe?$AA?$AA@ 0043e0cc     v5subs:machine.obj
 0002:000040f0       ??_C@_1BE@JHBLIEOJ@?$AAR?$AAo?$AAd?$AA?5?$AAP?$AAi?$AAt?$AAc?$AAh?$AA?$AA@ 0043e0f0     v5subs:machine.obj
 0002:00004104       ??_C@_1CG@ECHBBMDE@?$AAP?$AAr?$AAo?$AAf?$AAi?$AAl?$AAe?$AA?5?$AAS?$AAk?$AAi?$AAp?$AA?5?$AAC?$AAo?$AAu?$AAn?$AAt?$AA?$AA@ 0043e104     v5subs:machine.obj
 0002:0000412c       ??_C@_1CM@FMLPHFJB@?$AAP?$AAr?$AAo?$AAf?$AAi?$AAl?$AAe?$AA?5?$AAA?$AAc?$AAq?$AAu?$AAi?$AAr?$AAe?$AA?5?$AAC?$AAo?$AAu?$AAn?$AAt?$AA?$AA@ 0043e12c     v5subs:machine.obj
 0002:00004158       ??_C@_1DC@HHOKMCFD@?$AAP?$AAr?$AAo?$AAf?$AAi?$AAl?$AAe?$AA?5?$AAT?$AAi?$AAm?$AAe?$AA?5?$AAS?$AAk?$AAi?$AAp?$AA?5?$AA?$CI?$AAS?$AAe?$AAc?$AA?4?$AA?$CJ?$AA?$AA@ 0043e158     v5subs:machine.obj
 0002:0000418c       ??_C@_1BM@DAMONPCA@?$AAP?$AAr?$AAo?$AAf?$AAi?$AAl?$AAe?$AA?5?$AAF?$AAl?$AAa?$AAg?$AAs?$AA?$AA@ 0043e18c     v5subs:machine.obj
 0002:000041a8       ??_C@_1CE@FAJJDNEG@?$AAP?$AAr?$AAo?$AAf?$AAi?$AAl?$AAe?$AA?5?$AAM?$AAa?$AAx?$AA?5?$AAS?$AAa?$AAv?$AAe?$AAd?$AA?$AA@ 0043e1a8     v5subs:machine.obj
 0002:000041cc       ??_C@_1CC@CKKKJOKO@?$AAP?$AAa?$AAr?$AAa?$AAm?$AA?5?$AAS?$AAk?$AAi?$AAp?$AA?5?$AAC?$AAo?$AAu?$AAn?$AAt?$AA?$AA@ 0043e1cc     v5subs:machine.obj
 0002:000041f0       ??_C@_1CI@JMPFAHEG@?$AAP?$AAa?$AAr?$AAa?$AAm?$AA?5?$AAA?$AAc?$AAq?$AAu?$AAi?$AAr?$AAe?$AA?5?$AAC?$AAo?$AAu?$AAn?$AAt?$AA?$AA@ 0043e1f0     v5subs:machine.obj
 0002:00004218       ??_C@_1CO@JOMFHDHC@?$AAP?$AAa?$AAr?$AAa?$AAm?$AA?5?$AAT?$AAi?$AAm?$AAe?$AA?5?$AAS?$AAk?$AAi?$AAp?$AA?5?$AA?$CI?$AAS?$AAe?$AAc?$AA?4?$AA?$CJ?$AA?$AA@ 0043e218     v5subs:machine.obj
 0002:00004248       ??_C@_1BI@MEDFOHML@?$AAP?$AAa?$AAr?$AAa?$AAm?$AA?5?$AAF?$AAl?$AAa?$AAg?$AAs?$AA?$AA@ 0043e248     v5subs:machine.obj
 0002:00004260       ??_C@_1CA@NHEOPAAD@?$AAP?$AAa?$AAr?$AAa?$AAm?$AA?5?$AAM?$AAa?$AAx?$AA?5?$AAS?$AAa?$AAv?$AAe?$AAd?$AA?$AA@ 0043e260     v5subs:machine.obj
 0002:00004280       ??_C@_1BM@OJNOGCJK@?$AAM?$AAo?$AAn?$AAi?$AAt?$AAo?$AAr?$AA?5?$AAF?$AAl?$AAa?$AAg?$AAs?$AA?$AA@ 0043e280     v5subs:machine.obj
 0002:0000429c       ??_C@_1DC@PDAOCBEF@?$AAA?$AAu?$AAt?$AAo?$AA?5?$AAS?$AAh?$AAo?$AAt?$AA?5?$AAT?$AAi?$AAm?$AAe?$AAo?$AAu?$AAt?$AA?5?$AA?$CI?$AAS?$AAe?$AAc?$AA?4?$AA?$CJ?$AA?$AA@ 0043e29c     v5subs:machine.obj
 0002:000042d0       ??_C@_1DA@DFCEGLGH@?$AAD?$AAo?$AAw?$AAn?$AAt?$AAi?$AAm?$AAe?$AA?5?$AAT?$AAi?$AAm?$AAe?$AAo?$AAu?$AAt?$AA?5?$AA?$CI?$AAS?$AAe?$AAc?$AA?4?$AA?$CJ?$AA?$AA@ 0043e2d0     v5subs:machine.obj
 0002:00004300       ??_C@_1DE@FJHGAEFH@?$AAD?$AAi?$AAf?$AAf?$AAe?$AAr?$AAe?$AAn?$AAt?$AAi?$AAa?$AAl?$AA?5?$AAC?$AAu?$AAr?$AAv?$AAe?$AA?5?$AAN?$AAu?$AAm?$AAb?$AAe?$AAr?$AA?$AA@ 0043e300     v5subs:machine.obj
 0002:00004334       ??_C@_1DI@OLEOJOJB@?$AAP?$AAo?$AAs?$AAi?$AAt?$AAi?$AAo?$AAn?$AA?5?$AAB?$AAa?$AAs?$AAe?$AA?5?$AAI?$AAm?$AAp?$AAa?$AAc?$AAt?$AA?5?$AAP?$AAo?$AAi?$AAn?$AAt?$AAs?$AA?$AA@ 0043e334     v5subs:machine.obj
 0002:0000436c       ??_C@_1DA@NNGICMAD@?$AAT?$AAi?$AAm?$AAe?$AA?5?$AAB?$AAa?$AAs?$AAe?$AA?5?$AAI?$AAm?$AAp?$AAa?$AAc?$AAt?$AA?5?$AAP?$AAo?$AAi?$AAn?$AAt?$AAs?$AA?$AA@ 0043e36c     v5subs:machine.obj
 0002:0000439c       ??_C@_1DC@LMJBJMOG@?$AAP?$AAr?$AAe?$AA?5?$AAI?$AAm?$AAp?$AAa?$AAc?$AAt?$AA?5?$AAP?$AAr?$AAe?$AAs?$AAs?$AAu?$AAr?$AAe?$AA?5?$AAT?$AAy?$AAp?$AAe?$AA?$AA@ 0043e39c     v5subs:machine.obj
 0002:000043d0       ??_C@_1DE@JNCHNEEO@?$AAP?$AAo?$AAs?$AAt?$AA?5?$AAI?$AAm?$AAp?$AAa?$AAc?$AAt?$AA?5?$AAP?$AAr?$AAe?$AAs?$AAs?$AAu?$AAr?$AAe?$AA?5?$AAT?$AAy?$AAp?$AAe?$AA?$AA@ 0043e3d0     v5subs:machine.obj
 0002:00004404       ??_C@_1CA@JGPCCIDO@?$AAO?$AAp?$AAe?$AAr?$AAa?$AAt?$AAo?$AAr?$AA?5?$AAN?$AAu?$AAm?$AAb?$AAe?$AAr?$AA?$AA@ 0043e404     v5subs:machine.obj
 0002:00004424       ??_C@_1CG@NCAEKDPL@?$AAQ?$AAu?$AAa?$AAd?$AAr?$AAa?$AAt?$AAu?$AAr?$AAe?$AA?5?$AAD?$AAi?$AAv?$AAi?$AAs?$AAo?$AAr?$AA?$AA@ 0043e424     v5subs:machine.obj
 0002:0000444c       ??_C@_1DA@LDECIIID@?$AAB?$AAi?$AAn?$AAa?$AAr?$AAy?$AA?5?$AAV?$AAa?$AAl?$AAv?$AAe?$AA?5?$AAP?$AAu?$AAl?$AAs?$AAe?$AA?5?$AAT?$AAi?$AAm?$AAe?$AA?$AA@ 0043e44c     v5subs:machine.obj
 0002:0000447c       ??_C@_1DC@GBIHGEOD@?$AAB?$AAi?$AAn?$AAa?$AAr?$AAy?$AA?5?$AAV?$AAa?$AAl?$AAv?$AAe?$AA?5?$AAD?$AAe?$AAv?$AAe?$AAn?$AAt?$AA?5?$AAT?$AAi?$AAm?$AAe?$AA?$AA@ 0043e47c     v5subs:machine.obj
 0002:000044b0       ??_C@_1DA@KKPFIDMO@?$AAB?$AAi?$AAn?$AAa?$AAr?$AAy?$AA?5?$AAV?$AAa?$AAl?$AAv?$AAe?$AA?5?$AAP?$AAu?$AAl?$AAs?$AAe?$AA?5?$AAW?$AAi?$AAr?$AAe?$AA?$AA@ 0043e4b0     v5subs:machine.obj
 0002:000044e0       ??_C@_1DK@OEOIBJNP@?$AAV?$AAa?$AAl?$AAv?$AAe?$AA?5?$AAS?$AAe?$AAt?$AAt?$AAi?$AAn?$AAg?$AA?5?$AAa?$AAf?$AAt?$AAe?$AAr?$AA?5?$AAJ?$AAo?$AAg?$AA?5?$AAS?$AAh?$AAo?$AAt?$AA?$AA@ 0043e4e0     v5subs:machine.obj
 0002:0000451c       ??_C@_1CA@FPBKJBLC@?$AAf?$AAt?$AAi?$AAi?$AA_?$AAb?$AAo?$AAa?$AAr?$AAd?$AAs?$AA?4?$AAt?$AAx?$AAt?$AA?$AA@ 0043e51c     v5subs:machine.obj
 0002:0000453c       ??_C@_1CE@MLPNJNJM@?$AAm?$AAa?$AAc?$AAh?$AAi?$AAn?$AAe?$AA_?$AAs?$AAe?$AAt?$AAu?$AAp?$AA?4?$AAc?$AAs?$AAv?$AA?$AA@ 0043e53c     v5subs:machine.obj
 0002:00004560       ??_C@_15CJLJAKDA@?$AA?4?$AA2?$AA?$AA@ 0043e560     v5subs:machine.obj
 0002:00004568       ??_C@_15GKHDDIOC@?$AA2?$AA7?$AA?$AA@ 0043e568     v5subs:machine.obj
 0002:00004570       ??_C@_1CA@JEODIJDH@?$AAc?$AAo?$AAn?$AAt?$AAr?$AAo?$AAl?$AA_?$AAa?$AAl?$AAl?$AA?4?$AAt?$AAx?$AAt?$AA?$AA@ 0043e570     v5subs:machine.obj
 0002:00004590       ??_C@_17CHOLIMHJ@?$AA1?$AA0?$AA0?$AA?$AA@ 0043e590     v5subs:machine.obj
 0002:00004598       __real@412e848000000000    0043e598     v5subs:machine.obj
 0002:000045a0       ??_C@_19OEEGEPMG@?$AA?4?$AAT?$AAM?$AAP?$AA?$AA@ 0043e5a0     v5subs:static_text_parameter.obj
 0002:000045ac       ??_C@_1BK@PELOEGII@?$AAP?$AAA?$AAR?$AAM?$AAL?$AAI?$AAS?$AAT?$AA?4?$AAC?$AAS?$AAV?$AA?$AA@ 0043e5ac     v5subs:param.obj
 0002:000045c8       ??_C@_1BK@ECAOEGPC@?$AAP?$AAA?$AAR?$AAM?$AAL?$AAI?$AAS?$AAT?$AA?4?$AAT?$AAX?$AAT?$AA?$AA@ 0043e5c8     v5subs:param.obj
 0002:000045e4       ??_C@_1BI@CEAKHHAB@?$AAN?$AAO?$AAP?$AAA?$AAR?$AAA?$AAM?$AAE?$AAT?$AAE?$AAR?$AA?$AA@ 0043e5e4     v5subs:param.obj
 0002:000045fc       ??_C@_1DG@HGLMFEMC@?$AAP?$AAa?$AAr?$AAt?$AA?5?$AAS?$AAe?$AAt?$AAu?$AAp?$AA?3?$AA?5?$AAU?$AAn?$AAa?$AAb?$AAl?$AAe?$AA?5?$AAt?$AAo?$AA?5?$AAs?$AAa?$AAv?$AAe?$AA?$AA@ 0043e5fc     v5subs:param.obj
 0002:00004634       ??_C@_1DC@HNMACPNN@?$AAp?$AAa?$AAr?$AAa?$AAm?$AAe?$AAt?$AAe?$AAr?$AA_?$AAs?$AAo?$AAr?$AAt?$AA_?$AAo?$AAr?$AAd?$AAe?$AAr?$AA?4?$AAc?$AAs?$AAv?$AA?$AA@ 0043e634     v5subs:param_index_class.obj
 0002:00004668       ??_C@_1CI@KJJNKCHF@?$AAg?$AAo?$AAo?$AAd?$AA_?$AAs?$AAh?$AAo?$AAt?$AA_?$AAs?$AAe?$AAt?$AAu?$AAp?$AA?4?$AAc?$AAs?$AAv?$AA?$AA@ 0043e668     v5subs:part.obj
 0002:00004690       ??_C@_1BO@EHLBDBAF@?$AAp?$AAa?$AAr?$AAt?$AA_?$AAs?$AAe?$AAt?$AAu?$AAp?$AA?4?$AAc?$AAs?$AAv?$AA?$AA@ 0043e690     v5subs:part.obj
 0002:000046b0       ??_C@_1BI@OACMEBED@?$AAP?$AAS?$AAE?$AAN?$AAS?$AAO?$AAR?$AA?4?$AAT?$AAX?$AAT?$AA?$AA@ 0043e6b0     v5subs:part.obj
 0002:000046c8       ??_C@_1CA@KLEIHIOM@?$AAs?$AAh?$AAo?$AAt?$AA_?$AAe?$AAv?$AAe?$AAn?$AAt?$AAs?$AA?4?$AAc?$AAs?$AAv?$AA?$AA@ 0043e6c8     v5subs:part.obj
 0002:000046e8       ??_C@_1BO@DBFBHPKG@?$AAD?$AAi?$AAs?$AAt?$AAa?$AAn?$AAc?$AAe?$AA?5?$AAU?$AAn?$AAi?$AAt?$AAs?$AA?$AA@ 0043e6e8     v5subs:part.obj
 0002:00004708       ??_C@_1BO@KBFIKKFI@?$AAV?$AAe?$AAl?$AAo?$AAc?$AAi?$AAt?$AAy?$AA?5?$AAU?$AAn?$AAi?$AAt?$AAs?$AA?$AA@ 0043e708     v5subs:part.obj
 0002:00004728       ??_C@_1BO@JEGGBJEA@?$AAP?$AAr?$AAe?$AAs?$AAs?$AAu?$AAr?$AAe?$AA?5?$AAU?$AAn?$AAi?$AAt?$AAs?$AA?$AA@ 0043e728     v5subs:part.obj
 0002:00004748       ??_C@_1CI@DNBOLEHI@?$AAT?$AAo?$AAt?$AAa?$AAl?$AA?5?$AAS?$AAt?$AAr?$AAo?$AAk?$AAe?$AA?5?$AAL?$AAe?$AAn?$AAg?$AAt?$AAh?$AA?$AA@ 0043e748     v5subs:part.obj
 0002:00004770       ??_C@_1CE@IPONBPOL@?$AAM?$AAi?$AAn?$AA?5?$AAS?$AAt?$AAr?$AAo?$AAk?$AAe?$AA?5?$AAL?$AAe?$AAn?$AAg?$AAt?$AAh?$AA?$AA@ 0043e770     v5subs:part.obj
 0002:00004794       ??_C@_1CG@DLDCNBFJ@?$AAT?$AAi?$AAm?$AAe?$AA?5?$AAD?$AAe?$AAl?$AAa?$AAy?$AA?5?$AAB?$AAi?$AAs?$AAc?$AAu?$AAi?$AAt?$AA?$AA@ 0043e794     v5subs:part.obj
 0002:000047bc       ??_C@_1CK@LODBKEEJ@?$AAE?$AAn?$AAd?$AA?5?$AAo?$AAf?$AA?5?$AAS?$AAh?$AAo?$AAt?$AA?5?$AAV?$AAe?$AAl?$AAo?$AAc?$AAi?$AAt?$AAy?$AA?$AA@ 0043e7bc     v5subs:part.obj
 0002:000047e8       ??_C@_1CK@ENAFPJL@?$AAS?$AAl?$AAe?$AAe?$AAv?$AAe?$AA?5?$AAF?$AAi?$AAl?$AAl?$AA?5?$AAD?$AAi?$AAs?$AAt?$AAa?$AAn?$AAc?$AAe?$AA?$AA@ 0043e7e8     v5subs:part.obj
 0002:00004814       ??_C@_1CK@IHAMGNJH@?$AAR?$AAu?$AAn?$AAn?$AAe?$AAr?$AA?5?$AAF?$AAi?$AAl?$AAl?$AA?5?$AAD?$AAi?$AAs?$AAt?$AAa?$AAn?$AAc?$AAe?$AA?$AA@ 0043e814     v5subs:part.obj
 0002:00004840       ??_C@_1CM@PPBENOEM@?$AAM?$AAi?$AAn?$AA?5?$AAV?$AAe?$AAl?$AAo?$AAc?$AAi?$AAt?$AAy?$AA?5?$AAf?$AAo?$AAr?$AA?5?$AAC?$AAS?$AAF?$AAS?$AA?$AA@ 0043e840     v5subs:part.obj
 0002:0000486c       ??_C@_1CO@OKLLMCCF@?$AAV?$AAe?$AAl?$AAo?$AAc?$AAi?$AAt?$AAy?$AA?5?$AAf?$AAo?$AAr?$AA?5?$AAR?$AAi?$AAs?$AAe?$AA?5?$AAC?$AAS?$AAF?$AAS?$AA?$AA@ 0043e86c     v5subs:part.obj
 0002:0000489c       ??_C@_1CE@EOKAELAD@?$AAM?$AAi?$AAn?$AA?5?$AAC?$AAS?$AAF?$AAS?$AA?5?$AAP?$AAo?$AAs?$AAi?$AAt?$AAi?$AAo?$AAn?$AA?$AA@ 0043e89c     v5subs:part.obj
 0002:000048c0       ??_C@_1BG@KFOJJOGA@?$AAU?$AAs?$AAe?$AAr?$AA?5?$AAV?$AAe?$AAl?$AA?5?$AA1?$AA?$AA@ 0043e8c0     v5subs:part.obj
 0002:000048d8       ??_C@_1BG@LHFMDBIO@?$AAU?$AAs?$AAe?$AAr?$AA?5?$AAV?$AAe?$AAl?$AA?5?$AA2?$AA?$AA@ 0043e8d8     v5subs:part.obj
 0002:000048f0       ??_C@_1BG@POAFGOL@?$AAU?$AAs?$AAe?$AAr?$AA?5?$AAV?$AAe?$AAl?$AA?5?$AA3?$AA?$AA@ 0043e8f0     v5subs:part.obj
 0002:00004908       ??_C@_1BG@JCDHGOFC@?$AAU?$AAs?$AAe?$AAr?$AA?5?$AAV?$AAe?$AAl?$AA?5?$AA4?$AA?$AA@ 0043e908     v5subs:part.obj
 0002:00004920       ??_C@_1BM@OPGPDBDK@?$AAU?$AAs?$AAe?$AAr?$AA?5?$AAA?$AAv?$AAg?$AA?5?$AAS?$AAt?$AA?5?$AA1?$AA?$AA@ 0043e920     v5subs:part.obj
 0002:0000493c       ??_C@_1BM@PNNKJONE@?$AAU?$AAs?$AAe?$AAr?$AA?5?$AAA?$AAv?$AAg?$AA?5?$AAS?$AAt?$AA?5?$AA2?$AA?$AA@ 0043e93c     v5subs:part.obj
 0002:00004958       ??_C@_1BM@EFGGPJLB@?$AAU?$AAs?$AAe?$AAr?$AA?5?$AAA?$AAv?$AAg?$AA?5?$AAS?$AAt?$AA?5?$AA3?$AA?$AA@ 0043e958     v5subs:part.obj
 0002:00004974       ??_C@_1BM@NILBMBAI@?$AAU?$AAs?$AAe?$AAr?$AA?5?$AAA?$AAv?$AAg?$AA?5?$AAS?$AAt?$AA?5?$AA4?$AA?$AA@ 0043e974     v5subs:part.obj
 0002:00004990       ??_C@_1BO@IKBEOKPM@?$AAU?$AAs?$AAe?$AAr?$AA?5?$AAA?$AAv?$AAg?$AA?5?$AAE?$AAn?$AAd?$AA?5?$AA1?$AA?$AA@ 0043e990     v5subs:part.obj
 0002:000049b0       ??_C@_1BO@JIKBEFBC@?$AAU?$AAs?$AAe?$AAr?$AA?5?$AAA?$AAv?$AAg?$AA?5?$AAE?$AAn?$AAd?$AA?5?$AA2?$AA?$AA@ 0043e9b0     v5subs:part.obj
 0002:000049d0       ??_C@_1BO@CABNCCHH@?$AAU?$AAs?$AAe?$AAr?$AA?5?$AAA?$AAv?$AAg?$AA?5?$AAE?$AAn?$AAd?$AA?5?$AA3?$AA?$AA@ 0043e9d0     v5subs:part.obj
 0002:000049f0       ??_C@_1BO@LNMKBKMO@?$AAU?$AAs?$AAe?$AAr?$AA?5?$AAA?$AAv?$AAg?$AA?5?$AAE?$AAn?$AAd?$AA?5?$AA4?$AA?$AA@ 0043e9f0     v5subs:part.obj
 0002:00004a10       ??_C@_1CC@MPOIMLDI@?$AAP?$AAl?$AAu?$AAn?$AAg?$AAe?$AAr?$AA?5?$AAD?$AAi?$AAa?$AAm?$AAe?$AAt?$AAe?$AAr?$AA?$AA@ 0043ea10     v5subs:part.obj
 0002:00004a34       ??_C@_1CK@KIOCMBMG@?$AAT?$AAi?$AAm?$AAe?$AA?5?$AAf?$AAo?$AAr?$AA?5?$AAI?$AAn?$AAt?$AAe?$AAn?$AAs?$AA?5?$AAP?$AAr?$AAe?$AAs?$AA?$AA@ 0043ea34     v5subs:part.obj
 0002:00004a60       ??_C@_1CO@NECBFJMN@?$AAP?$AAr?$AAe?$AAs?$AA?5?$AAf?$AAo?$AAr?$AA?5?$AAR?$AAe?$AAs?$AAp?$AAo?$AAn?$AAs?$AAe?$AA?5?$AAT?$AAi?$AAm?$AAe?$AA?$AA@ 0043ea60     v5subs:part.obj
 0002:00004a90       ??_C@_1CG@ICHDPAAA@?$AAM?$AAs?$AA?5?$AAp?$AAe?$AAr?$AA?5?$AAt?$AAi?$AAm?$AAe?$AA?5?$AAs?$AAa?$AAm?$AAp?$AAl?$AAe?$AA?$AA@ 0043ea90     v5subs:part.obj
 0002:00004ab8       ??_C@_1CE@DGPNELNL@?$AAN?$AA?5?$AAo?$AAf?$AA?5?$AAT?$AAi?$AAm?$AAe?$AA?5?$AAS?$AAa?$AAm?$AAp?$AAl?$AAe?$AAs?$AA?$AA@ 0043eab8     v5subs:part.obj
 0002:00004adc       ??_C@_1CG@GIDFGGF@?$AAP?$AAr?$AAo?$AAd?$AAu?$AAc?$AAt?$AAi?$AAo?$AAn?$AA?5?$AAE?$AAn?$AAa?$AAb?$AAl?$AAe?$AAd?$AA?$AA@ 0043eadc     v5subs:part.obj
 0002:00004b04       ??_C@_1CM@KIBDEAED@?$AAH?$AAe?$AAa?$AAd?$AA?5?$AAP?$AAr?$AAe?$AAs?$AAs?$AAu?$AAr?$AAe?$AA?5?$AAC?$AAh?$AAa?$AAn?$AAn?$AAe?$AAl?$AA?$AA@ 0043eb04     v5subs:part.obj
 0002:00004b30       ??_C@_1CK@ENGDNKO@?$AAR?$AAo?$AAd?$AA?5?$AAP?$AAr?$AAe?$AAs?$AAs?$AAu?$AAr?$AAe?$AA?5?$AAC?$AAh?$AAa?$AAn?$AAn?$AAe?$AAl?$AA?$AA@ 0043eb30     v5subs:part.obj
 0002:00004b5c       ??_C@_1CO@OCAOHHKD@?$AAZ?$AAe?$AAr?$AAo?$AA?5?$AAS?$AAp?$AAe?$AAe?$AAd?$AA?5?$AAO?$AAu?$AAt?$AAp?$AAu?$AAt?$AA?5?$AAW?$AAi?$AAr?$AAe?$AA?$AA@ 0043eb5c     v5subs:part.obj
 0002:00004b8c       ??_C@_1DC@JIDBIMEI@?$AAZ?$AAe?$AAr?$AAo?$AA?5?$AAS?$AAp?$AAe?$AAe?$AAd?$AA?5?$AAO?$AAu?$AAt?$AAp?$AAu?$AAt?$AA?5?$AAE?$AAn?$AAa?$AAb?$AAl?$AAe?$AA?$AA@ 0043eb8c     v5subs:part.obj
 0002:00004bc0       ??_C@_1BM@HGBEAMOA@?$AAA?$AAl?$AAa?$AAr?$AAm?$AA?5?$AAT?$AAi?$AAm?$AAe?$AAo?$AAu?$AAt?$AA?$AA@ 0043ebc0     v5subs:part.obj
 0002:00004bdc       ??_C@_1CG@IOBMLLJC@?$AAP?$AAA?$AAR?$AAT?$AA_?$AAC?$AAL?$AAA?$AAS?$AAS?$AA?3?$AA?3?$AAs?$AAa?$AAv?$AAe?$AA?$CI?$AA?$CJ?$AA?$AA@ 0043ebdc     v5subs:part.obj
 0002:00004c08       ??_C@_1FC@EHGOPCNM@?$AAN?$AAo?$AAf?$AAD?$AAe?$AAs?$AAc?$AAr?$AAi?$AAp?$AAt?$AAi?$AAo?$AAn?$AAs?$AA?5?$AA?$DM?$AA?5?$AAP?$AAA?$AAR?$AAT?$AAS?$AAE?$AAT?$AA_?$AAS?$AAE?$AAT?$AAP?$AAO?$AAI@ 0043ec08     v5subs:part.obj
 0002:00004c60       ??_C@_1EE@JAGEBPO@?$AAt?$AAh?$AAi?$AAr?$AAt?$AAy?$AA?5?$AAs?$AAe?$AAc?$AAo?$AAn?$AAd?$AA?5?$AAt?$AAi?$AAm?$AAe?$AAo?$AAu?$AAt?$AA?5?$AAw?$AAi?$AAr?$AAe?$AA?5?$AAn?$AAu?$AAm?$AAb?$AAe@ 0043ec60     v5subs:part.obj
 0002:00004ca4       ??_C@_1DM@BHIAGDGE@?$AAs?$AAt?$AA2?$AA?5?$AAp?$AAr?$AAo?$AAg?$AAr?$AAa?$AAm?$AA?5?$AAa?$AAb?$AAo?$AAr?$AAt?$AA?5?$AAw?$AAi?$AAr?$AAe?$AA?5?$AAn?$AAu?$AAm?$AAb?$AAe?$AAr?$AA?$AA@ 0043eca4     v5subs:part.obj
 0002:00004ce0       ??_C@_1DE@BPOKKDLL@?$AAs?$AAh?$AAo?$AAt?$AA?5?$AAc?$AAo?$AAm?$AAp?$AAl?$AAe?$AAt?$AAe?$AA?5?$AAw?$AAi?$AAr?$AAe?$AA?5?$AAn?$AAu?$AAm?$AAb?$AAe?$AAr?$AA?$AA@ 0043ece0     v5subs:part.obj
 0002:00004d14       ??_C@_1DO@KCGNAEIJ@?$AAs?$AAh?$AAo?$AAt?$AA?5?$AAs?$AAa?$AAv?$AAe?$AA?5?$AAc?$AAo?$AAm?$AAp?$AAl?$AAe?$AAt?$AAe?$AA?5?$AAw?$AAi?$AAr?$AAe?$AA?5?$AAn?$AAu?$AAm?$AAb?$AAe?$AAr?$AA?$AA@ 0043ed14     v5subs:part.obj
 0002:00004d54       ??_C@_1DC@JMLLFLM@?$AAw?$AAa?$AAr?$AAn?$AAi?$AAn?$AAg?$AA?5?$AAs?$AAh?$AAo?$AAt?$AA?5?$AAw?$AAi?$AAr?$AAe?$AA?5?$AAn?$AAu?$AAm?$AAb?$AAe?$AAr?$AA?$AA@ 0043ed54     v5subs:part.obj
 0002:00004d88       ??_C@_1CO@BKJDHMKB@?$AAa?$AAl?$AAa?$AAr?$AAm?$AA?5?$AAs?$AAh?$AAo?$AAt?$AA?5?$AAw?$AAi?$AAr?$AAe?$AA?5?$AAn?$AAu?$AAm?$AAb?$AAe?$AAr?$AA?$AA@ 0043ed88     v5subs:part.obj
 0002:00004db8       ??_C@_1CM@HCDCLOLE@?$AAg?$AAo?$AAo?$AAd?$AA?5?$AAs?$AAh?$AAo?$AAt?$AA?5?$AAw?$AAi?$AAr?$AAe?$AA?5?$AAn?$AAu?$AAm?$AAb?$AAe?$AAr?$AA?$AA@ 0043edb8     v5subs:part.obj
 0002:00004de4       ??_C@_1DM@DMHCLPNA@?$AAg?$AAo?$AAo?$AAd?$AA?5?$AAs?$AAh?$AAo?$AAt?$AA?5?$AAo?$AAn?$AAl?$AAy?$AA?5?$AAi?$AAf?$AA?5?$AAn?$AAo?$AA?5?$AAw?$AAa?$AAr?$AAn?$AAi?$AAn?$AAg?$AAs?$AA?$AA@ 0043ede4     v5subs:part.obj
 0002:00004e20       ??_C@_1DM@GDICOMAH@?$AAs?$AAh?$AAo?$AAt?$AA?5?$AAc?$AAo?$AAm?$AAp?$AAl?$AAe?$AAt?$AAe?$AA?5?$AAt?$AAi?$AAm?$AAe?$AAo?$AAu?$AAt?$AA?5?$AAs?$AAe?$AAc?$AAo?$AAn?$AAd?$AAs?$AA?$AA@ 0043ee20     v5subs:part.obj
 0002:00004e5c       ??_C@_1CK@CPJPBNJD@?$AAg?$AAo?$AAo?$AAd?$AA?5?$AAs?$AAh?$AAo?$AAt?$AA?5?$AAa?$AAc?$AAt?$AAi?$AAv?$AAe?$AA?5?$AAl?$AAo?$AAw?$AA?$AA@ 0043ee5c     v5subs:part.obj
 0002:00004e88       __real@4054000000000000    0043ee88     v5subs:part.obj
 0002:00004e90       ??_C@_1BK@ECGPJNNA@?$AAM?$AAA?$AAR?$AAK?$AAL?$AAI?$AAS?$AAT?$AA?4?$AAC?$AAS?$AAV?$AA?$AA@ 0043ee90     v5subs:marks.obj
 0002:00004eac       ??_C@_1BK@PENPJNKK@?$AAM?$AAA?$AAR?$AAK?$AAL?$AAI?$AAS?$AAT?$AA?4?$AAT?$AAX?$AAT?$AA?$AA@ 0043eeac     v5subs:marks.obj
 0002:00004ec8       ??_C@_1BK@MBNPGOAF@?$AAF?$AAT?$AAA?$AAN?$AAA?$AAL?$AAO?$AAG?$AA?4?$AAT?$AAX?$AAT?$AA?$AA@ 0043eec8     v5subs:ftanalog.obj
 0002:00004ee4       ??_C@_1BK@HHGPGOHP@?$AAF?$AAT?$AAA?$AAN?$AAA?$AAL?$AAO?$AAG?$AA?4?$AAC?$AAS?$AAV?$AA?$AA@ 0043eee4     v5subs:ftanalog.obj
 0002:00004f00       ??_C@_17HDJNGKHG@?$AAM?$AAS?$AAL?$AA?$AA@ 0043ef00     v5subs:ftanalog.obj
 0002:00004f08       ??_C@_1BG@BKOMMCMN@?$AAF?$AAT?$AAC?$AAA?$AAL?$AAC?$AA?4?$AAC?$AAS?$AAV?$AA?$AA@ 0043ef08     v5subs:ftcalc.obj
 0002:00004f20       ??_C@_1BI@KDMFNNJN@?$AAS?$AAT?$AAP?$AAA?$AAR?$AAA?$AAM?$AA?4?$AAD?$AAA?$AAT?$AA?$AA@ 0043ef20     v5subs:stparam.obj
 0002:00004f38       ??_C@_1BG@LPMEAEOE@?$AAS?$AAT?$AAP?$AAR?$AAE?$AAS?$AA?4?$AAD?$AAA?$AAT?$AA?$AA@ 0043ef38     v5subs:stpres.obj
 0002:00004f50       ??_C@_15MAHKPAGJ@?$AA2?$AA5?$AA?$AA@ 0043ef50     v5subs:stpres.obj
 0002:00004f58       ??_C@_17KDKBICID@?$AA5?$AA0?$AA0?$AA?$AA@ 0043ef58     v5subs:stpres.obj
 0002:00004f60       ??_C@_15OKKBDAOD@?$AA5?$AA0?$AA?$AA@ 0043ef60     v5subs:stpres.obj
 0002:00004f68       ??_C@_13COJANIEC@?$AA0?$AA?$AA@ 0043ef68     v5subs:stpres.obj
 0002:00004f6c       ??_C@_17NCJNOPAM@?$AA0?$AA?4?$AA0?$AA?$AA@ 0043ef6c     v5subs:stpres.obj
 0002:00004f74       ??_C@_1BA@OPFEFHCL@?$AAE?$AAN?$AAG?$AAL?$AAI?$AAS?$AAH?$AA?$AA@ 0043ef74     v5subs:stringtable.obj
 0002:00004f84       ??_C@_1BE@OLHCEJMH@?$AAr?$AAe?$AAs?$AAo?$AAu?$AAr?$AAc?$AAe?$AAs?$AA?$AA@ 0043ef84     v5subs:stringtable.obj
 0002:00004f98       ??_C@_1M@HEICHGGN@?$AA?4?$AAs?$AAt?$AAb?$AAl?$AA?$AA@ 0043ef98     v5subs:stringtable.obj
 0002:00004fa4       ??_C@_1BI@FHCOBDNC@?$AAS?$AAT?$AAS?$AAE?$AAT?$AAU?$AAP?$AA?4?$AAC?$AAS?$AAV?$AA?$AA@ 0043efa4     v5subs:stsetup.obj
 0002:00004fbc       ??_C@_1BI@JLBNOKMD@?$AAS?$AAT?$AAS?$AAT?$AAE?$AAP?$AAS?$AA?4?$AAT?$AAX?$AAT?$AA?$AA@ 0043efbc     v5subs:stsetup.obj
 0002:00004fd4       ??_C@_17GFMOILAE@?$AA3?$AA0?$AA0?$AA?$AA@ 0043efd4     v5subs:stsetup.obj
 0002:00004fdc       ??_C@_13JGCMLPCH@?$AA1?$AA?$AA@ 0043efdc     v5subs:stsetup.obj
 0002:00004fe0       ??_C@_1M@MHCOJAMG@?$AA3?$AA0?$AA0?$AA?4?$AA0?$AA?$AA@ 0043efe0     v5subs:stsetup.obj
 0002:00004fec       ??_C@_1CM@IBPGKDAG@?$AAG?$AAa?$AAi?$AAn?$AA?5?$AAB?$AAr?$AAe?$AAa?$AAk?$AA?5?$AAV?$AAe?$AAl?$AAo?$AAc?$AAi?$AAt?$AAy?$AA?5?$AA1?$AA?$AA@ 0043efec     v5subs:stsetup.obj
 0002:00005018       ??_C@_1CM@JDEDAMOI@?$AAG?$AAa?$AAi?$AAn?$AA?5?$AAB?$AAr?$AAe?$AAa?$AAk?$AA?5?$AAV?$AAe?$AAl?$AAo?$AAc?$AAi?$AAt?$AAy?$AA?5?$AA2?$AA?$AA@ 0043f018     v5subs:stsetup.obj
 0002:00005044       ??_C@_1CM@CLPPGLIN@?$AAG?$AAa?$AAi?$AAn?$AA?5?$AAB?$AAr?$AAe?$AAa?$AAk?$AA?5?$AAV?$AAe?$AAl?$AAo?$AAc?$AAi?$AAt?$AAy?$AA?5?$AA3?$AA?$AA@ 0043f044     v5subs:stsetup.obj
 0002:00005070       ??_C@_1CE@PBFKGNOD@?$AAG?$AAa?$AAi?$AAn?$AA?5?$AAB?$AAr?$AAe?$AAa?$AAk?$AA?5?$AAG?$AAa?$AAi?$AAn?$AA?5?$AA1?$AA?$AA@ 0043f070     v5subs:stsetup.obj
 0002:00005094       ??_C@_1DM@KOJPMPAJ@?$AAG?$AAa?$AAi?$AAn?$AA?5?$AAB?$AAr?$AAe?$AAa?$AAk?$AA?5?$AA2?$AA?5?$AAo?$AAr?$AA?5?$AAI?$AAn?$AAt?$AAe?$AAg?$AAr?$AAa?$AAl?$AA?5?$AAG?$AAa?$AAi?$AAn?$AA?$AA@ 0043f094     v5subs:stsetup.obj
 0002:000050d0       ??_C@_1EA@MFCCFJAD@?$AAG?$AAa?$AAi?$AAn?$AA?5?$AAB?$AAr?$AAe?$AAa?$AAk?$AA?5?$AA3?$AA?5?$AAo?$AAr?$AA?5?$AAD?$AAe?$AAr?$AAi?$AAv?$AAa?$AAt?$AAi?$AAv?$AAe?$AA?5?$AAG?$AAa?$AAi?$AAn?$AA?$AA@ 0043f0d0     v5subs:stsetup.obj
 0002:00005110       ??_C@_1CG@KKFHKEIC@?$AAV?$AAe?$AAl?$AAo?$AAc?$AAi?$AAt?$AAy?$AA?5?$AAL?$AAo?$AAo?$AAp?$AA?5?$AAG?$AAa?$AAi?$AAn?$AA?$AA@ 0043f110     v5subs:stsetup.obj
 0002:00005138       ??_C@_1DK@OKBFFGN@?$AAF?$AAo?$AAl?$AAl?$AAo?$AAw?$AA?5?$AAT?$AAh?$AAr?$AAo?$AAu?$AAg?$AAh?$AA?5?$AAS?$AAt?$AAo?$AAp?$AA?5?$AAP?$AAo?$AAs?$AAi?$AAt?$AAi?$AAo?$AAn?$AA?$AA@ 0043f138     v5subs:stsetup.obj
 0002:00005174       ??_C@_1DG@LCHJEAEO@?$AAV?$AAa?$AAc?$AAu?$AAu?$AAm?$AA?5?$AAL?$AAi?$AAm?$AAi?$AAt?$AA?5?$AAS?$AAw?$AAi?$AAt?$AAc?$AAh?$AA?5?$AAN?$AAu?$AAm?$AAb?$AAe?$AAr?$AA?$AA@ 0043f174     v5subs:stsetup.obj
 0002:000051ac       ??_C@_17JLFEDMMI@?$AA?$DP?$AA?$DP?$AA?$DP?$AA?$AA@ 0043f1ac     v5subs:timeclas.obj
 0002:000051b4       ??_C@_17MDKHMACK@?$AAj?$AAa?$AAn?$AA?$AA@ 0043f1b4     v5subs:timeclas.obj
 0002:000051bc       ??_C@_17EFEPCIML@?$AAf?$AAe?$AAb?$AA?$AA@ 0043f1bc     v5subs:timeclas.obj
 0002:000051c4       ??_C@_17NDKNCBBE@?$AAm?$AAa?$AAr?$AA?$AA@ 0043f1c4     v5subs:timeclas.obj
 0002:000051cc       ??_C@_17EMIIOFGF@?$AAa?$AAp?$AAr?$AA?$AA@ 0043f1cc     v5subs:timeclas.obj
 0002:000051d4       ??_C@_17EKMKGBF@?$AAm?$AAa?$AAy?$AA?$AA@ 0043f1d4     v5subs:timeclas.obj
 0002:000051dc       ??_C@_17FLOAIAKH@?$AAj?$AAu?$AAn?$AA?$AA@ 0043f1dc     v5subs:timeclas.obj
 0002:000051e4       ??_C@_17PBOJEICM@?$AAj?$AAu?$AAl?$AA?$AA@ 0043f1e4     v5subs:timeclas.obj
 0002:000051ec       ??_C@_17HLICNDHL@?$AAa?$AAu?$AAg?$AA?$AA@ 0043f1ec     v5subs:timeclas.obj
 0002:000051f4       ??_C@_17ILAEIIJA@?$AAs?$AAe?$AAp?$AA?$AA@ 0043f1f4     v5subs:timeclas.obj
 0002:000051fc       ??_C@_17PJCLNILO@?$AAo?$AAc?$AAt?$AA?$AA@ 0043f1fc     v5subs:timeclas.obj
 0002:00005204       ??_C@_17OIEKNANA@?$AAn?$AAo?$AAv?$AA?$AA@ 0043f204     v5subs:timeclas.obj
 0002:0000520c       ??_C@_17LPNGEIND@?$AAd?$AAe?$AAc?$AA?$AA@ 0043f20c     v5subs:timeclas.obj
 0002:00005214       ??_C@_1BO@NDLMALJO@?$AAL?$AAa?$AAs?$AAt?$AA?5?$AAS?$AAh?$AAo?$AAt?$AA?5?$AAN?$AAa?$AAm?$AAe?$AA?$AA@ 0043f214     v5subs:plookup.obj
 0002:00005234       ??_C@_1CC@JKLEDCMI@?$AAL?$AAa?$AAs?$AAt?$AA?5?$AAS?$AAh?$AAo?$AAt?$AA?5?$AAN?$AAu?$AAm?$AAb?$AAe?$AAr?$AA?$AA@ 0043f234     v5subs:plookup.obj
 0002:00005258       ??_C@_19LCONIJA@?$AAD?$AAa?$AAt?$AAe?$AA?$AA@ 0043f258     v5subs:plookup.obj
 0002:00005264       ??_C@_19NLLMBBJO@?$AAT?$AAi?$AAm?$AAe?$AA?$AA@ 0043f264     v5subs:plookup.obj
 0002:00005270       ??_C@_1BM@NGDIIBBD@?$AAU?$AAp?$AAd?$AAa?$AAt?$AAe?$AA?5?$AAS?$AAt?$AAa?$AAt?$AAu?$AAs?$AA?$AA@ 0043f270     v5subs:plookup.obj
 0002:0000528c       ??_C@_1BI@PLENEINP@?$AAp?$AAl?$AAo?$AAo?$AAk?$AAu?$AAp?$AA?4?$AAc?$AAs?$AAv?$AA?$AA@ 0043f28c     v5subs:plookup.obj
 0002:000052a4       __real@3f800000            0043f2a4     v5subs:plotclas.obj
 0002:000052d8       __real@3f1d9f4d37c1376d    0043f2d8     v5subs:unitadj.obj
 0002:000052e0       __real@3f74cec41dd1a21f    0043f2e0     v5subs:unitadj.obj
 0002:000052e8       __real@3f9a027525460aa6    0043f2e8     v5subs:unitadj.obj
 0002:000052f0       __real@3fb1a67dadaac896    0043f2f0     v5subs:unitadj.obj
 0002:000052f8       __real@3fb1ffa3b9ae0c17    0043f2f8     v5subs:unitadj.obj
 0002:00005300       __real@3fc999999999999a    0043f300     v5subs:unitadj.obj
 0002:00005308       __real@3fdd07a84aaed1d9    0043f308     v5subs:unitadj.obj
 0002:00005310       __real@3fe04189374bc6a8    0043f310     v5subs:unitadj.obj
 0002:00005318       __real@3fef6191148fd9fd    0043f318     v5subs:unitadj.obj
 0002:00005320       __real@3ff050c5eb313be2    0043f320     v5subs:unitadj.obj
 0002:00005328       __real@3fff7ef9db22d0e5    0043f328     v5subs:unitadj.obj
 0002:00005330       __real@4001a3112f6c181b    0043f330     v5subs:unitadj.obj
 0002:00005338       __real@400451eb851eb852    0043f338     v5subs:unitadj.obj
 0002:00005340       __real@4019ce703afb7e91    0043f340     v5subs:unitadj.obj
 0002:00005348       __real@4022000000000000    0043f348     v5subs:unitadj.obj
 0002:00005350       __real@4028000000000000    0043f350     v5subs:unitadj.obj
 0002:00005358       __real@402c725460aa64c3    0043f358     v5subs:unitadj.obj
 0002:00005360       __real@402d01f212d77319    0043f360     v5subs:unitadj.obj
 0002:00005368       __real@40306316a055757d    0043f368     v5subs:unitadj.obj
 0002:00005370       __real@4039666666666666    0043f370     v5subs:unitadj.obj
 0002:00005378       __real@403e7ae147ae147b    0043f378     v5subs:unitadj.obj
 0002:00005380       __real@4040000000000000    0043f380     v5subs:unitadj.obj
 0002:00005388       __real@40689b3333333333    0043f388     v5subs:unitadj.obj
 0002:00005390       __real@40730ccccccccccd    0043f390     v5subs:unitadj.obj
 0002:00005398       __real@40842947ae147ae1    0043f398     v5subs:unitadj.obj
 0002:000053a0       __real@40c1490000000000    0043f3a0     v5subs:unitadj.obj
 0002:000053a8       __real@40d000c4189374bc    0043f3a8     v5subs:unitadj.obj
 0002:000053b0       ??_C@_1BA@NGMGIJCG@?$AAM?$AAO?$AAN?$AAI?$AAT?$AAO?$AAR?$AA?$AA@ 0043f3b0     v5subs:choose_wire.obj
 0002:000053c0       ??_C@_1BM@MKDPGJCD@?$AAA?$AAL?$AAA?$AAR?$AAM?$AA_?$AAO?$AAN?$AA_?$AAD?$AAO?$AAW?$AAN?$AA?$AA@ 0043f3c0     v5subs:choose_wire.obj
 0002:000053dc       ??_C@_1DA@ECKDLMGD@?$AAS?$AAL?$AAO?$AAW?$AA_?$AAS?$AAH?$AAO?$AAT?$AA_?$AAO?$AAU?$AAT?$AAP?$AAU?$AAT?$AA_?$AAS?$AAT?$AAR?$AAI?$AAN?$AAG?$AA?$AA@ 0043f3dc     v5subs:choose_wire.obj
 0002:0000540c       ??_C@_1DE@BOFEBDNL@?$AAA?$AAC?$AAC?$AAU?$AAM?$AAU?$AAL?$AAA?$AAT?$AAO?$AAR?$AA_?$AAO?$AAU?$AAT?$AAP?$AAU?$AAT?$AA_?$AAS?$AAT?$AAR?$AAI?$AAN?$AAG?$AA?$AA@ 0043f40c     v5subs:choose_wire.obj
 0002:00005440       ??_C@_1DE@LFFGGOGO@?$AAW?$AAA?$AAR?$AAN?$AAI?$AAN?$AAG?$AA_?$AAA?$AAC?$AAT?$AAI?$AAV?$AAE?$AA_?$AAL?$AAO?$AAW?$AA_?$AAS?$AAT?$AAR?$AAI?$AAN?$AAG?$AA?$AA@ 0043f440     v5subs:choose_wire.obj
 0002:00005478       ??_7CHOOSE_WIRE_CLASS@@6B@ 0043f478     v5subs:choose_wire.obj
 0002:0000547c       ??_C@_1CC@KIEBNKKB@?$AAN?$AAO?$AA_?$AAO?$AAU?$AAT?$AAP?$AAU?$AAT?$AA_?$AAS?$AAT?$AAR?$AAI?$AAN?$AAG?$AA?$AA@ 0043f47c     v5subs:choose_wire.obj
 0002:000054a0       ??_C@_1CG@GIKKKAFE@?$AAW?$AAI?$AAR?$AAE?$AA_?$AAN?$AAU?$AAM?$AAB?$AAE?$AAR?$AA_?$AAS?$AAT?$AAR?$AAI?$AAN?$AAG?$AA?$AA@ 0043f4a0     v5subs:choose_wire.obj
 0002:000054c8       ??_C@_1CK@DEBJBKEG@?$AAO?$AAU?$AAT?$AAP?$AAU?$AAT?$AA_?$AAN?$AAU?$AAM?$AAB?$AAE?$AAR?$AA_?$AAS?$AAT?$AAR?$AAI?$AAN?$AAG?$AA?$AA@ 0043f4c8     v5subs:choose_wire.obj
 0002:000054f4       ??_C@_1CM@NHJEDPDO@?$AAA?$AAL?$AAR?$AAE?$AAA?$AAD?$AAY?$AA_?$AAI?$AAN?$AA_?$AAU?$AAS?$AAE?$AA_?$AAS?$AAT?$AAR?$AAI?$AAN?$AAG?$AA?$AA@ 0043f4f4     v5subs:choose_wire.obj
 0002:00005520       ??_C@_1CO@DDJKECPF@?$AAA?$AAD?$AAV?$AAA?$AAN?$AAC?$AAE?$AAD?$AA_?$AAG?$AAR?$AAI?$AAD?$AA_?$AA1?$AA_?$AAS?$AAT?$AAR?$AAI?$AAN?$AAG?$AA?$AA@ 0043f520     v5subs:choose_wire.obj
 0002:00005550       ??_C@_1DC@JPJMDEKN@?$AAL?$AAI?$AAM?$AAI?$AAT?$AA_?$AAS?$AAW?$AAI?$AAT?$AAC?$AAH?$AA_?$AAW?$AAI?$AAR?$AAE?$AA_?$AAS?$AAT?$AAR?$AAI?$AAN?$AAG?$AA?$AA@ 0043f550     v5subs:choose_wire.obj
 0002:00005584       ??_C@_1CM@NGFDGDJD@?$AAG?$AAO?$AAO?$AAD?$AA_?$AAS?$AAH?$AAO?$AAT?$AA_?$AAW?$AAI?$AAR?$AAE?$AA_?$AAS?$AAT?$AAR?$AAI?$AAN?$AAG?$AA?$AA@ 0043f584     v5subs:choose_wire.obj
 0002:000055b0       ??_C@_1DO@FFFIBFNE@?$AAB?$AAI?$AAN?$AAA?$AAR?$AAY?$AA_?$AAV?$AAA?$AAL?$AAV?$AAE?$AA_?$AAP?$AAU?$AAL?$AAS?$AAE?$AA_?$AAW?$AAI?$AAR?$AAE?$AA_?$AAS?$AAT?$AAR?$AAI?$AAN?$AAG?$AA?$AA@ 0043f5b0     v5subs:choose_wire.obj
 0002:000055f0       ??_C@_1DC@GKNPOLEL@?$AAZ?$AAE?$AAR?$AAO?$AA_?$AAS?$AAP?$AAE?$AAE?$AAD?$AA_?$AAO?$AAU?$AAT?$AAP?$AAU?$AAT?$AA_?$AAS?$AAT?$AAR?$AAI?$AAN?$AAG?$AA?$AA@ 0043f5f0     v5subs:choose_wire.obj
 0002:00005624       ??_C@_1BM@KGDDMODK@?$AAC?$AAA?$AAN?$AAC?$AAE?$AAL?$AA_?$AAS?$AAT?$AAR?$AAI?$AAN?$AAG?$AA?$AA@ 0043f624     v5subs:choose_wire.obj
 0002:00005640       ??_C@_1BK@PHFIFPCB@?$AAM?$AAA?$AAN?$AAU?$AAA?$AAL?$AA_?$AAE?$AAN?$AAT?$AAR?$AAY?$AA?$AA@ 0043f640     v5subs:choose_wire.obj
 0002:0000565c       ??_C@_1BI@LOJGACMJ@?$AAC?$AAH?$AAO?$AAO?$AAS?$AAE?$AA_?$AAW?$AAI?$AAR?$AAE?$AA?$AA@ 0043f65c     v5subs:choose_wire.obj
 0002:00005674       ??_C@_1CK@PAFMFKJ@?$AAD?$AAO?$AAN?$AAT?$AA_?$AAU?$AAS?$AAE?$AA_?$AAW?$AAI?$AAR?$AAE?$AA_?$AAS?$AAT?$AAR?$AAI?$AAN?$AAG?$AA?$AA@ 0043f674     v5subs:choose_wire.obj
 0002:000056a0       ??_C@_1BI@EHBHLPFK@?$AAW?$AAI?$AAR?$AAE?$AA_?$AAN?$AAU?$AAM?$AAB?$AAE?$AAR?$AA?$AA@ 0043f6a0     v5subs:choose_wire.obj
 0002:000056b8       ??_C@_1BG@FNPLGIAO@?$AAW?$AAI?$AAR?$AAE?$AAS?$AA_?$AA1?$AA_?$AA1?$AA6?$AA?$AA@ 0043f6b8     v5subs:choose_wire.obj
 0002:000056d0       ??_C@_1BI@NAFEMOIL@?$AAW?$AAI?$AAR?$AAE?$AAS?$AA_?$AA1?$AA7?$AA_?$AA3?$AA2?$AA?$AA@ 0043f6d0     v5subs:choose_wire.obj
 0002:000056e8       ??_C@_1CE@FGLEFFCK@?$AAO?$AAU?$AAT?$AAP?$AAU?$AAT?$AA_?$AAW?$AAI?$AAR?$AAE?$AA_?$AAT?$AAI?$AAT?$AAL?$AAE?$AA?$AA@ 0043f6e8     v5subs:choose_wire.obj
 0002:0000570c       ??_C@_1CA@IJLIDBGB@?$AAC?$AAL?$AAI?$AAC?$AAK?$AA_?$AAO?$AAN?$AA_?$AAM?$AAO?$AAD?$AAU?$AAL?$AAE?$AA?$AA@ 0043f70c     v5subs:choose_wire.obj
 0002:0000572c       ??_C@_1CG@MGDEBJLF@?$AAC?$AAH?$AAO?$AAO?$AAS?$AAE?$AA_?$AAW?$AAI?$AAR?$AAE?$AA_?$AAD?$AAI?$AAA?$AAL?$AAO?$AAG?$AA?$AA@ 0043f72c     v5subs:choose_wire.obj
 0002:00005754       ??_C@_1CM@LOMHPOKJ@?$AAF?$AAT?$AA_?$AAO?$AAU?$AAT?$AAP?$AAU?$AAT?$AA_?$AAW?$AAI?$AAR?$AAE?$AA_?$AAD?$AAI?$AAA?$AAL?$AAO?$AAG?$AA?$AA@ 0043f754     v5subs:choose_wire.obj
 0002:00005788       ??_C@_1CE@JLENKCOM@?$AAD?$AAd?$AAe?$AAC?$AAo?$AAn?$AAn?$AAe?$AAc?$AAt?$AA?5?$AAF?$AAa?$AAi?$AAl?$AAe?$AAd?$AA?$AA@ 0043f788     v5subs:client.obj
 0002:000057ac       ??_C@_1BM@DAJBFGHB@?$AAD?$AAd?$AAe?$AAI?$AAn?$AAi?$AAt?$AAi?$AAa?$AAl?$AAi?$AAz?$AAe?$AA?$AA@ 0043f7ac     v5subs:client.obj
 0002:000057c8       ??_C@_1O@GCADHOOL@?$AAF?$AAa?$AAi?$AAl?$AAe?$AAd?$AA?$AA@ 0043f7c8     v5subs:client.obj
 0002:000057d8       ??_C@_1CM@JLPCGICM@?$AAD?$AAd?$AAe?$AAC?$AAr?$AAe?$AAa?$AAt?$AAe?$AAS?$AAt?$AAr?$AAi?$AAn?$AAg?$AAH?$AAa?$AAn?$AAd?$AAl?$AAe?$AA?$AA@ 0043f7d8     v5subs:client.obj
 0002:00005804       ??_C@_1BA@NMGIPLJE@?$AAA?$AAD?$AAD?$AA?4?$AAT?$AAX?$AAT?$AA?$AA@ 0043f804     v5subs:pw.obj
 0002:00005814       ??_C@_1BK@LNOKIIGI@?$AAP?$AAA?$AAS?$AAS?$AAW?$AAO?$AAR?$AAD?$AA?4?$AAT?$AAX?$AAT?$AA?$AA@ 0043f814     v5subs:pw.obj
 0002:00005840       __real@3eb0c6f7a0b5ed8d    0043f840     v5subs:zero.obj
 0002:00005848       __real@beb0c6f7a0b5ed8d    0043f848     v5subs:zero.obj
 0002:00005850       __real@bf1a36e2eb1c432d    0043f850     v5subs:zero.obj
 0002:00005858       ??_C@_1BA@BHDJAPNN@?$AAP?$AAa?$AAt?$AAt?$AAe?$AAr?$AAn?$AA?$AA@ 0043f858     v5subs:shot_name.obj
 0002:00005868       ??_C@_1BK@IOJPDJIO@?$AAF?$AAi?$AAe?$AAl?$AAd?$AA?5?$AAL?$AAe?$AAn?$AAg?$AAt?$AAh?$AA?$AA@ 0043f868     v5subs:shot_name.obj
 0002:00005884       ??_C@_19NHABCBNP@?$AAP?$AAa?$AAt?$AAh?$AA?$AA@ 0043f884     v5subs:shot_name.obj
 0002:00005890       ??_C@_13LPLIHJO@?$AA6?$AA?$AA@ 0043f890     v5subs:shot_name.obj
 0002:00005894       ??_C@_19HLHFODGE@?$AA?$HL?$AAs?$AA6?$AA?$HN?$AA?$AA@ 0043f894     v5subs:shot_name.obj
 0002:000058a0       ??_C@_11LOCGONAA@?$AA?$AA@ 0043f8a0     v5subs:shot_name.obj
 0002:000058a4       ??_C@_1BA@MGKEIBAA@?$AAC?$AAo?$AAm?$AAm?$AAa?$AAn?$AAd?$AA?$AA@ 0043f8a4     v5subs:shot_name.obj
 0002:000058b4       ??_C@_13KFHAAPON@?$AAN?$AA?$AA@ 0043f8b4     v5subs:shot_name.obj
 0002:0000597c       ??_C@_1DI@FNJFAIPC@?$AAE?$AAX?$AAT?$AAE?$AAR?$AAN?$AAA?$AAL?$AA_?$AAS?$AAH?$AAO?$AAT?$AA_?$AAN?$AAA?$AAM?$AAE?$AA_?$AAF?$AAI?$AAL?$AAE?$AA?4?$AAC?$AAS?$AAV?$AA?$AA@ 0043f97c     v5subs:shot_name.obj
 0002:000059b4       ??_C@_1BM@CGDNLNFE@?$AAS?$AAH?$AAO?$AAT?$AA_?$AAN?$AAA?$AAM?$AAE?$AA?4?$AAC?$AAS?$AAV?$AA?$AA@ 0043f9b4     v5subs:shot_name.obj
 0002:000059d0       ??_C@_19KLMLHLJG@?$AAN?$AAo?$AAn?$AAe?$AA?$AA@ 0043f9d0     v5subs:shot_name.obj
 0002:000059dc       ??_C@_1BC@OMJOLAJH@?$AAN?$AAO?$AAT?$AA?9?$AAU?$AAS?$AAE?$AAD?$AA?$AA@ 0043f9dc     v5subs:shot_name.obj
 0002:000059f0       ??_C@_1BE@PDDDFNJ@?$AAU?$AAN?$AAI?$AAT?$AAS?$AA?4?$AAT?$AAX?$AAT?$AA?$AA@ 0043f9f0     v5subs:units.obj
 0002:00005a04       ??_C@_1BE@LFHMOBFB@?$AAG?$AAP?$AAV?$AAA?$AAR?$AA?4?$AAC?$AAS?$AAV?$AA?$AA@ 0043fa04     v5subs:copypart.obj
 0002:00005a18       ??_C@_1CA@BOEJAGDL@?$AAP?$AAA?$AAR?$AAT?$AAD?$AAI?$AAS?$AAP?$AAL?$AAA?$AAY?$AA?4?$AAI?$AAN?$AAI?$AA?$AA@ 0043fa18     v5subs:copypart.obj
 0002:00005a38       ??_C@_1CI@IMDALGJO@?$AAS?$AAH?$AAO?$AAT?$AA_?$AAN?$AAA?$AAM?$AAE?$AA_?$AAR?$AAE?$AAS?$AAE?$AAT?$AA?4?$AAC?$AAS?$AAV?$AA?$AA@ 0043fa38     v5subs:copypart.obj
 0002:00005a60       ??_C@_1BK@PFLOAHHJ@?$AAS?$AAT?$AAL?$AAI?$AAM?$AAI?$AAT?$AAS?$AA?4?$AAT?$AAX?$AAT?$AA?$AA@ 0043fa60     v5subs:copypart.obj
 0002:00005a7c       ??_C@_1BK@KNNMGFAB@?$AAS?$AAT?$AAL?$AAI?$AAM?$AAI?$AAT?$AAS?$AA?4?$AAD?$AAA?$AAT?$AA?$AA@ 0043fa7c     v5subs:copypart.obj
 0002:00005a98       ??_C@_1BK@HFGDECG@?$AAS?$AAU?$AAB?$AAP?$AAA?$AAR?$AAT?$AAS?$AA?4?$AAT?$AAX?$AAT?$AA?$AA@ 0043fa98     v5subs:copypart.obj
 0002:00005ab4       ??_C@_1BK@IJIJNLIN@?$AAT?$AAC?$AAP?$AAA?$AAR?$AAA?$AAM?$AAS?$AA?4?$AAD?$AAA?$AAT?$AA?$AA@ 0043fab4     v5subs:copypart.obj
 0002:00005ad0       ??_C@_1BG@LKMOFCGH@?$AAW?$AAA?$AAR?$AAM?$AAU?$AAP?$AA?4?$AAC?$AAS?$AAV?$AA?$AA@ 0043fad0     v5subs:copypart.obj
 0002:00005af8       ??_C@_1BA@CIHEGHHL@?$AAL?$AAi?$AAs?$AAt?$AAB?$AAo?$AAx?$AA?$AA@ 0043faf8     v5subs:winsubs.obj
 0002:00005b08       ??_C@_1BO@DPOKDGKA@?$AAP?$AAu?$AAr?$AAg?$AAe?$AA?5?$AAO?$AAn?$AA?5?$AAR?$AAe?$AAs?$AAe?$AAt?$AA?$AA@ 0043fb08     v5subs:shot_name_reset.obj
 0002:00005b28       ??_C@_1M@BIKMDNBF@?$AA0?$AA0?$AA?3?$AA0?$AA0?$AA?$AA@ 0043fb28     v5subs:shot_name_reset.obj
 0002:00005b34       ??_C@_1BG@BAGDMPPM@?$AAI?$AAs?$AA?5?$AAE?$AAn?$AAa?$AAb?$AAl?$AAe?$AAd?$AA?$AA@ 0043fb34     v5subs:warmupcl.obj
 0002:00005b4c       ??_C@_1BE@LLFNEMBP@?$AAR?$AAu?$AAn?$AA?5?$AAI?$AAf?$AA?5?$AAO?$AAn?$AA?$AA@ 0043fb4c     v5subs:warmupcl.obj
 0002:00005b60       ??_C@_1BI@NADKABPH@?$AAW?$AAi?$AAr?$AAe?$AA?5?$AAN?$AAu?$AAm?$AAb?$AAe?$AAr?$AA?$AA@ 0043fb60     v5subs:warmupcl.obj
 0002:00005b78       ??_C@_1BE@LKBJOMKP@?$AAP?$AAa?$AAr?$AAt?$AA?5?$AAN?$AAa?$AAm?$AAe?$AA?$AA@ 0043fb78     v5subs:warmupcl.obj
 0002:00005b8c       ??_C@_1BI@HLBOKLFO@?$AAR?$AAU?$AAN?$AAL?$AAI?$AAS?$AAT?$AA?4?$AAC?$AAS?$AAV?$AA?$AA@ 0043fb8c     v5subs:warmupcl.obj
 0002:00005ba4       ??_C@_1BK@HEDDEFIC@?$AAO?$AAP?$AAE?$AAR?$AAA?$AAT?$AAO?$AAR?$AA?4?$AAT?$AAX?$AAT?$AA?$AA@ 0043fba4     v5subs:workclas.obj
 0002:00005bc0       ??_C@_1BI@BCCAMBPE@?$AAC?$AAO?$AAN?$AAT?$AAR?$AAO?$AAL?$AA?4?$AAT?$AAM?$AAP?$AA?$AA@ 0043fbc0     v5subs:ftiiclas.obj
 0002:00005be0       ??_C@_17MBGCMIPB@?$AAS?$AAu?$AAn?$AA?$AA@ 0043fbe0     v5subs:time.obj
 0002:00005be8       ??_C@_17KBOMKBF@?$AAM?$AAo?$AAn?$AA?$AA@ 0043fbe8     v5subs:time.obj
 0002:00005bf0       ??_C@_17BMKGEGOJ@?$AAT?$AAu?$AAe?$AA?$AA@ 0043fbf0     v5subs:time.obj
 0002:00005bf8       ??_C@_17CJEDCEPE@?$AAW?$AAe?$AAd?$AA?$AA@ 0043fbf8     v5subs:time.obj
 0002:00005c00       ??_C@_17GOCADIIK@?$AAT?$AAh?$AAr?$AA?$AA@ 0043fc00     v5subs:time.obj
 0002:00005c08       ??_C@_17HFOLPPLP@?$AAF?$AAr?$AAi?$AA?$AA@ 0043fc08     v5subs:time.obj
 0002:00005c10       ??_C@_17GGIBDPIH@?$AAS?$AAa?$AAt?$AA?$AA@ 0043fc10     v5subs:time.obj
 0002:00005c18       ??_C@_1M@ILHOPKA@?$AAE?$AAr?$AAr?$AAo?$AAr?$AA?$AA@ 0043fc18     v5subs:error_ms.obj
 0002:00005c24       ??_C@_1BG@JPIOGIHO@?$AAV?$AAi?$AAs?$AAi?$AAE?$AAr?$AAr?$AAo?$AAr?$AAs?$AA?$AA@ 0043fc24     v5subs:error_ms.obj
 0002:00005c3c       ??_C@_13HOIJIPNN@?$AA?5?$AA?$AA@ 0043fc3c     v5subs:error_ms.obj
 0002:00005c40       ??_C@_13KBPCEPBF@?$AA4?$AA?$AA@ 0043fc40     v5subs:wire_class.obj
 0002:00005c44       ??_C@_13BJEOCIHA@?$AA5?$AA?$AA@ 0043fc44     v5subs:wire_class.obj
 0002:00005c48       ??_C@_13LDEHOAPL@?$AA7?$AA?$AA@ 0043fc48     v5subs:wire_class.obj
 0002:00005c4c       ??_C@_13OLCEPAKN@?$AA8?$AA?$AA@ 0043fc4c     v5subs:wire_class.obj
 0002:00005c50       ??_C@_13FDJIJHMI@?$AA9?$AA?$AA@ 0043fc50     v5subs:wire_class.obj
 0002:00005c54       ??_C@_15HBDAHCPF@?$AA1?$AA0?$AA?$AA@ 0043fc54     v5subs:wire_class.obj
 0002:00005c5c       ??_C@_15MJIMBFJA@?$AA1?$AA1?$AA?$AA@ 0043fc5c     v5subs:wire_class.obj
 0002:00005c64       ??_C@_15NLDJLKHO@?$AA1?$AA2?$AA?$AA@ 0043fc64     v5subs:wire_class.obj
 0002:00005c6c       ??_C@_15GDIFNNBL@?$AA1?$AA3?$AA?$AA@ 0043fc6c     v5subs:wire_class.obj
 0002:00005c74       ??_C@_15POFCOFKC@?$AA1?$AA4?$AA?$AA@ 0043fc74     v5subs:wire_class.obj
 0002:00005c7c       ??_C@_15EGOOICMH@?$AA1?$AA5?$AA?$AA@ 0043fc7c     v5subs:wire_class.obj
 0002:00005c84       ??_C@_15FEFLCNCJ@?$AA1?$AA6?$AA?$AA@ 0043fc84     v5subs:wire_class.obj
 0002:00005c8c       ??_C@_15OMOHEKEM@?$AA1?$AA7?$AA?$AA@ 0043fc8c     v5subs:wire_class.obj
 0002:00005c94       ??_C@_17CHEEDONC@?$AA6?$AA1?$AAB?$AA?$AA@ 0043fc94     v5subs:wire_class.obj
 0002:00005c9c       ??_C@_17MLBHLMLP@?$AA6?$AA9?$AAB?$AA?$AA@ 0043fc9c     v5subs:wire_class.obj
 0002:00005ca4       ??_C@_15LEIEFKBK@?$AA1?$AA8?$AA?$AA@ 0043fca4     v5subs:wire_class.obj
 0002:00005cac       ??_C@_17DFPBJBDM@?$AA6?$AA1?$AAA?$AA?$AA@ 0043fcac     v5subs:wire_class.obj
 0002:00005cb4       ??_C@_17NJKCBDFB@?$AA6?$AA9?$AAA?$AA?$AA@ 0043fcb4     v5subs:wire_class.obj
 0002:00005cbc       ??_C@_15MDIDNHP@?$AA1?$AA9?$AA?$AA@ 0043fcbc     v5subs:wire_class.obj
 0002:00005cc4       ??_C@_17OMBIONHH@?$AA6?$AA0?$AAB?$AA?$AA@ 0043fcc4     v5subs:wire_class.obj
 0002:00005ccc       ??_C@_17ELGPBK@?$AA6?$AA8?$AAB?$AA?$AA@ 0043fccc     v5subs:wire_class.obj
 0002:00005cd4       ??_C@_15PHKEAAFL@?$AA2?$AA0?$AA?$AA@ 0043fcd4     v5subs:wire_class.obj
 0002:00005cdc       ??_C@_17POKNECJJ@?$AA6?$AA0?$AAA?$AA?$AA@ 0043fcdc     v5subs:wire_class.obj
 0002:00005ce4       ??_C@_17BCPOMAPE@?$AA6?$AA8?$AAA?$AA?$AA@ 0043fce4     v5subs:wire_class.obj
 0002:00005cec       ??_C@_15EPBIGHDO@?$AA2?$AA1?$AA?$AA@ 0043fcec     v5subs:wire_class.obj
 0002:00005cf4       ??_C@_17EFJILLFM@?$AA5?$AA9?$AAB?$AA?$AA@ 0043fcf4     v5subs:wire_class.obj
 0002:00005cfc       ??_C@_17PBBNNNMP@?$AA6?$AA7?$AAB?$AA?$AA@ 0043fcfc     v5subs:wire_class.obj
 0002:00005d04       ??_C@_15FNKNMINA@?$AA2?$AA2?$AA?$AA@ 0043fd04     v5subs:wire_class.obj
 0002:00005d0c       ??_C@_17FHCNBELC@?$AA5?$AA9?$AAA?$AA?$AA@ 0043fd0c     v5subs:wire_class.obj
 0002:00005d14       ??_C@_17ODKIHCCB@?$AA6?$AA7?$AAA?$AA?$AA@ 0043fd14     v5subs:wire_class.obj
 0002:00005d1c       ??_C@_15OFBBKPLF@?$AA2?$AA3?$AA?$AA@ 0043fd1c     v5subs:wire_class.obj
 0002:00005d24       ??_C@_17IOMEGIPJ@?$AA5?$AA8?$AAB?$AA?$AA@ 0043fd24     v5subs:wire_class.obj
 0002:00005d2c       ??_C@_17DKEBAOGK@?$AA6?$AA6?$AAB?$AA?$AA@ 0043fd2c     v5subs:wire_class.obj
 0002:00005d34       ??_C@_15HIMGJHAM@?$AA2?$AA4?$AA?$AA@ 0043fd34     v5subs:wire_class.obj
 0002:00005d3c       ??_C@_17JMHBMHBH@?$AA5?$AA8?$AAA?$AA?$AA@ 0043fd3c     v5subs:wire_class.obj
 0002:00005d44       ??_C@_17CIPEKBIE@?$AA6?$AA6?$AAA?$AA?$AA@ 0043fd44     v5subs:wire_class.obj
 0002:00005d4c       ??_C@_17HPJCNKCM@?$AA5?$AA7?$AAB?$AA?$AA@ 0043fd4c     v5subs:wire_class.obj
 0002:00005d54       ??_C@_17LMNFHMME@?$AA6?$AA5?$AAB?$AA?$AA@ 0043fd54     v5subs:wire_class.obj
 0002:00005d5c       ??_C@_15NCMPFPIH@?$AA2?$AA6?$AA?$AA@ 0043fd5c     v5subs:wire_class.obj
 0002:00005d64       ??_C@_17GNCHHFMC@?$AA5?$AA7?$AAA?$AA?$AA@ 0043fd64     v5subs:wire_class.obj
 0002:00005d6c       ??_C@_17KOGANDCK@?$AA6?$AA5?$AAA?$AA?$AA@ 0043fd6c     v5subs:wire_class.obj
 0002:00005d74       ??_C@_17LEMOAJIJ@?$AA5?$AA6?$AAB?$AA?$AA@ 0043fd74     v5subs:wire_class.obj
 0002:00005d7c       ??_C@_17HHIJKPGB@?$AA6?$AA4?$AAB?$AA?$AA@ 0043fd7c     v5subs:wire_class.obj
 0002:00005d84       ??_C@_15DCBACILE@?$AA2?$AA8?$AA?$AA@ 0043fd84     v5subs:wire_class.obj
 0002:00005d8c       ??_C@_17KGHLKGGH@?$AA5?$AA6?$AAA?$AA?$AA@ 0043fd8c     v5subs:wire_class.obj
 0002:00005d94       ??_C@_17GFDMAAIP@?$AA6?$AA4?$AAA?$AA?$AA@ 0043fd94     v5subs:wire_class.obj
 0002:00005d9c       ??_C@_15IKKMEPNB@?$AA2?$AA9?$AA?$AA@ 0043fd9c     v5subs:wire_class.obj
 0002:00005da4       ??_C@_17DCFKHLCH@?$AA5?$AA5?$AAB?$AA?$AA@ 0043fda4     v5subs:wire_class.obj
 0002:00005dac       ??_C@_17GKIMJPNJ@?$AA6?$AA3?$AAB?$AA?$AA@ 0043fdac     v5subs:wire_class.obj
 0002:00005db4       ??_C@_15DMPINDPO@?$AA3?$AA0?$AA?$AA@ 0043fdb4     v5subs:wire_class.obj
 0002:00005dbc       ??_C@_17CAOPNEMJ@?$AA5?$AA5?$AAA?$AA?$AA@ 0043fdbc     v5subs:wire_class.obj
 0002:00005dc4       ??_C@_17HIDJDADH@?$AA6?$AA3?$AAA?$AA?$AA@ 0043fdc4     v5subs:wire_class.obj
 0002:00005dcc       ??_C@_15IEEELEJL@?$AA3?$AA1?$AA?$AA@ 0043fdcc     v5subs:wire_class.obj
 0002:00005dd4       ??_C@_17PJAGKIIC@?$AA5?$AA4?$AAB?$AA?$AA@ 0043fdd4     v5subs:wire_class.obj
 0002:00005ddc       ??_C@_17KBNAEMHM@?$AA6?$AA2?$AAB?$AA?$AA@ 0043fddc     v5subs:wire_class.obj
 0002:00005de4       ??_C@_15JGPBBLHF@?$AA3?$AA2?$AA?$AA@ 0043fde4     v5subs:wire_class.obj
 0002:00005dec       ??_C@_17OLLDAHGM@?$AA5?$AA4?$AAA?$AA?$AA@ 0043fdec     v5subs:wire_class.obj
 0002:00005df4       ??_C@_17LDGFODJC@?$AA6?$AA2?$AAA?$AA?$AA@ 0043fdf4     v5subs:wire_class.obj
 0002:00005e08       __real@3ee4f8b588e368f1    0043fe08     v5subs:ftoasc.obj
 0002:00005e10       __real@bee4f8b588e368f1    0043fe10     v5subs:ftoasc.obj
 0002:00005e18       ??_C@_15DIPENLJF@?$AAS?$AAU?$AA?$AA@ 0043fe18     v5subs:shift.obj
 0002:00005e20       ??_C@_15DOIMAPIF@?$AAM?$AAO?$AA?$AA@ 0043fe20     v5subs:shift.obj
 0002:00005e28       ??_C@_15CFPBOLCN@?$AAT?$AAU?$AA?$AA@ 0043fe28     v5subs:shift.obj
 0002:00005e30       ??_C@_15PDHMMOBM@?$AAW?$AAE?$AA?$AA@ 0043fe30     v5subs:shift.obj
 0002:00005e38       ??_C@_15IHICGEGP@?$AAT?$AAH?$AA?$AA@ 0043fe38     v5subs:shift.obj
 0002:00005e40       ??_C@_15PGDIHAAE@?$AAF?$AAR?$AA?$AA@ 0043fe40     v5subs:shift.obj
 0002:00005e48       ??_C@_15OHIPBLFN@?$AAS?$AAA?$AA?$AA@ 0043fe48     v5subs:shift.obj
 0002:00005e84       ??_7bad_alloc@std@@6B@     0043fe84     LIBCMT:new.obj
 0002:00005e8c       ??_C@_0P@GHFPNOJB@bad?5allocation?$AA@ 0043fe8c     LIBCMT:new.obj
 0002:00005f88       ??_7type_info@@6B@         0043ff88     LIBCMT:typinfo.obj
 0002:00005f8c       __FPinit                   0043ff8c     LIBCMT:fpinit.obj
 0002:00005fe4       ??_7exception@std@@6B@     0043ffe4     LIBCMT:stdexcpt.obj
 0002:00005fec       ??_C@_0BC@EOODALEL@Unknown?5exception?$AA@ 0043ffec     LIBCMT:stdexcpt.obj
 0002:00006020       ??_C@_1BI@BGOHAHKC@?$AAm?$AAs?$AAc?$AAo?$AAr?$AAe?$AAe?$AA?4?$AAd?$AAl?$AAl?$AA?$AA@ 00440020     LIBCMT:crt0dat.obj
 0002:00006038       ??_C@_0P@MIGLKIOC@CorExitProcess?$AA@ 00440038     LIBCMT:crt0dat.obj
 0002:00006048       ??_C@_1BK@MGMFAEKH@?$AAk?$AAe?$AAr?$AAn?$AAe?$AAl?$AA3?$AA2?$AA?4?$AAd?$AAl?$AAl?$AA?$AA@ 00440048     LIBCMT:winapisupp.obj
 0002:00006064       ??_C@_08KNHFBNJ@FlsAlloc?$AA@ 00440064     LIBCMT:winapisupp.obj
 0002:00006070       ??_C@_07PEJMOBNF@FlsFree?$AA@ 00440070     LIBCMT:winapisupp.obj
 0002:00006078       ??_C@_0M@GDNOONDI@FlsGetValue?$AA@ 00440078     LIBCMT:winapisupp.obj
 0002:00006084       ??_C@_0M@JCPCPOEF@FlsSetValue?$AA@ 00440084     LIBCMT:winapisupp.obj
 0002:00006090       ??_C@_0BM@HCFOFFN@InitializeCriticalSectionEx?$AA@ 00440090     LIBCMT:winapisupp.obj
 0002:000060ac       ??_C@_0P@DLHPPCNH@CreateEventExW?$AA@ 004400ac     LIBCMT:winapisupp.obj
 0002:000060bc       ??_C@_0BD@KIEEOEEH@CreateSemaphoreExW?$AA@ 004400bc     LIBCMT:winapisupp.obj
 0002:000060d0       ??_C@_0BI@BKLFFAPO@SetThreadStackGuarantee?$AA@ 004400d0     LIBCMT:winapisupp.obj
 0002:000060e8       ??_C@_0BG@OGFAJCKC@CreateThreadpoolTimer?$AA@ 004400e8     LIBCMT:winapisupp.obj
 0002:00006100       ??_C@_0BD@LPLEMMDI@SetThreadpoolTimer?$AA@ 00440100     LIBCMT:winapisupp.obj
 0002:00006114       ??_C@_0CA@FMNJENH@WaitForThreadpoolTimerCallbacks?$AA@ 00440114     LIBCMT:winapisupp.obj
 0002:00006134       ??_C@_0BF@DCFCCNOC@CloseThreadpoolTimer?$AA@ 00440134     LIBCMT:winapisupp.obj
 0002:0000614c       ??_C@_0BF@FLABGKKM@CreateThreadpoolWait?$AA@ 0044014c     LIBCMT:winapisupp.obj
 0002:00006164       ??_C@_0BC@MGCOHNA@SetThreadpoolWait?$AA@ 00440164     LIBCMT:winapisupp.obj
 0002:00006178       ??_C@_0BE@OCIOMIMP@CloseThreadpoolWait?$AA@ 00440178     LIBCMT:winapisupp.obj
 0002:0000618c       ??_C@_0BJ@LKGHFHBO@FlushProcessWriteBuffers?$AA@ 0044018c     LIBCMT:winapisupp.obj
 0002:000061a8       ??_C@_0BP@KALKKPMO@FreeLibraryWhenCallbackReturns?$AA@ 004401a8     LIBCMT:winapisupp.obj
 0002:000061c8       ??_C@_0BK@DFNBACLA@GetCurrentProcessorNumber?$AA@ 004401c8     LIBCMT:winapisupp.obj
 0002:000061e4       ??_C@_0BP@KHGALBC@GetLogicalProcessorInformation?$AA@ 004401e4     LIBCMT:winapisupp.obj
 0002:00006204       ??_C@_0BE@FKKLLFLM@CreateSymbolicLinkW?$AA@ 00440204     LIBCMT:winapisupp.obj
 0002:00006218       ??_C@_0BJ@OHNKDLIJ@SetDefaultDllDirectories?$AA@ 00440218     LIBCMT:winapisupp.obj
 0002:00006234       ??_C@_0BE@LJANKFHF@EnumSystemLocalesEx?$AA@ 00440234     LIBCMT:winapisupp.obj
 0002:00006248       ??_C@_0BA@IHGNDAEB@CompareStringEx?$AA@ 00440248     LIBCMT:winapisupp.obj
 0002:00006258       ??_C@_0BA@EPCJIIPD@GetDateFormatEx?$AA@ 00440258     LIBCMT:winapisupp.obj
 0002:00006268       ??_C@_0BA@ONOKGCMP@GetLocaleInfoEx?$AA@ 00440268     LIBCMT:winapisupp.obj
 0002:00006278       ??_C@_0BA@CIJJKCJJ@GetTimeFormatEx?$AA@ 00440278     LIBCMT:winapisupp.obj
 0002:00006288       ??_C@_0BJ@PBCCBIPI@GetUserDefaultLocaleName?$AA@ 00440288     LIBCMT:winapisupp.obj
 0002:000062a4       ??_C@_0BC@CELBKLLA@IsValidLocaleName?$AA@ 004402a4     LIBCMT:winapisupp.obj
 0002:000062b8       ??_C@_0O@KKBNKAPF@LCMapStringEx?$AA@ 004402b8     LIBCMT:winapisupp.obj
 0002:000062c8       ??_C@_0BE@JOGNEJCI@GetCurrentPackageId?$AA@ 004402c8     LIBCMT:winapisupp.obj
 0002:000062dc       ??_C@_0P@CDHHOHKP@GetTickCount64?$AA@ 004402dc     LIBCMT:winapisupp.obj
 0002:000062ec       ??_C@_0BO@KPCLFDJJ@GetFileInformationByHandleExW?$AA@ 004402ec     LIBCMT:winapisupp.obj
 0002:0000630c       ??_C@_0BM@MHIDLABK@SetFileInformationByHandleW?$AA@ 0044030c     LIBCMT:winapisupp.obj
 0002:00006390       ??_C@_03MGHMBJCF@log?$AA@  00440390     LIBCMT:libm_error.obj
 0002:00006394       ??_C@_05HGHHAHAP@log10?$AA@ 00440394     LIBCMT:libm_error.obj
 0002:0000639c       ??_C@_03KHJOGHMM@exp?$AA@  0044039c     LIBCMT:libm_error.obj
 0002:000063a0       ??_C@_03JGHBODFD@pow?$AA@  004403a0     LIBCMT:libm_error.obj
 0002:000063a4       ??_C@_04FIHNOPOL@asin?$AA@ 004403a4     LIBCMT:libm_error.obj
 0002:000063ac       ??_C@_04PDIFKINK@acos?$AA@ 004403ac     LIBCMT:libm_error.obj
 0002:000063b4       ??_C@_05EOHGHCHD@exp10?$AA@ 004403b4     LIBCMT:libm_error.obj
 0002:000063bc       ??_C@_04MLLJIGOK@atan?$AA@ 004403bc     LIBCMT:libm_error.obj
 0002:000063c4       ??_C@_04GFPJNGEK@ceil?$AA@ 004403c4     LIBCMT:libm_error.obj
 0002:000063cc       ??_C@_05PBJFFIGL@floor?$AA@ 004403cc     LIBCMT:libm_error.obj
 0002:000063d4       ??_C@_04EHEDPDJG@modf?$AA@ 004403d4     LIBCMT:libm_error.obj
 0002:000063dc       ??_C@_03BLEJJJBH@sin?$AA@  004403dc     LIBCMT:libm_error.obj
 0002:000063e0       ??_C@_03LALBNOCG@cos?$AA@  004403e0     LIBCMT:libm_error.obj
 0002:000063e4       ??_C@_03IIINPABG@tan?$AA@  004403e4     LIBCMT:libm_error.obj
 0002:000063e8       ??_C@_04EIAKFFMI@sqrt?$AA@ 004403e8     LIBCMT:libm_error.obj
 0002:000063f0       ??_C@_04COOMCNPB@sinh?$AA@ 004403f0     LIBCMT:fpexcept.obj
 0002:000063f8       ??_C@_04HPJJNFIM@cosh?$AA@ 004403f8     LIBCMT:fpexcept.obj
 0002:00006400       ??_C@_04FJHINJAO@tanh?$AA@ 00440400     LIBCMT:fpexcept.obj
 0002:00006408       ??_C@_05KNGEOGJB@atan2?$AA@ 00440408     LIBCMT:fpexcept.obj
 0002:00006410       ??_C@_04ODHECPBC@fabs?$AA@ 00440410     LIBCMT:fpexcept.obj
 0002:00006418       ??_C@_05CEJMAHNP@ldexp?$AA@ 00440418     LIBCMT:fpexcept.obj
 0002:00006420       ??_C@_05KBKMEMPO@_cabs?$AA@ 00440420     LIBCMT:fpexcept.obj
 0002:00006428       ??_C@_06MEIMCGCF@_hypot?$AA@ 00440428     LIBCMT:fpexcept.obj
 0002:00006430       ??_C@_04KEPJIHGP@fmod?$AA@ 00440430     LIBCMT:fpexcept.obj
 0002:00006438       ??_C@_05GKKHEGJL@frexp?$AA@ 00440438     LIBCMT:fpexcept.obj
 0002:00006440       ??_C@_03MJLDFKDL@_y0?$AA@  00440440     LIBCMT:fpexcept.obj
 0002:00006444       ??_C@_03NAKIGLHK@_y1?$AA@  00440444     LIBCMT:fpexcept.obj
 0002:00006448       ??_C@_03ONILCKOB@_yn?$AA@  00440448     LIBCMT:fpexcept.obj
 0002:0000644c       ??_C@_05JGDBENOH@_logb?$AA@ 0044044c     LIBCMT:fpexcept.obj
 0002:00006454       ??_C@_0L@KDOEJCKC@_nextafter?$AA@ 00440454     LIBCMT:fpexcept.obj
 0002:00006460       ??_C@_05KLBDPFGC@e?$CL000?$AA@ 00440460     LIBCMT:cvt.obj
 0002:00006468       __XcptActTab               00440468     LIBCMT:winxfltr.obj
 0002:000064f8       __XcptActTabCount          004404f8     LIBCMT:winxfltr.obj
 0002:000064fc       __XcptActTabSize           004404fc     LIBCMT:winxfltr.obj
 0002:00006500       __First_FPE_Indx           00440500     LIBCMT:winxfltr.obj
 0002:00006504       __Num_FPE                  00440504     LIBCMT:winxfltr.obj
 0002:000065c0       ??_C@_1FK@PGACCAFB@?$AAR?$AA6?$AA0?$AA0?$AA2?$AA?$AN?$AA?6?$AA?9?$AA?5?$AAf?$AAl?$AAo?$AAa?$AAt?$AAi?$AAn?$AAg?$AA?5?$AAp?$AAo?$AAi?$AAn?$AAt?$AA?5?$AAs?$AAu?$AAp?$AAp?$AAo?$AAr?$AAt?$AA?5@ 004405c0     LIBCMT:crt0msg.obj
 0002:00006620       ??_C@_1FE@LLNEDJMD@?$AAR?$AA6?$AA0?$AA0?$AA8?$AA?$AN?$AA?6?$AA?9?$AA?5?$AAn?$AAo?$AAt?$AA?5?$AAe?$AAn?$AAo?$AAu?$AAg?$AAh?$AA?5?$AAs?$AAp?$AAa?$AAc?$AAe?$AA?5?$AAf?$AAo?$AAr?$AA?5?$AAa?$AAr@ 00440620     LIBCMT:crt0msg.obj
 0002:00006678       ??_C@_1FI@HONFMGBI@?$AAR?$AA6?$AA0?$AA0?$AA9?$AA?$AN?$AA?6?$AA?9?$AA?5?$AAn?$AAo?$AAt?$AA?5?$AAe?$AAn?$AAo?$AAu?$AAg?$AAh?$AA?5?$AAs?$AAp?$AAa?$AAc?$AAe?$AA?5?$AAf?$AAo?$AAr?$AA?5?$AAe?$AAn@ 00440678     LIBCMT:crt0msg.obj
 0002:000066d0       ??_C@_1EG@BEHAGFJD@?$AAR?$AA6?$AA0?$AA1?$AA0?$AA?$AN?$AA?6?$AA?9?$AA?5?$AAa?$AAb?$AAo?$AAr?$AAt?$AA?$CI?$AA?$CJ?$AA?5?$AAh?$AAa?$AAs?$AA?5?$AAb?$AAe?$AAe?$AAn?$AA?5?$AAc?$AAa?$AAl?$AAl?$AAe?$AAd@ 004406d0     LIBCMT:crt0msg.obj
 0002:00006718       ??_C@_1FI@LOGNIKDM@?$AAR?$AA6?$AA0?$AA1?$AA6?$AA?$AN?$AA?6?$AA?9?$AA?5?$AAn?$AAo?$AAt?$AA?5?$AAe?$AAn?$AAo?$AAu?$AAg?$AAh?$AA?5?$AAs?$AAp?$AAa?$AAc?$AAe?$AA?5?$AAf?$AAo?$AAr?$AA?5?$AAt?$AAh@ 00440718     LIBCMT:crt0msg.obj
 0002:00006770       ??_C@_1FK@BEOGODMC@?$AAR?$AA6?$AA0?$AA1?$AA7?$AA?$AN?$AA?6?$AA?9?$AA?5?$AAu?$AAn?$AAe?$AAx?$AAp?$AAe?$AAc?$AAt?$AAe?$AAd?$AA?5?$AAm?$AAu?$AAl?$AAt?$AAi?$AAt?$AAh?$AAr?$AAe?$AAa?$AAd?$AA?5@ 00440770     LIBCMT:crt0msg.obj
 0002:000067d0       ??_C@_1EC@JIBHAOPH@?$AAR?$AA6?$AA0?$AA1?$AA8?$AA?$AN?$AA?6?$AA?9?$AA?5?$AAu?$AAn?$AAe?$AAx?$AAp?$AAe?$AAc?$AAt?$AAe?$AAd?$AA?5?$AAh?$AAe?$AAa?$AAp?$AA?5?$AAe?$AAr?$AAr?$AAo?$AAr?$AA?$AN?$AA?6@ 004407d0     LIBCMT:crt0msg.obj
 0002:00006818       ??_C@_1FC@ECHBIFBC@?$AAR?$AA6?$AA0?$AA1?$AA9?$AA?$AN?$AA?6?$AA?9?$AA?5?$AAu?$AAn?$AAa?$AAb?$AAl?$AAe?$AA?5?$AAt?$AAo?$AA?5?$AAo?$AAp?$AAe?$AAn?$AA?5?$AAc?$AAo?$AAn?$AAs?$AAo?$AAl?$AAe?$AA?5@ 00440818     LIBCMT:crt0msg.obj
 0002:00006870       ??_C@_1GK@FHCKBEFA@?$AAR?$AA6?$AA0?$AA2?$AA4?$AA?$AN?$AA?6?$AA?9?$AA?5?$AAn?$AAo?$AAt?$AA?5?$AAe?$AAn?$AAo?$AAu?$AAg?$AAh?$AA?5?$AAs?$AAp?$AAa?$AAc?$AAe?$AA?5?$AAf?$AAo?$AAr?$AA?5?$AA_?$AAo@ 00440870     LIBCMT:crt0msg.obj
 0002:000068e0       ??_C@_1EM@MAADIHMB@?$AAR?$AA6?$AA0?$AA2?$AA5?$AA?$AN?$AA?6?$AA?9?$AA?5?$AAp?$AAu?$AAr?$AAe?$AA?5?$AAv?$AAi?$AAr?$AAt?$AAu?$AAa?$AAl?$AA?5?$AAf?$AAu?$AAn?$AAc?$AAt?$AAi?$AAo?$AAn?$AA?5?$AAc@ 004408e0     LIBCMT:crt0msg.obj
 0002:00006930       ??_C@_1GK@MCAAGJMO@?$AAR?$AA6?$AA0?$AA2?$AA6?$AA?$AN?$AA?6?$AA?9?$AA?5?$AAn?$AAo?$AAt?$AA?5?$AAe?$AAn?$AAo?$AAu?$AAg?$AAh?$AA?5?$AAs?$AAp?$AAa?$AAc?$AAe?$AA?5?$AAf?$AAo?$AAr?$AA?5?$AAs?$AAt@ 00440930     LIBCMT:crt0msg.obj
 0002:000069a0       ??_C@_1GK@MFGOKLAG@?$AAR?$AA6?$AA0?$AA2?$AA7?$AA?$AN?$AA?6?$AA?9?$AA?5?$AAn?$AAo?$AAt?$AA?5?$AAe?$AAn?$AAo?$AAu?$AAg?$AAh?$AA?5?$AAs?$AAp?$AAa?$AAc?$AAe?$AA?5?$AAf?$AAo?$AAr?$AA?5?$AAl?$AAo@ 004409a0     LIBCMT:crt0msg.obj
 0002:00006a10       ??_C@_1EK@HHFLMAOL@?$AAR?$AA6?$AA0?$AA2?$AA8?$AA?$AN?$AA?6?$AA?9?$AA?5?$AAu?$AAn?$AAa?$AAb?$AAl?$AAe?$AA?5?$AAt?$AAo?$AA?5?$AAi?$AAn?$AAi?$AAt?$AAi?$AAa?$AAl?$AAi?$AAz?$AAe?$AA?5?$AAh?$AAe@ 00440a10     LIBCMT:crt0msg.obj
 0002:00006a5c       ??_C@_1DO@BMFCDCD@?$AAR?$AA6?$AA0?$AA3?$AA0?$AA?$AN?$AA?6?$AA?9?$AA?5?$AAC?$AAR?$AAT?$AA?5?$AAn?$AAo?$AAt?$AA?5?$AAi?$AAn?$AAi?$AAt?$AAi?$AAa?$AAl?$AAi?$AAz?$AAe?$AAd?$AA?$AN?$AA?6?$AA?$AA@ 00440a5c     LIBCMT:crt0msg.obj
 0002:00006aa0       ??_C@_1MG@ENCOOIDF@?$AAR?$AA6?$AA0?$AA3?$AA1?$AA?$AN?$AA?6?$AA?9?$AA?5?$AAA?$AAt?$AAt?$AAe?$AAm?$AAp?$AAt?$AA?5?$AAt?$AAo?$AA?5?$AAi?$AAn?$AAi?$AAt?$AAi?$AAa?$AAl?$AAi?$AAz?$AAe?$AA?5?$AAt@ 00440aa0     LIBCMT:crt0msg.obj
 0002:00006b68       ??_C@_1GG@GOPILAJP@?$AAR?$AA6?$AA0?$AA3?$AA2?$AA?$AN?$AA?6?$AA?9?$AA?5?$AAn?$AAo?$AAt?$AA?5?$AAe?$AAn?$AAo?$AAu?$AAg?$AAh?$AA?5?$AAs?$AAp?$AAa?$AAc?$AAe?$AA?5?$AAf?$AAo?$AAr?$AA?5?$AAl?$AAo@ 00440b68     LIBCMT:crt0msg.obj
 0002:00006bd0       ??_C@_1BOO@KGEDBGAJ@?$AAR?$AA6?$AA0?$AA3?$AA3?$AA?$AN?$AA?6?$AA?9?$AA?5?$AAA?$AAt?$AAt?$AAe?$AAm?$AAp?$AAt?$AA?5?$AAt?$AAo?$AA?5?$AAu?$AAs?$AAe?$AA?5?$AAM?$AAS?$AAI?$AAL?$AA?5?$AAc?$AAo?$AAd@ 00440bd0     LIBCMT:crt0msg.obj
 0002:00006dc0       ??_C@_1GG@MKFPEKFO@?$AAR?$AA6?$AA0?$AA3?$AA4?$AA?$AN?$AA?6?$AA?9?$AA?5?$AAi?$AAn?$AAc?$AAo?$AAn?$AAs?$AAi?$AAs?$AAt?$AAe?$AAn?$AAt?$AA?5?$AAo?$AAn?$AAe?$AAx?$AAi?$AAt?$AA?5?$AAb?$AAe?$AAg@ 00440dc0     LIBCMT:crt0msg.obj
 0002:00006e28       ??_C@_1BO@BFCDCGC@?$AAD?$AAO?$AAM?$AAA?$AAI?$AAN?$AA?5?$AAe?$AAr?$AAr?$AAo?$AAr?$AA?$AN?$AA?6?$AA?$AA@ 00440e28     LIBCMT:crt0msg.obj
 0002:00006e48       ??_C@_1BK@KMOMNAAI@?$AAS?$AAI?$AAN?$AAG?$AA?5?$AAe?$AAr?$AAr?$AAo?$AAr?$AA?$AN?$AA?6?$AA?$AA@ 00440e48     LIBCMT:crt0msg.obj
 0002:00006e64       ??_C@_1BM@JBBEPPHI@?$AAT?$AAL?$AAO?$AAS?$AAS?$AA?5?$AAe?$AAr?$AAr?$AAo?$AAr?$AA?$AN?$AA?6?$AA?$AA@ 00440e64     LIBCMT:crt0msg.obj
 0002:00006e80       ??_C@_15JNBOKNOG@?$AA?$AN?$AA?6?$AA?$AA@ 00440e80     LIBCMT:crt0msg.obj
 0002:00006e88       ??_C@_1BO@BKOMIGKJ@?$AAr?$AAu?$AAn?$AAt?$AAi?$AAm?$AAe?$AA?5?$AAe?$AAr?$AAr?$AAo?$AAr?$AA?5?$AA?$AA@ 00440e88     LIBCMT:crt0msg.obj
 0002:00006ea8       ??_C@_1DE@JNGNBFGO@?$AAR?$AAu?$AAn?$AAt?$AAi?$AAm?$AAe?$AA?5?$AAE?$AAr?$AAr?$AAo?$AAr?$AA?$CB?$AA?6?$AA?6?$AAP?$AAr?$AAo?$AAg?$AAr?$AAa?$AAm?$AA?3?$AA?5?$AA?$AA@ 00440ea8     LIBCMT:crt0msg.obj
 0002:00006edc       ??_C@_1CO@EAEJAADC@?$AA?$DM?$AAp?$AAr?$AAo?$AAg?$AAr?$AAa?$AAm?$AA?5?$AAn?$AAa?$AAm?$AAe?$AA?5?$AAu?$AAn?$AAk?$AAn?$AAo?$AAw?$AAn?$AA?$DO?$AA?$AA@ 00440edc     LIBCMT:crt0msg.obj
 0002:00006f0c       ??_C@_15IABLJNFO@?$AA?6?$AA?6?$AA?$AA@ 00440f0c     LIBCMT:crt0msg.obj
 0002:00006f18       ??_C@_1EK@MBDPDCGA@?$AAM?$AAi?$AAc?$AAr?$AAo?$AAs?$AAo?$AAf?$AAt?$AA?5?$AAV?$AAi?$AAs?$AAu?$AAa?$AAl?$AA?5?$AAC?$AA?$CL?$AA?$CL?$AA?5?$AAR?$AAu?$AAn?$AAt?$AAi?$AAm?$AAe?$AA?5?$AAL?$AAi?$AAb@ 00440f18     LIBCMT:crt0msg.obj
 0002:00006f62       ??_C@_00CNPNBAHC@?$AA@     00440f62     LIBCMT:wincmdln.obj
 0002:00006f74       ??_C@_1M@HPNHIDJI@?$AAj?$AAa?$AA?9?$AAJ?$AAP?$AA?$AA@ 00440f74     LIBCMT:mbctype.obj
 0002:00006f80       ??_C@_1M@BIBDDEMK@?$AAz?$AAh?$AA?9?$AAC?$AAN?$AA?$AA@ 00440f80     LIBCMT:mbctype.obj
 0002:00006f8c       ??_C@_1M@JLOOOEGK@?$AAk?$AAo?$AA?9?$AAK?$AAR?$AA?$AA@ 00440f8c     LIBCMT:mbctype.obj
 0002:00006f98       ??_C@_1M@CLNBBOPM@?$AAz?$AAh?$AA?9?$AAT?$AAW?$AA?$AA@ 00440f98     LIBCMT:mbctype.obj
 0002:00006fa4       ??_C@_03KOEHGMDN@Sun?$AA@  00440fa4     LIBCMT:nlsdata.obj
 0002:00006fa8       ??_C@_03PDAGKDH@Mon?$AA@   00440fa8     LIBCMT:nlsdata.obj
 0002:00006fac       ??_C@_03NAGEINEP@Tue?$AA@  00440fac     LIBCMT:nlsdata.obj
 0002:00006fb0       ??_C@_03MHOMLAJA@Wed?$AA@  00440fb0     LIBCMT:nlsdata.obj
 0002:00006fb4       ??_C@_03IOFIKPDN@Thu?$AA@  00440fb4     LIBCMT:nlsdata.obj
 0002:00006fb8       ??_C@_03IDIOELNC@Fri?$AA@  00440fb8     LIBCMT:nlsdata.obj
 0002:00006fbc       ??_C@_03FEFJNEK@Sat?$AA@   00440fbc     LIBCMT:nlsdata.obj
 0002:00006fc0       ??_C@_06OOPIFAJ@Sunday?$AA@ 00440fc0     LIBCMT:nlsdata.obj
 0002:00006fc8       ??_C@_06JLEDEDGH@Monday?$AA@ 00440fc8     LIBCMT:nlsdata.obj
 0002:00006fd0       ??_C@_07BAAGCFCM@Tuesday?$AA@ 00440fd0     LIBCMT:nlsdata.obj
 0002:00006fd8       ??_C@_09DLIGFAKA@Wednesday?$AA@ 00440fd8     LIBCMT:nlsdata.obj
 0002:00006fe4       ??_C@_08HACCIKIA@Thursday?$AA@ 00440fe4     LIBCMT:nlsdata.obj
 0002:00006ff0       ??_C@_06JECMNKMI@Friday?$AA@ 00440ff0     LIBCMT:nlsdata.obj
 0002:00006ff8       ??_C@_08INBOOONO@Saturday?$AA@ 00440ff8     LIBCMT:nlsdata.obj
 0002:00007004       ??_C@_03JIHJHPIE@Jan?$AA@  00441004     LIBCMT:nlsdata.obj
 0002:00007008       ??_C@_03HJBDCHOM@Feb?$AA@  00441008     LIBCMT:nlsdata.obj
 0002:0000700c       ??_C@_03ODNJBKGA@Mar?$AA@  0044100c     LIBCMT:nlsdata.obj
 0002:00007010       ??_C@_03LEOLGMJP@Apr?$AA@  00441010     LIBCMT:nlsdata.obj
 0002:00007014       ??_C@_03CNMDKL@May?$AA@    00441014     LIBCMT:nlsdata.obj
 0002:00007018       ??_C@_03IDFGHECI@Jun?$AA@  00441018     LIBCMT:nlsdata.obj
 0002:0000701c       ??_C@_03LBGABGKK@Jul?$AA@  0044101c     LIBCMT:nlsdata.obj
 0002:00007020       ??_C@_03IFJFEIGA@Aug?$AA@  00441020     LIBCMT:nlsdata.obj
 0002:00007024       ??_C@_03GGCAPAJC@Sep?$AA@  00441024     LIBCMT:nlsdata.obj
 0002:00007028       ??_C@_03BMAOKBAD@Oct?$AA@  00441028     LIBCMT:nlsdata.obj
 0002:0000702c       ??_C@_03JPJOFNIA@Nov?$AA@  0044102c     LIBCMT:nlsdata.obj
 0002:00007030       ??_C@_03MKABNOCG@Dec?$AA@  00441030     LIBCMT:nlsdata.obj
 0002:00007034       ??_C@_07CGJPFGJA@January?$AA@ 00441034     LIBCMT:nlsdata.obj
 0002:0000703c       ??_C@_08GNJGEPFN@February?$AA@ 0044103c     LIBCMT:nlsdata.obj
 0002:00007048       ??_C@_05HPCKOFNC@March?$AA@ 00441048     LIBCMT:nlsdata.obj
 0002:00007050       ??_C@_05DMJDNLEJ@April?$AA@ 00441050     LIBCMT:nlsdata.obj
 0002:00007058       ??_C@_04CNLMGBGM@June?$AA@ 00441058     LIBCMT:nlsdata.obj
 0002:00007060       ??_C@_04MIEPOIFP@July?$AA@ 00441060     LIBCMT:nlsdata.obj
 0002:00007068       ??_C@_06LBBHFDDG@August?$AA@ 00441068     LIBCMT:nlsdata.obj
 0002:00007070       ??_C@_09BHHEALKD@September?$AA@ 00441070     LIBCMT:nlsdata.obj
 0002:0000707c       ??_C@_07JJNFCEND@October?$AA@ 0044107c     LIBCMT:nlsdata.obj
 0002:00007084       ??_C@_08HCHEGEOA@November?$AA@ 00441084     LIBCMT:nlsdata.obj
 0002:00007090       ??_C@_08EDHMEBNP@December?$AA@ 00441090     LIBCMT:nlsdata.obj
 0002:0000709c       ??_C@_02DEDBPAFC@AM?$AA@   0044109c     LIBCMT:nlsdata.obj
 0002:000070a0       ??_C@_02CJNFDJBF@PM?$AA@   004410a0     LIBCMT:nlsdata.obj
 0002:000070a4       ??_C@_08BPBNCDIB@MM?1dd?1yy?$AA@ 004410a4     LIBCMT:nlsdata.obj
 0002:000070b0       ??_C@_0BE@CKGJFCPC@dddd?0?5MMMM?5dd?0?5yyyy?$AA@ 004410b0     LIBCMT:nlsdata.obj
 0002:000070c4       ??_C@_08JCCMCCIL@HH?3mm?3ss?$AA@ 004410c4     LIBCMT:nlsdata.obj
 0002:000070d0       ??_C@_17PDPHAADD@?$AAT?$AAh?$AAu?$AA?$AA@ 004410d0     LIBCMT:nlsdata.obj
 0002:000070d8       ??_C@_1O@IHNHDHPB@?$AAS?$AAu?$AAn?$AAd?$AAa?$AAy?$AA?$AA@ 004410d8     LIBCMT:nlsdata.obj
 0002:000070e8       ??_C@_1O@MMNBFLIA@?$AAM?$AAo?$AAn?$AAd?$AAa?$AAy?$AA?$AA@ 004410e8     LIBCMT:nlsdata.obj
 0002:000070f8       ??_C@_1BA@ENFBFFEK@?$AAT?$AAu?$AAe?$AAs?$AAd?$AAa?$AAy?$AA?$AA@ 004410f8     LIBCMT:nlsdata.obj
 0002:00007108       ??_C@_1BE@EBOGMDOH@?$AAW?$AAe?$AAd?$AAn?$AAe?$AAs?$AAd?$AAa?$AAy?$AA?$AA@ 00441108     LIBCMT:nlsdata.obj
 0002:0000711c       ??_C@_1BC@HHMNLIHE@?$AAT?$AAh?$AAu?$AAr?$AAs?$AAd?$AAa?$AAy?$AA?$AA@ 0044111c     LIBCMT:nlsdata.obj
 0002:00007130       ??_C@_1O@PDICJHAG@?$AAF?$AAr?$AAi?$AAd?$AAa?$AAy?$AA?$AA@ 00441130     LIBCMT:nlsdata.obj
 0002:00007140       ??_C@_1BC@ENMNNPAJ@?$AAS?$AAa?$AAt?$AAu?$AAr?$AAd?$AAa?$AAy?$AA?$AA@ 00441140     LIBCMT:nlsdata.obj
 0002:00007154       ??_C@_17DKNBKCHM@?$AAJ?$AAa?$AAn?$AA?$AA@ 00441154     LIBCMT:nlsdata.obj
 0002:0000715c       ??_C@_17LMDJEKJN@?$AAF?$AAe?$AAb?$AA?$AA@ 0044115c     LIBCMT:nlsdata.obj
 0002:00007164       ??_C@_17CKNLEDEC@?$AAM?$AAa?$AAr?$AA?$AA@ 00441164     LIBCMT:nlsdata.obj
 0002:0000716c       ??_C@_17LFPOIHDD@?$AAA?$AAp?$AAr?$AA?$AA@ 0044116c     LIBCMT:nlsdata.obj
 0002:00007174       ??_C@_17PNNKMEED@?$AAM?$AAa?$AAy?$AA?$AA@ 00441174     LIBCMT:nlsdata.obj
 0002:0000717c       ??_C@_17KCJGOCPB@?$AAJ?$AAu?$AAn?$AA?$AA@ 0044117c     LIBCMT:nlsdata.obj
 0002:00007184       ??_C@_17IJPCKHK@?$AAJ?$AAu?$AAl?$AA?$AA@ 00441184     LIBCMT:nlsdata.obj
 0002:0000718c       ??_C@_17ICPELBCN@?$AAA?$AAu?$AAg?$AA?$AA@ 0044118c     LIBCMT:nlsdata.obj
 0002:00007194       ??_C@_17HCHCOKMG@?$AAS?$AAe?$AAp?$AA?$AA@ 00441194     LIBCMT:nlsdata.obj
 0002:0000719c       ??_C@_17FNLKOI@?$AAO?$AAc?$AAt?$AA?$AA@ 0044119c     LIBCMT:nlsdata.obj
 0002:000071a4       ??_C@_17BBDMLCIG@?$AAN?$AAo?$AAv?$AA?$AA@ 004411a4     LIBCMT:nlsdata.obj
 0002:000071ac       ??_C@_17EGKACKIF@?$AAD?$AAe?$AAc?$AA?$AA@ 004411ac     LIBCMT:nlsdata.obj
 0002:000071b4       ??_C@_1BA@EFMEIEBA@?$AAJ?$AAa?$AAn?$AAu?$AAa?$AAr?$AAy?$AA?$AA@ 004411b4     LIBCMT:nlsdata.obj
 0002:000071c4       ??_C@_1BC@JGDDFFAM@?$AAF?$AAe?$AAb?$AAr?$AAu?$AAa?$AAr?$AAy?$AA?$AA@ 004411c4     LIBCMT:nlsdata.obj
 0002:000071d8       ??_C@_1M@IKEENEDF@?$AAM?$AAa?$AAr?$AAc?$AAh?$AA?$AA@ 004411d8     LIBCMT:nlsdata.obj
 0002:000071e4       ??_C@_1M@GJNLMHFD@?$AAA?$AAp?$AAr?$AAi?$AAl?$AA?$AA@ 004411e4     LIBCMT:nlsdata.obj
 0002:000071f0       ??_C@_19EPFLPGAP@?$AAJ?$AAu?$AAn?$AAe?$AA?$AA@ 004411f0     LIBCMT:nlsdata.obj
 0002:000071fc       ??_C@_19BIFMLPCD@?$AAJ?$AAu?$AAl?$AAy?$AA?$AA@ 004411fc     LIBCMT:nlsdata.obj
 0002:00007208       ??_C@_1O@PAHLKOAC@?$AAA?$AAu?$AAg?$AAu?$AAs?$AAt?$AA?$AA@ 00441208     LIBCMT:nlsdata.obj
 0002:00007218       ??_C@_1BE@DKAAMBJL@?$AAS?$AAe?$AAp?$AAt?$AAe?$AAm?$AAb?$AAe?$AAr?$AA?$AA@ 00441218     LIBCMT:nlsdata.obj
 0002:0000722c       ??_C@_1BA@EPANDLNG@?$AAO?$AAc?$AAt?$AAo?$AAb?$AAe?$AAr?$AA?$AA@ 0044122c     LIBCMT:nlsdata.obj
 0002:0000723c       ??_C@_1BC@BGLIFPF@?$AAN?$AAo?$AAv?$AAe?$AAm?$AAb?$AAe?$AAr?$AA?$AA@ 0044123c     LIBCMT:nlsdata.obj
 0002:00007250       ??_C@_1BC@FEMKIFH@?$AAD?$AAe?$AAc?$AAe?$AAm?$AAb?$AAe?$AAr?$AA?$AA@ 00441250     LIBCMT:nlsdata.obj
 0002:00007264       ??_C@_15ODEHAHHF@?$AAA?$AAM?$AA?$AA@ 00441264     LIBCMT:nlsdata.obj
 0002:0000726c       ??_C@_15CLMNNGEL@?$AAP?$AAM?$AA?$AA@ 0044126c     LIBCMT:nlsdata.obj
 0002:00007274       ??_C@_1BC@IEBCMHCM@?$AAM?$AAM?$AA?1?$AAd?$AAd?$AA?1?$AAy?$AAy?$AA?$AA@ 00441274     LIBCMT:nlsdata.obj
 0002:00007288       ??_C@_1CI@KNAKOEBC@?$AAd?$AAd?$AAd?$AAd?$AA?0?$AA?5?$AAM?$AAM?$AAM?$AAM?$AA?5?$AAd?$AAd?$AA?0?$AA?5?$AAy?$AAy?$AAy?$AAy?$AA?$AA@ 00441288     LIBCMT:nlsdata.obj
 0002:000072b0       ??_C@_1BC@GDGBMEMK@?$AAH?$AAH?$AA?3?$AAm?$AAm?$AA?3?$AAs?$AAs?$AA?$AA@ 004412b0     LIBCMT:nlsdata.obj
 0002:000072c4       ??_C@_1M@BMHNFIME@?$AAe?$AAn?$AA?9?$AAU?$AAS?$AA?$AA@ 004412c4     LIBCMT:nlsdata.obj
 0002:00007c70       __infinity                 00441c70     LIBCMT:87tran.obj
 0002:00007c7a       __minfinity                00441c7a     LIBCMT:87tran.obj
 0002:00007c84       __logemax                  00441c84     LIBCMT:87tran.obj
 0002:00007caa       __OP_EXPjmptab             00441caa     LIBCMT:87tran.obj
 0002:00007cd0       __indefinite               00441cd0     LIBCMT:87disp.obj
 0002:00007cda       __piby2                    00441cda     LIBCMT:87disp.obj
 0002:00007d08       __DEFAULT_CW_in_mem        00441d08     LIBCMT:common.obj
 0002:00007d0a       __pi_by_2_to_61            00441d0a     LIBCMT:common.obj
 0002:00007ed4       ??_C@_08EHJDFFNH@__based?$CI?$AA@ 00441ed4     LIBCMT:undname.obj
 0002:00007ee0       ??_C@_07KOLFKCDI@__cdecl?$AA@ 00441ee0     LIBCMT:undname.obj
 0002:00007ee8       ??_C@_08GHMPAG@__pascal?$AA@ 00441ee8     LIBCMT:undname.obj
 0002:00007ef4       ??_C@_09IFJBGAPI@__stdcall?$AA@ 00441ef4     LIBCMT:undname.obj
 0002:00007f00       ??_C@_0L@NPHFGOKO@__thiscall?$AA@ 00441f00     LIBCMT:undname.obj
 0002:00007f0c       ??_C@_0L@JMKHOMEK@__fastcall?$AA@ 00441f0c     LIBCMT:undname.obj
 0002:00007f18       ??_C@_0N@BCKKPABJ@__vectorcall?$AA@ 00441f18     LIBCMT:undname.obj
 0002:00007f28       ??_C@_09HIJEGCPM@__clrcall?$AA@ 00441f28     LIBCMT:undname.obj
 0002:00007f34       ??_C@_06GHPCKEAG@__eabi?$AA@ 00441f34     LIBCMT:undname.obj
 0002:00007f3c       ??_C@_07JOMMBBKO@__ptr64?$AA@ 00441f3c     LIBCMT:undname.obj
 0002:00007f44       ??_C@_0L@PILCLIHE@__restrict?$AA@ 00441f44     LIBCMT:undname.obj
 0002:00007f50       ??_C@_0M@GFIIJFMG@__unaligned?$AA@ 00441f50     LIBCMT:undname.obj
 0002:00007f5c       ??_C@_09DHDLOLLB@restrict?$CI?$AA@ 00441f5c     LIBCMT:undname.obj
 0002:00007f68       ??_C@_04NIHEBCM@?5new?$AA@ 00441f68     LIBCMT:undname.obj
 0002:00007f70       ??_C@_07FPCDHGMM@?5delete?$AA@ 00441f70     LIBCMT:undname.obj
 0002:00007f78       ??_C@_01NEMOKFLO@?$DN?$AA@ 00441f78     LIBCMT:undname.obj
 0002:00007f7c       ??_C@_02GPIOPFAK@?$DO?$DO?$AA@ 00441f7c     LIBCMT:undname.obj
 0002:00007f80       ??_C@_02FODMEDOG@?$DM?$DM?$AA@ 00441f80     LIBCMT:undname.obj
 0002:00007f84       ??_C@_01DCLJPIOD@?$CB?$AA@ 00441f84     LIBCMT:undname.obj
 0002:00007f88       ??_C@_02EGOFBIJA@?$DN?$DN?$AA@ 00441f88     LIBCMT:undname.obj
 0002:00007f8c       ??_C@_02FDNJECIE@?$CB?$DN?$AA@ 00441f8c     LIBCMT:undname.obj
 0002:00007f90       ??_C@_02GPECMEKF@?$FL?$FN?$AA@ 00441f90     LIBCMT:undname.obj
 0002:00007f94       ??_C@_08LHJFAFGD@operator?$AA@ 00441f94     LIBCMT:undname.obj
 0002:00007fa0       ??_C@_02HBOOOICD@?9?$DO?$AA@ 00441fa0     LIBCMT:undname.obj
 0002:00007fa4       ??_C@_01NBENCBCI@?$CK?$AA@ 00441fa4     LIBCMT:undname.obj
 0002:00007fa8       ??_C@_02ECNGHCIF@?$CL?$CL?$AA@ 00441fa8     LIBCMT:undname.obj
 0002:00007fac       ??_C@_02BAABKJLB@?9?9?$AA@ 00441fac     LIBCMT:undname.obj
 0002:00007fb0       ??_C@_01JOAMLHOP@?9?$AA@   00441fb0     LIBCMT:undname.obj
 0002:00007fb4       ??_C@_01MIFGBAGJ@?$CL?$AA@ 00441fb4     LIBCMT:undname.obj
 0002:00007fb8       ??_C@_01HNPIGOCE@?$CG?$AA@ 00441fb8     LIBCMT:undname.obj
 0002:00007fbc       ??_C@_03MNHNFDLC@?9?$DO?$CK?$AA@ 00441fbc     LIBCMT:undname.obj
 0002:00007fc0       ??_C@_01KMDKNFGN@?1?$AA@   00441fc0     LIBCMT:undname.obj
 0002:00007fc4       ??_C@_01FGNFDNOH@?$CF?$AA@ 00441fc4     LIBCMT:undname.obj
 0002:00007fc8       ??_C@_01MNNFJEPP@?$DM?$AA@ 00441fc8     LIBCMT:undname.obj
 0002:00007fcc       ??_C@_02EHCHHCKH@?$DM?$DN?$AA@ 00441fcc     LIBCMT:undname.obj
 0002:00007fd0       ??_C@_01PPODPGHN@?$DO?$AA@ 00441fd0     LIBCMT:undname.obj
 0002:00007fd4       ??_C@_02EEKDKGMJ@?$DO?$DN?$AA@ 00441fd4     LIBCMT:undname.obj
 0002:00007fd8       ??_C@_01IHBHIGKO@?0?$AA@   00441fd8     LIBCMT:undname.obj
 0002:00007fdc       ??_C@_02HCKGKOFO@?$CI?$CJ?$AA@ 00441fdc     LIBCMT:undname.obj
 0002:00007fe0       ??_C@_01PJKLJHI@?$HO?$AA@  00441fe0     LIBCMT:undname.obj
 0002:00007fe4       ??_C@_01JKBOJNNK@?$FO?$AA@ 00441fe4     LIBCMT:undname.obj
 0002:00007fe8       ??_C@_01DNKMNLPK@?$HM?$AA@ 00441fe8     LIBCMT:undname.obj
 0002:00007fec       ??_C@_02PPKAJPJL@?$CG?$CG?$AA@ 00441fec     LIBCMT:undname.obj
 0002:00007ff0       ??_C@_02NONPIBCD@?$HM?$HM?$AA@ 00441ff0     LIBCMT:undname.obj
 0002:00007ff4       ??_C@_02FPIMKNGF@?$CK?$DN?$AA@ 00441ff4     LIBCMT:undname.obj
 0002:00007ff8       ??_C@_02FOEOMHFC@?$CL?$DN?$AA@ 00441ff8     LIBCMT:undname.obj
 0002:00007ffc       ??_C@_02FKMDLLOA@?9?$DN?$AA@ 00441ffc     LIBCMT:undname.obj
 0002:00008000       ??_C@_02FJEHGPIO@?1?$DN?$AA@ 00442000     LIBCMT:undname.obj
 0002:00008004       ??_C@_02FENAOKFI@?$CF?$DN?$AA@ 00442004     LIBCMT:undname.obj
 0002:00008008       ??_C@_03IKFCCPFF@?$DO?$DO?$DN?$AA@ 00442008     LIBCMT:undname.obj
 0002:0000800c       ??_C@_03CDNPDDLA@?$DM?$DM?$DN?$AA@ 0044200c     LIBCMT:undname.obj
 0002:00008010       ??_C@_02FGJGFEAB@?$CG?$DN?$AA@ 00442010     LIBCMT:undname.obj
 0002:00008014       ??_C@_02DHLNPPGH@?$HM?$DN?$AA@ 00442014     LIBCMT:undname.obj
 0002:00008018       ??_C@_02MHEGNOJ@?$FO?$DN?$AA@ 00442018     LIBCMT:undname.obj
 0002:0000801c       ??_C@_09IFPLHPGF@?$GAvftable?8?$AA@ 0044201c     LIBCMT:undname.obj
 0002:00008028       ??_C@_09BLBHBJP@?$GAvbtable?8?$AA@ 00442028     LIBCMT:undname.obj
 0002:00008034       ??_C@_07FEEIOKP@?$GAvcall?8?$AA@ 00442034     LIBCMT:undname.obj
 0002:0000803c       ??_C@_08LLFFHHDJ@?$GAtypeof?8?$AA@ 0044203c     LIBCMT:undname.obj
 0002:00008048       ??_C@_0BF@KDPPACIK@?$GAlocal?5static?5guard?8?$AA@ 00442048     LIBCMT:undname.obj
 0002:00008060       ??_C@_08OBABFOLI@?$GAstring?8?$AA@ 00442060     LIBCMT:undname.obj
 0002:0000806c       ??_C@_0BD@JDLKDPAB@?$GAvbase?5destructor?8?$AA@ 0044206c     LIBCMT:undname.obj
 0002:00008080       ??_C@_0BN@DEGPLNFK@?$GAvector?5deleting?5destructor?8?$AA@ 00442080     LIBCMT:undname.obj
 0002:000080a0       ??_C@_0BO@OBMKPJIG@?$GAdefault?5constructor?5closure?8?$AA@ 004420a0     LIBCMT:undname.obj
 0002:000080c0       ??_C@_0BN@IMDCHIKM@?$GAscalar?5deleting?5destructor?8?$AA@ 004420c0     LIBCMT:undname.obj
 0002:000080e0       ??_C@_0BO@PFGOCPJJ@?$GAvector?5constructor?5iterator?8?$AA@ 004420e0     LIBCMT:undname.obj
 0002:00008100       ??_C@_0BN@LFPFMEDL@?$GAvector?5destructor?5iterator?8?$AA@ 00442100     LIBCMT:undname.obj
 0002:00008120       ??_C@_0CE@IKBNEHA@?$GAvector?5vbase?5constructor?5iterat@ 00442120     LIBCMT:undname.obj
 0002:00008144       ??_C@_0BL@NILFHHPC@?$GAvirtual?5displacement?5map?8?$AA@ 00442144     LIBCMT:undname.obj
 0002:00008160       ??_C@_0CB@JONCMFFK@?$GAeh?5vector?5constructor?5iterator?8@ 00442160     LIBCMT:undname.obj
 0002:00008184       ??_C@_0CA@GCEOPDGL@?$GAeh?5vector?5destructor?5iterator?8?$AA@ 00442184     LIBCMT:undname.obj
 0002:000081a4       ??_C@_0CH@OOJPLCPH@?$GAeh?5vector?5vbase?5constructor?5ite@ 004421a4     LIBCMT:undname.obj
 0002:000081cc       ??_C@_0BL@LLKPOHJI@?$GAcopy?5constructor?5closure?8?$AA@ 004421cc     LIBCMT:undname.obj
 0002:000081e8       ??_C@_0BA@KBCDOMBN@?$GAudt?5returning?8?$AA@ 004421e8     LIBCMT:undname.obj
 0002:000081f8       ??_C@_03KLGMFNMG@?$GAEH?$AA@ 004421f8     LIBCMT:undname.obj
 0002:000081fc       ??_C@_05KHLCHHI@?$GARTTI?$AA@ 004421fc     LIBCMT:undname.obj
 0002:00008204       ??_C@_0BA@KKLDJDLB@?$GAlocal?5vftable?8?$AA@ 00442204     LIBCMT:undname.obj
 0002:00008214       ??_C@_0CE@IIHCMGGL@?$GAlocal?5vftable?5constructor?5closu@ 00442214     LIBCMT:undname.obj
 0002:00008238       ??_C@_06FHBGPFGH@?5new?$FL?$FN?$AA@ 00442238     LIBCMT:undname.obj
 0002:00008240       ??_C@_09LBNFPBCA@?5delete?$FL?$FN?$AA@ 00442240     LIBCMT:undname.obj
 0002:0000824c       ??_C@_0P@HJKNJFNN@?$GAomni?5callsig?8?$AA@ 0044224c     LIBCMT:undname.obj
 0002:0000825c       ??_C@_0BL@CNOONJFP@?$GAplacement?5delete?5closure?8?$AA@ 0044225c     LIBCMT:undname.obj
 0002:00008278       ??_C@_0BN@CKNJLHMB@?$GAplacement?5delete?$FL?$FN?5closure?8?$AA@ 00442278     LIBCMT:undname.obj
 0002:00008298       ??_C@_0CG@CFDHKGGD@?$GAmanaged?5vector?5constructor?5iter@ 00442298     LIBCMT:undname.obj
 0002:000082c0       ??_C@_0CF@IMGKMJNO@?$GAmanaged?5vector?5destructor?5itera@ 004422c0     LIBCMT:undname.obj
 0002:000082e8       ??_C@_0CG@HLDDJMAG@?$GAeh?5vector?5copy?5constructor?5iter@ 004422e8     LIBCMT:undname.obj
 0002:00008310       ??_C@_0CM@FCBBDIGB@?$GAeh?5vector?5vbase?5copy?5constructo@ 00442310     LIBCMT:undname.obj
 0002:0000833c       ??_C@_0BL@CLIPGLGB@?$GAdynamic?5initializer?5for?5?8?$AA@ 0044233c     LIBCMT:undname.obj
 0002:00008358       ??_C@_0CB@PDBIFEP@?$GAdynamic?5atexit?5destructor?5for?5?8@ 00442358     LIBCMT:undname.obj
 0002:0000837c       ??_C@_0CD@CGAJBKEJ@?$GAvector?5copy?5constructor?5iterato@ 0044237c     LIBCMT:undname.obj
 0002:000083a0       ??_C@_0CJ@GJELGAMM@?$GAvector?5vbase?5copy?5constructor?5i@ 004423a0     LIBCMT:undname.obj
 0002:000083cc       ??_C@_0CL@FGIJHLCE@?$GAmanaged?5vector?5copy?5constructor@ 004423cc     LIBCMT:undname.obj
 0002:000083f8       ??_C@_0BM@PMGGMLDN@?$GAlocal?5static?5thread?5guard?8?$AA@ 004423f8     LIBCMT:undname.obj
 0002:00008414       ??_C@_0BC@DAFEJGAK@?5Type?5Descriptor?8?$AA@ 00442414     LIBCMT:undname.obj
 0002:00008428       ??_C@_0BM@LDKODKLH@?5Base?5Class?5Descriptor?5at?5?$CI?$AA@ 00442428     LIBCMT:undname.obj
 0002:00008444       ??_C@_0BD@LGICGFMM@?5Base?5Class?5Array?8?$AA@ 00442444     LIBCMT:undname.obj
 0002:00008458       ??_C@_0BN@MECKDCOJ@?5Class?5Hierarchy?5Descriptor?8?$AA@ 00442458     LIBCMT:undname.obj
 0002:00008478       ??_C@_0BK@CFCOFLF@?5Complete?5Object?5Locator?8?$AA@ 00442478     LIBCMT:undname.obj
 0002:00008494       ??_C@_1BG@GOEBHBDC@?$AAU?$AAS?$AAE?$AAR?$AA3?$AA2?$AA?4?$AAD?$AAL?$AAL?$AA?$AA@ 00442494     LIBCMT:crtmboxw.obj
 0002:000084ac       ??_C@_0M@DLDCCGNP@MessageBoxW?$AA@ 004424ac     LIBCMT:crtmboxw.obj
 0002:000084b8       ??_C@_0BA@HNOPNCHB@GetActiveWindow?$AA@ 004424b8     LIBCMT:crtmboxw.obj
 0002:000084c8       ??_C@_0BD@HHGDFDBJ@GetLastActivePopup?$AA@ 004424c8     LIBCMT:crtmboxw.obj
 0002:000084dc       ??_C@_0BK@DEKFELLI@GetUserObjectInformationW?$AA@ 004424dc     LIBCMT:crtmboxw.obj
 0002:000084f8       ??_C@_0BI@DFKBFLJE@GetProcessWindowStation?$AA@ 004424f8     LIBCMT:crtmboxw.obj
 0002:00008510       ___newctype                00442510     LIBCMT:ctype.obj
 0002:00008810       __wctype                   00442810     LIBCMT:ctype.obj
 0002:00008a18       ___newclmap                00442a18     LIBCMT:ctype.obj
 0002:00008b98       ___newcumap                00442b98     LIBCMT:ctype.obj
 0002:00008d18       ??_C@_15PJPFLCCM@?$AAu?$AAk?$AA?$AA@ 00442d18     LIBCMT:getqloc.obj
 0002:00008d20       ___rg_language_count       00442d20     LIBCMT:getqloc.obj
 0002:00008d24       ___rg_country_count        00442d24     LIBCMT:getqloc.obj
 0002:00008d28       _LcidToLocaleNameTable     00442d28     LIBCMT:winapinls.obj
 0002:00009448       _LocaleNameToIndexTable    00443448     LIBCMT:winapinls.obj
 0002:00009b68       ??_C@_15EMKDOKLE@?$AAa?$AAr?$AA?$AA@ 00443b68     LIBCMT:winapinls.obj
 0002:00009b70       ??_C@_15KNPADPLH@?$AAb?$AAg?$AA?$AA@ 00443b70     LIBCMT:winapinls.obj
 0002:00009b78       ??_C@_15EDMHLDMO@?$AAc?$AAa?$AA?$AA@ 00443b78     LIBCMT:winapinls.obj
 0002:00009b80       ??_C@_1O@BPEAJADD@?$AAz?$AAh?$AA?9?$AAC?$AAH?$AAS?$AA?$AA@ 00443b80     LIBCMT:winapinls.obj
 0002:00009b90       ??_C@_15LJNHCMNK@?$AAc?$AAs?$AA?$AA@ 00443b90     LIBCMT:winapinls.obj
 0002:00009b98       ??_C@_15FOMCIDHG@?$AAd?$AAa?$AA?$AA@ 00443b98     LIBCMT:winapinls.obj
 0002:00009ba0       ??_C@_15NBKABECB@?$AAd?$AAe?$AA?$AA@ 00443ba0     LIBCMT:winapinls.obj
 0002:00009ba8       ??_C@_15GHPEIIAO@?$AAe?$AAl?$AA?$AA@ 00443ba8     LIBCMT:winapinls.obj
 0002:00009bb0       ??_C@_15MNPNEAIF@?$AAe?$AAn?$AA?$AA@ 00443bb0     LIBCMT:winapinls.obj
 0002:00009bb8       ??_C@_15GPIOMPMH@?$AAe?$AAs?$AA?$AA@ 00443bb8     LIBCMT:winapinls.obj
 0002:00009bc0       ??_C@_15NGLOAKJC@?$AAf?$AAi?$AA?$AA@ 00443bc0     LIBCMT:winapinls.obj
 0002:00009bc8       ??_C@_15FBKGNKAM@?$AAf?$AAr?$AA?$AA@ 00443bc8     LIBCMT:winapinls.obj
 0002:00009bd0       ??_C@_15KGGCNEFK@?$AAh?$AAe?$AA?$AA@ 00443bd0     LIBCMT:winapinls.obj
 0002:00009bd8       ??_C@_15PGHLIDMF@?$AAh?$AAu?$AA?$AA@ 00443bd8     LIBCMT:winapinls.obj
 0002:00009be0       ??_C@_15BIEMAPLM@?$AAi?$AAs?$AA?$AA@ 00443be0     LIBCMT:winapinls.obj
 0002:00009be8       ??_C@_15IFJLDHAF@?$AAi?$AAt?$AA?$AA@ 00443be8     LIBCMT:winapinls.obj
 0002:00009bf0       ??_C@_15GEMIOCAG@?$AAj?$AAa?$AA?$AA@ 00443bf0     LIBCMT:winapinls.obj
 0002:00009bf8       ??_C@_15EPELEGJA@?$AAk?$AAo?$AA?$AA@ 00443bf8     LIBCMT:winapinls.obj
 0002:00009c00       ??_C@_15NDDHIMN@?$AAn?$AAl?$AA?$AA@ 00443c00     LIBCMT:winapinls.obj
 0002:00009c08       ??_C@_15BPIGNHCD@?$AAn?$AAo?$AA?$AA@ 00443c08     LIBCMT:winapinls.obj
 0002:00009c10       ??_C@_15DEOPBLCG@?$AAp?$AAl?$AA?$AA@ 00443c10     LIBCMT:winapinls.obj
 0002:00009c18       ??_C@_15KBECGEFG@?$AAp?$AAt?$AA?$AA@ 00443c18     LIBCMT:winapinls.obj
 0002:00009c20       ??_C@_15GLJCBFMD@?$AAr?$AAo?$AA?$AA@ 00443c20     LIBCMT:winapinls.obj
 0002:00009c28       ??_C@_15FEDGKCDI@?$AAr?$AAu?$AA?$AA@ 00443c28     LIBCMT:winapinls.obj
 0002:00009c30       ??_C@_15GLKMLLHM@?$AAh?$AAr?$AA?$AA@ 00443c30     LIBCMT:winapinls.obj
 0002:00009c38       ??_C@_15CPKMFBDB@?$AAs?$AAk?$AA?$AA@ 00443c38     LIBCMT:winapinls.obj
 0002:00009c40       ??_C@_15BAAIOGMK@?$AAs?$AAq?$AA?$AA@ 00443c40     LIBCMT:winapinls.obj
 0002:00009c48       ??_C@_15INNPNOHD@?$AAs?$AAv?$AA?$AA@ 00443c48     LIBCMT:winapinls.obj
 0002:00009c50       ??_C@_15CABMMOGH@?$AAt?$AAh?$AA?$AA@ 00443c50     LIBCMT:winapinls.obj
 0002:00009c58       ??_C@_15BPLIHJJM@?$AAt?$AAr?$AA?$AA@ 00443c58     LIBCMT:winapinls.obj
 0002:00009c60       ??_C@_15NEOEKKDJ@?$AAu?$AAr?$AA?$AA@ 00443c60     LIBCMT:winapinls.obj
 0002:00009c68       ??_C@_15NFICGAJK@?$AAi?$AAd?$AA?$AA@ 00443c68     LIBCMT:winapinls.obj
 0002:00009c70       ??_C@_15HPJPHDM@?$AAb?$AAe?$AA?$AA@ 00443c70     LIBCMT:winapinls.obj
 0002:00009c78       ??_C@_15LCHLGJII@?$AAs?$AAl?$AA?$AA@ 00443c78     LIBCMT:winapinls.obj
 0002:00009c80       ??_C@_15PCFJPHHO@?$AAe?$AAt?$AA?$AA@ 00443c80     LIBCMT:winapinls.obj
 0002:00009c88       ??_C@_15HPFPGODN@?$AAl?$AAv?$AA?$AA@ 00443c88     LIBCMT:winapinls.obj
 0002:00009c90       ??_C@_15NFFGKGLG@?$AAl?$AAt?$AA?$AA@ 00443c90     LIBCMT:winapinls.obj
 0002:00009c98       ??_C@_15BDAKCCHN@?$AAf?$AAa?$AA?$AA@ 00443c98     LIBCMT:winapinls.obj
 0002:00009ca0       ??_C@_15NFGIAIAJ@?$AAv?$AAi?$AA?$AA@ 00443ca0     LIBCMT:winapinls.obj
 0002:00009ca8       ??_C@_15LMKNDMHN@?$AAh?$AAy?$AA?$AA@ 00443ca8     LIBCMT:winapinls.obj
 0002:00009cb0       ??_C@_15IJBHMCFL@?$AAa?$AAz?$AA?$AA@ 00443cb0     LIBCMT:winapinls.obj
 0002:00009cb8       ??_C@_15EKOFJABL@?$AAe?$AAu?$AA?$AA@ 00443cb8     LIBCMT:winapinls.obj
 0002:00009cc0       ??_C@_15BGHADCNK@?$AAm?$AAk?$AA?$AA@ 00443cc0     LIBCMT:winapinls.obj
 0002:00009cc8       ??_C@_15JDNICKHM@?$AAa?$AAf?$AA?$AA@ 00443cc8     LIBCMT:winapinls.obj
 0002:00009cd0       ??_C@_15KPJEDBKD@?$AAk?$AAa?$AA?$AA@ 00443cd0     LIBCMT:winapinls.obj
 0002:00009cd8       ??_C@_15PDNFFFEO@?$AAf?$AAo?$AA?$AA@ 00443cd8     LIBCMT:winapinls.obj
 0002:00009ce0       ??_C@_15OMLEGLOC@?$AAh?$AAi?$AA?$AA@ 00443ce0     LIBCMT:winapinls.obj
 0002:00009ce8       ??_C@_15IDNNENKK@?$AAm?$AAs?$AA?$AA@ 00443ce8     LIBCMT:winapinls.obj
 0002:00009cf0       ??_C@_15MACJNBMH@?$AAk?$AAk?$AA?$AA@ 00443cf0     LIBCMT:winapinls.obj
 0002:00009cf8       ??_C@_15DKDJEOND@?$AAk?$AAy?$AA?$AA@ 00443cf8     LIBCMT:winapinls.obj
 0002:00009d00       ??_C@_15DFGDLJBG@?$AAs?$AAw?$AA?$AA@ 00443d00     LIBCMT:winapinls.obj
 0002:00009d08       ??_C@_15BBFAICNG@?$AAu?$AAz?$AA?$AA@ 00443d08     LIBCMT:winapinls.obj
 0002:00009d10       ??_C@_15DKNDCGEA@?$AAt?$AAt?$AA?$AA@ 00443d10     LIBCMT:winapinls.obj
 0002:00009d18       ??_C@_15MGIFMDPL@?$AAp?$AAa?$AA?$AA@ 00443d18     LIBCMT:winapinls.obj
 0002:00009d20       ??_C@_15HCNDBBA@?$AAg?$AAu?$AA?$AA@ 00443d20     LIBCMT:winapinls.obj
 0002:00009d28       ??_C@_15FNBEIBON@?$AAt?$AAa?$AA?$AA@ 00443d28     LIBCMT:winapinls.obj
 0002:00009d30       ??_C@_15NCHGBGLK@?$AAt?$AAe?$AA?$AA@ 00443d30     LIBCMT:winapinls.obj
 0002:00009d38       ??_C@_15PHPHCBPF@?$AAk?$AAn?$AA?$AA@ 00443d38     LIBCMT:winapinls.obj
 0002:00009d40       ??_C@_15DLGBCKMP@?$AAm?$AAr?$AA?$AA@ 00443d40     LIBCMT:winapinls.obj
 0002:00009d48       ??_C@_15EABBLBFF@?$AAs?$AAa?$AA?$AA@ 00443d48     LIBCMT:winapinls.obj
 0002:00009d50       ??_C@_15CBKOMCOI@?$AAm?$AAn?$AA?$AA@ 00443d50     LIBCMT:winapinls.obj
 0002:00009d58       ??_C@_15CKDMCJAF@?$AAg?$AAl?$AA?$AA@ 00443d58     LIBCMT:winapinls.obj
 0002:00009d60       ??_C@_17CNJFBPG@?$AAk?$AAo?$AAk?$AA?$AA@ 00443d60     LIBCMT:winapinls.obj
 0002:00009d68       ??_C@_17FFBJICPL@?$AAs?$AAy?$AAr?$AA?$AA@ 00443d68     LIBCMT:winapinls.obj
 0002:00009d70       ??_C@_17KPNDCPAF@?$AAd?$AAi?$AAv?$AA?$AA@ 00443d70     LIBCMT:winapinls.obj
 0002:00009d78       ??_C@_1M@OKAHONE@?$AAa?$AAr?$AA?9?$AAS?$AAA?$AA?$AA@ 00443d78     LIBCMT:winapinls.obj
 0002:00009d84       ??_C@_1M@FFFIGIGK@?$AAb?$AAg?$AA?9?$AAB?$AAG?$AA?$AA@ 00443d84     LIBCMT:winapinls.obj
 0002:00009d90       ??_C@_1M@BJNKEDC@?$AAc?$AAa?$AA?9?$AAE?$AAS?$AA?$AA@ 00443d90     LIBCMT:winapinls.obj
 0002:00009d9c       ??_C@_1M@IJJHFJHA@?$AAc?$AAs?$AA?9?$AAC?$AAZ?$AA?$AA@ 00443d9c     LIBCMT:winapinls.obj
 0002:00009da8       ??_C@_1M@CLPEOBGI@?$AAd?$AAa?$AA?9?$AAD?$AAK?$AA?$AA@ 00443da8     LIBCMT:winapinls.obj
 0002:00009db4       ??_C@_1M@MCMADGCB@?$AAd?$AAe?$AA?9?$AAD?$AAE?$AA?$AA@ 00443db4     LIBCMT:winapinls.obj
 0002:00009dc0       ??_C@_1M@OOCKEMAM@?$AAe?$AAl?$AA?9?$AAG?$AAR?$AA?$AA@ 00443dc0     LIBCMT:winapinls.obj
 0002:00009dcc       ??_C@_1M@DDNJFGID@?$AAf?$AAi?$AA?9?$AAF?$AAI?$AA?$AA@ 00443dcc     LIBCMT:winapinls.obj
 0002:00009dd8       ??_C@_1M@GLIPPMAC@?$AAf?$AAr?$AA?9?$AAF?$AAR?$AA?$AA@ 00443dd8     LIBCMT:winapinls.obj
 0002:00009de4       ??_C@_1M@GFMCHPE@?$AAh?$AAe?$AA?9?$AAI?$AAL?$AA?$AA@ 00443de4     LIBCMT:winapinls.obj
 0002:00009df0       ??_C@_1M@MHLPGNKM@?$AAh?$AAu?$AA?9?$AAH?$AAU?$AA?$AA@ 00443df0     LIBCMT:winapinls.obj
 0002:00009dfc       ??_C@_1M@LPDDNNPN@?$AAi?$AAs?$AA?9?$AAI?$AAS?$AA?$AA@ 00443dfc     LIBCMT:winapinls.obj
 0002:00009e08       ??_C@_1M@MADIPODN@?$AAi?$AAt?$AA?9?$AAI?$AAT?$AA?$AA@ 00443e08     LIBCMT:winapinls.obj
 0002:00009e14       ??_C@_1M@IHBJJGG@?$AAn?$AAl?$AA?9?$AAN?$AAL?$AA?$AA@ 00443e14     LIBCMT:winapinls.obj
 0002:00009e20       ??_C@_1M@EANAGDL@?$AAn?$AAb?$AA?9?$AAN?$AAO?$AA?$AA@ 00443e20     LIBCMT:winapinls.obj
 0002:00009e2c       ??_C@_1M@NEIEMEGP@?$AAp?$AAl?$AA?9?$AAP?$AAL?$AA?$AA@ 00443e2c     LIBCMT:winapinls.obj
 0002:00009e38       ??_C@_1M@BOCFIGEP@?$AAp?$AAt?$AA?9?$AAB?$AAR?$AA?$AA@ 00443e38     LIBCMT:winapinls.obj
 0002:00009e44       ??_C@_1M@IMPFOPBG@?$AAr?$AAo?$AA?9?$AAR?$AAO?$AA?$AA@ 00443e44     LIBCMT:winapinls.obj
 0002:00009e50       ??_C@_1M@IDNNEJMM@?$AAr?$AAu?$AA?9?$AAR?$AAU?$AA?$AA@ 00443e50     LIBCMT:winapinls.obj
 0002:00009e5c       ??_C@_1M@LILEEOGM@?$AAh?$AAr?$AA?9?$AAH?$AAR?$AA?$AA@ 00443e5c     LIBCMT:winapinls.obj
 0002:00009e68       ??_C@_1M@FKIFEHPB@?$AAs?$AAk?$AA?9?$AAS?$AAK?$AA?$AA@ 00443e68     LIBCMT:winapinls.obj
 0002:00009e74       ??_C@_1M@LJMAMNPJ@?$AAs?$AAq?$AA?9?$AAA?$AAL?$AA?$AA@ 00443e74     LIBCMT:winapinls.obj
 0002:00009e80       ??_C@_1M@GIAKDKJK@?$AAs?$AAv?$AA?9?$AAS?$AAE?$AA?$AA@ 00443e80     LIBCMT:winapinls.obj
 0002:00009e8c       ??_C@_1M@MKJKIKCL@?$AAt?$AAh?$AA?9?$AAT?$AAH?$AA?$AA@ 00443e8c     LIBCMT:winapinls.obj
 0002:00009e98       ??_C@_1M@MFLCCMPB@?$AAt?$AAr?$AA?9?$AAT?$AAR?$AA?$AA@ 00443e98     LIBCMT:winapinls.obj
 0002:00009ea4       ??_C@_1M@OIJHDKJN@?$AAu?$AAr?$AA?9?$AAP?$AAK?$AA?$AA@ 00443ea4     LIBCMT:winapinls.obj
 0002:00009eb0       ??_C@_1M@LHIPCIEK@?$AAi?$AAd?$AA?9?$AAI?$AAD?$AA?$AA@ 00443eb0     LIBCMT:winapinls.obj
 0002:00009ebc       ??_C@_1M@MFMOBGI@?$AAu?$AAk?$AA?9?$AAU?$AAA?$AA?$AA@ 00443ebc     LIBCMT:winapinls.obj
 0002:00009ec8       ??_C@_1M@OBGLJIPL@?$AAb?$AAe?$AA?9?$AAB?$AAY?$AA?$AA@ 00443ec8     LIBCMT:winapinls.obj
 0002:00009ed4       ??_C@_1M@BCFAJEAD@?$AAs?$AAl?$AA?9?$AAS?$AAI?$AA?$AA@ 00443ed4     LIBCMT:winapinls.obj
 0002:00009ee0       ??_C@_1M@FKFFEDDN@?$AAe?$AAt?$AA?9?$AAE?$AAE?$AA?$AA@ 00443ee0     LIBCMT:winapinls.obj
 0002:00009eec       ??_C@_1M@KGKKAACI@?$AAl?$AAv?$AA?9?$AAL?$AAV?$AA?$AA@ 00443eec     LIBCMT:winapinls.obj
 0002:00009ef8       ??_C@_1M@IFGBIJO@?$AAl?$AAt?$AA?9?$AAL?$AAT?$AA?$AA@ 00443ef8     LIBCMT:winapinls.obj
 0002:00009f04       ??_C@_1M@FGEAHEDM@?$AAf?$AAa?$AA?9?$AAI?$AAR?$AA?$AA@ 00443f04     LIBCMT:winapinls.obj
 0002:00009f10       ??_C@_1M@KBMAIBFN@?$AAv?$AAi?$AA?9?$AAV?$AAN?$AA?$AA@ 00443f10     LIBCMT:winapinls.obj
 0002:00009f1c       ??_C@_1M@GPCBKDJK@?$AAh?$AAy?$AA?9?$AAA?$AAM?$AA?$AA@ 00443f1c     LIBCMT:winapinls.obj
 0002:00009f28       ??_C@_1BG@BECMDDJB@?$AAa?$AAz?$AA?9?$AAA?$AAZ?$AA?9?$AAL?$AAa?$AAt?$AAn?$AA?$AA@ 00443f28     LIBCMT:winapinls.obj
 0002:00009f40       ??_C@_1M@MAOFCAEA@?$AAe?$AAu?$AA?9?$AAE?$AAS?$AA?$AA@ 00443f40     LIBCMT:winapinls.obj
 0002:00009f4c       ??_C@_1M@IGHABKPI@?$AAm?$AAk?$AA?9?$AAM?$AAK?$AA?$AA@ 00443f4c     LIBCMT:winapinls.obj
 0002:00009f58       ??_C@_1M@IAIGNEJG@?$AAt?$AAn?$AA?9?$AAZ?$AAA?$AA?$AA@ 00443f58     LIBCMT:winapinls.obj
 0002:00009f64       ??_C@_1M@IIJCOJFA@?$AAx?$AAh?$AA?9?$AAZ?$AAA?$AA?$AA@ 00443f64     LIBCMT:winapinls.obj
 0002:00009f70       ??_C@_1M@LGPJHNJH@?$AAz?$AAu?$AA?9?$AAZ?$AAA?$AA?$AA@ 00443f70     LIBCMT:winapinls.obj
 0002:00009f7c       ??_C@_1M@HOKAOIO@?$AAa?$AAf?$AA?9?$AAZ?$AAA?$AA?$AA@ 00443f7c     LIBCMT:winapinls.obj
 0002:00009f88       ??_C@_1M@DPCLHLIE@?$AAk?$AAa?$AA?9?$AAG?$AAE?$AA?$AA@ 00443f88     LIBCMT:winapinls.obj
 0002:00009f94       ??_C@_1M@BLKMHJBI@?$AAf?$AAo?$AA?9?$AAF?$AAO?$AA?$AA@ 00443f94     LIBCMT:winapinls.obj
 0002:00009fa0       ??_C@_1M@LGGJAPPB@?$AAh?$AAi?$AA?9?$AAI?$AAN?$AA?$AA@ 00443fa0     LIBCMT:winapinls.obj
 0002:00009fac       ??_C@_1M@FIKPIHFE@?$AAm?$AAt?$AA?9?$AAM?$AAT?$AA?$AA@ 00443fac     LIBCMT:winapinls.obj
 0002:00009fb8       ??_C@_1M@HEGGPBFA@?$AAs?$AAe?$AA?9?$AAN?$AAO?$AA?$AA@ 00443fb8     LIBCMT:winapinls.obj
 0002:00009fc4       ??_C@_1M@EIBJEEPA@?$AAm?$AAs?$AA?9?$AAM?$AAY?$AA?$AA@ 00443fc4     LIBCMT:winapinls.obj
 0002:00009fd0       ??_C@_1M@FHLBGMPP@?$AAk?$AAk?$AA?9?$AAK?$AAZ?$AA?$AA@ 00443fd0     LIBCMT:winapinls.obj
 0002:00009fdc       ??_C@_1M@NGJJLCGI@?$AAk?$AAy?$AA?9?$AAK?$AAG?$AA?$AA@ 00443fdc     LIBCMT:winapinls.obj
 0002:00009fe8       ??_C@_1M@GIENNBFC@?$AAs?$AAw?$AA?9?$AAK?$AAE?$AA?$AA@ 00443fe8     LIBCMT:winapinls.obj
 0002:00009ff4       ??_C@_1BG@NDGMJIMJ@?$AAu?$AAz?$AA?9?$AAU?$AAZ?$AA?9?$AAL?$AAa?$AAt?$AAn?$AA?$AA@ 00443ff4     LIBCMT:winapinls.obj
 0002:0000a00c       ??_C@_1M@IDCCIHBC@?$AAt?$AAt?$AA?9?$AAR?$AAU?$AA?$AA@ 0044400c     LIBCMT:winapinls.obj
 0002:0000a018       ??_C@_1M@LOICPMOJ@?$AAb?$AAn?$AA?9?$AAI?$AAN?$AA?$AA@ 00444018     LIBCMT:winapinls.obj
 0002:0000a024       ??_C@_1M@KPKKNEAH@?$AAp?$AAa?$AA?9?$AAI?$AAN?$AA?$AA@ 00444024     LIBCMT:winapinls.obj
 0002:0000a030       ??_C@_1M@PJGPPBOG@?$AAg?$AAu?$AA?9?$AAI?$AAN?$AA?$AA@ 00444030     LIBCMT:winapinls.obj
 0002:0000a03c       ??_C@_1M@KMKMOPHI@?$AAt?$AAa?$AA?9?$AAI?$AAN?$AA?$AA@ 0044403c     LIBCMT:winapinls.obj
 0002:0000a048       ??_C@_1M@KFEHEPAC@?$AAt?$AAe?$AA?9?$AAI?$AAN?$AA?$AA@ 00444048     LIBCMT:winapinls.obj
 0002:0000a054       ??_C@_1M@CDCLMGHI@?$AAk?$AAn?$AA?9?$AAI?$AAN?$AA?$AA@ 00444054     LIBCMT:winapinls.obj
 0002:0000a060       ??_C@_1M@MIODLDKF@?$AAm?$AAl?$AA?9?$AAI?$AAN?$AA?$AA@ 00444060     LIBCMT:winapinls.obj
 0002:0000a06c       ??_C@_1M@PBIEACPO@?$AAm?$AAr?$AA?9?$AAI?$AAN?$AA?$AA@ 0044406c     LIBCMT:winapinls.obj
 0002:0000a078       ??_C@_1M@NIDEAGPH@?$AAs?$AAa?$AA?9?$AAI?$AAN?$AA?$AA@ 00444078     LIBCMT:winapinls.obj
 0002:0000a084       ??_C@_1M@FHIHCBIO@?$AAm?$AAn?$AA?9?$AAM?$AAN?$AA?$AA@ 00444084     LIBCMT:winapinls.obj
 0002:0000a090       ??_C@_1M@JAIJPENP@?$AAc?$AAy?$AA?9?$AAG?$AAB?$AA?$AA@ 00444090     LIBCMT:winapinls.obj
 0002:0000a09c       ??_C@_1M@PHGFBEPN@?$AAg?$AAl?$AA?9?$AAE?$AAS?$AA?$AA@ 0044409c     LIBCMT:winapinls.obj
 0002:0000a0a8       ??_C@_1O@KPIPDNCP@?$AAk?$AAo?$AAk?$AA?9?$AAI?$AAN?$AA?$AA@ 004440a8     LIBCMT:winapinls.obj
 0002:0000a0b8       ??_C@_1O@KNHJLDJA@?$AAs?$AAy?$AAr?$AA?9?$AAS?$AAY?$AA?$AA@ 004440b8     LIBCMT:winapinls.obj
 0002:0000a0c8       ??_C@_1O@MKEKBLAH@?$AAd?$AAi?$AAv?$AA?9?$AAM?$AAV?$AA?$AA@ 004440c8     LIBCMT:winapinls.obj
 0002:0000a0d8       ??_C@_1O@OHDCKDDF@?$AAq?$AAu?$AAz?$AA?9?$AAB?$AAO?$AA?$AA@ 004440d8     LIBCMT:winapinls.obj
 0002:0000a0e8       ??_C@_1M@LEPJNLFD@?$AAn?$AAs?$AA?9?$AAZ?$AAA?$AA?$AA@ 004440e8     LIBCMT:winapinls.obj
 0002:0000a0f4       ??_C@_1M@OMLEIIJB@?$AAm?$AAi?$AA?9?$AAN?$AAZ?$AA?$AA@ 004440f4     LIBCMT:winapinls.obj
 0002:0000a100       ??_C@_1M@PMPEAILG@?$AAa?$AAr?$AA?9?$AAI?$AAQ?$AA?$AA@ 00444100     LIBCMT:winapinls.obj
 0002:0000a10c       ??_C@_1M@CNKPNOEE@?$AAd?$AAe?$AA?9?$AAC?$AAH?$AA?$AA@ 0044410c     LIBCMT:winapinls.obj
 0002:0000a118       ??_C@_1M@LKMGMLKO@?$AAe?$AAn?$AA?9?$AAG?$AAB?$AA?$AA@ 00444118     LIBCMT:winapinls.obj
 0002:0000a124       ??_C@_1M@PGKJFFGL@?$AAe?$AAs?$AA?9?$AAM?$AAX?$AA?$AA@ 00444124     LIBCMT:winapinls.obj
 0002:0000a130       ??_C@_1M@DNNANBDC@?$AAf?$AAr?$AA?9?$AAB?$AAE?$AA?$AA@ 00444130     LIBCMT:winapinls.obj
 0002:0000a13c       ??_C@_1M@HLGMDFHM@?$AAi?$AAt?$AA?9?$AAC?$AAH?$AA?$AA@ 0044413c     LIBCMT:winapinls.obj
 0002:0000a148       ??_C@_1M@CLLBGJH@?$AAn?$AAl?$AA?9?$AAB?$AAE?$AA?$AA@ 00444148     LIBCMT:winapinls.obj
 0002:0000a154       ??_C@_1M@BODBOGLF@?$AAn?$AAn?$AA?9?$AAN?$AAO?$AA?$AA@ 00444154     LIBCMT:winapinls.obj
 0002:0000a160       ??_C@_1M@HFFAHKAD@?$AAp?$AAt?$AA?9?$AAP?$AAT?$AA?$AA@ 00444160     LIBCMT:winapinls.obj
 0002:0000a16c       ??_C@_1BG@LNOAKHIE@?$AAs?$AAr?$AA?9?$AAS?$AAP?$AA?9?$AAL?$AAa?$AAt?$AAn?$AA?$AA@ 0044416c     LIBCMT:winapinls.obj
 0002:0000a184       ??_C@_1M@HBMHBGAK@?$AAs?$AAv?$AA?9?$AAF?$AAI?$AA?$AA@ 00444184     LIBCMT:winapinls.obj
 0002:0000a190       ??_C@_1BG@DGCJGJBE@?$AAa?$AAz?$AA?9?$AAA?$AAZ?$AA?9?$AAC?$AAy?$AAr?$AAl?$AA?$AA@ 00444190     LIBCMT:winapinls.obj
 0002:0000a1a8       ??_C@_1M@KEJDAAHB@?$AAs?$AAe?$AA?9?$AAS?$AAE?$AA?$AA@ 004441a8     LIBCMT:winapinls.obj
 0002:0000a1b4       ??_C@_1M@HEIBJJAD@?$AAm?$AAs?$AA?9?$AAB?$AAN?$AA?$AA@ 004441b4     LIBCMT:winapinls.obj
 0002:0000a1c0       ??_C@_1BG@PBGJMCEM@?$AAu?$AAz?$AA?9?$AAU?$AAZ?$AA?9?$AAC?$AAy?$AAr?$AAl?$AA?$AA@ 004441c0     LIBCMT:winapinls.obj
 0002:0000a1d8       ??_C@_1O@LAOBCMDF@?$AAq?$AAu?$AAz?$AA?9?$AAE?$AAC?$AA?$AA@ 004441d8     LIBCMT:winapinls.obj
 0002:0000a1e8       ??_C@_1M@POEEMAIO@?$AAa?$AAr?$AA?9?$AAE?$AAG?$AA?$AA@ 004441e8     LIBCMT:winapinls.obj
 0002:0000a1f4       ??_C@_1M@EFAKDEDL@?$AAz?$AAh?$AA?9?$AAH?$AAK?$AA?$AA@ 004441f4     LIBCMT:winapinls.obj
 0002:0000a200       ??_C@_1M@HKKIJHGI@?$AAd?$AAe?$AA?9?$AAA?$AAT?$AA?$AA@ 00444200     LIBCMT:winapinls.obj
 0002:0000a20c       ??_C@_1M@KBFBEHJF@?$AAe?$AAn?$AA?9?$AAA?$AAU?$AA?$AA@ 0044420c     LIBCMT:winapinls.obj
 0002:0000a218       ??_C@_1M@MNPLFAAH@?$AAe?$AAs?$AA?9?$AAE?$AAS?$AA?$AA@ 00444218     LIBCMT:winapinls.obj
 0002:0000a224       ??_C@_1M@HJOOJFMA@?$AAf?$AAr?$AA?9?$AAC?$AAA?$AA?$AA@ 00444224     LIBCMT:winapinls.obj
 0002:0000a230       ??_C@_1BG@JPOFPNAB@?$AAs?$AAr?$AA?9?$AAS?$AAP?$AA?9?$AAC?$AAy?$AAr?$AAl?$AA?$AA@ 00444230     LIBCMT:winapinls.obj
 0002:0000a248       ??_C@_1M@LNFOCMOB@?$AAs?$AAe?$AA?9?$AAF?$AAI?$AA?$AA@ 00444248     LIBCMT:winapinls.obj
 0002:0000a254       ??_C@_1O@MGJBOAMB@?$AAq?$AAu?$AAz?$AA?9?$AAP?$AAE?$AA?$AA@ 00444254     LIBCMT:winapinls.obj
 0002:0000a264       ??_C@_1M@GJINLBOK@?$AAa?$AAr?$AA?9?$AAL?$AAY?$AA?$AA@ 00444264     LIBCMT:winapinls.obj
 0002:0000a270       ??_C@_1M@GGMNHJNL@?$AAz?$AAh?$AA?9?$AAS?$AAG?$AA?$AA@ 00444270     LIBCMT:winapinls.obj
 0002:0000a27c       ??_C@_1M@HOIKODND@?$AAd?$AAe?$AA?9?$AAL?$AAU?$AA?$AA@ 0044427c     LIBCMT:winapinls.obj
 0002:0000a288       ??_C@_1M@DDOCCGFG@?$AAe?$AAn?$AA?9?$AAC?$AAA?$AA?$AA@ 00444288     LIBCMT:winapinls.obj
 0002:0000a294       ??_C@_1M@BNOEMJLF@?$AAe?$AAs?$AA?9?$AAG?$AAT?$AA?$AA@ 00444294     LIBCMT:winapinls.obj
 0002:0000a2a0       ??_C@_1M@EOGNKEK@?$AAf?$AAr?$AA?9?$AAC?$AAH?$AA?$AA@ 004442a0     LIBCMT:winapinls.obj
 0002:0000a2ac       ??_C@_1M@FLIDJFHL@?$AAh?$AAr?$AA?9?$AAB?$AAA?$AA?$AA@ 004442ac     LIBCMT:winapinls.obj
 0002:0000a2b8       ??_C@_1O@FMCELNAJ@?$AAs?$AAm?$AAj?$AA?9?$AAN?$AAO?$AA?$AA@ 004442b8     LIBCMT:winapinls.obj
 0002:0000a2c8       ??_C@_1M@JHGLJMGJ@?$AAa?$AAr?$AA?9?$AAD?$AAZ?$AA?$AA@ 004442c8     LIBCMT:winapinls.obj
 0002:0000a2d4       ??_C@_1M@JKKFDCNP@?$AAz?$AAh?$AA?9?$AAM?$AAO?$AA?$AA@ 004442d4     LIBCMT:winapinls.obj
 0002:0000a2e0       ??_C@_1M@GEEFALPE@?$AAd?$AAe?$AA?9?$AAL?$AAI?$AA?$AA@ 004442e0     LIBCMT:winapinls.obj
 0002:0000a2ec       ??_C@_1M@IGEOFBG@?$AAe?$AAn?$AA?9?$AAN?$AAZ?$AA?$AA@ 004442ec     LIBCMT:winapinls.obj
 0002:0000a2f8       ??_C@_1M@KDBONEHP@?$AAe?$AAs?$AA?9?$AAC?$AAR?$AA?$AA@ 004442f8     LIBCMT:winapinls.obj
 0002:0000a304       ??_C@_1M@FHMDOHNN@?$AAf?$AAr?$AA?9?$AAL?$AAU?$AA?$AA@ 00444304     LIBCMT:winapinls.obj
 0002:0000a310       ??_C@_1BG@NFKKMAFG@?$AAb?$AAs?$AA?9?$AAB?$AAA?$AA?9?$AAL?$AAa?$AAt?$AAn?$AA?$AA@ 00444310     LIBCMT:winapinls.obj
 0002:0000a328       ??_C@_1O@IMNBEMCI@?$AAs?$AAm?$AAj?$AA?9?$AAS?$AAE?$AA?$AA@ 00444328     LIBCMT:winapinls.obj
 0002:0000a338       ??_C@_1M@DHHMBNDP@?$AAa?$AAr?$AA?9?$AAM?$AAA?$AA?$AA@ 00444338     LIBCMT:winapinls.obj
 0002:0000a344       ??_C@_1M@BNBLJCGH@?$AAe?$AAn?$AA?9?$AAI?$AAE?$AA?$AA@ 00444344     LIBCMT:winapinls.obj
 0002:0000a350       ??_C@_1M@GEPAFMDL@?$AAe?$AAs?$AA?9?$AAP?$AAA?$AA?$AA@ 00444350     LIBCMT:winapinls.obj
 0002:0000a35c       ??_C@_1M@OJONDMDL@?$AAf?$AAr?$AA?9?$AAM?$AAC?$AA?$AA@ 0044435c     LIBCMT:winapinls.obj
 0002:0000a368       ??_C@_1BG@OBCNFJB@?$AAs?$AAr?$AA?9?$AAB?$AAA?$AA?9?$AAL?$AAa?$AAt?$AAn?$AA?$AA@ 00444368     LIBCMT:winapinls.obj
 0002:0000a380       ??_C@_1O@KEMEEGPO@?$AAs?$AAm?$AAa?$AA?9?$AAN?$AAO?$AA?$AA@ 00444380     LIBCMT:winapinls.obj
 0002:0000a390       ??_C@_1M@ELMGFODK@?$AAa?$AAr?$AA?9?$AAT?$AAN?$AA?$AA@ 00444390     LIBCMT:winapinls.obj
 0002:0000a39c       ??_C@_1M@BHDLHFAF@?$AAe?$AAn?$AA?9?$AAZ?$AAA?$AA?$AA@ 0044439c     LIBCMT:winapinls.obj
 0002:0000a3a8       ??_C@_1M@BMGIGLIF@?$AAe?$AAs?$AA?9?$AAD?$AAO?$AA?$AA@ 004443a8     LIBCMT:winapinls.obj
 0002:0000a3b4       ??_C@_1BG@CMBHIPBE@?$AAs?$AAr?$AA?9?$AAB?$AAA?$AA?9?$AAC?$AAy?$AAr?$AAl?$AA?$AA@ 004443b4     LIBCMT:winapinls.obj
 0002:0000a3cc       ??_C@_1O@HEDBLHNP@?$AAs?$AAm?$AAa?$AA?9?$AAS?$AAE?$AA?$AA@ 004443cc     LIBCMT:winapinls.obj
 0002:0000a3dc       ??_C@_1M@DAGCADIM@?$AAa?$AAr?$AA?9?$AAO?$AAM?$AA?$AA@ 004443dc     LIBCMT:winapinls.obj
 0002:0000a3e8       ??_C@_1M@FODLMICG@?$AAe?$AAn?$AA?9?$AAJ?$AAM?$AA?$AA@ 004443e8     LIBCMT:winapinls.obj
 0002:0000a3f4       ??_C@_1M@DNMLCIHB@?$AAe?$AAs?$AA?9?$AAV?$AAE?$AA?$AA@ 004443f4     LIBCMT:winapinls.obj
 0002:0000a400       ??_C@_1O@EOKHMKJK@?$AAs?$AAm?$AAs?$AA?9?$AAF?$AAI?$AA?$AA@ 00444400     LIBCMT:winapinls.obj
 0002:0000a410       ??_C@_1M@CAFJMKOF@?$AAa?$AAr?$AA?9?$AAY?$AAE?$AA?$AA@ 00444410     LIBCMT:winapinls.obj
 0002:0000a41c       ??_C@_1M@CBFHIJLI@?$AAe?$AAn?$AA?9?$AAC?$AAB?$AA?$AA@ 0044441c     LIBCMT:winapinls.obj
 0002:0000a428       ??_C@_1M@BGNFLDN@?$AAe?$AAs?$AA?9?$AAC?$AAO?$AA?$AA@ 00444428     LIBCMT:winapinls.obj
 0002:0000a434       ??_C@_1O@JMPHMAMC@?$AAs?$AAm?$AAn?$AA?9?$AAF?$AAI?$AA?$AA@ 00444434     LIBCMT:winapinls.obj
 0002:0000a444       ??_C@_1M@JLANABKE@?$AAa?$AAr?$AA?9?$AAS?$AAY?$AA?$AA@ 00444444     LIBCMT:winapinls.obj
 0002:0000a450       ??_C@_1M@HPKGCFGN@?$AAe?$AAn?$AA?9?$AAB?$AAZ?$AA?$AA@ 00444450     LIBCMT:winapinls.obj
 0002:0000a45c       ??_C@_1M@OLJCMLGM@?$AAe?$AAs?$AA?9?$AAP?$AAE?$AA?$AA@ 0044445c     LIBCMT:winapinls.obj
 0002:0000a468       ??_C@_1M@MKKGFKLE@?$AAa?$AAr?$AA?9?$AAJ?$AAO?$AA?$AA@ 00444468     LIBCMT:winapinls.obj
 0002:0000a474       ??_C@_1M@EKPGLDNI@?$AAe?$AAn?$AA?9?$AAT?$AAT?$AA?$AA@ 00444474     LIBCMT:winapinls.obj
 0002:0000a480       ??_C@_1M@OONGHFHE@?$AAe?$AAs?$AA?9?$AAA?$AAR?$AA?$AA@ 00444480     LIBCMT:winapinls.obj
 0002:0000a48c       ??_C@_1M@OOJFGBHE@?$AAa?$AAr?$AA?9?$AAL?$AAB?$AA?$AA@ 0044448c     LIBCMT:winapinls.obj
 0002:0000a498       ??_C@_1M@GCEJHNEG@?$AAe?$AAn?$AA?9?$AAZ?$AAW?$AA?$AA@ 00444498     LIBCMT:winapinls.obj
 0002:0000a4a4       ??_C@_1M@JNOCAHJI@?$AAe?$AAs?$AA?9?$AAE?$AAC?$AA?$AA@ 004444a4     LIBCMT:winapinls.obj
 0002:0000a4b0       ??_C@_1M@JEFHPGGB@?$AAa?$AAr?$AA?9?$AAK?$AAW?$AA?$AA@ 004444b0     LIBCMT:winapinls.obj
 0002:0000a4bc       ??_C@_1M@MLKIBJOJ@?$AAe?$AAn?$AA?9?$AAP?$AAH?$AA?$AA@ 004444bc     LIBCMT:winapinls.obj
 0002:0000a4c8       ??_C@_1M@BDNIPEND@?$AAe?$AAs?$AA?9?$AAC?$AAL?$AA?$AA@ 004444c8     LIBCMT:winapinls.obj
 0002:0000a4d4       ??_C@_1M@MPNMEKBD@?$AAa?$AAr?$AA?9?$AAA?$AAE?$AA?$AA@ 004444d4     LIBCMT:winapinls.obj
 0002:0000a4e0       ??_C@_1M@KBJALCPI@?$AAe?$AAs?$AA?9?$AAU?$AAY?$AA?$AA@ 004444e0     LIBCMT:winapinls.obj
 0002:0000a4ec       ??_C@_1M@LLCCOAGA@?$AAa?$AAr?$AA?9?$AAB?$AAH?$AA?$AA@ 004444ec     LIBCMT:winapinls.obj
 0002:0000a4f8       ??_C@_1M@PBFNCDEL@?$AAe?$AAs?$AA?9?$AAP?$AAY?$AA?$AA@ 004444f8     LIBCMT:winapinls.obj
 0002:0000a504       ??_C@_1M@EDGINPNP@?$AAa?$AAr?$AA?9?$AAQ?$AAA?$AA?$AA@ 00444504     LIBCMT:winapinls.obj
 0002:0000a510       ??_C@_1M@MKDBIIJI@?$AAe?$AAs?$AA?9?$AAB?$AAO?$AA?$AA@ 00444510     LIBCMT:winapinls.obj
 0002:0000a51c       ??_C@_1M@CPKKEBLD@?$AAe?$AAs?$AA?9?$AAS?$AAV?$AA?$AA@ 0044451c     LIBCMT:winapinls.obj
 0002:0000a528       ??_C@_1M@NDBGMMJL@?$AAe?$AAs?$AA?9?$AAH?$AAN?$AA?$AA@ 00444528     LIBCMT:winapinls.obj
 0002:0000a534       ??_C@_1M@JIJIBHDP@?$AAe?$AAs?$AA?9?$AAN?$AAI?$AA?$AA@ 00444534     LIBCMT:winapinls.obj
 0002:0000a540       ??_C@_1M@CGFMKEEK@?$AAe?$AAs?$AA?9?$AAP?$AAR?$AA?$AA@ 00444540     LIBCMT:winapinls.obj
 0002:0000a54c       ??_C@_1O@ICJHKIIK@?$AAz?$AAh?$AA?9?$AAC?$AAH?$AAT?$AA?$AA@ 0044454c     LIBCMT:winapinls.obj
 0002:0000a55c       ??_C@_15CLNEJCE@?$AAs?$AAr?$AA?$AA@ 0044455c     LIBCMT:winapinls.obj
 0002:0000a564       ??_C@_1M@KAHEKEIG@?$AAa?$AAf?$AA?9?$AAz?$AAa?$AA?$AA@ 00444564     LIBCMT:winapinls.obj
 0002:0000a570       ??_C@_1M@GIECOABL@?$AAa?$AAr?$AA?9?$AAa?$AAe?$AA?$AA@ 00444570     LIBCMT:winapinls.obj
 0002:0000a57c       ??_C@_1M@BMLMEKGI@?$AAa?$AAr?$AA?9?$AAb?$AAh?$AA?$AA@ 0044457c     LIBCMT:winapinls.obj
 0002:0000a588       ??_C@_1M@DAPFDGGB@?$AAa?$AAr?$AA?9?$AAd?$AAz?$AA?$AA@ 00444588     LIBCMT:winapinls.obj
 0002:0000a594       ??_C@_1M@FJNKGKIG@?$AAa?$AAr?$AA?9?$AAe?$AAg?$AA?$AA@ 00444594     LIBCMT:winapinls.obj
 0002:0000a5a0       ??_C@_1M@FLGKKCLO@?$AAa?$AAr?$AA?9?$AAi?$AAq?$AA?$AA@ 004445a0     LIBCMT:winapinls.obj
 0002:0000a5ac       ??_C@_1M@GNDIPALM@?$AAa?$AAr?$AA?9?$AAj?$AAo?$AA?$AA@ 004445ac     LIBCMT:winapinls.obj
 0002:0000a5b8       ??_C@_1M@DDMJFMGJ@?$AAa?$AAr?$AA?9?$AAk?$AAw?$AA?$AA@ 004445b8     LIBCMT:winapinls.obj
 0002:0000a5c4       ??_C@_1M@EJALMLHM@?$AAa?$AAr?$AA?9?$AAl?$AAb?$AA?$AA@ 004445c4     LIBCMT:winapinls.obj
 0002:0000a5d0       ??_C@_1M@MOBDBLOC@?$AAa?$AAr?$AA?9?$AAl?$AAy?$AA?$AA@ 004445d0     LIBCMT:winapinls.obj
 0002:0000a5dc       ??_C@_1M@JAOCLHDH@?$AAa?$AAr?$AA?9?$AAm?$AAa?$AA?$AA@ 004445dc     LIBCMT:winapinls.obj
 0002:0000a5e8       ??_C@_1M@JHPMKJIE@?$AAa?$AAr?$AA?9?$AAo?$AAm?$AA?$AA@ 004445e8     LIBCMT:winapinls.obj
 0002:0000a5f4       ??_C@_1M@OEPGHFNH@?$AAa?$AAr?$AA?9?$AAq?$AAa?$AA?$AA@ 004445f4     LIBCMT:winapinls.obj
 0002:0000a600       ??_C@_1M@KJDONENM@?$AAa?$AAr?$AA?9?$AAs?$AAa?$AA?$AA@ 00444600     LIBCMT:winapinls.obj
 0002:0000a60c       ??_C@_1M@DMJDKLKM@?$AAa?$AAr?$AA?9?$AAs?$AAy?$AA?$AA@ 0044460c     LIBCMT:winapinls.obj
 0002:0000a618       ??_C@_1M@OMFIPEDC@?$AAa?$AAr?$AA?9?$AAt?$AAn?$AA?$AA@ 00444618     LIBCMT:winapinls.obj
 0002:0000a624       ??_C@_1M@IHMHGAON@?$AAa?$AAr?$AA?9?$AAy?$AAe?$AA?$AA@ 00444624     LIBCMT:winapinls.obj
 0002:0000a630       ??_C@_1BG@KDCPGJGB@?$AAa?$AAz?$AA?9?$AAa?$AAz?$AA?9?$AAc?$AAy?$AAr?$AAl?$AA?$AA@ 00444630     LIBCMT:winapinls.obj
 0002:0000a648       ??_C@_1BG@IBCKDDOE@?$AAa?$AAz?$AA?9?$AAa?$AAz?$AA?9?$AAl?$AAa?$AAt?$AAn?$AA?$AA@ 00444648     LIBCMT:winapinls.obj
 0002:0000a660       ??_C@_1M@EGPFDCPD@?$AAb?$AAe?$AA?9?$AAb?$AAy?$AA?$AA@ 00444660     LIBCMT:winapinls.obj
 0002:0000a66c       ??_C@_1M@PCMGMCGC@?$AAb?$AAg?$AA?9?$AAb?$AAg?$AA?$AA@ 0044466c     LIBCMT:winapinls.obj
 0002:0000a678       ??_C@_1M@BJBMFGOB@?$AAb?$AAn?$AA?9?$AAi?$AAn?$AA?$AA@ 00444678     LIBCMT:winapinls.obj
 0002:0000a684       ??_C@_1BG@EAKMMACD@?$AAb?$AAs?$AA?9?$AAb?$AAa?$AA?9?$AAl?$AAa?$AAt?$AAn?$AA?$AA@ 00444684     LIBCMT:winapinls.obj
 0002:0000a69c       ??_C@_1M@KGADAODK@?$AAc?$AAa?$AA?9?$AAe?$AAs?$AA?$AA@ 0044469c     LIBCMT:winapinls.obj
 0002:0000a6a8       ??_C@_1M@COAJPDHI@?$AAc?$AAs?$AA?9?$AAc?$AAz?$AA?$AA@ 004446a8     LIBCMT:winapinls.obj
 0002:0000a6b4       ??_C@_1M@DHBHFONH@?$AAc?$AAy?$AA?9?$AAg?$AAb?$AA?$AA@ 004446b4     LIBCMT:winapinls.obj
 0002:0000a6c0       ??_C@_1M@IMGKELGA@?$AAd?$AAa?$AA?9?$AAd?$AAk?$AA?$AA@ 004446c0     LIBCMT:winapinls.obj
 0002:0000a6cc       ??_C@_1M@NNDGDNGA@?$AAd?$AAe?$AA?9?$AAa?$AAt?$AA?$AA@ 004446cc     LIBCMT:winapinls.obj
 0002:0000a6d8       ??_C@_1M@IKDBHEEM@?$AAd?$AAe?$AA?9?$AAc?$AAh?$AA?$AA@ 004446d8     LIBCMT:winapinls.obj
 0002:0000a6e4       ??_C@_1M@GFFOJMCJ@?$AAd?$AAe?$AA?9?$AAd?$AAe?$AA?$AA@ 004446e4     LIBCMT:winapinls.obj
 0002:0000a6f0       ??_C@_1M@MDNLKBPM@?$AAd?$AAe?$AA?9?$AAl?$AAi?$AA?$AA@ 004446f0     LIBCMT:winapinls.obj
 0002:0000a6fc       ??_C@_1M@NJBEEJNL@?$AAd?$AAe?$AA?9?$AAl?$AAu?$AA?$AA@ 004446fc     LIBCMT:winapinls.obj
 0002:0000a708       ??_C@_1O@GNNELBAP@?$AAd?$AAi?$AAv?$AA?9?$AAm?$AAv?$AA?$AA@ 00444708     LIBCMT:winapinls.obj
 0002:0000a718       ??_C@_1M@EJLEOGAE@?$AAe?$AAl?$AA?9?$AAg?$AAr?$AA?$AA@ 00444718     LIBCMT:winapinls.obj
 0002:0000a724       ??_C@_1M@GMPONJN@?$AAe?$AAn?$AA?9?$AAa?$AAu?$AA?$AA@ 00444724     LIBCMT:winapinls.obj
 0002:0000a730       ??_C@_1M@NIDIIPGF@?$AAe?$AAn?$AA?9?$AAb?$AAz?$AA?$AA@ 00444730     LIBCMT:winapinls.obj
 0002:0000a73c       ??_C@_1M@JEHMIMFO@?$AAe?$AAn?$AA?9?$AAc?$AAa?$AA?$AA@ 0044473c     LIBCMT:winapinls.obj
 0002:0000a748       ??_C@_1M@IGMJCDLA@?$AAe?$AAn?$AA?9?$AAc?$AAb?$AA?$AA@ 00444748     LIBCMT:winapinls.obj
 0002:0000a754       ??_C@_1M@BNFIGBKG@?$AAe?$AAn?$AA?9?$AAg?$AAb?$AA?$AA@ 00444754     LIBCMT:winapinls.obj
 0002:0000a760       ??_C@_1M@LKIFDIGP@?$AAe?$AAn?$AA?9?$AAi?$AAe?$AA?$AA@ 00444760     LIBCMT:winapinls.obj
 0002:0000a76c       ??_C@_1M@PJKFGCCO@?$AAe?$AAn?$AA?9?$AAj?$AAm?$AA?$AA@ 0044476c     LIBCMT:winapinls.obj
 0002:0000a778       ??_C@_1M@KPPKEPBO@?$AAe?$AAn?$AA?9?$AAn?$AAz?$AA?$AA@ 00444778     LIBCMT:winapinls.obj
 0002:0000a784       ??_C@_1M@GMDGLDOB@?$AAe?$AAn?$AA?9?$AAp?$AAh?$AA?$AA@ 00444784     LIBCMT:winapinls.obj
 0002:0000a790       ??_C@_1M@ONGIBJNA@?$AAe?$AAn?$AA?9?$AAt?$AAt?$AA?$AA@ 00444790     LIBCMT:winapinls.obj
 0002:0000a79c       ??_C@_1M@LLODPCMM@?$AAe?$AAn?$AA?9?$AAu?$AAs?$AA?$AA@ 0044479c     LIBCMT:winapinls.obj
 0002:0000a7a8       ??_C@_1M@LAKFNPAN@?$AAe?$AAn?$AA?9?$AAz?$AAa?$AA?$AA@ 004447a8     LIBCMT:winapinls.obj
 0002:0000a7b4       ??_C@_1M@MFNHNHEO@?$AAe?$AAn?$AA?9?$AAz?$AAw?$AA?$AA@ 004447b4     LIBCMT:winapinls.obj
 0002:0000a7c0       ??_C@_1M@EJEINPHM@?$AAe?$AAs?$AA?9?$AAa?$AAr?$AA?$AA@ 004447c0     LIBCMT:winapinls.obj
 0002:0000a7cc       ??_C@_1M@GNKPCCJA@?$AAe?$AAs?$AA?9?$AAb?$AAo?$AA?$AA@ 004447cc     LIBCMT:winapinls.obj
 0002:0000a7d8       ??_C@_1M@LEEGFONL@?$AAe?$AAs?$AA?9?$AAc?$AAl?$AA?$AA@ 004447d8     LIBCMT:winapinls.obj
 0002:0000a7e4       ??_C@_1M@KGPDPBDF@?$AAe?$AAs?$AA?9?$AAc?$AAo?$AA?$AA@ 004447e4     LIBCMT:winapinls.obj
 0002:0000a7f0       ??_C@_1M@EIAHOHH@?$AAe?$AAs?$AA?9?$AAc?$AAr?$AA?$AA@ 004447f0     LIBCMT:winapinls.obj
 0002:0000a7fc       ??_C@_1M@LLPGMBIN@?$AAe?$AAs?$AA?9?$AAd?$AAo?$AA?$AA@ 004447fc     LIBCMT:winapinls.obj
 0002:0000a808       ??_C@_1M@DKHMKNJA@?$AAe?$AAs?$AA?9?$AAe?$AAc?$AA?$AA@ 00444808     LIBCMT:winapinls.obj
 0002:0000a814       ??_C@_1M@GKGFPKAP@?$AAe?$AAs?$AA?9?$AAe?$AAs?$AA?$AA@ 00444814     LIBCMT:winapinls.obj
 0002:0000a820       ??_C@_1M@LKHKGDLN@?$AAe?$AAs?$AA?9?$AAg?$AAt?$AA?$AA@ 00444820     LIBCMT:winapinls.obj
 0002:0000a82c       ??_C@_1M@HEIIGGJD@?$AAe?$AAs?$AA?9?$AAh?$AAn?$AA?$AA@ 0044482c     LIBCMT:winapinls.obj
 0002:0000a838       ??_C@_1M@FBDHPPGD@?$AAe?$AAs?$AA?9?$AAm?$AAx?$AA?$AA@ 00444838     LIBCMT:winapinls.obj
 0002:0000a844       ??_C@_1M@DPAGLNDH@?$AAe?$AAs?$AA?9?$AAn?$AAi?$AA?$AA@ 00444844     LIBCMT:winapinls.obj
 0002:0000a850       ??_C@_1M@MDGOPGDD@?$AAe?$AAs?$AA?9?$AAp?$AAa?$AA?$AA@ 00444850     LIBCMT:winapinls.obj
 0002:0000a85c       ??_C@_1M@EMAMGBGE@?$AAe?$AAs?$AA?9?$AAp?$AAe?$AA?$AA@ 0044485c     LIBCMT:winapinls.obj
 0002:0000a868       ??_C@_1M@IBMCAOEC@?$AAe?$AAs?$AA?9?$AAp?$AAr?$AA?$AA@ 00444868     LIBCMT:winapinls.obj
 0002:0000a874       ??_C@_1M@FGMDIJED@?$AAe?$AAs?$AA?9?$AAp?$AAy?$AA?$AA@ 00444874     LIBCMT:winapinls.obj
 0002:0000a880       ??_C@_1M@IIDEOLLL@?$AAe?$AAs?$AA?9?$AAs?$AAv?$AA?$AA@ 00444880     LIBCMT:winapinls.obj
 0002:0000a88c       ??_C@_1M@GAOBIPA@?$AAe?$AAs?$AA?9?$AAu?$AAy?$AA?$AA@ 0044488c     LIBCMT:winapinls.obj
 0002:0000a898       ??_C@_1M@JKFFICHJ@?$AAe?$AAs?$AA?9?$AAv?$AAe?$AA?$AA@ 00444898     LIBCMT:winapinls.obj
 0002:0000a8a4       ??_C@_1M@PNMLOJDF@?$AAe?$AAt?$AA?9?$AAe?$AAe?$AA?$AA@ 004448a4     LIBCMT:winapinls.obj
 0002:0000a8b0       ??_C@_1M@GHHLIKEI@?$AAe?$AAu?$AA?9?$AAe?$AAs?$AA?$AA@ 004448b0     LIBCMT:winapinls.obj
 0002:0000a8bc       ??_C@_1M@PBNONODE@?$AAf?$AAa?$AA?9?$AAi?$AAr?$AA?$AA@ 004448bc     LIBCMT:winapinls.obj
 0002:0000a8c8       ??_C@_1M@JEEHPMIL@?$AAf?$AAi?$AA?9?$AAf?$AAi?$AA?$AA@ 004448c8     LIBCMT:winapinls.obj
 0002:0000a8d4       ??_C@_1M@LMDCNDBA@?$AAf?$AAo?$AA?9?$AAf?$AAo?$AA?$AA@ 004448d4     LIBCMT:winapinls.obj
 0002:0000a8e0       ??_C@_1M@JKEOHLDK@?$AAf?$AAr?$AA?9?$AAb?$AAe?$AA?$AA@ 004448e0     LIBCMT:winapinls.obj
 0002:0000a8ec       ??_C@_1M@NOHADPMI@?$AAf?$AAr?$AA?9?$AAc?$AAa?$AA?$AA@ 004448ec     LIBCMT:winapinls.obj
 0002:0000a8f8       ??_C@_1M@KDHIHAEC@?$AAf?$AAr?$AA?9?$AAc?$AAh?$AA?$AA@ 004448f8     LIBCMT:winapinls.obj
 0002:0000a904       ??_C@_1M@MMBBFGAK@?$AAf?$AAr?$AA?9?$AAf?$AAr?$AA?$AA@ 00444904     LIBCMT:winapinls.obj
 0002:0000a910       ??_C@_1M@PAFNENNF@?$AAf?$AAr?$AA?9?$AAl?$AAu?$AA?$AA@ 00444910     LIBCMT:winapinls.obj
 0002:0000a91c       ??_C@_1M@EOHDJGDD@?$AAf?$AAr?$AA?9?$AAm?$AAc?$AA?$AA@ 0044491c     LIBCMT:winapinls.obj
 0002:0000a928       ??_C@_1M@FAPLLOPF@?$AAg?$AAl?$AA?9?$AAe?$AAs?$AA?$AA@ 00444928     LIBCMT:winapinls.obj
 0002:0000a934       ??_C@_1M@FOPBFLOO@?$AAg?$AAu?$AA?9?$AAi?$AAn?$AA?$AA@ 00444934     LIBCMT:winapinls.obj
 0002:0000a940       ??_C@_1M@KBMCINPM@?$AAh?$AAe?$AA?9?$AAi?$AAl?$AA?$AA@ 00444940     LIBCMT:winapinls.obj
 0002:0000a94c       ??_C@_1M@BBPHKFPJ@?$AAh?$AAi?$AA?9?$AAi?$AAn?$AA?$AA@ 0044494c     LIBCMT:winapinls.obj
 0002:0000a958       ??_C@_1M@PMBNDPHD@?$AAh?$AAr?$AA?9?$AAb?$AAa?$AA?$AA@ 00444958     LIBCMT:winapinls.obj
 0002:0000a964       ??_C@_1M@BPCKOEGE@?$AAh?$AAr?$AA?9?$AAh?$AAr?$AA?$AA@ 00444964     LIBCMT:winapinls.obj
 0002:0000a970       ??_C@_1M@GACBMHKE@?$AAh?$AAu?$AA?9?$AAh?$AAu?$AA?$AA@ 00444970     LIBCMT:winapinls.obj
 0002:0000a97c       ??_C@_1M@MILPAJJC@?$AAh?$AAy?$AA?9?$AAa?$AAm?$AA?$AA@ 0044497c     LIBCMT:winapinls.obj
 0002:0000a988       ??_C@_1M@BABBICEC@?$AAi?$AAd?$AA?9?$AAi?$AAd?$AA?$AA@ 00444988     LIBCMT:winapinls.obj
 0002:0000a994       ??_C@_1M@BIKNHHPF@?$AAi?$AAs?$AA?9?$AAi?$AAs?$AA?$AA@ 00444994     LIBCMT:winapinls.obj
 0002:0000a9a0       ??_C@_1M@NMPCJPHE@?$AAi?$AAt?$AA?9?$AAc?$AAh?$AA?$AA@ 004449a0     LIBCMT:winapinls.obj
 0002:0000a9ac       ??_C@_1M@GHKGFEDF@?$AAi?$AAt?$AA?9?$AAi?$AAt?$AA?$AA@ 004449ac     LIBCMT:winapinls.obj
 0002:0000a9b8       ??_C@_1M@NIEJCJJA@?$AAj?$AAa?$AA?9?$AAj?$AAp?$AA?$AA@ 004449b8     LIBCMT:winapinls.obj
 0002:0000a9c4       ??_C@_1M@JILFNBIM@?$AAk?$AAa?$AA?9?$AAg?$AAe?$AA?$AA@ 004449c4     LIBCMT:winapinls.obj
 0002:0000a9d0       ??_C@_1M@PACPMGPH@?$AAk?$AAk?$AA?9?$AAk?$AAz?$AA?$AA@ 004449d0     LIBCMT:winapinls.obj
 0002:0000a9dc       ??_C@_1M@IELFGMHA@?$AAk?$AAn?$AA?9?$AAi?$AAn?$AA?$AA@ 004449dc     LIBCMT:winapinls.obj
 0002:0000a9e8       ??_C@_1O@IBBJHCH@?$AAk?$AAo?$AAk?$AA?9?$AAi?$AAn?$AA?$AA@ 004449e8     LIBCMT:winapinls.obj
 0002:0000a9f8       ??_C@_1M@DMHAEOGC@?$AAk?$AAo?$AA?9?$AAk?$AAr?$AA?$AA@ 004449f8     LIBCMT:winapinls.obj
 0002:0000aa04       ??_C@_1M@HBAHBIGA@?$AAk?$AAy?$AA?9?$AAk?$AAg?$AA?$AA@ 00444a04     LIBCMT:winapinls.obj
 0002:0000aa10       ??_C@_1M@KPMILCJG@?$AAl?$AAt?$AA?9?$AAl?$AAt?$AA?$AA@ 00444a10     LIBCMT:winapinls.obj
 0002:0000aa1c       ??_C@_1M@BDEKKCA@?$AAl?$AAv?$AA?9?$AAl?$AAv?$AA?$AA@ 00444a1c     LIBCMT:winapinls.obj
 0002:0000aa28       ??_C@_1M@ELCKCCJJ@?$AAm?$AAi?$AA?9?$AAn?$AAz?$AA?$AA@ 00444a28     LIBCMT:winapinls.obj
 0002:0000aa34       ??_C@_1M@CBOOLAPA@?$AAm?$AAk?$AA?9?$AAm?$AAk?$AA?$AA@ 00444a34     LIBCMT:winapinls.obj
 0002:0000aa40       ??_C@_1M@GPHNBJKN@?$AAm?$AAl?$AA?9?$AAi?$AAn?$AA?$AA@ 00444a40     LIBCMT:winapinls.obj
 0002:0000aa4c       ??_C@_1M@PABJILIG@?$AAm?$AAn?$AA?9?$AAm?$AAn?$AA?$AA@ 00444a4c     LIBCMT:winapinls.obj
 0002:0000aa58       ??_C@_1M@FGBKKIPG@?$AAm?$AAr?$AA?9?$AAi?$AAn?$AA?$AA@ 00444a58     LIBCMT:winapinls.obj
 0002:0000aa64       ??_C@_1M@NDBPDDAL@?$AAm?$AAs?$AA?9?$AAb?$AAn?$AA?$AA@ 00444a64     LIBCMT:winapinls.obj
 0002:0000aa70       ??_C@_1M@OPIHOOPI@?$AAm?$AAs?$AA?9?$AAm?$AAy?$AA?$AA@ 00444a70     LIBCMT:winapinls.obj
 0002:0000aa7c       ??_C@_1M@PPDBCNFM@?$AAm?$AAt?$AA?9?$AAm?$AAt?$AA?$AA@ 00444a7c     LIBCMT:winapinls.obj
 0002:0000aa88       ??_C@_1M@KDJDKMDD@?$AAn?$AAb?$AA?9?$AAn?$AAo?$AA?$AA@ 00444a88     LIBCMT:winapinls.obj
 0002:0000aa94       ??_C@_1M@KFCFLMJP@?$AAn?$AAl?$AA?9?$AAb?$AAe?$AA?$AA@ 00444a94     LIBCMT:winapinls.obj
 0002:0000aaa0       ??_C@_1M@KPOPDDGO@?$AAn?$AAl?$AA?9?$AAn?$AAl?$AA?$AA@ 00444aa0     LIBCMT:winapinls.obj
 0002:0000aaac       ??_C@_1M@LJKPEMLN@?$AAn?$AAn?$AA?9?$AAn?$AAo?$AA?$AA@ 00444aac     LIBCMT:winapinls.obj
 0002:0000aab8       ??_C@_1M@BDGHHBFL@?$AAn?$AAs?$AA?9?$AAz?$AAa?$AA?$AA@ 00444ab8     LIBCMT:winapinls.obj
 0002:0000aac4       ??_C@_1M@IDEHOAP@?$AAp?$AAa?$AA?9?$AAi?$AAn?$AA?$AA@ 00444ac4     LIBCMT:winapinls.obj
 0002:0000aad0       ??_C@_1M@HDBKGOGH@?$AAp?$AAl?$AA?9?$AAp?$AAl?$AA?$AA@ 00444ad0     LIBCMT:winapinls.obj
 0002:0000aadc       ??_C@_1M@LJLLCMEH@?$AAp?$AAt?$AA?9?$AAb?$AAr?$AA?$AA@ 00444adc     LIBCMT:winapinls.obj
 0002:0000aae8       ??_C@_1M@NCMONAAL@?$AAp?$AAt?$AA?9?$AAp?$AAt?$AA?$AA@ 00444ae8     LIBCMT:winapinls.obj
 0002:0000aaf4       ??_C@_1O@EAKMAJDN@?$AAq?$AAu?$AAz?$AA?9?$AAb?$AAo?$AA?$AA@ 00444af4     LIBCMT:winapinls.obj
 0002:0000ab04       ??_C@_1O@BHHPIGDN@?$AAq?$AAu?$AAz?$AA?9?$AAe?$AAc?$AA?$AA@ 00444b04     LIBCMT:winapinls.obj
 0002:0000ab14       ??_C@_1O@GBAPEKMJ@?$AAq?$AAu?$AAz?$AA?9?$AAp?$AAe?$AA?$AA@ 00444b14     LIBCMT:winapinls.obj
 0002:0000ab24       ??_C@_1M@CLGLEFBO@?$AAr?$AAo?$AA?9?$AAr?$AAo?$AA?$AA@ 00444b24     LIBCMT:winapinls.obj
 0002:0000ab30       ??_C@_1M@CEEDODME@?$AAr?$AAu?$AA?9?$AAr?$AAu?$AA?$AA@ 00444b30     LIBCMT:winapinls.obj
 0002:0000ab3c       ??_C@_1M@HPKKKMPP@?$AAs?$AAa?$AA?9?$AAi?$AAn?$AA?$AA@ 00444b3c     LIBCMT:winapinls.obj
 0002:0000ab48       ??_C@_1M@BKMAIGOJ@?$AAs?$AAe?$AA?9?$AAf?$AAi?$AA?$AA@ 00444b48     LIBCMT:winapinls.obj
 0002:0000ab54       ??_C@_1M@NDPIFLFI@?$AAs?$AAe?$AA?9?$AAn?$AAo?$AA?$AA@ 00444b54     LIBCMT:winapinls.obj
 0002:0000ab60       ??_C@_1M@DANKKHJ@?$AAs?$AAe?$AA?9?$AAs?$AAe?$AA?$AA@ 00444b60     LIBCMT:winapinls.obj
 0002:0000ab6c       ??_C@_1M@PNBLONPJ@?$AAs?$AAk?$AA?9?$AAs?$AAk?$AA?$AA@ 00444b6c     LIBCMT:winapinls.obj
 0002:0000ab78       ??_C@_1M@LFMODOAL@?$AAs?$AAl?$AA?9?$AAs?$AAi?$AA?$AA@ 00444b78     LIBCMT:winapinls.obj
 0002:0000ab84       ??_C@_1O@DFKOMPG@?$AAs?$AAm?$AAa?$AA?9?$AAn?$AAo?$AA?$AA@ 00444b84     LIBCMT:winapinls.obj
 0002:0000ab94       ??_C@_1O@NDKPBNNH@?$AAs?$AAm?$AAa?$AA?9?$AAs?$AAe?$AA?$AA@ 00444b94     LIBCMT:winapinls.obj
 0002:0000aba4       ??_C@_1O@PLLKBHAB@?$AAs?$AAm?$AAj?$AA?9?$AAn?$AAo?$AA?$AA@ 00444ba4     LIBCMT:winapinls.obj
 0002:0000abb4       ??_C@_1O@CLEPOGCA@?$AAs?$AAm?$AAj?$AA?9?$AAs?$AAe?$AA?$AA@ 00444bb4     LIBCMT:winapinls.obj
 0002:0000abc4       ??_C@_1O@DLGJGKMK@?$AAs?$AAm?$AAn?$AA?9?$AAf?$AAi?$AA?$AA@ 00444bc4     LIBCMT:winapinls.obj
 0002:0000abd4       ??_C@_1O@OJDJGAJC@?$AAs?$AAm?$AAs?$AA?9?$AAf?$AAi?$AA?$AA@ 00444bd4     LIBCMT:winapinls.obj
 0002:0000abe4       ??_C@_1M@BOFOGHPB@?$AAs?$AAq?$AA?9?$AAa?$AAl?$AA?$AA@ 00444be4     LIBCMT:winapinls.obj
 0002:0000abf0       ??_C@_1BG@LJBBIPGB@?$AAs?$AAr?$AA?9?$AAb?$AAa?$AA?9?$AAc?$AAy?$AAr?$AAl?$AA?$AA@ 00444bf0     LIBCMT:winapinls.obj
 0002:0000ac08       ??_C@_1BG@JLBENFOE@?$AAs?$AAr?$AA?9?$AAb?$AAa?$AA?9?$AAl?$AAa?$AAt?$AAn?$AA?$AA@ 00444c08     LIBCMT:winapinls.obj
 0002:0000ac20       ??_C@_1BG@KODPNHE@?$AAs?$AAr?$AA?9?$AAs?$AAp?$AA?9?$AAc?$AAy?$AAr?$AAl?$AA?$AA@ 00444c20     LIBCMT:winapinls.obj
 0002:0000ac38       ??_C@_1BG@CIOGKHPB@?$AAs?$AAr?$AA?9?$AAs?$AAp?$AA?9?$AAl?$AAa?$AAt?$AAn?$AA?$AA@ 00444c38     LIBCMT:winapinls.obj
 0002:0000ac50       ??_C@_1M@NGFJLMAC@?$AAs?$AAv?$AA?9?$AAf?$AAi?$AA?$AA@ 00444c50     LIBCMT:winapinls.obj
 0002:0000ac5c       ??_C@_1M@MPJEJAJC@?$AAs?$AAv?$AA?9?$AAs?$AAe?$AA?$AA@ 00444c5c     LIBCMT:winapinls.obj
 0002:0000ac68       ??_C@_1M@MPNDHLFK@?$AAs?$AAw?$AA?9?$AAk?$AAe?$AA?$AA@ 00444c68     LIBCMT:winapinls.obj
 0002:0000ac74       ??_C@_1O@KOHBJJI@?$AAs?$AAy?$AAr?$AA?9?$AAs?$AAy?$AA?$AA@ 00444c74     LIBCMT:winapinls.obj
 0002:0000ac84       ??_C@_1M@LDCEFHA@?$AAt?$AAa?$AA?9?$AAi?$AAn?$AA?$AA@ 00444c84     LIBCMT:winapinls.obj
 0002:0000ac90       ??_C@_1M@CNJOFAK@?$AAt?$AAe?$AA?9?$AAi?$AAn?$AA?$AA@ 00444c90     LIBCMT:winapinls.obj
 0002:0000ac9c       ??_C@_1M@GNAECACD@?$AAt?$AAh?$AA?9?$AAt?$AAh?$AA?$AA@ 00444c9c     LIBCMT:winapinls.obj
 0002:0000aca8       ??_C@_1M@CHBIHOJO@?$AAt?$AAn?$AA?9?$AAz?$AAa?$AA?$AA@ 00444ca8     LIBCMT:winapinls.obj
 0002:0000acb4       ??_C@_1M@GCCMIGPJ@?$AAt?$AAr?$AA?9?$AAt?$AAr?$AA?$AA@ 00444cb4     LIBCMT:winapinls.obj
 0002:0000acc0       ??_C@_1M@CELMCNBK@?$AAt?$AAt?$AA?9?$AAr?$AAu?$AA?$AA@ 00444cc0     LIBCMT:winapinls.obj
 0002:0000accc       ??_C@_1M@KLMCELGA@?$AAu?$AAk?$AA?9?$AAu?$AAa?$AA?$AA@ 00444ccc     LIBCMT:winapinls.obj
 0002:0000acd8       ??_C@_1M@EPAJJAJF@?$AAu?$AAr?$AA?9?$AAp?$AAk?$AA?$AA@ 00444cd8     LIBCMT:winapinls.obj
 0002:0000ace4       ??_C@_1BG@GEGPMCDJ@?$AAu?$AAz?$AA?9?$AAu?$AAz?$AA?9?$AAc?$AAy?$AAr?$AAl?$AA?$AA@ 00444ce4     LIBCMT:winapinls.obj
 0002:0000acfc       ??_C@_1BG@EGGKJILM@?$AAu?$AAz?$AA?9?$AAu?$AAz?$AA?9?$AAl?$AAa?$AAt?$AAn?$AA?$AA@ 00444cfc     LIBCMT:winapinls.obj
 0002:0000ad14       ??_C@_1M@GFOCLFF@?$AAv?$AAi?$AA?9?$AAv?$AAn?$AA?$AA@ 00444d14     LIBCMT:winapinls.obj
 0002:0000ad20       ??_C@_1M@CPAMEDFI@?$AAx?$AAh?$AA?9?$AAz?$AAa?$AA?$AA@ 00444d20     LIBCMT:winapinls.obj
 0002:0000ad2c       ??_C@_1O@EBKIFIGN@?$AAz?$AAh?$AA?9?$AAc?$AAh?$AAs?$AA?$AA@ 00444d2c     LIBCMT:winapinls.obj
 0002:0000ad3c       ??_C@_1O@NMHPGANE@?$AAz?$AAh?$AA?9?$AAc?$AAh?$AAt?$AA?$AA@ 00444d3c     LIBCMT:winapinls.obj
 0002:0000ad4c       ??_C@_1M@LPINJOMC@?$AAz?$AAh?$AA?9?$AAc?$AAn?$AA?$AA@ 00444d4c     LIBCMT:winapinls.obj
 0002:0000ad58       ??_C@_1M@OCJEJODD@?$AAz?$AAh?$AA?9?$AAh?$AAk?$AA?$AA@ 00444d58     LIBCMT:winapinls.obj
 0002:0000ad64       ??_C@_1M@DNDLJINH@?$AAz?$AAh?$AA?9?$AAm?$AAo?$AA?$AA@ 00444d64     LIBCMT:winapinls.obj
 0002:0000ad70       ??_C@_1M@MBFDNDND@?$AAz?$AAh?$AA?9?$AAs?$AAg?$AA?$AA@ 00444d70     LIBCMT:winapinls.obj
 0002:0000ad7c       ??_C@_1M@IMEPLEPE@?$AAz?$AAh?$AA?9?$AAt?$AAw?$AA?$AA@ 00444d7c     LIBCMT:winapinls.obj
 0002:0000ad88       ??_C@_1M@BBGHNHJP@?$AAz?$AAu?$AA?9?$AAz?$AAa?$AA?$AA@ 00444d88     LIBCMT:winapinls.obj
 0002:0000ad94       ??_C@_06PGGFOGJG@1?$CDSNAN?$AA@ 00444d94     LIBCMT:x10fout.obj
 0002:0000ad9c       ??_C@_05PHHOCPM@1?$CDIND?$AA@ 00444d9c     LIBCMT:x10fout.obj
 0002:0000ada4       ??_C@_05DNEBIAHO@1?$CDINF?$AA@ 00444da4     LIBCMT:x10fout.obj
 0002:0000adac       ??_C@_06IMKFLFPG@1?$CDQNAN?$AA@ 00444dac     LIBCMT:x10fout.obj
 0002:0000adb4       ??_C@_1BA@BALFACEM@?$AAC?$AAO?$AAN?$AAO?$AAU?$AAT?$AA$?$AA?$AA@ 00444db4     LIBCMT:initcon.obj
 0002:0000adc8       __load_config_used         00444dc8     LIBCMT:loadcfg.obj
 0002:0000ae10       ??_R4WINDOW_CLASS@@6B@     00444e10     editpart.obj
 0002:0000ae24       ??_R3WINDOW_CLASS@@8       00444e24     editpart.obj
 0002:0000ae34       ??_R2WINDOW_CLASS@@8       00444e34     editpart.obj
 0002:0000ae3c       ??_R1A@?0A@EA@WINDOW_CLASS@@8 00444e3c     editpart.obj
 0002:0000ae58       ??_R4FTII_VAR@@6B@         00444e58     editpart.obj
 0002:0000ae6c       ??_R3FTII_VAR@@8           00444e6c     editpart.obj
 0002:0000ae7c       ??_R2FTII_VAR@@8           00444e7c     editpart.obj
 0002:0000ae84       ??_R1A@?0A@EA@FTII_VAR@@8  00444e84     editpart.obj
 0002:0000aea0       ??_R4FTII_VAR_ARRAY@@6B@   00444ea0     editpart.obj
 0002:0000aeb4       ??_R3FTII_VAR_ARRAY@@8     00444eb4     editpart.obj
 0002:0000aec4       ??_R2FTII_VAR_ARRAY@@8     00444ec4     editpart.obj
 0002:0000aed0       ??_R1A@?0A@EA@FTII_VAR_ARRAY@@8 00444ed0     editpart.obj
 0002:0000aeec       ??_R4DOUBLE_ARRAY_CLASS@@6B@ 00444eec     calc.obj
 0002:0000af00       ??_R3DOUBLE_ARRAY_CLASS@@8 00444f00     calc.obj
 0002:0000af10       ??_R2DOUBLE_ARRAY_CLASS@@8 00444f10     calc.obj
 0002:0000af18       ??_R1A@?0A@EA@DOUBLE_ARRAY_CLASS@@8 00444f18     calc.obj
 0002:0000af34       ??_R4INT32_ARRAY_CLASS@@6B@ 00444f34     calc.obj
 0002:0000af48       ??_R3INT32_ARRAY_CLASS@@8  00444f48     calc.obj
 0002:0000af58       ??_R2INT32_ARRAY_CLASS@@8  00444f58     calc.obj
 0002:0000af60       ??_R1A@?0A@EA@INT32_ARRAY_CLASS@@8 00444f60     calc.obj
 0002:0000af7c       ??_R4CHOOSE_WIRE_CLASS@@6B@ 00444f7c     v5subs:choose_wire.obj
 0002:0000af90       ??_R3CHOOSE_WIRE_CLASS@@8  00444f90     v5subs:choose_wire.obj
 0002:0000afa0       ??_R2CHOOSE_WIRE_CLASS@@8  00444fa0     v5subs:choose_wire.obj
 0002:0000afac       ??_R1A@?0A@EA@CHOOSE_WIRE_CLASS@@8 00444fac     v5subs:choose_wire.obj
 0002:0000afc8       ??_R1A@?0A@EA@exception@std@@8 00444fc8     LIBCMT:new.obj
 0002:0000afe4       ??_R3exception@std@@8      00444fe4     LIBCMT:new.obj
 0002:0000aff4       ??_R2exception@std@@8      00444ff4     LIBCMT:new.obj
 0002:0000affc       ??_R4bad_alloc@std@@6B@    00444ffc     LIBCMT:new.obj
 0002:0000b010       ??_R3bad_alloc@std@@8      00445010     LIBCMT:new.obj
 0002:0000b020       ??_R2bad_alloc@std@@8      00445020     LIBCMT:new.obj
 0002:0000b02c       ??_R1A@?0A@EA@bad_alloc@std@@8 0044502c     LIBCMT:new.obj
 0002:0000b048       ??_R4type_info@@6B@        00445048     LIBCMT:typinfo.obj
 0002:0000b05c       ??_R3type_info@@8          0044505c     LIBCMT:typinfo.obj
 0002:0000b06c       ??_R2type_info@@8          0044506c     LIBCMT:typinfo.obj
 0002:0000b074       ??_R1A@?0A@EA@type_info@@8 00445074     LIBCMT:typinfo.obj
 0002:0000b090       ??_R4exception@std@@6B@    00445090     LIBCMT:stdexcpt.obj
 0002:0000b0b0       ___safe_se_handler_table   004450b0     <linker-defined>
 0002:0000b0bc       ___rtc_iaa                 004450bc     LIBCMT:initsect.obj
 0002:0000b0c0       ___rtc_izz                 004450c0     LIBCMT:initsect.obj
 0002:0000b0c4       ___rtc_taa                 004450c4     LIBCMT:initsect.obj
 0002:0000b0c8       ___rtc_tzz                 004450c8     LIBCMT:initsect.obj
 0002:0000b0d0       __TI2?AVbad_alloc@std@@    004450d0     LIBCMT:new.obj
 0002:0000b0e0       __CTA2?AVbad_alloc@std@@   004450e0     LIBCMT:new.obj
 0002:0000b0ec       __CT??_R0?AVbad_alloc@std@@@8??0bad_alloc@std@@QAE@ABV01@@Z12 004450ec     LIBCMT:new.obj
 0002:0000b108       __CT??_R0?AVexception@std@@@8??0exception@std@@QAE@ABV01@@Z12 00445108     LIBCMT:new.obj
 0002:0000b41c       __IMPORT_DESCRIPTOR_KERNEL32 0044541c     kernel32:KERNEL32.dll
 0002:0000b430       __IMPORT_DESCRIPTOR_USER32 00445430     user32:USER32.dll
 0002:0000b444       __IMPORT_DESCRIPTOR_GDI32  00445444     gdi32:GDI32.dll
 0002:0000b458       __IMPORT_DESCRIPTOR_WINSPOOL 00445458     winspool:WINSPOOL.DRV
 0002:0000b46c       __IMPORT_DESCRIPTOR_COMCTL32 0044546c     comctl32:COMCTL32.dll
 0002:0000b480       __IMPORT_DESCRIPTOR_SHELL32 00445480     shell32:SHELL32.dll
 0002:0000b494       __NULL_IMPORT_DESCRIPTOR   00445494     kernel32:KERNEL32.dll
 0003:00000000       ?AChar@@3_WA               00447000     editpart.obj
 0003:00000002       ?ShowSetupSheet@@3EA       00447002     editpart.obj
 0003:00000004       ?BChar@@3_WA               00447004     editpart.obj
 0003:00000008       ?CChar@@3_WA               00447008     editpart.obj
 0003:0000000c       ?DChar@@3_WA               0044700c     editpart.obj
 0003:00000010       ?EChar@@3_WA               00447010     editpart.obj
 0003:00000014       ?FChar@@3_WA               00447014     editpart.obj
 0003:00000018       ?GChar@@3_WA               00447018     editpart.obj
 0003:0000001c       ?HChar@@3_WA               0044701c     editpart.obj
 0003:00000020       ?IChar@@3_WA               00447020     editpart.obj
 0003:00000024       ?JChar@@3_WA               00447024     editpart.obj
 0003:00000028       ?KChar@@3_WA               00447028     editpart.obj
 0003:0000002c       ?LChar@@3_WA               0044702c     editpart.obj
 0003:00000030       ?MChar@@3_WA               00447030     editpart.obj
 0003:00000034       ?NChar@@3_WA               00447034     editpart.obj
 0003:00000038       ?OChar@@3_WA               00447038     editpart.obj
 0003:0000003c       ?PChar@@3_WA               0044703c     editpart.obj
 0003:00000040       ?QChar@@3_WA               00447040     editpart.obj
 0003:00000044       ?RChar@@3_WA               00447044     editpart.obj
 0003:00000048       ?SChar@@3_WA               00447048     editpart.obj
 0003:0000004c       ?TChar@@3_WA               0044704c     editpart.obj
 0003:00000050       ?UChar@@3_WA               00447050     editpart.obj
 0003:00000054       ?VChar@@3_WA               00447054     editpart.obj
 0003:00000058       ?WChar@@3_WA               00447058     editpart.obj
 0003:0000005c       ?XChar@@3_WA               0044705c     editpart.obj
 0003:00000060       ?YChar@@3_WA               00447060     editpart.obj
 0003:00000064       ?ZChar@@3_WA               00447064     editpart.obj
 0003:00000068       ?ACharLow@@3_WA            00447068     editpart.obj
 0003:0000006c       ?BCharLow@@3_WA            0044706c     editpart.obj
 0003:00000070       ?CCharLow@@3_WA            00447070     editpart.obj
 0003:00000074       ?DCharLow@@3_WA            00447074     editpart.obj
 0003:00000078       ?ECharLow@@3_WA            00447078     editpart.obj
 0003:0000007c       ?FCharLow@@3_WA            0044707c     editpart.obj
 0003:00000080       ?GCharLow@@3_WA            00447080     editpart.obj
 0003:00000084       ?HCharLow@@3_WA            00447084     editpart.obj
 0003:00000088       ?ICharLow@@3_WA            00447088     editpart.obj
 0003:0000008c       ?JCharLow@@3_WA            0044708c     editpart.obj
 0003:00000090       ?KCharLow@@3_WA            00447090     editpart.obj
 0003:00000094       ?LCharLow@@3_WA            00447094     editpart.obj
 0003:00000098       ?MCharLow@@3_WA            00447098     editpart.obj
 0003:0000009c       ?NCharLow@@3_WA            0044709c     editpart.obj
 0003:000000a0       ?OCharLow@@3_WA            004470a0     editpart.obj
 0003:000000a4       ?PCharLow@@3_WA            004470a4     editpart.obj
 0003:000000a8       ?QCharLow@@3_WA            004470a8     editpart.obj
 0003:000000ac       ?RCharLow@@3_WA            004470ac     editpart.obj
 0003:000000b0       ?SCharLow@@3_WA            004470b0     editpart.obj
 0003:000000b4       ?TCharLow@@3_WA            004470b4     editpart.obj
 0003:000000b8       ?UCharLow@@3_WA            004470b8     editpart.obj
 0003:000000bc       ?VCharLow@@3_WA            004470bc     editpart.obj
 0003:000000c0       ?WCharLow@@3_WA            004470c0     editpart.obj
 0003:000000c4       ?XCharLow@@3_WA            004470c4     editpart.obj
 0003:000000c8       ?YCharLow@@3_WA            004470c8     editpart.obj
 0003:000000cc       ?ZCharLow@@3_WA            004470cc     editpart.obj
 0003:000000d0       ?AsterixChar@@3_WA         004470d0     editpart.obj
 0003:000000d4       ?BackSlashChar@@3_WA       004470d4     editpart.obj
 0003:000000d8       ?CaretChar@@3_WA           004470d8     editpart.obj
 0003:000000dc       ?CloseParen@@3_WA          004470dc     editpart.obj
 0003:000000e0       ?ColonChar@@3_WA           004470e0     editpart.obj
 0003:000000e4       ?CommaChar@@3_WA           004470e4     editpart.obj
 0003:000000e8       ?CrChar@@3_WA              004470e8     editpart.obj
 0003:000000ec       ?DoubleQuoteChar@@3_WA     004470ec     editpart.obj
 0003:000000f0       ?EqualsChar@@3_WA          004470f0     editpart.obj
 0003:000000f4       ?EtxChar@@3_WA             004470f4     editpart.obj
 0003:000000f8       ?ForwardSlashChar@@3_WA    004470f8     editpart.obj
 0003:000000fc       ?LeftBracketChar@@3_WA     004470fc     editpart.obj
 0003:00000100       ?LeftCurlyBracket@@3_WA    00447100     editpart.obj
 0003:00000104       ?LeftParen@@3_WA           00447104     editpart.obj
 0003:00000108       ?LfChar@@3_WA              00447108     editpart.obj
 0003:0000010c       ?MinusChar@@3_WA           0044710c     editpart.obj
 0003:00000110       ?OpenParen@@3_WA           00447110     editpart.obj
 0003:00000114       ?PercentChar@@3_WA         00447114     editpart.obj
 0003:00000118       ?PeriodChar@@3_WA          00447118     editpart.obj
 0003:0000011c       ?PlusChar@@3_WA            0044711c     editpart.obj
 0003:00000120       ?PoundChar@@3_WA           00447120     editpart.obj
 0003:00000124       ?QuoteChar@@3_WA           00447124     editpart.obj
 0003:00000128       ?RightBracketChar@@3_WA    00447128     editpart.obj
 0003:0000012c       ?RightCurlyBracket@@3_WA   0044712c     editpart.obj
 0003:00000130       ?RightParen@@3_WA          00447130     editpart.obj
 0003:00000134       ?SemiColonChar@@3_WA       00447134     editpart.obj
 0003:00000138       ?SpaceChar@@3_WA           00447138     editpart.obj
 0003:0000013c       ?TabChar@@3_WA             0044713c     editpart.obj
 0003:00000140       ?TildaChar@@3_WA           00447140     editpart.obj
 0003:00000144       ?UnderScoreChar@@3_WA      00447144     editpart.obj
 0003:00000148       ?ZeroChar@@3_WA            00447148     editpart.obj
 0003:0000014c       ?OneChar@@3_WA             0044714c     editpart.obj
 0003:00000150       ?TwoChar@@3_WA             00447150     editpart.obj
 0003:00000154       ?ThreeChar@@3_WA           00447154     editpart.obj
 0003:00000158       ?FourChar@@3_WA            00447158     editpart.obj
 0003:0000015c       ?FiveChar@@3_WA            0044715c     editpart.obj
 0003:00000160       ?SixChar@@3_WA             00447160     editpart.obj
 0003:00000164       ?SevenChar@@3_WA           00447164     editpart.obj
 0003:00000168       ?StxChar@@3_WA             00447168     editpart.obj
 0003:0000016c       ?EightChar@@3_WA           0044716c     editpart.obj
 0003:00000170       ?NineChar@@3_WA            00447170     editpart.obj
 0003:00000174       ?AsterixString@@3PA_WA     00447174     editpart.obj
 0003:00000178       ?CommaString@@3PA_WA       00447178     editpart.obj
 0003:0000017c       ?CrLfString@@3PA_WA        0044717c     editpart.obj
 0003:00000184       ?SpaceString@@3PA_WA       00447184     editpart.obj
 0003:00000188       ?StarDotStar@@3PA_WA       00447188     editpart.obj
 0003:00000190       ?ZeroPointZero@@3PA_WA     00447190     editpart.obj
 0003:00000198       ?NofItems@@3HA             00447198     editpart.obj
 0003:0000019c       ?AccelName@@3PA_WA         0044719c     editpart.obj
 0003:000001c0       ?ItemList@@3PAUITEM_ENTRY@@A 004471c0     editpart.obj
 0003:0000062c       ?ChooseWireResourceFile@@3PA_WA 0044762c     editpart.obj
 0003:00000644       ?CommonResourceFile@@3PA_WA 00447644     editpart.obj
 0003:00000654       ?EditPartResourceFile@@3PA_WA 00447654     editpart.obj
 0003:00000668       ?Ft2ClassName@@3PA_WA      00447668     editpart.obj
 0003:0000067c       ?MyClassName@@3PA_WA       0044767c     editpart.obj
 0003:00000690       ?SureTrakPlotWindowClassName@@3PA_WA 00447690     editpart.obj
 0003:000006b8       ?DisplayIniFile@@3PA_WA    004476b8     editpart.obj
 0003:000006d0       ?EditPartCommandLineFile@@3PA_WA 004476d0     editpart.obj
 0003:00000704       ?EditPartIniFile@@3PA_WA   00447704     editpart.obj
 0003:00000720       ?EmachineIniFile@@3PA_WA   00447720     editpart.obj
 0003:0000073c       ?SureTrakIniFile@@3PA_WA   0044773c     editpart.obj
 0003:00000758       ?VisiTrakIniFile@@3PA_WA   00447758     editpart.obj
 0003:00000774       ?ConfigSection@@3PA_WA     00447774     editpart.obj
 0003:00000784       ?MultipartSetupSection@@3PA_WA 00447784     editpart.obj
 0003:00000798       ?ChangeExternalShotNameLevelKey@@3PA_WA 00447798     editpart.obj
 0003:000007d0       ?ChangeShotNameLevelKey@@3PA_WA 004477d0     editpart.obj
 0003:000007f8       ?ChangeShotResetLevelKey@@3PA_WA 004477f8     editpart.obj
 0003:00000824       ?CurrentLanguageKey@@3PA_WA 00447824     editpart.obj
 0003:00000844       ?CurrentTabKey@@3PA_WA     00447844     editpart.obj
 0003:0000085c       ?HavePressureControlKey@@3PA_WA 0044785c     editpart.obj
 0003:00000884       ?HaveSureTrakKey@@3PA_WA   00447884     editpart.obj
 0003:000008a0       ?IsoPageOneKey@@3PA_WA     004478a0     editpart.obj
 0003:000008b8       ?IsoPageTwoKey@@3PA_WA     004478b8     editpart.obj
 0003:000008d0       ?LastMachineKey@@3PA_WA    004478d0     editpart.obj
 0003:000008e8       ?LastPartKey@@3PA_WA       004478e8     editpart.obj
 0003:000008fc       ?LoadCurrentPartWhenRunKey@@3PA_WA 004478fc     editpart.obj
 0003:0000092c       ?MonitorLogFileKey@@3PA_WA 0044792c     editpart.obj
 0003:0000094c       ?MonitorLogFormatKey@@3PA_WA 0044794c     editpart.obj
 0003:00000970       ?ParameterTabEditLevelKey@@3PA_WA 00447970     editpart.obj
 0003:0000099c       ?PfsvDefSmoothNKey@@3PA_WA 0044799c     editpart.obj
 0003:000009bc       ?PfsvDefSmoothMultiplierKey@@3PA_WA 004479bc     editpart.obj
 0003:000009ec       ?PrintParametersKey@@3PA_WA 004479ec     editpart.obj
 0003:00000a0c       ?SaveAllPartsLevelKey@@3PA_WA 00447a0c     editpart.obj
 0003:00000a30       ?SaveChangesLevelKey@@3PA_WA 00447a30     editpart.obj
 0003:00000a54       ?ShowSetupSheetKey@@3PA_WA 00447a54     editpart.obj
 0003:00000a74       ?SetupSheetLevelKey@@3PA_WA 00447a74     editpart.obj
 0003:00000a94       ?EditMaOnOtherCoKey@@3PA_WA 00447a94     editpart.obj
 0003:00000ac0       ?EditOtherComputerKey@@3PA_WA 00447ac0     editpart.obj
 0003:00000af0       ?EditOtherCurrentPartKey@@3PA_WA 00447af0     editpart.obj
 0003:00000b24       ?EditOtherSuretrakKey@@3PA_WA 00447b24     editpart.obj
 0003:00000b54       ?EditOtherCurrentSuretrakKey@@3PA_WA 00447b54     editpart.obj
 0003:00000b90       ?EditPressureSetupLevelKey@@3PA_WA 00447b90     editpart.obj
 0003:00000bc0       ?EditPressureProfileLevelKey@@3PA_WA 00447bc0     editpart.obj
 0003:00000bf4       ?HideSureTrakLimitSwitchWiresKey@@3PA_WA 00447bf4     editpart.obj
 0003:00000c30       ?VelocityChangesLevelKey@@3PA_WA 00447c30     editpart.obj
 0003:00000c5c       ?WorkstationChangeDisableKey@@3PA_WA 00447c5c     editpart.obj
 0003:00000c80       ?ChangeExternalShotNameLevel@@3FA 00447c80     editpart.obj
 0003:00000c84       ?ChangeShotNameLevel@@3FA  00447c84     editpart.obj
 0003:00000c88       ?ChangeShotResetLevel@@3FA 00447c88     editpart.obj
 0003:00000c8c       ?CurrentPasswordLevel@@3FA 00447c8c     editpart.obj
 0003:00000c90       ?DefaultPasswordLevel@@3FA 00447c90     editpart.obj
 0003:00000c94       ?EditMaOnOtherCoLevel@@3FA 00447c94     editpart.obj
 0003:00000c98       ?EditOtherComputerLevel@@3FA 00447c98     editpart.obj
 0003:00000c9c       ?EditOtherCurrentPartLevel@@3FA 00447c9c     editpart.obj
 0003:00000ca0       ?EditOtherSuretrakLevel@@3FA 00447ca0     editpart.obj
 0003:00000ca4       ?EditOtherCurrentSuretrakLevel@@3FA 00447ca4     editpart.obj
 0003:00000ca8       ?EditPressureSetupLevel@@3FA 00447ca8     editpart.obj
 0003:00000cac       ?EditPressureProfileLevel@@3FA 00447cac     editpart.obj
 0003:00000cb0       ?SaveChangesLevel@@3FA     00447cb0     editpart.obj
 0003:00000d3c       ?Nof_Editable_Channels@@3HA 00447d3c     editpart.obj
 0003:00000d40       ?IsEnabledKey@@3PA_WA      00447d40     editpart.obj
 0003:00000d54       ?ScreenNameKey@@3PA_WA     00447d54     editpart.obj
 0003:00000d6c       ?EditableIdsKey@@3PA_WA    00447d6c     editpart.obj
 0003:00000d84       ?PositionOnLastChanged@@3PA_WA 00447d84     editpart.obj
 0003:00000db0       ?ExitWhenDoneKey@@3PA_WA   00447db0     editpart.obj
 0003:00000dcc       ?PasswordLevelKey@@3PA_WA  00447dcc     editpart.obj
 0003:00000de8       ?LastIdKey@@3PA_WA         00447de8     editpart.obj
 0003:00000df8       ?CurrentPartOnlyKey@@3PA_WA 00447df8     editpart.obj
 0003:00001e5c       ?Vartypes@@3VVARTYPE_CLASS@@A 00448e5c     edparam.obj
 0003:00002348       ?FileTimeoutError@@3PA_WA  00449348     v5subs:dbsubs.obj
 0003:0000236c       ?FileNotFoundError@@3PA_WA 0044936c     v5subs:dbsubs.obj
 0003:0000238c       ?PathNotFoundError@@3PA_WA 0044938c     v5subs:dbsubs.obj
 0003:00002a18       ?ChooseWireCtrl@@3VCHOOSE_WIRE_CLASS@@A 00449a18     v5subs:choose_wire.obj
 0003:00002c28       ?PATTERN_INDEX@@3PB_WB     00449c28     v5subs:shot_name.obj
 0003:00002c2c       ?FIELD_LENGTH_INDEX@@3PB_WB 00449c2c     v5subs:shot_name.obj
 0003:000030f0       ?ResultsString@@3PA_WA     0044a0f0     v5subs:partlist.obj
 0003:000033f0       ___security_cookie         0044a3f0     LIBCMT:gs_cookie.obj
 0003:000033f4       ___security_cookie_complement 0044a3f4     LIBCMT:gs_cookie.obj
 0003:000033f8       __fltused                  0044a3f8     LIBCMT:fpinit.obj
 0003:000033fc       __ldused                   0044a3fc     LIBCMT:fpinit.obj
 0003:00003500       ___isa_enabled             0044a500     LIBCMT:cpu_disp.obj
 0003:00003510       __cfltcvt_tab              0044a510     LIBCMT:cmiscdat.obj
 0003:00003538       ___flsindex                0044a538     LIBCMT:tidtable.obj
 0003:00003540       ___badioinfo               0044a540     LIBCMT:ioinit.obj
 0003:000036f0       __mbctype                  0044a6f0     LIBCMT:mbctype.obj
 0003:000037f8       __mbcasemap                0044a7f8     LIBCMT:mbctype.obj
 0003:000038f8       ___initialmbcinfo          0044a8f8     LIBCMT:mbctype.obj
 0003:00003b1c       ___ptmbcinfo               0044ab1c     LIBCMT:mbctype.obj
 0003:00003c10       ___mb_cur_max              0044ac10     LIBCMT:nlsdata.obj
 0003:00003c14       ___wclocalestr             0044ac14     LIBCMT:nlsdata.obj
 0003:00003c18       ___lc_time_c               0044ac18     LIBCMT:nlsdata.obj
 0003:00003d7c       ___ptlocinfo               0044ad7c     LIBCMT:nlsdata.obj
 0003:00003d80       ___initiallocinfo          0044ad80     LIBCMT:nlsdata.obj
 0003:00003e38       ___initiallocalestructinfo 0044ae38     LIBCMT:nlsdata.obj
 0003:00003e40       ___globallocalestatus      0044ae40     LIBCMT:glstatus.obj
 0003:00003e50       __HUGE                     0044ae50     LIBCMT:huge.obj
 0003:00003f90       __matherr_flag             0044af90     LIBCMT:matherr.obj
 0003:00003f98       __d_inf                    0044af98     LIBCMT:util.obj
 0003:00003fa0       __d_ind                    0044afa0     LIBCMT:util.obj
 0003:00003fa8       __d_max                    0044afa8     LIBCMT:util.obj
 0003:00003fb0       __d_min                    0044afb0     LIBCMT:util.obj
 0003:00003fb8       __d_mzero                  0044afb8     LIBCMT:util.obj
 0003:00003fe0       __iob                      0044afe0     LIBCMT:_file.obj
 0003:00004290       ___lconv                   0044b290     LIBCMT:lconv.obj
 0003:00004294       ___lconv_static_decimal    0044b294     LIBCMT:lconv.obj
 0003:00004298       ___lconv_c                 0044b298     LIBCMT:lconv.obj
 0003:000042e8       ___lconv_static_W_decimal  0044b2e8     LIBCMT:lconv.obj
 0003:000042ec       __pctype                   0044b2ec     LIBCMT:ctype.obj
 0003:000042f0       __pwctype                  0044b2f0     LIBCMT:ctype.obj
 0003:000042f4       ___abort_behavior          0044b2f4     LIBCMT:abort.obj
 0003:00004300       __NLG_Destination          0044b300     LIBCMT:exsup.obj
 0003:00004310       __pow10pos                 0044b310     LIBCMT:constpow.obj
 0003:00004470       __pow10neg                 0044b470     LIBCMT:constpow.obj
 0003:000045d0       __confh                    0044b5d0     LIBCMT:initcon.obj
 0003:000045d4       ??_R0?AVWINDOW_CLASS@@@8   0044b5d4     editpart.obj
 0003:000045f0       ??_R0?AVFTII_VAR@@@8       0044b5f0     editpart.obj
 0003:00004608       ??_R0?AVFTII_VAR_ARRAY@@@8 0044b608     editpart.obj
 0003:00004628       ??_R0?AVDOUBLE_ARRAY_CLASS@@@8 0044b628     calc.obj
 0003:0000464c       ??_R0?AVINT32_ARRAY_CLASS@@@8 0044b64c     calc.obj
 0003:0000466c       ??_R0?AVCHOOSE_WIRE_CLASS@@@8 0044b66c     v5subs:choose_wire.obj
 0003:0000468c       ??_R0?AVbad_alloc@std@@@8  0044b68c     LIBCMT:new.obj
 0003:000046a8       ??_R0?AVexception@std@@@8  0044b6a8     LIBCMT:new.obj
 0003:000046c4       ??_R0?AVtype_info@@@8      0044b6c4     LIBCMT:typinfo.obj
 0003:000046e0       ?NullChar@@3_WA            0044b6e0     editpart.obj
 0003:000046e2       ?TogglingProportionalValve@@3EA 0044b6e2     editpart.obj
 0003:000046e4       ?EmptyString@@3PA_WA       0044b6e4     editpart.obj
 0003:000046e8       ?AccelHandle@@3PAUHACCEL__@@A 0044b6e8     editpart.obj
 0003:000046ec       ?MainInstance@@3PAUHINSTANCE__@@A 0044b6ec     editpart.obj
 0003:000046f0       ?MainWindow@@3PAUHWND__@@A 0044b6f0     editpart.obj
 0003:000046f4       ?MainDialogWindow@@3PAUHWND__@@A 0044b6f4     editpart.obj
 0003:000046f8       ?ParamDialogWindow@@3PAUHWND__@@A 0044b6f8     editpart.obj
 0003:000046fc       ?AddPartDialogWindow@@3PAUHWND__@@A 0044b6fc     editpart.obj
 0003:00004700       ?CopyToDialogWindow@@3PAUHWND__@@A 0044b700     editpart.obj
 0003:00004704       ?CopyMultipleDialogWindow@@3PAUHWND__@@A 0044b704     editpart.obj
 0003:00004708       ?AddMarksDialogWindow@@3PAUHWND__@@A 0044b708     editpart.obj
 0003:0000470c       ?SuretrakProfileWindow@@3PAUHWND__@@A 0044b70c     editpart.obj
 0003:00004710       ?ExtendedChannelsDialog@@3PAUHWND__@@A 0044b710     editpart.obj
 0003:00004714       ?ShotEventsDialog@@3PAUHWND__@@A 0044b714     editpart.obj
 0003:0000471c       ?NewParameterDialogWindow@@3PAUHWND__@@A 0044b71c     editpart.obj
 0003:00004720       ?IsOfficeWorkstation@@3EA  0044b720     editpart.obj
 0003:00004721       ?HaveCurrentPart@@3EA      0044b721     editpart.obj
 0003:00004722       ?HavePressureControl@@3EA  0044b722     editpart.obj
 0003:00004723       ?HaveSureTrakControl@@3EA  0044b723     editpart.obj
 0003:0000472c       ?CurrentSelectedMark@@3FA  0044b72c     editpart.obj
 0003:0000472e       ?HideSureTrakLimitSwitchWires@@3EA 0044b72e     editpart.obj
 0003:0000472f       ?ShowEofFS@@3EA            0044b72f     editpart.obj
 0003:00004730       ?OriginalAnalogSensor@@3PAFA 0044b730     editpart.obj
 0003:00004750       ?WorkstationChangeDisable@@3EA 0044b750     editpart.obj
 0003:00004768       ?PrinterFont@@3PAUHFONT__@@A 0044b768     editpart.obj
 0003:0000476c       ?FontList@@3VFONT_LIST_CLASS@@A 0044b76c     editpart.obj
 0003:00004770       ?ParamLimitLb@@3VLISTBOX_CLASS@@A 0044b770     editpart.obj
 0003:000047fc       ?SureTrakParam@@3VSURETRAK_PARAM_CLASS@@A 0044b7fc     editpart.obj
 0003:00004b58       ?HmiOldPart@@3VSTRING_CLASS@@A 0044bb58     editpart.obj
 0003:00004b60       ?HmiNewPart@@3VSTRING_CLASS@@A 0044bb60     editpart.obj
 0003:00004b68       ?CurrentMachine@@3VMACHINE_CLASS@@A 0044bb68     editpart.obj
 0003:00004c10       ?CurrentPart@@3VPART_CLASS@@A 0044bc10     editpart.obj
 0003:00004d60       ?CurrentParam@@3VPARAMETER_CLASS@@A 0044bd60     editpart.obj
 0003:000091e8       ?CurrentSort@@3VPARAM_INDEX_CLASS@@A 004501e8     editpart.obj
 0003:000093c8       ?CurrentMarks@@3VMARKS_CLASS@@A 004503c8     editpart.obj
 0003:0000a33c       ?RestrictedPartEntry@@3VRESTRICTED_PART_ENTRY@@A 0045133c     editpart.obj
 0003:0000a358       ?CurrentFtAnalog@@3VFTANALOG_CLASS@@A 00451358     editpart.obj
 0003:0000b528       ?CurrentFtCalc@@3VFTCALC_CLASS@@A 00452528     editpart.obj
 0003:0000c4a8       ?CurrentLimitSwitch@@3VLIMIT_SWITCH_CLASS@@A 004534a8     editpart.obj
 0003:0000c538       ?StringTable@@3VSTRINGTABLE_CLASS@@A 00453538     editpart.obj
 0003:0000c5a0       ?MultipartLbClass@@3VMULTIPART_LB_CLASS@@A 004535a0     editpart.obj
 0003:0000cb10       ?MachineList@@3VGENERIC_LIST_CLASS@@A 00453b10     partdata.obj
 0003:0000cb1c       ___@@_PchSym_@00@UhlfixvhUevihrlmIUvnkgbUfuivvUvnkgbOlyq@6B73A80F87A14A31 00453b1c     empty.obj
 0003:0000cb21       ?LoadingParams@@3EA        00453b21     edparam.obj
 0003:0000cb22       ?LoadingFtAnalogs@@3EA     00453b22     edparam.obj
 0003:0000cb23       ?LoadingFtExtendedAnalogs@@3EA 00453b23     edparam.obj
 0003:0000cb28       ?StartValueIsNegative@@3EA 00453b28     edparam.obj
 0003:0000cb2c       ?UnitsCbox@@3VLISTBOX_CLASS@@A 00453b2c     edparam.obj
 0003:0000cb40       ?VartypeCbox@@3VLISTBOX_CLASS@@A 00453b40     edparam.obj
 0003:0000cb54       ?FtEpUnitsCbox@@3VLISTBOX_CLASS@@A 00453b54     edparam.obj
 0003:0000cb68       ?FtEpVartypeCbox@@3VLISTBOX_CLASS@@A 00453b68     edparam.obj
 0003:0000cce0       ?emptystring@STRING_CLASS@@0PA_WA 00453ce0     v5subs:stringcl.obj
 0003:0000d6b0       ?Machine@@3PAVMACHINE_CLASS@@A 004546b0     v5subs:choose_wire.obj
 0003:0000d6b4       ?Part@@3PAVPART_CLASS@@A   004546b4     v5subs:choose_wire.obj
 0003:0000d6b8       ?Param@@3PAVPARAMETER_CLASS@@A 004546b8     v5subs:choose_wire.obj
 0003:0000d6bc       ?LimitSwitch@@3PAVLIMIT_SWITCH_CLASS@@A 004546bc     v5subs:choose_wire.obj
 0003:0000d6e0       ?AllPurposePalette@@3PAUHPALETTE__@@A 004546e0     v5subs:choose_wire.obj
 0003:0000deb0       ?emptystring@STRING_ARRAY_CLASS@@0PA_WA 00454eb0     v5subs:strarray.obj
 0003:0000df0c       ?SmoothN@@3JA              00454f0c     v5subs:plotsubs.obj
 0003:0000df10       ?SmoothFactor@@3MA         00454f10     v5subs:plotsubs.obj
 0003:0000df18       ?Shifts@@3PAUSHIFT@@A      00454f18     v5subs:shift.obj
 0003:0000df1c       ?NofShifts@@3FA            00454f1c     v5subs:shift.obj
 0003:0000e248       ___fastflag                00455248     LIBCMT:fpinit.obj
 0003:0000e24c       __aenvptr                  0045524c     LIBCMT:wincrt0.obj
 0003:0000e250       __wenvptr                  00455250     LIBCMT:wincrt0.obj
 0003:0000e254       ?_pnhHeap@@3P6AHI@ZA       00455254     LIBCMT:handler.obj
 0003:0000e258       __C_Exit_Done              00455258     LIBCMT:crt0dat.obj
 0003:0000e25c       ___argc                    0045525c     LIBCMT:crt0dat.obj
 0003:0000e260       ___argv                    00455260     LIBCMT:crt0dat.obj
 0003:0000e264       ___wargv                   00455264     LIBCMT:crt0dat.obj
 0003:0000e268       __environ                  00455268     LIBCMT:crt0dat.obj
 0003:0000e26c       __wenviron                 0045526c     LIBCMT:crt0dat.obj
 0003:0000e270       __pgmptr                   00455270     LIBCMT:crt0dat.obj
 0003:0000e274       __wpgmptr                  00455274     LIBCMT:crt0dat.obj
 0003:0000e278       __umaskval                 00455278     LIBCMT:crt0dat.obj
 0003:0000e27c       __exitflag                 0045527c     LIBCMT:crt0dat.obj
 0003:0000e280       __C_Termination_Done       00455280     LIBCMT:crt0dat.obj
 0003:0000e284       ___winitenv                00455284     LIBCMT:crt0dat.obj
 0003:0000e288       ___initenv                 00455288     LIBCMT:crt0dat.obj
 0003:0000e28c       __maxwait                  0045528c     LIBCMT:crtheap.obj
 0003:0000e294       ___isa_available           00455294     LIBCMT:cpu_disp.obj
 0003:0000e298       ___favor                   00455298     LIBCMT:cpu_disp.obj
 0003:0000e2a4       __crtheap                  004552a4     LIBCMT:heapinit.obj
 0003:0000e2a8       ___pioinfo                 004552a8     LIBCMT:ioinit.obj
 0003:0000e4b0       ___app_type                004554b0     LIBCMT:crt0msg.obj
 0003:0000eae0       ___error_mode              00455ae0     LIBCMT:errmode.obj
 0003:0000eae4       ___pInvalidArgHandler      00455ae4     LIBCMT:invarg.obj
 0003:0000eae8       ___mbcodepage              00455ae8     LIBCMT:mbctype.obj
 0003:0000eaec       ___ismbcodepage            00455aec     LIBCMT:mbctype.obj
 0003:0000eaf0       ___mbulinfo                00455af0     LIBCMT:mbctype.obj
 0003:0000eafc       ___mblocalename            00455afc     LIBCMT:mbctype.obj
 0003:0000eb04       ___locale_changed          00455b04     LIBCMT:wsetloca.obj
 0003:0000eb08       __newmode                  00455b08     LIBCMT:_newmode.obj
 0003:0000ec60       ?__pInconsistency@@3P6AXXZA 00455c60     LIBCMT:hooks.obj
 0003:0000ec64       ___pPurecall               00455c64     LIBCMT:inithelp.obj
 0003:0000ec80       __stdbuf                   00455c80     LIBCMT:_sftbuf.obj
 0003:0000ec88       ?pArgList@UnDecorator@@0PAVReplicator@@A 00455c88     LIBCMT:undname.obj
 0003:0000ec8c       ?pZNameList@UnDecorator@@0PAVReplicator@@A 00455c8c     LIBCMT:undname.obj
 0003:0000ec90       ?pTemplateArgList@UnDecorator@@0PAVReplicator@@A 00455c90     LIBCMT:undname.obj
 0003:0000ec94       ?gName@UnDecorator@@0PBDB  00455c94     LIBCMT:undname.obj
 0003:0000ec98       ?name@UnDecorator@@0PBDB   00455c98     LIBCMT:undname.obj
 0003:0000ec9c       ?outputString@UnDecorator@@0PADA 00455c9c     LIBCMT:undname.obj
 0003:0000eca0       ?maxStringLength@UnDecorator@@0HA 00455ca0     LIBCMT:undname.obj
 0003:0000eca4       ?disableFlags@UnDecorator@@0KA 00455ca4     LIBCMT:undname.obj
 0003:0000eca8       ?fExplicitTemplateParams@UnDecorator@@0_NA 00455ca8     LIBCMT:undname.obj
 0003:0000eca9       ?fGetTemplateArgumentList@UnDecorator@@0_NA 00455ca9     LIBCMT:undname.obj
 0003:0000ecac       ?m_pGetParameter@UnDecorator@@0P6APADJ@ZA 00455cac     LIBCMT:undname.obj
 0003:0000ecc4       __outputformat             00455cc4     LIBCMT:outputformat.obj
 0003:0000ecc8       __cflush                   00455cc8     LIBCMT:_file.obj
 0003:0000ece0       ___lconv_static_null       00455ce0     LIBCMT:lconv.obj
 0003:0000ece4       ___lconv_static_W_null     00455ce4     LIBCMT:lconv.obj
 0003:0000ed00       __bufin                    00455d00     <common>
 0003:0000fd00       ___piob                    00456d00     <common>
 0003:0000fd04       __nstream                  00456d04     <common>
 0003:0000fd08       __nhandle                  00456d08     <common>
 0003:0000fd0c       ___use_sse2_mathfcns       00456d0c     <common>
 0003:0000fd10       __pmatherr                 00456d10     <common>
 0003:0000fd20       _encodedKERNEL32Functions  00456d20     <common>
 0003:0000fda4       __debugger_hook_dummy      00456da4     <common>
 0003:0000fda8       __pDestructExceptionObject 00456da8     <common>
 0003:0000fdac       ___dyn_tls_init_callback   00456dac     <common>
 0003:0000fdb0       ___onexitend               00456db0     <common>
 0003:0000fdb4       ___onexitbegin             00456db4     <common>
 0003:0000fdb8       ___mbctype_initialized     00456db8     <common>
 0003:0000fdbc       ___env_initialized         00456dbc     <common>
 0003:0000fdc0       __acmdln                   00456dc0     <common>

 entry point at        0001:0002c94f

 Static symbols

 0002:fffc6000       .idata$6                   00400000     comdlg32:COMDLG32.dll
 0001:00000000       ??__ECurrentFtAnalog@@YAXXZ 00401000 f   editpart.obj
 0001:00000016       ??__ECurrentFtCalc@@YAXXZ  00401016 f   editpart.obj
 0001:0000002c       ??__ECurrentLimitSwitch@@YAXXZ 0040102c f   editpart.obj
 0001:00000042       ??__ECurrentMachine@@YAXXZ 00401042 f   editpart.obj
 0001:00000058       ??__ECurrentMarks@@YAXXZ   00401058 f   editpart.obj
 0001:0000006e       ??__ECurrentParam@@YAXXZ   0040106e f   editpart.obj
 0001:00000084       ??__ECurrentPart@@YAXXZ    00401084 f   editpart.obj
 0001:0000009a       ??__ECurrentSort@@YAXXZ    0040109a f   editpart.obj
 0001:000000b0       ??__EFontList@@YAXXZ       004010b0 f   editpart.obj
 0001:000000c6       ??__EHaveStModTbox@@YAXXZ  004010c6 f   editpart.obj
 0001:000000d2       ??__EHmiNewPart@@YAXXZ     004010d2 f   editpart.obj
 0001:000000e8       ??__EHmiOldPart@@YAXXZ     004010e8 f   editpart.obj
 0001:000000fe       ??__EMultipartLbClass@@YAXXZ 004010fe f   editpart.obj
 0001:0000010a       ??__EParamLimitLb@@YAXXZ   0040110a f   editpart.obj
 0001:00000116       ??__EPressureControl@@YAXXZ 00401116 f   editpart.obj
 0001:0000012c       ??__ERestrictedPartEntry@@YAXXZ 0040112c f   editpart.obj
 0001:00000142       ??__ESaveChangesTitle@@YAXXZ 00401142 f   editpart.obj
 0001:00000158       ??__EStModList@@YAXXZ      00401158 f   editpart.obj
 0001:00000164       ??__EStringTable@@YAXXZ    00401164 f   editpart.obj
 0001:0000017a       ??__ESureTrakParam@@YAXXZ  0040117a f   editpart.obj
 0001:00000190       ??__ESureTrakPlot@@YAXXZ   00401190 f   editpart.obj
 0001:000001a6       ??__ESureTrakPlotWindow@@YAXXZ 004011a6 f   editpart.obj
 0001:000001b2       ??__ESureTrakSetup@@YAXXZ  004011b2 f   editpart.obj
 0001:000001c8       ??__EWarmup@@YAXXZ         004011c8 f   editpart.obj
 0001:000001de       ??__EMachineList@@YAXXZ    004011de f   partdata.obj
 0001:000001ea       ??__EFtEpUnitsCbox@@YAXXZ  004011ea f   edparam.obj
 0001:000001f6       ??__EFtEpVartypeCbox@@YAXXZ 004011f6 f   edparam.obj
 0001:00000202       ??__EUnitsCbox@@YAXXZ      00401202 f   edparam.obj
 0001:0000020e       ??__EVartypeCbox@@YAXXZ    0040120e f   edparam.obj
 0001:0000021a       ??__EVartypes@@YAXXZ       0040121a f   edparam.obj
 0001:00000226       ??__EDensity@@YAXXZ        00401226 f   calc.obj
 0001:00000232       ??__EDensityUnitsId@@YAXXZ 00401232 f   calc.obj
 0001:0000023e       ??__EEmptyString@@YAXXZ    0040123e f   v5subs:nameclas.obj
 0001:00000254       ??__EMyComputer@@YAXXZ     00401254 f   v5subs:nameclas.obj
 0001:0000025e       ??__EEmptySensor@@YAXXZ    0040125e f   v5subs:asensor.obj
 0001:00000274       ??__EMyComputer@@YAXXZ     00401274 f   v5subs:computer.obj
 0001:0000028a       ??__ENoComputer@@YAXXZ     0040128a f   v5subs:computer.obj
 0001:000002a0       ??__Eempty_entry@@YAXXZ    004012a0 f   v5subs:setpoint.obj
 0001:000002c0       ??__EBaseDir@@YAXXZ        004012c0 f   v5subs:stringtable.obj
 0001:000002d6       ??__EDefaultLanguage@@YAXXZ 004012d6 f   v5subs:stringtable.obj
 0001:000002f1       ??__EFontList@@YAXXZ       004012f1 f   v5subs:stringtable.obj
 0001:00000307       ??__EResources@@YAXXZ      00401307 f   v5subs:stringtable.obj
 0001:00000322       ??__EDefaultBreakGain@@YAXXZ 00401322 f   v5subs:stsetup.obj
 0001:0000033d       ??__EDefaultBreakVelocity@@YAXXZ 0040133d f   v5subs:stsetup.obj
 0001:00000358       ??__EZeroPointZero@@YAXXZ  00401358 f   v5subs:stsetup.obj
 0001:00000373       ??__EChooseWireCtrl@@YAXXZ 00401373 f   v5subs:choose_wire.obj
 0001:0000037f       ??__EControlLedRect@@YAXXZ 0040137f f   v5subs:choose_wire.obj
 0001:000004ca       ??__EControlWireRect@@YAXXZ 004014ca f   v5subs:choose_wire.obj
 0001:00000766       ??__EMonitorLedRect@@YAXXZ 00401766 f   v5subs:choose_wire.obj
 0001:00000804       ??__EMonitorWireRect@@YAXXZ 00401804 f   v5subs:choose_wire.obj
 0001:000008b4       ??__EWireInfoTbox@@YAXXZ   004018b4 f   v5subs:choose_wire.obj
 0001:000008c0       ??__EWireSorc@@YAXXZ       004018c0 f   v5subs:choose_wire.obj
 0001:000008cc       ??__EEventList@@YAXXZ      004018cc f   v5subs:client.obj
 0001:000008d8       ??__EMyEmptyString@@YAXXZ  004018d8 f   v5subs:shot_name_reset.obj
 0001:000008ee       ??__EEmptyString@@YAXXZ    004018ee f   v5subs:machname.obj
 0001:00000904       ??__EExeDirectory@@YAXXZ   00401904 f   v5subs:gexedir.obj
 0001:00000f45       ?add_labels_to_plot@@YAXXZ 00401f45 f   editpart.obj
 0001:0000100e       ?add_mark_to_listbox@@YAX_WFPA_W@Z 0040200e f   editpart.obj
 0001:000010e6       ?add_new_marks@@YAXXZ      004020e6 f   editpart.obj
 0001:00001550       ?add_profile_curve@@YAXXZ  00402550 f   editpart.obj
 0001:0000181e       ?add_to_stmodlist@@YAXPAUHWND__@@@Z 0040281e f   editpart.obj
 0001:00001863       ?add_x_axis_to_plot@@YAXXZ 00402863 f   editpart.obj
 0001:0000190c       ?add_y_axis_to_plot@@YAXXZ 0040290c f   editpart.obj
 0001:00001af7       ?all_steps_are_percent@@YAEXZ 00402af7 f   editpart.obj
 0001:00001b30       ?assign_the_next_part_selection_number@@YAXAAVSTRING_CLASS@@@Z 00402b30 f   editpart.obj
 0001:00001dec       ?cat_w_tab@@YAXPA_WPB_W@Z  00402dec f   editpart.obj
 0001:00001e0a       ?change_distance_units@@YAXXZ 00402e0a f   editpart.obj
 0001:000020db       ?change_velocity_units@@YAXXZ 004030db f   editpart.obj
 0001:00002227       ?check_break_gain_values@@YA_NXZ 00403227 f   editpart.obj
 0001:000022cd       ?check_for_autosave@@YAXXZ 004032cd f   editpart.obj
 0001:00002338       ?check_for_hmi_message@@YAXAAVSTRING_CLASS@@@Z 00403338 f   editpart.obj
 0001:000024cb       ?check_for_last_step_end_pos@@YAEXZ 004034cb f   editpart.obj
 0001:000025b7       ?check_for_new_intermediate_step_end_pos@@YAXPAUHWND__@@H@Z 004035b7 f   editpart.obj
 0001:00002911       ?check_msl_of_suretrak_part@@YAXXZ 00403911 f   editpart.obj
 0001:00002bb9       ?check_vacuum_wait_buttons@@YAXPAUHWND__@@H@Z 00403bb9 f   editpart.obj
 0001:00002cb7       ?clear_shots_and_parameters@@YAEPAUHWND__@@@Z 00403cb7 f   editpart.obj
 0001:00002dff       ?convert_percent_to_pressure@@YAXAAVSTRING_CLASS@@@Z 00403dff f   editpart.obj
 0001:00002efd       ?convert_percent_to_volts@@YAXAAVSTRING_CLASS@@@Z 00403efd f   editpart.obj
 0001:00002f54       ?convert_pressure_to_percent@@YAXAAVSTRING_CLASS@@@Z 00403f54 f   editpart.obj
 0001:00003064       ?convert_volts_to_percent@@YAXAAVSTRING_CLASS@@@Z 00404064 f   editpart.obj
 0001:000030c8       ?copy_multiple@@YAXXZ      004040c8 f   editpart.obj
 0001:00003473       ?copyto_copy@@YAXXZ        00404473 f   editpart.obj
 0001:000034e3       ?copyto_copy_flags@@YAIXZ  004044e3 f   editpart.obj
 0001:000036eb       ?copyto_copy_type@@YAFXZ   004046eb f   editpart.obj
 0001:000038a3       ?copyto_selected_parts@@YAXI@Z 004048a3 f   editpart.obj
 0001:00003984       ?create_dialogs@@YAXXZ     00404984 f   editpart.obj
 0001:00003a2c       ?create_printer_font@@YAXPAUHDC__@@AAUtagRECT@@@Z 00404a2c f   editpart.obj
 0001:00003a91       ?delete_current_part@@YAXXZ 00404a91 f   editpart.obj
 0001:00003c9e       ?delete_printer_font@@YAXPAUHDC__@@@Z 00404c9e f   editpart.obj
 0001:00003cc7       ?do_all_open_loop_xbox@@YAXPAUHWND__@@@Z 00404cc7 f   editpart.obj
 0001:00003d3d       ?do_copyto_select_all_pb@@YAXXZ 00404d3d f   editpart.obj
 0001:00003e01       ?do_goose_button_press@@YAXPAUHWND__@@0H@Z 00404e01 f   editpart.obj
 0001:00003edc       ?do_hmi_command@@YAXXZ     00404edc f   editpart.obj
 0001:00003fd8       ?do_newsetup@@YAXXZ        00404fd8 f   editpart.obj
 0001:000040f2       ?do_ramp_value_change@@YAXPAUHWND__@@H@Z 004050f2 f   editpart.obj
 0001:0000420a       ?enable_all_open_loop_and_portional_valve_buttons@@YAXPAUHWND__@@@Z 0040520a f   editpart.obj
 0001:0000429d       ?enable_buttons@@YAXXZ     0040529d f   editpart.obj
 0001:000048e9       ?enable_last_step_low_impact_eb@@YAXXZ 004058e9 f   editpart.obj
 0001:00004a85       ?enable_sn_template_editbox@@YAXXZ 00405a85 f   editpart.obj
 0001:00004c09       ?exit_restricted_part_entry_screen@@YAXXZ 00405c09 f   editpart.obj
 0001:00004e08       ?fill_add_marks_listbox@@YAEXZ 00405e08 f   editpart.obj
 0001:00004f0b       ?fill_add_part_statics@@YAXPAUHWND__@@@Z 00405f0b f   editpart.obj
 0001:00004f61       ?fill_analog_list_boxes@@YAXPAUHWND__@@HH@Z 00405f61 f   editpart.obj
 0001:00004fd5       ?fill_color_list_box@@YAXXZ 00405fd5 f   editpart.obj
 0001:0000502a       ?fill_copyto_parts@@YAXXZ  0040602a f   editpart.obj
 0001:000050b3       ?fill_machine_cb@@YAFPAUHWND__@@H@Z 004060b3 f   editpart.obj
 0001:00005166       ?fill_machine_cb@@YAFPAUHWND__@@HPA_W@Z 00406166 f   editpart.obj
 0001:00005219       ?fill_machines@@YAXXZ      00406219 f   editpart.obj
 0001:0000535e       ?fill_mpr_listbox@@YA_NAAVLISTBOX_CLASS@@@Z 0040635e f   editpart.obj
 0001:000053ff       ?fill_multipart_runlist_setup_statics@@YAXPAUHWND__@@@Z 004063ff f   editpart.obj
 0001:00005455       ?fill_multiple_lb@@YAXXZ   00406455 f   editpart.obj
 0001:000055bb       ?fill_parts@@YAXAAVSTRING_CLASS@@@Z 004065bb f   editpart.obj
 0001:00005614       ?fill_parts@@YAXH@Z        00406614 f   editpart.obj
 0001:00005685       ?fill_parts@@YAXXZ         00406685 f   editpart.obj
 0001:00005754       ?fill_statics@@YAXPAUHWND__@@@Z 00406754 f   editpart.obj
 0001:000057c6       ?float_adjust@@YAMM@Z      004067c6 f   editpart.obj
 0001:000057eb       ?float_adjust@@YANN@Z      004067eb f   editpart.obj
 0001:00005811       ?ftii_percent@@YAIN@Z      00406811 f   editpart.obj
 0001:00005a2f       ?get_alarm_timeout@@YAXPAUHWND__@@@Z 00406a2f f   editpart.obj
 0001:00005a71       ?get_current_part@@YAXXZ   00406a71 f   editpart.obj
 0001:00005e9b       ?get_current_partlist@@YAEAAVTEXT_LIST_CLASS@@@Z 00406e9b f   editpart.obj
 0001:00005fdb       ?get_new_hmi_command@@YAXXZ 00406fdb f   editpart.obj
 0001:0000605e       ?get_new_pressure_control_steps@@YAXXZ 0040705e f   editpart.obj
 0001:000063de       ?get_new_suretrak_steps@@YAXXZ 004073de f   editpart.obj
 0001:00006693       ?get_new_vacuum_switch_number@@YAXXZ 00407693 f   editpart.obj
 0001:000066e4       ?get_overview_help@@YAXXZ  004076e4 f   editpart.obj
 0001:00006734       $LN19                      00407734     editpart.obj
 0001:00006758       ?get_percents@@YAXPAUPRES_CONTROL_STEP_ENTRY@@@Z 00407758 f   editpart.obj
 0001:00006781       ?get_selected_copyto_machine@@YAPAUMACHINE_ENTRY@@XZ 00407781 f   editpart.obj
 0001:000067f4       ?get_shot_event_wire@@YAXAAIHH@Z 004077f4 f   editpart.obj
 0001:000068f7       ?hide_fastrak_channels@@YAXXZ 004078f7 f   editpart.obj
 0001:000070d7       ?init_shot_events_dialog@@YAXXZ 004080d7 f   editpart.obj
 0001:000072d2       ?is_remote_monitor@@YAEXZ  004082d2 f   editpart.obj
 0001:000072f2       ?label_goose_button@@YAXPAUHWND__@@0H@Z 004082f2 f   editpart.obj
 0001:000073d1       ?label_goose_button@@YAXPAUHWND__@@E@Z 004083d1 f   editpart.obj
 0001:0000747f       ?load_edit_control_from_file@@YAXPAUHWND__@@IAAVNAME_CLASS@@@Z 0040847f f   editpart.obj
 0001:0000754e       ?load_extended_channels@@YAXXZ 0040854e f   editpart.obj
 0001:000075df       ?load_pc_arm_limit_switch_cbox@@YAXPAUHWND__@@@Z 004085df f   editpart.obj
 0001:000076ac       ?load_resources@@YAXXZ     004086ac f   editpart.obj
 0001:00007750       ?main_context_help@@YAXPAUHWND__@@@Z 00408750 f   editpart.obj
 0001:00007a19       ?marks_context_help@@YAXPAUHWND__@@J@Z 00408a19 f   editpart.obj
 0001:00007b05       ?monitor_this_part@@YAXXZ  00408b05 f   editpart.obj
 0001:00007d3f       ?move_lb_line@@YAXH@Z      00408d3f f   editpart.obj
 0001:0000815a       ?paint_me@@YAXXZ           0040915a f   editpart.obj
 0001:000083cb       ?parmline@@YAPA_WH@Z       004093cb f   editpart.obj
 0001:000085dd       ?position_static_text_parameter_dialog@@YAXPAUHWND__@@@Z 004095dd f   editpart.obj
 0001:000085dd       ?position_copy_dialog@@YAXPAUHWND__@@@Z 004095dd f   editpart.obj
 0001:000085dd       ?position_add_part_dialog@@YAXPAUHWND__@@@Z 004095dd f   editpart.obj
 0001:00008650       ?position_current_dialog@@YAXXZ 00409650 f   editpart.obj
 0001:000087c8       ?position_dropdown_window@@YAXPAUHWND__@@@Z 004097c8 f   editpart.obj
 0001:00008852       ?position_main_window@@YAXXZ 00409852 f   editpart.obj
 0001:00008940       ?position_save_all_parts_dialog@@YAXPAUHWND__@@@Z 00409940 f   editpart.obj
 0001:000089e0       ?position_tab_buttons@@YAXXZ 004099e0 f   editpart.obj
 0001:00008c7f       ?pressure_control_context_help@@YAHPAUHWND__@@J@Z 00409c7f f   editpart.obj
 0001:00009338       ?print_header@@YAXPAUHDC__@@HHAAUtagRECT@@@Z 0040a338 f   editpart.obj
 0001:0000990d       ?print_part_setup@@YAXXZ   0040a90d f   editpart.obj
 0001:0000a551       ?print_setup_sheet@@YAHPAUHDC__@@HHHH@Z 0040b551 f   editpart.obj
 0001:0000a6ce       ?print_suretrak_params@@YAHPAUHDC__@@HHHAAUtagRECT@@@Z 0040b6ce f   editpart.obj
 0001:0000b0db       ?refresh_advanced_setup@@YAXXZ 0040c0db f   editpart.obj
 0001:0000b556       ?refresh_basic_setup@@YAXXZ 0040c556 f   editpart.obj
 0001:0000b708       ?refresh_parameter_limits@@YAXXZ 0040c708 f   editpart.obj
 0001:0000b82d       ?refresh_pressure_control_setup@@YAXXZ 0040c82d f   editpart.obj
 0001:0000bcf1       ?refresh_suretrak_setup@@YAXXZ 0040ccf1 f   editpart.obj
 0001:0000c0a4       ?refresh_user_defined_positions@@YAXXZ 0040d0a4 f   editpart.obj
 0001:0000c2fa       ?refresh_velocity_control_plot@@YAXXZ 0040d2fa f   editpart.obj
 0001:0000c34b       ?refresh_warmup_shot@@YAXXZ 0040d34b f   editpart.obj
 0001:0000c48d       ?remove_current_parameter@@YAXXZ 0040d48d f   editpart.obj
 0001:0000ca14       ?save_changes@@YAXXZ       0040da14 f   editpart.obj
 0001:0000d641       ?save_edit_control_to_file@@YAXAAVNAME_CLASS@@PAUHWND__@@I@Z 0040e641 f   editpart.obj
 0001:0000d6e5       ?save_extended_channels@@YAXXZ 0040e6e5 f   editpart.obj
 0001:0000d776       ?save_shot_name_template@@YAXPAUHWND__@@@Z 0040e776 f   editpart.obj
 0001:0000d954       ?save_warmup_shot@@YAXXZ   0040e954 f   editpart.obj
 0001:0000da40       ?send_new_monitor_setup_event@@YAXXZ 0040ea40 f   editpart.obj
 0001:0000daf8       ?set_ebox_percent@@YAXPAUHWND__@@HE@Z 0040eaf8 f   editpart.obj
 0001:0000db7a       ?set_mark_line@@YAXH@Z     0040eb7a f   editpart.obj
 0001:0000dbc0       ?set_missing_file_setup_strings@@YAXPAUHWND__@@@Z 0040ebc0 f   editpart.obj
 0001:0000dc0c       ?set_nls_low_setup_strings@@YAXPAUHWND__@@@Z 0040ec0c f   editpart.obj
 0001:0000dc58       ?set_no_last_setup_strings@@YAXPAUHWND__@@@Z 0040ec58 f   editpart.obj
 0001:0000dca4       ?set_percent@@YAEAAVSTRING_CLASS@@E@Z 0040eca4 f   editpart.obj
 0001:0000dcf5       ?set_run_if_on_text@@YAXPAUHWND__@@@Z 0040ecf5 f   editpart.obj
 0001:0000dd33       ?set_save_all_setup_strings@@YAXPAUHWND__@@@Z 0040ed33 f   editpart.obj
 0001:0000dde4       ?set_zero_break_setup_strings@@YAXPAUHWND__@@@Z 0040ede4 f   editpart.obj
 0001:0000dfbd       ?shot_events_setup_strings@@YAXXZ 0040efbd f   editpart.obj
 0001:0000e00e       ?show_advanced_multipart_setup@@YAXXZ 0040f00e f   editpart.obj
 0001:0000e075       ?show_advanced_setup_context_help@@YAXJ@Z 0040f075 f   editpart.obj
 0001:0000e0fd       ?show_context_help@@YAHPAUHWND__@@J@Z 0040f0fd f   editpart.obj
 0001:0000e1af       ?show_current_dialog@@YAXH@Z 0040f1af f   editpart.obj
 0001:0000e207       ?show_current_mark@@YAXXZ  0040f207 f   editpart.obj
 0001:0000e2e2       ?show_last_part_message@@YAXXZ 0040f2e2 f   editpart.obj
 0001:0000e363       ?show_low_impact_error@@YAXXZ 0040f363 f   editpart.obj
 0001:0000e3f1       ?show_marks@@YAXXZ         0040f3f1 f   editpart.obj
 0001:0000e485       ?show_new_gain_controls@@YAXPAUHWND__@@@Z 0040f485 f   editpart.obj
 0001:0000e4a1       ?show_new_gain_controls@@YAXPAUHWND__@@E@Z 0040f4a1 f   editpart.obj
 0001:0000e5b0       ?show_pres_controls@@YAXPAUHWND__@@@Z 0040f5b0 f   editpart.obj
 0001:0000e68b       ?show_proportional_valve_controls@@YAXPAUHWND__@@E@Z 0040f68b f   editpart.obj
 0001:0000e7a4       ?show_restricted_part_entry_screen@@YAXXZ 0040f7a4 f   editpart.obj
 0001:0000e85b       ?show_retctl_controls@@YAXPAUHWND__@@@Z 0040f85b f   editpart.obj
 0001:0000e8e7       ?show_select_part_message@@YAXXZ 0040f8e7 f   editpart.obj
 0001:0000e968       ?show_setup_sheet@@YAXXZ   0040f968 f   editpart.obj
 0001:0000ea2c       ?show_tab_control@@YAXH@Z  0040fa2c f   editpart.obj
 0001:0000eae9       ?show_warmup_controls@@YAXXZ 0040fae9 f   editpart.obj
 0001:0000ebec       ?shutdown@@YAXXZ           0040fbec f   editpart.obj
 0001:0000edfc       ?stringtable_message_box@@YAHPA_W0@Z 0040fdfc f   editpart.obj
 0001:0000ee73       ?stringtable_okcancel_box@@YAHPA_W0@Z 0040fe73 f   editpart.obj
 0001:0000efda       ?suretrak_profile_context_help@@YAXPAUHWND__@@J@Z 0040ffda f   editpart.obj
 0001:0000f4b7       ?toggle_proportional_valve@@YAXPAUHWND__@@@Z 004104b7 f   editpart.obj
 0001:0000f6fd       ?update_copy_multiple_string_settings@@YAXXZ 004106fd f   editpart.obj
 0001:0000f75d       ?update_extended_channels_string_settings@@YAXPAUHWND__@@@Z 0041075d f   editpart.obj
 0001:0000f803       ?update_fastrak_channels_string_settings@@YAXPAUHWND__@@@Z 00410803 f   editpart.obj
 0001:0000f8b7       ?update_ftii_control_program@@YAXXZ 004108b7 f   editpart.obj
 0001:00010250       ?update_pressure_control_profile_string_settings@@YAXPAUHWND__@@@Z 00411250 f   editpart.obj
 0001:000102d7       ?update_sn_example@@YAXPAUHWND__@@@Z 004112d7 f   editpart.obj
 0001:00010419       ?update_st_params@@YAXPAUHWND__@@@Z 00411419 f   editpart.obj
 0001:00010515       ?update_static_text_parameter_string_settings@@YAXPAUHWND__@@@Z 00411515 f   editpart.obj
 0001:00010604       ?update_suretrak_params_with_ft2_settings@@YAXXZ 00411604 f   editpart.obj
 0001:000106ab       ?update_suretrak_profile_string_settings@@YAXXZ 004116ab f   editpart.obj
 0001:00010731       ?update_suretrak_step_value@@YAXAAVFTII_VAR_ARRAY@@H@Z 00411731 f   editpart.obj
 0001:000109e6       ?update_user_defined_setup_strings@@YAXPAUHWND__@@@Z 004119e6 f   editpart.obj
 0001:00010bcd       ?x1_velocity@@YAIN@Z       00411bcd f   editpart.obj
 0001:00010c15       ?x4_from_distance_value@@YAIN@Z 00411c15 f   editpart.obj
 0001:00010e71       ?cleanup@@YAXXZ            00411e71 f   partdata.obj
 0001:000114bd       ?do_new_external_parameter_units@@YAXXZ 004124bd f   edparam.obj
 0001:00011513       ?do_new_external_parameter_vartype@@YAXXZ 00412513 f   edparam.obj
 0001:000115e1       ?do_new_units@@YAXXZ       004125e1 f   edparam.obj
 0001:00011637       ?do_new_vartype@@YAXXZ     00412637 f   edparam.obj
 0001:00011705       ?fill_units@@YA_NAAVLISTBOX_CLASS@@G@Z 00412705 f   edparam.obj
 0001:000117c6       ?fill_vartypes@@YAXXZ      004127c6 f   edparam.obj
 0001:0001212f       ?get_new_ft_analog_settings@@YAXXZ 0041312f f   edparam.obj
 0001:00012488       ?get_new_ft_extended_channel@@YAHPAUHWND__@@@Z 00413488 f   edparam.obj
 0001:00012512       ?get_new_ft_extended_trigger@@YAXPAUHWND__@@@Z 00413512 f   edparam.obj
 0001:000125f2       ?get_new_ft_target_settings@@YAXXZ 004135f2 f   edparam.obj
 0001:0001271d       ?get_new_internal_parameter_settings@@YAXXZ 0041371d f   edparam.obj
 0001:00012793       ?get_new_parameter_settings@@YAXXZ 00413793 f   edparam.obj
 0001:000129a8       ?hide_current_dialog@@YAXXZ 004139a8 f   edparam.obj
 0001:00012a32       ?internal_parameter_units@@YAFFG@Z 00413a32 f   edparam.obj
 0001:00012a95       ?internal_parameter_vartype@@YAGF@Z 00413a95 f   edparam.obj
 0001:00012d14       $LN39                      00413d14     edparam.obj
 0001:00012e16       ?position_current_dialog@@YAXXZ 00413e16 f   edparam.obj
 0001:00012efe       ?show_analog_description@@YAXPAUHWND__@@H@Z 00413efe f   edparam.obj
 0001:00012f9d       ?show_analog_description@@YAXXZ 00413f9d f   edparam.obj
 0001:0001304c       ?show_analog_units@@YAXXZ  0041404c f   edparam.obj
 0001:000130dd       ?show_current_dialog@@YAXXZ 004140dd f   edparam.obj
 0001:0001314e       ?show_ft_calc_parameter@@YAXXZ 0041414e f   edparam.obj
 0001:000131e4       ?show_ft_digital_parameter@@YAXXZ 004141e4 f   edparam.obj
 0001:00013220       ?show_ft_extended_analog_parameter@@YAXXZ 00414220 f   edparam.obj
 0001:000132c1       ?show_ft_external_parameter@@YAXXZ 004142c1 f   edparam.obj
 0001:00013326       ?show_ft_peak_fs_velocity_parameter@@YAXXZ 00414326 f   edparam.obj
 0001:000133c9       ?show_ft_static_text_parameter@@YAXXZ 004143c9 f   edparam.obj
 0001:00013440       ?show_ftanalog_parameter@@YAXXZ 00414440 f   edparam.obj
 0001:0001361e       ?show_ftonoff_parameter@@YAXXZ 0041461e f   edparam.obj
 0001:000136f3       ?true_internal_parameter_name@@YAXF@Z 004146f3 f   edparam.obj
 0001:000137f9       ?update_current_dialog@@YAXXZ 004147f9 f   edparam.obj
 0001:00013861       $LN20                      00414861     edparam.obj
 0001:00013889       ?update_ft_analog_setup_strings@@YAXPAUHWND__@@@Z 00414889 f   edparam.obj
 0001:000139a4       ?add_density_entry@@YAXXZ  004149a4 f   calc.obj
 0001:00013c84       $LN37                      00414c84     calc.obj
 0001:00013ca4       $LN33                      00414ca4     calc.obj
 0001:00013cc3       ?check_save_part_setup_tbox@@YAXXZ 00414cc3 f   calc.obj
 0001:00013d43       ?check_sync_plunger_diameter_xbox@@YAXXZ 00414d43 f   calc.obj
 0001:00013dc8       ?copy_from_lb@@YAXPA_W0@Z  00414dc8 f   calc.obj
 0001:00013df3       ?delete_density_entry@@YAXXZ 00414df3 f   calc.obj
 0001:00013f62       ?do_filltime_change@@YAXXZ 00414f62 f   calc.obj
 0001:0001402d       ?do_gate_velocity_change@@YAXXZ 0041502d f   calc.obj
 0001:0001410f       ?end_density_dialog@@YAXXZ 0041510f f   calc.obj
 0001:00014129       ?fill_calculator_statics@@YAXPAUHWND__@@@Z 00415129 f   calc.obj
 0001:000142c8       ?fill_controls@@YAXXZ      004152c8 f   calc.obj
 0001:00014792       ?get_currently_selected_density@@YAXXZ 00415792 f   calc.obj
 0001:00014833       ?get_ton_conversion@@YAXXZ 00415833 f   calc.obj
 0001:0001489d       ?init_density_dialog@@YAXXZ 0041589d f   calc.obj
 0001:00014b75       ?refresh_density_listbox_entry@@YAXXZ 00415b75 f   calc.obj
 0001:00014fa6       ?set_tab_stops@@YAXXZ      00415fa6 f   calc.obj
 0001:00015073       ?shutdown_calculator@@YAXXZ 00416073 f   calc.obj
 0001:0001508d       ?update_calculations@@YAXXZ 0041608d f   calc.obj
 0001:000157e1       ?update_density@@YAXXZ     004167e1 f   calc.obj
 0001:00015886       ?update_distance_unit_labels@@YAXXZ 00416886 f   calc.obj
 0001:00015a88       ?update_velocity_unit_labels@@YAXXZ 00416a88 f   calc.obj
 0001:00015bb2       ?update_weight_unit_labels@@YAXXZ 00416bb2 f   calc.obj
 0001:00015eb4       ?file_type@@YAHPA_W@Z      00416eb4 f   v5subs:exists.obj
 0001:000161f4       ?numberlen@@YAFPB_W@Z      004171f4 f   v5subs:extract.obj
 0001:00017d11       ?kill_sensor_array@@YAXXZ  00418d11 f   v5subs:asensor.obj
 0001:00018342       ?add_field_delimiter@@YAXPA_W@Z 00419342 f   v5subs:dbsubs.obj
 0001:00018762       ?fieldlength@@YAFPB_W@Z    00419762 f   v5subs:dbsubs.obj
 0001:0001912f       ?trim_text@@YAFPA_WF@Z     0041a12f f   v5subs:dbsubs.obj
 0001:00019985       ?goto_next_string@@YAPA_WPA_W@Z 0041a985 f   v5subs:fontclas.obj
 0001:00019999       ?long_from_text@@YAJPB_W@Z 0041a999 f   v5subs:fontclas.obj
 0001:00019b4c       ?check_for_unicode_ini_file@@YAXPB_W0@Z 0041ab4c f   v5subs:iniclass.obj
 0001:0001b7a9       ?get_binary_valve_settings_from_control_all@@YAXAAVMACHINE_CLASS@@@Z 0041c7a9 f   v5subs:machine.obj
 0001:0001fb87       ?get_ft_target_list@@YA_NPA_NAAVSTRING_CLASS@@11@Z 00420b87 f   v5subs:ftanalog.obj
 0001:000213ae       ?float_value@@YANPA_W@Z    004223ae f   v5subs:stsetup.obj
 0001:000214b1       ?is_percent@@YAEPA_W@Z     004224b1 f   v5subs:stsetup.obj
 0001:000218f0       ?init_systemtime@@YAXAAU_SYSTEMTIME@@@Z 004228f0 f   v5subs:timeclas.obj
 0001:00021975       ?leap_index@@YAHH@Z        00422975 f   v5subs:timeclas.obj
 0001:000230cf       $LN123                     004240cf     v5subs:unitadj.obj
 0001:000232fb       ?check_led_click@@YAEJ@Z   004242fb f   v5subs:choose_wire.obj
 0001:000234be       ?check_window_height@@YAXXZ 004244be f   v5subs:choose_wire.obj
 0001:00023c25       ?cleanup_bitmaps@@YAXXZ    00424c25 f   v5subs:choose_wire.obj
 0001:00023ccf       ?do_led_tab@@YAX_W@Z       00424ccf f   v5subs:choose_wire.obj
 0001:00023d13       ?draw_wire@@YAXPAUHDC__@@AAVRECTANGLE_CLASS@@NN@Z 00424d13 f   v5subs:choose_wire.obj
 0001:00023db6       ?fill_choose_wire_statics@@YAXPAUHWND__@@@Z 00424db6 f   v5subs:choose_wire.obj
 0001:00023e34       ?fill_output_wire_statics@@YAXPAUHWND__@@@Z 00424e34 f   v5subs:choose_wire.obj
 0001:00023f25       ?paint_me@@YAXPAUHWND__@@@Z 00424f25 f   v5subs:choose_wire.obj
 0001:000243da       ?position_ft_output_wire_dialog@@YAXPAUHWND__@@@Z 004253da f   v5subs:choose_wire.obj
 0001:00024449       ?read_bitmap@@YAPAUtagBITMAPFILEHEADER@@AAVNAME_CLASS@@@Z 00425449 f   v5subs:choose_wire.obj
 0001:000244eb       ?read_bitmaps@@YAEXZ       004254eb f   v5subs:choose_wire.obj
 0001:00024592       ?redisplay@@YAXPAUHWND__@@H@Z 00425592 f   v5subs:choose_wire.obj
 0001:00024679       ?save_ft_output_wire@@YAXPAUHWND__@@@Z 00425679 f   v5subs:choose_wire.obj
 0001:000246be       ?save_position@@YAXPAUHWND__@@@Z 004256be f   v5subs:choose_wire.obj
 0001:00024724       ?show_wire_info@@YAXXZ     00425724 f   v5subs:choose_wire.obj
 0001:000254b0       ?find_existing_event_item@@YAPAUEVENT_ITEM_ENTRY@@PAUEVENT_ENTRY@@F@Z 004264b0 f   v5subs:client.obj
 0001:000254e9       ?find_existing_event_topic@@YAPAUEVENT_ENTRY@@PA_W@Z 004264e9 f   v5subs:client.obj
 0001:00025ff0       ?append_check_digit@@YAEAAVSTRING_CLASS@@@Z 00426ff0 f   v5subs:shot_name.obj
 0001:00026c1d       ?units_index@@YAFF@Z       00427c1d f   v5subs:units.obj
 0001:00026de2       ?copy_parameter_names@@YAEAAVPART_CLASS@@0@Z 00427de2 f   v5subs:copypart.obj
 0001:00028c8b       ?paint_temp_message@@YAXXZ 00429c8b f   v5subs:temp_message.obj
 0001:00028d28       ?position_temp_message@@YAXPAUHWND__@@@Z 00429d28 f   v5subs:temp_message.obj
 0001:0002a8ee       ?variable_number@@YAHPB_W@Z 0042b8ee f   v5subs:ftiiclas.obj
 0001:0002b1f0       ?add_err_number@@YAXPA_WF@Z 0042c1f0 f   v5subs:error_ms.obj
 0001:0002b272       ?add_string@@YAXPA_W@Z     0042c272 f   v5subs:error_ms.obj
 0001:0002b2f2       ?wait_for_key@@YAXXZ       0042c2f2 f   v5subs:error_ms.obj
 0001:0002b3f2       ?get_static_exe_directory@@YAXXZ 0042c3f2 f   v5subs:gexedir.obj
 0001:0002ba23       ?ftoasc@@YAXPA_WNH@Z       0042ca23 f   v5subs:ftoasc.obj
 0001:0002bcb3       ?add_seconds_to_systemtime@@YAEAAU_SYSTEMTIME@@J@Z 0042ccb3 f   v5subs:shift.obj
 0001:0002bd8a       ?shift_index@@YAFABU_SYSTEMTIME@@@Z 0042cd8a f   v5subs:shift.obj
 0001:0002c011       __onexit_nolock            0042d011 f   LIBCMT:onexit.obj
 0001:0002c300       $$000000                   0042d300     LIBCMT:ceil_pentium4.obj
 0001:0002c430       $$000000                   0042d430     LIBCMT:ftol3.obj
 0001:0002c800       $$000000                   0042d800     LIBCMT:ftol2.obj
 0001:0002c959       ___tmainCRTStartup         0042d959 f   LIBCMT:wincrt0.obj
 0001:0002caa9       _fast_error_exit           0042daa9 f   LIBCMT:wincrt0.obj
 0001:0002cc84       ?strtoxl@@YAKPAUlocaleinfo_struct@@PBDPAPBDHH@Z 0042dc84 f   LIBCMT:strtol.obj
 0001:0002cf00       $$000000                   0042df00     LIBCMT:memset.obj
 0001:0002cf90       $$000000                   0042df90     LIBCMT:memcpy.obj
 0001:0002d1e0       LeadUpVec                  0042e1e0     LIBCMT:memcpy.obj
 0001:0002d25c       UnwindUpVec                0042e25c     LIBCMT:memcpy.obj
 0001:0002d2c8       TrailUpVec                 0042e2c8     LIBCMT:memcpy.obj
 0001:0002d36c       LeadDownVec                0042e36c     LIBCMT:memcpy.obj
 0001:0002d3f8       UnwindDownVec              0042e3f8     LIBCMT:memcpy.obj
 0001:0002d464       TrailDownVec               0042e464     LIBCMT:memcpy.obj
 0001:0002d5e0       $$000000                   0042e5e0     LIBCMT:chkstk.obj
 0001:0002d610       $$000000                   0042e610     LIBCMT:log10.obj
 0001:0002d760       $$000000                   0042e760     LIBCMT:floor_pentium4.obj
 0001:0002d890       $$000000                   0042e890     LIBCMT:ulldiv.obj
 0001:0002d900       $$000000                   0042e900     LIBCMT:memmove.obj
 0001:0002db50       LeadUpVec                  0042eb50     LIBCMT:memmove.obj
 0001:0002dbcc       UnwindUpVec                0042ebcc     LIBCMT:memmove.obj
 0001:0002dc38       TrailUpVec                 0042ec38     LIBCMT:memmove.obj
 0001:0002dcdc       LeadDownVec                0042ecdc     LIBCMT:memmove.obj
 0001:0002dd68       UnwindDownVec              0042ed68     LIBCMT:memmove.obj
 0001:0002ddd4       TrailDownVec               0042edd4     LIBCMT:memmove.obj
 0001:0002df44       ?_fpcvt@@YAHPADIPAU_strflt@@HPAH2@Z 0042ef44 f   LIBCMT:fcvt.obj
 0001:0002e425       __initterm                 0042f425 f   LIBCMT:crt0dat.obj
 0001:0002e48f       _doexit                    0042f48f f   LIBCMT:crt0dat.obj
 0001:0002e6e0       $$000000                   0042f6e0     LIBCMT:sehprolg4.obj
 0001:0002ef6d       $LN79                      0042ff6d     LIBCMT:libm_error.obj
 0001:0002f900       $$000000                   00430900     LIBCMT:strcmp.obj
 0001:0002fe1e       __cftoe2_l                 00430e1e f   LIBCMT:cvt.obj
 0001:0003003d       __cftof2_l                 0043103d f   LIBCMT:cvt.obj
 0001:00030473       __shift                    00431473 f   LIBCMT:cvt.obj
 0001:00030d09       _parse_cmdline             00431d09 f   LIBCMT:stdargv.obj
 0001:000319d4       ?CPtoLocaleName@@YAPB_WH@Z 004329d4 f   LIBCMT:mbctype.obj
 0001:00031a0e       ?getSystemCP@@YAHH@Z       00432a0e f   LIBCMT:mbctype.obj
 0001:00031a7c       ?setSBCS@@YAXPAUthreadmbcinfostruct@@@Z 00432a7c f   LIBCMT:mbctype.obj
 0001:00031adb       ?setSBUpLow@@YAXPAUthreadmbcinfostruct@@@Z 00432adb f   LIBCMT:mbctype.obj
 0001:00032280       $$000000                   00433280     LIBCMT:log10_pentium4.obj
 0001:00032510       $$000000                   00433510     LIBCMT:87tran.obj
 0001:00032710       $$000000                   00433710     LIBCMT:87disp.obj
 0001:000328e0       $$000000                   004338e0     LIBCMT:common.obj
 0001:00032a70       $$000000                   00433a70     LIBCMT:genexcep.obj
 0001:00032e00       $$000000                   00433e00     LIBCMT:strlen.obj
 0001:00033387       _siglookup                 00434387 f   LIBCMT:winsig.obj
 0001:00033500       $$000000                   00434500     LIBCMT:exsup4.obj
 0001:00033590       __unwind_handler4          00434590 f   LIBCMT:exsup4.obj
 0001:00033ad0       $$000000                   00434ad0     LIBCMT:strrchr.obj
 0001:00033d60       $$000000                   00434d60     LIBCMT:lldvrm.obj
 0001:00033e40       $$000000                   00434e40     LIBCMT:ullshr.obj
 0001:00034035       ?x_ismbbtype_l@@YAHPAUlocaleinfo_struct@@IHH@Z 00435035 f   LIBCMT:ismbbyte.obj
 0001:00035686       $LN333                     00436686     LIBCMT:strgtold.obj
 0001:00035b99       ?__crtLCMapStringA_stat@@YAHPAUlocaleinfo_struct@@PB_WKPBDHPADHHH@Z 00436b99 f   LIBCMT:a_map.obj
 0001:00035e01       ?__crtGetStringTypeA_stat@@YAHPAUlocaleinfo_struct@@KPBDHPAGHH@Z 00436e01 f   LIBCMT:a_str.obj
 0001:00036e9f       _flsall                    00437e9f f   LIBCMT:fflush.obj
 0001:00036f90       $$000000                   00437f90     LIBCMT:exsup.obj
 0001:00036fb0       __unwind_handler           00437fb0 f   LIBCMT:exsup.obj
 0001:000370d0       $$000000                   004380d0     LIBCMT:ulldvrm.obj
 0001:00037165       ___hw_cw_sse2              00438165 f   LIBCMT:ieee87.obj
 0001:00037510       __hw_cw                    00438510 f   LIBCMT:ieee87.obj
 0001:00037830       $$000000                   00438830     LIBCMT:alloca16.obj
 0001:00038780       $$000000                   00439780     LIBCMT:llmul.obj
 0001:000389cc       ??__FCurrentFtAnalog@@YAXXZ 004399cc f   editpart.obj
 0001:000389d6       ??__FCurrentFtCalc@@YAXXZ  004399d6 f   editpart.obj
 0001:000389e0       ??__FCurrentLimitSwitch@@YAXXZ 004399e0 f   editpart.obj
 0001:000389ea       ??__FCurrentMachine@@YAXXZ 004399ea f   editpart.obj
 0001:000389f4       ??__FCurrentMarks@@YAXXZ   004399f4 f   editpart.obj
 0001:000389fe       ??__FCurrentParam@@YAXXZ   004399fe f   editpart.obj
 0001:00038a08       ??__FCurrentPart@@YAXXZ    00439a08 f   editpart.obj
 0001:00038a12       ??__FCurrentSort@@YAXXZ    00439a12 f   editpart.obj
 0001:00038a1c       ??__FFontList@@YAXXZ       00439a1c f   editpart.obj
 0001:00038a26       ??__FHaveStModTbox@@YAXXZ  00439a26 f   editpart.obj
 0001:00038a31       ??__FHmiNewPart@@YAXXZ     00439a31 f   editpart.obj
 0001:00038a3b       ??__FHmiOldPart@@YAXXZ     00439a3b f   editpart.obj
 0001:00038a45       ??__FMultipartLbClass@@YAXXZ 00439a45 f   editpart.obj
 0001:00038a4f       ??__FParamLimitLb@@YAXXZ   00439a4f f   editpart.obj
 0001:00038a59       ??__FPressureControl@@YAXXZ 00439a59 f   editpart.obj
 0001:00038a63       ??__FRestrictedPartEntry@@YAXXZ 00439a63 f   editpart.obj
 0001:00038a6d       ??__FSaveChangesTitle@@YAXXZ 00439a6d f   editpart.obj
 0001:00038a77       ??__FStModList@@YAXXZ      00439a77 f   editpart.obj
 0001:00038a81       ??__FStringTable@@YAXXZ    00439a81 f   editpart.obj
 0001:00038a8b       ??__FSureTrakParam@@YAXXZ  00439a8b f   editpart.obj
 0001:00038a95       ??__FSureTrakPlot@@YAXXZ   00439a95 f   editpart.obj
 0001:00038a9f       ??__FSureTrakPlotWindow@@YAXXZ 00439a9f f   editpart.obj
 0001:00038aaa       ??__FSureTrakSetup@@YAXXZ  00439aaa f   editpart.obj
 0001:00038ab4       ??__FWarmup@@YAXXZ         00439ab4 f   editpart.obj
 0001:00038abe       ??__Fempty_entry@?1???AMULTIPART_LB_CLASS@@QAEAAVMULTIPART_LB_ENTRY@@H@Z@YAXXZ 00439abe f   editpart.obj
 0001:00038ac8       ??__Flb@?1??multipart_runlist_setup_dialog_proc@@YGHPAUHWND__@@IIJ@Z@YAXXZ 00439ac8 f   editpart.obj
 0001:00038ad2       ??__Fmlb@?1??save_all_parts_dialog_proc@@YGHPAUHWND__@@IIJ@Z@YAXXZ 00439ad2 f   editpart.obj
 0001:00038adc       ??__Fmrl@?1??copy_to_dialog_proc@@YGHPAUHWND__@@IIJ@Z@YAXXZ 00439adc f   editpart.obj
 0001:00038ae6       ??__Fori@?1??save_all_parts_dialog_proc@@YGHPAUHWND__@@IIJ@Z@YAXXZ 00439ae6 f   editpart.obj
 0001:00038af0       ??__Fplb@?1??save_all_parts_dialog_proc@@YGHPAUHWND__@@IIJ@Z@YAXXZ 00439af0 f   editpart.obj
 0001:00038afa       ??__Fs@?1??check_break_gain_values@@YA_NXZ@YAXXZ 00439afa f   editpart.obj
 0001:00038b04       ??__Fs@?1??save_all_parts_dialog_proc@@YGHPAUHWND__@@IIJ@Z@YAXXZ 00439b04 f   editpart.obj
 0001:00038b0e       ??__FMachineList@@YAXXZ    00439b0e f   partdata.obj
 0001:00038b18       ??__FFtEpUnitsCbox@@YAXXZ  00439b18 f   edparam.obj
 0001:00038b22       ??__FFtEpVartypeCbox@@YAXXZ 00439b22 f   edparam.obj
 0001:00038b2c       ??__FUnitsCbox@@YAXXZ      00439b2c f   edparam.obj
 0001:00038b36       ??__FVartypeCbox@@YAXXZ    00439b36 f   edparam.obj
 0001:00038b40       ??__FVartypes@@YAXXZ       00439b40 f   edparam.obj
 0001:00038b4a       ??__Fend_point_ebox@?1??ft_analog_proc@@YGHPAUHWND__@@IIJ@Z@YAXXZ 00439b4a f   edparam.obj
 0001:00038b55       ??__Fend_point_tbox@?1??ft_analog_proc@@YGHPAUHWND__@@IIJ@Z@YAXXZ 00439b55 f   edparam.obj
 0001:00038b60       ??__Fnoname@?1??name@VARTYPE_CLASS@@QAEAAVSTRING_CLASS@@G@Z@YAXXZ 00439b60 f   edparam.obj
 0001:00038b6a       ??__Fnoname@?1??name@VARTYPE_CLASS@@QAEAAVSTRING_CLASS@@XZ@YAXXZ 00439b6a f   edparam.obj
 0001:00038b74       ??__Fstart_point_tbox@?1??ft_analog_proc@@YGHPAUHWND__@@IIJ@Z@YAXXZ 00439b74 f   edparam.obj
 0001:00038b7f       ??__FDensity@@YAXXZ        00439b7f f   calc.obj
 0001:00038b89       ??__FDensityUnitsId@@YAXXZ 00439b89 f   calc.obj
 0001:00038b93       ??__FEmptyString@@YAXXZ    00439b93 f   v5subs:nameclas.obj
 0001:00038b9d       ??__FEmptySensor@@YAXXZ    00439b9d f   v5subs:asensor.obj
 0001:00038ba7       ??__FMyComputer@@YAXXZ     00439ba7 f   v5subs:computer.obj
 0001:00038bb1       ??__FNoComputer@@YAXXZ     00439bb1 f   v5subs:computer.obj
 0001:00038bbb       ??__Fmyemptystring@?1???ALIMIT_SWITCH_DESC_CLASS@@QAEAAVSTRING_CLASS@@H@Z@YAXXZ 00439bbb f   v5subs:limit_switch_class.obj
 0001:00038bc5       ??__Fmyemptystring@?1???ALIMIT_SWITCH_POS_CLASS@@QAEAAVSTRING_CLASS@@H@Z@YAXXZ 00439bc5 f   v5subs:limit_switch_class.obj
 0001:00038bcf       ??__Fmyemptystring@?1???ALIMIT_SWITCH_WIRE_CLASS@@QAEAAVSTRING_CLASS@@H@Z@YAXXZ 00439bcf f   v5subs:limit_switch_class.obj
 0001:00038bd9       ??__Fempty_entry@@YAXXZ    00439bd9 f   v5subs:setpoint.obj
 0001:00038bed       ??__FBaseDir@@YAXXZ        00439bed f   v5subs:stringtable.obj
 0001:00038bf7       ??__FDefaultLanguage@@YAXXZ 00439bf7 f   v5subs:stringtable.obj
 0001:00038c01       ??__FFontList@@YAXXZ       00439c01 f   v5subs:stringtable.obj
 0001:00038c0b       ??__FResources@@YAXXZ      00439c0b f   v5subs:stringtable.obj
 0001:00038c15       ??__Fs@?1??find@STRINGTABLE_CLASS@@QAEPA_WPA_W@Z@YAXXZ 00439c15 f   v5subs:stringtable.obj
 0001:00038c1f       ??__FDefaultBreakGain@@YAXXZ 00439c1f f   v5subs:stsetup.obj
 0001:00038c29       ??__FDefaultBreakVelocity@@YAXXZ 00439c29 f   v5subs:stsetup.obj
 0001:00038c33       ??__FZeroPointZero@@YAXXZ  00439c33 f   v5subs:stsetup.obj
 0001:00038c3d       ??__FChooseWireCtrl@@YAXXZ 00439c3d f   v5subs:choose_wire.obj
 0001:00038c48       ??__FControlLedRect@@YAXXZ 00439c48 f   v5subs:choose_wire.obj
 0001:00038c62       ??__FControlWireRect@@YAXXZ 00439c62 f   v5subs:choose_wire.obj
 0001:00038c7c       ??__FMonitorLedRect@@YAXXZ 00439c7c f   v5subs:choose_wire.obj
 0001:00038c96       ??__FMonitorWireRect@@YAXXZ 00439c96 f   v5subs:choose_wire.obj
 0001:00038cb0       ??__FWireInfoTbox@@YAXXZ   00439cb0 f   v5subs:choose_wire.obj
 0001:00038cbb       ??__FWireSorc@@YAXXZ       00439cbb f   v5subs:choose_wire.obj
 0001:00038cc6       ??__FEventList@@YAXXZ      00439cc6 f   v5subs:client.obj
 0001:00038cd0       ??__Fs@?1??one_hot_link@@YAXPAUHCONV__@@FI@Z@YAXXZ 00439cd0 f   v5subs:client.obj
 0001:00038cda       ??__FMyEmptyString@@YAXXZ  00439cda f   v5subs:shot_name_reset.obj
 0001:00038ce4       ??__FEmptyString@@YAXXZ    00439ce4 f   v5subs:machname.obj
 0001:00038cee       ??__FExeDirectory@@YAXXZ   00439cee f   v5subs:gexedir.obj
 0002:00000394       _FontList$initializer$     0043a394     editpart.obj
 0002:00000398       _ParamLimitLb$initializer$ 0043a398     editpart.obj
 0002:0000039c       _SureTrakPlotWindow$initializer$ 0043a39c     editpart.obj
 0002:000003a0       _SureTrakPlot$initializer$ 0043a3a0     editpart.obj
 0002:000003a4       _SureTrakSetup$initializer$ 0043a3a4     editpart.obj
 0002:000003a8       _SureTrakParam$initializer$ 0043a3a8     editpart.obj
 0002:000003ac       _PressureControl$initializer$ 0043a3ac     editpart.obj
 0002:000003b0       _Warmup$initializer$       0043a3b0     editpart.obj
 0002:000003b4       _HmiOldPart$initializer$   0043a3b4     editpart.obj
 0002:000003b8       _HmiNewPart$initializer$   0043a3b8     editpart.obj
 0002:000003bc       _CurrentMachine$initializer$ 0043a3bc     editpart.obj
 0002:000003c0       _CurrentPart$initializer$  0043a3c0     editpart.obj
 0002:000003c4       _CurrentParam$initializer$ 0043a3c4     editpart.obj
 0002:000003c8       _CurrentSort$initializer$  0043a3c8     editpart.obj
 0002:000003cc       _CurrentMarks$initializer$ 0043a3cc     editpart.obj
 0002:000003d0       _CurrentFtAnalog$initializer$ 0043a3d0     editpart.obj
 0002:000003d4       _CurrentFtCalc$initializer$ 0043a3d4     editpart.obj
 0002:000003d8       _CurrentLimitSwitch$initializer$ 0043a3d8     editpart.obj
 0002:000003dc       _StringTable$initializer$  0043a3dc     editpart.obj
 0002:000003e0       _StModList$initializer$    0043a3e0     editpart.obj
 0002:000003e4       _SaveChangesTitle$initializer$ 0043a3e4     editpart.obj
 0002:000003e8       _HaveStModTbox$initializer$ 0043a3e8     editpart.obj
 0002:000003ec       _RestrictedPartEntry$initializer$ 0043a3ec     editpart.obj
 0002:000003f0       _MultipartLbClass$initializer$ 0043a3f0     editpart.obj
 0002:000003f4       _MachineList$initializer$  0043a3f4     partdata.obj
 0002:000003f8       _UnitsCbox$initializer$    0043a3f8     edparam.obj
 0002:000003fc       _VartypeCbox$initializer$  0043a3fc     edparam.obj
 0002:00000400       _FtEpUnitsCbox$initializer$ 0043a400     edparam.obj
 0002:00000404       _FtEpVartypeCbox$initializer$ 0043a404     edparam.obj
 0002:00000408       _Vartypes$initializer$     0043a408     edparam.obj
 0002:0000040c       _Density$initializer$      0043a40c     calc.obj
 0002:00000410       _DensityUnitsId$initializer$ 0043a410     calc.obj
 0002:00000414       _EmptyString$initializer$  0043a414     v5subs:nameclas.obj
 0002:00000418       _MyComputer$initializer$   0043a418     v5subs:nameclas.obj
 0002:0000041c       _EmptySensor$initializer$  0043a41c     v5subs:asensor.obj
 0002:00000420       _MyComputer$initializer$   0043a420     v5subs:computer.obj
 0002:00000424       _NoComputer$initializer$   0043a424     v5subs:computer.obj
 0002:00000428       _empty_entry$initializer$  0043a428     v5subs:setpoint.obj
 0002:0000042c       _BaseDir$initializer$      0043a42c     v5subs:stringtable.obj
 0002:00000430       _DefaultLanguage$initializer$ 0043a430     v5subs:stringtable.obj
 0002:00000434       _FontList$initializer$     0043a434     v5subs:stringtable.obj
 0002:00000438       _Resources$initializer$    0043a438     v5subs:stringtable.obj
 0002:0000043c       _ZeroPointZero$initializer$ 0043a43c     v5subs:stsetup.obj
 0002:00000440       _DefaultBreakVelocity$initializer$ 0043a440     v5subs:stsetup.obj
 0002:00000444       _DefaultBreakGain$initializer$ 0043a444     v5subs:stsetup.obj
 0002:00000448       _WireSorc$initializer$     0043a448     v5subs:choose_wire.obj
 0002:0000044c       _WireInfoTbox$initializer$ 0043a44c     v5subs:choose_wire.obj
 0002:00000450       _ControlLedRect$initializer$ 0043a450     v5subs:choose_wire.obj
 0002:00000454       _ControlWireRect$initializer$ 0043a454     v5subs:choose_wire.obj
 0002:00000458       _MonitorLedRect$initializer$ 0043a458     v5subs:choose_wire.obj
 0002:0000045c       _MonitorWireRect$initializer$ 0043a45c     v5subs:choose_wire.obj
 0002:00000460       _ChooseWireCtrl$initializer$ 0043a460     v5subs:choose_wire.obj
 0002:00000464       _EventList$initializer$    0043a464     v5subs:client.obj
 0002:00000468       _MyEmptyString$initializer$ 0043a468     v5subs:shot_name_reset.obj
 0002:0000046c       _EmptyString$initializer$  0043a46c     v5subs:machname.obj
 0002:00000470       _ExeDirectory$initializer$ 0043a470     v5subs:gexedir.obj
 0002:0000047c       _pinit                     0043a47c     LIBCMT:onexit.obj
 0002:00000480       _pinit                     0043a480     LIBCMT:mathfcns.obj
 0002:00000484       _pinit                     0043a484     LIBCMT:cpu_disp.obj
 0002:00000488       _pinit                     0043a488     LIBCMT:mbctype.obj
 0002:0000048c       _pinit                     0043a48c     LIBCMT:_file.obj
 0002:00000490       _pinit                     0043a490     LIBCMT:wincrt0.obj
 0002:0000049c       _pterm                     0043a49c     LIBCMT:wsetloca.obj
 0002:000004a0       _pterm                     0043a4a0     LIBCMT:initcon.obj
 0002:000004a4       _pterm                     0043a4a4     LIBCMT:_file.obj
 0002:000011e4       ?warmup_control@?1??show_warmup_controls@@YAXXZ@4QBHB 0043b1e4     editpart.obj
 0002:0000180c       ?warmup_control@?1??suretrak_profile_proc@@YGHPAUHWND__@@IIJ@Z@4QBHB 0043b80c     editpart.obj
 0002:00003634       _PressureLabel             0043d634     calc.obj
 0002:0000363c       _DistanceLabel             0043d63c     calc.obj
 0002:0000365c       _DistanceValue             0043d65c     calc.obj
 0002:0000366c       _AreaLabel                 0043d66c     calc.obj
 0002:0000367c       _AreaValue                 0043d67c     calc.obj
 0002:00003688       _VolumeLabel               0043d688     calc.obj
 0002:0000369c       _VelocityLabel             0043d69c     calc.obj
 0002:000036a4       _VelocityValue             0043d6a4     calc.obj
 0002:000036a8       _WeightLabel               0043d6a8     calc.obj
 0002:000036c4       _WeightValue               0043d6c4     calc.obj
 0002:000036d0       _SaveBoxes                 0043d6d0     calc.obj
 0002:00003700       _LbsPerTonKey              0043d700     calc.obj
 0002:00003714       _SyncPlungerDiameterKey    0043d714     calc.obj
 0002:00003c90       _MAX_RAW_COUNTS            0043dc90     v5subs:asensor.obj
 0002:00003d24       _RECORD_DELIMITER_STRING   0043dd24     v5subs:dbsubs.obj
 0002:00003d2c       _EmptyString               0043dd2c     v5subs:dbsubs.obj
 0002:00003e7c       _ResetCmd                  0043de7c     v5subs:listbox.obj
 0002:00003e84       _AddCmd                    0043de84     v5subs:listbox.obj
 0002:00003e8c       _DeleteCmd                 0043de8c     v5subs:listbox.obj
 0002:00003e94       _GetCurSelCmd              0043de94     v5subs:listbox.obj
 0002:00003e9c       _SetCurSelCmd              0043de9c     v5subs:listbox.obj
 0002:00003ea4       _FindStringCmd             0043dea4     v5subs:listbox.obj
 0002:00003eac       _FindPrefixCmd             0043deac     v5subs:listbox.obj
 0002:00003eb4       _GetCountCmd               0043deb4     v5subs:listbox.obj
 0002:00003ebc       _GetTextCmd                0043debc     v5subs:listbox.obj
 0002:00003ec4       _GetTextLenCmd             0043dec4     v5subs:listbox.obj
 0002:00003ecc       _InsertCmd                 0043decc     v5subs:listbox.obj
 0002:00003ed4       _CmdError                  0043ded4     v5subs:listbox.obj
 0002:00003ff0       _ConfigSection             0043dff0     v5subs:machine.obj
 0002:00004000       _FlashVersionKey           0043e000     v5subs:machine.obj
 0002:000052a8       _Cursors                   0043f2a8     v5subs:rectclas.obj
 0002:00005780       _CrLf                      0043f780     v5subs:client.obj
 0002:00005830       _MinPosDouble              0043f830     v5subs:zero.obj
 0002:00005838       _MinNegDouble              0043f838     v5subs:zero.obj
 0002:000058b8       _CheckDigitTag             0043f8b8     v5subs:shot_name.obj
 0002:000058d4       _HondaYearTag              0043f8d4     v5subs:shot_name.obj
 0002:000058e0       _YearTag                   0043f8e0     v5subs:shot_name.obj
 0002:000058ec       _ShiftYearTag              0043f8ec     v5subs:shot_name.obj
 0002:000058f8       _ShiftHondaYearTag         0043f8f8     v5subs:shot_name.obj
 0002:00005904       _HexMonthTag               0043f904     v5subs:shot_name.obj
 0002:00005910       _MonthTag                  0043f910     v5subs:shot_name.obj
 0002:0000591c       _ShiftHexMonthTag          0043f91c     v5subs:shot_name.obj
 0002:00005928       _ShiftMonthTag             0043f928     v5subs:shot_name.obj
 0002:00005934       _DayTag                    0043f934     v5subs:shot_name.obj
 0002:00005940       _ShiftDayTag               0043f940     v5subs:shot_name.obj
 0002:0000594c       _ShiftTag                  0043f94c     v5subs:shot_name.obj
 0002:0000595c       _JulianTag                 0043f95c     v5subs:shot_name.obj
 0002:00005964       _ShiftJulianTag            0043f964     v5subs:shot_name.obj
 0002:00005970       _HoursTag                  0043f970     v5subs:shot_name.obj
 0002:00005ae8       _UnknownString             0043fae8     v5subs:winsubs.obj
 0002:00005bd8       _ZeroPointZero             0043fbd8     v5subs:dtotchar.obj
 0002:00005dfc       _PeriodString              0043fdfc     v5subs:ftoasc.obj
 0002:00005e00       _ZeroPointZero             0043fe00     v5subs:ftoasc.obj
 0002:00005e50       ?s@?1??is_hex_char@@YAE_W@Z@4QB_WB 0043fe50     v5subs:hex.obj
 0002:00005e9c       _GS_ExceptionPointers      0043fe9c     LIBCMT:gs_report.obj
 0002:00005eb0       _One                       0043feb0     LIBCMT:ceil_pentium4.obj
 0002:00005ec0       _Bns                       0043fec0     LIBCMT:ceil_pentium4.obj
 0002:00005ed0       _Zero                      0043fed0     LIBCMT:ceil_pentium4.obj
 0002:00005ee0       _S                         0043fee0     LIBCMT:ceil_pentium4.obj
 0002:00005ef0       _NegZero                   0043fef0     LIBCMT:ceil_pentium4.obj
 0002:00005f00       _Int32ToUInt32             0043ff00     LIBCMT:ftol3.obj
 0002:00005f10       _MantissaMask              0043ff10     LIBCMT:ftol3.obj
 0002:00005f18       _IntegerBit                0043ff18     LIBCMT:ftol3.obj
 0002:00005f20       _SignBit64                 0043ff20     LIBCMT:ftol3.obj
 0002:00005f28       _MinFP64                   0043ff28     LIBCMT:ftol3.obj
 0002:00005f30       _MinInt64                  0043ff30     LIBCMT:ftol3.obj
 0002:00005f38       _MaxInt64                  0043ff38     LIBCMT:ftol3.obj
 0002:00005f40       _MaxUInt64                 0043ff40     LIBCMT:ftol3.obj
 0002:00005f48       _MaxFP32                   0043ff48     LIBCMT:ftol3.obj
 0002:00005f50       _MinFP32                   0043ff50     LIBCMT:ftol3.obj
 0002:00005f58       _MinSubInexact             0043ff58     LIBCMT:ftol3.obj
 0002:00005f60       _FpExcptTable              0043ff60     LIBCMT:ftol3.obj
 0002:00005f70       _i1075                     0043ff70     LIBCMT:ftol3.obj
 0002:00005f74       _i1087                     0043ff74     LIBCMT:ftol3.obj
 0002:00005f78       _x0800                     0043ff78     LIBCMT:ftol3.obj
 0002:00005f7c       _x17FF                     0043ff7c     LIBCMT:ftol3.obj
 0002:00005f80       _CWMask                    0043ff80     LIBCMT:ftol3.obj
 0002:00005f90       _One                       0043ff90     LIBCMT:floor_pentium4.obj
 0002:00005fa0       _Bns                       0043ffa0     LIBCMT:floor_pentium4.obj
 0002:00005fb0       _NegOne                    0043ffb0     LIBCMT:floor_pentium4.obj
 0002:00005fc0       _NegZero                   0043ffc0     LIBCMT:floor_pentium4.obj
 0002:00005fd0       _S                         0043ffd0     LIBCMT:floor_pentium4.obj
 0002:00006000       ?ExceptionTemplate@?1??_CxxThrowException@@9@8@4UEHExceptionRecord@@B 00440000     LIBCMT:throw.obj
 0002:00006328       _INF                       00440328     LIBCMT:libm_error.obj
 0002:00006338       _BIG                       00440338     LIBCMT:libm_error.obj
 0002:00006348       _ZERO                      00440348     LIBCMT:libm_error.obj
 0002:00006358       _INF_32                    00440358     LIBCMT:libm_error.obj
 0002:00006360       _NAN_32                    00440360     LIBCMT:libm_error.obj
 0002:00006368       _ZERO_32                   00440368     LIBCMT:libm_error.obj
 0002:00006370       _libm_largef               00440370     LIBCMT:libm_error.obj
 0002:00006378       _libm_smallf               00440378     LIBCMT:libm_error.obj
 0002:00006380       _libm_small                00440380     LIBCMT:libm_error.obj
 0002:00006508       _rterrs                    00440508     LIBCMT:crt0msg.obj
 0002:00006f64       __mb_locale_names          00440f64     LIBCMT:mbctype.obj
 0002:000072d0       __first_127char            004412d0     LIBCMT:wsetloca.obj
 0002:00007350       emask                      00441350     LIBCMT:log10_pentium4.obj
 0002:00007360       CC                         00441360     LIBCMT:log10_pentium4.obj
 0002:00007370       Magic                      00441370     LIBCMT:log10_pentium4.obj
 0002:00007380       hi_mask                    00441380     LIBCMT:log10_pentium4.obj
 0002:00007390       LOG10_2                    00441390     LIBCMT:log10_pentium4.obj
 0002:000073a0       place_L                    004413a0     LIBCMT:log10_pentium4.obj
 0002:000073c0       One                        004413c0     LIBCMT:log10_pentium4.obj
 0002:000073d0       Zero                       004413d0     LIBCMT:log10_pentium4.obj
 0002:000073e0       Two52                      004413e0     LIBCMT:log10_pentium4.obj
 0002:000073f0       Infs                       004413f0     LIBCMT:log10_pentium4.obj
 0002:00007400       NaN                        00441400     LIBCMT:log10_pentium4.obj
 0002:00007410       coeff                      00441410     LIBCMT:log10_pentium4.obj
 0002:00007450       T_Tbl                      00441450     LIBCMT:log10_pentium4.obj
 0002:00007860       CB_Tbl                     00441860     LIBCMT:log10_pentium4.obj
 0002:00007c8e       _log2max                   00441c8e     LIBCMT:87tran.obj
 0002:00007c98       _smallarg                  00441c98     LIBCMT:87tran.obj
 0002:00007ca2       _half                      00441ca2     LIBCMT:87tran.obj
 0002:00007ce4       One                        00441ce4     LIBCMT:87disp.obj
 0002:00007cec       XAMtoTagTab                00441cec     LIBCMT:87disp.obj
 0002:00007d00       One                        00441d00     LIBCMT:common.obj
 0002:00007d14       DblMax                     00441d14     LIBCMT:common.obj
 0002:00007d1c       DblMin                     00441d1c     LIBCMT:common.obj
 0002:00007d24       IeeeAdjO                   00441d24     LIBCMT:common.obj
 0002:00007d2c       IeeeAdjU                   00441d2c     LIBCMT:common.obj
 0002:00007d34       _infinity                  00441d34     LIBCMT:common.obj
 0002:00007d3c       _zero                      00441d3c     LIBCMT:common.obj
 0002:00007d48       _tokenTable                00441d48     LIBCMT:undname.obj
 0002:00007d80       _nameTable                 00441d80     LIBCMT:undname.obj
 0002:00007ec0       _rttiTable                 00441ec0     LIBCMT:undname.obj
 0002:0000b128       __sehtable$__onexit        00445128     LIBCMT:onexit.obj
 0002:0000b148       __sehtable$___tmainCRTStartup 00445148     LIBCMT:wincrt0.obj
 0002:0000b168       __sehtable$_doexit         00445168     LIBCMT:crt0dat.obj
 0002:0000b188       __sehtable$?_Type_info_dtor@type_info@@CAXPAV1@@Z 00445188     LIBCMT:typname.obj
 0002:0000b1a8       __sehtable$__freefls@4     004451a8     LIBCMT:tidtable.obj
 0002:0000b1d0       __sehtable$__initptd       004451d0     LIBCMT:tidtable.obj
 0002:0000b1f8       __sehtable$__ioinit        004451f8     LIBCMT:ioinit.obj
 0002:0000b218       __sehtable$___updatetlocinfo 00445218     LIBCMT:localref.obj
 0002:0000b238       __sehtable$___updatetmbcinfo 00445238     LIBCMT:mbctype.obj
 0002:0000b258       __sehtable$__setmbcp       00445258     LIBCMT:mbctype.obj
 0002:0000b278       __sehtable$__locterm       00445278     LIBCMT:wsetloca.obj
 0002:0000b298       __sehtable$__mtinitlocknum 00445298     LIBCMT:mlock.obj
 0002:0000b2b8       __sehtable$__IsNonwritableInCurrentImage 004452b8     LIBCMT:pesect.obj
 0002:0000b2d8       __sehtable$?terminate@@YAXXZ 004452d8     LIBCMT:hooks.obj
 0002:0000b2f8       __sehtable$_raise          004452f8     LIBCMT:winsig.obj
 0002:0000b318       __sehtable$___set_fpsr_sse2 00445318     LIBCMT:fpctrl.obj
 0002:0000b338       __sehtable$_flsall         00445338     LIBCMT:fflush.obj
 0002:0000b360       __sehtable$__fcloseall     00445360     LIBCMT:closeall.obj
 0002:0000b380       __sehtable$__commit        00445380     LIBCMT:commit.obj
 0002:0000b3a0       __sehtable$__write         004453a0     LIBCMT:write.obj
 0002:0000b3c0       __sehtable$_fclose         004453c0     LIBCMT:fclose.obj
 0002:0000b3e0       __sehtable$___lock_fhandle 004453e0     LIBCMT:osfinfo.obj
 0002:0000b400       __sehtable$__close         00445400     LIBCMT:close.obj
 0002:0000b910       .idata$6                   00445910     kernel32:KERNEL32.dll
 0002:0000bd9c       .idata$6                   00445d9c     user32:USER32.dll
 0002:0000bec8       .idata$6                   00445ec8     gdi32:GDI32.dll
 0002:0000bf08       .idata$6                   00445f08     winspool:WINSPOOL.DRV
 0002:0000bf16       .idata$6                   00445f16     comctl32:COMCTL32.dll
 0002:0000c70e       .idata$6                   0044670e     shell32:SHELL32.dll
 0003:000005f8       _MyFont                    004475f8     editpart.obj
 0003:000005fc       _StaticsFont               004475fc     editpart.obj
 0003:00000600       _HmiCreateString           00447600     editpart.obj
 0003:00000610       _HmiMonitorString          00447610     editpart.obj
 0003:00000620       _HmiShowString             00447620     editpart.obj
 0003:00000cb4       _DialogName                00447cb4     editpart.obj
 0003:00000cd8       _CurrentDialogNumber       00447cd8     editpart.obj
 0003:00000cdc       _AlarmIndex                00447cdc     editpart.obj
 0003:00000cec       _NofDistanceButtons        00447cec     editpart.obj
 0003:00000cf0       _DistanceButton            00447cf0     editpart.obj
 0003:00000cfc       _DistanceUnits             00447cfc     editpart.obj
 0003:00000d04       _NofVelocityButtons        00447d04     editpart.obj
 0003:00000d08       _VelocityButton            00447d08     editpart.obj
 0003:00000d18       _VelocityUnits             00447d18     editpart.obj
 0003:00000d20       _GooseBox                  00447d20     editpart.obj
 0003:00000d2c       _MsBox                     00447d2c     editpart.obj
 0003:00000d38       _VelocityChangesLevel      00447d38     editpart.obj
 0003:00000e18       _LowerXString              00447e18     editpart.obj
 0003:00000e1c       _PercentString             00447e1c     editpart.obj
 0003:00000e20       _OneString                 00447e20     editpart.obj
 0003:00000e24       _ZeroString                00447e24     editpart.obj
 0003:00000e28       _CHANNEL_MODE_1            00447e28     editpart.obj
 0003:00000e2c       _CHANNEL_MODE_2            00447e2c     editpart.obj
 0003:00000e30       _CHANNEL_MODE_3            00447e30     editpart.obj
 0003:00000e34       _CHANNEL_MODE_4            00447e34     editpart.obj
 0003:00000e38       _CHANNEL_MODE_5            00447e38     editpart.obj
 0003:00000e3c       _CHANNEL_MODE_6            00447e3c     editpart.obj
 0003:00000e40       _CHANNEL_MODE_7            00447e40     editpart.obj
 0003:00000e44       _SureTrakPlotWindow        00447e44     editpart.obj
 0003:00000e4c       _StModList                 00447e4c     editpart.obj
 0003:00000e5c       _HaveStModTbox             00447e5c     editpart.obj
 0003:00000e64       ?lParam@?1??set_statics_font@@YAXAAVWINDOW_CLASS@@@Z@4JA 00447e64     editpart.obj
 0003:00000e68       ?FontName@?1??create_printer_font@@YAXPAUHDC__@@AAUtagRECT@@@Z@4PA_WA 00447e68     editpart.obj
 0003:00000e84       ?di@?1??print_part_setup@@YAXXZ@4U_DOCINFOW@@A 00447e84     editpart.obj
 0003:00000e98       ?new_gain_control@?1??show_new_gain_controls@@YAXPAUHWND__@@E@Z@4PAUCONTROL_ENTRY@?1??1@YAX0E@Z@A 00447e98     editpart.obj
 0003:00000eb0       ?xbox@?1??do_all_open_loop_xbox@@YAXPAUHWND__@@@Z@4PAHA 00447eb0     editpart.obj
 0003:00000ebc       ?pressurebox@?1??toggle_proportional_valve@@YAXPAUHWND__@@@Z@4PAHA 00447ebc     editpart.obj
 0003:00000ec8       ?old_volt_range_radio@?1??toggle_proportional_valve@@YAXPAUHWND__@@@Z@4HA 00447ec8     editpart.obj
 0003:00000ecc       ?control@?1??show_retctl_controls@@YAXPAUHWND__@@@Z@4PAHA 00447ecc     editpart.obj
 0003:00000ed8       ?control@?1??show_pres_controls@@YAXPAUHWND__@@@Z@4PAUCONTROL_ENTRY@?1??1@YAX0@Z@A 00447ed8     editpart.obj
 0003:00000fa0       ?id@?1??enable_sn_template_editbox@@YAXXZ@4PAHA 00447fa0     editpart.obj
 0003:00000fac       ?nof_ids@?1??enable_sn_template_editbox@@YAXXZ@4HA 00447fac     editpart.obj
 0003:00000fb0       ?multipart_runlist_ids@?1??refresh_advanced_setup@@YAXXZ@4PAIA 00447fb0     editpart.obj
 0003:00000fc8       ?nof_multipart_runlist_ids@?1??refresh_advanced_setup@@YAXXZ@4HA 00447fc8     editpart.obj
 0003:00000fcc       ?warmup_ids@?1??refresh_advanced_setup@@YAXXZ@4PAIA 00447fcc     editpart.obj
 0003:00000fe8       ?nof_warmup_ids@?1??refresh_advanced_setup@@YAXXZ@4HA 00447fe8     editpart.obj
 0003:00000ff0       ?SureTrakControlId@?1??enable_buttons@@YAXXZ@4PAHA 00447ff0     editpart.obj
 0003:000010d8       ?Ft2SureTrakControlId@?1??enable_buttons@@YAXXZ@4PAHA 004480d8     editpart.obj
 0003:000010e0       ?rsn@?1??set_zero_break_setup_strings@@YAXPAUHWND__@@@Z@4PAURESOURCE_TEXT_ENTRY@@A 004480e0     editpart.obj
 0003:000010f8       ?rsn@?1??set_no_last_setup_strings@@YAXPAUHWND__@@@Z@4PAURESOURCE_TEXT_ENTRY@@A 004480f8     editpart.obj
 0003:00001110       ?rsn@?1??set_nls_low_setup_strings@@YAXPAUHWND__@@@Z@4PAURESOURCE_TEXT_ENTRY@@A 00448110     editpart.obj
 0003:00001128       ?rsn@?1??set_missing_file_setup_strings@@YAXPAUHWND__@@@Z@4PAURESOURCE_TEXT_ENTRY@@A 00448128     editpart.obj
 0003:00001140       ?eid@?1??hide_fastrak_channels@@YAXXZ@4PAIA 00448140     editpart.obj
 0003:00001160       ?id@?1??hide_fastrak_channels@@YAXXZ@4PAIA 00448160     editpart.obj
 0003:00001190       ?firstime@?1??fill_parts@@YAXXZ@4_NA 00448190     editpart.obj
 0003:00001194       ?myid@?1??show_context_help@@YAHPAUHWND__@@J@Z@4PAIA 00448194     editpart.obj
 0003:000011a0       ?static_id@?1??show_context_help@@YAHPAUHWND__@@J@Z@4PAIA 004481a0     editpart.obj
 0003:000011bc       ?mycontext@?1??show_context_help@@YAHPAUHWND__@@J@Z@4PAKA 004481bc     editpart.obj
 0003:000011c8       ?static_context@?1??show_context_help@@YAHPAUHWND__@@J@Z@4PAKA 004481c8     editpart.obj
 0003:000011e8       ?static_help@?1??suretrak_profile_context_help@@YAXPAUHWND__@@J@Z@4PAUHELP_ENTRY@@A 004481e8     editpart.obj
 0003:00001258       ?static_id@?1??pressure_control_context_help@@YAHPAUHWND__@@J@Z@4PAIA 00448258     editpart.obj
 0003:00001288       ?static_context@?1??pressure_control_context_help@@YAHPAUHWND__@@J@Z@4PAKA 00448288     editpart.obj
 0003:000012b8       ?myid@?1??pressure_control_context_help@@YAHPAUHWND__@@J@Z@4PAIA 004482b8     editpart.obj
 0003:00001330       ?mycontext@?1??pressure_control_context_help@@YAHPAUHWND__@@J@Z@4PAKA 00448330     editpart.obj
 0003:000013a8       ?rlist@?1??update_pressure_control_profile_string_settings@@YAXPAUHWND__@@@Z@4PAURESOURCE_TEXT_ENTRY@@A 004483a8     editpart.obj
 0003:00001458       ?rlist@?1??update_suretrak_profile_string_settings@@YAXXZ@4PAURESOURCE_TEXT_ENTRY@@A 00448458     editpart.obj
 0003:00001518       ?rlist@?1??update_basic_setup_strings@@YAXPAUHWND__@@@Z@4PAURESOURCE_TEXT_ENTRY@@A 00448518     editpart.obj
 0003:00001590       ?rlist@?1??update_copy_to_string_settings@@YAXPAUHWND__@@@Z@4PAURESOURCE_TEXT_ENTRY@@A 00448590     editpart.obj
 0003:00001678       ?rlist@?1??update_copy_multiple_string_settings@@YAXXZ@4PAURESOURCE_TEXT_ENTRY@@A 00448678     editpart.obj
 0003:00001690       ?rlist@?1??update_static_text_parameter_string_settings@@YAXPAUHWND__@@@Z@4PAURESOURCE_TEXT_ENTRY@@A 00448690     editpart.obj
 0003:00001698       ?good_chars@?1??sub_proc@@YGJPAUHWND__@@IIJ@Z@4PA_WA 00448698     editpart.obj
 0003:000016a4       ?ADDPART_CAPTION@?1??fill_add_part_statics@@YAXPAUHWND__@@@Z@4PA_WA 004486a4     editpart.obj
 0003:000016bc       ?rlist@?1??fill_add_part_statics@@YAXPAUHWND__@@@Z@4PAURESOURCE_TEXT_ENTRY@@A 004486bc     editpart.obj
 0003:000016d4       ?ids@?1??set_parameter_listbox_tabs@@YAXPAUHWND__@@@Z@4PAHA 004486d4     editpart.obj
 0003:00001700       ?rlist@?1??update_new_parameter_string_settings@@YAXPAUHWND__@@@Z@4PAURESOURCE_TEXT_ENTRY@@A 00448700     editpart.obj
 0003:00001758       ?CAPTION@?1??fill_multipart_runlist_setup_statics@@YAXPAUHWND__@@@Z@4PA_WA 00448758     editpart.obj
 0003:00001788       ?rlist@?1??fill_multipart_runlist_setup_statics@@YAXPAUHWND__@@@Z@4PAURESOURCE_TEXT_ENTRY@@A 00448788     editpart.obj
 0003:000017b0       ?rlist@?1??shot_events_setup_strings@@YAXXZ@4PAURESOURCE_TEXT_ENTRY@@A 004487b0     editpart.obj
 0003:00001800       ?rlist@?1??update_parameter_limits_setup_strings@@YAXPAUHWND__@@@Z@4PAURESOURCE_TEXT_ENTRY@@A 00448800     editpart.obj
 0003:00001888       ?taskname@?1??edit_analog_sensors@@YAXXZ@4PA_WA 00448888     editpart.obj
 0003:000018a0       ?rlist@?1??update_extended_channels_string_settings@@YAXPAUHWND__@@@Z@4PAURESOURCE_TEXT_ENTRY@@A 004488a0     editpart.obj
 0003:000018c0       ?rlist@?1??update_fastrak_channels_string_settings@@YAXPAUHWND__@@@Z@4PAURESOURCE_TEXT_ENTRY@@A 004488c0     editpart.obj
 0003:00001908       ?rlist@?1??update_user_defined_setup_strings@@YAXPAUHWND__@@@Z@4PAURESOURCE_TEXT_ENTRY@@A 00448908     editpart.obj
 0003:00001950       ?rlist@?1??update_add_marks_string_settings@@YAXXZ@4PAURESOURCE_TEXT_ENTRY@@A 00448950     editpart.obj
 0003:00001960       ?control_help@?1??marks_context_help@@YAXPAUHWND__@@J@Z@4PAUHELP_ENTRY@@A 00448960     editpart.obj
 0003:00001968       ?static_help@?1??marks_context_help@@YAXPAUHWND__@@J@Z@4PAUHELP_ENTRY@@A 00448968     editpart.obj
 0003:00001990       ?rlist@?1??update_profile_marks_string_settings@@YAXPAUHWND__@@@Z@4PAURESOURCE_TEXT_ENTRY@@A 00448990     editpart.obj
 0003:000019e0       ?staticbox@?1??show_advanced_setup_context_help@@YAXJ@Z@4PAUHELP_ENTRY@@A 004489e0     editpart.obj
 0003:00001a38       ?rlist@?1??update_advanced_setup_strings@@YAXPAUHWND__@@@Z@4PAURESOURCE_TEXT_ENTRY@@A 00448a38     editpart.obj
 0003:00001b60       ?LS1_INDEX@?1??update_ftii_control_program@@YAXXZ@4HA 00448b60     editpart.obj
 0003:00001b64       ?PC_RAMP_1_INDEX@?1??update_ftii_control_program@@YAXXZ@4HA 00448b64     editpart.obj
 0003:00001b68       ?vars@?1??update_ftii_control_program@@YAXXZ@4PAHA 00448b68     editpart.obj
 0003:00001c04       ?normal_gain_vars@?1??update_ftii_control_program@@YAXXZ@4PAHA 00448c04     editpart.obj
 0003:00001c10       ?maskvn@?1??update_ftii_control_program@@YAXXZ@4PAHA 00448c10     editpart.obj
 0003:00001c28       ?all_profiles@?1??clear_shots_and_parameters@@YAEPAUHWND__@@@Z@4PA_WA 00448c28     editpart.obj
 0003:00001c38       ?control_help@?1??main_context_help@@YAXPAUHWND__@@@Z@4PAUFULL_HELP_ENTRY@@A 00448c38     editpart.obj
 0003:00001c80       ?rsn@?1??set_save_all_setup_strings@@YAXPAUHWND__@@@Z@4PAURESOURCE_TEXT_ENTRY@@A 00448c80     editpart.obj
 0003:00001ca0       ?EDITPART_CAPTION@?1??fill_statics@@YAXPAUHWND__@@@Z@4PA_WA 00448ca0     editpart.obj
 0003:00001cc8       ?rlist@?1??fill_statics@@YAXPAUHWND__@@@Z@4PAURESOURCE_TEXT_ENTRY@@A 00448cc8     editpart.obj
 0003:00001d70       ?classname@?1??enumerate_child_windows_proc@@YGHPAUHWND__@@J@Z@4PAPA_WA 00448d70     editpart.obj
 0003:00001d78       ?nof_classes@?1??enumerate_child_windows_proc@@YGHPAUHWND__@@J@Z@4HA 00448d78     editpart.obj
 0003:00001d80       ?ids_to_disable@?1??show_restricted_part_entry_screen@@YAXXZ@4PAHA 00448d80     editpart.obj
 0003:00001dc8       ?nof_ids@?1??show_restricted_part_entry_screen@@YAXXZ@4HA 00448dc8     editpart.obj
 0003:00001dcc       _ConfigSection             00448dcc     partdata.obj
 0003:00001ddc       _LoadNetworkedMachinesKey  00448ddc     partdata.obj
 0003:00001e08       _VisiTrakIniFile           00448e08     partdata.obj
 0003:00001e24       _ParamDialogName           00448e24     edparam.obj
 0003:00001e4c       _CurrentDialogNumber       00448e4c     edparam.obj
 0003:00001e50       _DIFFERENTIAL_PRESSURE_BUTTON_INDEX 00448e50     edparam.obj
 0003:00001e54       _TIME_POSITION_BUTTON_INDEX 00448e54     edparam.obj
 0003:00001e58       _VELOCITY_BUTTON_INDEX     00448e58     edparam.obj
 0003:00001e6c       ?unknown_text@?1??show_analog_description@@YAXPAUHWND__@@H@Z@4PA_WA 00448e6c     edparam.obj
 0003:00001e74       ?rlist@?1??update_internal_param_string_settings@@YAXPAUHWND__@@@Z@4PAURESOURCE_TEXT_ENTRY@@A 00448e74     edparam.obj
 0003:00001e80       ?rlist@?1??update_ft_analog_setup_strings@@YAXPAUHWND__@@@Z@4PAURESOURCE_TEXT_ENTRY@@A 00448e80     edparam.obj
 0003:00001ed8       ?rlist@?1??update_ft_target_setup_strings@@YAXPAUHWND__@@@Z@4PAURESOURCE_TEXT_ENTRY@@A 00448ed8     edparam.obj
 0003:00001f08       ?rlist@?1??update_ft_extended_analog_setup_strings@@YAXPAUHWND__@@@Z@4PAURESOURCE_TEXT_ENTRY@@A 00448f08     edparam.obj
 0003:00001f38       ?rlist@?1??update_ft_digital_setup_strings@@YAXPAUHWND__@@@Z@4PAURESOURCE_TEXT_ENTRY@@A 00448f38     edparam.obj
 0003:00001f40       ?rlist@?1??update_calc_setup_strings@@YAXPAUHWND__@@@Z@4PAURESOURCE_TEXT_ENTRY@@A 00448f40     edparam.obj
 0003:00001f58       ?rlist@?1??update_external_parameter_setup_strings@@YAXPAUHWND__@@@Z@4PAURESOURCE_TEXT_ENTRY@@A 00448f58     edparam.obj
 0003:00001f68       ?rlist@?1??update_static_text_setup_strings@@YAXPAUHWND__@@@Z@4PAURESOURCE_TEXT_ENTRY@@A 00448f68     edparam.obj
 0003:00001f80       ?rlist@?1??update_onoff_setup_strings@@YAXPAUHWND__@@@Z@4PAURESOURCE_TEXT_ENTRY@@A 00448f80     edparam.obj
 0003:00001fa0       ?rlist@?1??initialize_ft_peak_fs_velocity_dialog@@YAXPAUHWND__@@@Z@4PAURESOURCE_TEXT_ENTRY@@A 00448fa0     edparam.obj
 0003:00001fd8       ?rlist@?1??update_parameter_limits_setup_strings@@YAXPAUHWND__@@@Z@4PAURESOURCE_TEXT_ENTRY@@A 00448fd8     edparam.obj
 0003:00002028       _FirstTime                 00449028     calc.obj
 0003:00002030       _LbsPerTon                 00449030     calc.obj
 0003:00002038       _CurrentPressureUnit       00449038     calc.obj
 0003:0000203c       _Density                   0044903c     calc.obj
 0003:00002048       _DensityUnitsId            00449048     calc.obj
 0003:00002060       ?id@?1??set_tab_stops@@YAXXZ@4PAHA 00449060     calc.obj
 0003:00002068       ?firstime@?1??check_save_part_setup_tbox@@YAXXZ@4EA 00449068     calc.obj
 0003:0000206c       ?ZeroPointZero@?1??check_sync_plunger_diameter_xbox@@YAXXZ@4PA_WA 0044906c     calc.obj
 0003:00002078       ?rlist@?1??fill_calculator_statics@@YAXPAUHWND__@@@Z@4PAURESOURCE_TEXT_ENTRY@@A 00449078     calc.obj
 0003:00002210       _StarDotStar               00449210     v5subs:killdir.obj
 0003:00002218       _MinusChar                 00449218     v5subs:extract.obj
 0003:0000221c       _PlusChar                  0044921c     v5subs:extract.obj
 0003:00002220       _DotChar                   00449220     v5subs:extract.obj
 0003:00002224       _SpaceChar                 00449224     v5subs:extract.obj
 0003:00002228       _ZeroChar                  00449228     v5subs:extract.obj
 0003:0000222c       _NineChar                  0044922c     v5subs:extract.obj
 0003:00002230       _BackSlashChar             00449230     v5subs:stringcl.obj
 0003:00002234       _CommaChar                 00449234     v5subs:stringcl.obj
 0003:00002238       _CrChar                    00449238     v5subs:stringcl.obj
 0003:0000223c       _DoubleQuoteChar           0044923c     v5subs:stringcl.obj
 0003:00002240       _LfChar                    00449240     v5subs:stringcl.obj
 0003:00002244       _OneChar                   00449244     v5subs:stringcl.obj
 0003:00002248       _SpaceChar                 00449248     v5subs:stringcl.obj
 0003:0000224c       _ZeroChar                  0044924c     v5subs:stringcl.obj
 0003:00002250       _BackSlashString           00449250     v5subs:stringcl.obj
 0003:00002254       _FalseString               00449254     v5subs:stringcl.obj
 0003:00002258       _TrueString                00449258     v5subs:stringcl.obj
 0003:0000225c       _BackSlashChar             0044925c     v5subs:nameclas.obj
 0003:00002260       _ForwardSlashChar          00449260     v5subs:nameclas.obj
 0003:00002264       _PeriodChar                00449264     v5subs:nameclas.obj
 0003:00002268       _SpaceChar                 00449268     v5subs:nameclas.obj
 0003:0000226c       _ZeroChar                  0044926c     v5subs:nameclas.obj
 0003:00002270       _Data                      00449270     v5subs:nameclas.obj
 0003:0000227c       _Display                   0044927c     v5subs:nameclas.obj
 0003:0000228c       _Exes                      0044928c     v5subs:nameclas.obj
 0003:00002298       _Results                   00449298     v5subs:nameclas.obj
 0003:000022a8       _VisiTrakIniFile           004492a8     v5subs:nameclas.obj
 0003:000022c4       _ConfigSection             004492c4     v5subs:nameclas.obj
 0003:000022d4       _ThisComputerKey           004492d4     v5subs:nameclas.obj
 0003:000022f0       _AutoBackupDirKey          004492f0     v5subs:autoback.obj
 0003:0000230c       _BackupSection             0044930c     v5subs:autoback.obj
 0003:0000231c       _VisitrakIniFile           0044931c     v5subs:autoback.obj
 0003:00002338       ?unknown_name@?1??name@COLORS_CLASS@@QAEPA_WF@Z@4PA_WA 00449338     v5subs:color.obj
 0003:000023ac       _SecurityAttributes        004493ac     v5subs:dbsubs.obj
 0003:000023b8       _LeftBracket               004493b8     v5subs:iniclass.obj
 0003:000023bc       _RightBracket              004493bc     v5subs:iniclass.obj
 0003:000023c0       _NChar                     004493c0     v5subs:iniclass.obj
 0003:000023c4       _YChar                     004493c4     v5subs:iniclass.obj
 0003:000023c8       _LowerYChar                004493c8     v5subs:iniclass.obj
 0003:000023cc       _UnknownString             004493cc     v5subs:iniclass.obj
 0003:000023dc       _UnknownLen                004493dc     v5subs:iniclass.obj
 0003:000023e0       _FtAnalogCurveType         004493e0     v5subs:structs.obj
 0003:000023f0       _Data                      004493f0     v5subs:computer.obj
 0003:000023fc       _Exes                      004493fc     v5subs:computer.obj
 0003:00002408       _VisiTrakIniFile           00449408     v5subs:computer.obj
 0003:00002424       _ConfigSection             00449424     v5subs:computer.obj
 0003:00002434       _ThisComputerKey           00449434     v5subs:computer.obj
 0003:00002450       _BackSlashChar             00449450     v5subs:computer.obj
 0003:00002454       _CommaChar                 00449454     v5subs:computer.obj
 0003:00002458       _CommaString               00449458     v5subs:computer.obj
 0003:0000245c       _CHANNEL_MODE_1            0044945c     v5subs:limit_switch_class.obj
 0003:00002460       _CHANNEL_MODE_2            00449460     v5subs:limit_switch_class.obj
 0003:00002464       _CHANNEL_MODE_3            00449464     v5subs:limit_switch_class.obj
 0003:00002468       _CHANNEL_MODE_4            00449468     v5subs:limit_switch_class.obj
 0003:0000246c       _CHANNEL_MODE_5            0044946c     v5subs:limit_switch_class.obj
 0003:00002470       _CHANNEL_MODE_6            00449470     v5subs:limit_switch_class.obj
 0003:00002474       _CHANNEL_MODE_7            00449474     v5subs:limit_switch_class.obj
 0003:00002478       ?maskvn@?1??get@LIMIT_SWITCH_WIRE_CLASS@@QAEEAAVSTRING_CLASS@@00@Z@4PAHA 00449478     v5subs:limit_switch_class.obj
 0003:00002490       _ConfigSection             00449490     v5subs:multipart_runlist.obj
 0003:000024a0       _EnabledString             004494a0     v5subs:multipart_runlist.obj
 0003:000024b0       _InputWiresString          004494b0     v5subs:multipart_runlist.obj
 0003:000024c8       _PartSelectionNumberString 004494c8     v5subs:multipart_runlist.obj
 0003:000024f4       _VisiTrakIniFile           004494f4     v5subs:multipart_runlist.obj
 0003:00002510       _ZeroString                00449510     v5subs:multipart_runlist.obj
 0003:00002514       ?HaveMultipartRunlistKey@?1??get@MULTIPART_RUNLIST_SETTINGS_CLASS@@QAE_NAAVSTRING_CLASS@@0@Z@4PA_WA 00449514     v5subs:multipart_runlist.obj
 0003:00002540       ?MultipartBaseWireKey@?1??get@MULTIPART_RUNLIST_SETTINGS_CLASS@@QAE_NAAVSTRING_CLASS@@0@Z@4PA_WA 00449540     v5subs:multipart_runlist.obj
 0003:0000254c       ?MultipartSetupSection@?1??get@MULTIPART_RUNLIST_SETTINGS_CLASS@@QAE_NAAVSTRING_CLASS@@0@Z@4PA_WA 0044954c     v5subs:multipart_runlist.obj
 0003:00002560       _Description               00449560     v5subs:machine.obj
 0003:000025d8       _NofDescriptions           004495d8     v5subs:machine.obj
 0003:000025dc       ?DEVENT_TIME_INTRO@?1??get_binary_valve_settings_from_control_all@@YAXAAVMACHINE_CLASS@@@Z@4PA_WA 004495dc     v5subs:machine.obj
 0003:000025e8       ?PULSE_TIME_INTRO@?1??get_binary_valve_settings_from_control_all@@YAXAAVMACHINE_CLASS@@@Z@4PA_WA 004495e8     v5subs:machine.obj
 0003:000025f4       ?PULSE_WIRE_INTRO@?1??get_binary_valve_settings_from_control_all@@YAXAAVMACHINE_CLASS@@@Z@4PA_WA 004495f4     v5subs:machine.obj
 0003:00002600       ?inifile@?1??read_machset_db@MACHINE_CLASS@@QAEEAAVSTRING_CLASS@@@Z@4PA_WA 00449600     v5subs:machine.obj
 0003:00002634       _CommaChar                 00449634     v5subs:param.obj
 0003:00002638       _PChar                     00449638     v5subs:param.obj
 0003:0000263c       _PCharLow                  0044963c     v5subs:param.obj
 0003:00002640       _CommaChar                 00449640     v5subs:setpoint.obj
 0003:00002644       _CommaString               00449644     v5subs:setpoint.obj
 0003:00002648       _YChar                     00449648     v5subs:part.obj
 0003:0000264c       _BackSlashString           0044964c     v5subs:part.obj
 0003:00002650       _CommaString               00449650     v5subs:part.obj
 0003:00002658       ?description@?1??save@PART_CLASS@@QAEEXZ@4PAPA_WA 00449658     v5subs:part.obj
 0003:000026e4       ?NofDescriptions@?1??save@PART_CLASS@@QAEEXZ@4HA 004496e4     v5subs:part.obj
 0003:000026e8       ?BLUE@?1??set_defaults@MARKS_CLASS@@AAEXF@Z@4PA_WA 004496e8     v5subs:marks.obj
 0003:000026f4       ?CYAN@?1??set_defaults@MARKS_CLASS@@AAEXF@Z@4PA_WA 004496f4     v5subs:marks.obj
 0003:00002700       ?GREEN@?1??set_defaults@MARKS_CLASS@@AAEXF@Z@4PA_WA 00449700     v5subs:marks.obj
 0003:0000270c       ?RED@?1??set_defaults@MARKS_CLASS@@AAEXF@Z@4PA_WA 0044970c     v5subs:marks.obj
 0003:00002714       ?WHITE@?1??set_defaults@MARKS_CLASS@@AAEXF@Z@4PA_WA 00449714     v5subs:marks.obj
 0003:00002720       ?YELLOW@?1??set_defaults@MARKS_CLASS@@AAEXF@Z@4PA_WA 00449720     v5subs:marks.obj
 0003:00002730       _FILE_SIZE_ERROR           00449730     v5subs:fileclas.obj
 0003:00002734       _CrChar                    00449734     v5subs:fileclas.obj
 0003:00002738       _CrLf                      00449738     v5subs:fileclas.obj
 0003:00002740       _LfChar                    00449740     v5subs:fileclas.obj
 0003:00002744       _CommaChar                 00449744     v5subs:ftanalog.obj
 0003:00002748       _CommaString               00449748     v5subs:ftanalog.obj
 0003:0000274c       _ZeroString                0044974c     v5subs:ftanalog.obj
 0003:00002750       _ZeroPointZero             00449750     v5subs:ftanalog.obj
 0003:00002758       _OnePointZeroString        00449758     v5subs:ftanalog.obj
 0003:00002760       _IS_GOOSE_STRING           00449760     v5subs:stpres.obj
 0003:0000276c       _IS_OPEN_STRING            0044976c     v5subs:stpres.obj
 0003:00002778       _NChar                     00449778     v5subs:stpres.obj
 0003:0000277c       _PercentChar               0044977c     v5subs:stpres.obj
 0003:00002780       _YChar                     00449780     v5subs:stpres.obj
 0003:00002788       _DefaultFontDef            00449788     v5subs:stringtable.obj
 0003:000027d4       ?FONT_FILE_NAME@?1??set_language@STRINGTABLE_CLASS@@QAEXAAVSTRING_CLASS@@@Z@4PA_WA 004497d4     v5subs:stringtable.obj
 0003:000027e8       ?description@?1??save@SURETRAK_SETUP_CLASS@@QAEEAAVSTRING_CLASS@@00@Z@4PAPA_WA 004497e8     v5subs:stsetup.obj
 0003:0000280c       _DaysPerMonth              0044980c     v5subs:timeclas.obj
 0003:0000283c       _MonthAbreviation          0044983c     v5subs:timeclas.obj
 0003:00002870       _Description               00449870     v5subs:plookup.obj
 0003:00002884       _AChar                     00449884     v5subs:plookup.obj
 0003:00002888       _SpaceChar                 00449888     v5subs:plookup.obj
 0003:0000288c       _ZChar                     0044988c     v5subs:plookup.obj
 0003:00002890       _ZeroChar                  00449890     v5subs:plookup.obj
 0003:00002898       ?ic@?1??dups_to_vu@@YANFF@Z@4PANA 00449898     v5subs:unitadj.obj
 0003:000028b8       ?ft@?1??dups_to_vu@@YANFF@Z@4PANA 004498b8     v5subs:unitadj.obj
 0003:000028d8       ?mm@?1??dups_to_vu@@YANFF@Z@4PANA 004498d8     v5subs:unitadj.obj
 0003:000028f8       ?cm@?1??dups_to_vu@@YANFF@Z@4PANA 004498f8     v5subs:unitadj.obj
 0003:00002918       _YChar                     00449918     v5subs:get_ini.obj
 0003:0000291c       _NChar                     0044991c     v5subs:get_ini.obj
 0003:00002920       _UnknownString             00449920     v5subs:get_ini.obj
 0003:00002930       _CHANNEL_MODE_1            00449930     v5subs:choose_wire.obj
 0003:00002934       _CHANNEL_MODE_2            00449934     v5subs:choose_wire.obj
 0003:00002938       _CHANNEL_MODE_3            00449938     v5subs:choose_wire.obj
 0003:0000293c       _CHANNEL_MODE_4            0044993c     v5subs:choose_wire.obj
 0003:00002940       _CHANNEL_MODE_5            00449940     v5subs:choose_wire.obj
 0003:00002944       _CHANNEL_MODE_6            00449944     v5subs:choose_wire.obj
 0003:00002948       _CHANNEL_MODE_7            00449948     v5subs:choose_wire.obj
 0003:0000294c       _ChooseWireClassName       0044994c     v5subs:choose_wire.obj
 0003:00002970       _SpaceString               00449970     v5subs:choose_wire.obj
 0003:00002974       _TwoSpaceString            00449974     v5subs:choose_wire.obj
 0003:0000297a       _ShowMonitorOutputs        0044997a     v5subs:choose_wire.obj
 0003:0000297c       _ShowMonitorOutputsKey     0044997c     v5subs:choose_wire.obj
 0003:000029a8       _AlreadyUsedWires          004499a8     v5subs:choose_wire.obj
 0003:00002a08       _WireSorc                  00449a08     v5subs:choose_wire.obj
 0003:00002a10       _WireInfoTbox              00449a10     v5subs:choose_wire.obj
 0003:00002a20       ?control_opto_pic@?1??read_bitmaps@@YAEXZ@4PA_WA 00449a20     v5subs:choose_wire.obj
 0003:00002a44       ?control_led_pic@?1??read_bitmaps@@YAEXZ@4PA_WA 00449a44     v5subs:choose_wire.obj
 0003:00002a54       ?monitor_opto_pic@?1??read_bitmaps@@YAEXZ@4PA_WA 00449a54     v5subs:choose_wire.obj
 0003:00002a84       ?monitor_led_pic@?1??read_bitmaps@@YAEXZ@4PA_WA 00449a84     v5subs:choose_wire.obj
 0003:00002aa4       ?rlist@?1??fill_output_wire_statics@@YAXPAUHWND__@@@Z@4PAURESOURCE_TEXT_ENTRY@@A 00449aa4     v5subs:choose_wire.obj
 0003:00002acc       ?rlist@?1??fill_choose_wire_statics@@YAXPAUHWND__@@@Z@4PAURESOURCE_TEXT_ENTRY@@A 00449acc     v5subs:choose_wire.obj
 0003:00002aec       ?ConfigSection@?1??choose_wire@@YAEPAUHWND__@@0HHPAVMACHINE_CLASS@@PAVPART_CLASS@@PAVPARAMETER_CLASS@@PAVLIMIT_SWITCH_CLASS@@@Z@4PA_WA 00449aec     v5subs:choose_wire.obj
 0003:00002b08       ?DownTimeAlarmWireKey@?1??choose_wire@@YAEPAUHWND__@@0HHPAVMACHINE_CLASS@@PAVPART_CLASS@@PAVPARAMETER_CLASS@@PAVLIMIT_SWITCH_CLASS@@@Z@4PA_WA 00449b08     v5subs:choose_wire.obj
 0003:00002b2c       ?MonitorWireKey@?1??choose_wire@@YAEPAUHWND__@@0HHPAVMACHINE_CLASS@@PAVPART_CLASS@@PAVPARAMETER_CLASS@@PAVLIMIT_SWITCH_CLASS@@@Z@4PA_WA 00449b2c     v5subs:choose_wire.obj
 0003:00002b44       ?MonallIniFile@?1??choose_wire@@YAEPAUHWND__@@0HHPAVMACHINE_CLASS@@PAVPART_CLASS@@PAVPARAMETER_CLASS@@PAVLIMIT_SWITCH_CLASS@@@Z@4PA_WA 00449b44     v5subs:choose_wire.obj
 0003:00002b5c       ?EditPartIniFile@?1??choose_wire@@YAEPAUHWND__@@0HHPAVMACHINE_CLASS@@PAVPART_CLASS@@PAVPARAMETER_CLASS@@PAVLIMIT_SWITCH_CLASS@@@Z@4PA_WA 00449b5c     v5subs:choose_wire.obj
 0003:00002b78       _SpaceChar                 00449b78     v5subs:mem.obj
 0003:00002b7c       _NineChar                  00449b7c     v5subs:mem.obj
 0003:00002b80       _TabChar                   00449b80     v5subs:mem.obj
 0003:00002b84       _TildaChar                 00449b84     v5subs:mem.obj
 0003:00002b88       _ZeroChar                  00449b88     v5subs:mem.obj
 0003:00002b8c       _ServerName                00449b8c     v5subs:client.obj
 0003:00002ba0       _CodePageId                00449ba0     v5subs:client.obj
 0003:00002ba4       _DdeClipFormat             00449ba4     v5subs:client.obj
 0003:00002ba8       _BackSlashChar             00449ba8     v5subs:path.obj
 0003:00002bac       _ColonChar                 00449bac     v5subs:path.obj
 0003:00002bb0       _BackSlashString           00449bb0     v5subs:path.obj
 0003:00002bb4       _ExeString                 00449bb4     v5subs:path.obj
 0003:00002bc0       _ExeStringLength           00449bc0     v5subs:path.obj
 0003:00002bc4       _CommaChar                 00449bc4     v5subs:startpar.obj
 0003:00002bc8       _SpaceChar                 00449bc8     v5subs:startpar.obj
 0003:00002bcc       _ColonChar                 00449bcc     v5subs:fix.obj
 0003:00002bd0       _CrChar                    00449bd0     v5subs:fix.obj
 0003:00002bd4       _LfChar                    00449bd4     v5subs:fix.obj
 0003:00002bd8       _SpaceChar                 00449bd8     v5subs:fix.obj
 0003:00002bdc       _TabChar                   00449bdc     v5subs:fix.obj
 0003:00002be0       _ZeroChar                  00449be0     v5subs:fix.obj
 0003:00002be4       _Cchar                     00449be4     v5subs:log_file_string.obj
 0003:00002be8       _Dchar                     00449be8     v5subs:log_file_string.obj
 0003:00002bec       _Ochar                     00449bec     v5subs:log_file_string.obj
 0003:00002bf0       _Pchar                     00449bf0     v5subs:log_file_string.obj
 0003:00002bf4       _Mchar                     00449bf4     v5subs:log_file_string.obj
 0003:00002bf8       _Nchar                     00449bf8     v5subs:log_file_string.obj
 0003:00002bfc       _Tchar                     00449bfc     v5subs:log_file_string.obj
 0003:00002c00       ?buf@?1??log_file_string@@YAEAAVSTRING_CLASS@@PA_W1000@Z@4PA_WA 00449c00     v5subs:log_file_string.obj
 0003:00002c04       _NullChar                  00449c04     v5subs:is_empty.obj
 0003:00002c08       _YChar                     00449c08     v5subs:misc.obj
 0003:00002c0c       _LowYChar                  00449c0c     v5subs:misc.obj
 0003:00002c10       _s                         00449c10     v5subs:misc.obj
 0003:00002c20       _YString                   00449c20     v5subs:misc.obj
 0003:00002c24       _NString                   00449c24     v5subs:misc.obj
 0003:00002c30       _Description               00449c30     v5subs:shot_name.obj
 0003:00002c3c       _DefaultValue              00449c3c     v5subs:shot_name.obj
 0003:00002c48       _ExternalShotNameDescription 00449c48     v5subs:shot_name.obj
 0003:00002c54       _ExternalShotNameDefaultValue 00449c54     v5subs:shot_name.obj
 0003:00002c60       _AChar                     00449c60     v5subs:shot_name.obj
 0003:00002c64       _AsterixChar               00449c64     v5subs:shot_name.obj
 0003:00002c68       _LeftCurlyBracket          00449c68     v5subs:shot_name.obj
 0003:00002c6c       _RightCurlyBracket         00449c6c     v5subs:shot_name.obj
 0003:00002c70       _PChar                     00449c70     v5subs:shot_name.obj
 0003:00002c74       _PCharLow                  00449c74     v5subs:shot_name.obj
 0003:00002c78       _SChar                     00449c78     v5subs:shot_name.obj
 0003:00002c7c       _SCharLow                  00449c7c     v5subs:shot_name.obj
 0003:00002c80       _SpaceChar                 00449c80     v5subs:shot_name.obj
 0003:00002c84       _ZChar                     00449c84     v5subs:shot_name.obj
 0003:00002c88       _ZeroChar                  00449c88     v5subs:shot_name.obj
 0003:00002c8c       ?ConfigSection@?1??get@EXTERNAL_SHOT_NAME_CLASS@@QAEHXZ@4PA_WA 00449c8c     v5subs:shot_name.obj
 0003:00002c9c       ?GettingShotNameFromFileKey@?1??get@EXTERNAL_SHOT_NAME_CLASS@@QAEHXZ@4PA_WA 00449c9c     v5subs:shot_name.obj
 0003:00002ccc       ?GetShotNameCommandKey@?1??get@EXTERNAL_SHOT_NAME_CLASS@@QAEHXZ@4PA_WA 00449ccc     v5subs:shot_name.obj
 0003:00002cf4       ?MonallIniFile@?1??get@EXTERNAL_SHOT_NAME_CLASS@@QAEHXZ@4PA_WA 00449cf4     v5subs:shot_name.obj
 0003:00002d0c       ?ShotNameFileKey@?1??get@EXTERNAL_SHOT_NAME_CLASS@@QAEHXZ@4PA_WA 00449d0c     v5subs:shot_name.obj
 0003:00002d28       ?noname@?1??name@UNITS_CLASS@@QAEPA_WXZ@4PA_WA 00449d28     v5subs:units.obj
 0003:00002d38       _CHANNEL_MODE_1            00449d38     v5subs:copypart.obj
 0003:00002d3c       _CHANNEL_MODE_2            00449d3c     v5subs:copypart.obj
 0003:00002d40       _CHANNEL_MODE_3            00449d40     v5subs:copypart.obj
 0003:00002d44       _CHANNEL_MODE_4            00449d44     v5subs:copypart.obj
 0003:00002d48       _CHANNEL_MODE_5            00449d48     v5subs:copypart.obj
 0003:00002d4c       _CHANNEL_MODE_6            00449d4c     v5subs:copypart.obj
 0003:00002d50       _CHANNEL_MODE_7            00449d50     v5subs:copypart.obj
 0003:00002d54       ?MSL_INDEX@?1??copypart@@YAEAAVSTRING_CLASS@@00000I@Z@4HA 00449d54     v5subs:copypart.obj
 0003:00002d58       ?ESV_INDEX@?1??copypart@@YAEAAVSTRING_CLASS@@00000I@Z@4HA 00449d58     v5subs:copypart.obj
 0003:00002d5c       ?LS1_INDEX@?1??copypart@@YAEAAVSTRING_CLASS@@00000I@Z@4HA 00449d5c     v5subs:copypart.obj
 0003:00002d60       ?LS2_INDEX@?1??copypart@@YAEAAVSTRING_CLASS@@00000I@Z@4HA 00449d60     v5subs:copypart.obj
 0003:00002d64       ?LS3_INDEX@?1??copypart@@YAEAAVSTRING_CLASS@@00000I@Z@4HA 00449d64     v5subs:copypart.obj
 0003:00002d68       ?LS4_INDEX@?1??copypart@@YAEAAVSTRING_CLASS@@00000I@Z@4HA 00449d68     v5subs:copypart.obj
 0003:00002d6c       ?LS5_INDEX@?1??copypart@@YAEAAVSTRING_CLASS@@00000I@Z@4HA 00449d6c     v5subs:copypart.obj
 0003:00002d70       ?LS6_INDEX@?1??copypart@@YAEAAVSTRING_CLASS@@00000I@Z@4HA 00449d70     v5subs:copypart.obj
 0003:00002d74       ?VEL_LOOP_GAIN_INDEX@?1??copypart@@YAEAAVSTRING_CLASS@@00000I@Z@4HA 00449d74     v5subs:copypart.obj
 0003:00002d78       ?BREAK_VEL_1_INDEX@?1??copypart@@YAEAAVSTRING_CLASS@@00000I@Z@4HA 00449d78     v5subs:copypart.obj
 0003:00002d7c       ?BREAK_VEL_2_INDEX@?1??copypart@@YAEAAVSTRING_CLASS@@00000I@Z@4HA 00449d7c     v5subs:copypart.obj
 0003:00002d80       ?BREAK_VEL_3_INDEX@?1??copypart@@YAEAAVSTRING_CLASS@@00000I@Z@4HA 00449d80     v5subs:copypart.obj
 0003:00002d84       ?BREAK_GAIN_1_INDEX@?1??copypart@@YAEAAVSTRING_CLASS@@00000I@Z@4HA 00449d84     v5subs:copypart.obj
 0003:00002d88       ?BREAK_GAIN_2_INDEX@?1??copypart@@YAEAAVSTRING_CLASS@@00000I@Z@4HA 00449d88     v5subs:copypart.obj
 0003:00002d8c       ?BREAK_GAIN_3_INDEX@?1??copypart@@YAEAAVSTRING_CLASS@@00000I@Z@4HA 00449d8c     v5subs:copypart.obj
 0003:00002d90       _TempMessageClassName      00449d90     v5subs:temp_message.obj
 0003:00002db4       _TempMessageMargin         00449db4     v5subs:temp_message.obj
 0003:00002db8       ?mycolor@?1??paint_temp_message@@YAXXZ@4KA 00449db8     v5subs:temp_message.obj
 0003:00002dbc       ?firstime@?1??register_temp_message@@YAXXZ@4_NA 00449dbc     v5subs:temp_message.obj
 0003:00002dc0       _Description               00449dc0     v5subs:shot_name_reset.obj
 0003:00002dcc       _DefaultValue              00449dcc     v5subs:shot_name_reset.obj
 0003:00002dd8       _AChar                     00449dd8     v5subs:shot_name_reset.obj
 0003:00002ddc       _AsterixChar               00449ddc     v5subs:shot_name_reset.obj
 0003:00002de0       _LeftCurlyBracket          00449de0     v5subs:shot_name_reset.obj
 0003:00002de4       _RightCurlyBracket         00449de4     v5subs:shot_name_reset.obj
 0003:00002de8       _SChar                     00449de8     v5subs:shot_name_reset.obj
 0003:00002dec       _SCharLow                  00449dec     v5subs:shot_name_reset.obj
 0003:00002df0       _ZChar                     00449df0     v5subs:shot_name_reset.obj
 0003:00002df4       _ZeroChar                  00449df4     v5subs:shot_name_reset.obj
 0003:00002df8       _DotChar                   00449df8     v5subs:textlist.obj
 0003:00002dfc       _StarDotStar               00449dfc     v5subs:textlist.obj
 0003:00002e04       _ZeroString                00449e04     v5subs:warmupcl.obj
 0003:00002e08       _MultipartSetupSection     00449e08     v5subs:warmupcl.obj
 0003:00002e1c       _SureTrakIniFile           00449e1c     v5subs:warmupcl.obj
 0003:00002e38       _EnabledKey                00449e38     v5subs:warmupcl.obj
 0003:00002e48       _MultipartBasePartKey      00449e48     v5subs:warmupcl.obj
 0003:00002e5c       _MultipartBaseWireKey      00449e5c     v5subs:warmupcl.obj
 0003:00002e68       _Description               00449e68     v5subs:warmupcl.obj
 0003:00002e78       _UnknownWorker             00449e78     v5subs:workclas.obj
 0003:00002e88       _CHANNEL_MODE_1            00449e88     v5subs:ftiiclas.obj
 0003:00002e8c       _CHANNEL_MODE_2            00449e8c     v5subs:ftiiclas.obj
 0003:00002e90       _CHANNEL_MODE_3            00449e90     v5subs:ftiiclas.obj
 0003:00002e94       _CHANNEL_MODE_4            00449e94     v5subs:ftiiclas.obj
 0003:00002e98       _CHANNEL_MODE_5            00449e98     v5subs:ftiiclas.obj
 0003:00002e9c       _CHANNEL_MODE_6            00449e9c     v5subs:ftiiclas.obj
 0003:00002ea0       _CHANNEL_MODE_7            00449ea0     v5subs:ftiiclas.obj
 0003:00002ea4       _EqualsString              00449ea4     v5subs:ftiiclas.obj
 0003:00002ea8       _OrHexString               00449ea8     v5subs:ftiiclas.obj
 0003:00002eb0       _HString                   00449eb0     v5subs:ftiiclas.obj
 0003:00002eb4       _VString                   00449eb4     v5subs:ftiiclas.obj
 0003:00002eb8       _HChar                     00449eb8     v5subs:ftiiclas.obj
 0003:00002ebc       _MinusChar                 00449ebc     v5subs:ftiiclas.obj
 0003:00002ec0       _PoundChar                 00449ec0     v5subs:ftiiclas.obj
 0003:00002ec4       _OrChar                    00449ec4     v5subs:ftiiclas.obj
 0003:00002ec8       _SpaceChar                 00449ec8     v5subs:ftiiclas.obj
 0003:00002ecc       _TabChar                   00449ecc     v5subs:ftiiclas.obj
 0003:00002ed0       _Bit30                     00449ed0     v5subs:ftiiclas.obj
 0003:00002ed4       _Bit31                     00449ed4     v5subs:ftiiclas.obj
 0003:00002ed8       _HighMask                  00449ed8     v5subs:ftiiclas.obj
 0003:00002edc       _LowMask                   00449edc     v5subs:ftiiclas.obj
 0003:00002ee0       _types                     00449ee0     v5subs:ftiiclas.obj
 0003:000030e0       _ResultsString             0044a0e0     v5subs:machname.obj
 0003:00003100       _Days                      0044a100     v5subs:time.obj
 0003:00003120       ?days@?1??dofyr@@YAGGGG@Z@4PAY0L@GA 0044a120     v5subs:time.obj
 0003:0000314c       _RoutinesFile              0044a14c     v5subs:error_ms.obj
 0003:00003168       _ErrMsgFile                0044a168     v5subs:error_ms.obj
 0003:00003184       _FtErrMsgFile              0044a184     v5subs:error_ms.obj
 0003:000031a0       _First_Time                0044a1a0     v5subs:gexedir.obj
 0003:000031a4       _DefaultDirectory          0044a1a4     v5subs:gexedir.obj
 0003:000031b0       _CommaChar                 0044a1b0     v5subs:wire_class.obj
 0003:000031b8       _DefaultWireList           0044a1b8     v5subs:wire_class.obj
 0003:000033b8       _NineChar                  0044a3b8     v5subs:strarray.obj
 0003:000033bc       _ZeroChar                  0044a3bc     v5subs:strarray.obj
 0003:000033c0       _Days                      0044a3c0     v5subs:shift.obj
 0003:000033dc       _CurrentShiftDow           0044a3dc     v5subs:shift.obj
 0003:000033e0       _CurrentShiftNumber        0044a3e0     v5subs:shift.obj
 0003:000033e4       _Radix                     0044a3e4     v5subs:hex.obj
 0003:00003400       LOG_name                   0044a400     LIBCMT:log10.obj
 0003:00003410       ?isPackaged@?1??__crtIsPackagedApp@@9@9 0044a410     LIBCMT:winapisupp.obj
 0003:00003414       _newcw                     0044a414     LIBCMT:ceil.obj
 0003:00003418       ?_names@?1??_get_fname@@9@9 0044a418     LIBCMT:fpexcept.obj
 0003:00003580       _errtable                  0044a580     LIBCMT:dosmap.obj
 0003:000036e8       _ErrnoNoMem                0044a6e8     LIBCMT:dosmap.obj
 0003:000036ec       _DoserrorNoMem             0044a6ec     LIBCMT:dosmap.obj
 0003:00003b18       ___rgctypeflag             0044ab18     LIBCMT:mbctype.obj
 0003:00003b20       ___rgcode_page_info        0044ab20     LIBCMT:mbctype.obj
 0003:00003e58       __ctype_loc_style          0044ae58     LIBCMT:wsetloca.obj
 0003:00003e60       _newcw                     0044ae60     LIBCMT:floor.obj
 0003:00003e70       __locktable                0044ae70     LIBCMT:mlock.obj
 0003:00003fc0       _over                      0044afc0     LIBCMT:fpctrl.obj
 0003:00003fcc       _under                     0044afcc     LIBCMT:fpctrl.obj
 0003:00003fd8       ?__DAZ_ENABLED@?1??__set_fpsr_sse2@@9@9 0044afd8     LIBCMT:fpctrl.obj
 0003:00004260       _DoubleFormat              0044b260     LIBCMT:intrncvt.obj
 0003:00004278       _FloatFormat               0044b278     LIBCMT:intrncvt.obj
 0003:000046e3       _SureTrakHasChanged        0044b6e3     editpart.obj
 0003:000046e6       _HaveSureTrakPlot          0044b6e6     editpart.obj
 0003:000046e7       _LimitSwitchDescriptionsHaveChanged 0044b6e7     editpart.obj
 0003:00004718       _HMIMessageType            0044b718     editpart.obj
 0003:00004724       _EboxBackgroundColor       0044b724     editpart.obj
 0003:00004728       _EboxBackgroundBrush       0044b728     editpart.obj
 0003:00004751       _NeedToCheckChannels5and7  0044b751     editpart.obj
 0003:00004752       _NeedToCallVelocityChanges 0044b752     editpart.obj
 0003:00004754       _StartupTab                0044b754     editpart.obj
 0003:00004758       _DistanceButtonState       0044b758     editpart.obj
 0003:0000475c       _VelocityButtonState       0044b75c     editpart.obj
 0003:00004760       _DestUnitsId               0044b760     editpart.obj
 0003:00004764       _SorcUnitsId               0044b764     editpart.obj
 0003:00004781       _LoadingSureTrakSteps      0044b781     editpart.obj
 0003:00004782       _LoadingPressureControl    0044b782     editpart.obj
 0003:00004788       _SureTrakPlot              0044b788     editpart.obj
 0003:00004828       _SureTrakSetup             0044b828     editpart.obj
 0003:00004a9c       _Warmup                    0044ba9c     editpart.obj
 0003:00004ab0       _PressureControl           0044bab0     editpart.obj
 0003:0000a334       _SaveChangesTitle          00451334     editpart.obj
 0003:0000c5a8       _WindowInfo                004535a8     editpart.obj
 0003:0000c628       _StaticTextParameterNumber 00453628     editpart.obj
 0003:0000c62c       _NofAddMarks               0045362c     editpart.obj
 0003:0000c630       _AddMarksList              00453630     editpart.obj
 0003:0000c860       _OldEditProc               00453860     editpart.obj
 0003:0000c864       ?name@?1??mark_name@@YAPA_W_WF@Z@4PA_WA 00453864     editpart.obj
 0003:0000c898       ?s@?1??parmline@@YAPA_WH@Z@4PA_WA 00453898     editpart.obj
 0003:0000c9a0       ?p@?1??add_profile_curve@@YAXXZ@4PAUFLOAT_POINT@@A 004539a0     editpart.obj
 0003:0000ca60       ?mybrush@?1??suretrak_profile_proc@@YGHPAUHWND__@@IIJ@Z@4PAUHBRUSH__@@A 00453a60     editpart.obj
 0003:0000ca64       ?mrl@?1??copy_to_dialog_proc@@YGHPAUHWND__@@IIJ@Z@4VSTRING_CLASS@@A 00453a64     editpart.obj
 0003:0000ca6c       ?$S1@?1??copy_to_dialog_proc@@YGHPAUHWND__@@IIJ@Z@4IA 00453a6c     editpart.obj
 0003:0000ca70       ?empty_entry@?1???AMULTIPART_LB_CLASS@@QAEAAVMULTIPART_LB_ENTRY@@H@Z@4V2@A 00453a70     editpart.obj
 0003:0000ca88       ?$S2@?1???AMULTIPART_LB_CLASS@@QAEAAVMULTIPART_LB_ENTRY@@H@Z@4IA 00453a88     editpart.obj
 0003:0000ca8c       ?current_index@?1??multipart_runlist_setup_dialog_proc@@YGHPAUHWND__@@IIJ@Z@4HA 00453a8c     editpart.obj
 0003:0000ca90       ?lb@?1??multipart_runlist_setup_dialog_proc@@YGHPAUHWND__@@IIJ@Z@4VLISTBOX_CLASS@@A 00453a90     editpart.obj
 0003:0000caa4       ?$S3@?1??multipart_runlist_setup_dialog_proc@@YGHPAUHWND__@@IIJ@Z@4IA 00453aa4     editpart.obj
 0003:0000caa8       ?s@?1??check_break_gain_values@@YA_NXZ@4VSTRING_CLASS@@A 00453aa8     editpart.obj
 0003:0000cab0       ?$S5@?1??check_break_gain_values@@YA_NXZ@4IA 00453ab0     editpart.obj
 0003:0000cab4       ?mlb@?1??save_all_parts_dialog_proc@@YGHPAUHWND__@@IIJ@Z@4VLISTBOX_CLASS@@A 00453ab4     editpart.obj
 0003:0000cac8       ?$S6@?1??save_all_parts_dialog_proc@@YGHPAUHWND__@@IIJ@Z@4IA 00453ac8     editpart.obj
 0003:0000cacc       ?nof_machines@?1??save_all_parts_dialog_proc@@YGHPAUHWND__@@IIJ@Z@4HA 00453acc     editpart.obj
 0003:0000cad0       ?plb@?1??save_all_parts_dialog_proc@@YGHPAUHWND__@@IIJ@Z@4VLISTBOX_CLASS@@A 00453ad0     editpart.obj
 0003:0000cae4       ?nof_parts@?1??save_all_parts_dialog_proc@@YGHPAUHWND__@@IIJ@Z@4HA 00453ae4     editpart.obj
 0003:0000cae8       ?mi@?1??save_all_parts_dialog_proc@@YGHPAUHWND__@@IIJ@Z@4HA 00453ae8     editpart.obj
 0003:0000caec       ?pi@?1??save_all_parts_dialog_proc@@YGHPAUHWND__@@IIJ@Z@4HA 00453aec     editpart.obj
 0003:0000caf0       ?s@?1??save_all_parts_dialog_proc@@YGHPAUHWND__@@IIJ@Z@4VSTRING_CLASS@@A 00453af0     editpart.obj
 0003:0000caf8       ?ori@?1??save_all_parts_dialog_proc@@YGHPAUHWND__@@IIJ@Z@4UPART_NAME_ENTRY@@A 00453af8     editpart.obj
 0003:0000cb20       _LoadingStaticText         00453b20     edparam.obj
 0003:0000cb24       _CurrentParameterIndex     00453b24     edparam.obj
 0003:0000cb80       _WindowInfo                00453b80     edparam.obj
 0003:0000cbd0       ?noname@?1??name@VARTYPE_CLASS@@QAEAAVSTRING_CLASS@@XZ@4V3@A 00453bd0     edparam.obj
 0003:0000cbd8       ?$S1@?1??name@VARTYPE_CLASS@@QAEAAVSTRING_CLASS@@XZ@4IA 00453bd8     edparam.obj
 0003:0000cbdc       ?noname@?1??name@VARTYPE_CLASS@@QAEAAVSTRING_CLASS@@G@Z@4V3@A 00453bdc     edparam.obj
 0003:0000cbe4       ?$S2@?1??name@VARTYPE_CLASS@@QAEAAVSTRING_CLASS@@G@Z@4IA 00453be4     edparam.obj
 0003:0000cbe8       ?end_point_ebox@?1??ft_analog_proc@@YGHPAUHWND__@@IIJ@Z@4VWINDOW_CLASS@@A 00453be8     edparam.obj
 0003:0000cbf0       ?$S3@?1??ft_analog_proc@@YGHPAUHWND__@@IIJ@Z@4IA 00453bf0     edparam.obj
 0003:0000cbf4       ?end_point_tbox@?1??ft_analog_proc@@YGHPAUHWND__@@IIJ@Z@4VWINDOW_CLASS@@A 00453bf4     edparam.obj
 0003:0000cbfc       ?start_point_tbox@?1??ft_analog_proc@@YGHPAUHWND__@@IIJ@Z@4VWINDOW_CLASS@@A 00453bfc     edparam.obj
 0003:0000cc04       _CalcWindow                00453c04     calc.obj
 0003:0000cc08       _DensityDialogWindow       00453c08     calc.obj
 0003:0000cc0c       _ProgramIsUpdating         00453c0c     calc.obj
 0003:0000cc0d       _DensityIsUpdating         00453c0d     calc.obj
 0003:0000cc0e       _SyncPlungerDiameter       00453c0e     calc.obj
 0003:0000cc10       _CurrentDensityIndex       00453c10     calc.obj
 0003:0000cc14       _CurrentDistanceUnit       00453c14     calc.obj
 0003:0000cc18       _CurrentAreaUnit           00453c18     calc.obj
 0003:0000cc1c       _CurrentVolumeUnit         00453c1c     calc.obj
 0003:0000cc20       _CurrentVelocityUnit       00453c20     calc.obj
 0003:0000cc24       _CurrentWeightUnit         00453c24     calc.obj
 0003:0000cc28       ?tabs@?1??set_tab_stops@@YAXXZ@4PAHA 00453c28     calc.obj
 0003:0000cc30       _DriveName                 00453c30     v5subs:exists.obj
 0003:0000cc38       ?s@?1??ascii_double@@YAPA_WN@Z@4PA_WA 00453c38     v5subs:ascfloat.obj
 0003:0000cc8c       _NullChar                  00453c8c     v5subs:extract.obj
 0003:0000cc90       ?s@?1??int32toasc@@YAPA_WJ@Z@4PA_WA 00453c90     v5subs:itoasc.obj
 0003:0000ccb8       ?s@?1??ultoascii@@YAPA_WKK@Z@4PA_WA 00453cb8     v5subs:itoasc.obj
 0003:0000cce4       _NullChar                  00453ce4     v5subs:stringcl.obj
 0003:0000cce8       _NullChar                  00453ce8     v5subs:nameclas.obj
 0003:0000ccec       _EmptyString               00453cec     v5subs:nameclas.obj
 0003:0000ccf4       _MyComputer                00453cf4     v5subs:nameclas.obj
 0003:0000cd00       ?empty_double@?1???ADOUBLE_ARRAY_CLASS@@QAEAANJ@Z@4NA 00453d00     v5subs:array.obj
 0003:0000cd08       ?empty_int@?1???AINT32_ARRAY_CLASS@@QAEAAJJ@Z@4JA 00453d08     v5subs:array.obj
 0003:0000cd0c       ?empty_int@?1???AINT_ARRAY_CLASS@@QAEAAHH@Z@4HA 00453d0c     v5subs:array.obj
 0003:0000cd10       _SensorArray               00453d10     v5subs:asensor.obj
 0003:0000cd14       _NofSensors                00453d14     v5subs:asensor.obj
 0003:0000cd18       _EmptySensor               00453d18     v5subs:asensor.obj
 0003:0000cd64       _emptystring               00453d64     v5subs:chaxis.obj
 0003:0000cd68       _NofColors                 00453d68     v5subs:color.obj
 0003:0000cd6c       _ColorArray                00453d6c     v5subs:color.obj
 0003:0000cd70       _NullChar                  00453d70     v5subs:iniclass.obj
 0003:0000cd74       ?empty_string@?1??get_string@INI_CLASS@@QAEPA_WXZ@4PA_WA 00453d74     v5subs:iniclass.obj
 0003:0000cd78       _EmptyString               00453d78     v5subs:listbox.obj
 0003:0000cd7c       _NullChar                  00453d7c     v5subs:computer.obj
 0003:0000cd80       _First                     00453d80     v5subs:computer.obj
 0003:0000cd84       _MyComputer                00453d84     v5subs:computer.obj
 0003:0000cd8c       _NoComputer                00453d8c     v5subs:computer.obj
 0003:0000cd94       _NofComputers              00453d94     v5subs:computer.obj
 0003:0000cd98       ?myemptystring@?1???ALIMIT_SWITCH_DESC_CLASS@@QAEAAVSTRING_CLASS@@H@Z@4V2@A 00453d98     v5subs:limit_switch_class.obj
 0003:0000cda0       ?$S1@?1???ALIMIT_SWITCH_DESC_CLASS@@QAEAAVSTRING_CLASS@@H@Z@4IA 00453da0     v5subs:limit_switch_class.obj
 0003:0000cda4       ?myemptystring@?1???ALIMIT_SWITCH_POS_CLASS@@QAEAAVSTRING_CLASS@@H@Z@4V2@A 00453da4     v5subs:limit_switch_class.obj
 0003:0000cdac       ?$S2@?1???ALIMIT_SWITCH_POS_CLASS@@QAEAAVSTRING_CLASS@@H@Z@4IA 00453dac     v5subs:limit_switch_class.obj
 0003:0000cdb0       ?myemptystring@?1???ALIMIT_SWITCH_WIRE_CLASS@@QAEAAVSTRING_CLASS@@H@Z@4V2@A 00453db0     v5subs:limit_switch_class.obj
 0003:0000cdb8       ?$S3@?1???ALIMIT_SWITCH_WIRE_CLASS@@QAEAAVSTRING_CLASS@@H@Z@4IA 00453db8     v5subs:limit_switch_class.obj
 0003:0000cdbc       _NullChar                  00453dbc     v5subs:param.obj
 0003:0000cdc0       _NullChar                  00453dc0     v5subs:setpoint.obj
 0003:0000cdc4       _empty_entry               00453dc4     v5subs:setpoint.obj
 0003:0000cdd4       _CNullChar                 00453dd4     v5subs:fileclas.obj
 0003:0000cdd8       _NullChar                  00453dd8     v5subs:fileclas.obj
 0003:0000cddc       _NullString                00453ddc     v5subs:fileclas.obj
 0003:0000cde0       _EmptyString               00453de0     v5subs:ftanalog.obj
 0003:0000cde4       _NullChar                  00453de4     v5subs:stpres.obj
 0003:0000cde8       _BaseDir                   00453de8     v5subs:stringtable.obj
 0003:0000cdf0       _DefaultLanguage           00453df0     v5subs:stringtable.obj
 0003:0000cdf8       _FontList                  00453df8     v5subs:stringtable.obj
 0003:0000cdfc       _Resources                 00453dfc     v5subs:stringtable.obj
 0003:0000ce04       ?s@?1??find@STRINGTABLE_CLASS@@QAEPA_WPA_W@Z@4VSTRING_CLASS@@A 00453e04     v5subs:stringtable.obj
 0003:0000ce0c       ?$S1@?1??find@STRINGTABLE_CLASS@@QAEPA_WPA_W@Z@4IA 00453e0c     v5subs:stringtable.obj
 0003:0000ce10       _EmptyString               00453e10     v5subs:stsetup.obj
 0003:0000ce14       _ZeroPointZero             00453e14     v5subs:stsetup.obj
 0003:0000ce1c       _DefaultBreakVelocity      00453e1c     v5subs:stsetup.obj
 0003:0000ce24       _DefaultBreakGain          00453e24     v5subs:stsetup.obj
 0003:0000ce2c       ?s@?1??float_value@@YANPA_W@Z@4PA_WA 00453e2c     v5subs:stsetup.obj
 0003:0000ce40       ?st@?1??system_time@TIME_CLASS@@QAEAAU_SYSTEMTIME@@XZ@4U3@A 00453e40     v5subs:timeclas.obj
 0003:0000ce50       ?s@?1??jjj@TIME_CLASS@@QAEPA_WXZ@4PA_WA 00453e50     v5subs:timeclas.obj
 0003:0000ce58       ?s@?1??mmddyyyy@TIME_CLASS@@QAEPA_WXZ@4PA_WA 00453e58     v5subs:timeclas.obj
 0003:0000ce70       ?s@?1??hhmmss@TIME_CLASS@@QAEPA_WXZ@4PA_WA 00453e70     v5subs:timeclas.obj
 0003:0000ce84       _NullChar                  00453e84     v5subs:plookup.obj
 0003:0000ce88       _BackgroundColor           00453e88     v5subs:plotclas.obj
 0003:0000ce8c       _SymbolHeight              00453e8c     v5subs:plotclas.obj
 0003:0000ce90       _SymbolWidth               00453e90     v5subs:plotclas.obj
 0003:0000ce98       _NullChar                  00453e98     v5subs:get_ini.obj
 0003:0000cea0       _Buf                       00453ea0     v5subs:get_ini.obj
 0003:0000d6a8       _Bitmap                    004546a8     v5subs:choose_wire.obj
 0003:0000d6ac       _LedBitmap                 004546ac     v5subs:choose_wire.obj
 0003:0000d6c0       _ChosenWire                004546c0     v5subs:choose_wire.obj
 0003:0000d6c4       _CurrentGoodShotWire       004546c4     v5subs:choose_wire.obj
 0003:0000d6c8       _CurrentOutputModule       004546c8     v5subs:choose_wire.obj
 0003:0000d6cc       _CurrentOutputType         004546cc     v5subs:choose_wire.obj
 0003:0000d6d0       _CurrentOutputIndex        004546d0     v5subs:choose_wire.obj
 0003:0000d6d4       _NofWires                  004546d4     v5subs:choose_wire.obj
 0003:0000d6d8       _LedRect                   004546d8     v5subs:choose_wire.obj
 0003:0000d6dc       _WireRect                  004546dc     v5subs:choose_wire.obj
 0003:0000d6e4       _NeedManualDialog          004546e4     v5subs:choose_wire.obj
 0003:0000d6e8       _ControlLedRect            004546e8     v5subs:choose_wire.obj
 0003:0000d7e8       _ControlWireRect           004547e8     v5subs:choose_wire.obj
 0003:0000d9e8       _MonitorLedRect            004549e8     v5subs:choose_wire.obj
 0003:0000da68       _MonitorWireRect           00454a68     v5subs:choose_wire.obj
 0003:0000dae8       _CenterX                   00454ae8     v5subs:choose_wire.obj
 0003:0000daec       _CenterY                   00454aec     v5subs:choose_wire.obj
 0003:0000daf0       _NullChar                  00454af0     v5subs:mem.obj
 0003:0000daf4       _MyMainWindow              00454af4     v5subs:client.obj
 0003:0000daf8       _EventList                 00454af8     v5subs:client.obj
 0003:0000db04       _ServerNameHandle          00454b04     v5subs:client.obj
 0003:0000db08       _DdeId                     00454b08     v5subs:client.obj
 0003:0000db0c       _ServerHandle              00454b0c     v5subs:client.obj
 0003:0000db10       ?s@?1??one_hot_link@@YAXPAUHCONV__@@FI@Z@4VSTRING_CLASS@@A 00454b10     v5subs:client.obj
 0003:0000db18       ?$S1@?1??one_hot_link@@YAXPAUHCONV__@@FI@Z@4IA 00454b18     v5subs:client.obj
 0003:0000db1c       _NullChar                  00454b1c     v5subs:path.obj
 0003:0000db20       _NullChar                  00454b20     v5subs:startpar.obj
 0003:0000db24       _NullChar                  00454b24     v5subs:fix.obj
 0003:0000db28       _NullChar                  00454b28     v5subs:log_file_string.obj
 0003:0000db2c       _EmptyString               00454b2c     v5subs:log_file_string.obj
 0003:0000db30       _NullChar                  00454b30     v5subs:shot_name.obj
 0003:0000db34       _EmptyString               00454b34     v5subs:units.obj
 0003:0000db38       _UnitsArray                00454b38     v5subs:units.obj
 0003:0000db3c       _NofUnits                  00454b3c     v5subs:units.obj
 0003:0000db40       ?TSL_INDEX@?1??copypart@@YAEAAVSTRING_CLASS@@00000I@Z@4HA 00454b40     v5subs:copypart.obj
 0003:0000db48       ?s@?1??resource_string@@YAPA_WPAUHINSTANCE__@@I@Z@4PA_WA 00454b48     v5subs:winsubs.obj
 0003:0000dd48       _OldCursor                 00454d48     v5subs:hourglas.obj
 0003:0000dd4c       _RefCount                  00454d4c     v5subs:hourglas.obj
 0003:0000dd50       _TempMessageWindow         00454d50     v5subs:temp_message.obj
 0003:0000dd54       _TempMessage               00454d54     v5subs:temp_message.obj
 0003:0000dd58       _TempMessageLen            00454d58     v5subs:temp_message.obj
 0003:0000dd5c       _TempMessageTimeoutMs      00454d5c     v5subs:temp_message.obj
 0003:0000dd60       _CenterTempMessage         00454d60     v5subs:temp_message.obj
 0003:0000dd64       ?timer_id@?1??temp_message_proc@@YGJPAUHWND__@@IIJ@Z@4IA 00454d64     v5subs:temp_message.obj
 0003:0000dd68       _NullChar                  00454d68     v5subs:shot_name_reset.obj
 0003:0000dd6c       _MyEmptyString             00454d6c     v5subs:shot_name_reset.obj
 0003:0000dd74       _NullChar                  00454d74     v5subs:textlist.obj
 0003:0000dd78       _EmptyString               00454d78     v5subs:warmupcl.obj
 0003:0000dd80       ?s@?1??full_name@WORKER_LIST_CLASS@@QAEPA_WPA_W@Z@4PA_WA 00454d80     v5subs:workclas.obj
 0003:0000ddc0       ?hex@?1??append_value@FTII_VAR@@QAE_NAAVSTRING_CLASS@@@Z@4PA_WA 00454dc0     v5subs:ftiiclas.obj
 0003:0000dde8       _NullChar                  00454de8     v5subs:machname.obj
 0003:0000ddec       _EmptyString               00454dec     v5subs:machname.obj
 0003:0000ddf4       ?s@?1??alphadate@@YAPA_WABU_SYSTEMTIME@@@Z@4PA_WA 00454df4     v5subs:time.obj
 0003:0000de0c       ?s@?1??alphatime@@YAPA_WABU_SYSTEMTIME@@@Z@4PA_WA 00454e0c     v5subs:time.obj
 0003:0000de20       _OVERWRITE_EXISTING        00454e20     v5subs:callfile.obj
 0003:0000de28       _Msg                       00454e28     v5subs:error_ms.obj
 0003:0000dea4       _NullChar                  00454ea4     v5subs:insalph.obj
 0003:0000dea8       _ExeDirectory              00454ea8     v5subs:gexedir.obj
 0003:0000deb4       _NullChar                  00454eb4     v5subs:strarray.obj
 0003:0000deb8       ?s@?1??fixed_string@@YAPA_WNJJ@Z@4PA_WA 00454eb8     v5subs:ftoasc.obj
 0003:0000df14       _EmptyString               00454f14     v5subs:execwait.obj
 0003:0000df20       _NullChar                  00454f20     v5subs:shift.obj
 0003:0000df24       _NullChar                  00454f24     v5subs:hex.obj
 0003:0000df28       _GS_ExceptionRecord        00454f28     LIBCMT:gs_report.obj
 0003:0000df78       _GS_ContextRecord          00454f78     LIBCMT:gs_report.obj
 0003:0000e244       _DebuggerWasPresent        00455244     LIBCMT:gs_report.obj
 0003:0000e290       __pmatherr_set             00455290     LIBCMT:libm_error.obj
 0003:0000e29c       ___type_info_root_node     0045529c     LIBCMT:typname.obj
 0003:0000e3a8       ?_pgmname@?1??_setargv@@9@9 004553a8     LIBCMT:stdargv.obj
 0003:0000e4b8       ?outmsg@?9??_NMSG_WRITE@@9@9 004554b8     LIBCMT:crt0msg.obj
 0003:0000eb00       _fSystemSet                00455b00     LIBCMT:mbctype.obj
 0003:0000eb10       _lclcritsects              00455b10     LIBCMT:mlock.obj
 0003:0000ec68       _ctrlc_action              00455c68     LIBCMT:winsig.obj
 0003:0000ec6c       _ctrlbreak_action          00455c6c     LIBCMT:winsig.obj
 0003:0000ec70       _abort_action              00455c70     LIBCMT:winsig.obj
 0003:0000ec74       _term_action               00455c74     LIBCMT:winsig.obj
 0003:0000ec78       _ConsoleCtrlHandler_Installed 00455c78     LIBCMT:winsig.obj
 0003:0000ec7c       _g_pfnRtlGenRandom         00455c7c     LIBCMT:rand_s.obj
 0003:0000ecb0       _heap                      00455cb0     LIBCMT:undname.obj
 0003:0000eccc       ?pfnMessageBox@?1??__crtMessageBoxW@@9@9 00455ccc     LIBCMT:crtmboxw.obj
 0003:0000ecd0       ?pfnGetActiveWindow@?1??__crtMessageBoxW@@9@9 00455cd0     LIBCMT:crtmboxw.obj
 0003:0000ecd4       ?pfnGetLastActivePopup@?1??__crtMessageBoxW@@9@9 00455cd4     LIBCMT:crtmboxw.obj
 0003:0000ecd8       ?pfnGetProcessWindowStation@?1??__crtMessageBoxW@@9@9 00455cd8     LIBCMT:crtmboxw.obj
 0003:0000ecdc       ?pfnGetUserObjectInformation@?1??__crtMessageBoxW@@9@9 00455cdc     LIBCMT:crtmboxw.obj
 0003:0000ece8       ___crtCallProc             00455ce8     LIBCMT:winapinls.obj
 0004:00001080       $R000000                   00458080     editpart.res
 0004:000011f8       $R000178                   004581f8     editpart.res
 0004:00001610       $R000590                   00458610     editpart.res
 0004:00001dc0       $R000D40                   00458dc0     editpart.res
 0004:000029a8       $R001928                   004599a8     editpart.res
 0004:00002df0       $R001D70                   00459df0     editpart.res
 0004:00003378       $R0022F8                   0045a378     editpart.res
 0004:00003638       $R0025B8                   0045a638     editpart.res
 0004:00003e80       $R002E00                   0045ae80     editpart.res
 0004:00004218       $R003198                   0045b218     editpart.res
 0004:000049d0       $R003950                   0045b9d0     editpart.res
 0004:00005b10       $R004A90                   0045cb10     editpart.res
 0004:00006628       $R0055A8                   0045d628     editpart.res
 0004:000069f0       $R005970                   0045d9f0     editpart.res
 0004:00006da8       $R005D28                   0045dda8     editpart.res
 0004:00006ec0       $R005E40                   0045dec0     editpart.res
 0004:00007550       $R0064D0                   0045e550     editpart.res
 0004:00007ba8       $R006B28                   0045eba8     editpart.res
 0004:00008058       $R006FD8                   0045f058     editpart.res
 0004:000081e8       $R007168                   0045f1e8     editpart.res
 0004:00008330       $R0072B0                   0045f330     editpart.res
 0004:000083d0       $R007350                   0045f3d0     editpart.res
 0004:00008630       $R0075B0                   0045f630     editpart.res
 0004:00008818       $R007798                   0045f818     editpart.res
 0004:000088e0       $R007860                   0045f8e0     editpart.res
 0004:00008a38       $R0079B8                   0045fa38     editpart.res
 0004:00008b40       $R007AC0                   0045fb40     editpart.res
 0004:00008be0       $R007B60                   0045fbe0     editpart.res
 0004:00008ca0       $R007C20                   0045fca0     editpart.res
 0004:00008de0       $R007D60                   0045fde0     editpart.res
 0004:00008f00       $R007E80                   0045ff00     editpart.res
 0004:000091b8       $R008138                   004601b8     editpart.res
 0004:000094b0       $R008430                   004604b0     editpart.res
 0004:0000aae8       $R009A68                   00461ae8     editpart.res
 0004:0000ae50       $R009DD0                   00461e50     editpart.res
 0004:0000aea8       $R009E28                   00461ea8     editpart.res
 0004:0000af78       $R009EF8                   00461f78     editpart.res
 0004:0000b0e0       $R00A060                   004620e0     editpart.res
 0004:0000b298       $R00A218                   00462298     editpart.res
 0004:0000b4e0       $R00A460                   004624e0     editpart.res
 0004:0000b830       $R00A7B0                   00462830     editpart.res
 0004:0000b9d8       $R00A958                   004629d8     editpart.res
 0004:0000bb98       $R00AB18                   00462b98     editpart.res
 0004:0000c000       $R00AF80                   00463000     editpart.res
 0004:0000c010       $R00AF90                   00463010     editpart.res
 0004:0000c2f8       $R00B278                   004632f8     editpart.res
 0004:0000c310       $R00B290                   00463310     editpart.res
 0004:0000c5e8       $R00B568                   004635e8     editpart.res
 0004:0000c6b8       $R00B638                   004636b8     editpart.res
