 profile

 Timestamp is 607721e8 (Wed Apr 14 13:10:00 2021)

 Preferred load address is 00400000

 Start         Length     Name                   Class
 0001:00000000 00000730H .text$di                CODE
 0001:00000730 00060394H .text$mn                CODE
 0001:00060ac4 000003d9H .text$yd                CODE
 0002:00000000 00000448H .idata$5                DATA
 0002:00000448 00000004H .CRT$XCA                DATA
 0002:0000044c 00000160H .CRT$XCU                DATA
 0002:000005ac 00000004H .CRT$XCZ                DATA
 0002:000005b0 00000004H .CRT$XIA                DATA
 0002:000005b4 00000014H .CRT$XIC                DATA
 0002:000005c8 00000004H .CRT$XIY                DATA
 0002:000005cc 00000004H .CRT$XIZ                DATA
 0002:000005d0 00000004H .CRT$XPA                DATA
 0002:000005d4 00000008H .CRT$XPX                DATA
 0002:000005dc 00000004H .CRT$XPXA               DATA
 0002:000005e0 00000004H .CRT$XPZ                DATA
 0002:000005e4 00000004H .CRT$XTA                DATA
 0002:000005e8 00000004H .CRT$XTZ                DATA
 0002:000005f0 00008d60H .rdata                  DATA
 0002:00009350 00000974H .rdata$r                DATA
 0002:00009cd0 0000000cH .rdata$sxdata           DATA
 0002:00009cdc 00000004H .rtc$IAA                DATA
 0002:00009ce0 00000004H .rtc$IZZ                DATA
 0002:00009ce4 00000004H .rtc$TAA                DATA
 0002:00009ce8 00000004H .rtc$TZZ                DATA
 0002:00009cf0 0000034cH .xdata$x                DATA
 0002:0000a03c 00000000H .edata                  DATA
 0002:0000a03c 0000008cH .idata$2                DATA
 0002:0000a0c8 00000014H .idata$3                DATA
 0002:0000a0dc 00000448H .idata$4                DATA
 0002:0000a524 0000119cH .idata$6                DATA
 0003:00000000 000045e4H .data                   DATA
 0003:000045e4 00000390H .data$r                 DATA
 0003:00004980 00093e24H .bss                    DATA
 0004:00000000 000011e4H .rsrc$01                DATA
 0004:000011f0 0000c168H .rsrc$02                DATA

  Address         Publics by Value              Rva+Base       Lib:Object

 0000:00000000       ___guard_fids_count        00000000     <absolute>
 0000:00000000       ___guard_fids_table        00000000     <absolute>
 0000:00000000       __except_list              00000000     <absolute>
 0000:00000000       ___guard_flags             00000000     <absolute>
 0000:00000003       ___safe_se_handler_count   00000003     <absolute>
 0000:00000000       ___ImageBase               00400000     <linker-defined>
 0001:00000730       ??0FTANALOG_CLASS@@QAE@XZ  00401730 f i profile.obj
 0001:0000074d       ??0PROFILE_NAME_ENTRY@@QAE@XZ 0040174d f i profile.obj
 0001:00000771       ??1FTANALOG_CLASS@@QAE@XZ  00401771 f i profile.obj
 0001:0000078c       ??1FTCALC_CLASS@@QAE@XZ    0040178c f i profile.obj
 0001:000007cd       ??1MACHINE_CLASS@@QAE@XZ   004017cd f i profile.obj
 0001:0000082c       ??1MARKS_CLASS@@QAE@XZ     0040182c f i profile.obj
 0001:00000863       ??1PARAMETER_CLASS@@QAE@XZ 00401863 f i profile.obj
 0001:00000898       ??1PARAMETER_ENTRY@@QAE@XZ 00401898 f i profile.obj
 0001:000008c2       ??1PROFILE_NAME_ENTRY@@QAE@XZ 004018c2 f i profile.obj
 0001:000008e5       ??4FTII_VAR@@UAEXABV0@@Z   004018e5 f i profile.obj
 0001:000008f8       ??4FTII_VAR@@UAEXH@Z       004018f8 f i profile.obj
 0001:000008f8       ??4FTII_VAR@@UAEXI@Z       004018f8 f i profile.obj
 0001:00000902       ??_GFTII_VAR_ARRAY@@UAEPAXI@Z 00401902 f i profile.obj
 0001:00000902       ??_EFTII_VAR_ARRAY@@UAEPAXI@Z 00401902 f i profile.obj
 0001:0000091e       ?IsWindowsVersionOrGreater@@YA_NGGG@Z 0040191e f i profile.obj
 0001:000009e2       ?ZoomBoxProc@@YGHPAUHWND__@@IIJ@Z 004019e2 f   profile.obj
 0001:000009e2       ?SmallZoomBoxProc@@YGHPAUHWND__@@IIJ@Z 004019e2 f   profile.obj
 0001:00000a00       ?about_dialog_proc@@YGHPAUHWND__@@IIJ@Z 00401a00 f   profile.obj
 0001:00000a5f       ?add_to_backup_list@@YAXXZ 00401a5f f   profile.obj
 0001:00000ca3       ?adjust_all_y_axis_limits@@YAXXZ 00401ca3 f   profile.obj
 0001:00000ea3       ?alarm_log_setup_proc@@YGHPAUHWND__@@IIJ@Z 00401ea3 f   profile.obj
 0001:00000eec       ?alarm_summary_proc@@YGHPAUHWND__@@IIJ@Z 00401eec f   profile.obj
 0001:0000194c       ?choose_corner_parameters@@YAXXZ 0040294c f   profile.obj
 0001:00001972       ?choose_downtime_machine_dialog_proc@@YGHPAUHWND__@@IIJ@Z 00402972 f   profile.obj
 0001:00001a87       ?choose_language_dialog_proc@@YGHPAUHWND__@@IIJ@Z 00402a87 f   profile.obj
 0001:00001b5f       ?close_dialog@@YAXPAUHWND__@@@Z 00402b5f f   profile.obj
 0001:00001ebf       ?corner_param_dialog_proc@@YGHPAUHWND__@@IIJ@Z 00402ebf f   profile.obj
 0001:00001fbe       ?countchars@STRING_CLASS@@QAEJD@Z 00402fbe f i profile.obj
 0001:00002535       ?create_menu_help_box@@YAXXZ 00403535 f   profile.obj
 0001:000026d1       ?csv_shot_file_dialog_proc@@YGHPAUHWND__@@IIJ@Z 004036d1 f   profile.obj
 0001:000028fe       ?date_and_shift_string@@YAPADAAVTIME_CLASS@@J@Z 004038fe f   profile.obj
 0001:0000299f       ?day_param_eb_sub_proc@@YGJPAUHWND__@@IIJ@Z 0040399f f   profile.obj
 0001:00002a89       ?delete_file@NAME_CLASS@@QAEEXZ 00403a89 f i profile.obj
 0001:00002ad9       ?do_language_selection@@YAXPAUHWND__@@@Z 00403ad9 f   profile.obj
 0001:00003278       ?do_view_parameters_menu@@YAXXZ 00404278 f   profile.obj
 0001:0000332d       ?do_zoom_arrow_keys@@YAEH@Z 0040432d f   profile.obj
 0001:000035aa       ?down_data_callback@@YAXPADFPAUHDDEDATA__@@@Z 004045aa f   profile.obj
 0001:0000370e       ?downtime_entry_dialog_proc@@YGHPAUHWND__@@IIJ@Z 0040470e f   profile.obj
 0001:0000384c       ?downtime_entry_sub_proc@@YGJPAUHWND__@@IIJ@Z 0040484c f   profile.obj
 0001:000038c2       ?draw_axis@@YAXHFAAUtagRECT@@IGFF@Z 004048c2 f   profile.obj
 0001:00003b60       ?draw_grid@@YAXH@Z         00404b60 f   profile.obj
 0001:00003cc4       ?draw_mark@@YAXMHPAUMARKLIST_ENTRY@@@Z 00404cc4 f   profile.obj
 0001:0000401b       ?draw_vertical_tics@@YAXAAUtagRECT@@HPAUHPEN__@@1@Z 0040501b f   profile.obj
 0001:00004292       ?enable_prev_next_buttons@@YAXPAUHWND__@@@Z 00405292 f   profile.obj
 0001:00004485       ?file_exists@NAME_CLASS@@QAEEXZ 00405485 f i profile.obj
 0001:00004784       ?fill_languages@@YAXPAUHWND__@@@Z 00405784 f   profile.obj
 0001:000049f3       ?fill_version@@YAXPAUHWND__@@@Z 004059f3 f   profile.obj
 0001:00004a53       ?find_index@@YAHMHH@Z      00405a53 f   profile.obj
 0001:00004ae0       ?fix_decimals@@YAXPADF@Z   00405ae0 f   profile.obj
 0001:00004f0b       ?get_alarm_period_type@@YAXAAE0@Z 00405f0b f   profile.obj
 0001:00004f46       ?get_current_shot@@YAEXZ   00405f46 f   profile.obj
 0001:00004f88       ?get_default_printer_dc@@YAPAUHDC__@@XZ 00405f88 f   profile.obj
 0001:000050df       ?get_ft2_help@@YAXXZ       004060df f   profile.obj
 0001:00005245       ?get_printer_dc@@YAPAUHDC__@@XZ 00406245 f   profile.obj
 0001:00005345       ?get_profile_ii_name@NAME_CLASS@@QAEEAAVSTRING_CLASS@@000@Z 00406345 f i profile.obj
 0001:00005370       ?gethelp@@YAXIK@Z          00406370 f   profile.obj
 0001:00005386       ?gethelp@@YAXPADIK@Z       00406386 f   profile.obj
 0001:000055cd       ?high_index@@YAHMH@Z       004065cd f   profile.obj
 0001:00005627       ?init@@YAXH@Z              00406627 f   profile.obj
 0001:00005f1a       ?is_current_shot@@YAEPAUPROFILE_NAME_ENTRY@@@Z 00406f1a f   profile.obj
 0001:00005f5a       ?load_from_network_dialog_proc@@YGHPAUHWND__@@IIJ@Z 00406f5a f   profile.obj
 0001:00006753       ?load_realtime_machine_list@@YAXXZ 00407753 f   profile.obj
 0001:0000695a       ?machine_list_dialog_proc@@YGHPAUHWND__@@IIJ@Z 0040795a f   profile.obj
 0001:000069ec       ?main_plot_proc@@YGJPAUHWND__@@IIJ@Z 004079ec f   profile.obj
 0001:00006f64       ?main_proc@@YGJPAUHWND__@@IIJ@Z 00407f64 f   profile.obj
 0001:00007e22       ?monitor_setup_callback@@YAXPADFPAUHDDEDATA__@@@Z 00408e22 f   profile.obj
 0001:00007ec7       ?my_desktop_client_rect@@YAAAUtagRECT@@XZ 00408ec7 f   profile.obj
 0001:00007f20       ?my_enum_windows_proc@@YGHPAUHWND__@@J@Z 00408f20 f   profile.obj
 0001:00007f80       ?new_machine_setup_callback@@YAXPADFPAUHDDEDATA__@@@Z 00408f80 f   profile.obj
 0001:00007fee       ?new_machine_state_callback@@YAXPADFPAUHDDEDATA__@@@Z 00408fee f   profile.obj
 0001:00008065       ?new_part_setup_callback@@YAXPADFPAUHDDEDATA__@@@Z 00409065 f   profile.obj
 0001:0000815b       ?new_shot_callback@@YAXPADFPAUHDDEDATA__@@@Z 0040915b f   profile.obj
 0001:000084da       ?operator_signon_proc@@YGHPAUHWND__@@IIJ@Z 004094da f   profile.obj
 0001:000085d8       ?overlaying@@YA_NXZ        004095d8 f   profile.obj
 0001:00008adb       ?paint_plot_background@@YAXPAUHWND__@@PAUHDC__@@@Z 00409adb f   profile.obj
 0001:00008c4e       ?password_level_callback@@YAXPADFPAUHDDEDATA__@@@Z 00409c4e f   profile.obj
 0001:00008ee0       ?position_downtime_entry_dialog@@YAXXZ 00409ee0 f   profile.obj
 0001:00009049       ?position_main_plot_window@@YAXXZ 0040a049 f   profile.obj
 0001:000090eb       ?position_xdcr_window@@YAXXZ 0040a0eb f   profile.obj
 0001:00009894       ?print_me@@YAXXZ           0040a894 f   profile.obj
 0001:00009e81       ?redisplay_last_shot@@YAEXZ 0040ae81 f   profile.obj
 0001:0000a0d8       ?resource_string@@YAPADI@Z 0040b0d8 f   profile.obj
 0001:0000a11d       ?restore_focus_to_hmi@@YAXXZ 0040b11d f   profile.obj
 0001:0000a668       ?save_class_name@@YAXPAUHWND__@@@Z 0040b668 f   profile.obj
 0001:0000a6ce       ?save_last_shot_name@@YAXXZ 0040b6ce f   profile.obj
 0001:0000b029       ?set_cat_and_subcat_tabs@@YAXXZ 0040c029 f   profile.obj
 0001:0000b39b       ?set_current_directory@@YAXXZ 0040c39b f   profile.obj
 0001:0000b8b0       ?set_full_screen@@YAXXZ    0040c8b0 f   profile.obj
 0001:0000b939       ?set_info_box_type@@YAXH@Z 0040c939 f   profile.obj
 0001:0000bd38       ?set_plot_curves@@YAXXZ    0040cd38 f   profile.obj
 0001:0000bf31       ?set_realtime_menu_string@@YAXXZ 0040cf31 f   profile.obj
 0001:0000c12c       ?set_tsl_dialog_proc@@YGHPAUHWND__@@IIJ@Z 0040d12c f   profile.obj
 0001:0000c46d       ?set_zoom_box_labels@@YAXPAUHWND__@@@Z 0040d46d f   profile.obj
 0001:0000c8ec       ?show_all_windows@@YAXXZ   0040d8ec f   profile.obj
 0001:0000ca67       ?show_curve@@YAXFFFFFK@Z   0040da67 f   profile.obj
 0001:0000cd19       ?show_downtime_entry_time@@YAXXZ 0040dd19 f   profile.obj
 0001:0000ce5b       ?show_fixed_axis_message@@YAXXZ 0040de5b f   profile.obj
 0001:0000cfb6       ?show_left_axes@@YAXXZ     0040dfb6 f   profile.obj
 0001:0000d392       ?show_menu_help_text@@YAXI@Z 0040e392 f   profile.obj
 0001:0000d3e7       ?show_offline_info@@YAXXZ  0040e3e7 f   profile.obj
 0001:0000db56       ?show_right_axes@@YAXXZ    0040eb56 f   profile.obj
 0001:0000de59       ?show_shot_info@@YAXXZ     0040ee59 f   profile.obj
 0001:0000e207       ?show_x_axes@@YAXXZ        0040f207 f   profile.obj
 0001:0000e4cf       ?show_zoom_info@@YAXXZ     0040f4cf f   profile.obj
 0001:0000e601       ?show_zoom_value@@YAXHGHHF@Z 0040f601 f   profile.obj
 0001:0000ec54       ?start_alarm_summary_dialog@@YAXXZ 0040fc54 f   profile.obj
 0001:0000ed75       ?text_out@@YAXJJI@Z        0040fd75 f   profile.obj
 0001:0000eda5       ?text_out@@YAXJJPAD@Z      0040fda5 f   profile.obj
 0001:0000ee64       ?toggle_big_param_display_type@@YAXXZ 0040fe64 f   profile.obj
 0001:0000ef16       ?toggle_menu_view_state@@YAXAAEI@Z 0040ff16 f   profile.obj
 0001:0000ef35       ?toggle_pos_time_display_type@@YAXXZ 0040ff35 f   profile.obj
 0001:0000ef7e       ?toggle_realtime@@YAXXZ    0040ff7e f   profile.obj
 0001:0000f41f       ?update_screen_type@@YAXF@Z 0041041f f   profile.obj
 0001:0000f5f9       ?viewing_reference@@YA_NXZ 004105f9 f   profile.obj
 0001:0000f61e       ?write_std_units_csv_file@@YAEAAVSTRING_CLASS@@0@Z 0041061e f   profile.obj
 0001:0000fa1e       ?x_value@@YAEAAMAAHH@Z     00410a1e f   profile.obj
 0001:0000fd5a       _WinMain@16                00410d5a f   profile.obj
 0001:0000feaa       ?copy_int32_w_char@@YAPADPADAAVDB_TABLE@@G@Z 00410eaa f   alarmexp.obj
 0001:000100e5       ?export_alarms_dialog_proc@@YGHPAUHWND__@@IIJ@Z 004110e5 f   alarmexp.obj
 0001:000105df       ??0BITMAP_CLASS@@QAE@XZ    004115df f   bitmapcl.obj
 0001:000105f2       ??1BITMAP_CLASS@@QAE@XZ    004115f2 f   bitmapcl.obj
 0001:000105f7       ?cleanup@BITMAP_CLASS@@QAEXXZ 004115f7 f   bitmapcl.obj
 0001:0001060c       ?get@BITMAP_CLASS@@QAEEPAUHDC__@@JJ@Z 0041160c f   bitmapcl.obj
 0001:00010672       ?init@BITMAP_CLASS@@QAEEPAUHDC__@@JJ@Z 00411672 f   bitmapcl.obj
 0001:000106ac       ?restore@BITMAP_CLASS@@QAEEPAUHDC__@@@Z 004116ac f   bitmapcl.obj
 0001:00010704       ??0STATUSBOX_ENTRY@@QAE@XZ 00411704 f   box.obj
 0001:0001073a       ??1STATUSBOX_ENTRY@@QAE@XZ 0041173a f   box.obj
 0001:0001074e       ??_ESTATUSBOX_ENTRY@@QAEPAXI@Z 0041174e f i box.obj
 0001:000107a3       ?alarm_rect@STATUSBOX_ENTRY@@QAEPAUtagRECT@@XZ 004117a3 f   box.obj
 0001:000107e9       ?begin_box_display@@YAEXZ  004117e9 f   box.obj
 0001:00010b24       ?bounds@STATUSBOX_ENTRY@@QAEPAUtagRECT@@XZ 00411b24 f   box.obj
 0001:00010d09       ?box_display_shutdown@@YAXXZ 00411d09 f   box.obj
 0001:00010d26       ?box_display_startup@@YAEXZ 00411d26 f   box.obj
 0001:00010d35       ?box_screen_down_data_change@@YAXAAVSTRING_CLASS@@PAD1@Z 00411d35 f   box.obj
 0001:00010e2d       ?box_screen_left_button_up@@YAXAAUtagPOINT@@@Z 00411e2d f   box.obj
 0001:00010f3e       ?box_screen_new_machine_status@@YAXAAVSTRING_CLASS@@G@Z 00411f3e f   box.obj
 0001:00010f7d       ?box_screen_new_monitor_setup@@YAXAAVSTRING_CLASS@@@Z 00411f7d f   box.obj
 0001:00010fc2       ?box_screen_new_shot@@YAXAAVSTRING_CLASS@@@Z 00411fc2 f   box.obj
 0001:0001109f       ?choose_box_font@@YAEXZ    0041209f f   box.obj
 0001:0001117e       ?date_rect@STATUSBOX_ENTRY@@QAEPAUtagRECT@@XZ 0041217e f   box.obj
 0001:000111c2       ?delete_tooltips@@YAXXZ    004121c2 f   box.obj
 0001:00011272       ?down_rect@STATUSBOX_ENTRY@@QAEPAUtagRECT@@XZ 00412272 f   box.obj
 0001:000112b7       ?empty_status_boxes@@YAXXZ 004122b7 f   box.obj
 0001:000112dc       ?end_box_display@@YAXXZ    004122dc f   box.obj
 0001:000112f6       ?find_status_box@@YAPAVSTATUSBOX_ENTRY@@AAVSTRING_CLASS@@@Z 004122f6 f   box.obj
 0001:00011312       ?get@BOXSET_CLASS@@QAEHXZ  00412312 f   box.obj
 0001:0001134b       ?get_alarm_info@STATUSBOX_ENTRY@@QAEXXZ 0041234b f   box.obj
 0001:0001140a       ?get_downtime_status@STATUSBOX_ENTRY@@QAEXXZ 0041240a f   box.obj
 0001:000114a2       ?get_part_info@STATUSBOX_ENTRY@@QAEEXZ 004124a2 f   box.obj
 0001:000115c5       ?get_shot_info@STATUSBOX_ENTRY@@QAEXXZ 004125c5 f   box.obj
 0001:000116b5       ?machine_rect@STATUSBOX_ENTRY@@QAEPAUtagRECT@@XZ 004126b5 f   box.obj
 0001:000116f9       ?make_status_boxes@@YAEXZ  004126f9 f   box.obj
 0001:0001177c       ?paint_box_display@@YAXAAUtagPAINTSTRUCT@@@Z 0041277c f   box.obj
 0001:00011844       ?part_rect@STATUSBOX_ENTRY@@QAEPAUtagRECT@@XZ 00412844 f   box.obj
 0001:00011888       ?put@BOXSET_CLASS@@QAEEXZ  00412888 f   box.obj
 0001:00011921       ?read_alarm_info@STATUSBOX_ENTRY@@QAEXXZ 00412921 f   box.obj
 0001:00011b8a       ?refresh@STATUSBOX_ENTRY@@QAEXXZ 00412b8a f   box.obj
 0001:00011e6b       ?shot_rect@STATUSBOX_ENTRY@@QAEPAUtagRECT@@XZ 00412e6b f   box.obj
 0001:00011eaf       ?show_border@STATUSBOX_ENTRY@@QAEXPAUHDC__@@@Z 00412eaf f   box.obj
 0001:00011f5f       ?show_text@STATUSBOX_ENTRY@@QAEXPAUHDC__@@@Z 00412f5f f   box.obj
 0001:0001220d       ?status_box_index@@YAJAAVSTRING_CLASS@@@Z 0041320d f   box.obj
 0001:00012254       ?tiptext@@YAPADJPAD0@Z     00413254 f   box.obj
 0001:000122d6       ?chospart_proc@@YGHPAUHWND__@@IIJ@Z 004132d6 f   chospart.obj
 0001:00012706       ?chosshot_proc@@YGHPAUHWND__@@IIJ@Z 00413706 f   chosshot.obj
 0001:0001291b       ?copy_selections_to_extern@@YAXXZ 0041391b f   chosshot.obj
 0001:000131fa       ?set_listbox_style@@YAXXZ  004141fa f   chosshot.obj
 0001:0001323a       ?choose_one_color@@YAKI@Z  0041423a f   colordef.obj
 0001:000132d6       ?color_definition_dialog_proc@@YGHPAUHWND__@@IIJ@Z 004142d6 f   colordef.obj
 0001:00013461       ?get_color@@YAKI@Z         00414461 f   colordef.obj
 0001:000135cc       ?restore_original_colors@@YAXXZ 004145cc f   colordef.obj
 0001:00013634       ?save_original_colors@@YAXXZ 00414634 f   colordef.obj
 0001:00013760       ?set_one_color@@YAXIK@Z    00414760 f   colordef.obj
 0001:000138e4       ?restore_colors@@YAXXZ     004148e4 f   colors.obj
 0001:000139e2       ?save_colors@@YAXXZ        004149e2 f   colors.obj
 0001:00013a93       ?read_corner_parameters@@YAXPAHAAH@Z 00414a93 f   corner.obj
 0001:00013b95       ?save_corner_parameters@@YAXPAHH@Z 00414b95 f   corner.obj
 0001:00013c96       ??0MACHINE_NAME_LIST_CLASS@@QAE@XZ 00414c96 f   v5subs:machname.obj
 0001:00013c96       ??0CONTROL_LIMIT_CLASS@@QAE@XZ 00414c96 f   ctrlimit.obj
 0001:00013c96       ??0TEXT_LIST_CLASS@@QAE@XZ 00414c96 f   v5subs:textlist.obj
 0001:00013ca6       ??1CONTROL_LIMIT_CLASS@@QAE@XZ 00414ca6 f   ctrlimit.obj
 0001:00013cb7       ?add@CONTROL_LIMIT_CLASS@@QAEEJMM@Z 00414cb7 f   ctrlimit.obj
 0001:00013d59       ?empty@CONTROL_LIMIT_CLASS@@QAEXXZ 00414d59 f   ctrlimit.obj
 0001:00013d8c       ?find@CONTROL_LIMIT_CLASS@@QAEEJ@Z 00414d8c f   ctrlimit.obj
 0001:00013dc3       ?read@CONTROL_LIMIT_CLASS@@QAEEAAVSTRING_CLASS@@00@Z 00414dc3 f   ctrlimit.obj
 0001:00013e13       ?read@CONTROL_LIMIT_CLASS@@QAEEPAD@Z 00414e13 f   ctrlimit.obj
 0001:00013ebf       ?read@CONTROL_LIMIT_ENTRY@@QAEEAAVDB_TABLE@@@Z 00414ebf f   ctrlimit.obj
 0001:00013ef1       ?write@CONTROL_LIMIT_CLASS@@QAEEAAVSTRING_CLASS@@00@Z 00414ef1 f   ctrlimit.obj
 0001:00013f41       ?write@CONTROL_LIMIT_CLASS@@QAEEPAD@Z 00414f41 f   ctrlimit.obj
 0001:00013fcd       ?write@CONTROL_LIMIT_ENTRY@@QAEEAAVDB_TABLE@@@Z 00414fcd f   ctrlimit.obj
 0001:00014015       ??0DOWNBAR_CONFIG_CLASS@@QAE@XZ 00415015 f   dbarcfg.obj
 0001:0001405c       ?downtime_report_setup_proc@@YGHPAUHWND__@@IIJ@Z 0041505c f   dbarcfg.obj
 0001:000146d0       ?get_from_screen@DOWNBAR_SCREEN_CONFIG_CLASS@@QAEXPAUHWND__@@@Z 004156d0 f   dbarcfg.obj
 0001:0001479e       ?get_new_start_time@@YAXPAUHWND__@@H@Z 0041579e f   dbarcfg.obj
 0001:00014b2a       ?listbox_line@@YAPADAAVDB_TABLE@@@Z 00415b2a f   dbarcfg.obj
 0001:00014d89       ?put_to_screen@DOWNBAR_SCREEN_CONFIG_CLASS@@QAEXPAUHWND__@@@Z 00415d89 f   dbarcfg.obj
 0001:00014e67       ?read@DOWNBAR_CONFIG_CLASS@@QAEXXZ 00415e67 f   dbarcfg.obj
 0001:00014ee9       ?resource_message_box@@YAXII@Z 00415ee9 f   dbarcfg.obj
 0001:000150a0       ?write@DOWNBAR_CONFIG_CLASS@@QAEXXZ 004160a0 f   dbarcfg.obj
 0001:00015237       ?directory_exists@NAME_CLASS@@QAEEXZ 00416237 f i dconfig.obj
 0001:0001524c       ?display_configuration_dialog_proc@@YGHPAUHWND__@@IIJ@Z 0041624c f   dconfig.obj
 0001:00015389       ?get_curve_types_from_screen@@YAXAAGH@Z 00416389 f   dconfig.obj
 0001:000153f2       ?get_from_screen@FIXED_SCREEN_CLASS@@QAEXXZ 004163f2 f   dconfig.obj
 0001:000155f5       ?init_global_curve_types@@YAXXZ 004165f5 f   dconfig.obj
 0001:00015a0a       ?load_the_other_config@@YAXXZ 00416a0a f   dconfig.obj
 0001:00015a5a       ?put_to_screen@FIXED_SCREEN_CLASS@@QAEXXZ 00416a5a f   dconfig.obj
 0001:0001623d       ?set_fixed_axes@FIXED_SCREEN_CLASS@@QAEXXZ 0041723d f   dconfig.obj
 0001:000162a8       ?set_one_fixed_axis@FIXED_SCREEN_CLASS@@QAEXJJ@Z 004172a8 f   dconfig.obj
 0001:00016307       ?toggle_pressure_display_type@@YAXXZ 00417307 f   dconfig.obj
 0001:000163c0       ??0CAT_BASE_CLASS@@QAE@XZ  004173c0 f   downbar.obj
 0001:000163d3       ??0DOWNTIME_BASE_CLASS@@QAE@PAD0@Z 004173d3 f   downbar.obj
 0001:000163f9       ??0DOWNTIME_BASE_CLASS@@QAE@XZ 004173f9 f   downbar.obj
 0001:000163f9       ??0DSTAT_CLASS@@QAE@XZ     004173f9 f   profile.obj
 0001:0001641a       ??0DOWNTIME_SUM_ENTRY@@QAE@XZ 0041741a f   downbar.obj
 0001:0001642a       ??4DOWNTIME_BASE_CLASS@@QAEXABV0@@Z 0041742a f   downbar.obj
 0001:00016453       ??4DOWNTIME_RECORD_CLASS@@QAEXABV0@@Z 00417453 f   downbar.obj
 0001:0001646c       ??8CAT_BASE_CLASS@@QAEEPBD@Z 0041746c f   downbar.obj
 0001:00016480       ??8DOWNTIME_BASE_CLASS@@QAEEABV0@@Z 00417480 f   downbar.obj
 0001:000164b1       ??8DOWNTIME_SUM_CLASS@@QAEEABVDOWNTIME_BASE_CLASS@@@Z 004174b1 f   downbar.obj
 0001:000164de       ??9DOWNTIME_BASE_CLASS@@QAEEABV0@@Z 004174de f   downbar.obj
 0001:0001650f       ??9DOWNTIME_SUM_CLASS@@QAEEABVDOWNTIME_BASE_CLASS@@@Z 0041750f f   downbar.obj
 0001:0001653c       ?add@CAT_SUM_CLASS@@QAEPAVCAT_SUM_ENTRY@@PAD@Z 0041753c f   downbar.obj
 0001:00016598       ?begin_downbar_display@@YAEXZ 00417598 f   downbar.obj
 0001:00016610       ?category@DOWNTIME_SUM_CLASS@@QAEPADXZ 00417610 f   downbar.obj
 0001:00016623       ?cleanup@CAT_SUM_CLASS@@QAEXXZ 00417623 f   downbar.obj
 0001:0001664b       ?cleanup@DOWNTIME_SUM_CLASS@@QAEXXZ 0041764b f   downbar.obj
 0001:00016667       ?do_downbar_button@@YAXH@Z 00417667 f   downbar.obj
 0001:00016697       ?do_new_dtr_config@@YAXXZ  00417697 f   downbar.obj
 0001:000166b2       ?down_seconds@DOWNTIME_SUM_CLASS@@QAEJXZ 004176b2 f   downbar.obj
 0001:0001670c       ?downbar_left_button_up@@YAXAAUtagPOINT@@@Z 0041770c f   downbar.obj
 0001:000167aa       ?empty@DOWNTIME_SUM_CLASS@@QAEEXZ 004177aa f   downbar.obj
 0001:000167d2       ?end_downbar_display@@YAXXZ 004177d2 f   downbar.obj
 0001:00016801       ?fill_times@@YAEXZ         00417801 f   downbar.obj
 0001:00016b5a       ?find@CAT_SUM_CLASS@@QAEPAVCAT_SUM_ENTRY@@PAD@Z 00417b5a f   downbar.obj
 0001:00016b80       ?get@DOWNTIME_RECORD_CLASS@@QAEEAAVDB_TABLE@@@Z 00417b80 f   downbar.obj
 0001:00016bf6       ?max_title_pixels@@YAHH@Z  00417bf6 f   downbar.obj
 0001:00016c98       ?next@CAT_SUM_CLASS@@QAEEXZ 00417c98 f   downbar.obj
 0001:00016cae       ?next@DOWNTIME_SUM_CLASS@@QAEEPAD@Z 00417cae f   downbar.obj
 0001:00016d45       ?paint_downbar_display@@YAXXZ 00417d45 f   downbar.obj
 0001:00017470       ?read@DOWNTIME_SUM_CLASS@@QAEEXZ 00418470 f   downbar.obj
 0001:00017636       ?seconds@CAT_SUM_CLASS@@QAEAAJPAD@Z 00418636 f   downbar.obj
 0001:00017663       ?seconds@DOWNTIME_SUM_CLASS@@QAEAAJPAD0@Z 00418663 f   downbar.obj
 0001:000176c2       ?seconds@DOWNTIME_SUM_CLASS@@QAEJXZ 004186c2 f   downbar.obj
 0001:000176d4       ?set_category_titles@@YAXXZ 004186d4 f   downbar.obj
 0001:0001772b       ?set_subcategory_titles@@YAXXZ 0041872b f   downbar.obj
 0001:00017792       ?show_title_and_hours@@YAXHPAD0HE@Z 00418792 f   downbar.obj
 0001:0001789b       ?show_title_and_hours@@YAXHPADHE@Z 0041889b f   downbar.obj
 0001:0001797f       ?sort@CAT_SUM_CLASS@@QAEXXZ 0041897f f   downbar.obj
 0001:000179da       ?title@CAT_SUM_CLASS@@QAEPADXZ 004189da f   downbar.obj
 0001:000179ee       ?title@DOWNTIME_SUM_CLASS@@QAEPADXZ 004189ee f   downbar.obj
 0001:00017a22       ?total_seconds@DOWNTIME_SUM_CLASS@@QAEJXZ 00418a22 f   downbar.obj
 0001:00017a59       ??0EDITOP_GRID_CLASS@@QAE@XZ 00418a59 f   editop.obj
 0001:00017a7b       ??1EDITOP_GRID_CLASS@@UAE@XZ 00418a7b f   editop.obj
 0001:00017aa3       ??_GEDITOP_GRID_CLASS@@UAEPAXI@Z 00418aa3 f i editop.obj
 0001:00017aa3       ??_EEDITOP_GRID_CLASS@@UAEPAXI@Z 00418aa3 f i editop.obj
 0001:00017abf       ?OnEditFinish@EDITOP_GRID_CLASS@@UAEHHJPAUHWND__@@PBDH@Z 00418abf f   editop.obj
 0001:00017b5d       ?OnKeyDown@EDITOP_GRID_CLASS@@UAEXPAIH@Z 00418b5d f   editop.obj
 0001:00017b79       ?OnLClicked@EDITOP_GRID_CLASS@@UAEXHJHPAUtagRECT@@PAUtagPOINT@@H@Z 00418b79 f   editop.obj
 0001:00017b79       ?OnLClicked@GRID_CLASS@@UAEXHJHPAUtagRECT@@PAUtagPOINT@@H@Z 00418b79 f   gridclas.obj
 0001:00017b79       ?OnLClicked@PW_GRID_CLASS@@UAEXHJHPAUtagRECT@@PAUtagPOINT@@H@Z 00418b79 f   password.obj
 0001:00017b88       ?OnSH_LClicked@EDITOP_GRID_CLASS@@UAEXHJHPAUtagRECT@@PAUtagPOINT@@H@Z 00418b88 f   editop.obj
 0001:00017bfe       ?OnSetup@EDITOP_GRID_CLASS@@UAEXXZ 00418bfe f   editop.obj
 0001:00017c76       ?createfont@EDITOP_GRID_CLASS@@QAEXXZ 00418c76 f   editop.obj
 0001:00017cf1       ?delete_highlighted_rows@EDITOP_GRID_CLASS@@QAEXXZ 00418cf1 f   editop.obj
 0001:00017d96       ?edit_operators_dialog_proc@@YGHPAUHWND__@@IIJ@Z 00418d96 f   editop.obj
 0001:00017e3f       ?input_error_dialog_proc@@YGHPAUHWND__@@IIJ@Z 00418e3f f   editop.obj
 0001:00017e92       ?insert_row@EDITOP_GRID_CLASS@@QAEXXZ 00418e92 f   editop.obj
 0001:00017efd       ?is_row_selected@EDITOP_GRID_CLASS@@QAEEH@Z 00418efd f   editop.obj
 0001:000181b9       ?refresh_row_labels@EDITOP_GRID_CLASS@@QAEXXZ 004191b9 f   editop.obj
 0001:00018223       ?save_changes@@YAEXZ       00419223 f   editop.obj
 0001:00018545       ?select_row@EDITOP_GRID_CLASS@@QAEXJ@Z 00419545 f   editop.obj
 0001:000186ef       ??4EDIT_SHIFT_CLASS@@QAEXAAV0@@Z 004196ef f   editshif.obj
 0001:000188ad       ?day_name_from_index@@YAPADJ@Z 004198ad f   editshif.obj
 0001:00018afa       ?edit_shifts_dialog_proc@@YGHPAUHWND__@@IIJ@Z 00419afa f   editshif.obj
 0001:00018c40       ?fill_editboxes@EDIT_SHIFT_CLASS@@QAEXXZ 00419c40 f   editshif.obj
 0001:00018d87       ?index_from_day_name@@YAJPAD@Z 00419d87 f   editshif.obj
 0001:00018dae       ?lbline@EDIT_SHIFT_CLASS@@QAEPADXZ 00419dae f   editshif.obj
 0001:00018e26       ?read@EDIT_SHIFT_CLASS@@QAEEAAVDB_TABLE@@@Z 00419e26 f   editshif.obj
 0001:00018eaf       ?read@EDIT_SHIFT_CLASS@@QAEEPAD@Z 00419eaf f   editshif.obj
 0001:00018f68       ?read_editboxes@EDIT_SHIFT_CLASS@@QAEEXZ 00419f68 f   editshif.obj
 0001:0001908f       ?saveall@EDIT_SHIFT_CLASS@@QAEEXZ 0041a08f f   editshif.obj
 0001:00019b67       ?export_shots_proc@@YGHPAUHWND__@@IIJ@Z 0041ab67 f   export.obj
 0001:0001a289       ?empty@FIXED_AXIS_CLASS@@QAEXXZ 0041b289 f   fixaxis.obj
 0001:0001a2a6       ?init@FIXED_AXIS_CLASS@@QAEEJ@Z 0041b2a6 f   fixaxis.obj
 0001:0001a2bd       ?read@FIXED_AXIS_CLASS@@QAEEPAD@Z 0041b2bd f   fixaxis.obj
 0001:0001a37b       ?read@FIXED_AXIS_ENTRY@@QAEEAAVDB_TABLE@@@Z 0041b37b f   fixaxis.obj
 0001:0001a3ad       ?setsize@FIXED_AXIS_CLASS@@QAEEJ@Z 0041b3ad f   fixaxis.obj
 0001:0001a465       ?write@FIXED_AXIS_CLASS@@QAEEPAD@Z 0041b465 f   fixaxis.obj
 0001:0001a4f2       ?write@FIXED_AXIS_ENTRY@@QAEEAAVDB_TABLE@@@Z 0041b4f2 f   fixaxis.obj
 0001:0001a53a       ??0GRID_CLASS@@QAE@XZ      0041b53a f   gridclas.obj
 0001:0001a55c       ??1GRID_CLASS@@UAE@XZ      0041b55c f   gridclas.obj
 0001:0001a584       ??_GGRID_CLASS@@UAEPAXI@Z  0041b584 f i gridclas.obj
 0001:0001a584       ??_EGRID_CLASS@@UAEPAXI@Z  0041b584 f i gridclas.obj
 0001:0001a5a0       ?OnCharDown@EDITOP_GRID_CLASS@@UAEXPAIH@Z 0041b5a0 f   editop.obj
 0001:0001a5a0       ?OnCharDown@GRID_CLASS@@UAEXPAIH@Z 0041b5a0 f   gridclas.obj
 0001:0001a5b5       ?OnEditFinish@GRID_CLASS@@UAEHHJPAUHWND__@@PBDH@Z 0041b5b5 f   gridclas.obj
 0001:0001a5eb       ?OnEditStart@GRID_CLASS@@UAEHHJPAPAUHWND__@@@Z 0041b5eb f   gridclas.obj
 0001:0001a603       ?OnSH_LClicked@GRID_CLASS@@UAEXHJHPAUtagRECT@@PAUtagPOINT@@H@Z 0041b603 f   gridclas.obj
 0001:0001a625       ?OnSetup@GRID_CLASS@@UAEXXZ 0041b625 f   gridclas.obj
 0001:0001a694       ?createfont@GRID_CLASS@@QAEXXZ 0041b694 f   gridclas.obj
 0001:0001a70f       ?get_alarm_state@@YAHXZ    0041b70f f   isalarm.obj
 0001:0001a8cc       ?is_alarm@@YAEFM@Z         0041b8cc f   isalarm.obj
 0001:0001a99f       ?is_warning@@YAEFM@Z       0041b99f f   isalarm.obj
 0001:0001a9bc       ?save_as_master_trace@@YAXXZ 0041b9bc f   master.obj
 0001:0001ab3d       ??0SINGLE_PLOT_CLASS@@QAE@XZ 0041bb3d f   mplot.obj
 0001:0001ab89       ??1SINGLE_PLOT_CLASS@@QAE@XZ 0041bb89 f   mplot.obj
 0001:0001abc0       ??AMULTI_PLOT_CLASS@@QAEAAVSINGLE_PLOT_CLASS@@J@Z 0041bbc0 f   mplot.obj
 0001:0001abdc       ??_ESINGLE_PLOT_CLASS@@QAEPAXI@Z 0041bbdc f i mplot.obj
 0001:0001ac31       ?add@DATA_ARRAY_CLASS@@QAEEM@Z 0041bc31 f   mplot.obj
 0001:0001ac68       ?add@DATA_POINT_ENTRY@@QAEXM@Z 0041bc68 f   mplot.obj
 0001:0001acbb       ?average@DATA_ARRAY_CLASS@@QAEMXZ 0041bcbb f i mplot.obj
 0001:0001acd0       ?avg@DATA_POINT_ENTRY@@QAEMXZ 0041bcd0 f   mplot.obj
 0001:0001acf9       ?cleanup@DATA_ARRAY_CLASS@@QAEXXZ 0041bcf9 f   mplot.obj
 0001:0001ad1e       ?cleanup@MULTI_PLOT_CLASS@@QAEXXZ 0041bd1e f   mplot.obj
 0001:0001ad5d       ?get_text_size@@YAXAAJ0PAUHDC__@@PBD@Z 0041bd5d f   mplot.obj
 0001:0001ad90       ?info_box_x_position@SINGLE_PLOT_CLASS@@AAEJJ@Z 0041bd90 f   mplot.obj
 0001:0001adb6       ?init@DATA_ARRAY_CLASS@@UAEEJ@Z 0041bdb6 f   mplot.obj
 0001:0001ae2c       ?init@MULTI_PLOT_CLASS@@QAEEJ@Z 0041be2c f   mplot.obj
 0001:0001aea0       ?init@SINGLE_PLOT_CLASS@@UAEEJ@Z 0041bea0 f   mplot.obj
 0001:0001af6a       ?left_shift@DATA_ARRAY_CLASS@@QAEJAAVDATA_POINT_ENTRY@@@Z 0041bf6a f   mplot.obj
 0001:0001afe0       ?left_shift@DATA_ARRAY_CLASS@@QAEJM@Z 0041bfe0 f   mplot.obj
 0001:0001b15a       ?next@SHOT_ARRAY_CLASS@@QAEEXZ 0041c15a f   xaxis.obj
 0001:0001b15a       ?next@DATA_ARRAY_CLASS@@QAEEXZ 0041c15a f   mplot.obj
 0001:0001b179       ?paint@SINGLE_PLOT_CLASS@@QAEXPAUHDC__@@@Z 0041c179 f   mplot.obj
 0001:0001b931       ?restore_info_box@SINGLE_PLOT_CLASS@@QAEEPAUHDC__@@@Z 0041c931 f   mplot.obj
 0001:0001ba44       ?set_target@SINGLE_PLOT_CLASS@@QAEXAAVSTRING_CLASS@@@Z 0041ca44 f   mplot.obj
 0001:0001ba4c       ?show_info_box@SINGLE_PLOT_CLASS@@QAEEPAUHDC__@@JJE@Z 0041ca4c f   mplot.obj
 0001:0001bb9f       ?show_units@SINGLE_PLOT_CLASS@@AAEXPAUHDC__@@@Z 0041cb9f f   mplot.obj
 0001:0001bd2f       ?begin_printing@@YAXXZ     0041cd2f f   mulprint.obj
 0001:0001bf92       ?fill_machines@@YAXPAUHWND__@@I@Z 0041cf92 f   mulprint.obj
 0001:0001c285       ?get_current_part@@YAEAAUPART_NAME_ENTRY@@@Z 0041d285 f   mulprint.obj
 0001:0001c339       ?print_multiple_shots_proc@@YGHPAUHWND__@@IIJ@Z 0041d339 f   mulprint.obj
 0001:0001c45f       ?print_next_shot@@YAXXZ    0041d45f f   mulprint.obj
 0001:0001c6b9       ?write_counts_file@@YAEAAVSTRING_CLASS@@0@Z 0041d6b9 f   olmsted.obj
 0001:0001c717       ?write_olmsted_file@@YAEAAVSTRING_CLASS@@0@Z 0041d717 f   olmsted.obj
 0001:0001c7a7       ??_EMULTISTRING_CLASS@@QAEPAXI@Z 0041d7a7 f i paramhis.obj
 0001:0001c7fc       ??_ESTRING_CLASS@@QAEPAXI@Z 0041d7fc f i paramhis.obj
 0001:0001c84c       ?ParamHistoryProc@@YGHPAUHWND__@@IIJ@Z 0041d84c f   paramhis.obj
 0001:0001d0b6       ?new_history_choice@@YAXXZ 0041e0b6 f   paramhis.obj
 0001:0001d1fa       ?position_param_history_window@@YAXXZ 0041e1fa f   paramhis.obj
 0001:0001d34d       ?read_parameters_from_parmlist@@YAJH@Z 0041e34d f   paramhis.obj
 0001:0001d749       ?load_parameter_list_titles@@YAXXZ 0041e749 f   paramwin.obj
 0001:0001dde0       ?parameter_window_proc@@YGHPAUHWND__@@IIJ@Z 0041ede0 f   paramwin.obj
 0001:0001de98       ?position_parameter_window@@YAXXZ 0041ee98 f   paramwin.obj
 0001:0001dfc5       ??0PW_GRID_CLASS@@QAE@XZ   0041efc5 f   password.obj
 0001:0001dfde       ??1PW_GRID_CLASS@@UAE@XZ   0041efde f   password.obj
 0001:0001dffa       ??APASSWORD_CLASS@@QAEAAUPASSWORD_ENTRY@@J@Z 0041effa f   password.obj
 0001:0001e04d       ??_GPW_GRID_CLASS@@UAEPAXI@Z 0041f04d f i password.obj
 0001:0001e04d       ??_EPW_GRID_CLASS@@UAEPAXI@Z 0041f04d f i password.obj
 0001:0001e069       ?OnCharDown@PW_GRID_CLASS@@UAEXPAIH@Z 0041f069 f   password.obj
 0001:0001e0c8       ?OnEditContinue@PW_GRID_CLASS@@UAEHHJPAHPAJ@Z 0041f0c8 f   password.obj
 0001:0001e0de       ?OnEditFinish@PW_GRID_CLASS@@UAEHHJPAUHWND__@@PBDH@Z 0041f0de f   password.obj
 0001:0001e173       ?OnKeyDown@PW_GRID_CLASS@@UAEXPAIH@Z 0041f173 f   password.obj
 0001:0001e192       ?OnSetup@PW_GRID_CLASS@@UAEXXZ 0041f192 f   password.obj
 0001:0001e3f9       ?check_for_password_logging@@YA_NXZ 0041f3f9 f   password.obj
 0001:0001e48e       ?cleanup@PASSWORD_CLASS@@QAEXXZ 0041f48e f   password.obj
 0001:0001e4ab       ?co_options_dialog_proc@@YGHPAUHWND__@@IIJ@Z 0041f4ab f   password.obj
 0001:0001e7b4       ?create@DB_TABLE@@QAEEAAVSTRING_CLASS@@@Z 0041f7b4 f i password.obj
 0001:0001e7ce       ?createfont@PW_GRID_CLASS@@AAEXXZ 0041f7ce f   password.obj
 0001:0001e89d       ?default_level@PASSWORD_CLASS@@QAEJXZ 0041f89d f   password.obj
 0001:0001e8c0       ?default_password_level@@YAHXZ 0041f8c0 f   password.obj
 0001:0001e8ef       ?delete_row@PW_GRID_CLASS@@QAEXXZ 0041f8ef f   password.obj
 0001:0001e92b       ?edit_passwords_proc@@YGHPAUHWND__@@IIJ@Z 0041f92b f   password.obj
 0001:0001ea7e       ?encrypt_password@@YAXPAD@Z 0041fa7e f   password.obj
 0001:0001eac5       ?enter_password_proc@@YGHPAUHWND__@@IIJ@Z 0041fac5 f   password.obj
 0001:0001f6f6       ?fill_grid@PW_GRID_CLASS@@QAEXXZ 004206f6 f   password.obj
 0001:0001f7d6       ?find@PASSWORD_CLASS@@QAEJPAD@Z 004207d6 f   password.obj
 0001:0001f85c       ?highest_level@PASSWORD_CLASS@@QAEJXZ 0042085c f   password.obj
 0001:0001f87e       ?ini_name@@YAPADPBD@Z      0042087e f   password.obj
 0001:0001f8ab       ?insert_row@PW_GRID_CLASS@@QAEXXZ 004208ab f   password.obj
 0001:0001f939       ?load@PASSWORD_CLASS@@QAE_NXZ 00420939 f   password.obj
 0001:0001fcb5       ?save@PASSWORD_CLASS@@QAE_NXZ 00420cb5 f   password.obj
 0001:00020b44       ?set_default_password_level@@YAX_N@Z 00421b44 f   password.obj
 0001:00020dbd       ?set_row_colors@PW_GRID_CLASS@@QAEXXZ 00421dbd f   password.obj
 0001:00020e0b       ?set_row_numbers@PW_GRID_CLASS@@QAEXXZ 00421e0b f   password.obj
 0001:00020e74       ?setsize@PASSWORD_CLASS@@QAE_NJ@Z 00421e74 f   password.obj
 0001:00020fbc       ??0MACHINE_CLASS@@QAE@ABV0@@Z 00421fbc f i plot.obj
 0001:000210db       ??0MULTIPART_RUNLIST_SETTINGS_CLASS@@QAE@ABV0@@Z 004220db f i plot.obj
 0001:00021153       ?fill_differential_curve@@YAEVMACHINE_CLASS@@AAVPART_CLASS@@@Z 00422153 f   plot.obj
 0001:000213c1       ?load_profile@@YAXPAD@Z    004223c1 f   plot.obj
 0001:00021417       ?load_profile@@YAXPAUPROFILE_NAME_ENTRY@@@Z 00422417 f   plot.obj
 0001:0002145c       ?load_profile@@YAXXZ       0042245c f   plot.obj
 0001:000214b4       ?load_reference_trace@@YAEXZ 004224b4 f   plot.obj
 0001:0002206f       ?load@REALTIME_MACHINE_LIST_CLASS@@QAEEXZ 0042306f f   rtmlist.obj
 0001:0002219f       ?realtime_machine_list_proc@@YGHPAUHWND__@@IIJ@Z 0042319f f   rtmlist.obj
 0001:000222ff       ?save@REALTIME_MACHINE_LIST_CLASS@@QAEEXZ 004232ff f   rtmlist.obj
 0001:0002252f       ?sub_proc@@YGJPAUHWND__@@IIJ@Z 0042352f f   rtmlist.obj
 0001:00022687       ?toggle_profile_save_flags@@YAXXZ 00423687 f   savepro.obj
 0001:00022799       ??0STATUS_SCREEN_ROW_ENTRY@@QAE@XZ 00423799 f   status.obj
 0001:00022817       ??1STATUS_SCREEN_ROW_ENTRY@@QAE@XZ 00423817 f i status.obj
 0001:00022858       ??_ESTATUS_SCREEN_COLUMN_ENTRY@@QAEPAXI@Z 00423858 f i status.obj
 0001:000228af       ??_ESTATUS_SCREEN_ROW_ENTRY@@QAEPAXI@Z 004238af f i status.obj
 0001:0002290a       ?add_down_seconds@STATUS_SCREEN_ROW_ENTRY@@QAEXAAVDOWNTIME_RECORD_CLASS@@0@Z 0042390a f   status.obj
 0001:0002298e       ?begin_status_display@@YAEXZ 0042398e f   status.obj
 0001:000229a9       ?choose_status_screen_font@@YAXXZ 004239a9 f   status.obj
 0001:0002306d       ?end_status_display@@YAXXZ 0042406d f   status.obj
 0001:0002313f       ?get@STATUS_SCREEN_COLUMN_ENTRY@@QAEEPBD@Z 0042413f f   status.obj
 0001:000231dc       ?get_alarm_summary_info@STATUS_SCREEN_ROW_ENTRY@@QAEXXZ 004241dc f   status.obj
 0001:0002324d       ?get_downtime_status@STATUS_SCREEN_ROW_ENTRY@@QAEXXZ 0042424d f   status.obj
 0001:000232fe       ?get_shot_info@STATUS_SCREEN_ROW_ENTRY@@QAEXXZ 004242fe f   status.obj
 0001:000233e4       ?paint_status_display@@YAXAAUtagPAINTSTRUCT@@@Z 004243e4 f   status.obj
 0001:00023479       ?put@STATUS_SCREEN_COLUMN_ENTRY@@QAEPADXZ 00424479 f   status.obj
 0001:000234f4       ?read_alarm_info@STATUS_SCREEN_ROW_ENTRY@@QAEXXZ 004244f4 f   status.obj
 0001:000236a3       ?read_downtimes@STATUS_SCREEN_ROW_ENTRY@@QAEXXZ 004246a3 f   status.obj
 0001:00023963       ?read_parameters@STATUS_SCREEN_ROW_ENTRY@@QAEXXZ 00424963 f   status.obj
 0001:000239d5       ?save_status_config@@YAXXZ 004249d5 f   status.obj
 0001:00023c61       ?show_one_row@@YAXPAUHDC__@@H@Z 00424c61 f   status.obj
 0001:000243d8       ?status_screen_down_data_change@@YAXAAVSTRING_CLASS@@PAD1@Z 004253d8 f   status.obj
 0001:000244b7       ?status_screen_left_button_up@@YAXAAUtagPOINT@@@Z 004254b7 f   status.obj
 0001:00024749       ?status_screen_new_machine_status@@YAXAAVSTRING_CLASS@@G@Z 00425749 f   status.obj
 0001:000247f1       ?status_screen_new_shot@@YAXAAVSTRING_CLASS@@@Z 004257f1 f   status.obj
 0001:0002488d       ?status_screen_timer_update@@YAXXZ 0042588d f   status.obj
 0001:00024a2c       ??0FIXED_PARAM_CLASS@@QAE@XZ 00425a2c f   tcconfig.obj
 0001:00024a42       ??0TREND_CONFIG_CLASS@@QAE@XZ 00425a42 f   tcconfig.obj
 0001:00024a9c       ??1TREND_CONFIG_CLASS@@QAE@XZ 00425a9c f   tcconfig.obj
 0001:00024ab0       ??4TREND_CONFIG_CLASS@@QAEXABV0@@Z 00425ab0 f   tcconfig.obj
 0001:00024b3e       ??8TREND_CONFIG_CLASS@@QAEEABV0@@Z 00425b3e f   tcconfig.obj
 0001:00024bd1       ??9TREND_CONFIG_CLASS@@QAEEABV0@@Z 00425bd1 f   tcconfig.obj
 0001:00024fad       ?get_from_line@FIXED_PARAM_CLASS@@QAEXPAD@Z 00425fad f   tcconfig.obj
 0001:00025070       ?get_from_screen@TREND_SCREEN_CONFIG_CLASS@@QAEXPAUHWND__@@@Z 00426070 f   tcconfig.obj
 0001:00025185       ?lbline@FIXED_PARAM_CLASS@@QAEPADPAD@Z 00426185 f   tcconfig.obj
 0001:000251ef       ?n_visible@TREND_CONFIG_CLASS@@QAEJXZ 004261ef f   tcconfig.obj
 0001:00025202       ?put_to_screen@TREND_SCREEN_CONFIG_CLASS@@QAEXPAUHWND__@@@Z 00426202 f   tcconfig.obj
 0001:000252d1       ?read@FIXED_PARAM_CLASS@@QAEXPAD@Z 004262d1 f   tcconfig.obj
 0001:0002540f       ?read@TREND_CONFIG_CLASS@@QAEXXZ 0042640f f   tcconfig.obj
 0001:000258d8       ?set@INT32_ARRAY_CLASS@@UAEXJ@Z 004268d8 f i tcconfig.obj
 0001:00025a8d       ?tc_visible_dialog_proc@@YGHPAUHWND__@@IIJ@Z 00426a8d f   tcconfig.obj
 0001:00025ae3       ?trend_config_dialog_proc@@YGHPAUHWND__@@IIJ@Z 00426ae3 f   tcconfig.obj
 0001:00025c55       ?write@FIXED_PARAM_CLASS@@QAEXPAD@Z 00426c55 f   tcconfig.obj
 0001:00025d0e       ?write@TREND_CONFIG_CLASS@@QAEXXZ 00426d0e f   tcconfig.obj
 0001:00025f14       ?write_from_line@FIXED_PARAM_CLASS@@QAEXPAD@Z 00426f14 f   tcconfig.obj
 0001:00025f7d       ??0STAT_ENTRY@@QAE@XZ      00426f7d f   trend.obj
 0001:00025fa4       ?add@STAT_ENTRY@@QAEXM@Z   00426fa4 f   trend.obj
 0001:0002605c       ?avg@STAT_ENTRY@@QAEMXZ    0042705c f   trend.obj
 0001:00026099       ?begin_trend_display@@YAEXZ 00427099 f   trend.obj
 0001:000260f1       ?celltext@@YAPADJJ@Z       004270f1 f   trend.obj
 0001:00026290       ?do_new_control_limits@@YAXXZ 00427290 f   trend.obj
 0001:0002629a       ?do_new_tc_config@@YAXI@Z  0042729a f   trend.obj
 0001:0002660d       ?end_trend_display@@YAXXZ  0042760d f   trend.obj
 0001:000266cd       ?get_nof_points_from_shot_range@@YAJAAJ@Z 004276cd f   trend.obj
 0001:00027563       ?mouse_to_trend@@YAXJJ@Z   00428563 f   trend.obj
 0001:00027624       ?paint_trend_display@@YAXABUtagRECT@@@Z 00428624 f   trend.obj
 0001:00027a02       ?percent_out@STAT_ENTRY@@QAEMXZ 00428a02 f   trend.obj
 0001:00027a43       ?print_statistical_summary@@YAXABUtagRECT@@@Z 00428a43 f   trend.obj
 0001:000280a7       ?reload_tc_data@@YAXXZ     004290a7 f   trend.obj
 0001:000280d9       ?save_control_limits@@YAXXZ 004290d9 f   trend.obj
 0001:00028395       ?show_one_parameter@@YAXJ@Z 00429395 f   trend.obj
 0001:00028432       ?stdev@STAT_ENTRY@@QAEMXZ  00429432 f   trend.obj
 0001:000284e4       ?trend_allshots@@YAXXZ     004294e4 f   trend.obj
 0001:000286d8       ?trend_escape@@YAXXZ       004296d8 f   trend.obj
 0001:000286f9       ?trend_left_button_up@@YAXAAUtagPOINT@@@Z 004296f9 f   trend.obj
 0001:00028809       ?trend_realtime@@YAXXZ     00429809 f   trend.obj
 0001:0002884b       ?trend_screen_new_shot@@YAXXZ 0042984b f   trend.obj
 0001:00028a84       ?trend_screen_reset@@YAXXZ 00429a84 f   trend.obj
 0001:00028a9d       ?z@STAT_ENTRY@@QAEMM@Z     00429a9d f   trend.obj
 0001:00028d41       ?fill_view_parameters_listbox@@YAXXZ 00429d41 f   viewpara.obj
 0001:00028e14       ?position_view_parameters_window@@YAXXZ 00429e14 f   viewpara.obj
 0001:00028f97       ?view_parameters_dialog_proc@@YGHPAUHWND__@@IIJ@Z 00429f97 f   viewpara.obj
 0001:00029023       ??0VIRTUAL_LISTBOX_CLASS@@QAE@XZ 0042a023 f   vlbclass.obj
 0001:00029054       ?do_keypress@VIRTUAL_LISTBOX_CLASS@@QAEHHH@Z 0042a054 f   vlbclass.obj
 0001:00029124       ?do_select@VIRTUAL_LISTBOX_CLASS@@QAEXXZ 0042a124 f   vlbclass.obj
 0001:00029143       ?do_vscroll@VIRTUAL_LISTBOX_CLASS@@QAEXI@Z 0042a143 f   vlbclass.obj
 0001:000291a9       ?fill_listbox@VIRTUAL_LISTBOX_CLASS@@QAEXXZ 0042a1a9 f   vlbclass.obj
 0001:00029238       ?goto_end@VIRTUAL_LISTBOX_CLASS@@QAEXXZ 0042a238 f   vlbclass.obj
 0001:00029258       ?scroll_down_one_line@VIRTUAL_LISTBOX_CLASS@@QAEXXZ 0042a258 f   vlbclass.obj
 0001:00029282       ?scroll_down_one_page@VIRTUAL_LISTBOX_CLASS@@QAEXXZ 0042a282 f   vlbclass.obj
 0001:000292c1       ?scroll_up_one_line@VIRTUAL_LISTBOX_CLASS@@QAEXXZ 0042a2c1 f   vlbclass.obj
 0001:000292de       ?scroll_up_one_page@VIRTUAL_LISTBOX_CLASS@@QAEXXZ 0042a2de f   vlbclass.obj
 0001:00029319       ?set_scrollbar@VIRTUAL_LISTBOX_CLASS@@QAEXXZ 0042a319 f   vlbclass.obj
 0001:00029372       ?set_scrollbar_pos@VIRTUAL_LISTBOX_CLASS@@QAEXXZ 0042a372 f   vlbclass.obj
 0001:000293bb       ?shutdown@VIRTUAL_LISTBOX_CLASS@@QAEXXZ 0042a3bb f   vlbclass.obj
 0001:000293d4       ?startup@VIRTUAL_LISTBOX_CLASS@@QAEEPADFPAUHWND__@@IIP6APADAAVDB_TABLE@@@Z@Z 0042a3d4 f   vlbclass.obj
 0001:00029463       ??0X_AXIS_CLASS@@QAE@XZ    0042a463 f   xaxis.obj
 0001:000294eb       ??1X_AXIS_CLASS@@QAE@XZ    0042a4eb f   xaxis.obj
 0001:00029522       ??ASHOT_ARRAY_CLASS@@QAEAAVSHOT_DATA_ENTRY@@J@Z 0042a522 f   xaxis.obj
 0001:00029577       ??_ESHOT_DATA_ENTRY@@QAEPAXI@Z 0042a577 f i xaxis.obj
 0001:000295cc       ?cleanup@SHOT_ARRAY_CLASS@@QAEXXZ 0042a5cc f   xaxis.obj
 0001:000295f0       ?draw_line@X_AXIS_CLASS@@AAEXHHHH@Z 0042a5f0 f   xaxis.obj
 0001:0002961b       ?info_box_x_position@X_AXIS_CLASS@@AAEJJ@Z 0042a61b f   xaxis.obj
 0001:00029641       ?init@SHOT_ARRAY_CLASS@@UAEEJ@Z 0042a641 f   xaxis.obj
 0001:000296c5       ?init@X_AXIS_CLASS@@UAEEJ@Z 0042a6c5 f   xaxis.obj
 0001:000296ca       ?left_shift@SHOT_ARRAY_CLASS@@QAEJAAVSHOT_DATA_ENTRY@@@Z 0042a6ca f   xaxis.obj
 0001:00029768       ?left_shift@SHOT_ARRAY_CLASS@@QAEJAAVSTRING_CLASS@@AAU_SYSTEMTIME@@@Z 0042a768 f   xaxis.obj
 0001:000297b1       ?left_shift@X_AXIS_CLASS@@QAEXAAVSTRING_CLASS@@AAU_SYSTEMTIME@@@Z 0042a7b1 f   xaxis.obj
 0001:00029890       ?max_shot_name@SHOT_ARRAY_CLASS@@QAEEAAVSTRING_CLASS@@@Z 0042a890 f   xaxis.obj
 0001:000298e8       ?min_shot_name@SHOT_ARRAY_CLASS@@QAEEAAVSTRING_CLASS@@@Z 0042a8e8 f   xaxis.obj
 0001:00029940       ?next_set@SHOT_ARRAY_CLASS@@QAEEXZ 0042a940 f   xaxis.obj
 0001:00029940       ?next_set@DATA_ARRAY_CLASS@@QAEEXZ 0042a940 f   mplot.obj
 0001:0002995f       ?paint@X_AXIS_CLASS@@QAEEPAUHDC__@@@Z 0042a95f f   xaxis.obj
 0001:00029c08       ?restore_info_box@X_AXIS_CLASS@@QAEEPAUHDC__@@@Z 0042ac08 f   xaxis.obj
 0001:00029c10       ?set@SHOT_ARRAY_CLASS@@QAEEAAVSTRING_CLASS@@AAU_SYSTEMTIME@@@Z 0042ac10 f   xaxis.obj
 0001:00029c5f       ?set@X_AXIS_CLASS@@QAEXAAVSTRING_CLASS@@AAU_SYSTEMTIME@@@Z 0042ac5f f   xaxis.obj
 0001:00029cb6       ?set_bitmap_size@X_AXIS_CLASS@@QAEXH@Z 0042acb6 f   xaxis.obj
 0001:00029db1       ?show_info_box@X_AXIS_CLASS@@QAEEPAUHDC__@@JJE@Z 0042adb1 f   xaxis.obj
 0001:00029f6f       ?x_index@X_AXIS_CLASS@@QAEJJ@Z 0042af6f f   xaxis.obj
 0001:00029fd3       ?x_pos@X_AXIS_CLASS@@QAEJJ@Z 0042afd3 f   xaxis.obj
 0001:0002a00b       ?x_pos_from_index@X_AXIS_CLASS@@QAEJJ@Z 0042b00b f   xaxis.obj
 0001:0002a802       ?xdcr_proc@@YGJPAUHWND__@@IIJ@Z 0042b802 f   xdcrplot.obj
 0001:0002a93e       _DdeGetData@16             0042b93e f   user32:USER32.dll
 0001:0002a944       _OpenPrinterA@12           0042b944 f   winspool:WINSPOOL.DRV
 0001:0002a94a       _GetPrinterA@20            0042b94a f   winspool:WINSPOOL.DRV
 0001:0002a950       _ClosePrinter@4            0042b950 f   winspool:WINSPOOL.DRV
 0001:0002a956       ?directory_exists@@YAEPAD@Z 0042b956 f   v5subs:exists.obj
 0001:0002a979       ?disk_is_in_drive@@YAEPAD@Z 0042b979 f   v5subs:exists.obj
 0001:0002a9b1       ?file_exists@@YAEPAD@Z     0042b9b1 f   v5subs:exists.obj
 0001:0002aa42       ?get_drive_name@@YAEPAD@Z  0042ba42 f   v5subs:exists.obj
 0001:0002aa72       ?is_removable@@YAEPAD@Z    0042ba72 f   v5subs:exists.obj
 0001:0002aa9c       ?char_to_tchar@@YAXPAD0H@Z 0042ba9c f   v5subs:mem.obj
 0001:0002aad6       ?charlen@@YAFPBDF@Z        0042bad6 f   v5subs:mem.obj
 0001:0002aaf9       ?compare@@YAFPBD0@Z        0042baf9 f   v5subs:mem.obj
 0001:0002ab74       ?compare@@YAFPBD0F@Z       0042bb74 f   v5subs:mem.obj
 0001:0002abd8       ?copy_w_char@@YAPADPAD0D@Z 0042bbd8 f   v5subs:mem.obj
 0001:0002abef       ?copychars@@YAXPADPBDF@Z   0042bbef f   v5subs:mem.obj
 0001:0002ac11       ?copyfromstr@@YAXPADPBDF@Z 0042bc11 f   v5subs:mem.obj
 0001:0002ac51       ?copystring@@YAPADPADPBD@Z 0042bc51 f   v5subs:mem.obj
 0001:0002ac8a       ?copystring@@YAPADPADPBDH@Z 0042bc8a f   v5subs:mem.obj
 0001:0002accf       ?countchars@@YAJDPBD@Z     0042bccf f   v5subs:mem.obj
 0001:0002acf0       ?fillchars@@YAXPADDF@Z     0042bcf0 f   v5subs:mem.obj
 0001:0002ad0f       ?find_last_string@@YAPADPBDPAD@Z 0042bd0f f   v5subs:mem.obj
 0001:0002ada9       ?findchar@@YAPADDPADF@Z    0042bda9 f   v5subs:mem.obj
 0001:0002add4       ?findchar@@YAPBDDPBD@Z     0042bdd4 f   v5subs:mem.obj
 0001:0002add4       ?findchar@@YAPADDPAD@Z     0042bdd4 f   v5subs:mem.obj
 0001:0002adf0       ?findstring@@YAPADPBDPAD@Z 0042bdf0 f   v5subs:mem.obj
 0001:0002ae5f       ?maketext@@YAPADJ@Z        0042be5f f   v5subs:mem.obj
 0001:0002ae78       ?maketext@@YAPADPBD@Z      0042be78 f   v5subs:mem.obj
 0001:0002ae86       ?maketext@@YAPADPBDJ@Z     0042be86 f   v5subs:mem.obj
 0001:0002aeb9       ?move_string_forward@@YAXPADH@Z 0042beb9 f   v5subs:mem.obj
 0001:0002aee9       ?nextstring@@YAPADPAD@Z    0042bee9 f   v5subs:mem.obj
 0001:0002aefa       ?remove_all_occurances@@YAXPADD@Z 0042befa f   v5subs:mem.obj
 0001:0002af27       ?remove_char@@YAXPAD@Z     0042bf27 f   v5subs:mem.obj
 0001:0002af42       ?replace_char_with_null@@YAEPADD@Z 0042bf42 f   v5subs:mem.obj
 0001:0002af6f       ?replace_char_with_null@@YAEPADPBD@Z 0042bf6f f   v5subs:mem.obj
 0001:0002afad       ?replace_tab_with_null@@YAEPAD@Z 0042bfad f   v5subs:mem.obj
 0001:0002afc1       ?start_chars_are_equal@@YA_NPBD0@Z 0042bfc1 f   v5subs:mem.obj
 0001:0002afec       ?strings_are_equal@@YAEPBD0@Z 0042bfec f   v5subs:mem.obj
 0001:0002b021       ?strings_are_equal@@YAEPBD0F@Z 0042c021 f   v5subs:mem.obj
 0001:0002b03d       ?strip@@YAXPAD@Z           0042c03d f   v5subs:mem.obj
 0001:0002b06a       ?tchar_to_int@@YAHD@Z      0042c06a f   v5subs:mem.obj
 0001:0002b07f       ?trim@@YAXPAD@Z            0042c07f f   v5subs:mem.obj
 0001:0002b0ad       ?upper_case@@YAXAAD@Z      0042c0ad f   v5subs:mem.obj
 0001:0002b0ce       ?upper_case@@YAXPAD@Z      0042c0ce f   v5subs:mem.obj
 0001:0002b0f7       ?utoi@@YAHI@Z              0042c0f7 f   v5subs:mem.obj
 0001:0002b0fc       ?asctoint@@YAHPBD@Z        0042c0fc f   v5subs:extract.obj
 0001:0002b0fc       ?asctoint32@@YAJPBD@Z      0042c0fc f   v5subs:extract.obj
 0001:0002b119       ?asctoul@@YAKPBD@Z         0042c119 f   v5subs:extract.obj
 0001:0002b136       ?extdouble@@YANPBD@Z       0042c136 f   v5subs:extract.obj
 0001:0002b14d       ?extdouble@@YANPBDF@Z      0042c14d f   v5subs:extract.obj
 0001:0002b1b5       ?extfloat@@YAMPBD@Z        0042c1b5 f   v5subs:extract.obj
 0001:0002b1da       ?extlong@@YAJPBDF@Z        0042c1da f   v5subs:extract.obj
 0001:0002b1da       ?extshort@@YAFPBDF@Z       0042c1da f   v5subs:extract.obj
 0001:0002b1ed       ?extlong@@YAJPBDFH@Z       0042c1ed f   v5subs:extract.obj
 0001:0002b253       ?extul@@YAKPBDFH@Z         0042c253 f   v5subs:extract.obj
 0001:0002b2b9       ?is_real_char@@YAED@Z      0042c2b9 f   v5subs:extract.obj
 0001:0002b35c       ?int32toasc@@YAPADJ@Z      0042c35c f   v5subs:itoasc.obj
 0001:0002b375       ?int32toasc@@YAXPADJJ@Z    0042c375 f   v5subs:itoasc.obj
 0001:0002b3b6       ?ultoascii@@YAPADKK@Z      0042c3b6 f   v5subs:itoasc.obj
 0001:0002b3d1       ?ultoascii@@YAXPADKK@Z     0042c3d1 f   v5subs:itoasc.obj
 0001:0002b400       ??0STRING_CLASS@@QAE@ABV0@@Z 0042c400 f   v5subs:stringcl.obj
 0001:0002b41c       ??0STRING_CLASS@@QAE@XZ    0042c41c f   v5subs:stringcl.obj
 0001:0002b426       ??1STRING_CLASS@@QAE@XZ    0042c426 f   v5subs:stringcl.obj
 0001:0002b42b       ??4STRING_CLASS@@QAEXABV0@@Z 0042c42b f   v5subs:stringcl.obj
 0001:0002b43a       ??4STRING_CLASS@@QAEXD@Z   0042c43a f   v5subs:stringcl.obj
 0001:0002b451       ??4STRING_CLASS@@QAEXE@Z   0042c451 f   v5subs:stringcl.obj
 0001:0002b46c       ??4STRING_CLASS@@QAEXH@Z   0042c46c f   v5subs:stringcl.obj
 0001:0002b494       ??4STRING_CLASS@@QAEXN@Z   0042c494 f   v5subs:stringcl.obj
 0001:0002b4c3       ??4STRING_CLASS@@QAEXPBD@Z 0042c4c3 f   v5subs:stringcl.obj
 0001:0002b50e       ??8STRING_CLASS@@QAEEABV0@@Z 0042c50e f   v5subs:stringcl.obj
 0001:0002b51d       ??8STRING_CLASS@@QAEEPBD@Z 0042c51d f   v5subs:stringcl.obj
 0001:0002b573       ??MSTRING_CLASS@@QAEEABV0@@Z 0042c573 f   v5subs:stringcl.obj
 0001:0002b59a       ??OSTRING_CLASS@@QAEEABV0@@Z 0042c59a f   v5subs:stringcl.obj
 0001:0002b5c1       ??YSTRING_CLASS@@QAEXABV0@@Z 0042c5c1 f   v5subs:stringcl.obj
 0001:0002b5d0       ??YSTRING_CLASS@@QAEXD@Z   0042c5d0 f   v5subs:stringcl.obj
 0001:0002b603       ??YSTRING_CLASS@@QAEXH@Z   0042c603 f   v5subs:stringcl.obj
 0001:0002b63a       ??YSTRING_CLASS@@QAEXI@Z   0042c63a f   v5subs:stringcl.obj
 0001:0002b671       ??YSTRING_CLASS@@QAEXN@Z   0042c671 f   v5subs:stringcl.obj
 0001:0002b6af       ??YSTRING_CLASS@@QAEXPBD@Z 0042c6af f   v5subs:stringcl.obj
 0001:0002b6f0       ??YSTRING_CLASS@@QAEXE@Z   0042c6f0 f   v5subs:stringcl.obj
 0001:0002b6f0       ??YSTRING_CLASS@@QAEX_N@Z  0042c6f0 f   v5subs:stringcl.obj
 0001:0002b70b       ?acquire@STRING_CLASS@@QAEEAAV1@@Z 0042c70b f   v5subs:stringcl.obj
 0001:0002b739       ?add_finalchar@STRING_CLASS@@AAEXPAD0@Z 0042c739 f   v5subs:stringcl.obj
 0001:0002b762       ?boolean_value@STRING_CLASS@@QAEEXZ 0042c762 f   v5subs:stringcl.obj
 0001:0002b781       ?cat_path@STRING_CLASS@@QAEXPBD@Z 0042c781 f   v5subs:stringcl.obj
 0001:0002b7ed       ?cat_w_char@STRING_CLASS@@QAEXPBDD@Z 0042c7ed f   v5subs:stringcl.obj
 0001:0002b842       ?compare@STRING_CLASS@@QAEHPAD@Z 0042c842 f   v5subs:stringcl.obj
 0001:0002b86e       ?contains@STRING_CLASS@@QAE_ND@Z 0042c86e f   v5subs:stringcl.obj
 0001:0002b87f       ?contains@STRING_CLASS@@QAE_NPBD@Z 0042c87f f   v5subs:stringcl.obj
 0001:0002b890       ?empty@STRING_CLASS@@QAEXXZ 0042c890 f   v5subs:stringcl.obj
 0001:0002b8ab       ?find@STRING_CLASS@@QAEPADD@Z 0042c8ab f   v5subs:stringcl.obj
 0001:0002b8d4       ?find@STRING_CLASS@@QAEPADPBD@Z 0042c8d4 f   v5subs:stringcl.obj
 0001:0002b8f2       ?findlast@STRING_CLASS@@QAEPADPBD@Z 0042c8f2 f   v5subs:stringcl.obj
 0001:0002b910       ?get_text@STRING_CLASS@@QAE_NPAUHWND__@@@Z 0042c910 f   v5subs:stringcl.obj
 0001:0002b964       ?init@STRING_CLASS@@QAEEJ@Z 0042c964 f   v5subs:stringcl.obj
 0001:0002b9a8       ?isempty@STRING_CLASS@@QAEEXZ 0042c9a8 f   v5subs:stringcl.obj
 0001:0002b9c4       ?isnumeric@STRING_CLASS@@QAEEXZ 0042c9c4 f   v5subs:stringcl.obj
 0001:0002ba4d       ?last_char@STRING_CLASS@@QAEPADXZ 0042ca4d f   v5subs:stringcl.obj
 0001:0002ba65       ?len@STRING_CLASS@@QAEJXZ  0042ca65 f   v5subs:stringcl.obj
 0001:0002ba78       ?next_field@STRING_CLASS@@QAE_ND@Z 0042ca78 f   v5subs:stringcl.obj
 0001:0002bb98       ?next_field@STRING_CLASS@@QAE_NXZ 0042cb98 f   v5subs:stringcl.obj
 0001:0002bba6       ?null@STRING_CLASS@@QAEXXZ 0042cba6 f   v5subs:stringcl.obj
 0001:0002bbc6       ?null_first_control_char@STRING_CLASS@@QAEXXZ 0042cbc6 f   v5subs:stringcl.obj
 0001:0002bbec       ?real_value@STRING_CLASS@@QAENXZ 0042cbec f   v5subs:stringcl.obj
 0001:0002bc43       ?release@STRING_CLASS@@QAEPADXZ 0042cc43 f   v5subs:stringcl.obj
 0001:0002bc4e       ?remove_all_occurances@STRING_CLASS@@QAEHD@Z 0042cc4e f   v5subs:stringcl.obj
 0001:0002bc8d       ?remove_leading_chars@STRING_CLASS@@QAEHD@Z 0042cc8d f   v5subs:stringcl.obj
 0001:0002bcca       ?replace@STRING_CLASS@@QAEEDD@Z 0042ccca f   v5subs:stringcl.obj
 0001:0002bcf6       ?replace@STRING_CLASS@@QAEEPBD0@Z 0042ccf6 f   v5subs:stringcl.obj
 0001:0002bdab       ?replace_all@STRING_CLASS@@QAEHDD@Z 0042cdab f   v5subs:stringcl.obj
 0001:0002bdd9       ?rjust@STRING_CLASS@@QAEEJ@Z 0042cdd9 f   v5subs:stringcl.obj
 0001:0002bded       ?rjust@STRING_CLASS@@QAEEJD@Z 0042cded f   v5subs:stringcl.obj
 0001:0002be3c       ?set_text@STRING_CLASS@@QAE_NPAUHWND__@@@Z 0042ce3c f   v5subs:stringcl.obj
 0001:0002be61       ?strip@STRING_CLASS@@QAEXXZ 0042ce61 f   v5subs:stringcl.obj
 0001:0002beba       ?strip_crlf@STRING_CLASS@@QAEXXZ 0042ceba f   v5subs:stringcl.obj
 0001:0002befd       ?uppercase@STRING_CLASS@@QAEXXZ 0042cefd f   v5subs:stringcl.obj
 0001:0002bf0d       ?upsize@STRING_CLASS@@QAEEJ@Z 0042cf0d f   v5subs:stringcl.obj
 0001:0002bf61       ?add_ending_backslash@NAME_CLASS@@QAEXXZ 0042cf61 f   v5subs:nameclas.obj
 0001:0002bf94       ?convert_to_data_dir@NAME_CLASS@@QAEEXZ 0042cf94 f   v5subs:nameclas.obj
 0001:0002bfd9       ?copyto@NAME_CLASS@@QAEEAAVSTRING_CLASS@@@Z 0042cfd9 f   v5subs:nameclas.obj
 0001:0002c008       ?ensure_file_directory_existance@NAME_CLASS@@QAEEXZ 0042d008 f   v5subs:nameclas.obj
 0001:0002c071       ?find_extension@NAME_CLASS@@QAEPADXZ 0042d071 f   v5subs:nameclas.obj
 0001:0002c0b7       ?get_data_dir_file_name@NAME_CLASS@@QAEEAAVSTRING_CLASS@@PBD@Z 0042d0b7 f   v5subs:nameclas.obj
 0001:0002c0fa       ?get_data_dir_file_name@NAME_CLASS@@QAEEPBD@Z 0042d0fa f   v5subs:nameclas.obj
 0001:0002c117       ?get_display_dir_file_name@NAME_CLASS@@QAEEAAVSTRING_CLASS@@0PBD@Z 0042d117 f   v5subs:nameclas.obj
 0001:0002c174       ?get_exe_dir_file_name@NAME_CLASS@@QAEEAAVSTRING_CLASS@@PBD@Z 0042d174 f   v5subs:nameclas.obj
 0001:0002c1b7       ?get_exe_dir_file_name@NAME_CLASS@@QAEEPBD@Z 0042d1b7 f   v5subs:nameclas.obj
 0001:0002c1f0       ?get_file_name@NAME_CLASS@@QAEEAAVSTRING_CLASS@@@Z 0042d1f0 f   v5subs:nameclas.obj
 0001:0002c20a       ?get_file_name@NAME_CLASS@@QAEEPAD@Z 0042d20a f   v5subs:nameclas.obj
 0001:0002c29b       ?get_log_dir_file_name@NAME_CLASS@@QAEEPBD@Z 0042d29b f   v5subs:nameclas.obj
 0001:0002c2d4       ?get_machine_dir_file_name@NAME_CLASS@@QAEEAAVSTRING_CLASS@@0PBD@Z 0042d2d4 f   v5subs:nameclas.obj
 0001:0002c31d       ?get_machine_list_file_name@NAME_CLASS@@QAEEAAVSTRING_CLASS@@@Z 0042d31d f   v5subs:nameclas.obj
 0001:0002c380       ?get_machine_results_dir_file_name@NAME_CLASS@@QAEEAAVSTRING_CLASS@@0PBD@Z 0042d380 f   v5subs:nameclas.obj
 0001:0002c3be       ?get_part_dir_file_name@NAME_CLASS@@QAEEAAVSTRING_CLASS@@00PBD@Z 0042d3be f   v5subs:nameclas.obj
 0001:0002c40a       ?get_part_results_dir_file_name@NAME_CLASS@@QAEEAAVSTRING_CLASS@@00PBD@Z 0042d40a f   v5subs:nameclas.obj
 0001:0002c44b       ?get_profile_name@NAME_CLASS@@QAEEAAVSTRING_CLASS@@00PBD1@Z 0042d44b f   v5subs:nameclas.obj
 0001:0002c4f6       ?get_static_text_parameters_csvname@NAME_CLASS@@QAEEAAVSTRING_CLASS@@00@Z 0042d4f6 f   v5subs:nameclas.obj
 0001:0002c50f       ?get_stringtable_name@NAME_CLASS@@QAEEPBD@Z 0042d50f f   v5subs:nameclas.obj
 0001:0002c560       ?moveto@NAME_CLASS@@QAEEAAVSTRING_CLASS@@@Z 0042d560 f   v5subs:nameclas.obj
 0001:0002c58d       ?remove_ending_filename@NAME_CLASS@@QAEEXZ 0042d58d f   v5subs:nameclas.obj
 0001:0002c5b3       ?remove_extension@NAME_CLASS@@QAEEXZ 0042d5b3 f   v5subs:nameclas.obj
 0001:0002c5ca       ?replace_extension@NAME_CLASS@@QAEXPAD@Z 0042d5ca f   v5subs:nameclas.obj
 0001:0002c5f8       ??0ANALOG_SENSOR@@QAE@XZ   0042d5f8 f   v5subs:asensor.obj
 0001:0002c5fe       ??0ANALOG_SENSOR_ENTRY@@QAE@XZ 0042d5fe f   v5subs:asensor.obj
 0001:0002c64e       ??1ANALOG_SENSOR_ENTRY@@QAE@XZ 0042d64e f   v5subs:asensor.obj
 0001:0002c67a       ??AANALOG_SENSOR@@QAEAAUANALOG_SENSOR_ENTRY@@H@Z 0042d67a f   v5subs:asensor.obj
 0001:0002c69d       ??_EANALOG_SENSOR_ENTRY@@QAEPAXI@Z 0042d69d f i v5subs:asensor.obj
 0001:0002c6f2       ?converted_value@ANALOG_SENSOR_ENTRY@@QAENI@Z 0042d6f2 f   v5subs:asensor.obj
 0001:0002c726       ?get@ANALOG_SENSOR@@SAEXZ  0042d726 f   v5subs:asensor.obj
 0001:0002c924       ?get@ANALOG_SENSOR_ENTRY@@QAEEPAD@Z 0042d924 f   v5subs:asensor.obj
 0001:0002ca81       ?raw_count@ANALOG_SENSOR_ENTRY@@QAENN@Z 0042da81 f   v5subs:asensor.obj
 0001:0002cac4       ?shutdown@ANALOG_SENSOR@@SAXXZ 0042dac4 f   v5subs:asensor.obj
 0001:0002cac9       ?update@ANALOG_SENSOR_ENTRY@@QAEEXZ 0042dac9 f   v5subs:asensor.obj
 0001:0002cbb7       ??0AUTO_BACKUP_CLASS@@QAE@XZ 0042dbb7 f   v5subs:autoback.obj
 0001:0002cbc9       ??1AUTO_BACKUP_CLASS@@QAE@XZ 0042dbc9 f   v5subs:autoback.obj
 0001:0002cbcf       ?backup_data_dir@AUTO_BACKUP_CLASS@@QAEEXZ 0042dbcf f   v5subs:autoback.obj
 0001:0002cc71       ?backup_part@AUTO_BACKUP_CLASS@@QAEEAAVSTRING_CLASS@@0@Z 0042dc71 f   v5subs:autoback.obj
 0001:0002cec8       ?get_backup_dir@AUTO_BACKUP_CLASS@@QAEEXZ 0042dec8 f   v5subs:autoback.obj
 0001:0002cf66       ??0DOWNCAT_NAME_ENTRY@@QAE@XZ 0042df66 f   v5subs:catclass.obj
 0001:0002cf88       ??0DOWNSCAT_NAME_ENTRY@@QAE@XZ 0042df88 f   v5subs:catclass.obj
 0001:0002cfb8       ??ADOWNSCAT_NAME_CLASS@@QAEAAUDOWNSCAT_NAME_ENTRY@@J@Z 0042dfb8 f   v5subs:catclass.obj
 0001:0002cfd9       ?cleanup@DOWNCAT_NAME_CLASS@@QAEXXZ 0042dfd9 f   v5subs:catclass.obj
 0001:0002cfd9       ?cleanup@DOWNSCAT_NAME_CLASS@@QAEXXZ 0042dfd9 f   v5subs:catclass.obj
 0001:0002cff2       ?index@DOWNSCAT_NAME_CLASS@@QAEJPAD0@Z 0042dff2 f   v5subs:catclass.obj
 0001:0002d043       ?name@DOWNCAT_NAME_CLASS@@QAEPADPAD@Z 0042e043 f   v5subs:catclass.obj
 0001:0002d088       ?name@DOWNSCAT_NAME_CLASS@@QAEPADPAD0@Z 0042e088 f   v5subs:catclass.obj
 0001:0002d0b2       ?read@DOWNCAT_NAME_CLASS@@QAEEXZ 0042e0b2 f   v5subs:catclass.obj
 0001:0002d1e1       ?read@DOWNSCAT_NAME_CLASS@@QAEEXZ 0042e1e1 f   v5subs:catclass.obj
 0001:0002d3bb       ??1CHAXIS_LABEL_CLASS@@QAE@XZ 0042e3bb f   v5subs:chaxis.obj
 0001:0002d3c0       ??ACHAXIS_LABEL_CLASS@@QAEPADH@Z 0042e3c0 f   v5subs:chaxis.obj
 0001:0002d3de       ?cleanup@CHAXIS_LABEL_CLASS@@QAEXXZ 0042e3de f   v5subs:chaxis.obj
 0001:0002d41d       ?get@CHAXIS_LABEL_CLASS@@QAEEAAVSTRING_CLASS@@00@Z 0042e41d f   v5subs:chaxis.obj
 0001:0002d4ee       ?init@CHAXIS_LABEL_CLASS@@QAEEH@Z 0042e4ee f   v5subs:chaxis.obj
 0001:0002d53c       ??0COLORS_CLASS@@QAE@XZ    0042e53c f   v5subs:color.obj
 0001:0002d551       ??1COLORS_CLASS@@QAE@XZ    0042e551 f   v5subs:color.obj
 0001:0002d556       ??ACOLORS_CLASS@@QAEKF@Z   0042e556 f   v5subs:color.obj
 0001:0002d57d       ?clear@@YAXXZ              0042e57d f   v5subs:color.obj
 0001:0002d59d       ?index@COLORS_CLASS@@QAEFPAD@Z 0042e59d f   v5subs:color.obj
 0001:0002d5e1       ?reload@COLORS_CLASS@@QAEEXZ 0042e5e1 f   v5subs:color.obj
 0001:0002d73d       ??0DB_TABLE@@QAE@XZ        0042e73d f   v5subs:dbsubs.obj
 0001:0002d764       ??1DB_TABLE@@QAE@XZ        0042e764 f   v5subs:dbsubs.obj
 0001:0002d7d0       ?close@DB_TABLE@@QAEXXZ    0042e7d0 f   v5subs:dbsubs.obj
 0001:0002d7f1       ?compare_date@@YAFPAD0@Z   0042e7f1 f   v5subs:dbsubs.obj
 0001:0002d827       ?compare_int32@@YAFPAD0J@Z 0042e827 f   v5subs:dbsubs.obj
 0001:0002d85b       ?compare_one_record@DB_TABLE@@AAEEPAFJJ@Z 0042e85b f   v5subs:dbsubs.obj
 0001:0002d928       ?create@DB_TABLE@@QAEEPAD@Z 0042e928 f   v5subs:dbsubs.obj
 0001:0002d988       ?determine_column_info@DB_TABLE@@QAEHXZ 0042e988 f   v5subs:dbsubs.obj
 0001:0002db61       ?empty@DB_TABLE@@QAEEXZ    0042eb61 f   v5subs:dbsubs.obj
 0001:0002db88       ?ensure_existance@DB_TABLE@@QAEEAAVSTRING_CLASS@@@Z 0042eb88 f   v5subs:dbsubs.obj
 0001:0002dbbc       ?field_length@DB_TABLE@@QAEFH@Z 0042ebbc f   v5subs:dbsubs.obj
 0001:0002dc07       ?field_offset@DB_TABLE@@QAEGH@Z 0042ec07 f   v5subs:dbsubs.obj
 0001:0002dc4b       ?fill_searchbuf@DB_TABLE@@AAEEF@Z 0042ec4b f   v5subs:dbsubs.obj
 0001:0002dc99       ?get_alpha@DB_TABLE@@QAEEAAVSTRING_CLASS@@GF@Z 0042ec99 f   v5subs:dbsubs.obj
 0001:0002dcf9       ?get_alpha@DB_TABLE@@QAEEAAVSTRING_CLASS@@H@Z 0042ecf9 f   v5subs:dbsubs.obj
 0001:0002dd66       ?get_alpha@DB_TABLE@@QAEEPADGF@Z 0042ed66 f   v5subs:dbsubs.obj
 0001:0002dd7c       ?get_alpha@DB_TABLE@@QAEEPADGFG@Z 0042ed7c f   v5subs:dbsubs.obj
 0001:0002ddd5       ?get_boolean@DB_TABLE@@QAEEG@Z 0042edd5 f   v5subs:dbsubs.obj
 0001:0002de03       ?get_char@DB_TABLE@@QAEDG@Z 0042ee03 f   v5subs:dbsubs.obj
 0001:0002de1d       ?get_current_record@DB_TABLE@@QAEEE@Z 0042ee1d f   v5subs:dbsubs.obj
 0001:0002de63       ?get_date@DB_TABLE@@QAEEAAU_SYSTEMTIME@@G@Z 0042ee63 f   v5subs:dbsubs.obj
 0001:0002de7c       ?get_double@DB_TABLE@@QAENG@Z 0042ee7c f   v5subs:dbsubs.obj
 0001:0002deb8       ?get_long@DB_TABLE@@QAEJG@Z 0042eeb8 f   v5subs:dbsubs.obj
 0001:0002dee1       ?get_next_key_match@DB_TABLE@@QAEEFE@Z 0042eee1 f   v5subs:dbsubs.obj
 0001:0002df4e       ?get_next_record@DB_TABLE@@QAEEE@Z 0042ef4e f   v5subs:dbsubs.obj
 0001:0002df9c       ?get_prev_record@DB_TABLE@@QAEEE@Z 0042ef9c f   v5subs:dbsubs.obj
 0001:0002dff8       ?get_rec@DB_TABLE@@QAEEXZ  0042eff8 f   v5subs:dbsubs.obj
 0001:0002e042       ?get_time@DB_TABLE@@QAEEAAU_SYSTEMTIME@@G@Z 0042f042 f   v5subs:dbsubs.obj
 0001:0002e05b       ?goto_first_equal_or_greater_record@DB_TABLE@@QAEEF@Z 0042f05b f   v5subs:dbsubs.obj
 0001:0002e134       ?goto_first_greater_than_record@DB_TABLE@@QAEEF@Z 0042f134 f   v5subs:dbsubs.obj
 0001:0002e205       ?goto_first_key_record@DB_TABLE@@AAEEF@Z 0042f205 f   v5subs:dbsubs.obj
 0001:0002e220       ?goto_key_record@DB_TABLE@@AAEEFJJ@Z 0042f220 f   v5subs:dbsubs.obj
 0001:0002e34c       ?goto_record_number@DB_TABLE@@QAEEJ@Z 0042f34c f   v5subs:dbsubs.obj
 0001:0002e3df       ?initbuf@DB_TABLE@@AAEEPAPADPAFF@Z 0042f3df f   v5subs:dbsubs.obj
 0001:0002e467       ?is_alpha@DB_TABLE@@QAEEH@Z 0042f467 f   v5subs:dbsubs.obj
 0001:0002e489       ?lock_record@DB_TABLE@@QAEEXZ 0042f489 f   v5subs:dbsubs.obj
 0001:0002e503       ?nof_recs@DB_TABLE@@QAEKXZ 0042f503 f   v5subs:dbsubs.obj
 0001:0002e52b       ?open@DB_TABLE@@QAEEPADFF@Z 0042f52b f   v5subs:dbsubs.obj
 0001:0002e541       ?open@DB_TABLE@@QAEEPADFFF@Z 0042f541 f   v5subs:dbsubs.obj
 0001:0002e720       ?open_status@DB_TABLE@@QAEEXZ 0042f720 f   v5subs:dbsubs.obj
 0001:0002e728       ?point_to_start_of_field@DB_TABLE@@AAEPADG@Z 0042f728 f   v5subs:dbsubs.obj
 0001:0002e73f       ?post_error@@YAXPAD0@Z     0042f73f f   v5subs:dbsubs.obj
 0001:0002e752       ?post_error@@YAXPAD@Z      0042f752 f   v5subs:dbsubs.obj
 0001:0002e766       ?put_alpha@DB_TABLE@@QAEEGPBDF@Z 0042f766 f   v5subs:dbsubs.obj
 0001:0002e7ad       ?put_boolean@DB_TABLE@@QAEEGE@Z 0042f7ad f   v5subs:dbsubs.obj
 0001:0002e7d6       ?put_date@DB_TABLE@@QAEEGABU_SYSTEMTIME@@@Z 0042f7d6 f   v5subs:dbsubs.obj
 0001:0002e807       ?put_float@DB_TABLE@@QAEEGMF@Z 0042f807 f   v5subs:dbsubs.obj
 0001:0002e84e       ?put_long@DB_TABLE@@QAEEGJF@Z 0042f84e f   v5subs:dbsubs.obj
 0001:0002e88f       ?put_time@DB_TABLE@@QAEEGAAU_SYSTEMTIME@@@Z 0042f88f f   v5subs:dbsubs.obj
 0001:0002e8c0       ?rec_append@DB_TABLE@@QAEEXZ 0042f8c0 f   v5subs:dbsubs.obj
 0001:0002e8e6       ?rec_delete@DB_TABLE@@QAEEJ@Z 0042f8e6 f   v5subs:dbsubs.obj
 0001:0002ea2d       ?rec_update@DB_TABLE@@QAEEXZ 0042fa2d f   v5subs:dbsubs.obj
 0001:0002ea4e       ?restore_from_searchbuf@DB_TABLE@@AAEXXZ 0042fa4e f   v5subs:dbsubs.obj
 0001:0002ea95       ?unlock_record@DB_TABLE@@QAEEXZ 0042fa95 f   v5subs:dbsubs.obj
 0001:0002ead5       ?write_record@DB_TABLE@@AAEEXZ 0042fad5 f   v5subs:dbsubs.obj
 0001:0002eb2b       ?down_state@DSTAT_CLASS@@QAEHXZ 0042fb2b f   v5subs:dstat.obj
 0001:0002ebf7       ?get@DSTAT_CLASS@@QAEEAAVSTRING_CLASS@@0@Z 0042fbf7 f   v5subs:dstat.obj
 0001:0002ed00       ?put@DSTAT_CLASS@@QAEEAAVSTRING_CLASS@@0@Z 0042fd00 f   v5subs:dstat.obj
 0001:0002eebe       ?same_code@DSTAT_CLASS@@QAEEPAD0@Z 0042febe f   v5subs:dstat.obj
 0001:0002eef6       ??0DOWN_DATA_CLASS@@QAE@XZ 0042fef6 f   v5subs:evclass.obj
 0001:0002ef52       ?set@DOWN_DATA_CLASS@@QAEEPAUHDDEDATA__@@@Z 0042ff52 f   v5subs:evclass.obj
 0001:0002f10a       ?set@NEW_MACHINE_STATE_CLASS@@QAEEPAUHDDEDATA__@@@Z 0043010a f   v5subs:evclass.obj
 0001:0002f1ad       ??0FILE_CLASS@@QAE@XZ      004301ad f   v5subs:fileclas.obj
 0001:0002f1d1       ?close@FILE_CLASS@@QAEXXZ  004301d1 f   v5subs:fileclas.obj
 0001:0002f1d1       ??1FILE_CLASS@@QAE@XZ      004301d1 f   v5subs:fileclas.obj
 0001:0002f1d6       ?cleanup@FILE_CLASS@@QAEXXZ 004301d6 f   v5subs:fileclas.obj
 0001:0002f204       ?cleanup_memory@FILE_CLASS@@QAEXXZ 00430204 f   v5subs:fileclas.obj
 0001:0002f230       ?get_creation_time@FILE_CLASS@@QAEEPAU_FILETIME@@@Z 00430230 f   v5subs:fileclas.obj
 0001:0002f254       ?get_file_size@FILE_CLASS@@QAEEAAK@Z 00430254 f   v5subs:fileclas.obj
 0001:0002f281       ?insertbinary@FILE_CLASS@@QAEEPAXK@Z 00430281 f   v5subs:fileclas.obj
 0001:0002f33e       ?insertline@FILE_CLASS@@QAEEPAD@Z 0043033e f   v5subs:fileclas.obj
 0001:0002f3c7       ?make_path@FILE_CLASS@@QAEEPAD@Z 004303c7 f   v5subs:fileclas.obj
 0001:0002f412       ?nof_lines@FILE_CLASS@@QAEHXZ 00430412 f   v5subs:fileclas.obj
 0001:0002f4dc       ?open@FILE_CLASS@@QAEEPADK@Z 004304dc f   v5subs:fileclas.obj
 0001:0002f55f       ?open_for_append@FILE_CLASS@@QAEEAAVSTRING_CLASS@@@Z 0043055f f   v5subs:fileclas.obj
 0001:0002f579       ?open_for_append@FILE_CLASS@@QAEEPAD@Z 00430579 f   v5subs:fileclas.obj
 0001:0002f5af       ?open_for_read@FILE_CLASS@@QAEEAAVSTRING_CLASS@@@Z 004305af f   v5subs:fileclas.obj
 0001:0002f5c9       ?open_for_read@FILE_CLASS@@QAEEPAD@Z 004305c9 f   v5subs:fileclas.obj
 0001:0002f5e5       ?open_for_update@FILE_CLASS@@QAEEPAD@Z 004305e5 f   v5subs:fileclas.obj
 0001:0002f5fe       ?open_for_write@FILE_CLASS@@QAEEAAVSTRING_CLASS@@@Z 004305fe f   v5subs:fileclas.obj
 0001:0002f618       ?open_for_write@FILE_CLASS@@QAEEPAD@Z 00430618 f   v5subs:fileclas.obj
 0001:0002f631       ?readbinary@FILE_CLASS@@QAEKPAXK@Z 00430631 f   v5subs:fileclas.obj
 0001:0002f697       ?readline@FILE_CLASS@@QAEPADXZ 00430697 f   v5subs:fileclas.obj
 0001:0002f772       ?setpos@FILE_CLASS@@QAEEJ@Z 00430772 f   v5subs:fileclas.obj
 0001:0002f7b5       ?writebinary@FILE_CLASS@@QAEEPAXK@Z 004307b5 f   v5subs:fileclas.obj
 0001:0002f81d       ?writeline@FILE_CLASS@@QAEEAAVSTRING_CLASS@@@Z 0043081d f   v5subs:fileclas.obj
 0001:0002f837       ?writeline@FILE_CLASS@@QAEEPAD@Z 00430837 f   v5subs:fileclas.obj
 0001:0002f8ca       ??0FONT_CLASS@@QAE@XZ      004308ca f   v5subs:fontclas.obj
 0001:0002f8e6       ??0FONT_LIST_CLASS@@QAE@XZ 004308e6 f   v5subs:fontclas.obj
 0001:0002f8ec       ??0FONT_LIST_ENTRY@@QAE@XZ 004308ec f   v5subs:fontclas.obj
 0001:0002f906       ??1FONT_LIST_CLASS@@QAE@XZ 00430906 f   v5subs:fontclas.obj
 0001:0002f92f       ??1FONT_LIST_ENTRY@@QAE@XZ 0043092f f   v5subs:fontclas.obj
 0001:0002f947       ??4FONT_CLASS@@QAEXABUtagLOGFONTA@@@Z 00430947 f   v5subs:fontclas.obj
 0001:0002f9aa       ??4FONT_CLASS@@QAEXABV0@@Z 004309aa f   v5subs:fontclas.obj
 0001:0002f9e6       ??8FONT_CLASS@@QAE_NABUtagLOGFONTA@@@Z 004309e6 f   v5subs:fontclas.obj
 0001:0002fa6b       ??8FONT_CLASS@@QAE_NABV0@@Z 00430a6b f   v5subs:fontclas.obj
 0001:0002fb08       ?choose@FONT_CLASS@@QAE_NPAUHWND__@@@Z 00430b08 f   v5subs:fontclas.obj
 0001:0002fb7f       ?free_handle@FONT_LIST_CLASS@@QAEXPAUHFONT__@@@Z 00430b7f f   v5subs:fontclas.obj
 0001:0002fbc2       ?get@FONT_CLASS@@QAE_NPAD@Z 00430bc2 f   v5subs:fontclas.obj
 0001:0002fd5a       ?get_font@FONT_LIST_CLASS@@QAE_NAAVFONT_CLASS@@PAUHFONT__@@@Z 00430d5a f   v5subs:fontclas.obj
 0001:0002fd85       ?get_handle@FONT_LIST_CLASS@@QAEPAUHFONT__@@ABVFONT_CLASS@@@Z 00430d85 f   v5subs:fontclas.obj
 0001:0002fe96       ?put@FONT_CLASS@@QAEPADXZ  00430e96 f   v5subs:fontclas.obj
 0001:0002ffa4       ??0FTANALOG_ENTRY@@QAE@XZ  00430fa4 f   v5subs:ftanalog.obj
 0001:0002ffde       ??1FTANALOG_ENTRY@@QAE@XZ  00430fde f   v5subs:ftanalog.obj
 0001:000300ff       ?load@FTANALOG_CLASS@@QAEEAAVSTRING_CLASS@@00@Z 004310ff f   v5subs:ftanalog.obj
 0001:000304fc       ??0COMPUTER_CLASS@@QAE@XZ  004314fc f   v5subs:computer.obj
 0001:00030507       ?add@COMPUTER_CLASS@@QAEEPAD@Z 00431507 f   v5subs:computer.obj
 0001:000305bb       ?count@COMPUTER_CLASS@@QAEHXZ 004315bb f   v5subs:computer.obj
 0001:000305c1       ?empty@COMPUTER_CLASS@@QAEXXZ 004315c1 f   v5subs:computer.obj
 0001:000305f5       ?find@COMPUTER_CLASS@@QAEEPAD@Z 004315f5 f   v5subs:computer.obj
 0001:00030622       ?is_present@COMPUTER_CLASS@@QAEEXZ 00431622 f   v5subs:computer.obj
 0001:00030640       ?is_this_computer@COMPUTER_CLASS@@QAEEXZ 00431640 f   v5subs:computer.obj
 0001:0003065a       ?load@COMPUTER_CLASS@@QAEEXZ 0043165a f   v5subs:computer.obj
 0001:00030781       ?name@COMPUTER_CLASS@@QAEAAVSTRING_CLASS@@XZ 00431781 f   v5subs:computer.obj
 0001:0003078d       ?next@COMPUTER_CLASS@@QAEEXZ 0043178d f   v5subs:computer.obj
 0001:000307b0       ?online_status@COMPUTER_CLASS@@QAEEAAVSTRING_CLASS@@@Z 004317b0 f   v5subs:computer.obj
 0001:000307f6       ?online_status@COMPUTER_CLASS@@QAEEXZ 004317f6 f   v5subs:computer.obj
 0001:00030803       ?rewind@COMPUTER_CLASS@@QAEXXZ 00431803 f   v5subs:computer.obj
 0001:0003080a       ?set_online_status@COMPUTER_CLASS@@QAEEAAVSTRING_CLASS@@E@Z 0043180a f   v5subs:computer.obj
 0001:0003085a       ?startup@COMPUTER_CLASS@@QAEEXZ 0043185a f   v5subs:computer.obj
 0001:0003086f       ?whoami@COMPUTER_CLASS@@QAEAAVSTRING_CLASS@@XZ 0043186f f   v5subs:computer.obj
 0001:00030875       ??1INI_CLASS@@QAE@XZ       00431875 f   v5subs:iniclass.obj
 0001:0003087a       ?cleanup@INI_CLASS@@QAEXXZ 0043187a f   v5subs:iniclass.obj
 0001:000308b5       ?find@INI_CLASS@@QAEEPBD0@Z 004318b5 f   v5subs:iniclass.obj
 0001:00030918       ?find@INI_CLASS@@QAEEPBD@Z 00431918 f   v5subs:iniclass.obj
 0001:00030931       ?get_boolean@INI_CLASS@@QAEEPBD0@Z 00431931 f   v5subs:iniclass.obj
 0001:00030931       ?get_bool@INI_CLASS@@QAE_NPBD0@Z 00431931 f   v5subs:iniclass.obj
 0001:00030954       ?get_bool@INI_CLASS@@QAE_NPBD@Z 00431954 f   v5subs:iniclass.obj
 0001:00030954       ?get_boolean@INI_CLASS@@QAEEPBD@Z 00431954 f   v5subs:iniclass.obj
 0001:0003096d       ?get_boolean@INI_CLASS@@QAEEXZ 0043196d f   v5subs:iniclass.obj
 0001:0003096d       ?get_bool@INI_CLASS@@QAE_NXZ 0043196d f   v5subs:iniclass.obj
 0001:0003098c       ?get_double@INI_CLASS@@QAENPBD@Z 0043198c f   v5subs:iniclass.obj
 0001:000309ab       ?get_double@INI_CLASS@@QAENXZ 004319ab f   v5subs:iniclass.obj
 0001:000309d0       ?get_int@INI_CLASS@@QAEHPBD0@Z 004319d0 f   v5subs:iniclass.obj
 0001:000309f3       ?get_int@INI_CLASS@@QAEHPBD@Z 004319f3 f   v5subs:iniclass.obj
 0001:00030a0c       ?get_int@INI_CLASS@@QAEHXZ 00431a0c f   v5subs:iniclass.obj
 0001:00030a1d       ?get_string@INI_CLASS@@QAEPADPBD@Z 00431a1d f   v5subs:iniclass.obj
 0001:00030a4a       ?get_string@INI_CLASS@@QAEPADXZ 00431a4a f   v5subs:iniclass.obj
 0001:00030a58       ?put_boolean@INI_CLASS@@QAEEPBD0E@Z 00431a58 f   v5subs:iniclass.obj
 0001:00030a89       ?put_boolean@INI_CLASS@@QAEEPBDE@Z 00431a89 f   v5subs:iniclass.obj
 0001:00030aa6       ?put_double@INI_CLASS@@QAEEPBDN@Z 00431aa6 f   v5subs:iniclass.obj
 0001:00030b04       ?put_int@INI_CLASS@@QAEEPBDH@Z 00431b04 f   v5subs:iniclass.obj
 0001:00030b4a       ?put_string@INI_CLASS@@QAEEPBD00@Z 00431b4a f   v5subs:iniclass.obj
 0001:00030b8b       ?put_string@INI_CLASS@@QAEEPBD0@Z 00431b8b f   v5subs:iniclass.obj
 0001:00030ba8       ?remove_key@INI_CLASS@@QAEXPBD0@Z 00431ba8 f   v5subs:iniclass.obj
 0001:00030bbd       ?remove_key@INI_CLASS@@QAEXPBD@Z 00431bbd f   v5subs:iniclass.obj
 0001:00030bd2       ?set_file@INI_CLASS@@QAEEPBD@Z 00431bd2 f   v5subs:iniclass.obj
 0001:00030c14       ?set_section@INI_CLASS@@QAEEPBD@Z 00431c14 f   v5subs:iniclass.obj
 0001:00030c48       ??1LISTBOX_CLASS@@QAE@XZ   00431c48 f   v5subs:listbox.obj
 0001:00030c58       ?add@LISTBOX_CLASS@@QAEHPAD@Z 00431c58 f   v5subs:listbox.obj
 0001:00030c99       ?check_buf_size@LISTBOX_CLASS@@AAEEH@Z 00431c99 f   v5subs:listbox.obj
 0001:00030cd8       ?check_buf_size@LISTBOX_CLASS@@AAEEPAD@Z 00431cd8 f   v5subs:listbox.obj
 0001:00030cf1       ?check_item_size@LISTBOX_CLASS@@AAEEH@Z 00431cf1 f   v5subs:listbox.obj
 0001:00030d28       ?convert_tab_array_to_dialog_units@LISTBOX_CLASS@@AAE_NPAHH@Z 00431d28 f   v5subs:listbox.obj
 0001:00030da4       ?count@LISTBOX_CLASS@@QAEHXZ 00431da4 f   v5subs:listbox.obj
 0001:00030dce       ?current_index@LISTBOX_CLASS@@QAEHXZ 00431dce f   v5subs:listbox.obj
 0001:00030ded       ?empty@LISTBOX_CLASS@@QAEXXZ 00431ded f   v5subs:listbox.obj
 0001:00030e04       ?findprefix@LISTBOX_CLASS@@QAEEPAD@Z 00431e04 f   v5subs:listbox.obj
 0001:00030e47       ?get_select_list@LISTBOX_CLASS@@QAEHPAPAH@Z 00431e47 f   v5subs:listbox.obj
 0001:00030eaf       ?init@LISTBOX_CLASS@@QAEEPAUHWND__@@@Z 00431eaf f   v5subs:listbox.obj
 0001:00030f10       ?init@LISTBOX_CLASS@@QAEEPAUHWND__@@H@Z 00431f10 f   v5subs:listbox.obj
 0001:00030f2d       ?insert@LISTBOX_CLASS@@QAEHHPAD@Z 00431f2d f   v5subs:listbox.obj
 0001:00030f70       ?is_selected@LISTBOX_CLASS@@QAEEH@Z 00431f70 f   v5subs:listbox.obj
 0001:00030f95       ?item_text@LISTBOX_CLASS@@QAEPADH@Z 00431f95 f   v5subs:listbox.obj
 0001:00030fdd       ?redraw_off@LISTBOX_CLASS@@QAEXXZ 00431fdd f   v5subs:listbox.obj
 0001:00030fec       ?redraw_on@LISTBOX_CLASS@@QAEXXZ 00431fec f   v5subs:listbox.obj
 0001:0003100b       ?remove@LISTBOX_CLASS@@QAEEH@Z 0043200b f   v5subs:listbox.obj
 0001:00031037       ?replace@LISTBOX_CLASS@@QAEEPAD@Z 00432037 f   v5subs:listbox.obj
 0001:00031093       ?select_all@LISTBOX_CLASS@@QAEXI@Z 00432093 f   v5subs:listbox.obj
 0001:000310dc       ?select_count@LISTBOX_CLASS@@QAEHXZ 004320dc f   v5subs:listbox.obj
 0001:00031106       ?selected_index@LISTBOX_CLASS@@QAEHXZ 00432106 f   v5subs:listbox.obj
 0001:00031131       ?selected_text@LISTBOX_CLASS@@QAEPADXZ 00432131 f   v5subs:listbox.obj
 0001:0003114f       ?set_current_index@LISTBOX_CLASS@@QAEEH@Z 0043214f f   v5subs:listbox.obj
 0001:00031176       ?set_pixel_tabs@LISTBOX_CLASS@@QAE_NPAHH@Z 00432176 f   v5subs:listbox.obj
 0001:000311b2       ?set_select@LISTBOX_CLASS@@QAEXHE@Z 004321b2 f   v5subs:listbox.obj
 0001:000311ce       ?set_tabs@LISTBOX_CLASS@@QAE_NHH@Z 004321ce f   v5subs:listbox.obj
 0001:000312ab       ?set_top_index@LISTBOX_CLASS@@QAEEH@Z 004322ab f   v5subs:listbox.obj
 0001:000312d2       ?setcursel@LISTBOX_CLASS@@QAEEH@Z 004322d2 f   v5subs:listbox.obj
 0001:00031313       ?setcursel@LISTBOX_CLASS@@QAEEPAD@Z 00432313 f   v5subs:listbox.obj
 0001:0003135a       ?top_index@LISTBOX_CLASS@@QAEHXZ 0043235a f   v5subs:listbox.obj
 0001:00031379       ?visible_row_count@LISTBOX_CLASS@@QAEHXZ 00432379 f   v5subs:listbox.obj
 0001:000313e0       ??0MULTIPART_RUNLIST_SETTINGS_CLASS@@QAE@XZ 004323e0 f   v5subs:multipart_runlist.obj
 0001:000313f6       ??0MULTIPART_RUNLIST_WIRES_CLASS@@QAE@XZ 004323f6 f   v5subs:multipart_runlist.obj
 0001:0003140c       ??1MULTIPART_RUNLIST_SETTINGS_CLASS@@QAE@XZ 0043240c f   v5subs:multipart_runlist.obj
 0001:00031414       ??1MULTIPART_RUNLIST_WIRES_CLASS@@QAE@XZ 00432414 f   v5subs:multipart_runlist.obj
 0001:0003141c       ?bits_from_wirelist@@YAIAAVSTRING_CLASS@@@Z 0043241c f   v5subs:multipart_runlist.obj
 0001:000314d3       ?get@MULTIPART_RUNLIST_SETTINGS_CLASS@@QAE_NAAVSTRING_CLASS@@0@Z 004324d3 f   v5subs:multipart_runlist.obj
 0001:000317b1       ?get@MULTIPART_RUNLIST_WIRES_CLASS@@QAE_NAAVSTRING_CLASS@@00@Z 004327b1 f   v5subs:multipart_runlist.obj
 0001:0003194c       ?get_multipart_runlist_wires_csvname@NAME_CLASS@@QAEEAAVSTRING_CLASS@@0V2@@Z 0043294c f i v5subs:multipart_runlist.obj
 0001:00031975       ?get_wirelist@MULTIPART_RUNLIST_SETTINGS_CLASS@@QAE_NAAVSTRING_CLASS@@H@Z 00432975 f   v5subs:multipart_runlist.obj
 0001:00031a50       ?init@MULTIPART_RUNLIST_SETTINGS_CLASS@@QAEXXZ 00432a50 f   v5subs:multipart_runlist.obj
 0001:00031a58       ?part_selection_number@MULTIPART_RUNLIST_SETTINGS_CLASS@@QAEHAAVSTRING_CLASS@@@Z 00432a58 f   v5subs:multipart_runlist.obj
 0001:00031b1c       ??0MACHINE_CLASS@@QAE@XZ   00432b1c f   v5subs:machine.obj
 0001:00031b83       ?find@MACHINE_CLASS@@QAEEAAVSTRING_CLASS@@0@Z 00432b83 f   v5subs:machine.obj
 0001:00031de2       ?init@MACHINE_CLASS@@QAEXXZ 00432de2 f   v5subs:machine.obj
 0001:00031e6b       ?init_save_counts@@YAXPAUSAVE_COUNTS@@@Z 00432e6b f   v5subs:machine.obj
 0001:00031e84       ?read_machset_db@MACHINE_CLASS@@QAEEAAVSTRING_CLASS@@@Z 00432e84 f   v5subs:machine.obj
 0001:0003243c       ??1GENERIC_LIST_CLASS@@QAE@XZ 0043343c f   v5subs:genlist.obj
 0001:0003245e       ?append@GENERIC_LIST_CLASS@@QAEEPAX@Z 0043345e f   v5subs:genlist.obj
 0001:00032494       ?count@GENERIC_LIST_CLASS@@QAEFXZ 00433494 f   v5subs:genlist.obj
 0001:000324a0       ?find@GENERIC_LIST_CLASS@@QAEEPAX@Z 004334a0 f   v5subs:genlist.obj
 0001:000324d8       ?insert@GENERIC_LIST_CLASS@@QAEEPAX@Z 004334d8 f   v5subs:genlist.obj
 0001:00032528       ?next@GENERIC_LIST_CLASS@@QAEPAXXZ 00433528 f   v5subs:genlist.obj
 0001:00032552       ?remove@GENERIC_LIST_CLASS@@QAEEPAX@Z 00433552 f   v5subs:genlist.obj
 0001:00032571       ?remove@GENERIC_LIST_CLASS@@QAEEXZ 00433571 f   v5subs:genlist.obj
 0001:000325a0       ?remove_all@GENERIC_LIST_CLASS@@QAEXXZ 004335a0 f   v5subs:genlist.obj
 0001:000325c9       ?rewind@GENERIC_LIST_CLASS@@QAEXXZ 004335c9 f   v5subs:genlist.obj
 0001:000325d2       ??1MACHINE_NAME_LIST_CLASS@@QAE@XZ 004335d2 f   v5subs:machname.obj
 0001:000325e3       ??_GMACHINE_NAME_LIST_ENTRY@@QAEPAXI@Z 004335e3 f i v5subs:machname.obj
 0001:00032609       ?add@MACHINE_NAME_LIST_CLASS@@QAEEAAVSTRING_CLASS@@0G@Z 00433609 f   v5subs:machname.obj
 0001:0003265e       ?add@MACHINE_NAME_LIST_CLASS@@QAEEPAUMACHINE_NAME_LIST_ENTRY@@G@Z 0043365e f   v5subs:machname.obj
 0001:00032710       ?add_computer@MACHINE_NAME_LIST_CLASS@@QAEEAAVSTRING_CLASS@@@Z 00433710 f   v5subs:machname.obj
 0001:00032872       ?computer_name@MACHINE_NAME_LIST_CLASS@@QAEAAVSTRING_CLASS@@XZ 00433872 f   v5subs:machname.obj
 0001:0003287e       ?empty@MACHINE_NAME_LIST_CLASS@@QAEXXZ 0043387e f   v5subs:machname.obj
 0001:000328aa       ?find@MACHINE_NAME_LIST_CLASS@@QAEEAAVSTRING_CLASS@@@Z 004338aa f   v5subs:machname.obj
 0001:000328db       ?find@MACHINE_NAME_LIST_CLASS@@QAEEPAD@Z 004338db f   v5subs:machname.obj
 0001:0003292a       ?get_computer_name@MACHINE_NAME_LIST_CLASS@@QAEEAAVSTRING_CLASS@@0@Z 0043392a f   v5subs:machname.obj
 0001:0003295d       ?name@MACHINE_NAME_LIST_CLASS@@QAEAAVSTRING_CLASS@@XZ 0043395d f   v5subs:machname.obj
 0001:0003296d       ?next@CONTROL_LIMIT_CLASS@@QAEEXZ 0043396d f   ctrlimit.obj
 0001:0003296d       ?next@TEXT_LIST_CLASS@@QAEEXZ 0043396d f   v5subs:textlist.obj
 0001:0003296d       ?next@MACHINE_NAME_LIST_CLASS@@QAEEXZ 0043396d f   v5subs:machname.obj
 0001:00032981       ?remove@MACHINE_NAME_LIST_CLASS@@QAEXXZ 00433981 f   v5subs:machname.obj
 0001:0003299f       ??0MULTISTRING_CLASS@@QAE@XZ 0043399f f   v5subs:multistring.obj
 0001:000329b7       ??1MULTISTRING_CLASS@@QAE@XZ 004339b7 f   v5subs:multistring.obj
 0001:000329c7       ??AMULTISTRING_CLASS@@QAEAAV0@H@Z 004339c7 f   v5subs:multistring.obj
 0001:000329d9       ?empty_array@MULTISTRING_CLASS@@QAE_NXZ 004339d9 f   v5subs:multistring.obj
 0001:000329fb       ?find@MULTISTRING_CLASS@@QAEHAAVSTRING_CLASS@@@Z 004339fb f   v5subs:multistring.obj
 0001:00032a2b       ?goto_index@MULTISTRING_CLASS@@QAE_NH@Z 00433a2b f   v5subs:multistring.obj
 0001:00032a6b       ?next@MULTISTRING_CLASS@@QAE_NXZ 00433a6b f   v5subs:multistring.obj
 0001:00032aa9       ?remove@MULTISTRING_CLASS@@QAE_NH@Z 00433aa9 f   v5subs:multistring.obj
 0001:00032b9c       ?rewind@MULTISTRING_CLASS@@QAE_NXZ 00433b9c f   v5subs:multistring.obj
 0001:00032bba       ?set_array_size@MULTISTRING_CLASS@@QAE_NH@Z 00433bba f   v5subs:multistring.obj
 0001:00032cb4       ?split@MULTISTRING_CLASS@@QAE_ND@Z 00433cb4 f   v5subs:multistring.obj
 0001:00032d6e       ??0VDB_CLASS@@QAE@XZ       00433d6e f   v5subs:vdbclass.obj
 0001:00032e02       ??1VDB_CLASS@@QAE@XZ       00433e02 f   v5subs:vdbclass.obj
 0001:00032e3b       ?close@VDB_CLASS@@QAEXXZ   00433e3b f   v5subs:vdbclass.obj
 0001:00032e96       ?compare_key_fields@VDB_CLASS@@QAEHXZ 00433e96 f   v5subs:vdbclass.obj
 0001:00032fd3       ?get_date@VDB_CLASS@@QAE_NAAU_SYSTEMTIME@@H@Z 00433fd3 f   v5subs:vdbclass.obj
 0001:00033010       ?get_first_equal_or_greater_date@VDB_CLASS@@QAE_NHAAU_SYSTEMTIME@@@Z 00434010 f   v5subs:vdbclass.obj
 0001:0003317a       ?get_first_equal_or_greater_key_match@VDB_CLASS@@QAE_NH@Z 0043417a f   v5subs:vdbclass.obj
 0001:00033188       ?get_first_key_match@VDB_CLASS@@QAE_NH_N@Z 00434188 f   v5subs:vdbclass.obj
 0001:0003333f       ?get_last_record@VDB_CLASS@@QAE_NXZ 0043433f f   v5subs:vdbclass.obj
 0001:0003336b       ?get_next_key_match@VDB_CLASS@@QAE_NH@Z 0043436b f   v5subs:vdbclass.obj
 0001:000333b2       ?get_next_record@VDB_CLASS@@QAE_NXZ 004343b2 f   v5subs:vdbclass.obj
 0001:000333cb       ?get_prev_record@VDB_CLASS@@QAE_NXZ 004343cb f   v5subs:vdbclass.obj
 0001:000333e4       ?get_rec@VDB_CLASS@@QAE_NH@Z 004343e4 f   v5subs:vdbclass.obj
 0001:00033403       ?get_rec@VDB_CLASS@@QAE_NXZ 00434403 f   v5subs:vdbclass.obj
 0001:000334fc       ?get_time@VDB_CLASS@@QAE_NAAU_SYSTEMTIME@@H@Z 004344fc f   v5subs:vdbclass.obj
 0001:00033539       ?goto_last_record@VDB_CLASS@@QAE_NXZ 00434539 f   v5subs:vdbclass.obj
 0001:00033587       ?goto_next_record@VDB_CLASS@@QAEHXZ 00434587 f   v5subs:vdbclass.obj
 0001:00033623       ?goto_prev_record@VDB_CLASS@@QAEHXZ 00434623 f   v5subs:vdbclass.obj
 0001:00033651       ?goto_record_number@VDB_CLASS@@QAE_NH@Z 00434651 f   v5subs:vdbclass.obj
 0001:0003373e       ?goto_start_of_record@VDB_CLASS@@QAEHXZ 0043473e f   v5subs:vdbclass.obj
 0001:00033877       ?is_date@@YA_NAAVSTRING_CLASS@@@Z 00434877 f   v5subs:vdbclass.obj
 0001:000338ae       ?nof_recs@VDB_CLASS@@QAEHXZ 004348ae f   v5subs:vdbclass.obj
 0001:000338b5       ?open@VDB_CLASS@@QAE_NPADH@Z 004348b5 f   v5subs:vdbclass.obj
 0001:00033a48       ?open_for_read@VDB_CLASS@@QAE_NVSTRING_CLASS@@@Z 00434a48 f   v5subs:vdbclass.obj
 0001:00033a71       ??0STATIC_TEXT_PARAMETER_CLASS@@QAE@XZ 00434a71 f   v5subs:static_text_parameter.obj
 0001:00033a8e       ??1STATIC_TEXT_PARAMETER_CLASS@@QAE@XZ 00434a8e f   v5subs:static_text_parameter.obj
 0001:00033aa1       ?clear@STATIC_TEXT_PARAMETER_CLASS@@QAEXXZ 00434aa1 f   v5subs:static_text_parameter.obj
 0001:00033abc       ?get@STATIC_TEXT_PARAMETER_CLASS@@QAEEH@Z 00434abc f   v5subs:static_text_parameter.obj
 0001:00033b9e       ?init@STATIC_TEXT_PARAMETER_CLASS@@QAEEAAVSTRING_CLASS@@00@Z 00434b9e f   v5subs:static_text_parameter.obj
 0001:00033ba3       ?put@STATIC_TEXT_PARAMETER_CLASS@@QAEEH@Z 00434ba3 f   v5subs:static_text_parameter.obj
 0001:00033d95       ??0PARAMETER_CLASS@@QAE@XZ 00434d95 f   v5subs:param.obj
 0001:00033ddc       ??0PARAMETER_ENTRY@@QAE@XZ 00434ddc f i v5subs:param.obj
 0001:00033e0a       ?count@PARAMETER_CLASS@@QAEFXZ 00434e0a f   v5subs:param.obj
 0001:00033e28       ?find@PARAMETER_CLASS@@QAEEAAVSTRING_CLASS@@00@Z 00434e28 f   v5subs:param.obj
 0001:00033ee6       ?init@PARAMETER_CLASS@@QAEXF@Z 00434ee6 f   v5subs:param.obj
 0001:00033f58       ?read_param_csv@PARAMETER_CLASS@@QAEEAAVSTRING_CLASS@@@Z 00434f58 f   v5subs:param.obj
 0001:000341e2       ?read_param_db@PARAMETER_CLASS@@QAEEAAVSTRING_CLASS@@@Z 004351e2 f   v5subs:param.obj
 0001:00034391       ?save@PARAMETER_CLASS@@QAEEXZ 00435391 f   v5subs:param.obj
 0001:00034599       ??0CUGDrawHint@@QAE@XZ     00435599 f   dundas:ugdrwhnt.obj
 0001:00034599       ??0SETPOINT_CLASS@@QAE@XZ  00435599 f   v5subs:setpoint.obj
 0001:000345a3       ??1SETPOINT_CLASS@@QAE@XZ  004355a3 f   v5subs:setpoint.obj
 0001:000345a8       ??4SETPOINT_CLASS@@QAEXABV0@@Z 004355a8 f   v5subs:setpoint.obj
 0001:000345fb       ??4SETPOINT_ENTRY@@QAEXABU0@@Z 004355fb f   v5subs:setpoint.obj
 0001:0003461c       ??ASETPOINT_CLASS@@QAEAAUSETPOINT_ENTRY@@H@Z 0043561c f   v5subs:setpoint.obj
 0001:00034638       ??_ESETPOINT_ENTRY@@QAEPAXI@Z 00435638 f i v5subs:setpoint.obj
 0001:000346a1       ?cleanup@SETPOINT_CLASS@@QAEXXZ 004356a1 f   v5subs:setpoint.obj
 0001:000346bc       ?get@SETPOINT_CLASS@@QAEHAAVSTRING_CLASS@@@Z 004356bc f   v5subs:setpoint.obj
 0001:000346d3       ?get_one_value@SETPOINT_CLASS@@QAEEAAVSTRING_CLASS@@0H@Z 004356d3 f   v5subs:setpoint.obj
 0001:0003474e       ?getfrom@SETPOINT_CLASS@@QAEHAAVSTRING_CLASS@@@Z 0043574e f   v5subs:setpoint.obj
 0001:00034840       ?put@SETPOINT_CLASS@@QAEEAAVSTRING_CLASS@@@Z 00435840 f   v5subs:setpoint.obj
 0001:00034927       ?setsize@SETPOINT_CLASS@@QAEEH@Z 00435927 f   v5subs:setpoint.obj
 0001:00034a24       ??0PART_CLASS@@QAE@XZ      00435a24 f   v5subs:part.obj
 0001:00034a5a       ??1PART_CLASS@@QAE@XZ      00435a5a f   v5subs:part.obj
 0001:00034a88       ?find@PART_CLASS@@QAEEAAVSTRING_CLASS@@00@Z 00435a88 f   v5subs:part.obj
 0001:00034dc6       ?init@PART_CLASS@@QAEXXZ   00435dc6 f   v5subs:part.obj
 0001:00034eec       ?plunger_area@PART_CLASS@@QAENXZ 00435eec f   v5subs:part.obj
 0001:00034f37       ?read_ftchan_db@PART_CLASS@@QAEEAAVSTRING_CLASS@@@Z 00435f37 f   v5subs:part.obj
 0001:00034fdd       ?read_part_setup@PART_CLASS@@QAEEAAVSTRING_CLASS@@@Z 00435fdd f   v5subs:part.obj
 0001:00035040       ?read_x4_divisor@PART_CLASS@@QAEEXZ 00436040 f   v5subs:part.obj
 0001:00035181       ?update@PART_CLASS@@QAEEXZ 00436181 f   v5subs:part.obj
 0001:000355b5       ?velocity_from_x4@PART_CLASS@@QAENN@Z 004365b5 f   v5subs:part.obj
 0001:000355d9       ??0FTCALC_CLASS@@QAE@XZ    004365d9 f   v5subs:ftcalc.obj
 0001:00035620       ??0SOURCE_DATA@@QAE@XZ     00436620 f   v5subs:ftcalc.obj
 0001:00035632       ??4SOURCE_DATA@@QAEXABV0@@Z 00436632 f   v5subs:ftcalc.obj
 0001:0003565b       ?cleanup@FTCALC_CLASS@@QAEXXZ 0043665b f   v5subs:ftcalc.obj
 0001:00035672       ?clear_source_data@FTCALC_CLASS@@QAEXXZ 00436672 f   v5subs:ftcalc.obj
 0001:00035692       ?load@FTCALC_CLASS@@QAEEAAVSTRING_CLASS@@00@Z 00436692 f   v5subs:ftcalc.obj
 0001:000357ae       ?set@SOURCE_DATA@@QAEXNNN@Z 004367ae f   v5subs:ftcalc.obj
 0001:000357d5       ?value@FTCALC_CLASS@@QAENAAVSTRING_CLASS@@PANAAVPART_CLASS@@@Z 004367d5 f   v5subs:ftcalc.obj
 0001:00035bdd       ?value@FTCALC_CLASS@@QAENHPANAAVPART_CLASS@@@Z 00436bdd f   v5subs:ftcalc.obj
 0001:00035c17       ??4TIME_CLASS@@QAEXPBD@Z   00436c17 f   v5subs:timeclas.obj
 0001:00035ca1       ??GTIME_CLASS@@QAEJABV0@@Z 00436ca1 f   v5subs:timeclas.obj
 0001:00035cae       ??ZTIME_CLASS@@QAEXK@Z     00436cae f   v5subs:timeclas.obj
 0001:00035cc4       ?dd@TIME_CLASS@@QAEPADXZ   00436cc4 f   v5subs:timeclas.obj
 0001:00035cd1       ?get@TIME_CLASS@@QAEEAAU_SYSTEMTIME@@@Z 00436cd1 f   v5subs:timeclas.obj
 0001:00035dcc       ?get_local_time@TIME_CLASS@@QAEXXZ 00436dcc f   v5subs:timeclas.obj
 0001:00035e03       ?hhmmss@TIME_CLASS@@QAEPADXZ 00436e03 f   v5subs:timeclas.obj
 0001:00035ea8       ?mmddyyyy@TIME_CLASS@@QAEPADXZ 00436ea8 f   v5subs:timeclas.obj
 0001:00035ef1       ?set@TIME_CLASS@@QAEEABU_FILETIME@@@Z 00436ef1 f   v5subs:timeclas.obj
 0001:00035f30       ?set@TIME_CLASS@@QAEEABU_SYSTEMTIME@@@Z 00436f30 f   v5subs:timeclas.obj
 0001:00035fd1       ?set_time@TIME_CLASS@@QAEXPBD@Z 00436fd1 f   v5subs:timeclas.obj
 0001:00036026       ?system_time@TIME_CLASS@@QAEAAU_SYSTEMTIME@@XZ 00437026 f   v5subs:timeclas.obj
 0001:00036036       ?text@TIME_CLASS@@QAEPADXZ 00437036 f   v5subs:timeclas.obj
 0001:0003609d       ?get@PLOOKUP_CLASS@@QAEHXZ 0043709d f   v5subs:plookup.obj
 0001:000361d9       ?get_last_shot_name@PLOOKUP_CLASS@@QAEEAAVSTRING_CLASS@@@Z 004371d9 f   v5subs:plookup.obj
 0001:000361fc       ?get_last_shot_name_only@PLOOKUP_CLASS@@QAEEAAVSTRING_CLASS@@000@Z 004371fc f   v5subs:plookup.obj
 0001:0003622d       ?get_time@PLOOKUP_CLASS@@QAEEAAVTIME_CLASS@@@Z 0043722d f   v5subs:plookup.obj
 0001:000362ba       ?init@PLOOKUP_CLASS@@QAEEAAVSTRING_CLASS@@00@Z 004372ba f   v5subs:plookup.obj
 0001:000362d6       ??0PART_NAME_ENTRY@@QAE@XZ 004372d6 f   v5subs:structs.obj
 0001:000362f2       ??4PART_NAME_ENTRY@@QAEXABU0@@Z 004372f2 f   v5subs:structs.obj
 0001:0003631d       ??4PROFILE_NAME_ENTRY@@QAEXABU0@@Z 0043731d f   v5subs:structs.obj
 0001:00036336       ?ft_channel_number@CURVE_DATA@@QAEFXZ 00437336 f   v5subs:structs.obj
 0001:00036350       ?ft_channel_type@CURVE_DATA@@QAEGXZ 00437350 f   v5subs:structs.obj
 0001:00036371       ?is_equal@PART_NAME_ENTRY@@QAEEABVSTRING_CLASS@@00@Z 00437371 f   v5subs:structs.obj
 0001:000363aa       ?set@PROFILE_NAME_ENTRY@@QAEXABVSTRING_CLASS@@000@Z 004373aa f   v5subs:structs.obj
 0001:000363de       ??0ALARM_SUMMARY_CLASS@@QAE@XZ 004373de f   v5subs:alarmsum.obj
 0001:0003640b       ??1ALARM_SUMMARY_CLASS@@QAE@XZ 0043740b f   v5subs:alarmsum.obj
 0001:00036423       ?add@ALARM_SUMMARY_CLASS@@QAEPAUALARM_COUNTS_ENTRY@@J@Z 00437423 f   v5subs:alarmsum.obj
 0001:0003647c       ?count@ALARM_SUMMARY_CLASS@@QAEJJJ@Z 0043747c f   v5subs:alarmsum.obj
 0001:000364a1       ?empty@ALARM_SUMMARY_CLASS@@QAEXXZ 004374a1 f   v5subs:alarmsum.obj
 0001:000364d8       ?find@ALARM_SUMMARY_CLASS@@QAEPAUALARM_COUNTS_ENTRY@@J@Z 004374d8 f   v5subs:alarmsum.obj
 0001:00036507       ?get_counts@ALARM_SUMMARY_CLASS@@QAEEAAU_SYSTEMTIME@@@Z 00437507 f   v5subs:alarmsum.obj
 0001:0003655c       ?get_counts@ALARM_SUMMARY_CLASS@@QAEEAAU_SYSTEMTIME@@J@Z 0043755c f   v5subs:alarmsum.obj
 0001:000365b2       ?get_counts@ALARM_SUMMARY_CLASS@@QAEEAAU_SYSTEMTIME@@JPAD@Z 004375b2 f   v5subs:alarmsum.obj
 0001:00036805       ?get_counts@ALARM_SUMMARY_CLASS@@QAEEXZ 00437805 f   v5subs:alarmsum.obj
 0001:00036881       ?set_part@ALARM_SUMMARY_CLASS@@QAEXAAVSTRING_CLASS@@00@Z 00437881 f   v5subs:alarmsum.obj
 0001:000368a9       ??0MARKS_CLASS@@QAE@XZ     004378a9 f   v5subs:marks.obj
 0001:000368e4       ?load@MARKS_CLASS@@QAEEAAVSTRING_CLASS@@00@Z 004378e4 f   v5subs:marks.obj
 0001:00036bf5       ??0RECTANGLE_CLASS@@QAE@XZ 00437bf5 f   v5subs:rectclas.obj
 0001:00036c05       ?Moved@CUGCnrBtn@@QAEXXZ   00437c05 f   dundas:ugcnrbtn.obj
 0001:00036c05       ??1SOURCE_DATA@@QAE@XZ     00437c05 f   v5subs:ftcalc.obj
 0001:00036c05       ??1FIXED_PARAM_CLASS@@QAE@XZ 00437c05 f   tcconfig.obj
 0001:00036c05       ??1DOWNBAR_CONFIG_CLASS@@QAE@XZ 00437c05 f   dbarcfg.obj
 0001:00036c05       ??1PARAM_INDEX_CLASS@@QAE@XZ 00437c05 f   v5subs:param_index_class.obj
 0001:00036c05       ?OnSetup@CUGCtrl@@UAEXXZ   00437c05 f   dundas:ugctrl.obj
 0001:00036c05       ??1ANALOG_SENSOR@@QAE@XZ   00437c05 f   v5subs:asensor.obj
 0001:00036c05       ??1RECTANGLE_CLASS@@QAE@XZ 00437c05 f   v5subs:rectclas.obj
 0001:00036c05       ??1FONT_CLASS@@QAE@XZ      00437c05 f   v5subs:fontclas.obj
 0001:00036c06       ??4RECTANGLE_CLASS@@QAEXABUtagRECT@@@Z 00437c06 f   v5subs:rectclas.obj
 0001:00036c06       ??4RECTANGLE_CLASS@@QAEXABV0@@Z 00437c06 f   v5subs:rectclas.obj
 0001:00036c23       ?contains@RECTANGLE_CLASS@@QAEEABUtagPOINT@@@Z 00437c23 f   v5subs:rectclas.obj
 0001:00036c48       ?draw@RECTANGLE_CLASS@@QAEXPAUHDC__@@@Z 00437c48 f   v5subs:rectclas.obj
 0001:00036c8d       ?draw@RECTANGLE_CLASS@@QAEXPAUHDC__@@K@Z 00437c8d f   v5subs:rectclas.obj
 0001:00036cd2       ?fill@RECTANGLE_CLASS@@QAEXPAUHDC__@@K@Z 00437cd2 f   v5subs:rectclas.obj
 0001:00036d14       ?moveto@RECTANGLE_CLASS@@QAEXJJ@Z 00437d14 f   v5subs:rectclas.obj
 0001:00036d35       ?offset@RECTANGLE_CLASS@@QAEXJJ@Z 00437d35 f   v5subs:rectclas.obj
 0001:00036d4b       ?setsize@RECTANGLE_CLASS@@QAEXJJ@Z 00437d4b f   v5subs:rectclas.obj
 0001:00036d4b       ?setsize@RECTANGLE_CLASS@@QAEXUtagSIZE@@@Z 00437d4b f   v5subs:rectclas.obj
 0001:00036d61       ?check@TEXT_LEN_CLASS@@QAEXPAD@Z 00437d61 f   v5subs:textlen.obj
 0001:00036da4       ??1TEXT_LIST_CLASS@@QAE@XZ 00437da4 f   v5subs:textlist.obj
 0001:00036db5       ?append@TEXT_LIST_CLASS@@QAEEPADJ@Z 00437db5 f   v5subs:textlist.obj
 0001:00036e23       ?empty@TEXT_LIST_CLASS@@QAEXXZ 00437e23 f   v5subs:textlist.obj
 0001:00036e4d       ?find@TEXT_LIST_CLASS@@QAEEPADJ@Z 00437e4d f   v5subs:textlist.obj
 0001:00036e87       ?get_directory_list@TEXT_LIST_CLASS@@QAEXPBD@Z 00437e87 f   v5subs:textlist.obj
 0001:00036f3b       ?remove@TEXT_LIST_CLASS@@QAEEXZ 00437f3b f   v5subs:textlist.obj
 0001:00036f5e       ??0STRING_ARRAY_CLASS@@QAE@XZ 00437f5e f   v5subs:strarray.obj
 0001:00036f94       ??1STRING_ARRAY_CLASS@@QAE@XZ 00437f94 f   v5subs:strarray.obj
 0001:00036fd2       ??4STRING_ARRAY_CLASS@@QAEAAV0@PBD@Z 00437fd2 f   v5subs:strarray.obj
 0001:0003702c       ??YSTRING_ARRAY_CLASS@@QAEXPBD@Z 0043802c f   v5subs:strarray.obj
 0001:0003709f       ?add@STRING_ARRAY_CLASS@@QAE_NPBD@Z 0043809f f   v5subs:strarray.obj
 0001:000370d2       ?add@STRING_ARRAY_CLASS@@QAE_NXZ 004380d2 f   v5subs:strarray.obj
 0001:00037117       ?empty@STRING_ENTRY@@QAEXXZ 00438117 f   v5subs:strarray.obj
 0001:00037133       ?find@STRING_ARRAY_CLASS@@QAE_NH@Z 00438133 f   v5subs:strarray.obj
 0001:00037171       ?init@STRING_ARRAY_CLASS@@QAE_NH@Z 00438171 f   v5subs:strarray.obj
 0001:000371cb       ?join@STRING_ARRAY_CLASS@@QAE_NPBD@Z 004381cb f   v5subs:strarray.obj
 0001:00037295       ?len@STRING_ARRAY_CLASS@@QAEHXZ 00438295 f   v5subs:strarray.obj
 0001:000372ab       ?next@STRING_ARRAY_CLASS@@QAE_NXZ 004382ab f   v5subs:strarray.obj
 0001:000372cc       ?remove@STRING_ARRAY_CLASS@@QAE_NXZ 004382cc f   v5subs:strarray.obj
 0001:0003732a       ?split@STRING_ARRAY_CLASS@@QAE_NPBD@Z 0043832a f   v5subs:strarray.obj
 0001:000373c7       ?swap@STRING_ARRAY_CLASS@@QAEXHH@Z 004383c7 f   v5subs:strarray.obj
 0001:000374a2       ??0STRINGTABLE_CLASS@@QAE@XZ 004384a2 f   v5subs:stringtable.obj
 0001:000374df       ??1STRINGTABLE_CLASS@@QAE@XZ 004384df f   v5subs:stringtable.obj
 0001:000374f8       ??_ESTRINGTABLE_ENTRY@@QAEPAXI@Z 004384f8 f i v5subs:stringtable.obj
 0001:00037548       ?acquire@STRINGTABLE_ENTRY@@QAEXAAV1@@Z 00438548 f   v5subs:stringtable.obj
 0001:00037569       ?append@STRINGTABLE_CLASS@@QAE_NAAVSTRING_CLASS@@@Z 00438569 f   v5subs:stringtable.obj
 0001:000377de       ?cleanup@STRINGTABLE_CLASS@@QAEXXZ 004387de f   v5subs:stringtable.obj
 0001:000377fd       ?cleanup@STRINGTABLE_ENTRY@@QAEXXZ 004387fd f   v5subs:stringtable.obj
 0001:00037825       ?find@STRINGTABLE_CLASS@@QAEPADPAD@Z 00438825 f   v5subs:stringtable.obj
 0001:00037894       ?read@STRINGTABLE_CLASS@@QAE_NAAVSTRING_CLASS@@@Z 00438894 f   v5subs:stringtable.obj
 0001:000378e6       ??0PARAM_INDEX_CLASS@@QAE@XZ 004388e6 f   v5subs:param_index_class.obj
 0001:000378f4       ?load@PARAM_INDEX_CLASS@@QAE_NAAVSTRING_CLASS@@00@Z 004388f4 f   v5subs:param_index_class.obj
 0001:000379e4       ?parameter_number@PARAM_INDEX_CLASS@@QAEHH@Z 004389e4 f   v5subs:param_index_class.obj
 0001:000379f7       ?adjust_for_units@@YAMFMF@Z 004389f7 f   v5subs:unitadj.obj
 0001:00037a1f       ?adjust_for_units@@YANFNF@Z 00438a1f f   v5subs:unitadj.obj
 0001:00037f9b       ?dups_to_vu@@YANFF@Z       00438f9b f   v5subs:unitadj.obj
 0001:00038012       ?alphadate@@YAEPADABU_SYSTEMTIME@@@Z 00439012 f   v5subs:time.obj
 0001:0003806a       ?alphadate@@YAPADABU_SYSTEMTIME@@@Z 0043906a f   v5subs:time.obj
 0001:00038080       ?alphatime@@YAEPADABU_SYSTEMTIME@@@Z 00439080 f   v5subs:time.obj
 0001:000380d9       ?alphatime@@YAPADABU_SYSTEMTIME@@@Z 004390d9 f   v5subs:time.obj
 0001:000380ef       ?exthms@@YAEAAU_SYSTEMTIME@@PBD@Z 004390ef f   v5subs:time.obj
 0001:00038151       ?extmdy@@YAEAAU_SYSTEMTIME@@PBD@Z 00439151 f   v5subs:time.obj
 0001:000381c1       ?getday@@YAXPADF@Z         004391c1 f   v5subs:time.obj
 0001:000381ea       ?hhmm@@YAPADJJ@Z           004391ea f   v5subs:time.obj
 0001:00038229       ?init_systemtime_struct@@YAXAAU_SYSTEMTIME@@@Z 00439229 f   v5subs:time.obj
 0001:0003823d       ?is_numeric@@YAED@Z        0043923d f   v5subs:time.obj
 0001:0003825e       ?samedate@@YAEABU_SYSTEMTIME@@0@Z 0043925e f   v5subs:time.obj
 0001:00038287       ?ascii_double@@YAPADN@Z    00439287 f   v5subs:ascfloat.obj
 0001:000382a7       ?ascii_float@@YAPADM@Z     004392a7 f   v5subs:ascfloat.obj
 0001:000382bf       ?bool_to_ini@@YAXPBD00_N@Z 004392bf f   v5subs:get_ini.obj
 0001:000382f5       ?boolean_from_ini@@YAEPBD00@Z 004392f5 f   v5subs:get_ini.obj
 0001:00038315       ?boolean_to_ini@@YAXPBD00E@Z 00439315 f   v5subs:get_ini.obj
 0001:0003834b       ?get_ini_string@@YAPADPBD00@Z 0043934b f   v5subs:get_ini.obj
 0001:0003836f       ?get_long_ini_string@@YAPADPBD00@Z 0043936f f   v5subs:get_ini.obj
 0001:000383e3       ?int32_from_ini@@YAJPBD00@Z 004393e3 f   v5subs:get_ini.obj
 0001:000383fe       ?int32_to_ini@@YAXPBD00J@Z 004393fe f   v5subs:get_ini.obj
 0001:00038448       ?put_ini_string@@YAXPBD000@Z 00439448 f   v5subs:get_ini.obj
 0001:000384bb       ?ul_from_ini@@YAKPBD00@Z   004394bb f   v5subs:get_ini.obj
 0001:000384d6       ?ul_to_ini@@YAXPBD00K@Z    004394d6 f   v5subs:get_ini.obj
 0001:00038520       ??0EVENT_ENTRY@@QAE@XZ     00439520 f i v5subs:client.obj
 0001:00038537       ??_GEVENT_ENTRY@@QAEPAXI@Z 00439537 f i v5subs:client.obj
 0001:0003855d       ?client_dde_shutdown@@YAXXZ 0043955d f   v5subs:client.obj
 0001:00038619       ?client_dde_startup@@YAXPAUHWND__@@@Z 00439619 f   v5subs:client.obj
 0001:00038627       ?client_dde_startup@@YAXXZ 00439627 f   v5subs:client.obj
 0001:000386bb       ?connect_to_server@@YAPAUHCONV__@@PAD@Z 004396bb f   v5subs:client.obj
 0001:0003871e       ?connect_to_server@@YAXXZ  0043971e f   v5subs:client.obj
 0001:00038786       ?dde_callback@@YGPAUHDDEDATA__@@IIPAUHCONV__@@PAUHSZ__@@1PAU1@KK@Z 00439786 f   v5subs:client.obj
 0001:00038884       ?find_conversation@@YAPAUEVENT_ENTRY@@PAUHCONV__@@@Z 00439884 f   v5subs:client.obj
 0001:0003891f       ?get_current_password_level@@YAXXZ 0043991f f   v5subs:client.obj
 0001:00038964       ?get_dde_data@@YAEAAVSTRING_CLASS@@PAUHDDEDATA__@@@Z 00439964 f   v5subs:client.obj
 0001:000389c8       ?hot_links@@YAXPAUEVENT_ENTRY@@I@Z 004399c8 f   v5subs:client.obj
 0001:00038a01       ?one_hot_link@@YAXPAUHCONV__@@FI@Z 00439a01 f   v5subs:client.obj
 0001:00038a68       ?poke_data@@YAXPAD00@Z     00439a68 f   v5subs:client.obj
 0001:00038b5c       ?register_for_event@@YAXPADFP6AX0FPAUHDDEDATA__@@@Z@Z 00439b5c f   v5subs:client.obj
 0001:00038c2f       ?unregister_for_event@@YAXPADF@Z 00439c2f f   v5subs:client.obj
 0001:00038cd3       ?dcurve_shutdown@@YAXXZ    00439cd3 f   v5subs:dcurve.obj
 0001:00038cd8       ?dcurve_startup@@YAEXZ     00439cd8 f   v5subs:dcurve.obj
 0001:00038cdd       ?get_dcurve_coefficients@@YAEAAM0F@Z 00439cdd f   v5subs:dcurve.obj
 0001:00038d49       ?get_dcurve_coefficients@@YAEAAN0H@Z 00439d49 f   v5subs:dcurve.obj
 0001:00038ee3       ?double_to_tchar@@YA_NPADNH@Z 00439ee3 f   v5subs:dtotchar.obj
 0001:00038fea       ?rounded_double_to_tchar@@YA_NPADN@Z 00439fea f   v5subs:dtotchar.obj
 0001:0003904c       ?append_backslash_to_path@@YAXPAD@Z 0043a04c f   v5subs:path.obj
 0001:00039075       ?append_filename_to_path@@YAXPADPBD@Z 0043a075 f   v5subs:path.obj
 0001:0003908e       ?catpath@@YAPADPADPBD@Z    0043a08e f   v5subs:path.obj
 0001:000390d2       ?create_directory@@YAEPAD@Z 0043a0d2 f   v5subs:path.obj
 0001:000391e4       ?dir_from_command_line@@YAEPAD@Z 0043a1e4 f   v5subs:path.obj
 0001:0003920c       ?dir_from_filename@@YAEPAD@Z 0043a20c f   v5subs:path.obj
 0001:0003925b       ?execute@@YAEPAD@Z         0043a25b f   v5subs:path.obj
 0001:00039287       ?remove_backslash_from_path@@YAXPAD@Z 0043a287 f   v5subs:path.obj
 0001:000392b1       ?root_from_path@@YAEAAVSTRING_CLASS@@@Z 0043a2b1 f   v5subs:path.obj
 0001:00039338       ?get_time_class_from_db@@YAEAAVTIME_CLASS@@AAVDB_TABLE@@G@Z 0043a338 f   v5subs:get_tc.obj
 0001:000393a0       ?fix_dde_name@@YAXPAD@Z    0043a3a0 f   v5subs:fix.obj
 0001:000393d0       ?fix_shotname@@YAXAAVSTRING_CLASS@@@Z 0043a3d0 f   v5subs:fix.obj
 0001:0003943e       ?fix_shotname@@YAXAAVSTRING_CLASS@@H@Z 0043a43e f   v5subs:fix.obj
 0001:00039473       ?free_shotsave_semaphore@@YAXXZ 0043a473 f   v5subs:semaphor.obj
 0001:0003947d       ?get_shotsave_semaphore@@YAEAAVSTRING_CLASS@@0@Z 0043a47d f   v5subs:semaphor.obj
 0001:00039509       ?waitfor_shotsave_semaphor@@YAEAAVSTRING_CLASS@@0@Z 0043a509 f   v5subs:semaphor.obj
 0001:000395b4       ?fixed_string@@YAPADNJJ@Z  0043a5b4 f   v5subs:ftoasc.obj
 0001:000396d7       ?ftoasc@@YAXPADM@Z         0043a6d7 f   v5subs:ftoasc.obj
 0001:000397ef       ?copy_unicode_to_char@@YAXPADPA_W@Z 0043a7ef f   v5subs:gexedir.obj
 0001:0003980d       ?exe_directory@@YAPBDXZ    0043a80d f   v5subs:gexedir.obj
 0001:00039833       ?get_exe_directory@@YAEPAD@Z 0043a833 f   v5subs:gexedir.obj
 0001:00039903       ?insalph@@YAXPADJJDJ@Z     0043a903 f   v5subs:insalph.obj
 0001:00039954       ?insalph@@YAXPADMJD@Z      0043a954 f   v5subs:insalph.obj
 0001:000399aa       ?machine_computer_name@@YAEAAVSTRING_CLASS@@0@Z 0043a9aa f   v5subs:machcomp.obj
 0001:00039a09       ?machine_exists@@YAEAAVSTRING_CLASS@@0@Z 0043aa09 f   v5subs:mexists.obj
 0001:00039a4f       ?category_name@@YAPADPAD@Z 0043aa4f f   v5subs:downsubs.obj
 0001:00039b10       ?make_downtime_event_string@@YAPADAAVSTRING_CLASS@@0AAU_SYSTEMTIME@@PAD22@Z 0043ab10 f   v5subs:downsubs.obj
 0001:00039c26       ?subcategory_name@@YAPADPAD0@Z 0043ac26 f   v5subs:downsubs.obj
 0001:00039d51       ?maxfloat@@YAXAAMM@Z       0043ad51 f   v5subs:maximize.obj
 0001:00039d65       ?maxint@@YAXAAHH@Z         0043ad65 f   v5subs:maximize.obj
 0001:00039d65       ?maxint32@@YAXAAJJ@Z       0043ad65 f   v5subs:maximize.obj
 0001:00039d74       ?maxunsigned@@YAXAAII@Z    0043ad74 f   v5subs:maximize.obj
 0001:00039d83       ?minfloat@@YAXAAMM@Z       0043ad83 f   v5subs:maximize.obj
 0001:00039d9b       ?minint@@YAXAAHH@Z         0043ad9b f   v5subs:maximize.obj
 0001:00039daa       ?double_are_equal@@YA_NNN@Z 0043adaa f   v5subs:zero.obj
 0001:00039dc5       ?is_float_zero@@YAEM@Z     0043adc5 f   v5subs:zero.obj
 0001:00039df5       ?is_zero@@YA_NN@Z          0043adf5 f   v5subs:zero.obj
 0001:00039e19       ?not_float_zero@@YAEM@Z    0043ae19 f   v5subs:zero.obj
 0001:00039e49       ?not_zero@@YA_NN@Z         0043ae49 f   v5subs:zero.obj
 0001:00039e6c       ?pixel_equation@@YAXAAM0JJMM@Z 0043ae6c f   v5subs:plotsubs.obj
 0001:00039f03       ?plot_data@@YAXPAUHDC__@@AAUtagRECT@@MMMMPAM2J@Z 0043af03 f   v5subs:plotsubs.obj
 0001:0003a083       ?running_average@@YAMPAMJJ@Z 0043b083 f   v5subs:plotsubs.obj
 0001:0003a12e       ?set_smooth@@YAXJM@Z       0043b12e f   v5subs:plotsubs.obj
 0001:0003a16b       ?ascii_to_bool@@YA_NPAD@Z  0043b16b f   v5subs:misc.obj
 0001:0003a187       ?mask_from_wire@@YAII@Z    0043b187 f   v5subs:misc.obj
 0001:0003a196       ?round@@YANNN@Z            0043b196 f   v5subs:misc.obj
 0001:0003a1da       ?unknown@@YAEPAD@Z         0043b1da f   v5subs:misc.obj
 0001:0003a23c       ?dow_from_string@@YAFPAD@Z 0043b23c f   v5subs:shift.obj
 0001:0003a28b       ?get_shift_number_and_date@@YAXPAFPAU_SYSTEMTIME@@ABU1@@Z 0043b28b f   v5subs:shift.obj
 0001:0003a2fb       ?minutes_past_sunday@@YAFABU_SYSTEMTIME@@@Z 0043b2fb f   v5subs:shift.obj
 0001:0003a44c       ?shift_number@@YAFPAFABU_SYSTEMTIME@@@Z 0043b44c f   v5subs:shift.obj
 0001:0003a4a1       ?shifts_shutdown@@YAXXZ    0043b4a1 f   v5subs:shift.obj
 0001:0003a4b2       ?shifts_startup@@YAEXZ     0043b4b2 f   v5subs:shift.obj
 0001:0003a664       ?start_of_shift@@YAAAU_SYSTEMTIME@@ABU1@@Z 0043b664 f   v5subs:shift.obj
 0001:0003a6ca       ?hextoul@@YAKPBD@Z         0043b6ca f   v5subs:hex.obj
 0001:0003a73c       ?is_hex_char@@YAED@Z       0043b73c f   v5subs:hex.obj
 0001:0003a756       ?ultohex@@YAPADK@Z         0043b756 f   v5subs:hex.obj
 0001:0003a79b       ?units_name@@YAPADF@Z      0043b79b f   v5subs:units.obj
 0001:0003a7c2       ?units_shutdown@@YAXXZ     0043b7c2 f   v5subs:units.obj
 0001:0003a7da       ?units_startup@@YAEXZ      0043b7da f   v5subs:units.obj
 0001:0003a92b       ?write_shotparm_log@@YAXAAVSTRING_CLASS@@0PAD_NVTIME_CLASS@@31@Z 0043b92b f   v5subs:write_shotparm_log.obj
 0001:0003aaaf       ?average_character_width@@YAJPAUHDC__@@@Z 0043baaf f   v5subs:winsubs.obj
 0001:0003aade       ?character_height@@YAJPAUHDC__@@@Z 0043bade f   v5subs:winsubs.obj
 0001:0003ab0d       ?create_font@@YAPAUHFONT__@@PAUHDC__@@JJPAD@Z 0043bb0d f   v5subs:winsubs.obj
 0001:0003aba3       ?desktop_client_rect@@YA?AUtagRECT@@XZ 0043bba3 f   v5subs:winsubs.obj
 0001:0003abc4       ?draw_rectangle@@YAXPAUHDC__@@AAUtagRECT@@K@Z 0043bbc4 f   v5subs:winsubs.obj
 0001:0003ac02       ?eb_select_all@@YAXPAUHWND__@@@Z 0043bc02 f   v5subs:winsubs.obj
 0001:0003ac16       ?fill_rectangle@@YAXPAUHDC__@@AAUtagRECT@@K@Z 0043bc16 f   v5subs:winsubs.obj
 0001:0003ac54       ?get_text@@YAEPADPAUHWND__@@H@Z 0043bc54 f   v5subs:winsubs.obj
 0001:0003ac7b       ?get_text@@YAEPADPAUHWND__@@HH@Z 0043bc7b f   v5subs:winsubs.obj
 0001:0003ac9b       ?is_a_listbox@@YAEPAUHWND__@@@Z 0043bc9b f   v5subs:winsubs.obj
 0001:0003ad05       ?is_checked@@YAEPAUHWND__@@H@Z 0043bd05 f   v5subs:winsubs.obj
 0001:0003ad1b       ?is_previous_instance@@YAEPAD0@Z 0043bd1b f   v5subs:winsubs.obj
 0001:0003ad48       ?limit_text@@YAXPAUHWND__@@H@Z 0043bd48 f   v5subs:winsubs.obj
 0001:0003ad5e       ?limit_text@@YAXPAUHWND__@@HH@Z 0043bd5e f   v5subs:winsubs.obj
 0001:0003ad79       ?pixel_width@@YAJPAUHDC__@@PAD@Z 0043bd79 f   v5subs:winsubs.obj
 0001:0003ad9f       ?pixel_width@@YAJPAUHDC__@@PADJ@Z 0043bd9f f   v5subs:winsubs.obj
 0001:0003adbe       ?resource_message_box@@YAHPAUHINSTANCE__@@III@Z 0043bdbe f   v5subs:winsubs.obj
 0001:0003add9       ?resource_message_box@@YAHPAUHWND__@@PAUHINSTANCE__@@III@Z 0043bdd9 f   v5subs:winsubs.obj
 0001:0003ae72       ?resource_message_box@@YAXPAUHINSTANCE__@@II@Z 0043be72 f   v5subs:winsubs.obj
 0001:0003ae8e       ?resource_string@@YAPADPAUHINSTANCE__@@I@Z 0043be8e f   v5subs:winsubs.obj
 0001:0003aebc       ?set_checkbox@@YAXPAUHWND__@@E@Z 0043bebc f   v5subs:winsubs.obj
 0001:0003aed8       ?set_checkbox@@YAXPAUHWND__@@HE@Z 0043bed8 f   v5subs:winsubs.obj
 0001:0003aef3       ?set_listbox_tabs_from_title_positions@@YAXPAUHWND__@@IPAHH@Z 0043bef3 f   v5subs:winsubs.obj
 0001:0003b00b       ?set_text@@YAEPAUHWND__@@HPBD@Z 0043c00b f   v5subs:winsubs.obj
 0001:0003b026       ?set_text@@YAEPAUHWND__@@PBD@Z 0043c026 f   v5subs:winsubs.obj
 0001:0003b04f       ?shrinkwrap@@YAXPAUHWND__@@0@Z 0043c04f f   v5subs:winsubs.obj
 0001:0003b0e5       ?hourglass_cursor@@YAXXZ   0043c0e5 f   v5subs:hourglas.obj
 0001:0003b112       ?restore_cursor@@YAXXZ     0043c112 f   v5subs:hourglas.obj
 0001:0003b135       ?center_temp_message@@YAXXZ 0043c135 f   v5subs:temp_message.obj
 0001:0003b2fe       ?register_temp_message@@YAXXZ 0043c2fe f   v5subs:temp_message.obj
 0001:0003b364       ?temp_message@@YAXPAD@Z    0043c364 f   v5subs:temp_message.obj
 0001:0003b375       ?temp_message@@YAXPADH@Z   0043c375 f   v5subs:temp_message.obj
 0001:0003b42b       ?temp_message_proc@@YGJPAUHWND__@@IIJ@Z 0043c42b f   v5subs:temp_message.obj
 0001:0003b4f2       ??1FTII_VAR_ARRAY@@UAE@XZ  0043c4f2 f   v5subs:ftiiclas.obj
 0001:0003b508       ??4FTII_VAR@@UAEXN@Z       0043c508 f   v5subs:ftiiclas.obj
 0001:0003b55e       ??4FTII_VAR@@UAEXPBD@Z     0043c55e f   v5subs:ftiiclas.obj
 0001:0003b5d2       ??4FTII_VAR_ARRAY@@UAEXABVFTII_VAR@@@Z 0043c5d2 f   v5subs:ftiiclas.obj
 0001:0003b5e4       ??4FTII_VAR_ARRAY@@UAEXH@Z 0043c5e4 f   v5subs:ftiiclas.obj
 0001:0003b5e9       ??4FTII_VAR_ARRAY@@UAEXI@Z 0043c5e9 f   v5subs:ftiiclas.obj
 0001:0003b60a       ??4FTII_VAR_ARRAY@@UAEXN@Z 0043c60a f   v5subs:ftiiclas.obj
 0001:0003b636       ??_EFTII_VAR@@UAEPAXI@Z    0043c636 f i v5subs:ftiiclas.obj
 0001:0003b686       ?append_value@FTII_VAR@@QAE_NAAVSTRING_CLASS@@@Z 0043c686 f   v5subs:ftiiclas.obj
 0001:0003b759       ?cleanup@FTII_VAR_ARRAY@@QAEXXZ 0043c759 f   v5subs:ftiiclas.obj
 0001:0003b78c       ?get@FTII_VAR@@UAE_NPBD@Z  0043c78c f   v5subs:ftiiclas.obj
 0001:0003b7c7       ?get@FTII_VAR_ARRAY@@QAE_NAAVSTRING_CLASS@@@Z 0043c7c7 f   v5subs:ftiiclas.obj
 0001:0003b8b8       ?makeline@FTII_VAR@@QAE_NAAVSTRING_CLASS@@@Z 0043c8b8 f   v5subs:ftiiclas.obj
 0001:0003b904       ?myfindchar@@YAPBDDPBD@Z   0043c904 f   v5subs:ftiiclas.obj
 0001:0003b904       ?myfindchar@@YAPADDPAD@Z   0043c904 f   v5subs:ftiiclas.obj
 0001:0003b92c       ?put@FTII_VAR@@UAE_NAAVSTRING_CLASS@@@Z 0043c92c f   v5subs:ftiiclas.obj
 0001:0003b9ca       ?put@FTII_VAR_ARRAY@@UAE_NAAVSTRING_CLASS@@@Z 0043c9ca f   v5subs:ftiiclas.obj
 0001:0003baab       ?set@FTII_VAR@@UAE_NHI@Z   0043caab f   v5subs:ftiiclas.obj
 0001:0003bac9       ?set@FTII_VAR@@UAE_NHN@Z   0043cac9 f   v5subs:ftiiclas.obj
 0001:0003bb30       ?set@FTII_VAR_ARRAY@@UAE_NHI@Z 0043cb30 f   v5subs:ftiiclas.obj
 0001:0003bb63       ?update@FTII_VAR_ARRAY@@QAE_NHI@Z 0043cb63 f   v5subs:ftiiclas.obj
 0001:0003bbc7       ?upsize@FTII_VAR_ARRAY@@QAE_NH@Z 0043cbc7 f   v5subs:ftiiclas.obj
 0001:0003bcd1       ??0FTII_ARRAY_DATA@@QAE@XZ 0043ccd1 f   v5subs:ftii_shot_data.obj
 0001:0003bd14       ??0FTII_FILE_DATA@@QAE@XZ  0043cd14 f   v5subs:ftii_shot_data.obj
 0001:0003bdb5       ??0FTII_PROFILE@@QAE@XZ    0043cdb5 f   v5subs:ftii_shot_data.obj
 0001:0003be01       ??1FTII_ARRAY_DATA@@UAE@XZ 0043ce01 f   v5subs:ftii_shot_data.obj
 0001:0003be0c       ??1FTII_FILE_DATA@@QAE@XZ  0043ce0c f   v5subs:ftii_shot_data.obj
 0001:0003be11       ??1FTII_PROFILE@@UAE@XZ    0043ce11 f   v5subs:ftii_shot_data.obj
 0001:0003be2d       ??4FTII_ARRAY_DATA@@QAEXABVFTII_FILE_DATA@@@Z 0043ce2d f   v5subs:ftii_shot_data.obj
 0001:0003c5c3       ??4FTII_PROFILE@@QAEXABVFTII_FILE_DATA@@@Z 0043d5c3 f   v5subs:ftii_shot_data.obj
 0001:0003c912       ??_ETEXT_PARAMETER_ENTRY@@QAEPAXI@Z 0043d912 f i v5subs:ftii_shot_data.obj
 0001:0003c912       ??_EOP_NUMBER_INDEX@?1??save_changes@@YAEXZ@QAEPAXI@Z 0043d912 f i editop.obj
 0001:0003c96b       ??_GFTII_ARRAY_DATA@@UAEPAXI@Z 0043d96b f i v5subs:ftii_shot_data.obj
 0001:0003c96b       ??_EFTII_ARRAY_DATA@@UAEPAXI@Z 0043d96b f i v5subs:ftii_shot_data.obj
 0001:0003c98d       ??_EFTII_PROFILE@@UAEPAXI@Z 0043d98d f i v5subs:ftii_shot_data.obj
 0001:0003c98d       ??_GFTII_PROFILE@@UAEPAXI@Z 0043d98d f i v5subs:ftii_shot_data.obj
 0001:0003c9a9       ?clear@FTII_ARRAY_DATA@@QAEXXZ 0043d9a9 f   v5subs:ftii_shot_data.obj
 0001:0003ca43       ?clear@FTII_FILE_DATA@@QAEXXZ 0043da43 f   v5subs:ftii_shot_data.obj
 0001:0003caba       ?clear@FTII_PROFILE@@QAEXXZ 0043daba f   v5subs:ftii_shot_data.obj
 0001:0003cb4b       ?curve_index@FTII_PROFILE@@QAEHH@Z 0043db4b f   v5subs:ftii_shot_data.obj
 0001:0003cb76       ?get@FTII_FILE_DATA@@QAEEAAVSTRING_CLASS@@@Z 0043db76 f   v5subs:ftii_shot_data.obj
 0001:0003ceaf       ?get@FTII_PROFILE@@QAEEAAVSTRING_CLASS@@@Z 0043deaf f   v5subs:ftii_shot_data.obj
 0001:0003d0e2       ?index_from_position@FTII_ARRAY_DATA@@QAEHN@Z 0043e0e2 f   v5subs:ftii_shot_data.obj
 0001:0003d129       ?index_from_time@FTII_ARRAY_DATA@@QAEHN@Z 0043e129 f   v5subs:ftii_shot_data.obj
 0001:0003d1ab       ?interpolated_ms@FTII_PROFILE@@QAENN@Z 0043e1ab f   v5subs:ftii_shot_data.obj
 0001:0003d206       ?interpolated_postion_from_velocity@FTII_PROFILE@@QAENHHH@Z 0043e206 f   v5subs:ftii_shot_data.obj
 0001:0003d269       ?interpolated_timer_count@FTII_ARRAY_DATA@@QAEIN@Z 0043e269 f   v5subs:ftii_shot_data.obj
 0001:0003d308       ?interpolated_velocity@FTII_ARRAY_DATA@@QAENN@Z 0043e308 f   v5subs:ftii_shot_data.obj
 0001:0003d45d       ?max_average_velocity@FTII_ARRAY_DATA@@QAENAAHHHHN@Z 0043e45d f   v5subs:ftii_shot_data.obj
 0001:0003d56e       ?ms@FTII_PROFILE@@QAENH@Z  0043e56e f   v5subs:ftii_shot_data.obj
 0001:0003d5c1       ?ms_between_positions@FTII_PROFILE@@QAENNN@Z 0043e5c1 f   v5subs:ftii_shot_data.obj
 0001:0003d63f       ?read@TEXT_PARAMETER_ENTRY@@QAEEAAVFILE_CLASS@@@Z 0043e63f f   v5subs:ftii_shot_data.obj
 0001:0003d699       ?velocity_between_positions@FTII_ARRAY_DATA@@QAENNN@Z 0043e699 f   v5subs:ftii_shot_data.obj
 0001:0003d753       ?write_csv@FTII_ARRAY_DATA@@QAEXPAD@Z 0043e753 f   v5subs:ftii_shot_data.obj
 0001:0003d917       ?write_raw_positions_csv@FTII_FILE_DATA@@QAEEAAVSTRING_CLASS@@@Z 0043e917 f   v5subs:ftii_shot_data.obj
 0001:0003dd02       ??_EWINDOW_CLASS@@UAEPAXI@Z 0043ed02 f i v5subs:wclass.obj
 0001:0003dd50       ?destroy@WINDOW_CLASS@@QAEXXZ 0043ed50 f   v5subs:wclass.obj
 0001:0003dd68       ?enable@WINDOW_CLASS@@QAEXE@Z 0043ed68 f   v5subs:wclass.obj
 0001:0003dd84       ?get_move_rect@WINDOW_CLASS@@QAEHAAUtagRECT@@@Z 0043ed84 f   v5subs:wclass.obj
 0001:0003de18       ?getrect@WINDOW_CLASS@@QAEHAAUtagRECT@@@Z 0043ee18 f   v5subs:wclass.obj
 0001:0003de39       ?move@WINDOW_CLASS@@QAEXAAUtagRECT@@@Z 0043ee39 f   v5subs:wclass.obj
 0001:0003de62       ?move@WINDOW_CLASS@@QAEXHHH@Z 0043ee62 f   v5subs:wclass.obj
 0001:0003deb3       ?move@WINDOW_CLASS@@QAEXHHHHH@Z 0043eeb3 f   v5subs:wclass.obj
 0001:0003ded8       ?post@WINDOW_CLASS@@QAEXI@Z 0043eed8 f   v5subs:wclass.obj
 0001:0003def2       ?post@WINDOW_CLASS@@QAEXIIJ@Z 0043eef2 f   v5subs:wclass.obj
 0001:0003df10       ?refresh@WINDOW_CLASS@@QAEXXZ 0043ef10 f   v5subs:wclass.obj
 0001:0003df2f       ?set_title@WINDOW_CLASS@@QAEXPAD@Z 0043ef2f f   v5subs:wclass.obj
 0001:0003df50       ?show@WINDOW_CLASS@@QAEXH@Z 0043ef50 f   v5subs:wclass.obj
 0001:0003df66       ?shrinkwrap@WINDOW_CLASS@@QAEXPAUHWND__@@@Z 0043ef66 f   v5subs:wclass.obj
 0001:0003df77       ?style@WINDOW_CLASS@@QAEJXZ 0043ef77 f   v5subs:wclass.obj
 0001:0003df8a       ?add@WORKER_LIST_CLASS@@QAEEPAD00@Z 0043ef8a f   v5subs:workclas.obj
 0001:0003e010       ?cleanup@WORKER_LIST_CLASS@@QAEXXZ 0043f010 f   v5subs:workclas.obj
 0001:0003e02d       ?full_name@WORKER_LIST_CLASS@@QAEPADPAD@Z 0043f02d f   v5subs:workclas.obj
 0001:0003e08c       ?load@WORKER_LIST_CLASS@@QAEEXZ 0043f08c f   v5subs:workclas.obj
 0001:0003e14f       ??0MENU_CONTROL_ENTRY@@QAE@XZ 0043f14f f   v5subs:menuctrl.obj
 0001:0003e200       ??0MENU_ITEM_ENTRY@@QAE@XZ 0043f200 f   v5subs:menuctrl.obj
 0001:0003e250       ??1MENU_CONTROL_ENTRY@@QAE@XZ 0043f250 f   v5subs:menuctrl.obj
 0001:0003e2ca       ??1MENU_ITEM_ENTRY@@QAE@XZ 0043f2ca f   v5subs:menuctrl.obj
 0001:0003e2f4       ??_EMENU_ITEM_ENTRY@@QAEPAXI@Z 0043f2f4 f i v5subs:menuctrl.obj
 0001:0003e349       ?create_windows@MENU_CONTROL_ENTRY@@QAEEPADPAUHWND__@@@Z 0043f349 f   v5subs:menuctrl.obj
 0001:0003e45a       ?destroy_windows@MENU_CONTROL_ENTRY@@QAEXXZ 0043f45a f   v5subs:menuctrl.obj
 0001:0003e49a       ?do_left_button_down@MENU_CONTROL_ENTRY@@QAEXIJ@Z 0043f49a f   v5subs:menuctrl.obj
 0001:0003e5bb       ?do_left_button_up@MENU_CONTROL_ENTRY@@QAEXIJ@Z 0043f5bb f   v5subs:menuctrl.obj
 0001:0003e66b       ?do_mousemove@MENU_CONTROL_ENTRY@@QAEXPAUHWND__@@IJ@Z 0043f66b f   v5subs:menuctrl.obj
 0001:0003e989       ?draw@MENU_ITEM_ENTRY@@QAEXPAUHDC__@@@Z 0043f989 f   v5subs:menuctrl.obj
 0001:0003ea73       ?draw_rect@MENU_ITEM_ENTRY@@QAEXPAUHDC__@@@Z 0043fa73 f   v5subs:menuctrl.obj
 0001:0003eae4       ?draw_submenu_item@MENU_ITEM_ENTRY@@QAEXPAUHDC__@@I@Z 0043fae4 f   v5subs:menuctrl.obj
 0001:0003eba5       ?excel_to_csv@@YAXPAD@Z    0043fba5 f   v5subs:menuctrl.obj
 0001:0003ebd9       ?find@MENU_CONTROL_ENTRY@@QAEPAVMENU_ITEM_ENTRY@@I@Z 0043fbd9 f   v5subs:menuctrl.obj
 0001:0003ec32       ?get@MENU_ITEM_ENTRY@@QAEEPAD@Z 0043fc32 f   v5subs:menuctrl.obj
 0001:0003ed90       ?menu_control_proc@@YGJPAUHWND__@@IIJ@Z 0043fd90 f   v5subs:menuctrl.obj
 0001:0003ee3e       ?paint_me@MENU_CONTROL_ENTRY@@QAEXPAUHWND__@@@Z 0043fe3e f   v5subs:menuctrl.obj
 0001:0003eef9       ?paint_submenu@MENU_CONTROL_ENTRY@@QAEXPAUHWND__@@@Z 0043fef9 f   v5subs:menuctrl.obj
 0001:0003efda       ?read@MENU_CONTROL_ENTRY@@QAEEAAVNAME_CLASS@@H@Z 0043ffda f   v5subs:menuctrl.obj
 0001:0003f619       ?register_window@MENU_CONTROL_ENTRY@@SAXXZ 00440619 f   v5subs:menuctrl.obj
 0001:0003f6cc       ?release_dc@WINDOW_CLASS@@QAEHPAUHDC__@@@Z 004406cc f i v5subs:menuctrl.obj
 0001:0003f6e6       ?resize@MENU_CONTROL_ENTRY@@QAEEH@Z 004406e6 f   v5subs:menuctrl.obj
 0001:0003f77a       ?resize@MENU_CONTROL_ENTRY@@QAEEXZ 0044077a f   v5subs:menuctrl.obj
 0001:0003f782       ?set_checkmark@MENU_CONTROL_ENTRY@@QAEEIE@Z 00440782 f   v5subs:menuctrl.obj
 0001:0003f7ab       ?set_gray@MENU_CONTROL_ENTRY@@QAEEIE@Z 004407ab f   v5subs:menuctrl.obj
 0001:0003f7d4       ?show_submenu@MENU_CONTROL_ENTRY@@QAEXXZ 004407d4 f   v5subs:menuctrl.obj
 0001:0003f892       ?sub_menu_control_proc@@YGJPAUHWND__@@IIJ@Z 00440892 f   v5subs:menuctrl.obj
 0001:0003f8cf       ??0POPUP_CONTROL_ENTRY@@QAE@XZ 004408cf f   v5subs:popctrl.obj
 0001:0003f93b       ??0POPUP_ITEM_ENTRY@@QAE@XZ 0044093b f   v5subs:popctrl.obj
 0001:0003f98d       ??1POPUP_CONTROL_ENTRY@@QAE@XZ 0044098d f   v5subs:popctrl.obj
 0001:0003f9de       ??1POPUP_ITEM_ENTRY@@QAE@XZ 004409de f   v5subs:popctrl.obj
 0001:0003f9f2       ??4POPUP_ITEM_ENTRY@@QAEAAV0@ABV0@@Z 004409f2 f i v5subs:popctrl.obj
 0001:0003fa42       ??_EPOPUP_ITEM_ENTRY@@QAEPAXI@Z 00440a42 f i v5subs:popctrl.obj
 0001:0003fa97       ?add@POPUP_CONTROL_ENTRY@@QAEEPADI@Z 00440a97 f   v5subs:popctrl.obj
 0001:0003fb5e       ?calculate_rectangles@POPUP_CONTROL_ENTRY@@QAEEXZ 00440b5e f   v5subs:popctrl.obj
 0001:0003fcca       ?create_windows@POPUP_CONTROL_ENTRY@@QAEEPADPAUHWND__@@@Z 00440cca f   v5subs:popctrl.obj
 0001:0003fd6c       ?destroy_windows@POPUP_CONTROL_ENTRY@@QAEXXZ 00440d6c f   v5subs:popctrl.obj
 0001:0003fd9a       ?do_left_button_up@POPUP_CONTROL_ENTRY@@QAEXIJ@Z 00440d9a f   v5subs:popctrl.obj
 0001:0003fe05       ?do_mousemove@POPUP_CONTROL_ENTRY@@QAEXPAUHWND__@@IJ@Z 00440e05 f   v5subs:popctrl.obj
 0001:0003fee0       ?draw@POPUP_ITEM_ENTRY@@QAEXPAUHDC__@@AAVPOPUP_CONTROL_ENTRY@@@Z 00440ee0 f   v5subs:popctrl.obj
 0001:0003ffe1       ?draw_rect@POPUP_ITEM_ENTRY@@QAEXPAUHDC__@@@Z 00440fe1 f   v5subs:popctrl.obj
 0001:00040052       ?empty@POPUP_CONTROL_ENTRY@@QAEXXZ 00441052 f   v5subs:popctrl.obj
 0001:0004006f       ?paint_me@POPUP_CONTROL_ENTRY@@QAEXPAUHWND__@@@Z 0044106f f   v5subs:popctrl.obj
 0001:00040128       ?popup_control_proc@@YGJPAUHWND__@@IIJ@Z 00441128 f   v5subs:popctrl.obj
 0001:000401cf       ?register_window@POPUP_CONTROL_ENTRY@@SAXXZ 004411cf f   v5subs:popctrl.obj
 0001:00040231       ?set_font@POPUP_CONTROL_ENTRY@@QAEEAAVFONT_CLASS@@@Z 00441231 f   v5subs:popctrl.obj
 0001:000402aa       ?show_menu@POPUP_CONTROL_ENTRY@@QAEXHH@Z 004412aa f   v5subs:popctrl.obj
 0001:000402e6       ?set_setup_strings@@YAXPAUHWND__@@PAURESOURCE_TEXT_ENTRY@@HPAIHPAD@Z 004412e6 f   v5subs:statics.obj
 0001:000403b4       ?set_statics_font@@YAXAAVWINDOW_CLASS@@@Z 004413b4 f   v5subs:statics.obj
 0001:000403d1       ?statics_shutdown@@YAXXZ   004413d1 f   v5subs:statics.obj
 0001:000403ee       ?statics_startup@@YAXXZ    004413ee f   v5subs:statics.obj
 0001:00040403       ?read_parameters_from_parmlist@@YAJAAVMULTISTRING_CLASS@@AAVSTRING_CLASS@@@Z 00441403 f   v5subs:profiles.obj
 0001:00040554       ?fill_parts_and_counts_listbox@@YAXPAUHWND__@@HAAVSTRING_CLASS@@1D@Z 00441554 f   v5subs:fillpart.obj
 0001:00040680       ?fill_parts_and_shot_count_listbox@@YAXPAUHWND__@@HAAVSTRING_CLASS@@1@Z 00441680 f   v5subs:fillpart.obj
 0001:000406a3       ?make_part_and_counts_string@@YAEAAVSTRING_CLASS@@000DE@Z 004416a3 f   v5subs:fillpart.obj
 0001:000408c1       ??0BIT_CLASS@@QAE@XZ       004418c1 f   v5subs:bitclass.obj
 0001:000408ce       ??1BIT_CLASS@@QAE@XZ       004418ce f   v5subs:bitclass.obj
 0001:000408d3       ??ABIT_CLASS@@QAE_NJ@Z     004418d3 f   v5subs:bitclass.obj
 0001:0004091d       ?cleanup@BIT_CLASS@@AAEXXZ 0044191d f   v5subs:bitclass.obj
 0001:00040939       ?clearall@BIT_CLASS@@QAEXXZ 00441939 f   v5subs:bitclass.obj
 0001:00040952       ?init@BIT_CLASS@@QAE_NJPAI@Z 00441952 f   v5subs:bitclass.obj
 0001:000409e2       ?set@BIT_CLASS@@QAEXJ@Z    004419e2 f   v5subs:bitclass.obj
 0001:00040a1e       ??0SHOT_NAME_CLASS@@QAE@XZ 00441a1e f   v5subs:shot_name.obj
 0001:00040a1e       ??0PLOOKUP_CLASS@@QAE@XZ   00441a1e f   v5subs:plookup.obj
 0001:00040a32       ??0SHOT_NAME_PARTS_CLASS@@QAE@XZ 00441a32 f   v5subs:shot_name.obj
 0001:00040a56       ??1PLOOKUP_CLASS@@QAE@XZ   00441a56 f   v5subs:plookup.obj
 0001:00040a56       ??1SHOT_NAME_CLASS@@QAE@XZ 00441a56 f   v5subs:shot_name.obj
 0001:00040a69       ??1SHOT_NAME_PARTS_CLASS@@QAE@XZ 00441a69 f   v5subs:shot_name.obj
 0001:00040a7c       ?clear@SHOT_NAME_PARTS_CLASS@@QAEXXZ 00441a7c f   v5subs:shot_name.obj
 0001:00040a9e       ?get@SHOT_NAME_CLASS@@QAEHXZ 00441a9e f   v5subs:shot_name.obj
 0001:00040abb       ?init@SHOT_NAME_CLASS@@QAEEAAVSTRING_CLASS@@00@Z 00441abb f   v5subs:shot_name.obj
 0001:00040ad7       ?set@SHOT_NAME_PARTS_CLASS@@QAEXAAVSTRING_CLASS@@H@Z 00441ad7 f   v5subs:shot_name.obj
 0001:00040b8d       ?set_defaults@SHOT_NAME_CLASS@@QAEXXZ 00441b8d f   v5subs:shot_name.obj
 0001:00040c39       ?shot_number_length@SHOT_NAME_CLASS@@QAEHXZ 00441c39 f   v5subs:shot_name.obj
 0001:00040c93       ?is_empty@@YAEPBD@Z        00441c93 f   v5subs:is_empty.obj
 0001:00040caf       ?calculate_ftii_parameters@@YAPANAAVFTII_PROFILE@@AAVMACHINE_CLASS@@AAVPART_CLASS@@AAVPARAMETER_CLASS@@AAVANALOG_SENSOR@@AAVFTANALOG_CLASS@@AAVFTCALC_CLASS@@@Z 00441caf f   v5subs:ftii_parameters.obj
 0001:00042d2c       ?current_part_name@@YAEAAVSTRING_CLASS@@00@Z 00443d2c f   v5subs:current.obj
 0001:00042db9       ??1INT32_ARRAY_CLASS@@QAE@XZ 00443db9 f   v5subs:array.obj
 0001:00042dc4       ??1INT_ARRAY_CLASS@@QAE@XZ 00443dc4 f   v5subs:array.obj
 0001:00042dc9       ??4INT32_ARRAY_CLASS@@QAEXABV0@@Z 00443dc9 f   v5subs:array.obj
 0001:00042e08       ??8INT32_ARRAY_CLASS@@QAEEABV0@@Z 00443e08 f   v5subs:array.obj
 0001:00042e46       ??9INT32_ARRAY_CLASS@@QAEEABV0@@Z 00443e46 f   v5subs:array.obj
 0001:00042e58       ??AINT_ARRAY_CLASS@@QAEAAHH@Z 00443e58 f   v5subs:array.obj
 0001:00042ecf       ?cleanup@INT32_ARRAY_CLASS@@QAEXXZ 00443ecf f   v5subs:array.obj
 0001:00042ef4       ?cleanup@INT_ARRAY_CLASS@@QAEXXZ 00443ef4 f   v5subs:array.obj
 0001:00042f0d       ?init@INT32_ARRAY_CLASS@@UAEEJ@Z 00443f0d f   v5subs:array.obj
 0001:00042f72       ?left_shift@INT32_ARRAY_CLASS@@UAEXJ@Z 00443f72 f   v5subs:array.obj
 0001:00042fc2       ?next@INT32_ARRAY_CLASS@@QAEEXZ 00443fc2 f   v5subs:array.obj
 0001:00042fe5       ?read@INT32_ARRAY_CLASS@@QAEEPAD@Z 00443fe5 f   v5subs:array.obj
 0001:000430be       ?write@INT32_ARRAY_CLASS@@QAEEPAD@Z 004440be f   v5subs:array.obj
 0001:00043174       ?reverse@@YAXPAD@Z         00444174 f   v5subs:reverse.obj
 0001:00043197       ?copy_all_files@@YAEPAD00EPAUHWND__@@H@Z 00444197 f   v5subs:callfile.obj
 0001:00043416       ?error_message@@YAXFF@Z    00444416 f   v5subs:error_ms.obj
 0001:00043459       ?get_partlist@@YAEAAVTEXT_LIST_CLASS@@AAVSTRING_CLASS@@1@Z 00444459 f   v5subs:partlist.obj
 0001:00043508       ??0WIRE_CLASS@@QAE@XZ      00444508 f   v5subs:wire_class.obj
 0001:00043579       ??0WIRE_NAME_ENTRY@@QAE@XZ 00444579 f   v5subs:wire_class.obj
 0001:00043599       ??1WIRE_CLASS@@QAE@XZ      00444599 f   v5subs:wire_class.obj
 0001:000435b4       ??1WIRE_NAME_ENTRY@@QAE@XZ 004445b4 f   v5subs:wire_class.obj
 0001:000435b4       ??1PART_NAME_ENTRY@@QAE@XZ 004445b4 f   profile.obj
 0001:000435cf       ?wirebit@WIRE_CLASS@@QAEIH@Z 004445cf f   v5subs:wire_class.obj
 0001:000435e4       ?day_of_the_week@@YAHHHH@Z 004445e4 f   v5subs:dow.obj
 0001:0004363f       ?rjust@@YAXPADFD@Z         0044463f f   v5subs:rjust.obj
 0001:00043682       ?execute_and_wait@@YAEPAD0K@Z 00444682 f   v5subs:execwait.obj
 0001:000436fd       ??0CUGCell@@QAE@XZ         004446fd f   dundas:ugcell.obj
 0001:00043752       ??1CUGCell@@QAE@XZ         00444752 f   dundas:ugcell.obj
 0001:00043757       ?AddCellInfo@CUGCell@@QAEHPAV1@0@Z 00444757 f   dundas:ugcell.obj
 0001:00043898       ?AddInfoFrom@CUGCell@@QAEHPAV1@@Z 00444898 f   dundas:ugcell.obj
 0001:000438a5       ?AddInfoTo@CUGCell@@QAEHPAV1@@Z 004448a5 f   dundas:ugcell.obj
 0001:000438b2       ?ClearAll@CUGCell@@QAEXXZ  004448b2 f   dundas:ugcell.obj
 0001:000438f0       ?CopyInfoFrom@CUGCell@@QAEHPAV1@@Z 004448f0 f   dundas:ugcell.obj
 0001:00043902       ?CopyInfoTo@CUGCell@@QAEHPAV1@@Z 00444902 f   dundas:ugcell.obj
 0001:00043914       ?GetAlignment@CUGCell@@QAEFXZ 00444914 f   dundas:ugcell.obj
 0001:00043924       ?GetBackColor@CUGCell@@QAEKXZ 00444924 f   dundas:ugcell.obj
 0001:00043939       ?GetBitmap@CUGCell@@QAEPAUHBITMAP__@@XZ 00444939 f   dundas:ugcell.obj
 0001:00043948       ?GetBorder@CUGCell@@QAEFXZ 00444948 f   dundas:ugcell.obj
 0001:00043958       ?GetBorderColor@CUGCell@@QAEPAUHPEN__@@XZ 00444958 f   dundas:ugcell.obj
 0001:00043967       ?GetCellStyle@CUGCell@@QAEPAV1@XZ 00444967 f   dundas:ugcell.obj
 0001:00043976       ?GetCellType@CUGCell@@QAEHXZ 00444976 f   dundas:ugcell.obj
 0001:00043982       ?GetCellTypeEx@CUGCell@@QAEJXZ 00444982 f   dundas:ugcell.obj
 0001:0004398e       ?GetFont@CUGCell@@QAEPAUHFONT__@@XZ 0044498e f   dundas:ugcell.obj
 0001:0004399d       ?GetFormatClass@CUGCell@@QAEPAVCUGCellFormat@@XZ 0044499d f   dundas:ugcell.obj
 0001:000439ac       ?GetHBackColor@CUGCell@@QAEKXZ 004449ac f   dundas:ugcell.obj
 0001:000439c1       ?GetHTextColor@CUGCell@@QAEKXZ 004449c1 f   dundas:ugcell.obj
 0001:000439d6       ?GetJoinInfo@CUGCell@@QAEHPAH0PAJ@Z 004449d6 f   dundas:ugcell.obj
 0001:00043a04       ?GetLabelText@CUGCell@@QAEPADXZ 00444a04 f   dundas:ugcell.obj
 0001:00043a10       ?GetPropertyFlags@CUGCell@@QAEKXZ 00444a10 f   dundas:ugcell.obj
 0001:00043a13       ?GetReadOnly@CUGCell@@QAEHXZ 00444a13 f   dundas:ugcell.obj
 0001:00043a22       ?GetText@CUGCell@@QAEPADXZ 00444a22 f   dundas:ugcell.obj
 0001:00043a2e       ?GetTextColor@CUGCell@@QAEKXZ 00444a2e f   dundas:ugcell.obj
 0001:00043a40       ?GetTextLength@CUGCell@@QAEHXZ 00444a40 f   dundas:ugcell.obj
 0001:00043a56       ?IsPropertySet@CUGCell@@QAEHK@Z 00444a56 f   dundas:ugcell.obj
 0001:00043a65       ?SetAlignment@CUGCell@@QAEHF@Z 00444a65 f   dundas:ugcell.obj
 0001:00043a79       ?SetBackColor@CUGCell@@QAEHK@Z 00444a79 f   dundas:ugcell.obj
 0001:00043a8b       ?SetBorder@CUGCell@@QAEHF@Z 00444a8b f   dundas:ugcell.obj
 0001:00043a9f       ?SetFont@CUGCell@@QAEHPAUHFONT__@@@Z 00444a9f f   dundas:ugcell.obj
 0001:00043aba       ?SetJoinInfo@CUGCell@@QAEHHHJ@Z 00444aba f   dundas:ugcell.obj
 0001:00043adc       ?SetPropertyFlags@CUGCell@@QAEHK@Z 00444adc f   dundas:ugcell.obj
 0001:00043ae7       ?SetText@CUGCell@@QAEHPBD@Z 00444ae7 f   dundas:ugcell.obj
 0001:00043b09       ??0CUGCtrl@@QAE@XZ         00444b09 f   dundas:ugctrl.obj
 0001:00043f61       ??1CUGCtrl@@UAE@XZ         00444f61 f   dundas:ugctrl.obj
 0001:000441c7       ??_ECUGCtrl@@UAEPAXI@Z     004451c7 f i dundas:ugctrl.obj
 0001:000441c7       ??_GCUGCtrl@@UAEPAXI@Z     004451c7 f i dundas:ugctrl.obj
 0001:000441e3       ?AddCellType@CUGCtrl@@QAEJPAVCUGCellType@@@Z 004451e3 f   dundas:ugctrl.obj
 0001:00044221       ?AddFont@CUGCtrl@@QAEHHHHHHEEEEEEEEPBD@Z 00445221 f   dundas:ugctrl.obj
 0001:00044349       ?AdjustComponentSizes@CUGCtrl@@QAEXXZ 00445349 f   dundas:ugctrl.obj
 0001:00044976       ?AdjustLeftCol@CUGCtrl@@IAEXXZ 00445976 f   dundas:ugctrl.obj
 0001:000449d3       ?AdjustTopRow@CUGCtrl@@IAEXXZ 004459d3 f   dundas:ugctrl.obj
 0001:00044a56       ?AttachGrid@CUGCtrl@@QAEHPAUHWND__@@I@Z 00445a56 f   dundas:ugctrl.obj
 0001:00044ad6       ?BestFit@CUGCtrl@@QAEHHHHH@Z 00445ad6 f   dundas:ugctrl.obj
 0001:00044cad       ?CalcLeftCol@CUGCtrl@@IAEXXZ 00445cad f   dundas:ugctrl.obj
 0001:00044d81       ?CalcTopRow@CUGCtrl@@IAEXXZ 00445d81 f   dundas:ugctrl.obj
 0001:00044e55       ?ClearAllFonts@CUGCtrl@@QAEHXZ 00445e55 f   dundas:ugctrl.obj
 0001:00044e63       ?ClearSelections@CUGCtrl@@QAEHXZ 00445e63 f   dundas:ugctrl.obj
 0001:00044e93       ?CreateChildWindows@CUGCtrl@@IAEHXZ 00445e93 f   dundas:ugctrl.obj
 0001:00044ff5       ?CreateCtrlWindow@CUGCtrl@@QAEHKUtagRECT@@PAUHWND__@@I@Z 00445ff5 f   dundas:ugctrl.obj
 0001:000450f6       ?CreateGrid@CUGCtrl@@QAEHKABUtagRECT@@PAUHWND__@@I@Z 004460f6 f   dundas:ugctrl.obj
 0001:00045174       ?CtrlWndProc@CUGCtrl@@SGJPAUHWND__@@IIJ@Z 00446174 f   dundas:ugctrl.obj
 0001:000452a7       ?DeleteRow@CUGCtrl@@QAEHJ@Z 004462a7 f   dundas:ugctrl.obj
 0001:000452ef       ?EditCancel@CUGCtrl@@QAEHXZ 004462ef f   dundas:ugctrl.obj
 0001:0004533d       ?EditCtrlFinished@CUGCtrl@@QAEHPBDHHHJ@Z 0044633d f   dundas:ugctrl.obj
 0001:00045449       ?FindNext@CUGCtrl@@QAEHPADPAHPAJH@Z 00446449 f   dundas:ugctrl.obj
 0001:00045483       ?GetCell@CUGCtrl@@QAEHHJPAVCUGCell@@@Z 00446483 f   dundas:ugctrl.obj
 0001:00045504       ?GetCellFromPoint@CUGCtrl@@QAEHHHPAHPAJ@Z 00446504 f   dundas:ugctrl.obj
 0001:00045525       ?GetCellFromPoint@CUGCtrl@@QAEHHHPAHPAJPAUtagRECT@@@Z 00446525 f   dundas:ugctrl.obj
 0001:00045685       ?GetCellIndirect@CUGCtrl@@QAEHHJPAVCUGCell@@@Z 00446685 f   dundas:ugctrl.obj
 0001:0004579a       ?GetCellRect@CUGCtrl@@QAEHHJPAUtagRECT@@@Z 0044679a f   dundas:ugctrl.obj
 0001:000457b0       ?GetCellRect@CUGCtrl@@QAEHPAHPAJPAUtagRECT@@@Z 004467b0 f   dundas:ugctrl.obj
 0001:00045928       ?GetCellType@CUGCtrl@@QAEPAVCUGCellType@@H@Z 00446928 f   dundas:ugctrl.obj
 0001:0004594f       ?GetCellType@CUGCtrl@@QAEPAVCUGCellType@@HJ@Z 0044694f f   dundas:ugctrl.obj
 0001:00045994       ?GetColWidth@CUGCtrl@@QAEHH@Z 00446994 f   dundas:ugctrl.obj
 0001:000459b7       ?GetCurrentCol@CUGCtrl@@QAEHXZ 004469b7 f   dundas:ugctrl.obj
 0001:000459c1       ?GetCurrentRow@CUGCtrl@@QAEJXZ 004469c1 f   dundas:ugctrl.obj
 0001:000459cb       ?GetGridDefault@CUGCtrl@@QAEHPAVCUGCell@@@Z 004469cb f   dundas:ugctrl.obj
 0001:000459e2       ?GetJoinRange@CUGCtrl@@QAEHPAHPAJ01@Z 004469e2 f   dundas:ugctrl.obj
 0001:00045a94       ?GetJoinStartCell@CUGCtrl@@QAEHPAHPAJ@Z 00446a94 f   dundas:ugctrl.obj
 0001:00045aab       ?GetJoinStartCell@CUGCtrl@@QAEHPAHPAJPAVCUGCell@@@Z 00446aab f   dundas:ugctrl.obj
 0001:00045b37       ?GetNumberCols@CUGCtrl@@QAEHXZ 00446b37 f   dundas:ugctrl.obj
 0001:00045b41       ?GetNumberRows@CUGCtrl@@QAEJXZ 00446b41 f   dundas:ugctrl.obj
 0001:00045b4b       ?GetRowHeight@CUGCtrl@@QAEHJ@Z 00446b4b f   dundas:ugctrl.obj
 0001:00045b76       ?GetVS_Width@CUGCtrl@@QAEHXZ 00446b76 f   dundas:ugctrl.obj
 0001:00045b83       ?GotoCell@CUGCtrl@@QAEHHJ@Z 00446b83 f   dundas:ugctrl.obj
 0001:00045c16       ?GotoCol@CUGCtrl@@QAEHH@Z  00446c16 f   dundas:ugctrl.obj
 0001:00045cca       ?GotoRow@CUGCtrl@@QAEHJ@Z  00446cca f   dundas:ugctrl.obj
 0001:00045d7e       ?InsertRow@CUGCtrl@@QAEHJ@Z 00446d7e f   dundas:ugctrl.obj
 0001:00045dc2       ?IsSelected@CUGCtrl@@QAEHHJPAH@Z 00446dc2 f   dundas:ugctrl.obj
 0001:00045dd3       ?JoinCells@CUGCtrl@@QAEHHJHJ@Z 00446dd3 f   dundas:ugctrl.obj
 0001:00045f08       ?MoveColPosition@CUGCtrl@@QAEHHHH@Z 00446f08 f   dundas:ugctrl.obj
 0001:0004608b       ?MoveCurrentCol@CUGCtrl@@QAEHH@Z 0044708b f   dundas:ugctrl.obj
 0001:0004614f       ?MoveCurrentRow@CUGCtrl@@QAEHH@Z 0044714f f   dundas:ugctrl.obj
 0001:00046218       ?MoveLeftCol@CUGCtrl@@QAEHH@Z 00447218 f   dundas:ugctrl.obj
 0001:0004632d       ?MoveTopRow@CUGCtrl@@QAEHH@Z 0044732d f   dundas:ugctrl.obj
 0001:00046443       ?MoveTrackingWindow@CUGCtrl@@IAEXXZ 00447443 f   dundas:ugctrl.obj
 0001:0004673e       ?Moved@CUGCtrl@@IAEXXZ     0044773e f   dundas:ugctrl.obj
 0001:0004697a       ?OnAdjustComponentSizes@CUGCtrl@@UAEXPAUtagRECT@@000000@Z 0044797a f   dundas:ugctrl.obj
 0001:0004697d       ?OnCanSizeTopHdg@CUGCtrl@@UAEHXZ 0044797d f   dundas:ugctrl.obj
 0001:0004697d       ?OnCanSizeSideHdg@CUGCtrl@@UAEHXZ 0044797d f   dundas:ugctrl.obj
 0001:00046981       ?OnHint@CUGCtrl@@UAEHHJHPAD@Z 00447981 f   dundas:ugctrl.obj
 0001:00046981       ?OnCanViewMove@CUGCtrl@@UAEHHJHJ@Z 00447981 f   dundas:ugctrl.obj
 0001:00046981       ?OnEditContinue@CUGCtrl@@UAEHHJPAHPAJ@Z 00447981 f   dundas:ugctrl.obj
 0001:00046981       ?OnEditVerify@CUGCtrl@@UAEHHJPAUHWND__@@PAI@Z 00447981 f   dundas:ugctrl.obj
 0001:00046981       ?OnCanMove@CUGCtrl@@UAEHHJAAHAAJ@Z 00447981 f   dundas:ugctrl.obj
 0001:00046987       ?OnMenuCommand@CUGCtrl@@UAEXHJHH@Z 00447987 f   dundas:ugctrl.obj
 0001:00046987       ?OnCellChange@CUGCtrl@@UAEXHHJJ@Z 00447987 f   dundas:ugctrl.obj
 0001:00046987       ?OnCB_RClicked@CUGCtrl@@UAEXHPAUtagRECT@@PAUtagPOINT@@H@Z 00447987 f   dundas:ugctrl.obj
 0001:00046987       ?OnCB_LClicked@CUGCtrl@@UAEXHPAUtagRECT@@PAUtagPOINT@@H@Z 00447987 f   dundas:ugctrl.obj
 0001:0004698a       ?OnCellTypeNotify@CUGCtrl@@UAEHJHJJJ@Z 0044798a f   dundas:ugctrl.obj
 0001:0004698a       ?OnEditFinish@CUGCtrl@@UAEHHJPAUHWND__@@PBDH@Z 0044798a f   dundas:ugctrl.obj
 0001:00046990       ?OnCommand@CUGCtrl@@MAEHIJ@Z 00447990 f   dundas:ugctrl.obj
 0001:00046a2d       ?OnDrawFocusRect@CUGCtrl@@UAEXPAUHDC__@@PAUtagRECT@@@Z 00447a2d f   dundas:ugctrl.obj
 0001:00046a45       ?OnEditStart@CUGCtrl@@UAEHHJPAPAUHWND__@@@Z 00447a45 f   dundas:ugctrl.obj
 0001:00046a45       ?OnMenuStart@CUGCtrl@@UAEHHJH@Z 00447a45 f   dundas:ugctrl.obj
 0001:00046a4b       ?OnGetCell@CUGCtrl@@UAEXHJPAVCUGCell@@@Z 00447a4b f   dundas:ugctrl.obj
 0001:00046a4b       ?OnScreenDCSetup@CUGCtrl@@UAEXPAUHDC__@@0H@Z 00447a4b f   dundas:ugctrl.obj
 0001:00046a4b       ?OnHitBottom@CUGCtrl@@UAEXJJJ@Z 00447a4b f   dundas:ugctrl.obj
 0001:00046a4b       ?OnCB_DClicked@CUGCtrl@@UAEXPAUtagRECT@@PAUtagPOINT@@H@Z 00447a4b f   dundas:ugctrl.obj
 0001:00046a4b       ?OnSetFocus@CUGCellType@@UAEXHJPAVCUGCell@@@Z 00447a4b f   dundas:ugceltyp.obj
 0001:00046a4b       ?OnKillFocus@CUGCellType@@UAEXHJPAVCUGCell@@@Z 00447a4b f   dundas:ugceltyp.obj
 0001:00046a4b       ?OnSetCell@CUGCtrl@@UAEXHJPAVCUGCell@@@Z 00447a4b f   dundas:ugctrl.obj
 0001:00046a4e       ?OnGetDefBackColor@CUGCtrl@@UAEKH@Z 00447a4e f   dundas:ugctrl.obj
 0001:00046a67       ?OnHScroll@CUGCtrl@@IAEXIIPAUHWND__@@@Z 00447a67 f   dundas:ugctrl.obj
 0001:00046a86       ?OnSH_DClicked@CUGCtrl@@UAEXHJPAUtagRECT@@PAUtagPOINT@@H@Z 00447a86 f   dundas:ugctrl.obj
 0001:00046a86       ?OnDClicked@CUGCtrl@@UAEXHJPAUtagRECT@@PAUtagPOINT@@H@Z 00447a86 f   dundas:ugctrl.obj
 0001:00046a86       ?OnTH_DClicked@CUGCtrl@@UAEXHJPAUtagRECT@@PAUtagPOINT@@H@Z 00447a86 f   dundas:ugctrl.obj
 0001:00046a86       ?OnMouseMove@CUGCtrl@@UAEXHJPAUtagPOINT@@IH@Z 00447a86 f   dundas:ugctrl.obj
 0001:00046a89       ?OnPaint@CUGCtrl@@IAEXXZ   00447a89 f   dundas:ugctrl.obj
 0001:00046b29       ?OnColSizing@CUGCtrl@@UAEXHPAH@Z 00447b29 f   dundas:ugctrl.obj
 0001:00046b29       ?OnRowSizing@CUGCtrl@@UAEXJPAH@Z 00447b29 f   dundas:ugctrl.obj
 0001:00046b29       ?OnRowChange@CUGDataSource@@UAEXJJ@Z 00447b29 f   dundas:ugdtasrc.obj
 0001:00046b29       ?OnHitTop@CUGCtrl@@UAEXJJ@Z 00447b29 f   dundas:ugctrl.obj
 0001:00046b29       ?OnCharDown@CUGCtrl@@UAEXPAIH@Z 00447b29 f   dundas:ugctrl.obj
 0001:00046b29       ?OnTrackingWindowMoved@CUGCtrl@@UAEXPAUtagRECT@@0@Z 00447b29 f   dundas:ugctrl.obj
 0001:00046b29       ?OnTopRowChange@CUGCtrl@@UAEXJJ@Z 00447b29 f   dundas:ugctrl.obj
 0001:00046b29       ?OnRowSized@CUGCtrl@@UAEXJPAH@Z 00447b29 f   dundas:ugctrl.obj
 0001:00046b29       ?OnLeftColChange@CUGCtrl@@UAEXHH@Z 00447b29 f   dundas:ugctrl.obj
 0001:00046b29       ?OnColSized@CUGCtrl@@UAEXHPAH@Z 00447b29 f   dundas:ugctrl.obj
 0001:00046b29       ?OnColChange@CUGCtrl@@UAEXHH@Z 00447b29 f   dundas:ugctrl.obj
 0001:00046b29       ?OnColChange@CUGDataSource@@UAEXHH@Z 00447b29 f   dundas:ugdtasrc.obj
 0001:00046b29       ?OnKeyDown@CUGCtrl@@UAEXPAIH@Z 00447b29 f   dundas:ugctrl.obj
 0001:00046b29       ?OnRowChange@CUGCtrl@@UAEXJJ@Z 00447b29 f   dundas:ugctrl.obj
 0001:00046b2c       ?OnSetFocus@CUGCtrl@@IAEXPAUHWND__@@@Z 00447b2c f   dundas:ugctrl.obj
 0001:00046b3e       ?OnSize@CUGCtrl@@IAEXIHH@Z 00447b3e f   dundas:ugctrl.obj
 0001:00046b6d       ?OnSortEvaluate@CUGCtrl@@UAEHPAVCUGCell@@0H@Z 00447b6d f   dundas:ugctrl.obj
 0001:00046bcd       ?OnSysColorChange@CUGCtrl@@IAEXXZ 00447bcd f   dundas:ugctrl.obj
 0001:00046c11       ?OnRClicked@CUGCtrl@@UAEXHJHPAUtagRECT@@PAUtagPOINT@@H@Z 00447c11 f   dundas:ugctrl.obj
 0001:00046c11       ?OnTH_RClicked@CUGCtrl@@UAEXHJHPAUtagRECT@@PAUtagPOINT@@H@Z 00447c11 f   dundas:ugctrl.obj
 0001:00046c11       ?OnSH_LClicked@CUGCtrl@@UAEXHJHPAUtagRECT@@PAUtagPOINT@@H@Z 00447c11 f   dundas:ugctrl.obj
 0001:00046c11       ?OnTH_LClicked@CUGCtrl@@UAEXHJHPAUtagRECT@@PAUtagPOINT@@H@Z 00447c11 f   dundas:ugctrl.obj
 0001:00046c11       ?OnSH_RClicked@CUGCtrl@@UAEXHJHPAUtagRECT@@PAUtagPOINT@@H@Z 00447c11 f   dundas:ugctrl.obj
 0001:00046c11       ?OnLClicked@CUGCtrl@@UAEXHJHPAUtagRECT@@PAUtagPOINT@@H@Z 00447c11 f   dundas:ugctrl.obj
 0001:00046c14       ?OnCanSizeRow@CUGCtrl@@UAEHJ@Z 00447c14 f   dundas:ugctrl.obj
 0001:00046c14       ?OnSideHdgSizing@CUGCtrl@@UAEHPAH@Z 00447c14 f   dundas:ugctrl.obj
 0001:00046c14       ?OnColSwapStart@CUGCtrl@@UAEHH@Z 00447c14 f   dundas:ugctrl.obj
 0001:00046c14       ?OnCanSizeCol@CUGCtrl@@UAEHH@Z 00447c14 f   dundas:ugctrl.obj
 0001:00046c14       ?OnSideHdgSized@CUGCtrl@@UAEHPAH@Z 00447c14 f   dundas:ugctrl.obj
 0001:00046c14       ?OnTopHdgSizing@CUGCtrl@@UAEHPAH@Z 00447c14 f   dundas:ugctrl.obj
 0001:00046c14       ?OnTopHdgSized@CUGCtrl@@UAEHPAH@Z 00447c14 f   dundas:ugctrl.obj
 0001:00046c1a       ?OnVScroll@CUGCtrl@@IAEXIIPAUHWND__@@@Z 00447c1a f   dundas:ugctrl.obj
 0001:00046c39       ?OnHScrollHint@CUGCtrl@@UAEHHPAD@Z 00447c39 f   dundas:ugctrl.obj
 0001:00046c39       ?OnVScrollHint@CUGCtrl@@UAEHJPAD@Z 00447c39 f   dundas:ugctrl.obj
 0001:00046c39       ?OnCanColSwap@CUGCtrl@@UAEHHH@Z 00447c39 f   dundas:ugctrl.obj
 0001:00046c3f       ?ProcessFindDialog@CUGCtrl@@QAEJIJ@Z 00447c3f f   dundas:ugctrl.obj
 0001:00046dc2       ?QuickGetText@CUGCtrl@@QAEPBDHJ@Z 00447dc2 f   dundas:ugctrl.obj
 0001:00046de2       ?QuickSetBackColor@CUGCtrl@@QAEHHJK@Z 00447de2 f   dundas:ugctrl.obj
 0001:00046e1b       ?QuickSetText@CUGCtrl@@QAEHHJPBD@Z 00447e1b f   dundas:ugctrl.obj
 0001:00046e54       ?RedrawAll@CUGCtrl@@QAEHXZ 00447e54 f   dundas:ugctrl.obj
 0001:00046e5c       ?RedrawCell@CUGCtrl@@QAEHHJ@Z 00447e5c f   dundas:ugctrl.obj
 0001:00046ee2       ?RedrawRange@CUGCtrl@@QAEHHJHJ@Z 00447ee2 f   dundas:ugctrl.obj
 0001:00046f02       ?RemoveFont@CUGCtrl@@QAEHH@Z 00447f02 f   dundas:ugctrl.obj
 0001:00046f5e       ?SelectRange@CUGCtrl@@QAEHHJHJ@Z 00447f5e f   dundas:ugctrl.obj
 0001:00046fb5       ?Set3DHeight@CUGCtrl@@QAEHH@Z 00447fb5 f   dundas:ugctrl.obj
 0001:00046fd7       ?SetCell@CUGCtrl@@QAEHHJPAVCUGCell@@@Z 00447fd7 f   dundas:ugctrl.obj
 0001:0004703f       ?SetColWidth@CUGCtrl@@QAEHHH@Z 0044803f f   dundas:ugctrl.obj
 0001:00047098       ?SetDefFont@CUGCtrl@@QAEHH@Z 00448098 f   dundas:ugctrl.obj
 0001:000470b6       ?SetDefFont@CUGCtrl@@QAEHPAUHFONT__@@@Z 004480b6 f   dundas:ugctrl.obj
 0001:000470ed       ?SetDefRowHeight@CUGCtrl@@QAEHH@Z 004480ed f   dundas:ugctrl.obj
 0001:0004710e       ?SetLeftCol@CUGCtrl@@QAEHH@Z 0044810e f   dundas:ugctrl.obj
 0001:00047174       ?SetLockColWidth@CUGCtrl@@IAEXXZ 00448174 f   dundas:ugctrl.obj
 0001:000471bf       ?SetLockRowHeight@CUGCtrl@@IAEXXZ 004481bf f   dundas:ugctrl.obj
 0001:0004720a       ?SetMultiSelectMode@CUGCtrl@@QAEHH@Z 0044820a f   dundas:ugctrl.obj
 0001:0004724b       ?SetNumberCols@CUGCtrl@@QAEHHH@Z 0044824b f   dundas:ugctrl.obj
 0001:00047404       ?SetNumberRows@CUGCtrl@@QAEHJH@Z 00448404 f   dundas:ugctrl.obj
 0001:00047502       ?SetNumberSheets@CUGCtrl@@QAEHH@Z 00448502 f   dundas:ugctrl.obj
 0001:00047634       ?SetRowHeight@CUGCtrl@@QAEHJH@Z 00448634 f   dundas:ugctrl.obj
 0001:0004766c       ?SetSH_ColWidth@CUGCtrl@@QAEHHH@Z 0044866c f   dundas:ugctrl.obj
 0001:000476a1       ?SetSH_Width@CUGCtrl@@QAEHH@Z 004486a1 f   dundas:ugctrl.obj
 0001:00047748       ?SetSheetNumber@CUGCtrl@@QAEHHH@Z 00448748 f   dundas:ugctrl.obj
 0001:00047858       ?SetTH_Height@CUGCtrl@@QAEHH@Z 00448858 f   dundas:ugctrl.obj
 0001:000478f6       ?SetTH_NumberRows@CUGCtrl@@QAEHH@Z 004488f6 f   dundas:ugctrl.obj
 0001:000479ba       ?SetTH_RowHeight@CUGCtrl@@QAEHHH@Z 004489ba f   dundas:ugctrl.obj
 0001:000479ef       ?SetTopRow@CUGCtrl@@QAEHJ@Z 004489ef f   dundas:ugctrl.obj
 0001:00047a50       ?SetUniformRowHeight@CUGCtrl@@QAEHH@Z 00448a50 f   dundas:ugctrl.obj
 0001:00047af2       ?StartEdit@CUGCtrl@@QAEHH@Z 00448af2 f   dundas:ugctrl.obj
 0001:00047b0a       ?StartEdit@CUGCtrl@@QAEHHJH@Z 00448b0a f   dundas:ugctrl.obj
 0001:00047e1a       ?StartEdit@CUGCtrl@@QAEHXZ 00448e1a f   dundas:ugctrl.obj
 0001:00047e2e       ?StartMenu@CUGCtrl@@QAEHHJPAUtagPOINT@@H@Z 00448e2e f   dundas:ugctrl.obj
 0001:00047ec4       ?Update@CUGCtrl@@IAEXXZ    00448ec4 f   dundas:ugctrl.obj
 0001:00047f20       ?VerifyCurrentCol@CUGCtrl@@QAEHPAH@Z 00448f20 f   dundas:ugctrl.obj
 0001:0004800c       ?VerifyCurrentRow@CUGCtrl@@QAEHPAJ@Z 0044900c f   dundas:ugctrl.obj
 0001:00048133       ?VerifyLeftCol@CUGCtrl@@QAEHPAH@Z 00449133 f   dundas:ugctrl.obj
 0001:0004815d       ?VerifyTopRow@CUGCtrl@@QAEHPAJ@Z 0044915d f   dundas:ugctrl.obj
 0001:00048187       ?clear_default_font@CUGCtrl@@AAEXXZ 00449187 f   dundas:ugctrl.obj
 0001:000481cc       ??0CUGMultiSelect@@QAE@XZ  004491cc f   dundas:ugmultis.obj
 0001:000481ea       ??1CUGMultiSelect@@QAE@XZ  004491ea f   dundas:ugmultis.obj
 0001:000481f3       ?AddTotalRangeToDrawHints@CUGMultiSelect@@QAEXPAVCUGDrawHint@@@Z 004491f3 f   dundas:ugmultis.obj
 0001:0004822c       ?ClearAll@CUGMultiSelect@@QAEHXZ 0044922c f   dundas:ugmultis.obj
 0001:0004826e       ?EndBlock@CUGMultiSelect@@QAEHHJ@Z 0044926e f   dundas:ugmultis.obj
 0001:000483d7       ?GetOrigCell@CUGMultiSelect@@QAEHPAHPAJ@Z 004493d7 f   dundas:ugmultis.obj
 0001:000483fb       ?GetTotalRange@CUGMultiSelect@@QAEHPAHPAJ01@Z 004493fb f   dundas:ugmultis.obj
 0001:00048483       ?IsSelected@CUGMultiSelect@@QAEHHJPAH@Z 00449483 f   dundas:ugmultis.obj
 0001:000484e9       ?OnKeyMove@CUGMultiSelect@@QAEXHJ@Z 004494e9 f   dundas:ugmultis.obj
 0001:00048555       ?OnLClick@CUGMultiSelect@@QAEXHJI@Z 00449555 f   dundas:ugmultis.obj
 0001:000485b7       ?OnMouseMove@CUGMultiSelect@@QAEXHJI@Z 004495b7 f   dundas:ugmultis.obj
 0001:000485d9       ?OnRClick@CUGMultiSelect@@QAEXHJI@Z 004495d9 f   dundas:ugmultis.obj
 0001:00048623       ?SelectMode@CUGMultiSelect@@QAEHH@Z 00449623 f   dundas:ugmultis.obj
 0001:00048638       ?StartBlock@CUGMultiSelect@@QAEHHJ@Z 00449638 f   dundas:ugmultis.obj
 0001:000486f0       ?AddTwoString@@YAXAAPADPBD@Z 004496f0 f   dundas:ugstring.obj
 0001:00048755       ?CopyString@@YAXAAPADPBD@Z 00449755 f   dundas:ugstring.obj
 0001:000487ae       ??0CUGPtrList@@QAE@XZ      004497ae f   dundas:ugptrlst.obj
 0001:000487bb       ??1CUGPtrList@@QAE@XZ      004497bb f   dundas:ugptrlst.obj
 0001:000487c0       ?AddMoreElements@CUGPtrList@@IAEHXZ 004497c0 f   dundas:ugptrlst.obj
 0001:0004887d       ?AddPointer@CUGPtrList@@QAEHPAXJPAUUGID@@@Z 0044987d f   dundas:ugptrlst.obj
 0001:000488fb       ?DeletePointer@CUGPtrList@@QAEHH@Z 004498fb f   dundas:ugptrlst.obj
 0001:0004892b       ?EmptyList@CUGPtrList@@QAEHXZ 0044992b f   dundas:ugptrlst.obj
 0001:0004894a       ?GetCount@CUGPtrList@@QAEHXZ 0044994a f   dundas:ugptrlst.obj
 0001:0004894e       ?GetParam@CUGPtrList@@QAEJH@Z 0044994e f   dundas:ugptrlst.obj
 0001:0004896b       ?GetPointer@CUGPtrList@@QAEPAXH@Z 0044996b f   dundas:ugptrlst.obj
 0001:0004898e       ?GetPointerIndex@CUGPtrList@@QAEHPAX@Z 0044998e f   dundas:ugptrlst.obj
 0001:000489bd       ?UpdateParam@CUGPtrList@@QAEHHJ@Z 004499bd f   dundas:ugptrlst.obj
 0001:000489ec       ??0CUGCnrBtn@@QAE@XZ       004499ec f   dundas:ugcnrbtn.obj
 0001:00048a0c       ??_ECUGCnrBtn@@UAEPAXI@Z   00449a0c f i dundas:ugcnrbtn.obj
 0001:00048a0c       ??_GCUGCnrBtn@@UAEPAXI@Z   00449a0c f i dundas:ugcnrbtn.obj
 0001:00048a29       ?CnrBtnWndProc@CUGCnrBtn@@SGJPAUHWND__@@IIJ@Z 00449a29 f   dundas:ugcnrbtn.obj
 0001:00048b33       ?CreateCnrBtnWindow@CUGCnrBtn@@QAEHKUtagRECT@@PAUHWND__@@I@Z 00449b33 f   dundas:ugcnrbtn.obj
 0001:00048c2d       ?OnLButtonDblClk@CUGCnrBtn@@IAEXIUtagPOINT@@@Z 00449c2d f   dundas:ugcnrbtn.obj
 0001:00048c4f       ?OnLButtonDown@CUGCnrBtn@@IAEXIUtagPOINT@@@Z 00449c4f f   dundas:ugcnrbtn.obj
 0001:00048c8b       ?OnLButtonUp@CUGCnrBtn@@IAEXIUtagPOINT@@@Z 00449c8b f   dundas:ugcnrbtn.obj
 0001:00048cbf       ?OnMouseMove@CUGCnrBtn@@IAEXIUtagPOINT@@@Z 00449cbf f   dundas:ugcnrbtn.obj
 0001:00048dda       ?OnPaint@CUGCnrBtn@@IAEXXZ 00449dda f   dundas:ugcnrbtn.obj
 0001:00048ed8       ?OnRButtonDown@CUGCnrBtn@@IAEXIUtagPOINT@@@Z 00449ed8 f   dundas:ugcnrbtn.obj
 0001:00048f2c       ?OnRButtonUp@CUGCnrBtn@@IAEXIUtagPOINT@@@Z 00449f2c f   dundas:ugcnrbtn.obj
 0001:00048f50       ?OnSetCursor@CUGCnrBtn@@IAEHPAUHWND__@@II@Z 00449f50 f   dundas:ugcnrbtn.obj
 0001:00048fa6       ??$_Pow_int@N@@YANNH@Z     00449fa6 f i dundas:uggrid.obj
 0001:00048ff8       ??0CUGGrid@@QAE@XZ         00449ff8 f   dundas:uggrid.obj
 0001:00049038       ??1CUGGrid@@UAE@XZ         0044a038 f   dundas:uggrid.obj
 0001:00049061       ??_ECUGGrid@@UAEPAXI@Z     0044a061 f i dundas:uggrid.obj
 0001:00049061       ??_GCUGGrid@@UAEPAXI@Z     0044a061 f i dundas:uggrid.obj
 0001:0004907d       ?CreateGridWindow@CUGGrid@@QAEHKUtagRECT@@PAUHWND__@@I@Z 0044a07d f   dundas:uggrid.obj
 0001:00049174       ?CreateToolTipWindow@CUGGrid@@QAEHPAUHWND__@@@Z 0044a174 f   dundas:uggrid.obj
 0001:00049252       ?DrawCellsIntern@CUGGrid@@QAEXPAPAUHDC__@@PAU2@@Z 0044a252 f   dundas:uggrid.obj
 0001:00049955       ?GridWndProc@CUGGrid@@SGJPAUHWND__@@IIJ@Z 0044a955 f   dundas:uggrid.obj
 0001:00049b99       ?Moved@CUGGrid@@QAEXXZ     0044ab99 f   dundas:uggrid.obj
 0001:00049e62       ?OnChar@CUGGrid@@QAEXII@Z  0044ae62 f   dundas:uggrid.obj
 0001:00049ea0       ?OnGetDlgCode@CUGGrid@@QAEIXZ 0044aea0 f   dundas:uggrid.obj
 0001:00049ec5       ?OnKeyDown@CUGGrid@@QAEXII@Z 0044aec5 f   dundas:uggrid.obj
 0001:00049ff1       ?OnKillFocus@CUGGrid@@QAEXPAUHWND__@@@Z 0044aff1 f   dundas:uggrid.obj
 0001:0004a01d       ?OnLButtonDblClk@CUGGrid@@QAEXIUtagPOINT@@@Z 0044b01d f   dundas:uggrid.obj
 0001:0004a0a7       ?OnLButtonDown@CUGGrid@@QAEXIUtagPOINT@@@Z 0044b0a7 f   dundas:uggrid.obj
 0001:0004a188       ?OnLButtonUp@CUGGrid@@QAEXIUtagPOINT@@@Z 0044b188 f   dundas:uggrid.obj
 0001:0004a222       ?OnMouseMove@CUGGrid@@QAEXIUtagPOINT@@@Z 0044b222 f   dundas:uggrid.obj
 0001:0004a5f3       ?OnMouseWheel@CUGGrid@@QAEHIFUtagPOINT@@@Z 0044b5f3 f   dundas:uggrid.obj
 0001:0004a61c       ?OnPaint@CUGGrid@@QAEXXZ   0044b61c f   dundas:uggrid.obj
 0001:0004a710       ?OnRButtonDown@CUGGrid@@QAEXIUtagPOINT@@@Z 0044b710 f   dundas:uggrid.obj
 0001:0004a819       ?OnRButtonUp@CUGGrid@@QAEXIUtagPOINT@@@Z 0044b819 f   dundas:uggrid.obj
 0001:0004a8a6       ?OnSetCursor@CUGGrid@@QAEHPAUHWND__@@II@Z 0044b8a6 f   dundas:uggrid.obj
 0001:0004a8bb       ?OnSetFocus@CUGGrid@@QAEXPAUHWND__@@@Z 0044b8bb f   dundas:uggrid.obj
 0001:0004a8f7       ?OnSize@CUGGrid@@QAEXIHH@Z 0044b8f7 f   dundas:uggrid.obj
 0001:0004a9a0       ?OnToolTip@CUGGrid@@QAEHPAUHWND__@@IJ@Z 0044b9a0 f   dundas:uggrid.obj
 0001:0004aa5e       ?RedrawCell@CUGGrid@@QAEXHJ@Z 0044ba5e f   dundas:uggrid.obj
 0001:0004aa7c       ?RedrawRange@CUGGrid@@QAEXHJHJ@Z 0044ba7c f   dundas:uggrid.obj
 0001:0004aaa2       ?SetDoubleBufferMode@CUGGrid@@QAEHH@Z 0044baa2 f   dundas:uggrid.obj
 0001:0004ab85       ?ToolTipMessage@CUGGrid@@QAEXPAUHWND__@@IIJ@Z 0044bb85 f   dundas:uggrid.obj
 0001:0004ac93       ??0CUGHScroll@@QAE@XZ      0044bc93 f   dundas:ughscrol.obj
 0001:0004acac       ??_GCUGHScroll@@UAEPAXI@Z  0044bcac f i dundas:ughscrol.obj
 0001:0004acac       ??_ECUGHScroll@@UAEPAXI@Z  0044bcac f i dundas:ughscrol.obj
 0001:0004acc9       ?CreateHScrollWindow@CUGHScroll@@QAEHKUtagRECT@@PAUHWND__@@I@Z 0044bcc9 f   dundas:ughscrol.obj
 0001:0004ad63       ?HScroll@CUGHScroll@@QAEXII@Z 0044bd63 f   dundas:ughscrol.obj
 0001:0004aeff       ?HScrollWndProc@CUGHScroll@@SGJPAUHWND__@@IIJ@Z 0044beff f   dundas:ughscrol.obj
 0001:0004af81       ?Moved@CUGHScroll@@QAEXXZ  0044bf81 f   dundas:ughscrol.obj
 0001:0004b041       ?OnRButtonDown@CUGHScroll@@UAEXIUtagPOINT@@@Z 0044c041 f   dundas:ughscrol.obj
 0001:0004b078       ?Update@CUGHScroll@@QAEXXZ 0044c078 f   dundas:ughscrol.obj
 0001:0004b07d       ??0CUGSideHdg@@QAE@XZ      0044c07d f   dundas:ugsidehd.obj
 0001:0004b0b6       ??1CUGSideHdg@@UAE@XZ      0044c0b6 f   dundas:ugsidehd.obj
 0001:0004b0d0       ??_ECUGSideHdg@@UAEPAXI@Z  0044c0d0 f i dundas:ugsidehd.obj
 0001:0004b0d0       ??_GCUGSideHdg@@UAEPAXI@Z  0044c0d0 f i dundas:ugsidehd.obj
 0001:0004b0ec       ?CreateSideHdgWindow@CUGSideHdg@@QAEHKUtagRECT@@PAUHWND__@@I@Z 0044c0ec f   dundas:ugsidehd.obj
 0001:0004b1e6       ?DrawCellsIntern@CUGSideHdg@@IAEXPAUHDC__@@@Z 0044c1e6 f   dundas:ugsidehd.obj
 0001:0004b4b7       ?GetCellFromPoint@CUGSideHdg@@IAEHPAUtagPOINT@@PAHPAJPAUtagRECT@@@Z 0044c4b7 f   dundas:ugsidehd.obj
 0001:0004b578       ?GetCellRect@CUGSideHdg@@IAEHHJPAUtagRECT@@@Z 0044c578 f   dundas:ugsidehd.obj
 0001:0004b58e       ?GetCellRect@CUGSideHdg@@IAEHPAHPAJPAUtagRECT@@@Z 0044c58e f   dundas:ugsidehd.obj
 0001:0004b6cd       ?GetSHColWidth@CUGSideHdg@@IAEHH@Z 0044c6cd f   dundas:ugsidehd.obj
 0001:0004b6eb       ?Moved@CUGSideHdg@@QAEXXZ  0044c6eb f   dundas:ugsidehd.obj
 0001:0004b873       ?OnLButtonDblClk@CUGSideHdg@@IAEXIUtagPOINT@@@Z 0044c873 f   dundas:ugsidehd.obj
 0001:0004b8ef       ?OnLButtonDown@CUGSideHdg@@IAEXIUtagPOINT@@@Z 0044c8ef f   dundas:ugsidehd.obj
 0001:0004b9b2       ?OnLButtonUp@CUGSideHdg@@IAEXIUtagPOINT@@@Z 0044c9b2 f   dundas:ugsidehd.obj
 0001:0004baaa       ?OnMouseMove@CUGSideHdg@@IAEXIUtagPOINT@@@Z 0044caaa f   dundas:ugsidehd.obj
 0001:0004bd7d       ?OnPaint@CUGSideHdg@@IAEXXZ 0044cd7d f   dundas:ugsidehd.obj
 0001:0004bde7       ?OnRButtonDown@CUGSideHdg@@IAEXIUtagPOINT@@@Z 0044cde7 f   dundas:ugsidehd.obj
 0001:0004be95       ?OnRButtonUp@CUGSideHdg@@IAEXIUtagPOINT@@@Z 0044ce95 f   dundas:ugsidehd.obj
 0001:0004bf13       ?OnSetCursor@CUGSideHdg@@IAEHPAUHWND__@@II@Z 0044cf13 f   dundas:ugsidehd.obj
 0001:0004bf4a       ?SideHdgWndProc@CUGSideHdg@@SGJPAUHWND__@@IIJ@Z 0044cf4a f   dundas:ugsidehd.obj
 0001:0004c067       ?Update@CUGSideHdg@@QAEXXZ 0044d067 f   dundas:ugsidehd.obj
 0001:0004c0c3       ??0CUGTopHdg@@QAE@XZ       0044d0c3 f   dundas:ugtophdg.obj
 0001:0004c112       ??1CUGTopHdg@@UAE@XZ       0044d112 f   dundas:ugtophdg.obj
 0001:0004c12f       ??_ECUGTopHdg@@UAEPAXI@Z   0044d12f f i dundas:ugtophdg.obj
 0001:0004c12f       ??_GCUGTopHdg@@UAEPAXI@Z   0044d12f f i dundas:ugtophdg.obj
 0001:0004c14b       ?CheckForUserResize@CUGTopHdg@@IAEXPAUtagPOINT@@@Z 0044d14b f   dundas:ugtophdg.obj
 0001:0004c281       ?CreateTopHdgWindow@CUGTopHdg@@QAEHKUtagRECT@@PAUHWND__@@I@Z 0044d281 f   dundas:ugtophdg.obj
 0001:0004c378       ?DrawCellsIntern@CUGTopHdg@@IAEXPAUHDC__@@@Z 0044d378 f   dundas:ugtophdg.obj
 0001:0004c63d       ?GetCellFromPoint@CUGTopHdg@@IAEHPAUtagPOINT@@PAH1PAUtagRECT@@@Z 0044d63d f   dundas:ugtophdg.obj
 0001:0004c70b       ?GetCellRect@CUGTopHdg@@IAEHHHPAUtagRECT@@@Z 0044d70b f   dundas:ugtophdg.obj
 0001:0004c721       ?GetCellRect@CUGTopHdg@@IAEHPAH0PAUtagRECT@@@Z 0044d721 f   dundas:ugtophdg.obj
 0001:0004c850       ?GetJoinRange@CUGTopHdg@@IAEHPAH000@Z 0044d850 f   dundas:ugtophdg.obj
 0001:0004c929       ?GetTHRowHeight@CUGTopHdg@@IAEHH@Z 0044d929 f   dundas:ugtophdg.obj
 0001:0004c947       ?Moved@CUGTopHdg@@QAEXXZ   0044d947 f   dundas:ugtophdg.obj
 0001:0004c96d       ?OnLButtonDblClk@CUGTopHdg@@QAEXIUtagPOINT@@@Z 0044d96d f   dundas:ugtophdg.obj
 0001:0004ca1a       ?OnLButtonDown@CUGTopHdg@@QAEXIUtagPOINT@@@Z 0044da1a f   dundas:ugtophdg.obj
 0001:0004caf2       ?OnLButtonUp@CUGTopHdg@@QAEXIUtagPOINT@@@Z 0044daf2 f   dundas:ugtophdg.obj
 0001:0004cc72       ?OnMouseMove@CUGTopHdg@@QAEXIUtagPOINT@@@Z 0044dc72 f   dundas:ugtophdg.obj
 0001:0004cf94       ?OnPaint@CUGTopHdg@@QAEXXZ 0044df94 f   dundas:ugtophdg.obj
 0001:0004d002       ?OnRButtonDown@CUGTopHdg@@QAEXIUtagPOINT@@@Z 0044e002 f   dundas:ugtophdg.obj
 0001:0004d0ad       ?OnRButtonUp@CUGTopHdg@@QAEXIUtagPOINT@@@Z 0044e0ad f   dundas:ugtophdg.obj
 0001:0004d128       ?OnSetCursor@CUGTopHdg@@QAEHPAUHWND__@@II@Z 0044e128 f   dundas:ugtophdg.obj
 0001:0004d159       ?TopHdgWndProc@CUGTopHdg@@SGJPAUHWND__@@IIJ@Z 0044e159 f   dundas:ugtophdg.obj
 0001:0004d276       ?Update@CUGTopHdg@@QAEXXZ  0044e276 f   dundas:ugtophdg.obj
 0001:0004d2d2       ??0CUGVScroll@@QAE@XZ      0044e2d2 f   dundas:ugvscrol.obj
 0001:0004d2ef       ??_ECUGVScroll@@UAEPAXI@Z  0044e2ef f i dundas:ugvscrol.obj
 0001:0004d2ef       ??_GCUGVScroll@@UAEPAXI@Z  0044e2ef f i dundas:ugvscrol.obj
 0001:0004d30c       ?CreateVScrollWindow@CUGVScroll@@QAEHKUtagRECT@@PAUHWND__@@I@Z 0044e30c f   dundas:ugvscrol.obj
 0001:0004d3b0       ?Moved@CUGVScroll@@QAEXXZ  0044e3b0 f   dundas:ugvscrol.obj
 0001:0004d558       ?OnRButtonDown@CUGVScroll@@UAEXIUtagPOINT@@@Z 0044e558 f   dundas:ugvscrol.obj
 0001:0004d58f       ?Update@CUGVScroll@@QAEXXZ 0044e58f f   dundas:ugvscrol.obj
 0001:0004d594       ?VScroll@CUGVScroll@@QAEXII@Z 0044e594 f   dundas:ugvscrol.obj
 0001:0004d7a8       ?VScrollWndProc@CUGVScroll@@SGJPAUHWND__@@IIJ@Z 0044e7a8 f   dundas:ugvscrol.obj
 0001:0004d82a       ??0CUGDataSource@@QAE@XZ   0044e82a f   dundas:ugdtasrc.obj
 0001:0004d83b       ??1CUGDataSource@@UAE@XZ   0044e83b f   dundas:ugdtasrc.obj
 0001:0004d842       ??_ECUGDataSource@@UAEPAXI@Z 0044e842 f i dundas:ugdtasrc.obj
 0001:0004d842       ??_GCUGDataSource@@UAEPAXI@Z 0044e842 f i dundas:ugdtasrc.obj
 0001:0004d85f       ?FindFirst@CUGDataSource@@UAEHPADPAHPAJJ@Z 0044e85f f   dundas:ugdtasrc.obj
 0001:0004d85f       ?FindNext@CUGDataSource@@UAEHPADPAHPAJH@Z 0044e85f f   dundas:ugdtasrc.obj
 0001:0004d865       ?GetColName@CUGMem@@UAEHHPAPAD@Z 0044e865 f   dundas:ugmemman.obj
 0001:0004d865       ?AppendRow@CUGDataSource@@UAEHPAPAVCUGCell@@H@Z 0044e865 f   dundas:ugdtasrc.obj
 0001:0004d865       ?GetColType@CUGMem@@UAEHHPAH@Z 0044e865 f   dundas:ugmemman.obj
 0001:0004d865       ?SetPassword@CUGDataSource@@UAEHPBD0@Z 0044e865 f   dundas:ugdtasrc.obj
 0001:0004d865       ?GetColFromName@CUGDataSource@@UAEHPBDPAH@Z 0044e865 f   dundas:ugdtasrc.obj
 0001:0004d865       ?GetPrevNonBlankCol@CUGDataSource@@UAEHPAHJ@Z 0044e865 f   dundas:ugdtasrc.obj
 0001:0004d865       ?SetOption@CUGCellType@@UAEHJJ@Z 0044e865 f   dundas:ugceltyp.obj
 0001:0004d865       ?AppendRow@CUGMem@@UAEHPAPAVCUGCell@@H@Z 0044e865 f   dundas:ugmemman.obj
 0001:0004d865       ?GetColName@CUGDataSource@@UAEHHPAPAD@Z 0044e865 f   dundas:ugdtasrc.obj
 0001:0004d865       ?Open@CUGDataSource@@UAEHPBD0@Z 0044e865 f   dundas:ugdtasrc.obj
 0001:0004d865       ?GetColType@CUGDataSource@@UAEHHPAH@Z 0044e865 f   dundas:ugdtasrc.obj
 0001:0004d865       ?SortBy@CUGDataSource@@UAEHHH@Z 0044e865 f   dundas:ugdtasrc.obj
 0001:0004d865       ?SaveAs@CUGMem@@UAEHPBD0@Z 0044e865 f   dundas:ugmemman.obj
 0001:0004d865       ?SaveAs@CUGDataSource@@UAEHPBD0@Z 0044e865 f   dundas:ugdtasrc.obj
 0001:0004d865       ?GetOption@CUGCellType@@UAEHJPAJ@Z 0044e865 f   dundas:ugceltyp.obj
 0001:0004d865       ?SetPassword@CUGMem@@UAEHPBD0@Z 0044e865 f   dundas:ugmemman.obj
 0001:0004d865       ?DeleteCell@CUGDataSource@@UAEHHJ@Z 0044e865 f   dundas:ugdtasrc.obj
 0001:0004d865       ?Open@CUGMem@@UAEHPBD0@Z   0044e865 f   dundas:ugmemman.obj
 0001:0004d86b       ?DeleteCol@CUGDataSource@@UAEHH@Z 0044e86b f   dundas:ugdtasrc.obj
 0001:0004d86b       ?InsertCol@CUGDataSource@@UAEHH@Z 0044e86b f   dundas:ugdtasrc.obj
 0001:0004d86b       ?InsertRow@CUGDataSource@@UAEHJ@Z 0044e86b f   dundas:ugdtasrc.obj
 0001:0004d86b       ?DeleteRow@CUGDataSource@@UAEHJ@Z 0044e86b f   dundas:ugdtasrc.obj
 0001:0004d871       ??0CUGCellType@@QAE@XZ     0044e871 f   dundas:ugceltyp.obj
 0001:0004d887       ??1CUGCellType@@QAE@XZ     0044e887 f   dundas:ugceltyp.obj
 0001:0004d88e       ?CanOverLap@CUGCellType@@QAEHPAVCUGCell@@@Z 0044e88e f   dundas:ugceltyp.obj
 0001:0004d8bb       ?GetMaxCount@CUGPtrList@@QAEHXZ 0044e8bb f   dundas:ugptrlst.obj
 0001:0004d8bb       ?CanTextEdit@CUGCellType@@QAEHXZ 0044e8bb f   dundas:ugceltyp.obj
 0001:0004d8bf       ?DrawBitmap@CUGCellType@@QAEHPAUHDC__@@PAUHBITMAP__@@PAUtagRECT@@K@Z 0044e8bf f   dundas:ugceltyp.obj
 0001:0004da0d       ?DrawBorder@CUGCellType@@QAEXPAUHDC__@@PAUtagRECT@@1PAVCUGCell@@@Z 0044ea0d f   dundas:ugceltyp.obj
 0001:0004e157       ?DrawTextA@CUGCellType@@QAEXPAUHDC__@@PAUtagRECT@@HHJPAVCUGCell@@HH@Z 0044f157 f   dundas:ugceltyp.obj
 0001:0004e54b       ?GetBestSize@CUGCellType@@UAEXPAUHDC__@@PAUtagSIZE@@PAVCUGCell@@@Z 0044f54b f   dundas:ugceltyp.obj
 0001:0004e60c       ?GetCellOverlapInfo@CUGCellType@@QAEHPAUHDC__@@HJPAHPAVCUGCell@@@Z 0044f60c f   dundas:ugceltyp.obj
 0001:0004e759       ?GetEditArea@CUGCellType@@UAEHPAUtagRECT@@@Z 0044f759 f   dundas:ugceltyp.obj
 0001:0004e75e       ?GetName@CUGCellType@@UAEPBDXZ 0044f75e f   dundas:ugceltyp.obj
 0001:0004e764       ?GetUGID@CUGCellType@@UAEPBUUGID@@XZ 0044f764 f   dundas:ugceltyp.obj
 0001:0004e76a       ?OnKeyDown@CUGCellType@@UAEHHJPAI@Z 0044f76a f   dundas:ugceltyp.obj
 0001:0004e76a       ?OnCharDown@CUGCellType@@UAEHHJPAI@Z 0044f76a f   dundas:ugceltyp.obj
 0001:0004e76f       ?OnMouseMove@CUGCellType@@UAEHHJPAUtagPOINT@@I@Z 0044f76f f   dundas:ugceltyp.obj
 0001:0004e76f       ?OnDClicked@CUGCellType@@UAEHHJPAUtagRECT@@PAUtagPOINT@@@Z 0044f76f f   dundas:ugceltyp.obj
 0001:0004e774       ?OnDraw@CUGCellType@@UAEXPAUHDC__@@PAUtagRECT@@HJPAVCUGCell@@HH@Z 0044f774 f   dundas:ugceltyp.obj
 0001:0004e888       ?OnPrint@CUGCellType@@UAEXPAUHDC__@@PAUtagRECT@@HJPAVCUGCell@@@Z 0044f888 f   dundas:ugceltyp.obj
 0001:0004e97f       ?OnRClicked@CUGCellType@@UAEHHJHPAUtagRECT@@PAUtagPOINT@@@Z 0044f97f f   dundas:ugceltyp.obj
 0001:0004e97f       ?OnLClicked@CUGCellType@@UAEHHJHPAUtagRECT@@PAUtagPOINT@@@Z 0044f97f f   dundas:ugceltyp.obj
 0001:0004e984       ?SetID@CUGCellType@@QAEXH@Z 0044f984 f   dundas:ugceltyp.obj
 0001:0004e98e       ??0CUGEdit@@QAE@XZ         0044f98e f   dundas:ugedit.obj
 0001:0004e99e       ??1CUGEdit@@UAE@XZ         0044f99e f   dundas:ugedit.obj
 0001:0004e9a5       ??_GCUGEdit@@UAEPAXI@Z     0044f9a5 f i dundas:ugedit.obj
 0001:0004e9a5       ??_ECUGEdit@@UAEPAXI@Z     0044f9a5 f i dundas:ugedit.obj
 0001:0004e9c2       ?CalcEditRect@CUGEdit@@IAEXXZ 0044f9c2 f   dundas:ugedit.obj
 0001:0004ec43       ?CreateEditWindow@CUGEdit@@QAEHKUtagRECT@@PAUHWND__@@I@Z 0044fc43 f   dundas:ugedit.obj
 0001:0004ecc6       ?EditWndProc@CUGEdit@@SGJPAUHWND__@@IIJ@Z 0044fcc6 f   dundas:ugedit.obj
 0001:0004edcd       ?OnChar@CUGEdit@@IAEHII@Z  0044fdcd f   dundas:ugedit.obj
 0001:0004ee1f       ?OnGetDlgCode@CUGEdit@@IAEIXZ 0044fe1f f   dundas:ugedit.obj
 0001:0004ee54       ?OnKeyDown@CUGEdit@@IAEXII@Z 0044fe54 f   dundas:ugedit.obj
 0001:0004ef69       ?OnKillFocus@CUGEdit@@IAEXPAUHWND__@@@Z 0044ff69 f   dundas:ugedit.obj
 0001:0004f010       ?OnSetCursor@CUGEdit@@IAEHPAUHWND__@@II@Z 00450010 f   dundas:ugedit.obj
 0001:0004f02a       ?OnSetFocus@CUGEdit@@IAEXPAUHWND__@@@Z 0045002a f   dundas:ugedit.obj
 0001:0004f08d       ??0CUGTab@@QAE@XZ          0045008d f   dundas:ugtab.obj
 0001:0004f160       ??1CUGTab@@UAE@XZ          00450160 f   dundas:ugtab.obj
 0001:0004f1c1       ??_ECUGTab@@UAEPAXI@Z      004501c1 f i dundas:ugtab.obj
 0001:0004f1c1       ??_GCUGTab@@UAEPAXI@Z      004501c1 f i dundas:ugtab.obj
 0001:0004f1dd       ?AdjustScrollBars@CUGTab@@QAEHXZ 004501dd f   dundas:ugtab.obj
 0001:0004f255       ?CreateTabWindow@CUGTab@@QAEHKUtagRECT@@PAUHWND__@@I@Z 00450255 f   dundas:ugtab.obj
 0001:0004f353       ?MakeCurrentTabVisible@CUGTab@@AAEXXZ 00450353 f   dundas:ugtab.obj
 0001:0004f3f6       ?OnCreate@CUGTab@@IAEHXZ   004503f6 f   dundas:ugtab.obj
 0001:0004f46c       ?OnHScroll@CUGTab@@IAEXIIPAUHWND__@@@Z 0045046c f   dundas:ugtab.obj
 0001:0004f4ca       ?OnLButtonDown@CUGTab@@IAEXIUtagPOINT@@@Z 004504ca f   dundas:ugtab.obj
 0001:0004f55f       ?OnMouseMove@CUGTab@@IAEXIUtagPOINT@@@Z 0045055f f   dundas:ugtab.obj
 0001:0004f5d3       ?OnPaint@CUGTab@@IAEXXZ    004505d3 f   dundas:ugtab.obj
 0001:0004fb0f       ?OnRButtonDown@CUGTab@@IAEXIUtagPOINT@@@Z 00450b0f f   dundas:ugtab.obj
 0001:0004fb93       ?OnSetCursor@CUGTab@@IAEHPAUHWND__@@II@Z 00450b93 f   dundas:ugtab.obj
 0001:0004fbc4       ?OnSize@CUGTab@@IAEXIHH@Z  00450bc4 f   dundas:ugtab.obj
 0001:0004fc22       ?OnTabSizing@CUGTab@@QAEXH@Z 00450c22 f   dundas:ugtab.obj
 0001:0004fd05       ?TabWndProc@CUGTab@@SGJPAUHWND__@@IIJ@Z 00450d05 f   dundas:ugtab.obj
 0001:0004fe34       ?Update@CUGCnrBtn@@QAEXXZ  00450e34 f   dundas:ugcnrbtn.obj
 0001:0004fe34       ?Update@CUGTab@@QAEXXZ     00450e34 f   dundas:ugtab.obj
 0001:0004fe34       ?Update@CUGGrid@@QAEXXZ    00450e34 f   dundas:uggrid.obj
 0001:0004fe4f       ??0CUGGridInfo@@QAE@XZ     00450e4f f   dundas:uggdinfo.obj
 0001:000500e8       ??1CUGGridInfo@@UAE@XZ     004510e8 f   dundas:uggdinfo.obj
 0001:000501e1       ??_GCUGGridInfo@@UAEPAXI@Z 004511e1 f i dundas:uggdinfo.obj
 0001:000501e1       ??_ECUGGridInfo@@UAEPAXI@Z 004511e1 f i dundas:uggdinfo.obj
 0001:000501fd       ?OnSetFocus@CUGCtrl@@UAEXH@Z 004511fd f   dundas:ugctrl.obj
 0001:000501fd       ?OnKillFocus@CUGCtrl@@UAEXH@Z 004511fd f   dundas:ugctrl.obj
 0001:000501fd       ?ApplyDisplayFormat@CUGCellFormat@@QAEXPAVCUGCell@@@Z 004511fd f   dundas:ugformat.obj
 0001:000501fd       ?OnTabSelected@CUGCtrl@@UAEXH@Z 004511fd f   dundas:ugctrl.obj
 0001:000501fd       ?OnSheetSetup@CUGCtrl@@UAEXH@Z 004511fd f   dundas:ugctrl.obj
 0001:00050200       ??0CUGPrint@@QAE@XZ        00451200 f   dundas:ugprint.obj
 0001:0005022f       ??1CUGPrint@@QAE@XZ        0045122f f   dundas:ugprint.obj
 0001:00050234       ?ClearPrintList@CUGPrint@@AAEHXZ 00451234 f   dundas:ugprint.obj
 0001:00050255       ??0CUGHint@@QAE@XZ         00451255 f   dundas:ughint.obj
 0001:0005028a       ??1CUGHint@@UAE@XZ         0045128a f   dundas:ughint.obj
 0001:000502bf       ??_GCUGHint@@UAEPAXI@Z     004512bf f i dundas:ughint.obj
 0001:000502bf       ??_ECUGHint@@UAEPAXI@Z     004512bf f i dundas:ughint.obj
 0001:000502db       ?CreateHintWindow@CUGHint@@QAEHKUtagRECT@@PAUHWND__@@I@Z 004512db f   dundas:ughint.obj
 0001:000503d4       ?Hide@CUGHint@@QAEHXZ      004513d4 f   dundas:ughint.obj
 0001:000503fc       ?HintWndProc@CUGHint@@SGJPAUHWND__@@IIJ@Z 004513fc f   dundas:ughint.obj
 0001:0005045e       ?MoveHintWindow@CUGHint@@QAEHHHH@Z 0045145e f   dundas:ughint.obj
 0001:000505c2       ?OnCreate@CUGHint@@IAEXXZ  004515c2 f   dundas:ughint.obj
 0001:00050623       ?OnPaint@CUGHint@@IAEXXZ   00451623 f   dundas:ughint.obj
 0001:0005070d       ?SetText@CUGHint@@QAEHPBDH@Z 0045170d f   dundas:ughint.obj
 0001:00050739       ?SetTextAlign@CUGHint@@QAEHH@Z 00451739 f   dundas:ughint.obj
 0001:00050745       ?SetWindowAlign@CUGHint@@QAEHH@Z 00451745 f   dundas:ughint.obj
 0001:00050751       ?Show@CUGHint@@QAEHXZ      00451751 f   dundas:ughint.obj
 0001:00050770       ??0CUGDropListType@@QAE@XZ 00451770 f   dundas:ugdltype.obj
 0001:000507df       ??1CUGDropListType@@QAE@XZ 004517df f   dundas:ugdltype.obj
 0001:0005081b       ?GetEditArea@CUGDropListType@@UAEHPAUtagRECT@@@Z 0045181b f   dundas:ugdltype.obj
 0001:0005082e       ?GetName@CUGDropListType@@UAEPBDXZ 0045182e f   dundas:ugdltype.obj
 0001:00050834       ?GetUGID@CUGDropListType@@UAEPBUUGID@@XZ 00451834 f   dundas:ugdltype.obj
 0001:0005083a       ?OnCharDown@CUGDropListType@@UAEHHJPAI@Z 0045183a f   dundas:ugdltype.obj
 0001:00050853       ?OnDClicked@CUGDropListType@@UAEHHJPAUtagRECT@@PAUtagPOINT@@@Z 00451853 f   dundas:ugdltype.obj
 0001:0005087f       ?OnDraw@CUGDropListType@@UAEXPAUHDC__@@PAUtagRECT@@HJPAVCUGCell@@HH@Z 0045187f f   dundas:ugdltype.obj
 0001:00050a60       ?OnKeyDown@CUGDropListType@@UAEHHJPAI@Z 00451a60 f   dundas:ugdltype.obj
 0001:00050a97       ?OnKillFocus@CUGDropListType@@UAEXHJPAVCUGCell@@@Z 00451a97 f   dundas:ugdltype.obj
 0001:00050aa2       ?OnLClicked@CUGDropListType@@UAEHHJHPAUtagRECT@@PAUtagPOINT@@@Z 00451aa2 f   dundas:ugdltype.obj
 0001:00050b49       ?OnMouseMove@CUGDropListType@@UAEHHJPAUtagPOINT@@I@Z 00451b49 f   dundas:ugdltype.obj
 0001:00050b9e       ?StartDropList@CUGDropListType@@IAEHXZ 00451b9e f   dundas:ugdltype.obj
 0001:0005105d       ??0CUGArrowType@@QAE@XZ    0045205d f   dundas:ugctarrw.obj
 0001:00051073       ??1CUGArrowType@@QAE@XZ    00452073 f   dundas:ugctarrw.obj
 0001:0005107e       ?OnDraw@CUGArrowType@@UAEXPAUHDC__@@PAUtagRECT@@HJPAVCUGCell@@HH@Z 0045207e f   dundas:ugctarrw.obj
 0001:00051411       ??1CUGDrawHint@@QAE@XZ     00452411 f   dundas:ugdrwhnt.obj
 0001:00051416       ?AddHint@CUGDrawHint@@QAEXHJ@Z 00452416 f   dundas:ugdrwhnt.obj
 0001:0005142e       ?AddHint@CUGDrawHint@@QAEXHJHJ@Z 0045242e f   dundas:ugdrwhnt.obj
 0001:000514be       ?AddToHint@CUGDrawHint@@QAEXHJHJ@Z 004524be f   dundas:ugdrwhnt.obj
 0001:00051532       ?ClearHints@CUGDrawHint@@QAEXXZ 00452532 f   dundas:ugdrwhnt.obj
 0001:0005156d       ?IsInvalid@CUGDrawHint@@QAEHHJ@Z 0045256d f   dundas:ugdrwhnt.obj
 0001:000515b5       ?IsValid@CUGDrawHint@@QAEHHJ@Z 004525b5 f   dundas:ugdrwhnt.obj
 0001:000515de       ?SetAsValid@CUGDrawHint@@QAEXHJ@Z 004525de f   dundas:ugdrwhnt.obj
 0001:0005161c       ??0CUGMem@@QAE@XZ          0045261c f   dundas:ugmemman.obj
 0001:0005163f       ??1CUGMem@@UAE@XZ          0045263f f   dundas:ugmemman.obj
 0001:00051655       ??_ECUGMem@@UAEPAXI@Z      00452655 f i dundas:ugmemman.obj
 0001:00051655       ??_GCUGMem@@UAEPAXI@Z      00452655 f i dundas:ugmemman.obj
 0001:00051671       __matherr                  00452671 f   LIBCMT:matherr.obj
 0001:00051671       ?AppendCol@CUGMem@@UAEHXZ  00452671 f   dundas:ugmemman.obj
 0001:00051671       ?AppendRow@CUGMem@@UAEHXZ  00452671 f   dundas:ugmemman.obj
 0001:00051671       ?OnSystemChange@CUGCellType@@UAEHXZ 00452671 f   dundas:ugceltyp.obj
 0001:00051674       ?DeleteCell@CUGMem@@UAEHHJ@Z 00452674 f   dundas:ugmemman.obj
 0001:000516c9       ?DeleteCol@CUGMem@@UAEHH@Z 004526c9 f   dundas:ugmemman.obj
 0001:00051783       ?DeleteRow@CUGMem@@UAEHJ@Z 00452783 f   dundas:ugmemman.obj
 0001:00051835       ?Empty@CUGMem@@UAEHXZ      00452835 f   dundas:ugmemman.obj
 0001:000518be       ?FindFirst@CUGMem@@UAEHPADPAHPAJJ@Z 004528be f   dundas:ugmemman.obj
 0001:000518eb       ?FindNext@CUGMem@@UAEHPADPAHPAJH@Z 004528eb f   dundas:ugmemman.obj
 0001:000519f4       ?GetCell@CUGMem@@UAEHHJPAVCUGCell@@@Z 004529f4 f   dundas:ugmemman.obj
 0001:00051aad       ?GetNumCols@CUGDataSource@@UAEHXZ 00452aad f   dundas:ugdtasrc.obj
 0001:00051aad       ?GetNumCols@CUGMem@@UAEHXZ 00452aad f   dundas:ugmemman.obj
 0001:00051aad       ?AppendRow@CUGDataSource@@UAEHXZ 00452aad f   dundas:ugdtasrc.obj
 0001:00051aad       ?StartTransaction@CUGDataSource@@UAEHXZ 00452aad f   dundas:ugdtasrc.obj
 0001:00051aad       ?GetNumRows@CUGMem@@UAEJXZ 00452aad f   dundas:ugmemman.obj
 0001:00051aad       ?FinishTransaction@CUGDataSource@@UAEHXZ 00452aad f   dundas:ugdtasrc.obj
 0001:00051aad       ?AppendCol@CUGDataSource@@UAEHXZ 00452aad f   dundas:ugdtasrc.obj
 0001:00051aad       ?Save@CUGDataSource@@UAEHXZ 00452aad f   dundas:ugdtasrc.obj
 0001:00051aad       ?GetNumRows@CUGDataSource@@UAEJXZ 00452aad f   dundas:ugdtasrc.obj
 0001:00051aad       ?Close@CUGMem@@UAEHXZ      00452aad f   dundas:ugmemman.obj
 0001:00051aad       ?Close@CUGDataSource@@UAEHXZ 00452aad f   dundas:ugdtasrc.obj
 0001:00051aad       ?Empty@CUGDataSource@@UAEHXZ 00452aad f   dundas:ugdtasrc.obj
 0001:00051aad       ?CancelTransaction@CUGDataSource@@UAEHXZ 00452aad f   dundas:ugdtasrc.obj
 0001:00051aad       ?Save@CUGMem@@UAEHXZ       00452aad f   dundas:ugmemman.obj
 0001:00051ab1       ?GetPrevNonBlankCol@CUGMem@@UAEHPAHJ@Z 00452ab1 f   dundas:ugmemman.obj
 0001:00051b2c       ?GotoCol@CUGMem@@AAEHH@Z   00452b2c f   dundas:ugmemman.obj
 0001:00051b79       ?GotoRow@CUGMem@@AAEHJ@Z   00452b79 f   dundas:ugmemman.obj
 0001:00051bd8       ?InsertCol@CUGMem@@UAEHH@Z 00452bd8 f   dundas:ugmemman.obj
 0001:00051c49       ?InsertRow@CUGMem@@UAEHJ@Z 00452c49 f   dundas:ugmemman.obj
 0001:00051c8b       ?NextRow@CUGMem@@AAEHXZ    00452c8b f   dundas:ugmemman.obj
 0001:00051caf       ?PrevCol@CUGMem@@AAEHXZ    00452caf f   dundas:ugmemman.obj
 0001:00051cca       ?PrevRow@CUGMem@@AAEHXZ    00452cca f   dundas:ugmemman.obj
 0001:00051cee       ?SetCell@CUGMem@@UAEHHJPAVCUGCell@@@Z 00452cee f   dundas:ugmemman.obj
 0001:00051e76       ?SortBy@CUGDataSource@@UAEHPAHHH@Z 00452e76 f   dundas:ugdtasrc.obj
 0001:00051e76       ?OnHitBottom@CUGDataSource@@UAEHJJPAJ@Z 00452e76 f   dundas:ugdtasrc.obj
 0001:00051e76       ?SetCell@CUGDataSource@@UAEHHJPAVCUGCell@@@Z 00452e76 f   dundas:ugdtasrc.obj
 0001:00051e76       ?GetOption@CUGDataSource@@UAEHHAAJ0@Z 00452e76 f   dundas:ugdtasrc.obj
 0001:00051e76       ?GetCell@CUGDataSource@@UAEHHJPAVCUGCell@@@Z 00452e76 f   dundas:ugdtasrc.obj
 0001:00051e76       ?GetOption@CUGMem@@UAEHHAAJ0@Z 00452e76 f   dundas:ugmemman.obj
 0001:00051e76       ?SetOption@CUGMem@@UAEHHJJ@Z 00452e76 f   dundas:ugmemman.obj
 0001:00051e76       ?OnHitTop@CUGDataSource@@UAEHJJPAJ@Z 00452e76 f   dundas:ugdtasrc.obj
 0001:00051e76       ?SetOption@CUGDataSource@@UAEHHJJ@Z 00452e76 f   dundas:ugdtasrc.obj
 0001:00051e7c       ?SortBy@CUGMem@@UAEHHH@Z   00452e7c f   dundas:ugmemman.obj
 0001:00051e8f       ?SortBy@CUGMem@@UAEHPAHHH@Z 00452e8f f   dundas:ugmemman.obj
 0001:0005206d       ??0CUGLstBox@@QAE@XZ       0045306d f   dundas:uglstbox.obj
 0001:0005208a       ??_ECUGLstBox@@UAEPAXI@Z   0045308a f i dundas:uglstbox.obj
 0001:0005208a       ??_GCUGLstBox@@UAEPAXI@Z   0045308a f i dundas:uglstbox.obj
 0001:000520a7       ?ListBoxWndProc@CUGLstBox@@SGJPAUHWND__@@IIJ@Z 004530a7 f   dundas:uglstbox.obj
 0001:0005218c       ?OnKeyDown@CUGLstBox@@IAEXPAUHWND__@@II@Z 0045318c f   dundas:uglstbox.obj
 0001:000521d9       ?OnKillFocus@CUGLstBox@@IAEXPAUHWND__@@@Z 004531d9 f   dundas:uglstbox.obj
 0001:0005221f       ?OnLButtonUp@CUGLstBox@@IAEXPAUHWND__@@IUtagPOINT@@@Z 0045321f f   dundas:uglstbox.obj
 0001:0005224f       ?OnSetFocus@CUGLstBox@@IAEXPAUHWND__@@@Z 0045324f f   dundas:uglstbox.obj
 0001:00052270       ?Select@CUGLstBox@@AAEXPAUHWND__@@@Z 00453270 f   dundas:uglstbox.obj
 0001:00052374       ??0bad_alloc@std@@QAE@ABV01@@Z 00453374 f i LIBCMT:new.obj
 0001:0005238f       ??1bad_alloc@std@@UAE@XZ   0045338f f i LIBCMT:new.obj
 0001:0005239a       ??2@YAPAXI@Z               0045339a f   LIBCMT:new.obj
 0001:000523eb       ??_Gbad_alloc@std@@UAEPAXI@Z 004533eb f i LIBCMT:new.obj
 0001:000523eb       ??_Ebad_alloc@std@@UAEPAXI@Z 004533eb f i LIBCMT:new.obj
 0001:00052410       ??3@YAXPAX@Z               00453410 f   LIBCMT:delete.obj
 0001:00052415       ___onexitinit              00453415 f   LIBCMT:onexit.obj
 0001:00052444       __onexit                   00453444 f   LIBCMT:onexit.obj
 0001:00052540       _atexit                    00453540 f   LIBCMT:onexit.obj
 0001:00052555       ___raise_securityfailure   00453555 f   LIBCMT:gs_report.obj
 0001:00052592       ___report_gsfailure        00453592 f   LIBCMT:gs_report.obj
 0001:0005268d       ___report_rangecheckfailure 0045368d f   LIBCMT:gs_report.obj
 0001:00052699       ___report_securityfailure  00453699 f   LIBCMT:gs_report.obj
 0001:00052769       @__security_check_cookie@4 00453769 f   LIBCMT:secchk.obj
 0001:00052780       __alloca_probe             00453780 f   LIBCMT:chkstk.obj
 0001:00052780       __chkstk                   00453780 f   LIBCMT:chkstk.obj
 0001:000527b0       __ftoui3                   004537b0 f   LIBCMT:ftol3.obj
 0001:000527bf       __ftoul3                   004537bf f   LIBCMT:ftol3.obj
 0001:000527ce       __ftol3                    004537ce f   LIBCMT:ftol3.obj
 0001:000527db       __ftol3_NaN                004537db f   LIBCMT:ftol3.obj
 0001:000527f3       __ftol3_work               004537f3 f   LIBCMT:ftol3.obj
 0001:00052879       __ftol3_common             00453879 f   LIBCMT:ftol3.obj
 0001:0005293b       __ftol3_arg_error          0045393b f   LIBCMT:ftol3.obj
 0001:0005294d       __ftol3_except             0045394d f   LIBCMT:ftol3.obj
 0001:0005298f       __dtoui3                   0045398f f   LIBCMT:ftol3.obj
 0001:0005299e       __dtoul3                   0045399e f   LIBCMT:ftol3.obj
 0001:000529ad       __dtol3                    004539ad f   LIBCMT:ftol3.obj
 0001:000529ba       __dtol3_NaN                004539ba f   LIBCMT:ftol3.obj
 0001:000529d7       __dtol3_work               004539d7 f   LIBCMT:ftol3.obj
 0001:00052abc       __ultod3                   00453abc f   LIBCMT:ftol3.obj
 0001:00052b4d       __ltod3                    00453b4d f   LIBCMT:ftol3.obj
 0001:00052b80       _memset                    00453b80 f   LIBCMT:memset.obj
 0001:00052c10       ??1type_info@@UAE@XZ       00453c10 f   LIBCMT:typinfo.obj
 0001:00052c1e       ??_Etype_info@@UAEPAXI@Z   00453c1e f i LIBCMT:typinfo.obj
 0001:00052c1e       ??_Gtype_info@@UAEPAXI@Z   00453c1e f i LIBCMT:typinfo.obj
 0001:00052c3d       __fpmath                   00453c3d f   LIBCMT:fpinit.obj
 0001:00052c54       __cfltcvt_init             00453c54 f   LIBCMT:fpinit.obj
 0001:00052cc0       __CIsqrt                   00453cc0 f   LIBCMT:sqrt.obj
 0001:00052cd4       _sqrt                      00453cd4     LIBCMT:sqrt.obj
 0001:00052d80       _floor                     00453d80 f   LIBCMT:floor_pentium4.obj
 0001:00052dc0       __floor_pentium4           00453dc0 f   LIBCMT:floor_pentium4.obj
 0001:00052ea1       _WinMainCRTStartup         00453ea1 f   LIBCMT:wincrt0.obj
 0001:00053022       ??0_LocaleUpdate@@QAE@PAUlocaleinfo_struct@@@Z 00454022 f i LIBCMT:strtod.obj
 0001:000530aa       __strtod_l                 004540aa f   LIBCMT:strtod.obj
 0001:000531c1       _strtod                    004541c1 f   LIBCMT:strtod.obj
 0001:000533fc       _strtol                    004543fc f   LIBCMT:strtol.obj
 0001:00053426       _strtoul                   00454426 f   LIBCMT:strtol.obj
 0001:00053450       _memcpy                    00454450 f   LIBCMT:memcpy.obj
 0001:00053b09       __ecvt_s                   00454b09 f   LIBCMT:fcvt.obj
 0001:00053bc0       _log10                     00454bc0 f   LIBCMT:log10.obj
 0001:00053c00       __CIlog10                  00454c00 f   LIBCMT:log10.obj
 0001:00053c3b       __CIlog10_default          00454c3b f   LIBCMT:log10.obj
 0001:00053c4f       __log10_default            00454c4f     LIBCMT:log10.obj
 0001:00053d10       __aulldiv                  00454d10 f   LIBCMT:ulldiv.obj
 0001:00053d80       __ftol2_sse                00454d80 f   LIBCMT:ftol2.obj
 0001:00053d89       __ftol2_pentium4           00454d89 f   LIBCMT:ftol2.obj
 0001:00053d9c       __ftol2_sse_excpt          00454d9c f   LIBCMT:ftol2.obj
 0001:00053db6       __ftol2                    00454db6 f   LIBCMT:ftol2.obj
 0001:00053e30       _ceil                      00454e30 f   LIBCMT:ceil_pentium4.obj
 0001:00053e70       __ceil_pentium4            00454e70 f   LIBCMT:ceil_pentium4.obj
 0001:00053f50       __alldiv                   00454f50 f   LIBCMT:lldiv.obj
 0001:00054000       __allmul                   00455000 f   LIBCMT:llmul.obj
 0001:00054040       _memmove                   00455040 f   LIBCMT:memmove.obj
 0001:00054684       _memcmp                    00455684 f   LIBCMT:memcmp.obj
 0001:00055e00       _strstr                    00456e00 f   LIBCMT:strstr.obj
 0001:00056063       _malloc                    00457063 f   LIBCMT:malloc.obj
 0001:000560f5       ??0exception@std@@QAE@ABQBDH@Z 004570f5 f   LIBCMT:stdexcpt.obj
 0001:00056110       ??0exception@std@@QAE@ABV01@@Z 00457110 f   LIBCMT:stdexcpt.obj
 0001:00056133       ??1exception@std@@UAE@XZ   00457133 f   LIBCMT:stdexcpt.obj
 0001:0005613e       ??4exception@std@@QAEAAV01@ABV01@@Z 0045713e f   LIBCMT:stdexcpt.obj
 0001:00056171       ??_Gexception@std@@UAEPAXI@Z 00457171 f i LIBCMT:stdexcpt.obj
 0001:00056171       ??_Eexception@std@@UAEPAXI@Z 00457171 f i LIBCMT:stdexcpt.obj
 0001:00056196       ?_Copy_str@exception@std@@AAEXPBD@Z 00457196 f   LIBCMT:stdexcpt.obj
 0001:000561d4       ?_Tidy@exception@std@@AAEXXZ 004571d4 f   LIBCMT:stdexcpt.obj
 0001:000561f0       ?what@exception@std@@UBEPBDXZ 004571f0 f   LIBCMT:stdexcpt.obj
 0001:000561fd       __callnewh                 004571fd f   LIBCMT:handler.obj
 0001:00056223       __initp_heap_handler       00457223 f   LIBCMT:handler.obj
 0001:00056230       __CxxThrowException@8      00457230 f   LIBCMT:throw.obj
 0001:00056293       _free                      00457293 f   LIBCMT:free.obj
 0001:000562cb       ___crtCorExitProcess       004572cb f   LIBCMT:crt0dat.obj
 0001:000562ff       ___crtExitProcess          004572ff f   LIBCMT:crt0dat.obj
 0001:00056315       __amsg_exit                00457315 f   LIBCMT:crt0dat.obj
 0001:00056331       __c_exit                   00457331 f   LIBCMT:crt0dat.obj
 0001:00056340       __cexit                    00457340 f   LIBCMT:crt0dat.obj
 0001:0005634f       __cinit                    0045734f f   LIBCMT:crt0dat.obj
 0001:000563d3       __exit                     004573d3 f   LIBCMT:crt0dat.obj
 0001:000563e7       __init_pointers            004573e7 f   LIBCMT:crt0dat.obj
 0001:00056455       __initterm_e               00457455 f   LIBCMT:crt0dat.obj
 0001:00056477       __lockexit                 00457477 f   LIBCMT:crt0dat.obj
 0001:00056480       __unlockexit               00457480 f   LIBCMT:crt0dat.obj
 0001:000565b8       _exit                      004575b8 f   LIBCMT:crt0dat.obj
 0001:000565cc       __msize                    004575cc f   LIBCMT:msize.obj
 0001:000565fd       __calloc_crt               004575fd f   LIBCMT:crtheap.obj
 0001:00056645       __malloc_crt               00457645 f   LIBCMT:crtheap.obj
 0001:0005668c       __realloc_crt              0045768c f   LIBCMT:crtheap.obj
 0001:000566e0       __SEH_prolog4              004576e0 f   LIBCMT:sehprolg4.obj
 0001:00056725       __SEH_epilog4              00457725 f   LIBCMT:sehprolg4.obj
 0001:00056740       __except_handler4          00457740 f   LIBCMT:chandler4.obj
 0001:000568d4       __crt_debugger_hook        004578d4 f   LIBCMT:dbghook.obj
 0001:000568dc       ___crtFlsAlloc             004578dc f   LIBCMT:winapisupp.obj
 0001:000568fa       ___crtFlsFree              004578fa f   LIBCMT:winapisupp.obj
 0001:00056919       ___crtFlsGetValue          00457919 f   LIBCMT:winapisupp.obj
 0001:00056938       ___crtFlsSetValue          00457938 f   LIBCMT:winapisupp.obj
 0001:0005695a       ___crtGetShowWindowMode    0045795a f   LIBCMT:winapisupp.obj
 0001:0005697d       ___crtInitializeCriticalSectionEx 0045797d f   LIBCMT:winapisupp.obj
 0001:000569ab       ___crtIsPackagedApp        004579ab f   LIBCMT:winapisupp.obj
 0001:000569eb       ___crtLoadWinApiPointers   004579eb f   LIBCMT:winapisupp.obj
 0001:00056c76       ___crtSetUnhandledExceptionFilter 00457c76 f   LIBCMT:winapisupp.obj
 0001:00056c84       ___crtSleep                00457c84 f   LIBCMT:winapisupp.obj
 0001:00056c92       ___crtTerminateProcess     00457c92 f   LIBCMT:winapisupp.obj
 0001:00056ca7       ___crtUnhandledException   00457ca7 f   LIBCMT:winapisupp.obj
 0001:00056cbd       __errcode                  00457cbd f   LIBCMT:fpexcept.obj
 0001:00056cef       __except1                  00457cef f   LIBCMT:fpexcept.obj
 0001:00056db7       __handle_exc               00457db7 f   LIBCMT:fpexcept.obj
 0001:00056f95       __handle_qnan1             00457f95 f   LIBCMT:fpexcept.obj
 0001:00056fe5       __raise_exc                00457fe5 f   LIBCMT:fpexcept.obj
 0001:00057006       __raise_exc_ex             00458006 f   LIBCMT:fpexcept.obj
 0001:000572eb       __set_errno_from_matherr   004582eb f   LIBCMT:fpexcept.obj
 0001:00057318       __umatherr                 00458318 f   LIBCMT:fpexcept.obj
 0001:000573b8       __VEC_memset               004583b8 f   LIBCMT:p4_memset.obj
 0001:00057480       ___isa_available_init      00458480 f   LIBCMT:cpu_disp.obj
 0001:00057600       _strcmp                    00458600 f   LIBCMT:strcmp.obj
 0001:0005768c       ?_Type_info_dtor@type_info@@CAXPAV1@@Z 0045868c f   LIBCMT:typname.obj
 0001:000576fd       __cfltcvt                  004586fd f   LIBCMT:cvt.obj
 0001:0005771e       __cfltcvt_l                0045871e f   LIBCMT:cvt.obj
 0001:000577a4       __cftoa_l                  004587a4 f   LIBCMT:cvt.obj
 0001:00057b00       __cftoe                    00458b00 f   LIBCMT:cvt.obj
 0001:00057c6f       __cftoe_l                  00458c6f f   LIBCMT:cvt.obj
 0001:00057e29       __cftof_l                  00458e29 f   LIBCMT:cvt.obj
 0001:00057eea       __cftog_l                  00458eea f   LIBCMT:cvt.obj
 0001:00057fe9       __cropzeros                00458fe9 f   LIBCMT:cvt.obj
 0001:00057ffa       __cropzeros_l              00458ffa f   LIBCMT:cvt.obj
 0001:0005807a       __fassign                  0045907a f   LIBCMT:cvt.obj
 0001:00058092       __fassign_l                00459092 f   LIBCMT:cvt.obj
 0001:000580d4       __forcdecpt                004590d4 f   LIBCMT:cvt.obj
 0001:000580e5       __forcdecpt_l              004590e5 f   LIBCMT:cvt.obj
 0001:00058159       __positive                 00459159 f   LIBCMT:cvt.obj
 0001:0005819b       __setdefaultprecision      0045919b f   LIBCMT:fp8.obj
 0001:000581c2       __initp_misc_cfltcvt_tab   004591c2 f   LIBCMT:cmiscdat.obj
 0001:000581f0       __trandisp1                004591f0 f   LIBCMT:87disp.obj
 0001:00058257       __trandisp2                00459257 f   LIBCMT:87disp.obj
 0001:000582e3       __rttospopde               004592e3     LIBCMT:87disp.obj
 0001:000582e8       __rttospop                 004592e8     LIBCMT:87disp.obj
 0001:000582ea       __rtnospop                 004592ea     LIBCMT:87disp.obj
 0001:000582ec       __rttosnpop                004592ec     LIBCMT:87disp.obj
 0001:000582ed       __rtnospopde               004592ed     LIBCMT:87disp.obj
 0001:000582f4       __rtzeropop                004592f4     LIBCMT:87disp.obj
 0001:000582f6       __rtzeronpop               004592f6     LIBCMT:87disp.obj
 0001:000582fb       __rtonepop                 004592fb     LIBCMT:87disp.obj
 0001:000582fd       __rtonenpop                004592fd     LIBCMT:87disp.obj
 0001:00058302       __tosnan1                  00459302     LIBCMT:87disp.obj
 0001:0005832d       __nosnan2                  0045932d     LIBCMT:87disp.obj
 0001:0005832f       __tosnan2                  0045932f     LIBCMT:87disp.obj
 0001:00058357       __nan2                     00459357     LIBCMT:87disp.obj
 0001:00058396       __rtindfpop                00459396     LIBCMT:87disp.obj
 0001:00058398       __rtindfnpop               00459398     LIBCMT:87disp.obj
 0001:000583a9       __rttosnpopde              004593a9     LIBCMT:87disp.obj
 0001:000583b3       __rtchsifneg               004593b3     LIBCMT:87disp.obj
 0001:000583c0       __startTwoArgErrorHandling 004593c0 f   LIBCMT:genexcep.obj
 0001:000583d7       __startOneArgErrorHandling 004593d7 f   LIBCMT:genexcep.obj
 0001:00058420       __twoToTOS                 00459420 f   LIBCMT:common.obj
 0001:00058435       __load_CW                  00459435 f   LIBCMT:common.obj
 0001:0005844c       __convertTOStoQNaN         0045944c f   LIBCMT:common.obj
 0001:00058465       __fload_withFB             00459465 f   LIBCMT:common.obj
 0001:000584a8       __checkTOS_withFB          004594a8 f   LIBCMT:common.obj
 0001:000584be       __fast_exit                004594be f   LIBCMT:common.obj
 0001:000584cb       __math_exit                004594cb f   LIBCMT:common.obj
 0001:000584f5       __check_overflow_exit      004594f5 f   LIBCMT:common.obj
 0001:00058509       __check_range_exit         00459509 f   LIBCMT:common.obj
 0001:000585ac       ___libm_error_support      004595ac f   LIBCMT:libm_error.obj
 0001:00058894       __sse2_mathfcns_init       00459894 f   LIBCMT:mathfcns.obj
 0001:000588a3       __floor_default            004598a3 f   LIBCMT:floor.obj
 0001:0005897a       __decomp                   0045997a f   LIBCMT:util.obj
 0001:00058a4c       __set_exp                  00459a4c f   LIBCMT:util.obj
 0001:00058a7b       __sptype                   00459a7b f   LIBCMT:util.obj
 0001:00058ad6       ___set_fpsr_sse2           00459ad6 f   LIBCMT:fpctrl.obj
 0001:00058b4c       __clrfp                    00459b4c f   LIBCMT:fpctrl.obj
 0001:00058b5d       __ctrlfp                   00459b5d f   LIBCMT:fpctrl.obj
 0001:00058b88       __set_statfp               00459b88 f   LIBCMT:fpctrl.obj
 0001:00058be0       __statfp                   00459be0 f   LIBCMT:fpctrl.obj
 0001:00058bf0       ?__CxxUnhandledExceptionFilter@@YGJPAU_EXCEPTION_POINTERS@@@Z 00459bf0 f   LIBCMT:unhandld.obj
 0001:00058c31       ___CxxSetUnhandledExceptionFilter 00459c31 f   LIBCMT:unhandld.obj
 0001:00058c3f       __XcptFilter               00459c3f f   LIBCMT:winxfltr.obj
 0001:00058d9a       __freefls@4                00459d9a f   LIBCMT:tidtable.obj
 0001:00058ecf       __getptd                   00459ecf f   LIBCMT:tidtable.obj
 0001:00058ee7       __getptd_noexit            00459ee7 f   LIBCMT:tidtable.obj
 0001:00058f56       __initptd                  00459f56 f   LIBCMT:tidtable.obj
 0001:00059009       __mtinit                   0045a009 f   LIBCMT:tidtable.obj
 0001:0005907f       __mtterm                   0045a07f f   LIBCMT:tidtable.obj
 0001:0005909c       __heap_init                0045a09c f   LIBCMT:heapinit.obj
 0001:000590b1       __ioinit                   0045a0b1 f   LIBCMT:ioinit.obj
 0001:00059365       __setargv                  0045a365 f   LIBCMT:stdargv.obj
 0001:00059594       __setenvp                  0045a594 f   LIBCMT:stdenvp.obj
 0001:00059675       __FF_MSGBANNER             0045a675 f   LIBCMT:crt0msg.obj
 0001:000596ae       __GET_RTERRMSG             0045a6ae f   LIBCMT:crt0msg.obj
 0001:000596d2       __NMSG_WRITE               0045a6d2 f   LIBCMT:crt0msg.obj
 0001:0005988f       ___set_app_type            0045a88f f   LIBCMT:errmode.obj
 0001:0005989c       __set_error_mode           0045a89c f   LIBCMT:errmode.obj
 0001:000598dc       ___security_init_cookie    0045a8dc f   LIBCMT:gs_support.obj
 0001:00059978       __RTC_Initialize           0045a978 f   LIBCMT:initsect.obj
 0001:00059998       __RTC_Terminate            0045a998 f   LIBCMT:initsect.obj
 0001:000599b8       ___crtGetEnvironmentStringsA 0045a9b8 f   LIBCMT:a_env.obj
 0001:00059a45       __wincmdln                 0045aa45 f   LIBCMT:wincmdln.obj
 0001:00059aa4       __call_reportfault         0045aaa4 f   LIBCMT:invarg.obj
 0001:00059bc9       __initp_misc_invarg        0045abc9 f   LIBCMT:invarg.obj
 0001:00059bd6       __invalid_parameter        0045abd6 f   LIBCMT:invarg.obj
 0001:00059c01       __invalid_parameter_noinfo 0045ac01 f   LIBCMT:invarg.obj
 0001:00059c11       __invoke_watson            0045ac11 f   LIBCMT:invarg.obj
 0001:00059c3c       ___doserrno                0045ac3c f   LIBCMT:dosmap.obj
 0001:00059c4f       __dosmaperr                0045ac4f f   LIBCMT:dosmap.obj
 0001:00059c70       __errno                    0045ac70 f   LIBCMT:dosmap.obj
 0001:00059c83       __get_errno_from_oserr     0045ac83 f   LIBCMT:dosmap.obj
 0001:00059cc4       __fltin2                   0045acc4 f   LIBCMT:cfin.obj
 0001:00059d6b       ___addlocaleref            0045ad6b f   LIBCMT:localref.obj
 0001:00059e00       ___freetlocinfo            0045ae00 f   LIBCMT:localref.obj
 0001:00059f5a       ___removelocaleref         0045af5a f   LIBCMT:localref.obj
 0001:00059ffd       ___updatetlocinfo          0045affd f   LIBCMT:localref.obj
 0001:0005a07d       __updatetlocinfoEx_nolock  0045b07d f   LIBCMT:localref.obj
 0001:0005a0c8       ___initmbctable            0045b0c8 f   LIBCMT:mbctype.obj
 0001:0005a37f       ___updatetmbcinfo          0045b37f f   LIBCMT:mbctype.obj
 0001:0005a425       __setmbcp                  0045b425 f   LIBCMT:mbctype.obj
 0001:0005a5cd       __setmbcp_nolock           0045b5cd f   LIBCMT:mbctype.obj
 0001:0005a7b8       __isctype_l                0045b7b8 f   LIBCMT:isctype.obj
 0001:0005a870       __locterm                  0045b870 f   LIBCMT:wsetloca.obj
 0001:0005a8c2       __fptostr                  0045b8c2 f   LIBCMT:_fptostr.obj
 0001:0005a972       ___dtold                   0045b972 f   LIBCMT:cfout.obj
 0001:0005aa3a       __fltout2                  0045ba3a f   LIBCMT:cfout.obj
 0001:0005aad0       __CIlog10_pentium4         0045bad0 f   LIBCMT:log10_pentium4.obj
 0001:0005aae8       __log10_pentium4           0045bae8     LIBCMT:log10_pentium4.obj
 0001:0005ad71       __fFEXP                    0045bd71     LIBCMT:87tran.obj
 0001:0005adc8       __rtinfpopse               0045bdc8     LIBCMT:87tran.obj
 0001:0005adca       __rtinfnpopse              0045bdca     LIBCMT:87tran.obj
 0001:0005adda       __fFLN                     0045bdda     LIBCMT:87tran.obj
 0001:0005ae8f       __rtinfpop                 0045be8f     LIBCMT:87tran.obj
 0001:0005ae91       __rtinfnpop                0045be91     LIBCMT:87tran.obj
 0001:0005aeae       __ffexpm1                  0045beae     LIBCMT:87tran.obj
 0001:0005af57       __ceil_default             0045bf57 f   LIBCMT:ceil.obj
 0001:0005b030       _strchr                    0045c030 f   LIBCMT:strchr.obj
 0001:0005b09e       ___from_strstr_to_strchr   0045c09e     LIBCMT:strchr.obj
 0001:0005b15b       _strcpy_s                  0045c15b f   LIBCMT:strcpy_s.obj
 0001:0005b1b0       _strlen                    0045c1b0 f   LIBCMT:strlen.obj
 0001:0005b23b       __lock                     0045c23b f   LIBCMT:mlock.obj
 0001:0005b26f       __mtdeletelocks            0045c26f f   LIBCMT:mlock.obj
 0001:0005b2c3       __mtinitlocknum            0045c2c3 f   LIBCMT:mlock.obj
 0001:0005b36c       __mtinitlocks              0045c36c f   LIBCMT:mlock.obj
 0001:0005b3a5       __unlock                   0045c3a5 f   LIBCMT:mlock.obj
 0001:0005b3c0       __FindPESection            0045c3c0 f   LIBCMT:pesect.obj
 0001:0005b410       __IsNonwritableInCurrentImage 0045c410 f   LIBCMT:pesect.obj
 0001:0005b4d0       __ValidateImageBase        0045c4d0 f   LIBCMT:pesect.obj
 0001:0005b501       ?terminate@@YAXXZ          0045c501 f   LIBCMT:hooks.obj
 0001:0005b535       __initp_eh_hooks           0045c535 f   LIBCMT:hooks.obj
 0001:0005b546       __initp_misc_purevirt      0045c546 f   LIBCMT:inithelp.obj
 0001:0005b553       ___get_sigabrt             0045c553 f   LIBCMT:winsig.obj
 0001:0005b560       __initp_misc_winsig        0045c560 f   LIBCMT:winsig.obj
 0001:0005b57c       _raise                     0045c57c f   LIBCMT:winsig.obj
 0001:0005b771       __initp_misc_rand_s        0045c771 f   LIBCMT:rand_s.obj
 0001:0005b77e       _realloc                   0045c77e f   LIBCMT:realloc.obj
 0001:0005b829       __calloc_impl              0045c829 f   LIBCMT:calloc_impl.obj
 0001:0005b8b0       __local_unwind4            0045c8b0 f   LIBCMT:exsup4.obj
 0001:0005b986       __seh_longjmp_unwind4@4    0045c986 f   LIBCMT:exsup4.obj
 0001:0005b9a2       @_EH4_CallFilterFunc@8     0045c9a2 f   LIBCMT:exsup4.obj
 0001:0005b9b9       @_EH4_TransferToHandler@8  0045c9b9 f   LIBCMT:exsup4.obj
 0001:0005b9d2       @_EH4_GlobalUnwind2@8      0045c9d2 f   LIBCMT:exsup4.obj
 0001:0005b9eb       @_EH4_LocalUnwind@16       0045c9eb f   LIBCMT:exsup4.obj
 0001:0005ba02       __isdigit_l                0045ca02 f i LIBCMT:_ctype.obj
 0001:0005ba54       _isdigit                   0045ca54 f i LIBCMT:_ctype.obj
 0001:0005ba7f       __tolower_l                0045ca7f f   LIBCMT:tolower.obj
 0001:0005bbc2       _tolower                   0045cbc2 f   LIBCMT:tolower.obj
 0001:0005bbf0       _strrchr                   0045cbf0 f   LIBCMT:strrchr.obj
 0001:0005bd27       ___crt_atoflt_l            0045cd27 f   LIBCMT:atodbl.obj
 0001:0005bdcb       __atodbl_l                 0045cdcb f   LIBCMT:atodbl.obj
 0001:0005be59       __atoflt_l                 0045ce59 f   LIBCMT:atodbl.obj
 0001:0005be80       __alldvrm                  0045ce80 f   LIBCMT:lldvrm.obj
 0001:0005bf60       __aullshr                  0045cf60 f   LIBCMT:ullshr.obj
 0001:0005bf7f       __controlfp_s              0045cf7f f   LIBCMT:contrlfp.obj
 0001:0005bfdc       __fptrap                   0045cfdc f   LIBCMT:crt0fp.obj
 0001:0005bfe5       __87except                 0045cfe5 f   LIBCMT:87except.obj
 0001:0005c0ee       __frnd                     0045d0ee f   LIBCMT:frnd.obj
 0001:0005c102       ___initstdio               0045d102 f   LIBCMT:_file.obj
 0001:0005c175       ___endstdio                0045d175 f   LIBCMT:_file.obj
 0001:0005c19c       __lock_file                0045d19c f   LIBCMT:_file.obj
 0001:0005c1db       __lock_file2               0045d1db f   LIBCMT:_file.obj
 0001:0005c20b       __unlock_file              0045d20b f   LIBCMT:_file.obj
 0001:0005c245       __unlock_file2             0045d245 f   LIBCMT:_file.obj
 0001:0005c2cc       __ismbblead                0045d2cc f   LIBCMT:ismbbyte.obj
 0001:0005c2e2       _wcscat_s                  0045d2e2 f   LIBCMT:wcscat_s.obj
 0001:0005c34e       _wcscpy_s                  0045d34e f   LIBCMT:wcscpy_s.obj
 0001:0005c3aa       _wcslen                    0045d3aa f   LIBCMT:wcslen.obj
 0001:0005c3c3       _wcsncpy_s                 0045d3c3 f   LIBCMT:wcsncpy_s.obj
 0001:0005c481       ___crtMessageBoxW          0045d481 f   LIBCMT:crtmboxw.obj
 0001:0005c667       __ld12tod                  0045d667 f   LIBCMT:intrncvt.obj
 0001:0005cbd9       __ld12tof                  0045dbd9 f   LIBCMT:intrncvt.obj
 0001:0005d14b       ___strgtold12_l            0045e14b f   LIBCMT:strgtold.obj
 0001:0005d8f3       ___free_lconv_mon          0045e8f3 f   LIBCMT:initmon.obj
 0001:0005d9ef       ___free_lconv_num          0045e9ef f   LIBCMT:initnum.obj
 0001:0005da56       ___free_lc_time            0045ea56 f   LIBCMT:inittime.obj
 0001:0005dfda       ___crtLCMapStringA         0045efda f   LIBCMT:a_map.obj
 0001:0005e020       __freea                    0045f020 f i LIBCMT:a_map.obj
 0001:0005e136       ___crtGetStringTypeA       0045f136 f   LIBCMT:a_str.obj
 0001:0005e176       __isleadbyte_l             0045f176 f i LIBCMT:_wctype.obj
 0001:0005e1b0       _isleadbyte                0045f1b0 f i LIBCMT:_wctype.obj
 0001:0005e1c1       _GetTableIndexFromLocaleName 0045f1c1 f   LIBCMT:winapinls.obj
 0001:0005e20f       ___crtDownlevelLocaleNameToLCID 0045f20f f   LIBCMT:winapinls.obj
 0001:0005e239       ___crtLCMapStringEx        0045f239 f   LIBCMT:winapinls.obj
 0001:0005e285       ___wcsnicmp_ascii          0045f285 f   LIBCMT:winapinls.obj
 0001:0005e2f3       _$I10_OUTPUT               0045f2f3 f   LIBCMT:x10fout.obj
 0001:0005ecc7       __d_inttype                0045fcc7 f   LIBCMT:powhlp.obj
 0001:0005ed2f       __powhlp                   0045fd2f f   LIBCMT:powhlp.obj
 0001:0005ee65       _abort                     0045fe65 f   LIBCMT:abort.obj
 0001:0005eea8       __fileno                   0045fea8 f   LIBCMT:fileno.obj
 0001:0005eecc       __isatty                   0045fecc f   LIBCMT:isatty.obj
 0001:0005ef20       __fflush_nolock            0045ff20 f   LIBCMT:fflush.obj
 0001:0005ef66       __flush                    0045ff66 f   LIBCMT:fflush.obj
 0001:0005efca       __flushall                 0045ffca f   LIBCMT:fflush.obj
 0001:0005f0c0       __global_unwind2           004600c0 f   LIBCMT:exsup.obj
 0001:0005f125       __local_unwind2            00460125 f   LIBCMT:exsup.obj
 0001:0005f1a9       __abnormal_termination     004601a9 f   LIBCMT:exsup.obj
 0001:0005f1cc       __NLG_Notify1              004601cc f   LIBCMT:exsup.obj
 0001:0005f1d5       __NLG_Notify               004601d5 f   LIBCMT:exsup.obj
 0001:0005f1ec       __NLG_Dispatch             004601ec     LIBCMT:exsup.obj
 0001:0005f1ec       __NLG_Dispatch2            004601ec     LIBCMT:exsup.obj
 0001:0005f1f4       __NLG_Call                 004601f4 f   LIBCMT:exsup.obj
 0001:0005f1f6       __NLG_Return2              004601f6     LIBCMT:exsup.obj
 0001:0005f200       __aulldvrm                 00460200 f   LIBCMT:ulldvrm.obj
 0001:0005f33e       __control87                0046033e f i LIBCMT:ieee87.obj
 0001:0005f6d7       __fcloseall                004606d7 f   LIBCMT:closeall.obj
 0001:0005f774       ___mtold12                 00460774 f   LIBCMT:mantold.obj
 0001:0005f960       __alloca_probe_16          00460960 f   LIBCMT:alloca16.obj
 0001:0005f976       __alloca_probe_8           00460976     LIBCMT:alloca16.obj
 0001:0005f98c       __fpclass                  0046098c f   LIBCMT:ieeemisc.obj
 0001:0005fa28       __commit                   00460a28 f   LIBCMT:commit.obj
 0001:0005fb11       __write                    00460b11 f   LIBCMT:write.obj
 0001:0005fc00       __write_nolock             00460c00 f   LIBCMT:write.obj
 0001:00060465       __fclose_nolock            00461465 f   LIBCMT:fclose.obj
 0001:000604d1       _fclose                    004614d1 f   LIBCMT:fclose.obj
 0001:00060548       ___lock_fhandle            00461548 f   LIBCMT:osfinfo.obj
 0001:000605d6       __free_osfhnd              004615d6 f   LIBCMT:osfinfo.obj
 0001:0006065c       __get_osfhandle            0046165c f   LIBCMT:osfinfo.obj
 0001:000606c3       __unlock_fhandle           004616c3 f   LIBCMT:osfinfo.obj
 0001:000606e9       __lseeki64_nolock          004616e9 f   LIBCMT:lseeki64.obj
 0001:0006075c       __mbtowc_l                 0046175c f   LIBCMT:mbtowc.obj
 0001:00060851       _mbtowc                    00461851 f   LIBCMT:mbtowc.obj
 0001:00060869       __putwch_nolock            00461869 f   LIBCMT:putwch.obj
 0001:000608ac       __close                    004618ac f   LIBCMT:close.obj
 0001:00060987       __close_nolock             00461987 f   LIBCMT:close.obj
 0001:00060a21       __freebuf                  00461a21 f   LIBCMT:_freebuf.obj
 0001:00060a51       ___termconout              00461a51 f   LIBCMT:initcon.obj
 0001:00060a68       ___initconout              00461a68 f   LIBCMT:initcon.obj
 0001:00060a88       _IsProcessorFeaturePresent@4 00461a88 f   kernel32:KERNEL32.dll
 0001:00060a8e       _RtlUnwind@16              00461a8e f   kernel32:KERNEL32.dll
 0001:00060a94       _DdeInitializeA@16         00461a94 f   user32:USER32.dll
 0001:00060a9a       _DdeUninitialize@4         00461a9a f   user32:USER32.dll
 0001:00060aa0       _DdeConnect@16             00461aa0 f   user32:USER32.dll
 0001:00060aa6       _DdeDisconnect@4           00461aa6 f   user32:USER32.dll
 0001:00060aac       _DdeClientTransaction@32   00461aac f   user32:USER32.dll
 0001:00060ab2       _DdeCreateStringHandleA@12 00461ab2 f   user32:USER32.dll
 0001:00060ab8       _DdeFreeStringHandle@8     00461ab8 f   user32:USER32.dll
 0001:00060abe       _DdeCmpStringHandles@8     00461abe f   user32:USER32.dll
 0002:00000000       __imp__CreateStatusWindowA@16 00462000     comctl32:COMCTL32.dll
 0002:00000004       \177COMCTL32_NULL_THUNK_DATA 00462004     comctl32:COMCTL32.dll
 0002:00000008       __imp__PrintDlgA@4         00462008     comdlg32:COMDLG32.dll
 0002:0000000c       __imp__ChooseColorA@4      0046200c     comdlg32:COMDLG32.dll
 0002:00000010       __imp__ChooseFontA@4       00462010     comdlg32:COMDLG32.dll
 0002:00000014       \177COMDLG32_NULL_THUNK_DATA 00462014     comdlg32:COMDLG32.dll
 0002:00000018       __imp__CreateCompatibleDC@4 00462018     gdi32:GDI32.dll
 0002:0000001c       __imp__CreateCompatibleBitmap@12 0046201c     gdi32:GDI32.dll
 0002:00000020       __imp__BitBlt@36           00462020     gdi32:GDI32.dll
 0002:00000024       __imp__DPtoLP@12           00462024     gdi32:GDI32.dll
 0002:00000028       __imp__TextOutA@20         00462028     gdi32:GDI32.dll
 0002:0000002c       __imp__MoveToEx@16         0046202c     gdi32:GDI32.dll
 0002:00000030       __imp__EndPage@4           00462030     gdi32:GDI32.dll
 0002:00000034       __imp__StartPage@4         00462034     gdi32:GDI32.dll
 0002:00000038       __imp__EndDoc@4            00462038     gdi32:GDI32.dll
 0002:0000003c       __imp__StartDocA@8         0046203c     gdi32:GDI32.dll
 0002:00000040       __imp__GetTextMetricsA@8   00462040     gdi32:GDI32.dll
 0002:00000044       __imp__SetTextAlign@8      00462044     gdi32:GDI32.dll
 0002:00000048       __imp__SetTextColor@8      00462048     gdi32:GDI32.dll
 0002:0000004c       __imp__SetROP2@8           0046204c     gdi32:GDI32.dll
 0002:00000050       __imp__SetBkMode@8         00462050     gdi32:GDI32.dll
 0002:00000054       __imp__SetBkColor@8        00462054     gdi32:GDI32.dll
 0002:00000058       __imp__SelectObject@8      00462058     gdi32:GDI32.dll
 0002:0000005c       __imp__LineTo@12           0046205c     gdi32:GDI32.dll
 0002:00000060       __imp__CreateFontA@56      00462060     gdi32:GDI32.dll
 0002:00000064       __imp__Polygon@12          00462064     gdi32:GDI32.dll
 0002:00000068       __imp__StretchBlt@44       00462068     gdi32:GDI32.dll
 0002:0000006c       __imp__ExtTextOutA@32      0046206c     gdi32:GDI32.dll
 0002:00000070       __imp__SaveDC@4            00462070     gdi32:GDI32.dll
 0002:00000074       __imp__RestoreDC@8         00462074     gdi32:GDI32.dll
 0002:00000078       __imp__GetClipBox@8        00462078     gdi32:GDI32.dll
 0002:0000007c       __imp__GetObjectA@12       0046207c     gdi32:GDI32.dll
 0002:00000080       __imp__PolylineTo@12       00462080     gdi32:GDI32.dll
 0002:00000084       __imp__GetTextExtentPoint32A@16 00462084     gdi32:GDI32.dll
 0002:00000088       __imp__GetTextColor@4      00462088     gdi32:GDI32.dll
 0002:0000008c       __imp__GetTextAlign@4      0046208c     gdi32:GDI32.dll
 0002:00000090       __imp__GetStockObject@4    00462090     gdi32:GDI32.dll
 0002:00000094       __imp__GetDeviceCaps@8     00462094     gdi32:GDI32.dll
 0002:00000098       __imp__GetBkMode@4         00462098     gdi32:GDI32.dll
 0002:0000009c       __imp__DeleteObject@4      0046209c     gdi32:GDI32.dll
 0002:000000a0       __imp__DeleteDC@4          004620a0     gdi32:GDI32.dll
 0002:000000a4       __imp__CreateSolidBrush@4  004620a4     gdi32:GDI32.dll
 0002:000000a8       __imp__CreatePen@12        004620a8     gdi32:GDI32.dll
 0002:000000ac       __imp__CreateDCA@16        004620ac     gdi32:GDI32.dll
 0002:000000b0       __imp__CreateFontIndirectA@4 004620b0     gdi32:GDI32.dll
 0002:000000b4       \177GDI32_NULL_THUNK_DATA  004620b4     gdi32:GDI32.dll
 0002:000000b8       __imp__GetStringTypeW@16   004620b8     kernel32:KERNEL32.dll
 0002:000000bc       __imp__OutputDebugStringW@4 004620bc     kernel32:KERNEL32.dll
 0002:000000c0       __imp__RtlUnwind@16        004620c0     kernel32:KERNEL32.dll
 0002:000000c4       __imp__HeapReAlloc@16      004620c4     kernel32:KERNEL32.dll
 0002:000000c8       __imp__LoadLibraryExW@12   004620c8     kernel32:KERNEL32.dll
 0002:000000cc       __imp__LeaveCriticalSection@4 004620cc     kernel32:KERNEL32.dll
 0002:000000d0       __imp__EnterCriticalSection@4 004620d0     kernel32:KERNEL32.dll
 0002:000000d4       __imp__GetCPInfo@8         004620d4     kernel32:KERNEL32.dll
 0002:000000d8       __imp__GetOEMCP@0          004620d8     kernel32:KERNEL32.dll
 0002:000000dc       __imp__GetACP@0            004620dc     kernel32:KERNEL32.dll
 0002:000000e0       __imp__IsValidCodePage@4   004620e0     kernel32:KERNEL32.dll
 0002:000000e4       __imp__FreeEnvironmentStringsW@4 004620e4     kernel32:KERNEL32.dll
 0002:000000e8       __imp__GetEnvironmentStringsW@0 004620e8     kernel32:KERNEL32.dll
 0002:000000ec       __imp__CreateProcessA@40   004620ec     kernel32:KERNEL32.dll
 0002:000000f0       __imp__QueryPerformanceCounter@4 004620f0     kernel32:KERNEL32.dll
 0002:000000f4       __imp__GetModuleFileNameW@12 004620f4     kernel32:KERNEL32.dll
 0002:000000f8       __imp__GetModuleFileNameA@12 004620f8     kernel32:KERNEL32.dll
 0002:000000fc       __imp__DeleteCriticalSection@4 004620fc     kernel32:KERNEL32.dll
 0002:00000100       __imp__GetFileType@4       00462100     kernel32:KERNEL32.dll
 0002:00000104       __imp__GetStdHandle@4      00462104     kernel32:KERNEL32.dll
 0002:00000108       __imp__GetProcessHeap@0    00462108     kernel32:KERNEL32.dll
 0002:0000010c       __imp__GetCurrentThreadId@0 0046210c     kernel32:KERNEL32.dll
 0002:00000110       __imp__GetModuleHandleW@4  00462110     kernel32:KERNEL32.dll
 0002:00000114       __imp__GetStartupInfoW@4   00462114     kernel32:KERNEL32.dll
 0002:00000118       __imp__TlsFree@4           00462118     kernel32:KERNEL32.dll
 0002:0000011c       __imp__TlsSetValue@8       0046211c     kernel32:KERNEL32.dll
 0002:00000120       __imp__TlsGetValue@4       00462120     kernel32:KERNEL32.dll
 0002:00000124       __imp__TlsAlloc@0          00462124     kernel32:KERNEL32.dll
 0002:00000128       __imp__TerminateProcess@8  00462128     kernel32:KERNEL32.dll
 0002:0000012c       __imp__GetCurrentProcess@0 0046212c     kernel32:KERNEL32.dll
 0002:00000130       __imp__InitializeCriticalSectionAndSpinCount@8 00462130     kernel32:KERNEL32.dll
 0002:00000134       __imp__SetLastError@4      00462134     kernel32:KERNEL32.dll
 0002:00000138       __imp__SetUnhandledExceptionFilter@4 00462138     kernel32:KERNEL32.dll
 0002:0000013c       __imp__UnhandledExceptionFilter@4 0046213c     kernel32:KERNEL32.dll
 0002:00000140       __imp__HeapSize@12         00462140     kernel32:KERNEL32.dll
 0002:00000144       __imp__WideCharToMultiByte@32 00462144     kernel32:KERNEL32.dll
 0002:00000148       __imp__MultiByteToWideChar@24 00462148     kernel32:KERNEL32.dll
 0002:0000014c       __imp__LCMapStringW@24     0046214c     kernel32:KERNEL32.dll
 0002:00000150       __imp__FlushFileBuffers@4  00462150     kernel32:KERNEL32.dll
 0002:00000154       __imp__GetConsoleCP@0      00462154     kernel32:KERNEL32.dll
 0002:00000158       __imp__GetConsoleMode@8    00462158     kernel32:KERNEL32.dll
 0002:0000015c       __imp__SetStdHandle@8      0046215c     kernel32:KERNEL32.dll
 0002:00000160       __imp__SetFilePointerEx@20 00462160     kernel32:KERNEL32.dll
 0002:00000164       __imp__WriteConsoleW@20    00462164     kernel32:KERNEL32.dll
 0002:00000168       __imp__CreateFileW@28      00462168     kernel32:KERNEL32.dll
 0002:0000016c       __imp__GetLocalTime@4      0046216c     kernel32:KERNEL32.dll
 0002:00000170       __imp__GlobalAlloc@8       00462170     kernel32:KERNEL32.dll
 0002:00000174       __imp__GlobalReAlloc@12    00462174     kernel32:KERNEL32.dll
 0002:00000178       __imp__FileTimeToSystemTime@8 00462178     kernel32:KERNEL32.dll
 0002:0000017c       __imp__FileTimeToLocalFileTime@8 0046217c     kernel32:KERNEL32.dll
 0002:00000180       __imp__GetComputerNameA@8  00462180     kernel32:KERNEL32.dll
 0002:00000184       __imp__GetFileAttributesA@4 00462184     kernel32:KERNEL32.dll
 0002:00000188       __imp__GetUserDefaultLangID@0 00462188     kernel32:KERNEL32.dll
 0002:0000018c       __imp__lstrcmpA@8          0046218c     kernel32:KERNEL32.dll
 0002:00000190       __imp__VerifyVersionInfoW@16 00462190     kernel32:KERNEL32.dll
 0002:00000194       __imp__GetProfileStringA@20 00462194     kernel32:KERNEL32.dll
 0002:00000198       __imp__lstrlenA@4          00462198     kernel32:KERNEL32.dll
 0002:0000019c       __imp__lstrcatA@8          0046219c     kernel32:KERNEL32.dll
 0002:000001a0       __imp__lstrcpyA@8          004621a0     kernel32:KERNEL32.dll
 0002:000001a4       __imp__lstrcpynA@12        004621a4     kernel32:KERNEL32.dll
 0002:000001a8       __imp__GlobalFree@4        004621a8     kernel32:KERNEL32.dll
 0002:000001ac       __imp__GlobalUnlock@4      004621ac     kernel32:KERNEL32.dll
 0002:000001b0       __imp__GetSystemTimeAsFileTime@4 004621b0     kernel32:KERNEL32.dll
 0002:000001b4       __imp__GlobalLock@4        004621b4     kernel32:KERNEL32.dll
 0002:000001b8       __imp__GetProcAddress@8    004621b8     kernel32:KERNEL32.dll
 0002:000001bc       __imp__GetModuleHandleExW@12 004621bc     kernel32:KERNEL32.dll
 0002:000001c0       __imp__ExitProcess@4       004621c0     kernel32:KERNEL32.dll
 0002:000001c4       __imp__HeapFree@12         004621c4     kernel32:KERNEL32.dll
 0002:000001c8       __imp__GetLastError@0      004621c8     kernel32:KERNEL32.dll
 0002:000001cc       __imp__SetCurrentDirectoryA@4 004621cc     kernel32:KERNEL32.dll
 0002:000001d0       __imp__DeleteFileA@4       004621d0     kernel32:KERNEL32.dll
 0002:000001d4       __imp__GetCurrentProcessId@0 004621d4     kernel32:KERNEL32.dll
 0002:000001d8       __imp__VerSetConditionMask@16 004621d8     kernel32:KERNEL32.dll
 0002:000001dc       __imp__RaiseException@16   004621dc     kernel32:KERNEL32.dll
 0002:000001e0       __imp__HeapAlloc@12        004621e0     kernel32:KERNEL32.dll
 0002:000001e4       __imp__FindClose@4         004621e4     kernel32:KERNEL32.dll
 0002:000001e8       __imp__FindFirstFileA@8    004621e8     kernel32:KERNEL32.dll
 0002:000001ec       __imp__GetDriveTypeA@4     004621ec     kernel32:KERNEL32.dll
 0002:000001f0       __imp__SetErrorMode@4      004621f0     kernel32:KERNEL32.dll
 0002:000001f4       __imp__lstrcmpiA@8         004621f4     kernel32:KERNEL32.dll
 0002:000001f8       __imp__CreateFileA@28      004621f8     kernel32:KERNEL32.dll
 0002:000001fc       __imp__CloseHandle@4       004621fc     kernel32:KERNEL32.dll
 0002:00000200       __imp__CopyFileA@12        00462200     kernel32:KERNEL32.dll
 0002:00000204       __imp__MoveFileA@8         00462204     kernel32:KERNEL32.dll
 0002:00000208       __imp__GetFileSize@8       00462208     kernel32:KERNEL32.dll
 0002:0000020c       __imp__LockFile@20         0046220c     kernel32:KERNEL32.dll
 0002:00000210       __imp__ReadFile@20         00462210     kernel32:KERNEL32.dll
 0002:00000214       __imp__SetEndOfFile@4      00462214     kernel32:KERNEL32.dll
 0002:00000218       __imp__SetFilePointer@16   00462218     kernel32:KERNEL32.dll
 0002:0000021c       __imp__UnlockFile@20       0046221c     kernel32:KERNEL32.dll
 0002:00000220       __imp__WriteFile@20        00462220     kernel32:KERNEL32.dll
 0002:00000224       __imp__Sleep@4             00462224     kernel32:KERNEL32.dll
 0002:00000228       __imp__GetFileTime@16      00462228     kernel32:KERNEL32.dll
 0002:0000022c       __imp__GetPrivateProfileStringA@24 0046222c     kernel32:KERNEL32.dll
 0002:00000230       __imp__WritePrivateProfileStringA@16 00462230     kernel32:KERNEL32.dll
 0002:00000234       __imp__FindNextFileA@8     00462234     kernel32:KERNEL32.dll
 0002:00000238       __imp__CreateDirectoryA@8  00462238     kernel32:KERNEL32.dll
 0002:0000023c       __imp__WaitForSingleObject@8 0046223c     kernel32:KERNEL32.dll
 0002:00000240       __imp__CreateEventA@16     00462240     kernel32:KERNEL32.dll
 0002:00000244       __imp__GetCommandLineW@0   00462244     kernel32:KERNEL32.dll
 0002:00000248       __imp__LocalFree@4         00462248     kernel32:KERNEL32.dll
 0002:0000024c       __imp__EncodePointer@4     0046224c     kernel32:KERNEL32.dll
 0002:00000250       __imp__DecodePointer@4     00462250     kernel32:KERNEL32.dll
 0002:00000254       __imp__IsDebuggerPresent@0 00462254     kernel32:KERNEL32.dll
 0002:00000258       __imp__IsProcessorFeaturePresent@4 00462258     kernel32:KERNEL32.dll
 0002:0000025c       __imp__GetCommandLineA@0   0046225c     kernel32:KERNEL32.dll
 0002:00000260       \177KERNEL32_NULL_THUNK_DATA 00462260     kernel32:KERNEL32.dll
 0002:00000264       __imp__SHAppBarMessage@8   00462264     shell32:SHELL32.dll
 0002:00000268       __imp__CommandLineToArgvW@8 00462268     shell32:SHELL32.dll
 0002:0000026c       \177SHELL32_NULL_THUNK_DATA 0046226c     shell32:SHELL32.dll
 0002:00000270       __imp__CharUpperA@4        00462270     user32:USER32.dll
 0002:00000274       __imp__GetMessageA@16      00462274     user32:USER32.dll
 0002:00000278       __imp__TranslateMessage@4  00462278     user32:USER32.dll
 0002:0000027c       __imp__SetScrollInfo@16    0046227c     user32:USER32.dll
 0002:00000280       __imp__EqualRect@8         00462280     user32:USER32.dll
 0002:00000284       __imp__CheckDlgButton@12   00462284     user32:USER32.dll
 0002:00000288       __imp__IntersectRect@12    00462288     user32:USER32.dll
 0002:0000028c       __imp__MapDialogRect@8     0046228c     user32:USER32.dll
 0002:00000290       __imp__DdeGetData@16       00462290     user32:USER32.dll
 0002:00000294       __imp__SystemParametersInfoA@16 00462294     user32:USER32.dll
 0002:00000298       __imp__WinHelpA@16         00462298     user32:USER32.dll
 0002:0000029c       __imp__IsDialogMessageA@8  0046229c     user32:USER32.dll
 0002:000002a0       __imp__LoadIconA@8         004622a0     user32:USER32.dll
 0002:000002a4       __imp__LoadCursorA@8       004622a4     user32:USER32.dll
 0002:000002a8       __imp__GetClassNameA@12    004622a8     user32:USER32.dll
 0002:000002ac       __imp__EnumWindows@8       004622ac     user32:USER32.dll
 0002:000002b0       __imp__FindWindowA@8       004622b0     user32:USER32.dll
 0002:000002b4       __imp__GetDesktopWindow@0  004622b4     user32:USER32.dll
 0002:000002b8       __imp__SetWindowLongA@12   004622b8     user32:USER32.dll
 0002:000002bc       __imp__PtInRect@12         004622bc     user32:USER32.dll
 0002:000002c0       __imp__OffsetRect@12       004622c0     user32:USER32.dll
 0002:000002c4       __imp__FillRect@12         004622c4     user32:USER32.dll
 0002:000002c8       __imp__GetSysColor@4       004622c8     user32:USER32.dll
 0002:000002cc       __imp__ClientToScreen@8    004622cc     user32:USER32.dll
 0002:000002d0       __imp__GetCursorPos@4      004622d0     user32:USER32.dll
 0002:000002d4       __imp__SetCursor@4         004622d4     user32:USER32.dll
 0002:000002d8       __imp__MessageBoxA@16      004622d8     user32:USER32.dll
 0002:000002dc       __imp__GetWindowRect@8     004622dc     user32:USER32.dll
 0002:000002e0       __imp__GetClientRect@8     004622e0     user32:USER32.dll
 0002:000002e4       __imp__InvalidateRect@12   004622e4     user32:USER32.dll
 0002:000002e8       __imp__GetUpdateRect@12    004622e8     user32:USER32.dll
 0002:000002ec       __imp__EndPaint@8          004622ec     user32:USER32.dll
 0002:000002f0       __imp__BeginPaint@8        004622f0     user32:USER32.dll
 0002:000002f4       __imp__ReleaseDC@8         004622f4     user32:USER32.dll
 0002:000002f8       __imp__GetDC@4             004622f8     user32:USER32.dll
 0002:000002fc       __imp__SetForegroundWindow@4 004622fc     user32:USER32.dll
 0002:00000300       __imp__UpdateWindow@4      00462300     user32:USER32.dll
 0002:00000304       __imp__GetSystemMetrics@4  00462304     user32:USER32.dll
 0002:00000308       __imp__TranslateAcceleratorA@12 00462308     user32:USER32.dll
 0002:0000030c       __imp__LoadAcceleratorsA@8 0046230c     user32:USER32.dll
 0002:00000310       __imp__EnableWindow@8      00462310     user32:USER32.dll
 0002:00000314       __imp__KillTimer@8         00462314     user32:USER32.dll
 0002:00000318       __imp__SetTimer@16         00462318     user32:USER32.dll
 0002:0000031c       __imp__GetKeyState@4       0046231c     user32:USER32.dll
 0002:00000320       __imp__GetFocus@0          00462320     user32:USER32.dll
 0002:00000324       __imp__SetFocus@4          00462324     user32:USER32.dll
 0002:00000328       __imp__EmptyClipboard@0    00462328     user32:USER32.dll
 0002:0000032c       __imp__SetClipboardData@8  0046232c     user32:USER32.dll
 0002:00000330       __imp__CloseClipboard@0    00462330     user32:USER32.dll
 0002:00000334       __imp__OpenClipboard@4     00462334     user32:USER32.dll
 0002:00000338       __imp__GetDialogBaseUnits@0 00462338     user32:USER32.dll
 0002:0000033c       __imp__SendDlgItemMessageA@20 0046233c     user32:USER32.dll
 0002:00000340       __imp__CheckRadioButton@16 00462340     user32:USER32.dll
 0002:00000344       __imp__SetDlgItemTextA@12  00462344     user32:USER32.dll
 0002:00000348       __imp__GetDlgItem@8        00462348     user32:USER32.dll
 0002:0000034c       __imp__EndDialog@8         0046234c     user32:USER32.dll
 0002:00000350       __imp__DialogBoxParamA@20  00462350     user32:USER32.dll
 0002:00000354       __imp__CreateDialogParamA@20 00462354     user32:USER32.dll
 0002:00000358       __imp__IsIconic@4          00462358     user32:USER32.dll
 0002:0000035c       __imp__IsWindowVisible@4   0046235c     user32:USER32.dll
 0002:00000360       __imp__SetWindowPos@28     00462360     user32:USER32.dll
 0002:00000364       __imp__DispatchMessageA@4  00462364     user32:USER32.dll
 0002:00000368       __imp__CloseWindow@4       00462368     user32:USER32.dll
 0002:0000036c       __imp__MoveWindow@24       0046236c     user32:USER32.dll
 0002:00000370       __imp__CharToOemA@8        00462370     user32:USER32.dll
 0002:00000374       __imp__GetWindowTextLengthA@4 00462374     user32:USER32.dll
 0002:00000378       __imp__wsprintfA           00462378     user32:USER32.dll
 0002:0000037c       __imp__GetWindowLongA@8    0046237c     user32:USER32.dll
 0002:00000380       __imp__GetParent@4         00462380     user32:USER32.dll
 0002:00000384       __imp__IsCharAlphaA@4      00462384     user32:USER32.dll
 0002:00000388       __imp__IsCharAlphaNumericA@4 00462388     user32:USER32.dll
 0002:0000038c       __imp__DdeInitializeA@16   0046238c     user32:USER32.dll
 0002:00000390       __imp__DdeUninitialize@4   00462390     user32:USER32.dll
 0002:00000394       __imp__DdeConnect@16       00462394     user32:USER32.dll
 0002:00000398       __imp__DdeDisconnect@4     00462398     user32:USER32.dll
 0002:0000039c       __imp__DdeClientTransaction@32 0046239c     user32:USER32.dll
 0002:000003a0       __imp__DdeCreateStringHandleA@12 004623a0     user32:USER32.dll
 0002:000003a4       __imp__DdeFreeStringHandle@8 004623a4     user32:USER32.dll
 0002:000003a8       __imp__DdeCmpStringHandles@8 004623a8     user32:USER32.dll
 0002:000003ac       __imp__LoadStringA@16      004623ac     user32:USER32.dll
 0002:000003b0       __imp__IsDlgButtonChecked@8 004623b0     user32:USER32.dll
 0002:000003b4       __imp__FrameRect@12        004623b4     user32:USER32.dll
 0002:000003b8       __imp__ScreenToClient@8    004623b8     user32:USER32.dll
 0002:000003bc       __imp__SetCapture@4        004623bc     user32:USER32.dll
 0002:000003c0       __imp__ReleaseCapture@0    004623c0     user32:USER32.dll
 0002:000003c4       __imp__GetClassInfoA@12    004623c4     user32:USER32.dll
 0002:000003c8       __imp__CreatePopupMenu@0   004623c8     user32:USER32.dll
 0002:000003cc       __imp__DestroyMenu@4       004623cc     user32:USER32.dll
 0002:000003d0       __imp__TrackPopupMenu@28   004623d0     user32:USER32.dll
 0002:000003d4       __imp__SetActiveWindow@4   004623d4     user32:USER32.dll
 0002:000003d8       __imp__ValidateRect@8      004623d8     user32:USER32.dll
 0002:000003dc       __imp__SetWindowTextA@8    004623dc     user32:USER32.dll
 0002:000003e0       __imp__GetWindowTextA@12   004623e0     user32:USER32.dll
 0002:000003e4       __imp__DrawFocusRect@8     004623e4     user32:USER32.dll
 0002:000003e8       __imp__SetParent@8         004623e8     user32:USER32.dll
 0002:000003ec       __imp__PeekMessageA@20     004623ec     user32:USER32.dll
 0002:000003f0       __imp__GetMessageTime@0    004623f0     user32:USER32.dll
 0002:000003f4       __imp__IsChild@8           004623f4     user32:USER32.dll
 0002:000003f8       __imp__ScrollDC@28         004623f8     user32:USER32.dll
 0002:000003fc       __imp__CopyRect@8          004623fc     user32:USER32.dll
 0002:00000400       __imp__GetMessagePos@0     00462400     user32:USER32.dll
 0002:00000404       __imp__SetScrollPos@16     00462404     user32:USER32.dll
 0002:00000408       __imp__SetScrollRange@20   00462408     user32:USER32.dll
 0002:0000040c       __imp__DrawTextA@20        0046240c     user32:USER32.dll
 0002:00000410       __imp__ShowWindow@8        00462410     user32:USER32.dll
 0002:00000414       __imp__DestroyWindow@4     00462414     user32:USER32.dll
 0002:00000418       __imp__CreateWindowExA@48  00462418     user32:USER32.dll
 0002:0000041c       __imp__RegisterClassA@4    0046241c     user32:USER32.dll
 0002:00000420       __imp__CallWindowProcA@20  00462420     user32:USER32.dll
 0002:00000424       __imp__PostQuitMessage@4   00462424     user32:USER32.dll
 0002:00000428       __imp__DefWindowProcA@16   00462428     user32:USER32.dll
 0002:0000042c       __imp__PostMessageA@16     0046242c     user32:USER32.dll
 0002:00000430       __imp__SendMessageA@16     00462430     user32:USER32.dll
 0002:00000434       \177USER32_NULL_THUNK_DATA 00462434     user32:USER32.dll
 0002:00000438       __imp__OpenPrinterA@12     00462438     winspool:WINSPOOL.DRV
 0002:0000043c       __imp__GetPrinterA@20      0046243c     winspool:WINSPOOL.DRV
 0002:00000440       __imp__ClosePrinter@4      00462440     winspool:WINSPOOL.DRV
 0002:00000444       \177WINSPOOL_NULL_THUNK_DATA 00462444     winspool:WINSPOOL.DRV
 0002:00000448       ___xc_a                    00462448     LIBCMT:crt0init.obj
 0002:000005ac       ___xc_z                    004625ac     LIBCMT:crt0init.obj
 0002:000005b0       ___xi_a                    004625b0     LIBCMT:crt0init.obj
 0002:000005cc       ___xi_z                    004625cc     LIBCMT:crt0init.obj
 0002:000005d0       ___xp_a                    004625d0     LIBCMT:crt0init.obj
 0002:000005e0       ___xp_z                    004625e0     LIBCMT:crt0init.obj
 0002:000005e4       ___xt_a                    004625e4     LIBCMT:crt0init.obj
 0002:000005e8       ___xt_z                    004625e8     LIBCMT:crt0init.obj
 0002:00000600       ??_C@_0N@LPGHLKGH@ALARMSUM?4TXT?$AA@ 00462600     profile.obj
 0002:00000610       ??_C@_0BA@FECLJCI@backup_list?4csv?$AA@ 00462610     profile.obj
 0002:00000620       ??_C@_0N@PLHNDNGH@DOWNTIME?4TXT?$AA@ 00462620     profile.obj
 0002:00000630       ??_C@_0BK@BEKOHKJI@external_program_list?4csv?$AA@ 00462630     profile.obj
 0002:0000064c       ??_C@_0BA@OENNMNIH@ftii_boards?4txt?$AA@ 0046264c     profile.obj
 0002:0000065c       ??_C@_0BH@CAIOJADE@ftii_part_settings?4txt?$AA@ 0046265c     profile.obj
 0002:00000674       ??_C@_0N@FGFLILME@GRAPHLST?4TXT?$AA@ 00462674     profile.obj
 0002:00000684       ??_C@_0BC@IGICNJIO@machine_setup?4csv?$AA@ 00462684     profile.obj
 0002:00000698       ??_C@_0N@CBJFOMOL@OPERATOR?4TXT?$AA@ 00462698     profile.obj
 0002:000006a8       ??_C@_0BA@GNMHHLFA@PARTDISPLAY?4INI?$AA@ 004626a8     profile.obj
 0002:000006b8       ??_C@_0P@MHFCEEOL@part_setup?4csv?$AA@ 004626b8     profile.obj
 0002:000006c8       ??_C@_0N@GCEJIGHD@SHOTPARM?4CSV?$AA@ 004626c8     profile.obj
 0002:000006d8       ??_C@_04OGJDIIK@?4PR2?$AA@ 004626d8     profile.obj
 0002:000006e0       ??_C@_02PGHGPEOM@?91?$AA@  004626e0     profile.obj
 0002:000006e8       ??_7FTII_VAR@@6B@          004626e8     profile.obj
 0002:00000714       ??_7FTII_VAR_ARRAY@@6B@    00462714     profile.obj
 0002:00000740       ??_7WINDOW_CLASS@@6B@      00462740     profile.obj
 0002:00000744       ??_C@_0BF@NFAHCEE@LISTBOX_FULL_MESSAGE?$AA@ 00462744     profile.obj
 0002:0000075c       ??_C@_0BE@DACKADPK@CANT_DO_THAT_STRING?$AA@ 0046275c     profile.obj
 0002:00000770       ??_C@_0BL@FJBJOJBC@HEAD_PRESSURE_LABEL_STRING?$AA@ 00462770     profile.obj
 0002:0000078c       ??_C@_0BK@LJOPKHED@ROD_PRESSURE_LABEL_STRING?$AA@ 0046278c     profile.obj
 0002:000007a8       ??_C@_0BL@JCAMNPBI@DIFF_PRESSURE_LABEL_STRING?$AA@ 004627a8     profile.obj
 0002:000007c4       ??_C@_0BF@GKAPLIHE@DISTANCE_TYPE_STRING?$AA@ 004627c4     profile.obj
 0002:000007dc       ??_C@_0BF@HOPCLPII@POSITION_TYPE_STRING?$AA@ 004627dc     profile.obj
 0002:000007f4       ??_C@_0BF@MBOPMDN@PRESSURE_TYPE_STRING?$AA@ 004627f4     profile.obj
 0002:0000080c       ??_C@_0BB@FIFHLHOO@TIME_TYPE_STRING?$AA@ 0046280c     profile.obj
 0002:00000820       ??_C@_0BF@CPFBEBBK@VELOCITY_TYPE_STRING?$AA@ 00462820     profile.obj
 0002:00000838       ??_C@_0BE@KMBBIKLI@CHANNEL_TYPE_STRING?$AA@ 00462838     profile.obj
 0002:0000084c       ??_C@_0BH@ONFNHCFM@CHANNEL_1_LABEL_STRING?$AA@ 0046284c     profile.obj
 0002:00000864       ??_C@_0BH@PMCABICF@CHANNEL_2_LABEL_STRING?$AA@ 00462864     profile.obj
 0002:0000087c       ??_C@_0BH@EFNLMDMN@CHANNEL_3_LABEL_STRING?$AA@ 0046287c     profile.obj
 0002:00000894       ??_C@_0BH@NONKMMNH@CHANNEL_4_LABEL_STRING?$AA@ 00462894     profile.obj
 0002:000008ac       ??_C@_0BL@HGNDEGPC@MAX_OVERLAY_REACHED_STRING?$AA@ 004628ac     profile.obj
 0002:000008c8       ??_C@_0BG@IMGBGBGO@DEL_SOME_FIRST_STRING?$AA@ 004628c8     profile.obj
 0002:000008e0       ??_C@_0L@HLLKHHOE@EMPTY_LIST?$AA@ 004628e0     profile.obj
 0002:000008ec       ??_C@_0BB@DBMBPMAG@NO_MACHINES_HERE?$AA@ 004628ec     profile.obj
 0002:00000900       ??_C@_0BD@CBMKCFJI@OPERATOR_NOT_FOUND?$AA@ 00462900     profile.obj
 0002:00000914       ??_C@_0BD@NKAFHDJI@SHOT_NUMBER_STRING?$AA@ 00462914     profile.obj
 0002:00000928       ??_C@_0BB@COEPBDLH@DATE_NAME_STRING?$AA@ 00462928     profile.obj
 0002:0000093c       ??_C@_0BB@HIBNJNKF@TIME_NAME_STRING?$AA@ 0046293c     profile.obj
 0002:00000950       ??_C@_0BB@OGKNNAIH@NO_MEMORY_STRING?$AA@ 00462950     profile.obj
 0002:00000964       ??_C@_0BE@NBKLLNID@PRINTER_LIST_STRING?$AA@ 00462964     profile.obj
 0002:00000978       ??_C@_0BD@PMLOOPPI@UNITS_TITLE_STRING?$AA@ 00462978     profile.obj
 0002:0000098c       ??_C@_0BI@BBCHEDNP@REALTIME_ON_MENU_STRING?$AA@ 0046298c     profile.obj
 0002:000009a4       ??_C@_0BA@EKALBPJA@NO_ALARM_STRING?$AA@ 004629a4     profile.obj
 0002:000009b4       ??_C@_0P@KONEDDGB@WARNING_STRING?$AA@ 004629b4     profile.obj
 0002:000009c4       ??_C@_0N@EINENFJN@ALARM_STRING?$AA@ 004629c4     profile.obj
 0002:000009d4       ??_C@_0P@GFOJLAOE@NO_DOWN_STRING?$AA@ 004629d4     profile.obj
 0002:000009e4       ??_C@_0BC@CIPHCEGP@HUMAN_DOWN_STRING?$AA@ 004629e4     profile.obj
 0002:000009f8       ??_C@_0BB@DAFIBLCC@AUTO_DOWN_STRING?$AA@ 004629f8     profile.obj
 0002:00000a0c       ??_C@_0BB@PEJJJGOO@PROG_DOWN_STRING?$AA@ 00462a0c     profile.obj
 0002:00000a20       ??_C@_0P@BACIICNG@PROG_UP_STRING?$AA@ 00462a20     profile.obj
 0002:00000a30       ??_C@_0P@FKLJFAKI@MACH_UP_STRING?$AA@ 00462a30     profile.obj
 0002:00000a40       ??_C@_0BC@LOOPMAOG@NO_MONITOR_STRING?$AA@ 00462a40     profile.obj
 0002:00000a54       ??_C@_0BH@KDIMKDFI@BOX_SCREEN_MENU_STRING?$AA@ 00462a54     profile.obj
 0002:00000a6c       ??_C@_0BC@BFHCDECJ@MACHINE_TT_STRING?$AA@ 00462a6c     profile.obj
 0002:00000a80       ??_C@_0P@DAHIFIPL@PART_TT_STRING?$AA@ 00462a80     profile.obj
 0002:00000a90       ??_C@_0P@HMHIALGG@SHOT_TT_STRING?$AA@ 00462a90     profile.obj
 0002:00000aa0       ??_C@_0P@MJDONMJJ@DATE_TT_STRING?$AA@ 00462aa0     profile.obj
 0002:00000ab0       ??_C@_0BC@OCBGOF@NO_DOWN_TT_STRING?$AA@ 00462ab0     profile.obj
 0002:00000ac4       ??_C@_0BF@CKAJALE@HUMAN_DOWN_TT_STRING?$AA@ 00462ac4     profile.obj
 0002:00000adc       ??_C@_0BE@GEFFBKHK@AUTO_DOWN_TT_STRING?$AA@ 00462adc     profile.obj
 0002:00000af0       ??_C@_0BE@JOKOGBLK@PROG_DOWN_TT_STRING?$AA@ 00462af0     profile.obj
 0002:00000b04       ??_C@_0BC@CGBOIBDJ@PROG_UP_TT_STRING?$AA@ 00462b04     profile.obj
 0002:00000b18       ??_C@_0BC@EMHHMAGG@MACH_UP_TT_STRING?$AA@ 00462b18     profile.obj
 0002:00000b2c       ??_C@_0BF@MFDKBOJD@NO_MONITOR_TT_STRING?$AA@ 00462b2c     profile.obj
 0002:00000b44       ??_C@_0BJ@MCDCGCLK@TOTAL_ALARM_SHOTS_STRING?$AA@ 00462b44     profile.obj
 0002:00000b60       ??_C@_0BL@HNHDIJLK@TOTAL_WARNING_SHOTS_STRING?$AA@ 00462b60     profile.obj
 0002:00000b7c       ??_C@_0BB@ICICGKIE@LOW_ALARM_STRING?$AA@ 00462b7c     profile.obj
 0002:00000b90       ??_C@_0BC@BGPNKFAJ@HIGH_ALARM_STRING?$AA@ 00462b90     profile.obj
 0002:00000ba4       ??_C@_0BD@GOAKPODC@LOW_WARNING_STRING?$AA@ 00462ba4     profile.obj
 0002:00000bb8       ??_C@_0BE@OLPMFDGK@HIGH_WARNING_STRING?$AA@ 00462bb8     profile.obj
 0002:00000bcc       ??_C@_0BC@KHHLACMB@NEXT_SHIFT_STRING?$AA@ 00462bcc     profile.obj
 0002:00000be0       ??_C@_0BC@OANNGEDA@PREV_SHIFT_STRING?$AA@ 00462be0     profile.obj
 0002:00000bf4       ??_C@_0BA@NGIFGHFH@NEXT_DAY_STRING?$AA@ 00462bf4     profile.obj
 0002:00000c04       ??_C@_0BA@HOFHMGEL@PREV_DAY_STRING?$AA@ 00462c04     profile.obj
 0002:00000c14       ??_C@_0M@BHMNJEKA@NEXT_STRING?$AA@ 00462c14     profile.obj
 0002:00000c20       ??_C@_0M@IJIPFJNE@PREV_STRING?$AA@ 00462c20     profile.obj
 0002:00000c2c       ??_C@_0BF@BLDEKHIP@NO_ALARM_DATA_STRING?$AA@ 00462c2c     profile.obj
 0002:00000c44       ??_C@_0BK@GGEGKLNI@NOTHING_TO_DISPLAY_STRING?$AA@ 00462c44     profile.obj
 0002:00000c60       ??_C@_0N@LGMMJIO@SHIFT_STRING?$AA@ 00462c60     profile.obj
 0002:00000c70       ??_C@_0BB@NAFOEGLG@PARAMETER_STRING?$AA@ 00462c70     profile.obj
 0002:00000c84       ??_C@_0BB@IIDKGBBI@LOW_LIMIT_STRING?$AA@ 00462c84     profile.obj
 0002:00000c98       ??_C@_0BC@BMEFKOJF@HIGH_LIMIT_STRING?$AA@ 00462c98     profile.obj
 0002:00000cac       ??_C@_0BH@DMCHEIOI@PARAMETER_VALUE_STRING?$AA@ 00462cac     profile.obj
 0002:00000cc4       ??_C@_0BA@BLCAJGOE@ALARM_TT_STRING?$AA@ 00462cc4     profile.obj
 0002:00000cd4       ??_C@_0BJ@NEFJEBLM@REALTIME_OFF_MENU_STRING?$AA@ 00462cd4     profile.obj
 0002:00000cf0       ??_C@_0BM@GDILMNPO@REALTIME_SINGLE_MENU_STRING?$AA@ 00462cf0     profile.obj
 0002:00000d0c       ??_C@_0BH@HMJIOPCF@TIME_AXIS_LABEL_STRING?$AA@ 00462d0c     profile.obj
 0002:00000d24       ??_C@_0BL@PFAKFPFN@TREND_ALLSHOTS_MENU_STRING?$AA@ 00462d24     profile.obj
 0002:00000d40       ??_C@_0BJ@PCAPIEEN@TREND_CONFIG_MENU_STRING?$AA@ 00462d40     profile.obj
 0002:00000d5c       ??_C@_0BJ@LNJGNFDH@TREND_SCREEN_MENU_STRING?$AA@ 00462d5c     profile.obj
 0002:00000d78       ??_C@_0BH@OPBCLFJE@NO_GRAPHS_FOUND_STRING?$AA@ 00462d78     profile.obj
 0002:00000d90       ??_C@_0BL@KPADCNNL@TREND_REALTIME_MENU_STRING?$AA@ 00462d90     profile.obj
 0002:00000dac       ??_C@_0BA@MCDPDPCH@N_EQUALS_STRING?$AA@ 00462dac     profile.obj
 0002:00000dbc       ??_C@_0BC@GJJLDDBN@END_PARENS_STRING?$AA@ 00462dbc     profile.obj
 0002:00000dd0       ??_C@_0BH@ECCIMIBN@TOO_MANY_GRAPHS_STRING?$AA@ 00462dd0     profile.obj
 0002:00000de8       ??_C@_0P@MMKDFOCH@TIMEOUT_STRING?$AA@ 00462de8     profile.obj
 0002:00000df8       ??_C@_0BF@CMHGFAOK@DOWNBAR_TITLE_STRING?$AA@ 00462df8     profile.obj
 0002:00000e10       ??_C@_0BD@KLMGLDNF@TOTAL_HOURS_STRING?$AA@ 00462e10     profile.obj
 0002:00000e24       ??_C@_0BG@BHJJMNCE@TOTAL_HOURS_UP_STRING?$AA@ 00462e24     profile.obj
 0002:00000e3c       ??_C@_0BI@DEHAEOGB@TOTAL_HOURS_DOWN_STRING?$AA@ 00462e3c     profile.obj
 0002:00000e54       ??_C@_0BI@LFPLHCIJ@MACH_UTILIZATION_STRING?$AA@ 00462e54     profile.obj
 0002:00000e6c       ??_C@_0BK@BGABGGBD@MAX_DOWNTIME_HOURS_STRING?$AA@ 00462e6c     profile.obj
 0002:00000e88       ??_C@_0BM@FIMEEGOO@MAX_DOWNTIME_PERCENT_STRING?$AA@ 00462e88     profile.obj
 0002:00000ea4       ??_C@_0BF@GGGIKIHP@DOWNTIME_FROM_STRING?$AA@ 00462ea4     profile.obj
 0002:00000ebc       ??_C@_0BD@CCDCFCKH@DOWNTIME_TO_STRING?$AA@ 00462ebc     profile.obj
 0002:00000ed0       ??_C@_0N@MCPCCDCP@HOURS_STRING?$AA@ 00462ed0     profile.obj
 0002:00000ee0       ??_C@_0BG@PFKKLHOI@CATEGORY_TITLE_STRING?$AA@ 00462ee0     profile.obj
 0002:00000ef8       ??_C@_0BL@GNBPNFND@DOWNBAR_CONFIG_MENU_STRING?$AA@ 00462ef8     profile.obj
 0002:00000f14       ??_C@_0BI@OOPNDFKP@NO_DOWNTIME_DATA_STRING?$AA@ 00462f14     profile.obj
 0002:00000f2c       ??_C@_0BG@ECDDFCO@CHOOSE_PART_MENU_HELP?$AA@ 00462f2c     profile.obj
 0002:00000f44       ??_C@_0BG@EICDGGLD@CHOOSE_SHOT_MENU_HELP?$AA@ 00462f44     profile.obj
 0002:00000f5c       ??_C@_0P@GDDAMLFF@EXIT_MENU_HELP?$AA@ 00462f5c     profile.obj
 0002:00000f6c       ??_C@_0BD@BDGFAKBL@MINIMIZE_MENU_HELP?$AA@ 00462f6c     profile.obj
 0002:00000f80       ??_C@_0P@MJIGJBLI@SAVE_MENU_HELP?$AA@ 00462f80     profile.obj
 0002:00000f90       ??_C@_0BJ@IOHBJPJE@SAVE_AS_MASTER_MENU_HELP?$AA@ 00462f90     profile.obj
 0002:00000fac       ??_C@_0BA@MJKMAAJE@PRINT_MENU_HELP?$AA@ 00462fac     profile.obj
 0002:00000fbc       ??_C@_0BD@HCENFIBM@POS_TIME_MENU_HELP?$AA@ 00462fbc     profile.obj
 0002:00000fd0       ??_C@_0BD@FJJCLCJF@POS_ONLY_MENU_HELP?$AA@ 00462fd0     profile.obj
 0002:00000fe4       ??_C@_0BE@GPCMODDM@TIME_ONLY_MENU_HELP?$AA@ 00462fe4     profile.obj
 0002:00000ff8       ??_C@_0BJ@MCLJPMNA@LAST_50_SCREEN_MENU_HELP?$AA@ 00462ff8     profile.obj
 0002:00001014       ??_C@_0BF@JLNMHG@STD_SCREEN_MENU_HELP?$AA@ 00463014     profile.obj
 0002:0000102c       ??_C@_0BP@MODNDBKH@VIEW_REFERENCE_TRACE_MENU_HELP?$AA@ 0046302c     profile.obj
 0002:0000104c       ??_C@_0BK@PLMKLOIA@VIEW_PARAMETERS_MENU_HELP?$AA@ 0046304c     profile.obj
 0002:00001068       ??_C@_0BF@PFJKFGDE@BOX_SCREEN_MENU_HELP?$AA@ 00463068     profile.obj
 0002:00001080       ??_C@_0BH@HADILPGB@TREND_SCREEN_MENU_HELP?$AA@ 00463080     profile.obj
 0002:00001098       ??_C@_0BJ@CALOLOLF@PROFILE_SCREEN_MENU_HELP?$AA@ 00463098     profile.obj
 0002:000010b4       ??_C@_0BJ@MPBILFMI@DOWNBAR_SCREEN_MENU_HELP?$AA@ 004630b4     profile.obj
 0002:000010d0       ??_C@_0BG@KNLEIACF@PART_EDITOR_MENU_HELP?$AA@ 004630d0     profile.obj
 0002:000010e8       ??_C@_0BJ@DDICBKMF@MACHINE_EDITOR_MENU_HELP?$AA@ 004630e8     profile.obj
 0002:00001104       ??_C@_0BI@IHKOEOFL@BOARD_MONITOR_MENU_HELP?$AA@ 00463104     profile.obj
 0002:0000111c       ??_C@_0BJ@NHEOCBGN@MONITOR_CONFIG_MENU_HELP?$AA@ 0046311c     profile.obj
 0002:00001138       ??_C@_0BN@PIMNGJOI@BACKUP_AND_RESTORE_MENU_HELP?$AA@ 00463138     profile.obj
 0002:00001158       ??_C@_0BB@DNMPMEKP@SETUPS_MENU_HELP?$AA@ 00463158     profile.obj
 0002:0000116c       ??_C@_0BD@LDCAOGDE@DOWNTIME_MENU_HELP?$AA@ 0046316c     profile.obj
 0002:00001180       ??_C@_0BD@JOJOEAFA@EDITDOWN_MENU_HELP?$AA@ 00463180     profile.obj
 0002:00001194       ??_C@_0BL@IHHNCLAC@SURETRAK_CONTROL_MENU_HELP?$AA@ 00463194     profile.obj
 0002:000011b0       ??_C@_0BK@HNDCGAIB@OPERATOR_SIGNON_MENU_HELP?$AA@ 004631b0     profile.obj
 0002:000011cc       ??_C@_0BH@NEIACMMB@EXPORT_SHOTS_MENU_HELP?$AA@ 004631cc     profile.obj
 0002:000011e4       ??_C@_0BI@IAAGNKDF@ALARM_SUMMARY_MENU_HELP?$AA@ 004631e4     profile.obj
 0002:000011fc       ??_C@_0BE@CAOLHMAG@PASSWORDS_MENU_HELP?$AA@ 004631fc     profile.obj
 0002:00001210       ??_C@_0BL@MNOHLPAN@RESTORE_PASSWORD_MENU_HELP?$AA@ 00463210     profile.obj
 0002:0000122c       ??_C@_0P@FAFPHNAC@HELP_MENU_HELP?$AA@ 0046322c     profile.obj
 0002:0000123c       ??_C@_0BB@OPIIOLJF@UNZOOM_MENU_HELP?$AA@ 0046323c     profile.obj
 0002:00001250       ??_C@_0P@EBPBAJJL@ZOOM_MENU_HELP?$AA@ 00463250     profile.obj
 0002:00001260       ??_C@_0CA@JOJLNAGI@DISPLAY_CONFIGURATION_MENU_HELP?$AA@ 00463260     profile.obj
 0002:00001280       ??_C@_0BL@MMHIDDLK@COLOR_DEFINITION_MENU_HELP?$AA@ 00463280     profile.obj
 0002:0000129c       ??_C@_0BN@JNNEFBHB@CHOOSE_RT_MACHINES_MENU_HELP?$AA@ 0046329c     profile.obj
 0002:000012bc       ??_C@_0BM@HGOICNBE@CORNER_PARAMETERS_MENU_HELP?$AA@ 004632bc     profile.obj
 0002:000012d8       ??_C@_0BC@ECNPECDL@OVERLAY_MENU_HELP?$AA@ 004632d8     profile.obj
 0002:000012ec       ??_C@_0BF@LEAJOMJD@MACHINE_INTRO_STRING?$AA@ 004632ec     profile.obj
 0002:00001304       ??_C@_0BC@BDJJMAFN@PART_INTRO_STRING?$AA@ 00463304     profile.obj
 0002:00001318       ??_C@_0BJ@LOJAHJLO@TOTAL_SHOTS_INTRO_STRING?$AA@ 00463318     profile.obj
 0002:00001334       ??_C@_0BP@JDNCGGAF@TOTAL_ALARM_SHOTS_INTRO_STRING?$AA@ 00463334     profile.obj
 0002:00001354       ??_C@_0CB@CBHMBGLO@TOTAL_WARNING_SHOTS_INTRO_STRING@ 00463354     profile.obj
 0002:00001378       ??_C@_0BG@BGPHFNAC@QUANTITY_BELOW_STRING?$AA@ 00463378     profile.obj
 0002:00001390       ??_C@_0BG@BPMKHOJH@QUANTITY_ABOVE_STRING?$AA@ 00463390     profile.obj
 0002:000013a8       ??_C@_0BF@FAEEEDE@CANNOT_COMPLY_STRING?$AA@ 004633a8     profile.obj
 0002:000013c0       ??_C@_0BK@MALMFHFI@PASSWORD_NOT_FOUND_STRING?$AA@ 004633c0     profile.obj
 0002:000013dc       ??_C@_0BF@KDBPAPAJ@MS_TIME_LABEL_STRING?$AA@ 004633dc     profile.obj
 0002:000013f4       ??_C@_0BG@NFMHBNPH@SEC_TIME_LABEL_STRING?$AA@ 004633f4     profile.obj
 0002:0000140c       ??_C@_0BC@KCMDGBJL@SHOT_LABEL_STRING?$AA@ 0046340c     profile.obj
 0002:00001420       ??_C@_0BO@KPLPAEAO@MULTIPLE_SHOT_PRINT_MENU_HELP?$AA@ 00463420     profile.obj
 0002:00001440       ??_C@_0BG@LGGLHBOC@MULTIPLE_PRINT_STRING?$AA@ 00463440     profile.obj
 0002:00001458       ??_C@_0BJ@DMNGHNGH@PRINTING_COMPLETE_STRING?$AA@ 00463458     profile.obj
 0002:00001474       ??_C@_0BF@LJLBNEDP@STAT_N_EQUALS_STRING?$AA@ 00463474     profile.obj
 0002:0000148c       ??_C@_0BE@PKMPKHHB@ALARM_LIMITS_STRING?$AA@ 0046348c     profile.obj
 0002:000014a0       ??_C@_0BI@NMBEPONB@ALARM_SHOT_LABEL_STRING?$AA@ 004634a0     profile.obj
 0002:000014b8       ??_C@_0BI@DDEKHNPE@ALARM_DATE_LABEL_STRING?$AA@ 004634b8     profile.obj
 0002:000014d0       ??_C@_0BI@MAKFFODC@ALARM_TIME_LABEL_STRING?$AA@ 004634d0     profile.obj
 0002:000014e8       ??_C@_0BJ@GDJCFPNH@TREND_REALTIME_MENU_HELP?$AA@ 004634e8     profile.obj
 0002:00001504       ??_C@_0BJ@HIBEJJBM@TREND_ALLSHOTS_MENU_HELP?$AA@ 00463504     profile.obj
 0002:00001520       ??_C@_0BH@LKKOGFMO@TREND_CONFIG_MENU_HELP?$AA@ 00463520     profile.obj
 0002:00001538       ??_C@_0BJ@GGHCCCED@STAT_SUMMARY_MENU_STRING?$AA@ 00463538     profile.obj
 0002:00001554       ??_C@_0BH@ELBCJNFI@STAT_SUMMARY_MENU_HELP?$AA@ 00463554     profile.obj
 0002:0000156c       ??_C@_0BM@DLDHKLBL@NO_STAT_SUMMARY_MENU_STRING?$AA@ 0046356c     profile.obj
 0002:00001588       ??_C@_0BK@NLKHOKKH@NO_STAT_SUMMARY_MENU_HELP?$AA@ 00463588     profile.obj
 0002:000015a4       ??_C@_0BL@PDIICINB@ZOOM_PRINT_POSITION_STRING?$AA@ 004635a4     profile.obj
 0002:000015c0       ??_C@_0BH@JPKPJBCL@ZOOM_PRINT_TIME_STRING?$AA@ 004635c0     profile.obj
 0002:000015d8       ??_C@_0BL@DILKDKLA@ZOOM_PRINT_VELOCITY_STRING?$AA@ 004635d8     profile.obj
 0002:000015f4       ??_C@_0BL@KHMJKPAG@ZOOM_PRINT_ROD_PRES_STRING?$AA@ 004635f4     profile.obj
 0002:00001610       ??_C@_0BM@NMFKAFHK@ZOOM_PRINT_HEAD_PRES_STRING?$AA@ 00463610     profile.obj
 0002:0000162c       ??_C@_0BI@HAIFJOKL@ZOOM_PRINT_START_STRING?$AA@ 0046362c     profile.obj
 0002:00001644       ??_C@_0BG@DCMBBDIB@ZOOM_PRINT_END_STRING?$AA@ 00463644     profile.obj
 0002:0000165c       ??_C@_0BI@OJBKFME@ZOOM_PRINT_DELTA_STRING?$AA@ 0046365c     profile.obj
 0002:00001674       ??_C@_0BG@LGOBGNEN@FIELD_TOO_LONG_STRING?$AA@ 00463674     profile.obj
 0002:0000168c       ??_C@_0BD@JDIDCPOL@INPUT_ERROR_STRING?$AA@ 0046368c     profile.obj
 0002:000016a0       ??_C@_0BH@FMKKGGP@NO_DEL_ALL_ROWS_STRING?$AA@ 004636a0     profile.obj
 0002:000016b8       ??_C@_0BM@HOHOIEHB@ATTEMPT_DEL_ALL_ROWS_STRING?$AA@ 004636b8     profile.obj
 0002:000016d4       ??_C@_0BI@IJLHNNMB@NOTHING_SELECTED_STRING?$AA@ 004636d4     profile.obj
 0002:000016ec       ??_C@_0BC@LEAHFMGG@SELECT_ROW_STRING?$AA@ 004636ec     profile.obj
 0002:00001700       ??_C@_0BD@MHNFKBBF@N_PER_GROUP_STRING?$AA@ 00463700     profile.obj
 0002:00001714       ??_C@_0BN@JAPEOCPA@KILLING_ALARMSUM_DATA_STRING?$AA@ 00463714     profile.obj
 0002:00001734       ??_C@_0BF@BFGHMEAB@DIF_PRES_ZOOM_STRING?$AA@ 00463734     profile.obj
 0002:0000174c       ??_C@_0BG@PJPCOGHA@HEAD_PRES_ZOOM_STRING?$AA@ 0046374c     profile.obj
 0002:00001764       ??_C@_0BF@FICJEIAP@ROD_PRES_ZOOM_STRING?$AA@ 00463764     profile.obj
 0002:0000177c       ??_C@_0BC@MCACJJP@FIXED_AXIS_STRING?$AA@ 0046377c     profile.obj
 0002:00001790       ??_C@_0M@NCCBAGIL@ft2help?4txt?$AA@ 00463790     profile.obj
 0002:0000179c       ??_C@_0M@GJFNBFGB@ft2help?4exe?$AA@ 0046379c     profile.obj
 0002:000017a8       ??_C@_05PPGDJHGF@Frech?$AA@ 004637a8     profile.obj
 0002:000017b0       ??_C@_03KCPJAIHF@MON?$AA@  004637b0     profile.obj
 0002:000017b4       ??_C@_02BAHDIOLJ@XX?$AA@   004637b4     profile.obj
 0002:000017b8       ??_C@_0P@CFODCDAB@MACHINE_STRING?$AA@ 004637b8     profile.obj
 0002:000017c8       ??_C@_0BA@PAMPJOIJ@DOWNTIME_PROMPT?$AA@ 004637c8     profile.obj
 0002:000017d8       ??_C@_09EHNEPMML@OK_STRING?$AA@ 004637d8     profile.obj
 0002:000017e4       ??_C@_06JHILMIHF@CANCEL?$AA@ 004637e4     profile.obj
 0002:000017ec       ??_C@_0BH@FCPKFFIJ@DOWNTIME_ENTRY_CAPTION?$AA@ 004637ec     profile.obj
 0002:00001804       ??_C@_03KHICJKCI@?4?4?4?$AA@ 00463804     profile.obj
 0002:00001808       ??_C@_06CHPEJBOD@device?$AA@ 00463808     profile.obj
 0002:00001810       ??_C@_07EKMDLNDL@windows?$AA@ 00463810     profile.obj
 0002:00001818       ??_C@_0BG@ONGPNMNP@DIF_AXIS_LABEL_STRING?$AA@ 00463818     profile.obj
 0002:00001830       ??_C@_03ELIFGAKH@?$CK?$CK?$CK?$AA@ 00463830     profile.obj
 0002:00001834       ??_C@_02GFKOMOKH@?5?$CI?$AA@ 00463834     profile.obj
 0002:00001838       ??_C@_01PKGAHCOL@?$CJ?$AA@ 00463838     profile.obj
 0002:0000183c       ??_C@_07KJOIGCPM@0000?400?$AA@ 0046383c     profile.obj
 0002:00001844       ??_C@_02JMLHNFEL@WW?$AA@   00463844     profile.obj
 0002:00001848       ??_C@_03MCPBMLDJ@?5?3?5?$AA@ 00463848     profile.obj
 0002:0000184c       ??_C@_01CLKCMJKC@?5?$AA@   0046384c     profile.obj
 0002:00001850       ??_C@_01LFCBOECM@?4?$AA@   00463850     profile.obj
 0002:00001854       ??_C@_0BJ@BMJKDBIO@update_day_param_display?$AA@ 00463854     profile.obj
 0002:00001870       ??_C@_07EKEMFJNL@LISTBOX?$AA@ 00463870     profile.obj
 0002:00001878       ??_C@_0CA@JHCHFEPM@15?334?345?5?52?4344?5?5123?4223?5?545?467?$AA@ 00463878     profile.obj
 0002:00001898       ??_C@_04BMCEDOKO@EDIT?$AA@ 00463898     profile.obj
 0002:000018a0       ??_C@_0M@CGACFMDG@W?5P?5000000?4?$AA@ 004638a0     profile.obj
 0002:000018ac       ??_C@_0BB@IPOKKIME@TrueTrak?5Profile?$AA@ 004638ac     profile.obj
 0002:000018c0       ??_C@_0M@FLNALCAF@CHOOSE_PART?$AA@ 004638c0     profile.obj
 0002:000018cc       ??_C@_0BG@JKODNOOH@CHOOSE_PARAMETER_LIST?$AA@ 004638cc     profile.obj
 0002:000018e4       ??_C@_0BA@KHFCNJDP@POSITION_STRING?$AA@ 004638e4     profile.obj
 0002:000018f4       ??_C@_0M@IBMEBPGE@TIME_STRING?$AA@ 004638f4     profile.obj
 0002:00001900       ??_C@_0BA@GMGAMLFO@VELOCITY_STRING?$AA@ 00463900     profile.obj
 0002:00001910       ??_C@_0N@JGPIKJCE@START_STRING?$AA@ 00463910     profile.obj
 0002:00001920       ??_C@_0L@FILNDEBD@END_STRING?$AA@ 00463920     profile.obj
 0002:0000192c       ??_C@_0N@OIOMJCEL@DELTA_STRING?$AA@ 0046392c     profile.obj
 0002:0000193c       ??_C@_08GEJEEDMM@SAVE_TSL?$AA@ 0046393c     profile.obj
 0002:00001948       ??_C@_0M@FDHMKDA@CURRENT_TSL?$AA@ 00463948     profile.obj
 0002:00001954       ??_C@_06NPKDIFBI@TSL_IS?$AA@ 00463954     profile.obj
 0002:0000195c       ??_C@_0O@FGHAPCMG@ENTER_BISCUIT?$AA@ 0046395c     profile.obj
 0002:0000196c       ??_C@_0M@ICHCMBCH@MUST_RELOAD?$AA@ 0046396c     profile.obj
 0002:00001978       ??_C@_0BA@JLOLHNCJ@SET_TSL_CAPTION?$AA@ 00463978     profile.obj
 0002:00001988       ??_C@_0BC@OJKMDFOL@PARAMS_TO_DISPLAY?$AA@ 00463988     profile.obj
 0002:0000199c       ??_C@_0BB@BKPJBJDF@AVAILABLE_PARAMS?$AA@ 0046399c     profile.obj
 0002:000019b0       ??_C@_0BK@JODNDKHP@CHOOSE_PARAM_LIST_CAPTION?$AA@ 004639b0     profile.obj
 0002:000019cc       ??_C@_0BI@PPGLPIHO@CHOOSE_DOWNTIME_MACHINE?$AA@ 004639cc     profile.obj
 0002:000019e4       ??_C@_0L@FHEJDFLE@ALL_STRING?$AA@ 004639e4     profile.obj
 0002:000019f0       ??_C@_0M@GPLNAFLI@EDIT_STRING?$AA@ 004639f0     profile.obj
 0002:000019fc       ??_C@_08MIDJDLEE@OPERATOR?$AA@ 004639fc     profile.obj
 0002:00001a08       ??_C@_0BA@PDHJPANP@OPERATOR_SIGNON?$AA@ 00463a08     profile.obj
 0002:00001a18       ??_C@_0BG@MMOIBJLG@EDIT_OPERATORS_DIALOG?$AA@ 00463a18     profile.obj
 0002:00001a30       ??_C@_0CE@GJHLFPGH@CHOOSE_DOWNTIME_MACHINE_MENU_STR@ 00463a30     profile.obj
 0002:00001a54       ??_C@_0M@JCAJLPME@UNZOOM_MENU?$AA@ 00463a54     profile.obj
 0002:00001a60       ??_C@_09CKLAAOCI@ZOOM_MENU?$AA@ 00463a60     profile.obj
 0002:00001a6c       ??_C@_0BK@NBNBFLBB@STATUS_SCREEN_MENU_STRING?$AA@ 00463a6c     profile.obj
 0002:00001a88       ??_C@_0BN@GMBCEPCL@DAY_PARAM_SCREEN_MENU_STRING?$AA@ 00463a88     profile.obj
 0002:00001aa8       ??_C@_0BB@IKPDGBHE@XDCR_MENU_STRING?$AA@ 00463aa8     profile.obj
 0002:00001abc       ??_C@_0BA@JEIEHBEP@STD_SCREEN_MENU?$AA@ 00463abc     profile.obj
 0002:00001acc       ??_C@_0O@BJMNDBKH@POS_TIME_MENU?$AA@ 00463acc     profile.obj
 0002:00001adc       ??_C@_0O@MODGNAFF@POS_ONLY_MENU?$AA@ 00463adc     profile.obj
 0002:00001aec       ??_C@_0P@IHCGBFFP@TIME_ONLY_MENU?$AA@ 00463aec     profile.obj
 0002:00001afc       ??_C@_0BP@HOJCJLID@FONT_STATUS_SCREEN_MENU_STRING?$AA@ 00463afc     profile.obj
 0002:00001b1c       ??_C@_0BP@CGFOGNFN@SAVE_STATUS_SCREEN_MENU_STRING?$AA@ 00463b1c     profile.obj
 0002:00001b3c       ??_C@_0BP@ODALJAFE@EDIT_STATUS_SCREEN_MENU_STRING?$AA@ 00463b3c     profile.obj
 0002:00001b5c       ??_C@_0P@HHPPNHAC@LastScreenType?$AA@ 00463b5c     profile.obj
 0002:00001b6c       ??_C@_0BB@HKOHPAJO@tooltips_class32?$AA@ 00463b6c     profile.obj
 0002:00001b80       ??_C@_02PLJDPFIO@00?$AA@   00463b80     profile.obj
 0002:00001b84       ??_C@_0BG@COFOFIDP@DOWNTIME_ENTRY_DIALOG?$AA@ 00463b84     profile.obj
 0002:00001b9c       ??_C@_07NGFJPNPN@Version?$AA@ 00463b9c     profile.obj
 0002:00001ba4       ??_C@_06PBHFLDIO@TT2020?$AA@ 00463ba4     profile.obj
 0002:00001bac       ??_C@_0M@CPHGFBOA@PROCESS_MON?$AA@ 00463bac     profile.obj
 0002:00001bb8       ??_C@_07NCHCCDCP@VERSION?$AA@ 00463bb8     profile.obj
 0002:00001bc0       ??_C@_09LHCFCKOO@SN_PROMPT?$AA@ 00463bc0     profile.obj
 0002:00001bcc       ??_C@_0BC@MHNLNNDI@CHOOSE_LANG_TITLE?$AA@ 00463bcc     profile.obj
 0002:00001be0       ??_C@_08GNEGLACP@COMPUTER?$AA@ 00463be0     profile.obj
 0002:00001bec       ??_C@_05OILHFCE@BOARD?$AA@ 00463bec     profile.obj
 0002:00001bf4       ??_C@_09FFGCLAEA@MONITORED?$AA@ 00463bf4     profile.obj
 0002:00001c00       ??_C@_07EKBCFBCP@ADDRESS?$AA@ 00463c00     profile.obj
 0002:00001c08       ??_C@_0L@KDAANNPD@SORT_BY_CO?$AA@ 00463c08     profile.obj
 0002:00001c14       ??_C@_0L@DHBNNNHH@SORT_BY_MA?$AA@ 00463c14     profile.obj
 0002:00001c20       ??_C@_0N@DPOICAPA@SAVE_TO_CLIP?$AA@ 00463c20     profile.obj
 0002:00001c30       ??_C@_0L@EOFIJKPD@LIST_OF_MA?$AA@ 00463c30     profile.obj
 0002:00001c3c       ??_C@_0P@CNIBFOPN@PERCENT_STRING?$AA@ 00463c3c     profile.obj
 0002:00001c4c       ??_C@_05EFFCCOAM@COUNT?$AA@ 00463c4c     profile.obj
 0002:00001c54       ??_C@_08NICDKGCH@BY_SHIFT?$AA@ 00463c54     profile.obj
 0002:00001c60       ??_C@_06COJCILHE@BY_DAY?$AA@ 00463c60     profile.obj
 0002:00001c68       ??_C@_08JNHEEINK@QUANTITY?$AA@ 00463c68     profile.obj
 0002:00001c74       ??_C@_09CMNEAMOC@TIME_SPAN?$AA@ 00463c74     profile.obj
 0002:00001c80       ??_C@_0L@JLPCJOKF@ALARM_TYPE?$AA@ 00463c80     profile.obj
 0002:00001c8c       ??_C@_0BD@MNNHKPCL@TOTAL_SHOTS_STRING?$AA@ 00463c8c     profile.obj
 0002:00001ca0       ??_C@_0O@GHGLBMG@ALARM_SUMMARY?$AA@ 00463ca0     profile.obj
 0002:00001cb0       ??_C@_0M@HOKIILIC@LOG_TO_FILE?$AA@ 00463cb0     profile.obj
 0002:00001cbc       ??_C@_0P@KAGIBNPI@LOG_TO_PRINTER?$AA@ 00463cbc     profile.obj
 0002:00001ccc       ??_C@_0P@PJCPMPHO@CHOOSE_PRINTER?$AA@ 00463ccc     profile.obj
 0002:00001cdc       ??_C@_0M@DEKFFFKC@CHOOSE_FILE?$AA@ 00463cdc     profile.obj
 0002:00001ce8       ??_C@_0N@LIELKMLA@SAVE_CHANGES?$AA@ 00463ce8     profile.obj
 0002:00001cf8       ??_C@_09FMPDODGN@MAX_LINES?$AA@ 00463cf8     profile.obj
 0002:00001d04       ??_C@_0BA@BBHEPHNB@ALARM_LOG_SETUP?$AA@ 00463d04     profile.obj
 0002:00001d14       ??_C@_0BA@ELDIJBNE@Pos?1Time?0Count?0?$AA@ 00463d14     profile.obj
 0002:00001d24       ??_C@_0BD@MHFMGEKL@?0Hex?5Bits?0Hex?5Bits?$AA@ 00463d24     profile.obj
 0002:00001d38       ??_C@_02FFDDGDPD@P?0?$AA@  00463d38     profile.obj
 0002:00001d3c       ??_C@_02FCDKMLCP@T?0?$AA@  00463d3c     profile.obj
 0002:00001d40       ??_C@_03GIOIKFCO@C?3?2?$AA@ 00463d40     profile.obj
 0002:00001d44       ??_C@_06PPDGEDDO@?9Shot?9?$AA@ 00463d44     profile.obj
 0002:00001d4c       ??_C@_04EBGNMJBD@?4csv?$AA@ 00463d4c     profile.obj
 0002:00001d54       ??_C@_04IAPJGLOD@SAVE?$AA@ 00463d54     profile.obj
 0002:00001d5c       ??_C@_09FJBOBOMP@FILE_NAME?$AA@ 00463d5c     profile.obj
 0002:00001d68       ??_C@_06JIGFBAJC@COUNTS?$AA@ 00463d68     profile.obj
 0002:00001d70       ??_C@_0L@KFBBLLKO@RAW_COUNTS?$AA@ 00463d70     profile.obj
 0002:00001d7c       ??_C@_09LOBNAPNB@STD_UNITS?$AA@ 00463d7c     profile.obj
 0002:00001d88       ??_C@_0BF@HOPJKIJM@USE_SHOT_NUMBER_XBOX?$AA@ 00463d88     profile.obj
 0002:00001da0       ??_C@_0L@KEHFOJCM@monall?4exe?$AA@ 00463da0     profile.obj
 0002:00001dac       ??_C@_08LDFALHHP@editpart?$AA@ 00463dac     profile.obj
 0002:00001db8       ??_C@_08FCOCFNLI@emachine?$AA@ 00463db8     profile.obj
 0002:00001dc4       ??_C@_06FMENPPIO@monall?$AA@ 00463dc4     profile.obj
 0002:00001dcc       ??_C@_07HHPABDOO@monedit?$AA@ 00463dcc     profile.obj
 0002:00001dd4       ??_C@_07IGGFILCB@esensor?$AA@ 00463dd4     profile.obj
 0002:00001ddc       ??_C@_06FHLPEKBJ@bupres?$AA@ 00463ddc     profile.obj
 0002:00001de4       ??_C@_08NCILAMIM@v5setups?$AA@ 00463de4     profile.obj
 0002:00001df0       ??_C@_08BIHKDAHG@downtime?$AA@ 00463df0     profile.obj
 0002:00001dfc       ??_C@_08HAAJMJDO@editdown?$AA@ 00463dfc     profile.obj
 0002:00001e08       ??_C@_08BFNOOJDN@suretrak?$AA@ 00463e08     profile.obj
 0002:00001e14       ??_C@_08EOFDKKIO@visiedit?$AA@ 00463e14     profile.obj
 0002:00001e1d       ??_C@_00CNPNBAHC@?$AA@     00463e1d     profile.obj
 0002:00001e20       ??_C@_07JGHHABLF@stddown?$AA@ 00463e20     profile.obj
 0002:00001e28       ??_C@_08MBJDLAIE@shiftrpt?$AA@ 00463e28     profile.obj
 0002:00001e34       ??_C@_07ONPFMHHK@convert?$AA@ 00463e34     profile.obj
 0002:00001e3c       ??_C@_04JLMDILM@?4exe?$AA@ 00463e3c     profile.obj
 0002:00001e44       ??_C@_09BHNBMIEK@Menu?5Help?$AA@ 00463e44     profile.obj
 0002:00001e50       ??_C@_0BF@EJBIEODF@ALARM_SUMMARY_DIALOG?$AA@ 00463e50     profile.obj
 0002:00001e68       ??_C@_03JMDFPPIA@CFG?$AA@  00463e68     profile.obj
 0002:00001e6c       ??_C@_0BA@BAEBFNJB@PASSWORD_DIALOG?$AA@ 00463e6c     profile.obj
 0002:00001e7c       ??_C@_0BG@IIFJPOEM@EDIT_PASSWORDS_DIALOG?$AA@ 00463e7c     profile.obj
 0002:00001e94       ??_C@_0BC@CCLPAOFK@CO_OPTIONS_DIALOG?$AA@ 00463e94     profile.obj
 0002:00001ea8       ??_C@_0BH@NMFHAMKJ@CHOOSE_LANGUAGE_DIALOG?$AA@ 00463ea8     profile.obj
 0002:00001ec0       ??_C@_07NFANNNEC@UNKNOWN?$AA@ 00463ec0     profile.obj
 0002:00001ec8       ??_C@_04GOLNGIJ@EXIT?$AA@  00463ec8     profile.obj
 0002:00001ed0       ??_C@_01GBGANLPD@0?$AA@    00463ed0     profile.obj
 0002:00001ed4       ??_C@_03FBBILEHC@ACT?$AA@  00463ed4     profile.obj
 0002:00001ed8       ??_C@_0BE@NPCAEJEJ@TREND_CONFIG_DIALOG?$AA@ 00463ed8     profile.obj
 0002:00001eec       ??_C@_0BN@HEFDIJME@DOWNTIME_REPORT_SETUP_DIALOG?$AA@ 00463eec     profile.obj
 0002:00001f0c       ??_C@_0BM@OKBHNLNA@PRINT_MULTIPLE_SHOTS_DIALOG?$AA@ 00463f0c     profile.obj
 0002:00001f28       ??_C@_0BG@GPFNEKHC@REALTIME_MACHINE_LIST?$AA@ 00463f28     profile.obj
 0002:00001f40       ??_C@_0BG@NDGHIHLP@DISPLAY_CONFIGURATION?$AA@ 00463f40     profile.obj
 0002:00001f58       ??_C@_0BE@LMBCFHOI@MACHINE_LIST_DIALOG?$AA@ 00463f58     profile.obj
 0002:00001f6c       ??_C@_0N@BNEBAGIE@ABOUT_DIALOG?$AA@ 00463f6c     profile.obj
 0002:00001f7c       ??_C@_0BH@EMLCDPKF@OPERATOR_SIGNON_DIALOG?$AA@ 00463f7c     profile.obj
 0002:00001f94       ??_C@_0BE@NENPPFEG@EXPORT_SHOTS_DIALOG?$AA@ 00463f94     profile.obj
 0002:00001fa8       ??_C@_0BH@IFGODJEC@ALARM_LOG_SETUP_DIALOG?$AA@ 00463fa8     profile.obj
 0002:00001fc0       ??_C@_0P@DDFGHOEM@SET_TSL_DIALOG?$AA@ 00463fc0     profile.obj
 0002:00001fd0       ??_C@_0BD@KNJAHFCK@EDIT_SHIFTS_DIALOG?$AA@ 00463fd0     profile.obj
 0002:00001fe4       ??_C@_0BF@PBICNPOA@EXPORT_ALARMS_DIALOG?$AA@ 00463fe4     profile.obj
 0002:00001ffc       ??_C@_0BF@CGPIMNNP@CSV_SHOT_FILE_DIALOG?$AA@ 00463ffc     profile.obj
 0002:00002014       ??_C@_05NGHNGHMD@LastN?$AA@ 00464014     profile.obj
 0002:0000201c       ??_C@_08CIECPHJB@HideMenu?$AA@ 0046401c     profile.obj
 0002:00002028       ??_C@_0BD@MHEPLIHA@LastStdProfileType?$AA@ 00464028     profile.obj
 0002:0000203c       ??_C@_0L@EPPJOCIJ@LOADING_MA?$AA@ 0046403c     profile.obj
 0002:00002048       ??_C@_09IHPALPEF@CO_PROMPT?$AA@ 00464048     profile.obj
 0002:00002054       ??_C@_0BJ@DJNGNMJI@LOAD_FROM_NETWORK_DIALOG?$AA@ 00464054     profile.obj
 0002:00002070       ??_C@_07EAJOOGMN@PROFILE?$AA@ 00464070     profile.obj
 0002:00002078       ??_C@_0BP@BBMLBOEI@CHOOSE_DOWNTIME_MACHINE_DIALOG?$AA@ 00464078     profile.obj
 0002:00002098       ??_C@_0BA@FOBLHICH@ZOOM_BOX_DIALOG?$AA@ 00464098     profile.obj
 0002:000020a8       ??_C@_0BG@MLMHCENP@SMALL_ZOOM_BOX_DIALOG?$AA@ 004640a8     profile.obj
 0002:000020c0       ??_C@_0BF@ELBCHMC@PARAM_HISTORY_DIALOG?$AA@ 004640c0     profile.obj
 0002:000020d8       ??_C@_0BH@HOFFIKJC@VIEW_PARAMETERS_DIALOG?$AA@ 004640d8     profile.obj
 0002:000020f0       ??_C@_0BI@CCPJIENH@COLOR_DEFINITION_DIALOG?$AA@ 004640f0     profile.obj
 0002:00002108       __real@00000000            00464108     profile.obj
 0002:00002110       __real@0000000000000000    00464110     profile.obj
 0002:00002118       __real@3fd0000000000000    00464118     profile.obj
 0002:00002120       __real@3ff0000000000000    00464120     profile.obj
 0002:00002128       __real@4059000000000000    00464128     profile.obj
 0002:00002130       __real@408f400000000000    00464130     profile.obj
 0002:00002138       __real@40ed4c0000000000    00464138     profile.obj
 0002:00002140       __real@41200000            00464140     profile.obj
 0002:00002144       __real@461c4000            00464144     profile.obj
 0002:00002150       __xmm@00000006000000050000000400000003 00464150     profile.obj
 0002:00002160       __xmm@41f00000000000000000000000000000 00464160     profile.obj
 0002:00002170       __xmm@80000000800000008000000080000000 00464170     profile.obj
 0002:00002180       ??_C@_0O@FCLBBFE@TOTALS_STRING?$AA@ 00464180     alarmexp.obj
 0002:00002190       ??_C@_0BO@CLCCCBBE@ALARMSUM_EXPORT_HEADER_STRING?$AA@ 00464190     alarmexp.obj
 0002:000021b0       ??_C@_09BDELOPOJ@DEL_RANGE?$AA@ 004641b0     alarmexp.obj
 0002:000021bc       ??_C@_0P@CGCPFDEM@EXPORT_TO_CLIP?$AA@ 004641bc     alarmexp.obj
 0002:000021cc       ??_C@_0M@OMKELJPP@DATE_STRING?$AA@ 004641cc     alarmexp.obj
 0002:000021d8       ??_C@_0L@FJHPBPBM@LOW_STRING?$AA@ 004641d8     alarmexp.obj
 0002:000021e4       ??_C@_0M@GOLLMIIH@HIGH_STRING?$AA@ 004641e4     alarmexp.obj
 0002:000021f0       ??_C@_0P@HFCLDDHB@TOTAL_WARNINGS?$AA@ 004641f0     alarmexp.obj
 0002:00002200       ??_C@_0N@BFFANFE@TOTAL_ALARMS?$AA@ 00464200     alarmexp.obj
 0002:00002210       ??_C@_0M@CHDBLKBA@TOTAL_COUNT?$AA@ 00464210     alarmexp.obj
 0002:0000221c       ??_C@_0P@LAPDEIKN@WARNING_COUNTS?$AA@ 0046421c     alarmexp.obj
 0002:0000222c       ??_C@_0N@FGPDKOFB@ALARM_COUNTS?$AA@ 0046422c     alarmexp.obj
 0002:0000223c       ??_C@_08MPEENBPM@EA_TITLE?$AA@ 0046423c     alarmexp.obj
 0002:0000224c       ??_C@_04IEDBBIIG@Font?$AA@ 0046424c     box.obj
 0002:00002254       ??_C@_01FHEEJDEE@A?$AA@    00464254     box.obj
 0002:00002258       ??_C@_0BF@GBAOGICN@MACHINE_LABEL_STRING?$AA@ 00464258     chospart.obj
 0002:00002270       ??_C@_0BC@MGJOEEOD@PART_LABEL_STRING?$AA@ 00464270     chospart.obj
 0002:00002284       ??_C@_0BD@DGNHHPDG@SHOTS_LABEL_STRING?$AA@ 00464284     chospart.obj
 0002:00002298       ??_C@_0BE@BHJMEKFN@PARAMS_LABEL_STRING?$AA@ 00464298     chospart.obj
 0002:000022ac       ??_C@_0BE@HIEPFJEB@CHOOSE_PART_CAPTION?$AA@ 004642ac     chospart.obj
 0002:000022c0       ??_C@_0BF@PCBGHKNH@CHOOSE_SHOTS_CAPTION?$AA@ 004642c0     chosshot.obj
 0002:000022d8       ??_C@_0M@MMHLIINI@ChooseColor?$AA@ 004642d8     colordef.obj
 0002:000022e4       ??_C@_0P@ILHBMIKC@RESTORE_COLORS?$AA@ 004642e4     colordef.obj
 0002:000022f4       ??_C@_09CDPNNEL@TIME_AXIS?$AA@ 004642f4     colordef.obj
 0002:00002300       ??_C@_05POKCJELB@Y_POS?$AA@ 00464300     colordef.obj
 0002:00002308       ??_C@_05DFPOEHBE@X_POS?$AA@ 00464308     colordef.obj
 0002:00002310       ??_C@_03EBEKLIMD@AN1?$AA@  00464310     colordef.obj
 0002:00002314       ??_C@_03GKGHOLAA@AN2?$AA@  00464314     colordef.obj
 0002:00002318       ??_C@_03HDHMNKEB@AN3?$AA@  00464318     colordef.obj
 0002:0000231c       ??_C@_03DMDNEMIG@AN4?$AA@  0046431c     colordef.obj
 0002:00002320       ??_C@_06IOJAGNKJ@NORMAL?$AA@ 00464320     colordef.obj
 0002:00002328       ??_C@_09JJBMMPBC@REFERENCE?$AA@ 00464328     colordef.obj
 0002:00002334       ??_C@_06PNALCGN@SCREEN?$AA@ 00464334     colordef.obj
 0002:0000233c       ??_C@_07OJGHOEK@PRINTER?$AA@ 0046433c     colordef.obj
 0002:00002344       ??_C@_0L@PAEHJLBC@BACKGROUND?$AA@ 00464344     colordef.obj
 0002:00002350       ??_C@_06OHHANPFE@BORDER?$AA@ 00464350     colordef.obj
 0002:00002358       ??_C@_04FJFEHHNM@GRID?$AA@ 00464358     colordef.obj
 0002:00002360       ??_C@_04OEPMCOLO@TEXT?$AA@ 00464360     colordef.obj
 0002:00002368       ??_C@_0BB@GEEMLEMF@TREND_BACKGROUND?$AA@ 00464368     colordef.obj
 0002:0000237c       ??_C@_0M@MIIBKHNP@ALARM_COLOR?$AA@ 0046437c     colordef.obj
 0002:00002388       ??_C@_0O@KLDLFKJA@WARNING_COLOR?$AA@ 00464388     colordef.obj
 0002:00002398       ??_C@_0BE@NCJHAFJI@NO_ALARM_HIST_COLOR?$AA@ 00464398     colordef.obj
 0002:000023ac       ??_C@_0BE@OOBCCNMH@NO_ALARM_TEXT_COLOR?$AA@ 004643ac     colordef.obj
 0002:000023c0       ??_C@_0P@BOPPHHBM@DEFAULT_COLORS?$AA@ 004643c0     colordef.obj
 0002:000023d0       ??_C@_0BE@LKOEEKML@DISPLAY_COLOR_SETUP?$AA@ 004643d0     colordef.obj
 0002:0000244c       ??_C@_04OKOFBOPB@Time?$AA@ 0046444c     colors.obj
 0002:00002454       ??_C@_04IAEKAMNC@YPos?$AA@ 00464454     colors.obj
 0002:0000245c       ??_C@_04LNCKCFGC@XPos?$AA@ 0046445c     colors.obj
 0002:00002464       ??_C@_08LIFBEL@Velocity?$AA@ 00464464     colors.obj
 0002:00002470       ??_C@_07NDIJKOKM@Analog1?$AA@ 00464470     colors.obj
 0002:00002478       ??_C@_07PIKEPNGP@Analog2?$AA@ 00464478     colors.obj
 0002:00002480       ??_C@_07OBLPMMCO@Analog3?$AA@ 00464480     colors.obj
 0002:00002488       ??_C@_07KOPOFKOJ@Analog4?$AA@ 00464488     colors.obj
 0002:00002490       ??_C@_06BAILCDGA@Backgr?$AA@ 00464490     colors.obj
 0002:00002498       ??_C@_06CMOGDIBK@Border?$AA@ 00464498     colors.obj
 0002:000024a0       ??_C@_04FEKPLKKA@Grid?$AA@ 004644a0     colors.obj
 0002:000024a8       ??_C@_04OJAHODMC@Text?$AA@ 004644a8     colors.obj
 0002:000024b0       ??_C@_05BFBAOIKK@Trend?$AA@ 004644b0     colors.obj
 0002:000024c8       ??_C@_0N@GLCGFAED@CTRLIMIT?4TXT?$AA@ 004644c8     ctrlimit.obj
 0002:000024d8       ??_C@_08HPPJPGGP@00?300?300?$AA@ 004644d8     dbarcfg.obj
 0002:000024e4       ??_C@_0M@LDMPICEK@LAST_STRING?$AA@ 004644e4     dbarcfg.obj
 0002:000024f0       ??_C@_0M@NEOJKPKB@FROM_PROMPT?$AA@ 004644f0     dbarcfg.obj
 0002:000024fc       ??_C@_07FDIOJFJP@PRESENT?$AA@ 004644fc     dbarcfg.obj
 0002:00002504       ??_C@_0M@BIACHJKC@RANGE_START?$AA@ 00464504     dbarcfg.obj
 0002:00002510       ??_C@_09HCMLAMJB@RANGE_END?$AA@ 00464510     dbarcfg.obj
 0002:0000251c       ??_C@_0BB@JBADJDPN@EXPORT_DOWNTIMES?$AA@ 0046451c     dbarcfg.obj
 0002:00002530       ??_C@_0N@PONGJOOD@DEL_SELECTED?$AA@ 00464530     dbarcfg.obj
 0002:00002540       ??_C@_09BDNEPIJL@SORT_SUBS?$AA@ 00464540     dbarcfg.obj
 0002:0000254c       ??_C@_08LBLGJDCK@ALL_SUBS?$AA@ 0046454c     dbarcfg.obj
 0002:00002558       ??_C@_08LODEJAGK@CATEGORY?$AA@ 00464558     dbarcfg.obj
 0002:00002564       ??_C@_0M@PLKLGMKM@SUBCATEGORY?$AA@ 00464564     dbarcfg.obj
 0002:00002570       ??_C@_0M@FFBPEJAJ@PART_STRING?$AA@ 00464570     dbarcfg.obj
 0002:0000257c       ??_C@_04EFPNNCJL@DAYS?$AA@ 0046457c     dbarcfg.obj
 0002:00002584       ??_C@_0P@EEBNBAID@DOWNTIME_RANGE?$AA@ 00464584     dbarcfg.obj
 0002:00002594       ??_C@_0M@CDCMLBNE@FIXPRES?4TXT?$AA@ 00464594     dconfig.obj
 0002:000025a0       ??_C@_0M@BABNNHNF@FIXCHAN?4TXT?$AA@ 004645a0     dconfig.obj
 0002:000025ac       ??_C@_0BA@IFDBBJMN@DIF_PRES_STRING?$AA@ 004645ac     dconfig.obj
 0002:000025bc       ??_C@_0BB@JLLMBAPE@HEAD_PRES_STRING?$AA@ 004645bc     dconfig.obj
 0002:000025d0       ??_C@_0BA@PDBDFOOI@ROD_PRES_STRING?$AA@ 004645d0     dconfig.obj
 0002:000025e0       ??_C@_09HGKPPLOF@PRESSURES?$AA@ 004645e0     dconfig.obj
 0002:000025ec       ??_C@_0BB@FHENLNHF@CONTROL_CHANNELS?$AA@ 004645ec     dconfig.obj
 0002:00002600       ??_C@_0P@JCHAGBDM@DISPLAY_CURVES?$AA@ 00464600     dconfig.obj
 0002:00002610       ??_C@_0N@PGIMFBFM@SAVE_DEFAULT?$AA@ 00464610     dconfig.obj
 0002:00002620       ??_C@_0N@PNCEJMIA@CHAN_TO_DISP?$AA@ 00464620     dconfig.obj
 0002:00002630       ??_C@_09JHLPDBB@FIX_RANGE?$AA@ 00464630     dconfig.obj
 0002:0000263c       ??_C@_0L@JFIMEELB@MIN_STRING?$AA@ 0046463c     dconfig.obj
 0002:00002648       ??_C@_0L@FJIBDPLO@MAX_STRING?$AA@ 00464648     dconfig.obj
 0002:00002654       ??_C@_0M@FPEHAJMA@AXIS_LIMITS?$AA@ 00464654     dconfig.obj
 0002:00002660       ??_C@_0L@JKAGPEMM@FIX_LIMITS?$AA@ 00464660     dconfig.obj
 0002:0000266c       ??_C@_06IJKJAOIL@SMOOTH?$AA@ 0046466c     dconfig.obj
 0002:00002674       ??_C@_09PPMJKMJF@SMOOTHING?$AA@ 00464674     dconfig.obj
 0002:00002680       ??_C@_0L@FHKJHHPD@NOF_POINTS?$AA@ 00464680     dconfig.obj
 0002:0000268c       ??_C@_0L@GHINLAIH@MULTIPLIER?$AA@ 0046468c     dconfig.obj
 0002:00002698       ??_C@_0P@JENPIMLA@CHANNEL_STRING?$AA@ 00464698     dconfig.obj
 0002:000026a8       ??_C@_0L@CMJBMPDG@VEL_STRING?$AA@ 004646a8     dconfig.obj
 0002:000026b4       ??_C@_0M@MBHMJINE@CURVE_WIDTH?$AA@ 004646b4     dconfig.obj
 0002:000026c0       ??_C@_0M@NJJPDAKM@POST_IMPACT?$AA@ 004646c0     dconfig.obj
 0002:000026cc       ??_C@_0L@JMMBBACC@PRE_IMPACT?$AA@ 004646cc     dconfig.obj
 0002:000026d8       ??_C@_09LEHOCGOJ@CHAN_DESC?$AA@ 004646d8     dconfig.obj
 0002:000026e4       ??_C@_0O@CDCDDFAK@DISPLAY_SETUP?$AA@ 004646e4     dconfig.obj
 0002:000026f4       __real@3f800000            004646f4     dconfig.obj
 0002:00002700       ??_C@_0N@BPGPHCM@DOWNSCAT?4TXT?$AA@ 00464700     downbar.obj
 0002:00002710       ??_C@_0O@HECJKNFL@Downscatc?4txt?$AA@ 00464710     downbar.obj
 0002:00002720       ??_C@_02ODEKKOPI@11?$AA@   00464720     downbar.obj
 0002:00002724       ??_C@_02KLLMIGEE@?$CF?5?$AA@ 00464724     downbar.obj
 0002:00002728       __real@40000000            00464728     downbar.obj
 0002:00002730       __real@40ac200000000000    00464730     downbar.obj
 0002:0000273c       ??_7EDITOP_GRID_CLASS@@6B@ 0046473c     editop.obj
 0002:00002838       ??_C@_0N@EEHONCB@NO_MORE_THAN?$AA@ 00464838     editop.obj
 0002:00002848       ??_C@_0L@HMBCKGBE@CHARACTERS?$AA@ 00464848     editop.obj
 0002:00002854       ??_C@_07BPGNIBJB@MS?5?$JG?$LO?$JC?$KJ?$AA@ 00464854     editop.obj
 0002:0000285c       ??_C@_0BD@JPOOOLLJ@INPUT_ERROR_DIALOG?$AA@ 0046485c     editop.obj
 0002:00002870       ??_C@_06OEMEAEKN@INSERT?$AA@ 00464870     editop.obj
 0002:00002878       ??_C@_0O@IKIFJHJ@DELETE_STRING?$AA@ 00464878     editop.obj
 0002:00002888       ??_C@_0P@JLPMLHHK@EDIT_OPERATORS?$AA@ 00464888     editop.obj
 0002:000028a0       __xmm@0000000000000000000000000000000e 004648a0     editop.obj
 0002:000028b0       ??_C@_06OOPIFAJ@Sunday?$AA@ 004648b0     editshif.obj
 0002:000028b8       ??_C@_06JLEDEDGH@Monday?$AA@ 004648b8     editshif.obj
 0002:000028c0       ??_C@_07BAAGCFCM@Tuesday?$AA@ 004648c0     editshif.obj
 0002:000028c8       ??_C@_09DLIGFAKA@Wednesday?$AA@ 004648c8     editshif.obj
 0002:000028d4       ??_C@_08HACCIKIA@Thursday?$AA@ 004648d4     editshif.obj
 0002:000028e0       ??_C@_06JECMNKMI@Friday?$AA@ 004648e0     editshif.obj
 0002:000028e8       ??_C@_08INBOOONO@Saturday?$AA@ 004648e8     editshif.obj
 0002:000028f4       ??_C@_07NBCGADJA@Unknown?$AA@ 004648f4     editshif.obj
 0002:000028fc       ??_C@_09CLOMDGHB@SHIFT?4TXT?$AA@ 004648fc     editshif.obj
 0002:00002908       ??_C@_06MFHJGCEH@SUNDAY?$AA@ 00464908     editshif.obj
 0002:00002910       ??_C@_06FANFKECJ@MONDAY?$AA@ 00464910     editshif.obj
 0002:00002918       ??_C@_07BECNPLPO@TUESDAY?$AA@ 00464918     editshif.obj
 0002:00002920       ??_C@_09EECKGOIH@WEDNESDAY?$AA@ 00464920     editshif.obj
 0002:0000292c       ??_C@_08INHPDGAE@THURSDAY?$AA@ 0046492c     editshif.obj
 0002:00002938       ??_C@_06FPLKDNIG@FRIDAY?$AA@ 00464938     editshif.obj
 0002:00002940       ??_C@_08HAEDFCFK@SATURDAY?$AA@ 00464940     editshif.obj
 0002:0000294c       ??_C@_0L@BGDBDGBE@NEW_STRING?$AA@ 0046494c     editshif.obj
 0002:00002958       ??_C@_06PGHHOBB@REMOVE?$AA@ 00464958     editshif.obj
 0002:00002960       ??_C@_0L@OKLJPLAH@ACTUAL_DAY?$AA@ 00464960     editshif.obj
 0002:0000296c       ??_C@_0P@CMENEAKN@START_OF_SHIFT?$AA@ 0046496c     editshif.obj
 0002:0000297c       ??_C@_03NAOMOOGD@DAY?$AA@  0046497c     editshif.obj
 0002:00002980       ??_C@_0L@OPLAJMBC@START_TIME?$AA@ 00464980     editshif.obj
 0002:0000298c       ??_C@_0O@KDGFINJK@MAKE_ALL_DAYS?$AA@ 0046498c     editshif.obj
 0002:0000299c       ??_C@_0M@OGDIPPNJ@SHIFT_SETUP?$AA@ 0046499c     editshif.obj
 0002:000029a8       ??_C@_09DHHAFPKJ@Alarm?5Low?$AA@ 004649a8     export.obj
 0002:000029b4       ??_C@_0L@MONENANA@Alarm?5High?$AA@ 004649b4     export.obj
 0002:000029c0       ??_C@_08GJHLGDEO@Warn?5Low?$AA@ 004649c0     export.obj
 0002:000029cc       ??_C@_09PAOEKMDH@Warn?5High?$AA@ 004649cc     export.obj
 0002:000029d8       ??_C@_03LLNBGIF@Min?$AA@   004649d8     export.obj
 0002:000029dc       ??_C@_03BJDGPCOK@Max?$AA@  004649dc     export.obj
 0002:000029e0       ??_C@_0L@PJDOCNMH@fill_shots?$AA@ 004649e0     export.obj
 0002:000029ec       ??_C@_0BC@LKLJAPFA@PARAMETERS_STRING?$AA@ 004649ec     export.obj
 0002:00002a00       ??_C@_0N@DOHFHBOO@BEGIN_EXPORT?$AA@ 00464a00     export.obj
 0002:00002a10       ??_C@_0O@EHCIFLBH@EXPORT_TO_CSV?$AA@ 00464a10     export.obj
 0002:00002a20       ??_C@_0BD@INNCBFLM@EXPORT_SHOT_PARAMS?$AA@ 00464a20     export.obj
 0002:00002a38       ??_7GRID_CLASS@@6B@        00464a38     gridclas.obj
 0002:00002b40       __xmm@0000000000000000000000000000000d 00464b40     gridclas.obj
 0002:00002b50       __real@38d1b717            00464b50     isalarm.obj
 0002:00002b54       ??_C@_04MOJMPAAH@?4MAS?$AA@ 00464b54     master.obj
 0002:00002b5c       ??_C@_07EHKOIGEK@CURRENT?$AA@ 00464b5c     master.obj
 0002:00002b64       ??_C@_04LCHKKKOB@?4MA2?$AA@ 00464b64     master.obj
 0002:00002b6c       ??_C@_04JEPIDPDB@?4PRO?$AA@ 00464b6c     master.obj
 0002:00002b78       ??_7DATA_ARRAY_CLASS@@6B@  00464b78     mplot.obj
 0002:00002b80       ??_7SINGLE_PLOT_CLASS@@6B@ 00464b80     mplot.obj
 0002:00002b84       ??_C@_07MGPOGLLD@000?4000?$AA@ 00464b84     mplot.obj
 0002:00002b90       __real@3fe0000000000000    00464b90     mplot.obj
 0002:00002b98       __real@bf800000            00464b98     mplot.obj
 0002:00002b9c       ??_C@_0P@FLNFLGIK@Begin?5Printing?$AA@ 00464b9c     mulprint.obj
 0002:00002bac       ??_C@_0O@HGKEIJHN@Stop?5Printing?$AA@ 00464bac     mulprint.obj
 0002:00002bbc       ??_C@_0P@EBHNLDBJ@BEGIN_PRINTING?$AA@ 00464bbc     mulprint.obj
 0002:00002bcc       ??_C@_0N@KEODDPNB@SHOTS_STRING?$AA@ 00464bcc     mulprint.obj
 0002:00002bdc       ??_C@_0P@EPCNCNLE@PRINT_MULTIPLE?$AA@ 00464bdc     mulprint.obj
 0002:00002bec       ??_C@_0BO@CKGNHMKA@read_parameters_from_parmlist?$AA@ 00464bec     paramhis.obj
 0002:00002c10       __xmm@0000000800000008000000080000001a 00464c10     paramwin.obj
 0002:00002c20       __xmm@0000021f0000021e0000021d0000021c 00464c20     paramwin.obj
 0002:00002c30       ??_C@_07NNIBBFDN@ADD?4TXT?$AA@ 00464c30     password.obj
 0002:00002c38       ??_C@_0N@KBFDFBCP@PASSWORD?4TXT?$AA@ 00464c38     password.obj
 0002:00002c4c       ??_7PW_GRID_CLASS@@6B@     00464c4c     password.obj
 0002:00002d48       ??_C@_0BG@OFFJBAEA@No?5Font?5at?5this?5index?$AA@ 00464d48     password.obj
 0002:00002d60       ??_C@_0L@PILNPLKN@SetDefFont?$AA@ 00464d60     password.obj
 0002:00002d6c       ??_C@_03NFLNALCB@000?$AA@  00464d6c     password.obj
 0002:00002d70       ??_C@_05IEIONIFO@Label?$AA@ 00464d70     password.obj
 0002:00002d78       ??_C@_01MCMALHOG@a?$AA@    00464d78     password.obj
 0002:00002d7c       ??_C@_0BA@PMCIHBD@PasswordLogFile?$AA@ 00464d7c     password.obj
 0002:00002d8c       ??_C@_0BC@NMEIKHCH@PasswordLogFormat?$AA@ 00464d8c     password.obj
 0002:00002da0       ??_C@_0BN@IOEICDAA@SOME_VERSIONS_TOO_OLD_STRING?$AA@ 00464da0     password.obj
 0002:00002dc0       ??_C@_0BA@OPINPGFH@COPY_TO_NETWORK?$AA@ 00464dc0     password.obj
 0002:00002dd0       ??_C@_0L@DOHADAJL@ENCRYPT_PW?$AA@ 00464dd0     password.obj
 0002:00002ddc       ??_C@_07KEAIHFAN@EDIT_PW?$AA@ 00464ddc     password.obj
 0002:00002de4       ??_C@_02GDDGGLGE@F8?$AA@   00464de4     password.obj
 0002:00002de8       ??_C@_02PNLFEGOK@F6?$AA@   00464de8     password.obj
 0002:00002dec       ??_C@_0BD@GFBCCICP@PART_BASED_DISPLAY?$AA@ 00464dec     password.obj
 0002:00002e00       ??_C@_09HBJLILCD@USE_POPUP?$AA@ 00464e00     password.obj
 0002:00002e0c       ??_C@_0BA@KGNNBAAC@ENABLE_SNAPSHOT?$AA@ 00464e0c     password.obj
 0002:00002e1c       ??_C@_0O@OICCKNDJ@ALARM_ON_DOWN?$AA@ 00464e1c     password.obj
 0002:00002e2c       ??_C@_0M@DKFDEGA@SAVE_ALARMS?$AA@ 00464e2c     password.obj
 0002:00002e38       ??_C@_0M@KFHPKGEN@SUB_TIMEOUT?$AA@ 00464e38     password.obj
 0002:00002e44       ??_C@_08KBGDCOLE@MON_WIRE?$AA@ 00464e44     password.obj
 0002:00002e50       ??_C@_0P@EDNKCOCC@CLEAR_MON_WIRE?$AA@ 00464e50     password.obj
 0002:00002e60       ??_C@_09BAOFLAJB@PW_LEVELS?$AA@ 00464e60     password.obj
 0002:00002e6c       ??_C@_0M@IFLALHNC@FT2_MONITOR?$AA@ 00464e6c     password.obj
 0002:00002e78       ??_C@_0O@HDHNIMBO@HAVE_SURETRAK?$AA@ 00464e78     password.obj
 0002:00002e88       ??_C@_0BG@DPAPKNB@USE_VALVE_TEST_OUTPUT?$AA@ 00464e88     password.obj
 0002:00002ea0       ??_C@_0BG@PMECIBCO@USE_NULL_VALVE_OUTPUT?$AA@ 00464ea0     password.obj
 0002:00002eb8       ??_C@_0BA@LCPGHJME@PURGE_DOWNTIMES?$AA@ 00464eb8     password.obj
 0002:00002ec8       ??_C@_0BG@DHEDDCKH@EDIT_OPERATORS_BUTTON?$AA@ 00464ec8     password.obj
 0002:00002ee0       ??_C@_0L@ELEBHGKB@PART_SETUP?$AA@ 00464ee0     password.obj
 0002:00002eec       ??_C@_0BE@ONPEIIBE@CHANGE_PARAM_SETUPS?$AA@ 00464eec     password.obj
 0002:00002f00       ??_C@_09FBFMDFDL@EDIT_PART?$AA@ 00464f00     password.obj
 0002:00002f0c       ??_C@_0BC@HPAKPEPF@EDIT_CURRENT_PART?$AA@ 00464f0c     password.obj
 0002:00002f20       ??_C@_0O@HKFMIHNA@EDIT_ST_SETUP?$AA@ 00464f20     password.obj
 0002:00002f30       ??_C@_0L@PNLGJJKP@SHOW_SETUP?$AA@ 00464f30     password.obj
 0002:00002f3c       ??_C@_0L@FMFMAJMA@EDIT_SETUP?$AA@ 00464f3c     password.obj
 0002:00002f48       ??_C@_0BC@HKMPGNFH@VEL_CHANGE_BUTTON?$AA@ 00464f48     password.obj
 0002:00002f5c       ??_C@_07EOCDMAHH@RESTART?$AA@ 00464f5c     password.obj
 0002:00002f64       ??_C@_09NKNBFNMI@PLOT_PROG?$AA@ 00464f64     password.obj
 0002:00002f70       ??_C@_0N@MIPBCIHP@PRINT_PARAMS?$AA@ 00464f70     password.obj
 0002:00002f80       ??_C@_0BB@JLLNPPJJ@CLEAR_FROM_POPUP?$AA@ 00464f80     password.obj
 0002:00002f94       ??_C@_0L@FKNGFJDA@NO_NETWORK?$AA@ 00464f94     password.obj
 0002:00002fa0       ??_C@_09EDOGEHLP@LOW_ALARM?$AA@ 00464fa0     password.obj
 0002:00002fac       ??_C@_0P@JBNMIBNH@SAVE_ALL_PARTS?$AA@ 00464fac     password.obj
 0002:00002fbc       ??_C@_0BD@LMPOAPLC@SHOT_NAME_TEMPLATE?$AA@ 00464fbc     password.obj
 0002:00002fd0       ??_C@_0BB@BDGEKOPI@SHOT_COUNT_RESET?$AA@ 00464fd0     password.obj
 0002:00002fe4       ??_C@_0BD@LEKMKILG@CLEAR_ALARMS_AT_CS?$AA@ 00464fe4     password.obj
 0002:00002ff8       ??_C@_0P@JCAMILBO@RESTORE_DEF_PW?$AA@ 00464ff8     password.obj
 0002:00003008       ??_C@_0BA@BFEMDIAI@EDIT_PC_PROFILE?$AA@ 00465008     password.obj
 0002:00003018       ??_C@_0O@DFKPIDCH@EDIT_PC_SETUP?$AA@ 00465018     password.obj
 0002:00003028       ??_C@_0BB@OKIAFLNP@HIDE_ST_LS_WIRES?$AA@ 00465028     password.obj
 0002:0000303c       ??_C@_0BD@PNAMJPDP@ALARMS_OFF_ON_DOWN?$AA@ 0046503c     password.obj
 0002:00003050       ??_C@_0BE@OHHKDODG@LOG_SHOTPARM_ACCESS?$AA@ 00465050     password.obj
 0002:00003064       ??_C@_0BD@BGBHAAJM@CHANGE_TO_OTHER_CO?$AA@ 00465064     password.obj
 0002:00003078       ??_C@_0BD@HGIKAOID@EXTERNAL_SHOT_NAME?$AA@ 00465078     password.obj
 0002:0000308c       ??_C@_08IICLNALG@MA_SETUP?$AA@ 0046508c     password.obj
 0002:00003098       ??_C@_0BA@LAHLMHDE@CHANGE_MA_SETUP?$AA@ 00465098     password.obj
 0002:000030a8       ??_C@_0BG@JDFAPGCB@CORNER_DISPLAY_LIMITS?$AA@ 004650a8     password.obj
 0002:000030c0       ??_C@_08JOACKOGI@F2_RADIO?$AA@ 004650c0     password.obj
 0002:000030cc       ??_C@_08FCKIKOPG@F3_RADIO?$AA@ 004650cc     password.obj
 0002:000030d8       ??_C@_08FIGNKHOP@F4_RADIO?$AA@ 004650d8     password.obj
 0002:000030e4       ??_C@_08JEMHKHHB@F5_RADIO?$AA@ 004650e4     password.obj
 0002:000030f0       ??_C@_08BKEIKAJC@F6_RADIO?$AA@ 004650f0     password.obj
 0002:000030fc       ??_C@_08NGOCKAAM@F7_RADIO?$AA@ 004650fc     password.obj
 0002:00003108       ??_C@_08PMCLCKA@F8_RADIO?$AA@ 00465108     password.obj
 0002:00003114       ??_C@_08MDGILCDO@F9_RADIO?$AA@ 00465114     password.obj
 0002:00003120       ??_C@_09NOMCAMDG@F10_RADIO?$AA@ 00465120     password.obj
 0002:0000312c       ??_C@_0N@BPGKHABH@START_SCREEN?$AA@ 0046512c     password.obj
 0002:0000313c       ??_C@_0N@OKCMDHKM@EDIT_OPTIONS?$AA@ 0046513c     password.obj
 0002:0000314c       ??_C@_08HBBAENMB@ENTER_PW?$AA@ 0046514c     password.obj
 0002:00003158       ??_C@_0BB@EHGAGKGD@CURRENT_PW_LEVEL?$AA@ 00465158     password.obj
 0002:0000316c       ??_C@_0N@LICNHBME@SET_PW_LEVEL?$AA@ 0046516c     password.obj
 0002:00003180       __xmm@00000000000000000000000000000012 00465180     password.obj
 0002:00003190       ??_C@_04JGBGNBFE@?4pr2?$AA@ 00465190     plot.obj
 0002:00003198       ??_C@_04JJADPCEN@?4pro?$AA@ 00465198     plot.obj
 0002:000031a0       ??_C@_0M@GEGJGLLJ@NONE_STRING?$AA@ 004651a0     plot.obj
 0002:000031b0       __real@3f50624dd2f1a9fc    004651b0     plot.obj
 0002:000031b8       __real@4024000000000000    004651b8     plot.obj
 0002:000031c0       __real@4034000000000000    004651c0     plot.obj
 0002:000031c8       __real@40affe0000000000    004651c8     plot.obj
 0002:000031e8       ??_C@_07JPHDIPNG@DISPLAY?$AA@ 004651e8     rtmlist.obj
 0002:000031f0       ??_C@_0BA@NCDLLOFJ@CLICK_TO_TOGGLE?$AA@ 004651f0     rtmlist.obj
 0002:00003200       ??_C@_0O@BAACMELI@MA_TO_DISP_RT?$AA@ 00465200     rtmlist.obj
 0002:00003210       ??_C@_0BJ@HNJMDBKJ@status_screen_config?4dat?$AA@ 00465210     status.obj
 0002:0000322c       ??_C@_02KNHHEEKP@?5?5?$AA@ 0046522c     status.obj
 0002:00003230       ??_C@_0M@EPICHJMO@SysHeader32?$AA@ 00465230     status.obj
 0002:0000323c       ??_C@_0N@KENONEOL@TCPARAMS?4DAT?$AA@ 0046523c     tcconfig.obj
 0002:00003250       ??_7INT32_ARRAY_CLASS@@6B@ 00465250     tcconfig.obj
 0002:0000325c       ??_C@_0BB@GJHMNNDM@HIGHLIGHT_PARAMS?$AA@ 0046525c     tcconfig.obj
 0002:00003270       ??_C@_0L@DIDDFOAD@CHART_TYPE?$AA@ 00465270     tcconfig.obj
 0002:0000327c       ??_C@_0M@FCEJONDD@TIME_PERIOD?$AA@ 0046527c     tcconfig.obj
 0002:00003288       ??_C@_05CLBHDKKK@XAXIS?$AA@ 00465288     tcconfig.obj
 0002:00003290       ??_C@_09NKMNIEDJ@AVG_EVERY?$AA@ 00465290     tcconfig.obj
 0002:0000329c       ??_C@_06GLEDOMEC@POINTS?$AA@ 0046529c     tcconfig.obj
 0002:000032a4       ??_C@_07JPNPDFOO@MINUTES?$AA@ 004652a4     tcconfig.obj
 0002:000032ac       ??_C@_0O@JCGAIFEB@SHIFTS_STRING?$AA@ 004652ac     tcconfig.obj
 0002:000032bc       ??_C@_05IODGHFJD@WEEKS?$AA@ 004652bc     tcconfig.obj
 0002:000032c4       ??_C@_06PFPCCALD@MONTHS?$AA@ 004652c4     tcconfig.obj
 0002:000032cc       ??_C@_04DHFLIKEL@LAST?$AA@ 004652cc     tcconfig.obj
 0002:000032d4       ??_C@_0L@FKFGMNNI@SHOT_RANGE?$AA@ 004652d4     tcconfig.obj
 0002:000032e0       ??_C@_09MFHGNHNI@TO_STRING?$AA@ 004652e0     tcconfig.obj
 0002:000032ec       ??_C@_0N@JNMPGIDJ@HOUR_AND_DAY?$AA@ 004652ec     tcconfig.obj
 0002:000032fc       ??_C@_0O@MNFNMOFH@SHIFT_AND_DAY?$AA@ 004652fc     tcconfig.obj
 0002:0000330c       ??_C@_0O@CAHKEIE@DAY_AND_MONTH?$AA@ 0046530c     tcconfig.obj
 0002:0000331c       ??_C@_05NJCKAKNC@TREND?$AA@ 0046531c     tcconfig.obj
 0002:00003324       ??_C@_04PJHGMEHP@XBAR?$AA@ 00465324     tcconfig.obj
 0002:0000332c       ??_C@_0N@DGBBACBF@RANGE_STRING?$AA@ 0046532c     tcconfig.obj
 0002:0000333c       ??_C@_09KOEMHBHG@HISTOGRAM?$AA@ 0046533c     tcconfig.obj
 0002:00003348       ??_C@_0BG@GKBIBBKH@WARNING_LIMITS_STRING?$AA@ 00465348     tcconfig.obj
 0002:00003360       ??_C@_0O@GADBDEEE@TARGET_STRING?$AA@ 00465360     tcconfig.obj
 0002:00003370       ??_C@_07NPLJMLNH@MINIMUM?$AA@ 00465370     tcconfig.obj
 0002:00003378       ??_C@_07DJNJGEDG@MAXIMUM?$AA@ 00465378     tcconfig.obj
 0002:00003380       ??_C@_03MBJMPENK@USE?$AA@  00465380     tcconfig.obj
 0002:00003384       ??_C@_0L@MABBOCAB@USE_LIMITS?$AA@ 00465384     tcconfig.obj
 0002:00003390       ??_C@_0BG@FMHPJABG@CHOOSE_SUMMARY_PARAMS?$AA@ 00465390     tcconfig.obj
 0002:000033a8       ??_C@_0BC@OPBGNLOC@TC_VISIBLE_DIALOG?$AA@ 004653a8     tcconfig.obj
 0002:000033bc       ??_C@_0BP@BHOLAGPH@get_nof_points_from_shot_range?$AA@ 004653bc     trend.obj
 0002:000033dc       ??_C@_07EFFENOHL@00000?4?5?$AA@ 004653dc     trend.obj
 0002:000033e4       ??_C@_0L@CFFJLJAI@00000000?4?5?$AA@ 004653e4     trend.obj
 0002:000033f0       ??_C@_09KCCJEHC@load_data?$AA@ 004653f0     trend.obj
 0002:000033fc       ??_C@_0BG@GACILJAF@trend_screen_new_shot?$AA@ 004653fc     trend.obj
 0002:00003414       ??_C@_0P@EFLBJCJG@trend_allshots?$AA@ 00465414     trend.obj
 0002:00003428       __real@3f847ae147ae147b    00465428     trend.obj
 0002:00003430       __real@4008000000000000    00465430     trend.obj
 0002:00003448       ??_C@_0N@INJPIAJH@VALUE_STRING?$AA@ 00465448     viewpara.obj
 0002:00003458       ??_C@_0M@HHLBGDKO@VIEW_PARAMS?$AA@ 00465458     viewpara.obj
 0002:00003468       ??_7SHOT_ARRAY_CLASS@@6B@  00465468     xaxis.obj
 0002:00003470       ??_7X_AXIS_CLASS@@6B@      00465470     xaxis.obj
 0002:00003474       ??_C@_0BI@MFOHPECB@?5?500?100?10000?500?300?30000?$AA@ 00465474     xaxis.obj
 0002:00003494       ??_C@_04LELNNDEG@?5?$CL?9?4?$AA@ 00465494     v5subs:stringcl.obj
 0002:0000349c       ??_C@_0L@FPFMPDDA@0123456789?$AA@ 0046549c     v5subs:stringcl.obj
 0002:000034a8       ??_C@_05KLKPKMCL@?4stbl?$AA@ 004654a8     v5subs:nameclas.obj
 0002:000034b0       ??_C@_0BC@HCEEAJMH@_machine_list?4txt?$AA@ 004654b0     v5subs:nameclas.obj
 0002:000034c4       ??_C@_0BL@LKMBOCCN@STATIC_TEXT_PARAMETERS?4CSV?$AA@ 004654c4     v5subs:nameclas.obj
 0002:000034e8       ??_C@_0M@PNJEDJJP@ASENSOR?4CSV?$AA@ 004654e8     v5subs:asensor.obj
 0002:000034f4       ??_C@_08NPBCJIHM@Not?5Used?$AA@ 004654f4     v5subs:asensor.obj
 0002:00003500       __real@4004000000000000    00465500     v5subs:asensor.obj
 0002:00003508       __real@4004020c49ba5e35    00465508     v5subs:asensor.obj
 0002:00003510       __real@4014000000000000    00465510     v5subs:asensor.obj
 0002:00003518       __real@4014010624dd2f1b    00465518     v5subs:asensor.obj
 0002:00003520       __xmm@3ff00000000000004024000000000000 00465520     v5subs:asensor.obj
 0002:00003530       ??_C@_0M@OLPAACHI@DOWNCAT?4TXT?$AA@ 00465530     v5subs:catclass.obj
 0002:0000353c       ??_C@_0BA@NBCCDBAO@chaxislabel?4dat?$AA@ 0046553c     v5subs:chaxis.obj
 0002:0000354c       ??_C@_09GDACHCPK@COLOR?4TXT?$AA@ 0046554c     v5subs:color.obj
 0002:0000355c       ??_C@_0CK@JBOPMLIC@Unable?5to?5ALLOCATE?5DB_TABLE?5reco@ 0046555c     v5subs:dbsubs.obj
 0002:00003588       ??_C@_0BG@NCMFCBIM@determine_column_info?$AA@ 00465588     v5subs:dbsubs.obj
 0002:000035a0       ??_C@_0BH@ICEGKPMC@Can?8t?5set?5file?5pointer?$AA@ 004655a0     v5subs:dbsubs.obj
 0002:000035b8       ??_C@_0BG@CPBDHLID@Unable?5to?5lock?5record?$AA@ 004655b8     v5subs:dbsubs.obj
 0002:000035d0       ??_C@_05CHKGEIOL@0x?$CFlX?$AA@ 004655d0     v5subs:dbsubs.obj
 0002:000035d8       ??_C@_09OCBCGKDI@DSTAT?4TXT?$AA@ 004655d8     v5subs:dstat.obj
 0002:000035e4       ??_C@_02OCIIMEMP@01?$AA@   004655e4     v5subs:dstat.obj
 0002:000035e8       ??_C@_02MJKFJHAM@02?$AA@   004655e8     v5subs:dstat.obj
 0002:000035ec       ??_C@_08EHEBBLJC@UNKNOWN0?$AA@ 004655ec     v5subs:evclass.obj
 0002:000035f8       ??_C@_0N@NEAIHGCO@FTANALOG?4TXT?$AA@ 004655f8     v5subs:ftanalog.obj
 0002:00003608       ??_C@_0N@CHKFJEGL@FTANALOG?4CSV?$AA@ 00465608     v5subs:ftanalog.obj
 0002:00003618       ??_C@_0N@OHEMABPF@PARMLIST?4CSV?$AA@ 00465618     v5subs:ftanalog.obj
 0002:00003628       ??_C@_03IFPDDAOD@MSL?$AA@  00465628     v5subs:ftanalog.obj
 0002:0000362c       ??_C@_0N@NNGELIJD@COMPUTER?4CSV?$AA@ 0046562c     v5subs:computer.obj
 0002:0000369c       ??_C@_0BM@DAFMABGJ@multipart_runlist_setup?4csv?$AA@ 0046569c     v5subs:multipart_runlist.obj
 0002:000036b8       ??_C@_0BM@PIKGLFOA@multipart_runlist_wires?4csv?$AA@ 004656b8     v5subs:multipart_runlist.obj
 0002:000036ec       ??_C@_0N@MOIHEONP@Machine?5Type?$AA@ 004656ec     v5subs:machine.obj
 0002:000036fc       ??_C@_0BH@NNBMAMNI@Fast?5Trak?5Board?5Number?$AA@ 004656fc     v5subs:machine.obj
 0002:00003714       ??_C@_0BO@HNEENHKI@Mux?5Channel?5Number?5?$CIFT1?5Only?$CJ?$AA@ 00465714     v5subs:machine.obj
 0002:00003734       ??_C@_0BE@DFPNJCJC@Is?5SureTrak?5Control?$AA@ 00465734     v5subs:machine.obj
 0002:00003748       ??_C@_0BC@MMHMIFGN@Current?5Part?5Name?$AA@ 00465748     v5subs:machine.obj
 0002:0000375c       ??_C@_09CCBGKGIC@Rod?5Pitch?$AA@ 0046575c     v5subs:machine.obj
 0002:00003768       ??_C@_0BD@GNBMCJIF@Profile?5Skip?5Count?$AA@ 00465768     v5subs:machine.obj
 0002:0000377c       ??_C@_0BG@FDBEJOGA@Profile?5Acquire?5Count?$AA@ 0046577c     v5subs:machine.obj
 0002:00003794       ??_C@_0BJ@FLJCNELE@Profile?5Time?5Skip?5?$CISec?4?$CJ?$AA@ 00465794     v5subs:machine.obj
 0002:000037b0       ??_C@_0O@LOIAPFOK@Profile?5Flags?$AA@ 004657b0     v5subs:machine.obj
 0002:000037c0       ??_C@_0BC@FEEHGIBD@Profile?5Max?5Saved?$AA@ 004657c0     v5subs:machine.obj
 0002:000037d4       ??_C@_0BB@JJOLMDBO@Param?5Skip?5Count?$AA@ 004657d4     v5subs:machine.obj
 0002:000037e8       ??_C@_0BE@CFBKLFFM@Param?5Acquire?5Count?$AA@ 004657e8     v5subs:machine.obj
 0002:000037fc       ??_C@_0BH@OHCLBIFI@Param?5Time?5Skip?5?$CISec?4?$CJ?$AA@ 004657fc     v5subs:machine.obj
 0002:00003814       ??_C@_0M@FLCPHCBL@Param?5Flags?$AA@ 00465814     v5subs:machine.obj
 0002:00003820       ??_C@_0BA@HHBIKCAF@Param?5Max?5Saved?$AA@ 00465820     v5subs:machine.obj
 0002:00003830       ??_C@_0O@JBNMJHP@Monitor?5Flags?$AA@ 00465830     v5subs:machine.obj
 0002:00003840       ??_C@_0BJ@GBHCCOIB@Auto?5Shot?5Timeout?5?$CISec?4?$CJ?$AA@ 00465840     v5subs:machine.obj
 0002:0000385c       ??_C@_0BI@MMIPJLJD@Downtime?5Timeout?5?$CISec?4?$CJ?$AA@ 0046585c     v5subs:machine.obj
 0002:00003874       ??_C@_0BK@OPEBGBCN@Differential?5Curve?5Number?$AA@ 00465874     v5subs:machine.obj
 0002:00003890       ??_C@_0BM@ICLBHBOG@Position?5Base?5Impact?5Points?$AA@ 00465890     v5subs:machine.obj
 0002:000038ac       ??_C@_0BI@MGNODMON@Time?5Base?5Impact?5Points?$AA@ 004658ac     v5subs:machine.obj
 0002:000038c4       ??_C@_0BJ@LBLJABBN@Pre?5Impact?5Pressure?5Type?$AA@ 004658c4     v5subs:machine.obj
 0002:000038e0       ??_C@_0BK@IIFEICOJ@Post?5Impact?5Pressure?5Type?$AA@ 004658e0     v5subs:machine.obj
 0002:000038fc       ??_C@_0BA@HBNKAMDO@Operator?5Number?$AA@ 004658fc     v5subs:machine.obj
 0002:0000390c       ??_C@_0BD@CPILCMOD@Quadrature?5Divisor?$AA@ 0046590c     v5subs:machine.obj
 0002:00003920       ??_C@_0BI@CNKGMGOJ@Binary?5Valve?5Pulse?5Time?$AA@ 00465920     v5subs:machine.obj
 0002:00003938       ??_C@_0BJ@ENEMHPJH@Binary?5Valve?5Devent?5Time?$AA@ 00465938     v5subs:machine.obj
 0002:00003954       ??_C@_0BI@HNHMFIHE@Binary?5Valve?5Pulse?5Wire?$AA@ 00465954     v5subs:machine.obj
 0002:0000396c       ??_C@_0BN@OGBGKKMD@Valve?5Setting?5after?5Jog?5Shot?$AA@ 0046596c     v5subs:machine.obj
 0002:0000398c       ??_C@_0BJ@KLJNILDG@default_hmi_settings?4csv?$AA@ 0046598c     v5subs:machine.obj
 0002:000039a8       ??_C@_0N@HNGGMANO@SEMAPHOR?4TXT?$AA@ 004659a8     v5subs:machine.obj
 0002:000039b8       ??_C@_02NPBNBJHG@?42?$AA@  004659b8     v5subs:machine.obj
 0002:000039bc       ??_C@_03HLLJOCDO@1?40?$AA@ 004659bc     v5subs:machine.obj
 0002:000039c0       ??_C@_02LHFGLHCH@27?$AA@   004659c0     v5subs:machine.obj
 0002:000039c4       ??_C@_0BA@OBGBLKPH@control_all?4txt?$AA@ 004659c4     v5subs:machine.obj
 0002:000039d4       ??_C@_03GNABGMEE@100?$AA@  004659d4     v5subs:machine.obj
 0002:000039d8       __real@412e848000000000    004659d8     v5subs:machine.obj
 0002:000039e4       ??_C@_04MBLKECLF@?4TMP?$AA@ 004659e4     v5subs:static_text_parameter.obj
 0002:000039ec       ??_C@_0N@BEOBODLA@PARMLIST?4TXT?$AA@ 004659ec     v5subs:param.obj
 0002:000039fc       ??_C@_0M@ECMINKO@NOPARAMETER?$AA@ 004659fc     v5subs:param.obj
 0002:00003a08       ??_C@_0BL@DJGKNCPL@Part?5Setup?3?5Unable?5to?5save?$AA@ 00465a08     v5subs:param.obj
 0002:00003a24       ??_C@_0L@FGNFKGAO@FTCHAN?4TXT?$AA@ 00465a24     v5subs:part.obj
 0002:00003a30       ??_C@_0BE@OCONGGMH@good_shot_setup?4csv?$AA@ 00465a30     v5subs:part.obj
 0002:00003a44       ??_C@_0M@JJIEHKEJ@PSENSOR?4TXT?$AA@ 00465a44     v5subs:part.obj
 0002:00003a50       ??_C@_0BA@GCNGCBPE@shot_events?4csv?$AA@ 00465a50     v5subs:part.obj
 0002:00003a60       __real@3fe921ff2e48e8a7    00465a60     v5subs:part.obj
 0002:00003a68       __real@4054000000000000    00465a68     v5subs:part.obj
 0002:00003a70       ??_C@_0L@GHHOCNHO@FTCALC?4CSV?$AA@ 00465a70     v5subs:ftcalc.obj
 0002:00003a80       __real@400921f9f01b866e    00465a80     v5subs:ftcalc.obj
 0002:00003a88       ??_C@_03BBKEAIF@?$DP?$DP?$DP?$AA@ 00465a88     v5subs:timeclas.obj
 0002:00003a8c       ??_C@_03DIELNALK@jan?$AA@  00465a8c     v5subs:timeclas.obj
 0002:00003a90       ??_C@_03NJCBIINC@feb?$AA@  00465a90     v5subs:timeclas.obj
 0002:00003a94       ??_C@_03EDOLLFFO@mar?$AA@  00465a94     v5subs:timeclas.obj
 0002:00003a98       ??_C@_03BENJMDKB@apr?$AA@  00465a98     v5subs:timeclas.obj
 0002:00003a9c       ??_C@_03KABPGMJF@may?$AA@  00465a9c     v5subs:timeclas.obj
 0002:00003aa0       ??_C@_03CDGENLBG@jun?$AA@  00465aa0     v5subs:timeclas.obj
 0002:00003aa4       ??_C@_03BBFCLJJE@jul?$AA@  00465aa4     v5subs:timeclas.obj
 0002:00003aa8       ??_C@_03CFKHOHFO@aug?$AA@  00465aa8     v5subs:timeclas.obj
 0002:00003aac       ??_C@_03MGBCFPKM@sep?$AA@  00465aac     v5subs:timeclas.obj
 0002:00003ab0       ??_C@_03LMDMAODN@oct?$AA@  00465ab0     v5subs:timeclas.obj
 0002:00003ab4       ??_C@_03DPKMPCLO@nov?$AA@  00465ab4     v5subs:timeclas.obj
 0002:00003ab8       ??_C@_03GKDDHBBI@dec?$AA@  00465ab8     v5subs:timeclas.obj
 0002:00003abc       ??_C@_0P@IPBKIJPJ@Last?5Shot?5Name?$AA@ 00465abc     v5subs:plookup.obj
 0002:00003acc       ??_C@_0BB@HJPIEOB@Last?5Shot?5Number?$AA@ 00465acc     v5subs:plookup.obj
 0002:00003ae0       ??_C@_04FMEGDJGD@Date?$AA@ 00465ae0     v5subs:plookup.obj
 0002:00003ae8       ??_C@_0O@JJPJHNJ@Update?5Status?$AA@ 00465ae8     v5subs:plookup.obj
 0002:00003af8       ??_C@_0M@BJNLCCEC@plookup?4csv?$AA@ 00465af8     v5subs:plookup.obj
 0002:00003b04       ??_C@_0N@BJHJLHBG@MARKLIST?4CSV?$AA@ 00465b04     v5subs:marks.obj
 0002:00003b14       ??_C@_0N@OKNEFFFD@MARKLIST?4TXT?$AA@ 00465b14     v5subs:marks.obj
 0002:00003b54       ??_C@_0BJ@JPOFAANB@parameter_sort_order?4csv?$AA@ 00465b54     v5subs:param_index_class.obj
 0002:00003b70       __real@3f1d9f4d37c1376d    00465b70     v5subs:unitadj.obj
 0002:00003b78       __real@3f74cec41dd1a21f    00465b78     v5subs:unitadj.obj
 0002:00003b80       __real@3f9a027525460aa6    00465b80     v5subs:unitadj.obj
 0002:00003b88       __real@3fb1a67dadaac896    00465b88     v5subs:unitadj.obj
 0002:00003b90       __real@3fb1ffa3b9ae0c17    00465b90     v5subs:unitadj.obj
 0002:00003b98       __real@3fc999999999999a    00465b98     v5subs:unitadj.obj
 0002:00003ba0       __real@3fdd07a84aaed1d9    00465ba0     v5subs:unitadj.obj
 0002:00003ba8       __real@3fe04189374bc6a8    00465ba8     v5subs:unitadj.obj
 0002:00003bb0       __real@3fef6191148fd9fd    00465bb0     v5subs:unitadj.obj
 0002:00003bb8       __real@3ff050c5eb313be2    00465bb8     v5subs:unitadj.obj
 0002:00003bc0       __real@3fff7ef9db22d0e5    00465bc0     v5subs:unitadj.obj
 0002:00003bc8       __real@4001a3112f6c181b    00465bc8     v5subs:unitadj.obj
 0002:00003bd0       __real@400451eb851eb852    00465bd0     v5subs:unitadj.obj
 0002:00003bd8       __real@4019ce703afb7e91    00465bd8     v5subs:unitadj.obj
 0002:00003be0       __real@4022000000000000    00465be0     v5subs:unitadj.obj
 0002:00003be8       __real@4028000000000000    00465be8     v5subs:unitadj.obj
 0002:00003bf0       __real@402c725460aa64c3    00465bf0     v5subs:unitadj.obj
 0002:00003bf8       __real@402d01f212d77319    00465bf8     v5subs:unitadj.obj
 0002:00003c00       __real@40306316a055757d    00465c00     v5subs:unitadj.obj
 0002:00003c08       __real@4039666666666666    00465c08     v5subs:unitadj.obj
 0002:00003c10       __real@403e7ae147ae147b    00465c10     v5subs:unitadj.obj
 0002:00003c18       __real@4040000000000000    00465c18     v5subs:unitadj.obj
 0002:00003c20       __real@40689b3333333333    00465c20     v5subs:unitadj.obj
 0002:00003c28       __real@40730ccccccccccd    00465c28     v5subs:unitadj.obj
 0002:00003c30       __real@40842947ae147ae1    00465c30     v5subs:unitadj.obj
 0002:00003c38       __real@40c1490000000000    00465c38     v5subs:unitadj.obj
 0002:00003c40       __real@40d000c4189374bc    00465c40     v5subs:unitadj.obj
 0002:00003c48       ??_C@_03KOEHGMDN@Sun?$AA@  00465c48     v5subs:time.obj
 0002:00003c4c       ??_C@_03PDAGKDH@Mon?$AA@   00465c4c     v5subs:time.obj
 0002:00003c50       ??_C@_03NAGEINEP@Tue?$AA@  00465c50     v5subs:time.obj
 0002:00003c54       ??_C@_03MHOMLAJA@Wed?$AA@  00465c54     v5subs:time.obj
 0002:00003c58       ??_C@_03MBBJDJPK@Thr?$AA@  00465c58     v5subs:time.obj
 0002:00003c5c       ??_C@_03IDIOELNC@Fri?$AA@  00465c5c     v5subs:time.obj
 0002:00003c60       ??_C@_03FEFJNEK@Sat?$AA@   00465c60     v5subs:time.obj
 0002:00003c68       ??_C@_0BC@FPMLOHHC@DdeConnect?5Failed?$AA@ 00465c68     v5subs:client.obj
 0002:00003c7c       ??_C@_0O@DEJNGLFG@DdeInitialize?$AA@ 00465c7c     v5subs:client.obj
 0002:00003c8c       ??_C@_06CMLPEGNC@Failed?$AA@ 00465c8c     v5subs:client.obj
 0002:00003c94       ??_C@_0BG@CLMLOLAK@DdeCreateStringHandle?$AA@ 00465c94     v5subs:client.obj
 0002:00003cac       ??_C@_0L@DBNEMBMF@DCURVE?4TXT?$AA@ 00465cac     v5subs:dcurve.obj
 0002:00003cc0       __xmm@80000000000000008000000000000000 00465cc0     v5subs:dtotchar.obj
 0002:00003cd8       __real@3ee4f8b588e368f1    00465cd8     v5subs:ftoasc.obj
 0002:00003ce0       __real@bee4f8b588e368f1    00465ce0     v5subs:ftoasc.obj
 0002:00003cf8       __real@3eb0c6f7a0b5ed8d    00465cf8     v5subs:zero.obj
 0002:00003d00       __real@3f1a36e2eb1c432d    00465d00     v5subs:zero.obj
 0002:00003d08       __real@beb0c6f7a0b5ed8d    00465d08     v5subs:zero.obj
 0002:00003d10       __real@bf1a36e2eb1c432d    00465d10     v5subs:zero.obj
 0002:00003d18       ??_C@_02KJIIBPBF@SU?$AA@   00465d18     v5subs:shift.obj
 0002:00003d1c       ??_C@_02PBNGLLE@MO?$AA@    00465d1c     v5subs:shift.obj
 0002:00003d20       ??_C@_02KMMHAJJA@TU?$AA@   00465d20     v5subs:shift.obj
 0002:00003d24       ??_C@_02OEEDKFJI@WE?$AA@   00465d24     v5subs:shift.obj
 0002:00003d28       ??_C@_02FDKLGFIM@TH?$AA@   00465d28     v5subs:shift.obj
 0002:00003d2c       ??_C@_02PMCEOIEJ@FR?$AA@   00465d2c     v5subs:shift.obj
 0002:00003d30       ??_C@_02IHCGMIEA@SA?$AA@   00465d30     v5subs:shift.obj
 0002:00003d4c       ??_C@_09LIKMICOD@UNITS?4TXT?$AA@ 00465d4c     v5subs:units.obj
 0002:00003d58       ??_C@_0L@CNBBFLHO@MONALL?4INI?$AA@ 00465d58     v5subs:write_shotparm_log.obj
 0002:00003d6c       ??_C@_07OOFFCIDH@ListBox?$AA@ 00465d6c     v5subs:winsubs.obj
 0002:00003d78       ??_7FTII_ARRAY_DATA@@6B@   00465d78     v5subs:ftii_shot_data.obj
 0002:00003d80       ??_7FTII_PROFILE@@6B@      00465d80     v5subs:ftii_shot_data.obj
 0002:00003d84       ??_C@_01IHBHIGKO@?0?$AA@   00465d84     v5subs:ftii_shot_data.obj
 0002:00003d88       __real@4000000000000000    00465d88     v5subs:ftii_shot_data.obj
 0002:00003d90       __real@4010000000000000    00465d90     v5subs:ftii_shot_data.obj
 0002:00003d98       ??_C@_07GICHFDO@SubMenu?$AA@ 00465d98     v5subs:menuctrl.obj
 0002:00003da0       ??_C@_07NOCIGAPP@Pattern?$AA@ 00465da0     v5subs:shot_name.obj
 0002:00003da8       ??_C@_0N@OPAEGLLJ@Field?5Length?$AA@ 00465da8     v5subs:shot_name.obj
 0002:00003db8       ??_C@_04HMIIHGGM@Path?$AA@ 00465db8     v5subs:shot_name.obj
 0002:00003dc0       ??_C@_01DHDKHMHF@6?$AA@    00465dc0     v5subs:shot_name.obj
 0002:00003dc4       ??_C@_04HECCEINH@?$HLs6?$HN?$AA@ 00465dc4     v5subs:shot_name.obj
 0002:00003dcc       ??_C@_06CKGENIKG@Enable?$AA@ 00465dcc     v5subs:shot_name.obj
 0002:00003dd4       ??_C@_07FFLLKOAD@Command?$AA@ 00465dd4     v5subs:shot_name.obj
 0002:00003ddc       ??_C@_09BKKLLFMO@File?5Name?$AA@ 00465ddc     v5subs:shot_name.obj
 0002:00003de8       ??_C@_01NANMIPIL@N?$AA@    00465de8     v5subs:shot_name.obj
 0002:00003e68       ??_C@_0O@KMEKOIFH@SHOT_NAME?4CSV?$AA@ 00465e68     v5subs:shot_name.obj
 0002:00003e78       ??_C@_0BB@JLFLKCC@EffPeakSkipCount?$AA@ 00465e78     v5subs:ftii_parameters.obj
 0002:00003e8c       ??_C@_05NAOIJFC@Error?$AA@ 00465e8c     v5subs:error_ms.obj
 0002:00003e94       ??_C@_0L@MMOCAGKL@VisiErrors?$AA@ 00465e94     v5subs:error_ms.obj
 0002:00003ea0       ??_C@_01NEMOKFLO@?$DN?$AA@ 00465ea0     v5subs:error_ms.obj
 0002:00003ea4       ??_C@_01HIHLOKLC@1?$AA@    00465ea4     v5subs:wire_class.obj
 0002:00003ea8       ??_C@_01FDFGLJHB@2?$AA@    00465ea8     v5subs:wire_class.obj
 0002:00003eac       ??_C@_01EKENIIDA@3?$AA@    00465eac     v5subs:wire_class.obj
 0002:00003eb0       ??_C@_01FAMBOPH@4?$AA@     00465eb0     v5subs:wire_class.obj
 0002:00003eb4       ??_C@_01BMBHCPLG@5?$AA@    00465eb4     v5subs:wire_class.obj
 0002:00003eb8       ??_C@_01COCBENDE@7?$AA@    00465eb8     v5subs:wire_class.obj
 0002:00003ebc       ??_C@_01KJLJFBPL@8?$AA@    00465ebc     v5subs:wire_class.obj
 0002:00003ec0       ??_C@_01LAKCGALK@9?$AA@    00465ec0     v5subs:wire_class.obj
 0002:00003ec4       ??_C@_02PKFBJPLJ@10?$AA@   00465ec4     v5subs:wire_class.obj
 0002:00003ec8       ??_C@_02MIGHPNDL@12?$AA@   00465ec8     v5subs:wire_class.obj
 0002:00003ecc       ??_C@_02NBHMMMHK@13?$AA@   00465ecc     v5subs:wire_class.obj
 0002:00003ed0       ??_C@_02JODNFKLN@14?$AA@   00465ed0     v5subs:wire_class.obj
 0002:00003ed4       ??_C@_02IHCGGLPM@15?$AA@   00465ed4     v5subs:wire_class.obj
 0002:00003ed8       ??_C@_02KMALDIDP@16?$AA@   00465ed8     v5subs:wire_class.obj
 0002:00003edc       ??_C@_02LFBAAJHO@17?$AA@   00465edc     v5subs:wire_class.obj
 0002:00003ee0       ??_C@_03OMBNCFLO@61B?$AA@  00465ee0     v5subs:wire_class.obj
 0002:00003ee4       ??_C@_03OCAOHEAG@69B?$AA@  00465ee4     v5subs:wire_class.obj
 0002:00003ee8       ??_C@_02DCIIBFLB@18?$AA@   00465ee8     v5subs:wire_class.obj
 0002:00003eec       ??_C@_03MHDAHGHN@61A?$AA@  00465eec     v5subs:wire_class.obj
 0002:00003ef0       ??_C@_03MJCDCHMF@69A?$AA@  00465ef0     v5subs:wire_class.obj
 0002:00003ef4       ??_C@_02CLJDCEPA@19?$AA@   00465ef4     v5subs:wire_class.obj
 0002:00003ef8       ??_C@_03ONNPEPIJ@60B?$AA@  00465ef8     v5subs:wire_class.obj
 0002:00003efc       ??_C@_03ODMMBODB@68B?$AA@  00465efc     v5subs:wire_class.obj
 0002:00003f00       ??_C@_02PIBHCBOA@20?$AA@   00465f00     v5subs:wire_class.obj
 0002:00003f04       ??_C@_03MGPCBMEK@60A?$AA@  00465f04     v5subs:wire_class.obj
 0002:00003f08       ??_C@_03MIOBENPC@68A?$AA@  00465f08     v5subs:wire_class.obj
 0002:00003f0c       ??_C@_02OBAMBAKB@21?$AA@   00465f0c     v5subs:wire_class.obj
 0002:00003f10       ??_C@_03PALLNLOI@59B?$AA@  00465f10     v5subs:wire_class.obj
 0002:00003f14       ??_C@_03OIJAFJAM@67B?$AA@  00465f14     v5subs:wire_class.obj
 0002:00003f18       ??_C@_02MKCBEDGC@22?$AA@   00465f18     v5subs:wire_class.obj
 0002:00003f1c       ??_C@_03NLJGIICL@59A?$AA@  00465f1c     v5subs:wire_class.obj
 0002:00003f20       ??_C@_03MDLNAKMP@67A?$AA@  00465f20     v5subs:wire_class.obj
 0002:00003f24       ??_C@_02NDDKHCCD@23?$AA@   00465f24     v5subs:wire_class.obj
 0002:00003f28       ??_C@_03PBHJLBNP@58B?$AA@  00465f28     v5subs:wire_class.obj
 0002:00003f2c       ??_C@_03OJFCDDDL@66B?$AA@  00465f2c     v5subs:wire_class.obj
 0002:00003f30       ??_C@_02JMHLOEOE@24?$AA@   00465f30     v5subs:wire_class.obj
 0002:00003f34       ??_C@_03NKFEOCBM@58A?$AA@  00465f34     v5subs:wire_class.obj
 0002:00003f38       ??_C@_03MCHPGAPI@66A?$AA@  00465f38     v5subs:wire_class.obj
 0002:00003f3c       ??_C@_02IFGANFKF@25?$AA@   00465f3c     v5subs:wire_class.obj
 0002:00003f40       ??_C@_03PKCFPGOC@57B?$AA@  00465f40     v5subs:wire_class.obj
 0002:00003f44       ??_C@_03OLBEINGC@65B?$AA@  00465f44     v5subs:wire_class.obj
 0002:00003f48       ??_C@_02KOENIGGG@26?$AA@   00465f48     v5subs:wire_class.obj
 0002:00003f4c       ??_C@_03NBAIKFCB@57A?$AA@  00465f4c     v5subs:wire_class.obj
 0002:00003f50       ??_C@_03MADJNOKB@65A?$AA@  00465f50     v5subs:wire_class.obj
 0002:00003f54       ??_C@_03PLOHJMNF@56B?$AA@  00465f54     v5subs:wire_class.obj
 0002:00003f58       ??_C@_03OKNGOHFF@64B?$AA@  00465f58     v5subs:wire_class.obj
 0002:00003f5c       ??_C@_02DAMOKLOI@28?$AA@   00465f5c     v5subs:wire_class.obj
 0002:00003f60       ??_C@_03NAMKMPBG@56A?$AA@  00465f60     v5subs:wire_class.obj
 0002:00003f64       ??_C@_03MBPLLEJG@64A?$AA@  00465f64     v5subs:wire_class.obj
 0002:00003f68       ??_C@_02CJNFJKKJ@29?$AA@   00465f68     v5subs:wire_class.obj
 0002:00003f6c       ??_C@_03PJKBCCIM@55B?$AA@  00465f6c     v5subs:wire_class.obj
 0002:00003f70       ??_C@_03OPJJPBNA@63B?$AA@  00465f70     v5subs:wire_class.obj
 0002:00003f74       ??_C@_02PJNFELNH@30?$AA@   00465f74     v5subs:wire_class.obj
 0002:00003f78       ??_C@_03NCIMHBEP@55A?$AA@  00465f78     v5subs:wire_class.obj
 0002:00003f7c       ??_C@_03MELEKCBD@63A?$AA@  00465f7c     v5subs:wire_class.obj
 0002:00003f80       ??_C@_02OAMOHKJG@31?$AA@   00465f80     v5subs:wire_class.obj
 0002:00003f84       ??_C@_03PIGDEILL@54B?$AA@  00465f84     v5subs:wire_class.obj
 0002:00003f88       ??_C@_03OOFLJLOH@62B?$AA@  00465f88     v5subs:wire_class.obj
 0002:00003f8c       ??_C@_02MLODCJFF@32?$AA@   00465f8c     v5subs:wire_class.obj
 0002:00003f90       ??_C@_03NDEOBLHI@54A?$AA@  00465f90     v5subs:wire_class.obj
 0002:00003f94       ??_C@_03MFHGMICE@62A?$AA@  00465f94     v5subs:wire_class.obj
 0002:00003fa4       ??_7CUGCtrl@@6B@           00465fa4     dundas:ugctrl.obj
 0002:000040a0       ??_C@_09CFCBFJND@Not?5Found?$AA@ 004660a0     dundas:ugctrl.obj
 0002:000040ac       ??_C@_0P@DFHOOPJE@Item?5not?5found?$AA@ 004660ac     dundas:ugctrl.obj
 0002:000040c0       ??_7CUGCnrBtn@@6B@         004660c0     dundas:ugcnrbtn.obj
 0002:000040c8       ??_7CUGGrid@@6B@           004660c8     dundas:uggrid.obj
 0002:000040cc       ??_C@_06GMFBGOAH@UGGrid?$AA@ 004660cc     dundas:uggrid.obj
 0002:000040e0       __xmm@ffffffffffffffffffffffffffffffff 004660e0     dundas:uggrid.obj
 0002:000040f4       ??_7CUGHScroll@@6B@        004660f4     dundas:ughscrol.obj
 0002:000040fc       ??_C@_09CBFIFDOD@SCROLLBAR?$AA@ 004660fc     dundas:ughscrol.obj
 0002:0000410c       ??_7CUGSideHdg@@6B@        0046610c     dundas:ugsidehd.obj
 0002:00004110       ??_C@_09MFEJBCGH@UGSideHdg?$AA@ 00466110     dundas:ugsidehd.obj
 0002:00004120       ??_7CUGTopHdg@@6B@         00466120     dundas:ugtophdg.obj
 0002:00004124       ??_C@_08OOEDFKDG@UGTopHdg?$AA@ 00466124     dundas:ugtophdg.obj
 0002:00004134       ??_7CUGVScroll@@6B@        00466134     dundas:ugvscrol.obj
 0002:00004140       __xmm@3ff00000000000003ff0000000000000 00466140     dundas:ugvscrol.obj
 0002:00004154       ??_7CUGDataSource@@6B@     00466154     dundas:ugdtasrc.obj
 0002:000041e8       ??_7CUGCellType@@6B@       004661e8     dundas:ugceltyp.obj
 0002:0000422c       ??_C@_0BL@MCLHAPIO@Normal?5Cell?5Type?5?$CIdefault?$CJ?$AA@ 0046622c     dundas:ugceltyp.obj
 0002:0000425c       ??_7CUGEdit@@6B@           0046625c     dundas:ugedit.obj
 0002:00004260       ??_C@_04LMIKJBBH@?5X?5X?$AA@ 00466260     dundas:ugedit.obj
 0002:0000426c       ??_7CUGTab@@6B@            0046626c     dundas:ugtab.obj
 0002:00004270       ??_C@_05KCBMHDIG@UGTab?$AA@ 00466270     dundas:ugtab.obj
 0002:0000427c       ??_7CUGGridInfo@@6B@       0046627c     dundas:uggdinfo.obj
 0002:00004284       ??_7CUGHint@@6B@           00466284     dundas:ughint.obj
 0002:00004288       ??_C@_05MPFIAJAP@Arial?$AA@ 00466288     dundas:ughint.obj
 0002:00004290       ??_C@_01MMEEDKFM@X?$AA@    00466290     dundas:ughint.obj
 0002:00004294       ??_C@_06CGJECNJM@UGHint?$AA@ 00466294     dundas:ughint.obj
 0002:000042a0       ??_7CUGDropListType@@6B@   004662a0     dundas:ugdltype.obj
 0002:000042e4       ??_C@_0BC@DFLPABGN@Standard?5DropList?$AA@ 004662e4     dundas:ugdltype.obj
 0002:00004310       ??_7CUGArrowType@@6B@      00466310     dundas:ugctarrw.obj
 0002:00004358       ??_7CUGMem@@6B@            00466358     dundas:ugmemman.obj
 0002:000043ec       ??_7CUGLstBox@@6B@         004663ec     dundas:uglstbox.obj
 0002:000043f4       ??_7bad_alloc@std@@6B@     004663f4     LIBCMT:new.obj
 0002:000043fc       ??_C@_0P@GHFPNOJB@bad?5allocation?$AA@ 004663fc     LIBCMT:new.obj
 0002:000044a8       ??_7type_info@@6B@         004664a8     LIBCMT:typinfo.obj
 0002:000044ac       __FPinit                   004664ac     LIBCMT:fpinit.obj
 0002:0000454c       ??_7exception@std@@6B@     0046654c     LIBCMT:stdexcpt.obj
 0002:00004554       ??_C@_0BC@EOODALEL@Unknown?5exception?$AA@ 00466554     LIBCMT:stdexcpt.obj
 0002:00004588       ??_C@_1BI@BGOHAHKC@?$AAm?$AAs?$AAc?$AAo?$AAr?$AAe?$AAe?$AA?4?$AAd?$AAl?$AAl?$AA?$AA@ 00466588     LIBCMT:crt0dat.obj
 0002:000045a0       ??_C@_0P@MIGLKIOC@CorExitProcess?$AA@ 004665a0     LIBCMT:crt0dat.obj
 0002:000045b0       ??_C@_1BK@MGMFAEKH@?$AAk?$AAe?$AAr?$AAn?$AAe?$AAl?$AA3?$AA2?$AA?4?$AAd?$AAl?$AAl?$AA?$AA@ 004665b0     LIBCMT:winapisupp.obj
 0002:000045cc       ??_C@_08KNHFBNJ@FlsAlloc?$AA@ 004665cc     LIBCMT:winapisupp.obj
 0002:000045d8       ??_C@_07PEJMOBNF@FlsFree?$AA@ 004665d8     LIBCMT:winapisupp.obj
 0002:000045e0       ??_C@_0M@GDNOONDI@FlsGetValue?$AA@ 004665e0     LIBCMT:winapisupp.obj
 0002:000045ec       ??_C@_0M@JCPCPOEF@FlsSetValue?$AA@ 004665ec     LIBCMT:winapisupp.obj
 0002:000045f8       ??_C@_0BM@HCFOFFN@InitializeCriticalSectionEx?$AA@ 004665f8     LIBCMT:winapisupp.obj
 0002:00004614       ??_C@_0P@DLHPPCNH@CreateEventExW?$AA@ 00466614     LIBCMT:winapisupp.obj
 0002:00004624       ??_C@_0BD@KIEEOEEH@CreateSemaphoreExW?$AA@ 00466624     LIBCMT:winapisupp.obj
 0002:00004638       ??_C@_0BI@BKLFFAPO@SetThreadStackGuarantee?$AA@ 00466638     LIBCMT:winapisupp.obj
 0002:00004650       ??_C@_0BG@OGFAJCKC@CreateThreadpoolTimer?$AA@ 00466650     LIBCMT:winapisupp.obj
 0002:00004668       ??_C@_0BD@LPLEMMDI@SetThreadpoolTimer?$AA@ 00466668     LIBCMT:winapisupp.obj
 0002:0000467c       ??_C@_0CA@FMNJENH@WaitForThreadpoolTimerCallbacks?$AA@ 0046667c     LIBCMT:winapisupp.obj
 0002:0000469c       ??_C@_0BF@DCFCCNOC@CloseThreadpoolTimer?$AA@ 0046669c     LIBCMT:winapisupp.obj
 0002:000046b4       ??_C@_0BF@FLABGKKM@CreateThreadpoolWait?$AA@ 004666b4     LIBCMT:winapisupp.obj
 0002:000046cc       ??_C@_0BC@MGCOHNA@SetThreadpoolWait?$AA@ 004666cc     LIBCMT:winapisupp.obj
 0002:000046e0       ??_C@_0BE@OCIOMIMP@CloseThreadpoolWait?$AA@ 004666e0     LIBCMT:winapisupp.obj
 0002:000046f4       ??_C@_0BJ@LKGHFHBO@FlushProcessWriteBuffers?$AA@ 004666f4     LIBCMT:winapisupp.obj
 0002:00004710       ??_C@_0BP@KALKKPMO@FreeLibraryWhenCallbackReturns?$AA@ 00466710     LIBCMT:winapisupp.obj
 0002:00004730       ??_C@_0BK@DFNBACLA@GetCurrentProcessorNumber?$AA@ 00466730     LIBCMT:winapisupp.obj
 0002:0000474c       ??_C@_0BP@KHGALBC@GetLogicalProcessorInformation?$AA@ 0046674c     LIBCMT:winapisupp.obj
 0002:0000476c       ??_C@_0BE@FKKLLFLM@CreateSymbolicLinkW?$AA@ 0046676c     LIBCMT:winapisupp.obj
 0002:00004780       ??_C@_0BJ@OHNKDLIJ@SetDefaultDllDirectories?$AA@ 00466780     LIBCMT:winapisupp.obj
 0002:0000479c       ??_C@_0BE@LJANKFHF@EnumSystemLocalesEx?$AA@ 0046679c     LIBCMT:winapisupp.obj
 0002:000047b0       ??_C@_0BA@IHGNDAEB@CompareStringEx?$AA@ 004667b0     LIBCMT:winapisupp.obj
 0002:000047c0       ??_C@_0BA@EPCJIIPD@GetDateFormatEx?$AA@ 004667c0     LIBCMT:winapisupp.obj
 0002:000047d0       ??_C@_0BA@ONOKGCMP@GetLocaleInfoEx?$AA@ 004667d0     LIBCMT:winapisupp.obj
 0002:000047e0       ??_C@_0BA@CIJJKCJJ@GetTimeFormatEx?$AA@ 004667e0     LIBCMT:winapisupp.obj
 0002:000047f0       ??_C@_0BJ@PBCCBIPI@GetUserDefaultLocaleName?$AA@ 004667f0     LIBCMT:winapisupp.obj
 0002:0000480c       ??_C@_0BC@CELBKLLA@IsValidLocaleName?$AA@ 0046680c     LIBCMT:winapisupp.obj
 0002:00004820       ??_C@_0O@KKBNKAPF@LCMapStringEx?$AA@ 00466820     LIBCMT:winapisupp.obj
 0002:00004830       ??_C@_0BE@JOGNEJCI@GetCurrentPackageId?$AA@ 00466830     LIBCMT:winapisupp.obj
 0002:00004844       ??_C@_0P@CDHHOHKP@GetTickCount64?$AA@ 00466844     LIBCMT:winapisupp.obj
 0002:00004854       ??_C@_0BO@KPCLFDJJ@GetFileInformationByHandleExW?$AA@ 00466854     LIBCMT:winapisupp.obj
 0002:00004874       ??_C@_0BM@MHIDLABK@SetFileInformationByHandleW?$AA@ 00466874     LIBCMT:winapisupp.obj
 0002:00004890       ??_C@_04FJHINJAO@tanh?$AA@ 00466890     LIBCMT:fpexcept.obj
 0002:00004898       ??_C@_04FIHNOPOL@asin?$AA@ 00466898     LIBCMT:fpexcept.obj
 0002:000048a0       ??_C@_04PDIFKINK@acos?$AA@ 004668a0     LIBCMT:fpexcept.obj
 0002:000048a8       ??_C@_04MLLJIGOK@atan?$AA@ 004668a8     LIBCMT:fpexcept.obj
 0002:000048b0       ??_C@_05KNGEOGJB@atan2?$AA@ 004668b0     LIBCMT:fpexcept.obj
 0002:000048b8       ??_C@_04EIAKFFMI@sqrt?$AA@ 004668b8     LIBCMT:fpexcept.obj
 0002:000048c0       ??_C@_03BLEJJJBH@sin?$AA@  004668c0     LIBCMT:fpexcept.obj
 0002:000048c4       ??_C@_03LALBNOCG@cos?$AA@  004668c4     LIBCMT:fpexcept.obj
 0002:000048c8       ??_C@_03IIINPABG@tan?$AA@  004668c8     LIBCMT:fpexcept.obj
 0002:000048cc       ??_C@_04GFPJNGEK@ceil?$AA@ 004668cc     LIBCMT:fpexcept.obj
 0002:000048d4       ??_C@_05PBJFFIGL@floor?$AA@ 004668d4     LIBCMT:fpexcept.obj
 0002:000048dc       ??_C@_04ODHECPBC@fabs?$AA@ 004668dc     LIBCMT:fpexcept.obj
 0002:000048e4       ??_C@_04EHEDPDJG@modf?$AA@ 004668e4     LIBCMT:fpexcept.obj
 0002:000048ec       ??_C@_05CEJMAHNP@ldexp?$AA@ 004668ec     LIBCMT:fpexcept.obj
 0002:000048f4       ??_C@_05KBKMEMPO@_cabs?$AA@ 004668f4     LIBCMT:fpexcept.obj
 0002:000048fc       ??_C@_06MEIMCGCF@_hypot?$AA@ 004668fc     LIBCMT:fpexcept.obj
 0002:00004904       ??_C@_04KEPJIHGP@fmod?$AA@ 00466904     LIBCMT:fpexcept.obj
 0002:0000490c       ??_C@_05GKKHEGJL@frexp?$AA@ 0046690c     LIBCMT:fpexcept.obj
 0002:00004914       ??_C@_03MJLDFKDL@_y0?$AA@  00466914     LIBCMT:fpexcept.obj
 0002:00004918       ??_C@_03NAKIGLHK@_y1?$AA@  00466918     LIBCMT:fpexcept.obj
 0002:0000491c       ??_C@_03ONILCKOB@_yn?$AA@  0046691c     LIBCMT:fpexcept.obj
 0002:00004920       ??_C@_05JGDBENOH@_logb?$AA@ 00466920     LIBCMT:fpexcept.obj
 0002:00004928       ??_C@_0L@KDOEJCKC@_nextafter?$AA@ 00466928     LIBCMT:fpexcept.obj
 0002:00004934       ??_C@_03KHJOGHMM@exp?$AA@  00466934     LIBCMT:fpexcept.obj
 0002:00004938       ??_C@_03JGHBODFD@pow?$AA@  00466938     LIBCMT:fpexcept.obj
 0002:0000493c       ??_C@_03MGHMBJCF@log?$AA@  0046693c     LIBCMT:fpexcept.obj
 0002:00004940       ??_C@_05HGHHAHAP@log10?$AA@ 00466940     LIBCMT:fpexcept.obj
 0002:00004948       ??_C@_04COOMCNPB@sinh?$AA@ 00466948     LIBCMT:fpexcept.obj
 0002:00004950       ??_C@_04HPJJNFIM@cosh?$AA@ 00466950     LIBCMT:fpexcept.obj
 0002:00004958       ??_C@_05KLBDPFGC@e?$CL000?$AA@ 00466958     LIBCMT:cvt.obj
 0002:00004960       __indefinite               00466960     LIBCMT:87disp.obj
 0002:0000496a       __piby2                    0046696a     LIBCMT:87disp.obj
 0002:00004998       __DEFAULT_CW_in_mem        00466998     LIBCMT:common.obj
 0002:0000499a       __pi_by_2_to_61            0046699a     LIBCMT:common.obj
 0002:00004a40       ??_C@_05EOHGHCHD@exp10?$AA@ 00466a40     LIBCMT:libm_error.obj
 0002:00004a48       __XcptActTab               00466a48     LIBCMT:winxfltr.obj
 0002:00004ad8       __XcptActTabCount          00466ad8     LIBCMT:winxfltr.obj
 0002:00004adc       __XcptActTabSize           00466adc     LIBCMT:winxfltr.obj
 0002:00004ae0       __First_FPE_Indx           00466ae0     LIBCMT:winxfltr.obj
 0002:00004ae4       __Num_FPE                  00466ae4     LIBCMT:winxfltr.obj
 0002:00004ba0       ??_C@_1FK@PGACCAFB@?$AAR?$AA6?$AA0?$AA0?$AA2?$AA?$AN?$AA?6?$AA?9?$AA?5?$AAf?$AAl?$AAo?$AAa?$AAt?$AAi?$AAn?$AAg?$AA?5?$AAp?$AAo?$AAi?$AAn?$AAt?$AA?5?$AAs?$AAu?$AAp?$AAp?$AAo?$AAr?$AAt?$AA?5@ 00466ba0     LIBCMT:crt0msg.obj
 0002:00004c00       ??_C@_1FE@LLNEDJMD@?$AAR?$AA6?$AA0?$AA0?$AA8?$AA?$AN?$AA?6?$AA?9?$AA?5?$AAn?$AAo?$AAt?$AA?5?$AAe?$AAn?$AAo?$AAu?$AAg?$AAh?$AA?5?$AAs?$AAp?$AAa?$AAc?$AAe?$AA?5?$AAf?$AAo?$AAr?$AA?5?$AAa?$AAr@ 00466c00     LIBCMT:crt0msg.obj
 0002:00004c58       ??_C@_1FI@HONFMGBI@?$AAR?$AA6?$AA0?$AA0?$AA9?$AA?$AN?$AA?6?$AA?9?$AA?5?$AAn?$AAo?$AAt?$AA?5?$AAe?$AAn?$AAo?$AAu?$AAg?$AAh?$AA?5?$AAs?$AAp?$AAa?$AAc?$AAe?$AA?5?$AAf?$AAo?$AAr?$AA?5?$AAe?$AAn@ 00466c58     LIBCMT:crt0msg.obj
 0002:00004cb0       ??_C@_1EG@BEHAGFJD@?$AAR?$AA6?$AA0?$AA1?$AA0?$AA?$AN?$AA?6?$AA?9?$AA?5?$AAa?$AAb?$AAo?$AAr?$AAt?$AA?$CI?$AA?$CJ?$AA?5?$AAh?$AAa?$AAs?$AA?5?$AAb?$AAe?$AAe?$AAn?$AA?5?$AAc?$AAa?$AAl?$AAl?$AAe?$AAd@ 00466cb0     LIBCMT:crt0msg.obj
 0002:00004cf8       ??_C@_1FI@LOGNIKDM@?$AAR?$AA6?$AA0?$AA1?$AA6?$AA?$AN?$AA?6?$AA?9?$AA?5?$AAn?$AAo?$AAt?$AA?5?$AAe?$AAn?$AAo?$AAu?$AAg?$AAh?$AA?5?$AAs?$AAp?$AAa?$AAc?$AAe?$AA?5?$AAf?$AAo?$AAr?$AA?5?$AAt?$AAh@ 00466cf8     LIBCMT:crt0msg.obj
 0002:00004d50       ??_C@_1FK@BEOGODMC@?$AAR?$AA6?$AA0?$AA1?$AA7?$AA?$AN?$AA?6?$AA?9?$AA?5?$AAu?$AAn?$AAe?$AAx?$AAp?$AAe?$AAc?$AAt?$AAe?$AAd?$AA?5?$AAm?$AAu?$AAl?$AAt?$AAi?$AAt?$AAh?$AAr?$AAe?$AAa?$AAd?$AA?5@ 00466d50     LIBCMT:crt0msg.obj
 0002:00004db0       ??_C@_1EC@JIBHAOPH@?$AAR?$AA6?$AA0?$AA1?$AA8?$AA?$AN?$AA?6?$AA?9?$AA?5?$AAu?$AAn?$AAe?$AAx?$AAp?$AAe?$AAc?$AAt?$AAe?$AAd?$AA?5?$AAh?$AAe?$AAa?$AAp?$AA?5?$AAe?$AAr?$AAr?$AAo?$AAr?$AA?$AN?$AA?6@ 00466db0     LIBCMT:crt0msg.obj
 0002:00004df8       ??_C@_1FC@ECHBIFBC@?$AAR?$AA6?$AA0?$AA1?$AA9?$AA?$AN?$AA?6?$AA?9?$AA?5?$AAu?$AAn?$AAa?$AAb?$AAl?$AAe?$AA?5?$AAt?$AAo?$AA?5?$AAo?$AAp?$AAe?$AAn?$AA?5?$AAc?$AAo?$AAn?$AAs?$AAo?$AAl?$AAe?$AA?5@ 00466df8     LIBCMT:crt0msg.obj
 0002:00004e50       ??_C@_1GK@FHCKBEFA@?$AAR?$AA6?$AA0?$AA2?$AA4?$AA?$AN?$AA?6?$AA?9?$AA?5?$AAn?$AAo?$AAt?$AA?5?$AAe?$AAn?$AAo?$AAu?$AAg?$AAh?$AA?5?$AAs?$AAp?$AAa?$AAc?$AAe?$AA?5?$AAf?$AAo?$AAr?$AA?5?$AA_?$AAo@ 00466e50     LIBCMT:crt0msg.obj
 0002:00004ec0       ??_C@_1EM@MAADIHMB@?$AAR?$AA6?$AA0?$AA2?$AA5?$AA?$AN?$AA?6?$AA?9?$AA?5?$AAp?$AAu?$AAr?$AAe?$AA?5?$AAv?$AAi?$AAr?$AAt?$AAu?$AAa?$AAl?$AA?5?$AAf?$AAu?$AAn?$AAc?$AAt?$AAi?$AAo?$AAn?$AA?5?$AAc@ 00466ec0     LIBCMT:crt0msg.obj
 0002:00004f10       ??_C@_1GK@MCAAGJMO@?$AAR?$AA6?$AA0?$AA2?$AA6?$AA?$AN?$AA?6?$AA?9?$AA?5?$AAn?$AAo?$AAt?$AA?5?$AAe?$AAn?$AAo?$AAu?$AAg?$AAh?$AA?5?$AAs?$AAp?$AAa?$AAc?$AAe?$AA?5?$AAf?$AAo?$AAr?$AA?5?$AAs?$AAt@ 00466f10     LIBCMT:crt0msg.obj
 0002:00004f80       ??_C@_1GK@MFGOKLAG@?$AAR?$AA6?$AA0?$AA2?$AA7?$AA?$AN?$AA?6?$AA?9?$AA?5?$AAn?$AAo?$AAt?$AA?5?$AAe?$AAn?$AAo?$AAu?$AAg?$AAh?$AA?5?$AAs?$AAp?$AAa?$AAc?$AAe?$AA?5?$AAf?$AAo?$AAr?$AA?5?$AAl?$AAo@ 00466f80     LIBCMT:crt0msg.obj
 0002:00004ff0       ??_C@_1EK@HHFLMAOL@?$AAR?$AA6?$AA0?$AA2?$AA8?$AA?$AN?$AA?6?$AA?9?$AA?5?$AAu?$AAn?$AAa?$AAb?$AAl?$AAe?$AA?5?$AAt?$AAo?$AA?5?$AAi?$AAn?$AAi?$AAt?$AAi?$AAa?$AAl?$AAi?$AAz?$AAe?$AA?5?$AAh?$AAe@ 00466ff0     LIBCMT:crt0msg.obj
 0002:0000503c       ??_C@_1DO@BMFCDCD@?$AAR?$AA6?$AA0?$AA3?$AA0?$AA?$AN?$AA?6?$AA?9?$AA?5?$AAC?$AAR?$AAT?$AA?5?$AAn?$AAo?$AAt?$AA?5?$AAi?$AAn?$AAi?$AAt?$AAi?$AAa?$AAl?$AAi?$AAz?$AAe?$AAd?$AA?$AN?$AA?6?$AA?$AA@ 0046703c     LIBCMT:crt0msg.obj
 0002:00005080       ??_C@_1MG@ENCOOIDF@?$AAR?$AA6?$AA0?$AA3?$AA1?$AA?$AN?$AA?6?$AA?9?$AA?5?$AAA?$AAt?$AAt?$AAe?$AAm?$AAp?$AAt?$AA?5?$AAt?$AAo?$AA?5?$AAi?$AAn?$AAi?$AAt?$AAi?$AAa?$AAl?$AAi?$AAz?$AAe?$AA?5?$AAt@ 00467080     LIBCMT:crt0msg.obj
 0002:00005148       ??_C@_1GG@GOPILAJP@?$AAR?$AA6?$AA0?$AA3?$AA2?$AA?$AN?$AA?6?$AA?9?$AA?5?$AAn?$AAo?$AAt?$AA?5?$AAe?$AAn?$AAo?$AAu?$AAg?$AAh?$AA?5?$AAs?$AAp?$AAa?$AAc?$AAe?$AA?5?$AAf?$AAo?$AAr?$AA?5?$AAl?$AAo@ 00467148     LIBCMT:crt0msg.obj
 0002:000051b0       ??_C@_1BOO@KGEDBGAJ@?$AAR?$AA6?$AA0?$AA3?$AA3?$AA?$AN?$AA?6?$AA?9?$AA?5?$AAA?$AAt?$AAt?$AAe?$AAm?$AAp?$AAt?$AA?5?$AAt?$AAo?$AA?5?$AAu?$AAs?$AAe?$AA?5?$AAM?$AAS?$AAI?$AAL?$AA?5?$AAc?$AAo?$AAd@ 004671b0     LIBCMT:crt0msg.obj
 0002:000053a0       ??_C@_1GG@MKFPEKFO@?$AAR?$AA6?$AA0?$AA3?$AA4?$AA?$AN?$AA?6?$AA?9?$AA?5?$AAi?$AAn?$AAc?$AAo?$AAn?$AAs?$AAi?$AAs?$AAt?$AAe?$AAn?$AAt?$AA?5?$AAo?$AAn?$AAe?$AAx?$AAi?$AAt?$AA?5?$AAb?$AAe?$AAg@ 004673a0     LIBCMT:crt0msg.obj
 0002:00005408       ??_C@_1BO@BFCDCGC@?$AAD?$AAO?$AAM?$AAA?$AAI?$AAN?$AA?5?$AAe?$AAr?$AAr?$AAo?$AAr?$AA?$AN?$AA?6?$AA?$AA@ 00467408     LIBCMT:crt0msg.obj
 0002:00005428       ??_C@_1BK@KMOMNAAI@?$AAS?$AAI?$AAN?$AAG?$AA?5?$AAe?$AAr?$AAr?$AAo?$AAr?$AA?$AN?$AA?6?$AA?$AA@ 00467428     LIBCMT:crt0msg.obj
 0002:00005444       ??_C@_1BM@JBBEPPHI@?$AAT?$AAL?$AAO?$AAS?$AAS?$AA?5?$AAe?$AAr?$AAr?$AAo?$AAr?$AA?$AN?$AA?6?$AA?$AA@ 00467444     LIBCMT:crt0msg.obj
 0002:00005460       ??_C@_15JNBOKNOG@?$AA?$AN?$AA?6?$AA?$AA@ 00467460     LIBCMT:crt0msg.obj
 0002:00005468       ??_C@_1BO@BKOMIGKJ@?$AAr?$AAu?$AAn?$AAt?$AAi?$AAm?$AAe?$AA?5?$AAe?$AAr?$AAr?$AAo?$AAr?$AA?5?$AA?$AA@ 00467468     LIBCMT:crt0msg.obj
 0002:00005488       ??_C@_1DE@JNGNBFGO@?$AAR?$AAu?$AAn?$AAt?$AAi?$AAm?$AAe?$AA?5?$AAE?$AAr?$AAr?$AAo?$AAr?$AA?$CB?$AA?6?$AA?6?$AAP?$AAr?$AAo?$AAg?$AAr?$AAa?$AAm?$AA?3?$AA?5?$AA?$AA@ 00467488     LIBCMT:crt0msg.obj
 0002:000054bc       ??_C@_1CO@EAEJAADC@?$AA?$DM?$AAp?$AAr?$AAo?$AAg?$AAr?$AAa?$AAm?$AA?5?$AAn?$AAa?$AAm?$AAe?$AA?5?$AAu?$AAn?$AAk?$AAn?$AAo?$AAw?$AAn?$AA?$DO?$AA?$AA@ 004674bc     LIBCMT:crt0msg.obj
 0002:000054ec       ??_C@_17LGKOMLJ@?$AA?4?$AA?4?$AA?4?$AA?$AA@ 004674ec     LIBCMT:crt0msg.obj
 0002:000054f4       ??_C@_15IABLJNFO@?$AA?6?$AA?6?$AA?$AA@ 004674f4     LIBCMT:crt0msg.obj
 0002:00005500       ??_C@_1EK@MBDPDCGA@?$AAM?$AAi?$AAc?$AAr?$AAo?$AAs?$AAo?$AAf?$AAt?$AA?5?$AAV?$AAi?$AAs?$AAu?$AAa?$AAl?$AA?5?$AAC?$AA?$CL?$AA?$CL?$AA?5?$AAR?$AAu?$AAn?$AAt?$AAi?$AAm?$AAe?$AA?5?$AAL?$AAi?$AAb@ 00467500     LIBCMT:crt0msg.obj
 0002:0000555c       ??_C@_1M@HPNHIDJI@?$AAj?$AAa?$AA?9?$AAJ?$AAP?$AA?$AA@ 0046755c     LIBCMT:mbctype.obj
 0002:00005568       ??_C@_1M@BIBDDEMK@?$AAz?$AAh?$AA?9?$AAC?$AAN?$AA?$AA@ 00467568     LIBCMT:mbctype.obj
 0002:00005574       ??_C@_1M@JLOOOEGK@?$AAk?$AAo?$AA?9?$AAK?$AAR?$AA?$AA@ 00467574     LIBCMT:mbctype.obj
 0002:00005580       ??_C@_1M@CLNBBOPM@?$AAz?$AAh?$AA?9?$AAT?$AAW?$AA?$AA@ 00467580     LIBCMT:mbctype.obj
 0002:0000558c       ??_C@_03IOFIKPDN@Thu?$AA@  0046758c     LIBCMT:nlsdata.obj
 0002:00005590       ??_C@_03JIHJHPIE@Jan?$AA@  00467590     LIBCMT:nlsdata.obj
 0002:00005594       ??_C@_03HJBDCHOM@Feb?$AA@  00467594     LIBCMT:nlsdata.obj
 0002:00005598       ??_C@_03ODNJBKGA@Mar?$AA@  00467598     LIBCMT:nlsdata.obj
 0002:0000559c       ??_C@_03LEOLGMJP@Apr?$AA@  0046759c     LIBCMT:nlsdata.obj
 0002:000055a0       ??_C@_03CNMDKL@May?$AA@    004675a0     LIBCMT:nlsdata.obj
 0002:000055a4       ??_C@_03IDFGHECI@Jun?$AA@  004675a4     LIBCMT:nlsdata.obj
 0002:000055a8       ??_C@_03LBGABGKK@Jul?$AA@  004675a8     LIBCMT:nlsdata.obj
 0002:000055ac       ??_C@_03IFJFEIGA@Aug?$AA@  004675ac     LIBCMT:nlsdata.obj
 0002:000055b0       ??_C@_03GGCAPAJC@Sep?$AA@  004675b0     LIBCMT:nlsdata.obj
 0002:000055b4       ??_C@_03BMAOKBAD@Oct?$AA@  004675b4     LIBCMT:nlsdata.obj
 0002:000055b8       ??_C@_03JPJOFNIA@Nov?$AA@  004675b8     LIBCMT:nlsdata.obj
 0002:000055bc       ??_C@_03MKABNOCG@Dec?$AA@  004675bc     LIBCMT:nlsdata.obj
 0002:000055c0       ??_C@_07CGJPFGJA@January?$AA@ 004675c0     LIBCMT:nlsdata.obj
 0002:000055c8       ??_C@_08GNJGEPFN@February?$AA@ 004675c8     LIBCMT:nlsdata.obj
 0002:000055d4       ??_C@_05HPCKOFNC@March?$AA@ 004675d4     LIBCMT:nlsdata.obj
 0002:000055dc       ??_C@_05DMJDNLEJ@April?$AA@ 004675dc     LIBCMT:nlsdata.obj
 0002:000055e4       ??_C@_04CNLMGBGM@June?$AA@ 004675e4     LIBCMT:nlsdata.obj
 0002:000055ec       ??_C@_04MIEPOIFP@July?$AA@ 004675ec     LIBCMT:nlsdata.obj
 0002:000055f4       ??_C@_06LBBHFDDG@August?$AA@ 004675f4     LIBCMT:nlsdata.obj
 0002:000055fc       ??_C@_09BHHEALKD@September?$AA@ 004675fc     LIBCMT:nlsdata.obj
 0002:00005608       ??_C@_07JJNFCEND@October?$AA@ 00467608     LIBCMT:nlsdata.obj
 0002:00005610       ??_C@_08HCHEGEOA@November?$AA@ 00467610     LIBCMT:nlsdata.obj
 0002:0000561c       ??_C@_08EDHMEBNP@December?$AA@ 0046761c     LIBCMT:nlsdata.obj
 0002:00005628       ??_C@_02DEDBPAFC@AM?$AA@   00467628     LIBCMT:nlsdata.obj
 0002:0000562c       ??_C@_02CJNFDJBF@PM?$AA@   0046762c     LIBCMT:nlsdata.obj
 0002:00005630       ??_C@_08BPBNCDIB@MM?1dd?1yy?$AA@ 00467630     LIBCMT:nlsdata.obj
 0002:0000563c       ??_C@_0BE@CKGJFCPC@dddd?0?5MMMM?5dd?0?5yyyy?$AA@ 0046763c     LIBCMT:nlsdata.obj
 0002:00005650       ??_C@_08JCCMCCIL@HH?3mm?3ss?$AA@ 00467650     LIBCMT:nlsdata.obj
 0002:0000565c       ??_C@_17MBGCMIPB@?$AAS?$AAu?$AAn?$AA?$AA@ 0046765c     LIBCMT:nlsdata.obj
 0002:00005664       ??_C@_17KBOMKBF@?$AAM?$AAo?$AAn?$AA?$AA@ 00467664     LIBCMT:nlsdata.obj
 0002:0000566c       ??_C@_17BMKGEGOJ@?$AAT?$AAu?$AAe?$AA?$AA@ 0046766c     LIBCMT:nlsdata.obj
 0002:00005674       ??_C@_17CJEDCEPE@?$AAW?$AAe?$AAd?$AA?$AA@ 00467674     LIBCMT:nlsdata.obj
 0002:0000567c       ??_C@_17PDPHAADD@?$AAT?$AAh?$AAu?$AA?$AA@ 0046767c     LIBCMT:nlsdata.obj
 0002:00005684       ??_C@_17HFOLPPLP@?$AAF?$AAr?$AAi?$AA?$AA@ 00467684     LIBCMT:nlsdata.obj
 0002:0000568c       ??_C@_17GGIBDPIH@?$AAS?$AAa?$AAt?$AA?$AA@ 0046768c     LIBCMT:nlsdata.obj
 0002:00005694       ??_C@_1O@IHNHDHPB@?$AAS?$AAu?$AAn?$AAd?$AAa?$AAy?$AA?$AA@ 00467694     LIBCMT:nlsdata.obj
 0002:000056a4       ??_C@_1O@MMNBFLIA@?$AAM?$AAo?$AAn?$AAd?$AAa?$AAy?$AA?$AA@ 004676a4     LIBCMT:nlsdata.obj
 0002:000056b4       ??_C@_1BA@ENFBFFEK@?$AAT?$AAu?$AAe?$AAs?$AAd?$AAa?$AAy?$AA?$AA@ 004676b4     LIBCMT:nlsdata.obj
 0002:000056c4       ??_C@_1BE@EBOGMDOH@?$AAW?$AAe?$AAd?$AAn?$AAe?$AAs?$AAd?$AAa?$AAy?$AA?$AA@ 004676c4     LIBCMT:nlsdata.obj
 0002:000056d8       ??_C@_1BC@HHMNLIHE@?$AAT?$AAh?$AAu?$AAr?$AAs?$AAd?$AAa?$AAy?$AA?$AA@ 004676d8     LIBCMT:nlsdata.obj
 0002:000056ec       ??_C@_1O@PDICJHAG@?$AAF?$AAr?$AAi?$AAd?$AAa?$AAy?$AA?$AA@ 004676ec     LIBCMT:nlsdata.obj
 0002:000056fc       ??_C@_1BC@ENMNNPAJ@?$AAS?$AAa?$AAt?$AAu?$AAr?$AAd?$AAa?$AAy?$AA?$AA@ 004676fc     LIBCMT:nlsdata.obj
 0002:00005710       ??_C@_17DKNBKCHM@?$AAJ?$AAa?$AAn?$AA?$AA@ 00467710     LIBCMT:nlsdata.obj
 0002:00005718       ??_C@_17LMDJEKJN@?$AAF?$AAe?$AAb?$AA?$AA@ 00467718     LIBCMT:nlsdata.obj
 0002:00005720       ??_C@_17CKNLEDEC@?$AAM?$AAa?$AAr?$AA?$AA@ 00467720     LIBCMT:nlsdata.obj
 0002:00005728       ??_C@_17LFPOIHDD@?$AAA?$AAp?$AAr?$AA?$AA@ 00467728     LIBCMT:nlsdata.obj
 0002:00005730       ??_C@_17PNNKMEED@?$AAM?$AAa?$AAy?$AA?$AA@ 00467730     LIBCMT:nlsdata.obj
 0002:00005738       ??_C@_17KCJGOCPB@?$AAJ?$AAu?$AAn?$AA?$AA@ 00467738     LIBCMT:nlsdata.obj
 0002:00005740       ??_C@_17IJPCKHK@?$AAJ?$AAu?$AAl?$AA?$AA@ 00467740     LIBCMT:nlsdata.obj
 0002:00005748       ??_C@_17ICPELBCN@?$AAA?$AAu?$AAg?$AA?$AA@ 00467748     LIBCMT:nlsdata.obj
 0002:00005750       ??_C@_17HCHCOKMG@?$AAS?$AAe?$AAp?$AA?$AA@ 00467750     LIBCMT:nlsdata.obj
 0002:00005758       ??_C@_17FNLKOI@?$AAO?$AAc?$AAt?$AA?$AA@ 00467758     LIBCMT:nlsdata.obj
 0002:00005760       ??_C@_17BBDMLCIG@?$AAN?$AAo?$AAv?$AA?$AA@ 00467760     LIBCMT:nlsdata.obj
 0002:00005768       ??_C@_17EGKACKIF@?$AAD?$AAe?$AAc?$AA?$AA@ 00467768     LIBCMT:nlsdata.obj
 0002:00005770       ??_C@_1BA@EFMEIEBA@?$AAJ?$AAa?$AAn?$AAu?$AAa?$AAr?$AAy?$AA?$AA@ 00467770     LIBCMT:nlsdata.obj
 0002:00005780       ??_C@_1BC@JGDDFFAM@?$AAF?$AAe?$AAb?$AAr?$AAu?$AAa?$AAr?$AAy?$AA?$AA@ 00467780     LIBCMT:nlsdata.obj
 0002:00005794       ??_C@_1M@IKEENEDF@?$AAM?$AAa?$AAr?$AAc?$AAh?$AA?$AA@ 00467794     LIBCMT:nlsdata.obj
 0002:000057a0       ??_C@_1M@GJNLMHFD@?$AAA?$AAp?$AAr?$AAi?$AAl?$AA?$AA@ 004677a0     LIBCMT:nlsdata.obj
 0002:000057ac       ??_C@_19EPFLPGAP@?$AAJ?$AAu?$AAn?$AAe?$AA?$AA@ 004677ac     LIBCMT:nlsdata.obj
 0002:000057b8       ??_C@_19BIFMLPCD@?$AAJ?$AAu?$AAl?$AAy?$AA?$AA@ 004677b8     LIBCMT:nlsdata.obj
 0002:000057c4       ??_C@_1O@PAHLKOAC@?$AAA?$AAu?$AAg?$AAu?$AAs?$AAt?$AA?$AA@ 004677c4     LIBCMT:nlsdata.obj
 0002:000057d4       ??_C@_1BE@DKAAMBJL@?$AAS?$AAe?$AAp?$AAt?$AAe?$AAm?$AAb?$AAe?$AAr?$AA?$AA@ 004677d4     LIBCMT:nlsdata.obj
 0002:000057e8       ??_C@_1BA@EPANDLNG@?$AAO?$AAc?$AAt?$AAo?$AAb?$AAe?$AAr?$AA?$AA@ 004677e8     LIBCMT:nlsdata.obj
 0002:000057f8       ??_C@_1BC@BGLIFPF@?$AAN?$AAo?$AAv?$AAe?$AAm?$AAb?$AAe?$AAr?$AA?$AA@ 004677f8     LIBCMT:nlsdata.obj
 0002:0000580c       ??_C@_1BC@FEMKIFH@?$AAD?$AAe?$AAc?$AAe?$AAm?$AAb?$AAe?$AAr?$AA?$AA@ 0046780c     LIBCMT:nlsdata.obj
 0002:00005820       ??_C@_15ODEHAHHF@?$AAA?$AAM?$AA?$AA@ 00467820     LIBCMT:nlsdata.obj
 0002:00005828       ??_C@_15CLMNNGEL@?$AAP?$AAM?$AA?$AA@ 00467828     LIBCMT:nlsdata.obj
 0002:00005830       ??_C@_1BC@IEBCMHCM@?$AAM?$AAM?$AA?1?$AAd?$AAd?$AA?1?$AAy?$AAy?$AA?$AA@ 00467830     LIBCMT:nlsdata.obj
 0002:00005844       ??_C@_1CI@KNAKOEBC@?$AAd?$AAd?$AAd?$AAd?$AA?0?$AA?5?$AAM?$AAM?$AAM?$AAM?$AA?5?$AAd?$AAd?$AA?0?$AA?5?$AAy?$AAy?$AAy?$AAy?$AA?$AA@ 00467844     LIBCMT:nlsdata.obj
 0002:0000586c       ??_C@_1BC@GDGBMEMK@?$AAH?$AAH?$AA?3?$AAm?$AAm?$AA?3?$AAs?$AAs?$AA?$AA@ 0046786c     LIBCMT:nlsdata.obj
 0002:00005880       ??_C@_1M@BMHNFIME@?$AAe?$AAn?$AA?9?$AAU?$AAS?$AA?$AA@ 00467880     LIBCMT:nlsdata.obj
 0002:00006230       __infinity                 00468230     LIBCMT:87tran.obj
 0002:0000623a       __minfinity                0046823a     LIBCMT:87tran.obj
 0002:00006244       __logemax                  00468244     LIBCMT:87tran.obj
 0002:0000626a       __OP_EXPjmptab             0046826a     LIBCMT:87tran.obj
 0002:0000641c       ??_C@_08EHJDFFNH@__based?$CI?$AA@ 0046841c     LIBCMT:undname.obj
 0002:00006428       ??_C@_07KOLFKCDI@__cdecl?$AA@ 00468428     LIBCMT:undname.obj
 0002:00006430       ??_C@_08GHMPAG@__pascal?$AA@ 00468430     LIBCMT:undname.obj
 0002:0000643c       ??_C@_09IFJBGAPI@__stdcall?$AA@ 0046843c     LIBCMT:undname.obj
 0002:00006448       ??_C@_0L@NPHFGOKO@__thiscall?$AA@ 00468448     LIBCMT:undname.obj
 0002:00006454       ??_C@_0L@JMKHOMEK@__fastcall?$AA@ 00468454     LIBCMT:undname.obj
 0002:00006460       ??_C@_0N@BCKKPABJ@__vectorcall?$AA@ 00468460     LIBCMT:undname.obj
 0002:00006470       ??_C@_09HIJEGCPM@__clrcall?$AA@ 00468470     LIBCMT:undname.obj
 0002:0000647c       ??_C@_06GHPCKEAG@__eabi?$AA@ 0046847c     LIBCMT:undname.obj
 0002:00006484       ??_C@_07JOMMBBKO@__ptr64?$AA@ 00468484     LIBCMT:undname.obj
 0002:0000648c       ??_C@_0L@PILCLIHE@__restrict?$AA@ 0046848c     LIBCMT:undname.obj
 0002:00006498       ??_C@_0M@GFIIJFMG@__unaligned?$AA@ 00468498     LIBCMT:undname.obj
 0002:000064a4       ??_C@_09DHDLOLLB@restrict?$CI?$AA@ 004684a4     LIBCMT:undname.obj
 0002:000064b0       ??_C@_04NIHEBCM@?5new?$AA@ 004684b0     LIBCMT:undname.obj
 0002:000064b8       ??_C@_07FPCDHGMM@?5delete?$AA@ 004684b8     LIBCMT:undname.obj
 0002:000064c0       ??_C@_02GPIOPFAK@?$DO?$DO?$AA@ 004684c0     LIBCMT:undname.obj
 0002:000064c4       ??_C@_02FODMEDOG@?$DM?$DM?$AA@ 004684c4     LIBCMT:undname.obj
 0002:000064c8       ??_C@_01DCLJPIOD@?$CB?$AA@ 004684c8     LIBCMT:undname.obj
 0002:000064cc       ??_C@_02EGOFBIJA@?$DN?$DN?$AA@ 004684cc     LIBCMT:undname.obj
 0002:000064d0       ??_C@_02FDNJECIE@?$CB?$DN?$AA@ 004684d0     LIBCMT:undname.obj
 0002:000064d4       ??_C@_02GPECMEKF@?$FL?$FN?$AA@ 004684d4     LIBCMT:undname.obj
 0002:000064d8       ??_C@_08LHJFAFGD@operator?$AA@ 004684d8     LIBCMT:undname.obj
 0002:000064e4       ??_C@_02HBOOOICD@?9?$DO?$AA@ 004684e4     LIBCMT:undname.obj
 0002:000064e8       ??_C@_01NBENCBCI@?$CK?$AA@ 004684e8     LIBCMT:undname.obj
 0002:000064ec       ??_C@_02ECNGHCIF@?$CL?$CL?$AA@ 004684ec     LIBCMT:undname.obj
 0002:000064f0       ??_C@_02BAABKJLB@?9?9?$AA@ 004684f0     LIBCMT:undname.obj
 0002:000064f4       ??_C@_01JOAMLHOP@?9?$AA@   004684f4     LIBCMT:undname.obj
 0002:000064f8       ??_C@_01MIFGBAGJ@?$CL?$AA@ 004684f8     LIBCMT:undname.obj
 0002:000064fc       ??_C@_01HNPIGOCE@?$CG?$AA@ 004684fc     LIBCMT:undname.obj
 0002:00006500       ??_C@_03MNHNFDLC@?9?$DO?$CK?$AA@ 00468500     LIBCMT:undname.obj
 0002:00006504       ??_C@_01KMDKNFGN@?1?$AA@   00468504     LIBCMT:undname.obj
 0002:00006508       ??_C@_01FGNFDNOH@?$CF?$AA@ 00468508     LIBCMT:undname.obj
 0002:0000650c       ??_C@_01MNNFJEPP@?$DM?$AA@ 0046850c     LIBCMT:undname.obj
 0002:00006510       ??_C@_02EHCHHCKH@?$DM?$DN?$AA@ 00468510     LIBCMT:undname.obj
 0002:00006514       ??_C@_01PPODPGHN@?$DO?$AA@ 00468514     LIBCMT:undname.obj
 0002:00006518       ??_C@_02EEKDKGMJ@?$DO?$DN?$AA@ 00468518     LIBCMT:undname.obj
 0002:0000651c       ??_C@_02HCKGKOFO@?$CI?$CJ?$AA@ 0046851c     LIBCMT:undname.obj
 0002:00006520       ??_C@_01PJKLJHI@?$HO?$AA@  00468520     LIBCMT:undname.obj
 0002:00006524       ??_C@_01JKBOJNNK@?$FO?$AA@ 00468524     LIBCMT:undname.obj
 0002:00006528       ??_C@_01DNKMNLPK@?$HM?$AA@ 00468528     LIBCMT:undname.obj
 0002:0000652c       ??_C@_02PPKAJPJL@?$CG?$CG?$AA@ 0046852c     LIBCMT:undname.obj
 0002:00006530       ??_C@_02NONPIBCD@?$HM?$HM?$AA@ 00468530     LIBCMT:undname.obj
 0002:00006534       ??_C@_02FPIMKNGF@?$CK?$DN?$AA@ 00468534     LIBCMT:undname.obj
 0002:00006538       ??_C@_02FOEOMHFC@?$CL?$DN?$AA@ 00468538     LIBCMT:undname.obj
 0002:0000653c       ??_C@_02FKMDLLOA@?9?$DN?$AA@ 0046853c     LIBCMT:undname.obj
 0002:00006540       ??_C@_02FJEHGPIO@?1?$DN?$AA@ 00468540     LIBCMT:undname.obj
 0002:00006544       ??_C@_02FENAOKFI@?$CF?$DN?$AA@ 00468544     LIBCMT:undname.obj
 0002:00006548       ??_C@_03IKFCCPFF@?$DO?$DO?$DN?$AA@ 00468548     LIBCMT:undname.obj
 0002:0000654c       ??_C@_03CDNPDDLA@?$DM?$DM?$DN?$AA@ 0046854c     LIBCMT:undname.obj
 0002:00006550       ??_C@_02FGJGFEAB@?$CG?$DN?$AA@ 00468550     LIBCMT:undname.obj
 0002:00006554       ??_C@_02DHLNPPGH@?$HM?$DN?$AA@ 00468554     LIBCMT:undname.obj
 0002:00006558       ??_C@_02MHEGNOJ@?$FO?$DN?$AA@ 00468558     LIBCMT:undname.obj
 0002:0000655c       ??_C@_09IFPLHPGF@?$GAvftable?8?$AA@ 0046855c     LIBCMT:undname.obj
 0002:00006568       ??_C@_09BLBHBJP@?$GAvbtable?8?$AA@ 00468568     LIBCMT:undname.obj
 0002:00006574       ??_C@_07FEEIOKP@?$GAvcall?8?$AA@ 00468574     LIBCMT:undname.obj
 0002:0000657c       ??_C@_08LLFFHHDJ@?$GAtypeof?8?$AA@ 0046857c     LIBCMT:undname.obj
 0002:00006588       ??_C@_0BF@KDPPACIK@?$GAlocal?5static?5guard?8?$AA@ 00468588     LIBCMT:undname.obj
 0002:000065a0       ??_C@_08OBABFOLI@?$GAstring?8?$AA@ 004685a0     LIBCMT:undname.obj
 0002:000065ac       ??_C@_0BD@JDLKDPAB@?$GAvbase?5destructor?8?$AA@ 004685ac     LIBCMT:undname.obj
 0002:000065c0       ??_C@_0BN@DEGPLNFK@?$GAvector?5deleting?5destructor?8?$AA@ 004685c0     LIBCMT:undname.obj
 0002:000065e0       ??_C@_0BO@OBMKPJIG@?$GAdefault?5constructor?5closure?8?$AA@ 004685e0     LIBCMT:undname.obj
 0002:00006600       ??_C@_0BN@IMDCHIKM@?$GAscalar?5deleting?5destructor?8?$AA@ 00468600     LIBCMT:undname.obj
 0002:00006620       ??_C@_0BO@PFGOCPJJ@?$GAvector?5constructor?5iterator?8?$AA@ 00468620     LIBCMT:undname.obj
 0002:00006640       ??_C@_0BN@LFPFMEDL@?$GAvector?5destructor?5iterator?8?$AA@ 00468640     LIBCMT:undname.obj
 0002:00006660       ??_C@_0CE@IKBNEHA@?$GAvector?5vbase?5constructor?5iterat@ 00468660     LIBCMT:undname.obj
 0002:00006684       ??_C@_0BL@NILFHHPC@?$GAvirtual?5displacement?5map?8?$AA@ 00468684     LIBCMT:undname.obj
 0002:000066a0       ??_C@_0CB@JONCMFFK@?$GAeh?5vector?5constructor?5iterator?8@ 004686a0     LIBCMT:undname.obj
 0002:000066c4       ??_C@_0CA@GCEOPDGL@?$GAeh?5vector?5destructor?5iterator?8?$AA@ 004686c4     LIBCMT:undname.obj
 0002:000066e4       ??_C@_0CH@OOJPLCPH@?$GAeh?5vector?5vbase?5constructor?5ite@ 004686e4     LIBCMT:undname.obj
 0002:0000670c       ??_C@_0BL@LLKPOHJI@?$GAcopy?5constructor?5closure?8?$AA@ 0046870c     LIBCMT:undname.obj
 0002:00006728       ??_C@_0BA@KBCDOMBN@?$GAudt?5returning?8?$AA@ 00468728     LIBCMT:undname.obj
 0002:00006738       ??_C@_03KLGMFNMG@?$GAEH?$AA@ 00468738     LIBCMT:undname.obj
 0002:0000673c       ??_C@_05KHLCHHI@?$GARTTI?$AA@ 0046873c     LIBCMT:undname.obj
 0002:00006744       ??_C@_0BA@KKLDJDLB@?$GAlocal?5vftable?8?$AA@ 00468744     LIBCMT:undname.obj
 0002:00006754       ??_C@_0CE@IIHCMGGL@?$GAlocal?5vftable?5constructor?5closu@ 00468754     LIBCMT:undname.obj
 0002:00006778       ??_C@_06FHBGPFGH@?5new?$FL?$FN?$AA@ 00468778     LIBCMT:undname.obj
 0002:00006780       ??_C@_09LBNFPBCA@?5delete?$FL?$FN?$AA@ 00468780     LIBCMT:undname.obj
 0002:0000678c       ??_C@_0P@HJKNJFNN@?$GAomni?5callsig?8?$AA@ 0046878c     LIBCMT:undname.obj
 0002:0000679c       ??_C@_0BL@CNOONJFP@?$GAplacement?5delete?5closure?8?$AA@ 0046879c     LIBCMT:undname.obj
 0002:000067b8       ??_C@_0BN@CKNJLHMB@?$GAplacement?5delete?$FL?$FN?5closure?8?$AA@ 004687b8     LIBCMT:undname.obj
 0002:000067d8       ??_C@_0CG@CFDHKGGD@?$GAmanaged?5vector?5constructor?5iter@ 004687d8     LIBCMT:undname.obj
 0002:00006800       ??_C@_0CF@IMGKMJNO@?$GAmanaged?5vector?5destructor?5itera@ 00468800     LIBCMT:undname.obj
 0002:00006828       ??_C@_0CG@HLDDJMAG@?$GAeh?5vector?5copy?5constructor?5iter@ 00468828     LIBCMT:undname.obj
 0002:00006850       ??_C@_0CM@FCBBDIGB@?$GAeh?5vector?5vbase?5copy?5constructo@ 00468850     LIBCMT:undname.obj
 0002:0000687c       ??_C@_0BL@CLIPGLGB@?$GAdynamic?5initializer?5for?5?8?$AA@ 0046887c     LIBCMT:undname.obj
 0002:00006898       ??_C@_0CB@PDBIFEP@?$GAdynamic?5atexit?5destructor?5for?5?8@ 00468898     LIBCMT:undname.obj
 0002:000068bc       ??_C@_0CD@CGAJBKEJ@?$GAvector?5copy?5constructor?5iterato@ 004688bc     LIBCMT:undname.obj
 0002:000068e0       ??_C@_0CJ@GJELGAMM@?$GAvector?5vbase?5copy?5constructor?5i@ 004688e0     LIBCMT:undname.obj
 0002:0000690c       ??_C@_0CL@FGIJHLCE@?$GAmanaged?5vector?5copy?5constructor@ 0046890c     LIBCMT:undname.obj
 0002:00006938       ??_C@_0BM@PMGGMLDN@?$GAlocal?5static?5thread?5guard?8?$AA@ 00468938     LIBCMT:undname.obj
 0002:00006954       ??_C@_0BC@DAFEJGAK@?5Type?5Descriptor?8?$AA@ 00468954     LIBCMT:undname.obj
 0002:00006968       ??_C@_0BM@LDKODKLH@?5Base?5Class?5Descriptor?5at?5?$CI?$AA@ 00468968     LIBCMT:undname.obj
 0002:00006984       ??_C@_0BD@LGICGFMM@?5Base?5Class?5Array?8?$AA@ 00468984     LIBCMT:undname.obj
 0002:00006998       ??_C@_0BN@MECKDCOJ@?5Class?5Hierarchy?5Descriptor?8?$AA@ 00468998     LIBCMT:undname.obj
 0002:000069b8       ??_C@_0BK@CFCOFLF@?5Complete?5Object?5Locator?8?$AA@ 004689b8     LIBCMT:undname.obj
 0002:000069d4       ??_C@_1BG@GOEBHBDC@?$AAU?$AAS?$AAE?$AAR?$AA3?$AA2?$AA?4?$AAD?$AAL?$AAL?$AA?$AA@ 004689d4     LIBCMT:crtmboxw.obj
 0002:000069ec       ??_C@_0M@DLDCCGNP@MessageBoxW?$AA@ 004689ec     LIBCMT:crtmboxw.obj
 0002:000069f8       ??_C@_0BA@HNOPNCHB@GetActiveWindow?$AA@ 004689f8     LIBCMT:crtmboxw.obj
 0002:00006a08       ??_C@_0BD@HHGDFDBJ@GetLastActivePopup?$AA@ 00468a08     LIBCMT:crtmboxw.obj
 0002:00006a1c       ??_C@_0BK@DEKFELLI@GetUserObjectInformationW?$AA@ 00468a1c     LIBCMT:crtmboxw.obj
 0002:00006a38       ??_C@_0BI@DFKBFLJE@GetProcessWindowStation?$AA@ 00468a38     LIBCMT:crtmboxw.obj
 0002:00006a50       ___newctype                00468a50     LIBCMT:ctype.obj
 0002:00006d50       __wctype                   00468d50     LIBCMT:ctype.obj
 0002:00006f58       ___newclmap                00468f58     LIBCMT:ctype.obj
 0002:000070d8       ___newcumap                004690d8     LIBCMT:ctype.obj
 0002:00007258       ??_C@_15PJPFLCCM@?$AAu?$AAk?$AA?$AA@ 00469258     LIBCMT:getqloc.obj
 0002:00007260       ___rg_language_count       00469260     LIBCMT:getqloc.obj
 0002:00007264       ___rg_country_count        00469264     LIBCMT:getqloc.obj
 0002:00007268       _LcidToLocaleNameTable     00469268     LIBCMT:winapinls.obj
 0002:00007988       _LocaleNameToIndexTable    00469988     LIBCMT:winapinls.obj
 0002:000080a8       ??_C@_15EMKDOKLE@?$AAa?$AAr?$AA?$AA@ 0046a0a8     LIBCMT:winapinls.obj
 0002:000080b0       ??_C@_15KNPADPLH@?$AAb?$AAg?$AA?$AA@ 0046a0b0     LIBCMT:winapinls.obj
 0002:000080b8       ??_C@_15EDMHLDMO@?$AAc?$AAa?$AA?$AA@ 0046a0b8     LIBCMT:winapinls.obj
 0002:000080c0       ??_C@_1O@BPEAJADD@?$AAz?$AAh?$AA?9?$AAC?$AAH?$AAS?$AA?$AA@ 0046a0c0     LIBCMT:winapinls.obj
 0002:000080d0       ??_C@_15LJNHCMNK@?$AAc?$AAs?$AA?$AA@ 0046a0d0     LIBCMT:winapinls.obj
 0002:000080d8       ??_C@_15FOMCIDHG@?$AAd?$AAa?$AA?$AA@ 0046a0d8     LIBCMT:winapinls.obj
 0002:000080e0       ??_C@_15NBKABECB@?$AAd?$AAe?$AA?$AA@ 0046a0e0     LIBCMT:winapinls.obj
 0002:000080e8       ??_C@_15GHPEIIAO@?$AAe?$AAl?$AA?$AA@ 0046a0e8     LIBCMT:winapinls.obj
 0002:000080f0       ??_C@_15MNPNEAIF@?$AAe?$AAn?$AA?$AA@ 0046a0f0     LIBCMT:winapinls.obj
 0002:000080f8       ??_C@_15GPIOMPMH@?$AAe?$AAs?$AA?$AA@ 0046a0f8     LIBCMT:winapinls.obj
 0002:00008100       ??_C@_15NGLOAKJC@?$AAf?$AAi?$AA?$AA@ 0046a100     LIBCMT:winapinls.obj
 0002:00008108       ??_C@_15FBKGNKAM@?$AAf?$AAr?$AA?$AA@ 0046a108     LIBCMT:winapinls.obj
 0002:00008110       ??_C@_15KGGCNEFK@?$AAh?$AAe?$AA?$AA@ 0046a110     LIBCMT:winapinls.obj
 0002:00008118       ??_C@_15PGHLIDMF@?$AAh?$AAu?$AA?$AA@ 0046a118     LIBCMT:winapinls.obj
 0002:00008120       ??_C@_15BIEMAPLM@?$AAi?$AAs?$AA?$AA@ 0046a120     LIBCMT:winapinls.obj
 0002:00008128       ??_C@_15IFJLDHAF@?$AAi?$AAt?$AA?$AA@ 0046a128     LIBCMT:winapinls.obj
 0002:00008130       ??_C@_15GEMIOCAG@?$AAj?$AAa?$AA?$AA@ 0046a130     LIBCMT:winapinls.obj
 0002:00008138       ??_C@_15EPELEGJA@?$AAk?$AAo?$AA?$AA@ 0046a138     LIBCMT:winapinls.obj
 0002:00008140       ??_C@_15NDDHIMN@?$AAn?$AAl?$AA?$AA@ 0046a140     LIBCMT:winapinls.obj
 0002:00008148       ??_C@_15BPIGNHCD@?$AAn?$AAo?$AA?$AA@ 0046a148     LIBCMT:winapinls.obj
 0002:00008150       ??_C@_15DEOPBLCG@?$AAp?$AAl?$AA?$AA@ 0046a150     LIBCMT:winapinls.obj
 0002:00008158       ??_C@_15KBECGEFG@?$AAp?$AAt?$AA?$AA@ 0046a158     LIBCMT:winapinls.obj
 0002:00008160       ??_C@_15GLJCBFMD@?$AAr?$AAo?$AA?$AA@ 0046a160     LIBCMT:winapinls.obj
 0002:00008168       ??_C@_15FEDGKCDI@?$AAr?$AAu?$AA?$AA@ 0046a168     LIBCMT:winapinls.obj
 0002:00008170       ??_C@_15GLKMLLHM@?$AAh?$AAr?$AA?$AA@ 0046a170     LIBCMT:winapinls.obj
 0002:00008178       ??_C@_15CPKMFBDB@?$AAs?$AAk?$AA?$AA@ 0046a178     LIBCMT:winapinls.obj
 0002:00008180       ??_C@_15BAAIOGMK@?$AAs?$AAq?$AA?$AA@ 0046a180     LIBCMT:winapinls.obj
 0002:00008188       ??_C@_15INNPNOHD@?$AAs?$AAv?$AA?$AA@ 0046a188     LIBCMT:winapinls.obj
 0002:00008190       ??_C@_15CABMMOGH@?$AAt?$AAh?$AA?$AA@ 0046a190     LIBCMT:winapinls.obj
 0002:00008198       ??_C@_15BPLIHJJM@?$AAt?$AAr?$AA?$AA@ 0046a198     LIBCMT:winapinls.obj
 0002:000081a0       ??_C@_15NEOEKKDJ@?$AAu?$AAr?$AA?$AA@ 0046a1a0     LIBCMT:winapinls.obj
 0002:000081a8       ??_C@_15NFICGAJK@?$AAi?$AAd?$AA?$AA@ 0046a1a8     LIBCMT:winapinls.obj
 0002:000081b0       ??_C@_15HPJPHDM@?$AAb?$AAe?$AA?$AA@ 0046a1b0     LIBCMT:winapinls.obj
 0002:000081b8       ??_C@_15LCHLGJII@?$AAs?$AAl?$AA?$AA@ 0046a1b8     LIBCMT:winapinls.obj
 0002:000081c0       ??_C@_15PCFJPHHO@?$AAe?$AAt?$AA?$AA@ 0046a1c0     LIBCMT:winapinls.obj
 0002:000081c8       ??_C@_15HPFPGODN@?$AAl?$AAv?$AA?$AA@ 0046a1c8     LIBCMT:winapinls.obj
 0002:000081d0       ??_C@_15NFFGKGLG@?$AAl?$AAt?$AA?$AA@ 0046a1d0     LIBCMT:winapinls.obj
 0002:000081d8       ??_C@_15BDAKCCHN@?$AAf?$AAa?$AA?$AA@ 0046a1d8     LIBCMT:winapinls.obj
 0002:000081e0       ??_C@_15NFGIAIAJ@?$AAv?$AAi?$AA?$AA@ 0046a1e0     LIBCMT:winapinls.obj
 0002:000081e8       ??_C@_15LMKNDMHN@?$AAh?$AAy?$AA?$AA@ 0046a1e8     LIBCMT:winapinls.obj
 0002:000081f0       ??_C@_15IJBHMCFL@?$AAa?$AAz?$AA?$AA@ 0046a1f0     LIBCMT:winapinls.obj
 0002:000081f8       ??_C@_15EKOFJABL@?$AAe?$AAu?$AA?$AA@ 0046a1f8     LIBCMT:winapinls.obj
 0002:00008200       ??_C@_15BGHADCNK@?$AAm?$AAk?$AA?$AA@ 0046a200     LIBCMT:winapinls.obj
 0002:00008208       ??_C@_15JDNICKHM@?$AAa?$AAf?$AA?$AA@ 0046a208     LIBCMT:winapinls.obj
 0002:00008210       ??_C@_15KPJEDBKD@?$AAk?$AAa?$AA?$AA@ 0046a210     LIBCMT:winapinls.obj
 0002:00008218       ??_C@_15PDNFFFEO@?$AAf?$AAo?$AA?$AA@ 0046a218     LIBCMT:winapinls.obj
 0002:00008220       ??_C@_15OMLEGLOC@?$AAh?$AAi?$AA?$AA@ 0046a220     LIBCMT:winapinls.obj
 0002:00008228       ??_C@_15IDNNENKK@?$AAm?$AAs?$AA?$AA@ 0046a228     LIBCMT:winapinls.obj
 0002:00008230       ??_C@_15MACJNBMH@?$AAk?$AAk?$AA?$AA@ 0046a230     LIBCMT:winapinls.obj
 0002:00008238       ??_C@_15DKDJEOND@?$AAk?$AAy?$AA?$AA@ 0046a238     LIBCMT:winapinls.obj
 0002:00008240       ??_C@_15DFGDLJBG@?$AAs?$AAw?$AA?$AA@ 0046a240     LIBCMT:winapinls.obj
 0002:00008248       ??_C@_15BBFAICNG@?$AAu?$AAz?$AA?$AA@ 0046a248     LIBCMT:winapinls.obj
 0002:00008250       ??_C@_15DKNDCGEA@?$AAt?$AAt?$AA?$AA@ 0046a250     LIBCMT:winapinls.obj
 0002:00008258       ??_C@_15MGIFMDPL@?$AAp?$AAa?$AA?$AA@ 0046a258     LIBCMT:winapinls.obj
 0002:00008260       ??_C@_15HCNDBBA@?$AAg?$AAu?$AA?$AA@ 0046a260     LIBCMT:winapinls.obj
 0002:00008268       ??_C@_15FNBEIBON@?$AAt?$AAa?$AA?$AA@ 0046a268     LIBCMT:winapinls.obj
 0002:00008270       ??_C@_15NCHGBGLK@?$AAt?$AAe?$AA?$AA@ 0046a270     LIBCMT:winapinls.obj
 0002:00008278       ??_C@_15PHPHCBPF@?$AAk?$AAn?$AA?$AA@ 0046a278     LIBCMT:winapinls.obj
 0002:00008280       ??_C@_15DLGBCKMP@?$AAm?$AAr?$AA?$AA@ 0046a280     LIBCMT:winapinls.obj
 0002:00008288       ??_C@_15EABBLBFF@?$AAs?$AAa?$AA?$AA@ 0046a288     LIBCMT:winapinls.obj
 0002:00008290       ??_C@_15CBKOMCOI@?$AAm?$AAn?$AA?$AA@ 0046a290     LIBCMT:winapinls.obj
 0002:00008298       ??_C@_15CKDMCJAF@?$AAg?$AAl?$AA?$AA@ 0046a298     LIBCMT:winapinls.obj
 0002:000082a0       ??_C@_17CNJFBPG@?$AAk?$AAo?$AAk?$AA?$AA@ 0046a2a0     LIBCMT:winapinls.obj
 0002:000082a8       ??_C@_17FFBJICPL@?$AAs?$AAy?$AAr?$AA?$AA@ 0046a2a8     LIBCMT:winapinls.obj
 0002:000082b0       ??_C@_17KPNDCPAF@?$AAd?$AAi?$AAv?$AA?$AA@ 0046a2b0     LIBCMT:winapinls.obj
 0002:000082b8       ??_C@_11LOCGONAA@?$AA?$AA@ 0046a2b8     LIBCMT:winapinls.obj
 0002:000082bc       ??_C@_1M@OKAHONE@?$AAa?$AAr?$AA?9?$AAS?$AAA?$AA?$AA@ 0046a2bc     LIBCMT:winapinls.obj
 0002:000082c8       ??_C@_1M@FFFIGIGK@?$AAb?$AAg?$AA?9?$AAB?$AAG?$AA?$AA@ 0046a2c8     LIBCMT:winapinls.obj
 0002:000082d4       ??_C@_1M@BJNKEDC@?$AAc?$AAa?$AA?9?$AAE?$AAS?$AA?$AA@ 0046a2d4     LIBCMT:winapinls.obj
 0002:000082e0       ??_C@_1M@IJJHFJHA@?$AAc?$AAs?$AA?9?$AAC?$AAZ?$AA?$AA@ 0046a2e0     LIBCMT:winapinls.obj
 0002:000082ec       ??_C@_1M@CLPEOBGI@?$AAd?$AAa?$AA?9?$AAD?$AAK?$AA?$AA@ 0046a2ec     LIBCMT:winapinls.obj
 0002:000082f8       ??_C@_1M@MCMADGCB@?$AAd?$AAe?$AA?9?$AAD?$AAE?$AA?$AA@ 0046a2f8     LIBCMT:winapinls.obj
 0002:00008304       ??_C@_1M@OOCKEMAM@?$AAe?$AAl?$AA?9?$AAG?$AAR?$AA?$AA@ 0046a304     LIBCMT:winapinls.obj
 0002:00008310       ??_C@_1M@DDNJFGID@?$AAf?$AAi?$AA?9?$AAF?$AAI?$AA?$AA@ 0046a310     LIBCMT:winapinls.obj
 0002:0000831c       ??_C@_1M@GLIPPMAC@?$AAf?$AAr?$AA?9?$AAF?$AAR?$AA?$AA@ 0046a31c     LIBCMT:winapinls.obj
 0002:00008328       ??_C@_1M@GFMCHPE@?$AAh?$AAe?$AA?9?$AAI?$AAL?$AA?$AA@ 0046a328     LIBCMT:winapinls.obj
 0002:00008334       ??_C@_1M@MHLPGNKM@?$AAh?$AAu?$AA?9?$AAH?$AAU?$AA?$AA@ 0046a334     LIBCMT:winapinls.obj
 0002:00008340       ??_C@_1M@LPDDNNPN@?$AAi?$AAs?$AA?9?$AAI?$AAS?$AA?$AA@ 0046a340     LIBCMT:winapinls.obj
 0002:0000834c       ??_C@_1M@MADIPODN@?$AAi?$AAt?$AA?9?$AAI?$AAT?$AA?$AA@ 0046a34c     LIBCMT:winapinls.obj
 0002:00008358       ??_C@_1M@IHBJJGG@?$AAn?$AAl?$AA?9?$AAN?$AAL?$AA?$AA@ 0046a358     LIBCMT:winapinls.obj
 0002:00008364       ??_C@_1M@EANAGDL@?$AAn?$AAb?$AA?9?$AAN?$AAO?$AA?$AA@ 0046a364     LIBCMT:winapinls.obj
 0002:00008370       ??_C@_1M@NEIEMEGP@?$AAp?$AAl?$AA?9?$AAP?$AAL?$AA?$AA@ 0046a370     LIBCMT:winapinls.obj
 0002:0000837c       ??_C@_1M@BOCFIGEP@?$AAp?$AAt?$AA?9?$AAB?$AAR?$AA?$AA@ 0046a37c     LIBCMT:winapinls.obj
 0002:00008388       ??_C@_1M@IMPFOPBG@?$AAr?$AAo?$AA?9?$AAR?$AAO?$AA?$AA@ 0046a388     LIBCMT:winapinls.obj
 0002:00008394       ??_C@_1M@IDNNEJMM@?$AAr?$AAu?$AA?9?$AAR?$AAU?$AA?$AA@ 0046a394     LIBCMT:winapinls.obj
 0002:000083a0       ??_C@_1M@LILEEOGM@?$AAh?$AAr?$AA?9?$AAH?$AAR?$AA?$AA@ 0046a3a0     LIBCMT:winapinls.obj
 0002:000083ac       ??_C@_1M@FKIFEHPB@?$AAs?$AAk?$AA?9?$AAS?$AAK?$AA?$AA@ 0046a3ac     LIBCMT:winapinls.obj
 0002:000083b8       ??_C@_1M@LJMAMNPJ@?$AAs?$AAq?$AA?9?$AAA?$AAL?$AA?$AA@ 0046a3b8     LIBCMT:winapinls.obj
 0002:000083c4       ??_C@_1M@GIAKDKJK@?$AAs?$AAv?$AA?9?$AAS?$AAE?$AA?$AA@ 0046a3c4     LIBCMT:winapinls.obj
 0002:000083d0       ??_C@_1M@MKJKIKCL@?$AAt?$AAh?$AA?9?$AAT?$AAH?$AA?$AA@ 0046a3d0     LIBCMT:winapinls.obj
 0002:000083dc       ??_C@_1M@MFLCCMPB@?$AAt?$AAr?$AA?9?$AAT?$AAR?$AA?$AA@ 0046a3dc     LIBCMT:winapinls.obj
 0002:000083e8       ??_C@_1M@OIJHDKJN@?$AAu?$AAr?$AA?9?$AAP?$AAK?$AA?$AA@ 0046a3e8     LIBCMT:winapinls.obj
 0002:000083f4       ??_C@_1M@LHIPCIEK@?$AAi?$AAd?$AA?9?$AAI?$AAD?$AA?$AA@ 0046a3f4     LIBCMT:winapinls.obj
 0002:00008400       ??_C@_1M@MFMOBGI@?$AAu?$AAk?$AA?9?$AAU?$AAA?$AA?$AA@ 0046a400     LIBCMT:winapinls.obj
 0002:0000840c       ??_C@_1M@OBGLJIPL@?$AAb?$AAe?$AA?9?$AAB?$AAY?$AA?$AA@ 0046a40c     LIBCMT:winapinls.obj
 0002:00008418       ??_C@_1M@BCFAJEAD@?$AAs?$AAl?$AA?9?$AAS?$AAI?$AA?$AA@ 0046a418     LIBCMT:winapinls.obj
 0002:00008424       ??_C@_1M@FKFFEDDN@?$AAe?$AAt?$AA?9?$AAE?$AAE?$AA?$AA@ 0046a424     LIBCMT:winapinls.obj
 0002:00008430       ??_C@_1M@KGKKAACI@?$AAl?$AAv?$AA?9?$AAL?$AAV?$AA?$AA@ 0046a430     LIBCMT:winapinls.obj
 0002:0000843c       ??_C@_1M@IFGBIJO@?$AAl?$AAt?$AA?9?$AAL?$AAT?$AA?$AA@ 0046a43c     LIBCMT:winapinls.obj
 0002:00008448       ??_C@_1M@FGEAHEDM@?$AAf?$AAa?$AA?9?$AAI?$AAR?$AA?$AA@ 0046a448     LIBCMT:winapinls.obj
 0002:00008454       ??_C@_1M@KBMAIBFN@?$AAv?$AAi?$AA?9?$AAV?$AAN?$AA?$AA@ 0046a454     LIBCMT:winapinls.obj
 0002:00008460       ??_C@_1M@GPCBKDJK@?$AAh?$AAy?$AA?9?$AAA?$AAM?$AA?$AA@ 0046a460     LIBCMT:winapinls.obj
 0002:0000846c       ??_C@_1BG@BECMDDJB@?$AAa?$AAz?$AA?9?$AAA?$AAZ?$AA?9?$AAL?$AAa?$AAt?$AAn?$AA?$AA@ 0046a46c     LIBCMT:winapinls.obj
 0002:00008484       ??_C@_1M@MAOFCAEA@?$AAe?$AAu?$AA?9?$AAE?$AAS?$AA?$AA@ 0046a484     LIBCMT:winapinls.obj
 0002:00008490       ??_C@_1M@IGHABKPI@?$AAm?$AAk?$AA?9?$AAM?$AAK?$AA?$AA@ 0046a490     LIBCMT:winapinls.obj
 0002:0000849c       ??_C@_1M@IAIGNEJG@?$AAt?$AAn?$AA?9?$AAZ?$AAA?$AA?$AA@ 0046a49c     LIBCMT:winapinls.obj
 0002:000084a8       ??_C@_1M@IIJCOJFA@?$AAx?$AAh?$AA?9?$AAZ?$AAA?$AA?$AA@ 0046a4a8     LIBCMT:winapinls.obj
 0002:000084b4       ??_C@_1M@LGPJHNJH@?$AAz?$AAu?$AA?9?$AAZ?$AAA?$AA?$AA@ 0046a4b4     LIBCMT:winapinls.obj
 0002:000084c0       ??_C@_1M@HOKAOIO@?$AAa?$AAf?$AA?9?$AAZ?$AAA?$AA?$AA@ 0046a4c0     LIBCMT:winapinls.obj
 0002:000084cc       ??_C@_1M@DPCLHLIE@?$AAk?$AAa?$AA?9?$AAG?$AAE?$AA?$AA@ 0046a4cc     LIBCMT:winapinls.obj
 0002:000084d8       ??_C@_1M@BLKMHJBI@?$AAf?$AAo?$AA?9?$AAF?$AAO?$AA?$AA@ 0046a4d8     LIBCMT:winapinls.obj
 0002:000084e4       ??_C@_1M@LGGJAPPB@?$AAh?$AAi?$AA?9?$AAI?$AAN?$AA?$AA@ 0046a4e4     LIBCMT:winapinls.obj
 0002:000084f0       ??_C@_1M@FIKPIHFE@?$AAm?$AAt?$AA?9?$AAM?$AAT?$AA?$AA@ 0046a4f0     LIBCMT:winapinls.obj
 0002:000084fc       ??_C@_1M@HEGGPBFA@?$AAs?$AAe?$AA?9?$AAN?$AAO?$AA?$AA@ 0046a4fc     LIBCMT:winapinls.obj
 0002:00008508       ??_C@_1M@EIBJEEPA@?$AAm?$AAs?$AA?9?$AAM?$AAY?$AA?$AA@ 0046a508     LIBCMT:winapinls.obj
 0002:00008514       ??_C@_1M@FHLBGMPP@?$AAk?$AAk?$AA?9?$AAK?$AAZ?$AA?$AA@ 0046a514     LIBCMT:winapinls.obj
 0002:00008520       ??_C@_1M@NGJJLCGI@?$AAk?$AAy?$AA?9?$AAK?$AAG?$AA?$AA@ 0046a520     LIBCMT:winapinls.obj
 0002:0000852c       ??_C@_1M@GIENNBFC@?$AAs?$AAw?$AA?9?$AAK?$AAE?$AA?$AA@ 0046a52c     LIBCMT:winapinls.obj
 0002:00008538       ??_C@_1BG@NDGMJIMJ@?$AAu?$AAz?$AA?9?$AAU?$AAZ?$AA?9?$AAL?$AAa?$AAt?$AAn?$AA?$AA@ 0046a538     LIBCMT:winapinls.obj
 0002:00008550       ??_C@_1M@IDCCIHBC@?$AAt?$AAt?$AA?9?$AAR?$AAU?$AA?$AA@ 0046a550     LIBCMT:winapinls.obj
 0002:0000855c       ??_C@_1M@LOICPMOJ@?$AAb?$AAn?$AA?9?$AAI?$AAN?$AA?$AA@ 0046a55c     LIBCMT:winapinls.obj
 0002:00008568       ??_C@_1M@KPKKNEAH@?$AAp?$AAa?$AA?9?$AAI?$AAN?$AA?$AA@ 0046a568     LIBCMT:winapinls.obj
 0002:00008574       ??_C@_1M@PJGPPBOG@?$AAg?$AAu?$AA?9?$AAI?$AAN?$AA?$AA@ 0046a574     LIBCMT:winapinls.obj
 0002:00008580       ??_C@_1M@KMKMOPHI@?$AAt?$AAa?$AA?9?$AAI?$AAN?$AA?$AA@ 0046a580     LIBCMT:winapinls.obj
 0002:0000858c       ??_C@_1M@KFEHEPAC@?$AAt?$AAe?$AA?9?$AAI?$AAN?$AA?$AA@ 0046a58c     LIBCMT:winapinls.obj
 0002:00008598       ??_C@_1M@CDCLMGHI@?$AAk?$AAn?$AA?9?$AAI?$AAN?$AA?$AA@ 0046a598     LIBCMT:winapinls.obj
 0002:000085a4       ??_C@_1M@MIODLDKF@?$AAm?$AAl?$AA?9?$AAI?$AAN?$AA?$AA@ 0046a5a4     LIBCMT:winapinls.obj
 0002:000085b0       ??_C@_1M@PBIEACPO@?$AAm?$AAr?$AA?9?$AAI?$AAN?$AA?$AA@ 0046a5b0     LIBCMT:winapinls.obj
 0002:000085bc       ??_C@_1M@NIDEAGPH@?$AAs?$AAa?$AA?9?$AAI?$AAN?$AA?$AA@ 0046a5bc     LIBCMT:winapinls.obj
 0002:000085c8       ??_C@_1M@FHIHCBIO@?$AAm?$AAn?$AA?9?$AAM?$AAN?$AA?$AA@ 0046a5c8     LIBCMT:winapinls.obj
 0002:000085d4       ??_C@_1M@JAIJPENP@?$AAc?$AAy?$AA?9?$AAG?$AAB?$AA?$AA@ 0046a5d4     LIBCMT:winapinls.obj
 0002:000085e0       ??_C@_1M@PHGFBEPN@?$AAg?$AAl?$AA?9?$AAE?$AAS?$AA?$AA@ 0046a5e0     LIBCMT:winapinls.obj
 0002:000085ec       ??_C@_1O@KPIPDNCP@?$AAk?$AAo?$AAk?$AA?9?$AAI?$AAN?$AA?$AA@ 0046a5ec     LIBCMT:winapinls.obj
 0002:000085fc       ??_C@_1O@KNHJLDJA@?$AAs?$AAy?$AAr?$AA?9?$AAS?$AAY?$AA?$AA@ 0046a5fc     LIBCMT:winapinls.obj
 0002:0000860c       ??_C@_1O@MKEKBLAH@?$AAd?$AAi?$AAv?$AA?9?$AAM?$AAV?$AA?$AA@ 0046a60c     LIBCMT:winapinls.obj
 0002:0000861c       ??_C@_1O@OHDCKDDF@?$AAq?$AAu?$AAz?$AA?9?$AAB?$AAO?$AA?$AA@ 0046a61c     LIBCMT:winapinls.obj
 0002:0000862c       ??_C@_1M@LEPJNLFD@?$AAn?$AAs?$AA?9?$AAZ?$AAA?$AA?$AA@ 0046a62c     LIBCMT:winapinls.obj
 0002:00008638       ??_C@_1M@OMLEIIJB@?$AAm?$AAi?$AA?9?$AAN?$AAZ?$AA?$AA@ 0046a638     LIBCMT:winapinls.obj
 0002:00008644       ??_C@_1M@PMPEAILG@?$AAa?$AAr?$AA?9?$AAI?$AAQ?$AA?$AA@ 0046a644     LIBCMT:winapinls.obj
 0002:00008650       ??_C@_1M@CNKPNOEE@?$AAd?$AAe?$AA?9?$AAC?$AAH?$AA?$AA@ 0046a650     LIBCMT:winapinls.obj
 0002:0000865c       ??_C@_1M@LKMGMLKO@?$AAe?$AAn?$AA?9?$AAG?$AAB?$AA?$AA@ 0046a65c     LIBCMT:winapinls.obj
 0002:00008668       ??_C@_1M@PGKJFFGL@?$AAe?$AAs?$AA?9?$AAM?$AAX?$AA?$AA@ 0046a668     LIBCMT:winapinls.obj
 0002:00008674       ??_C@_1M@DNNANBDC@?$AAf?$AAr?$AA?9?$AAB?$AAE?$AA?$AA@ 0046a674     LIBCMT:winapinls.obj
 0002:00008680       ??_C@_1M@HLGMDFHM@?$AAi?$AAt?$AA?9?$AAC?$AAH?$AA?$AA@ 0046a680     LIBCMT:winapinls.obj
 0002:0000868c       ??_C@_1M@CLLBGJH@?$AAn?$AAl?$AA?9?$AAB?$AAE?$AA?$AA@ 0046a68c     LIBCMT:winapinls.obj
 0002:00008698       ??_C@_1M@BODBOGLF@?$AAn?$AAn?$AA?9?$AAN?$AAO?$AA?$AA@ 0046a698     LIBCMT:winapinls.obj
 0002:000086a4       ??_C@_1M@HFFAHKAD@?$AAp?$AAt?$AA?9?$AAP?$AAT?$AA?$AA@ 0046a6a4     LIBCMT:winapinls.obj
 0002:000086b0       ??_C@_1BG@LNOAKHIE@?$AAs?$AAr?$AA?9?$AAS?$AAP?$AA?9?$AAL?$AAa?$AAt?$AAn?$AA?$AA@ 0046a6b0     LIBCMT:winapinls.obj
 0002:000086c8       ??_C@_1M@HBMHBGAK@?$AAs?$AAv?$AA?9?$AAF?$AAI?$AA?$AA@ 0046a6c8     LIBCMT:winapinls.obj
 0002:000086d4       ??_C@_1BG@DGCJGJBE@?$AAa?$AAz?$AA?9?$AAA?$AAZ?$AA?9?$AAC?$AAy?$AAr?$AAl?$AA?$AA@ 0046a6d4     LIBCMT:winapinls.obj
 0002:000086ec       ??_C@_1M@KEJDAAHB@?$AAs?$AAe?$AA?9?$AAS?$AAE?$AA?$AA@ 0046a6ec     LIBCMT:winapinls.obj
 0002:000086f8       ??_C@_1M@HEIBJJAD@?$AAm?$AAs?$AA?9?$AAB?$AAN?$AA?$AA@ 0046a6f8     LIBCMT:winapinls.obj
 0002:00008704       ??_C@_1BG@PBGJMCEM@?$AAu?$AAz?$AA?9?$AAU?$AAZ?$AA?9?$AAC?$AAy?$AAr?$AAl?$AA?$AA@ 0046a704     LIBCMT:winapinls.obj
 0002:0000871c       ??_C@_1O@LAOBCMDF@?$AAq?$AAu?$AAz?$AA?9?$AAE?$AAC?$AA?$AA@ 0046a71c     LIBCMT:winapinls.obj
 0002:0000872c       ??_C@_1M@POEEMAIO@?$AAa?$AAr?$AA?9?$AAE?$AAG?$AA?$AA@ 0046a72c     LIBCMT:winapinls.obj
 0002:00008738       ??_C@_1M@EFAKDEDL@?$AAz?$AAh?$AA?9?$AAH?$AAK?$AA?$AA@ 0046a738     LIBCMT:winapinls.obj
 0002:00008744       ??_C@_1M@HKKIJHGI@?$AAd?$AAe?$AA?9?$AAA?$AAT?$AA?$AA@ 0046a744     LIBCMT:winapinls.obj
 0002:00008750       ??_C@_1M@KBFBEHJF@?$AAe?$AAn?$AA?9?$AAA?$AAU?$AA?$AA@ 0046a750     LIBCMT:winapinls.obj
 0002:0000875c       ??_C@_1M@MNPLFAAH@?$AAe?$AAs?$AA?9?$AAE?$AAS?$AA?$AA@ 0046a75c     LIBCMT:winapinls.obj
 0002:00008768       ??_C@_1M@HJOOJFMA@?$AAf?$AAr?$AA?9?$AAC?$AAA?$AA?$AA@ 0046a768     LIBCMT:winapinls.obj
 0002:00008774       ??_C@_1BG@JPOFPNAB@?$AAs?$AAr?$AA?9?$AAS?$AAP?$AA?9?$AAC?$AAy?$AAr?$AAl?$AA?$AA@ 0046a774     LIBCMT:winapinls.obj
 0002:0000878c       ??_C@_1M@LNFOCMOB@?$AAs?$AAe?$AA?9?$AAF?$AAI?$AA?$AA@ 0046a78c     LIBCMT:winapinls.obj
 0002:00008798       ??_C@_1O@MGJBOAMB@?$AAq?$AAu?$AAz?$AA?9?$AAP?$AAE?$AA?$AA@ 0046a798     LIBCMT:winapinls.obj
 0002:000087a8       ??_C@_1M@GJINLBOK@?$AAa?$AAr?$AA?9?$AAL?$AAY?$AA?$AA@ 0046a7a8     LIBCMT:winapinls.obj
 0002:000087b4       ??_C@_1M@GGMNHJNL@?$AAz?$AAh?$AA?9?$AAS?$AAG?$AA?$AA@ 0046a7b4     LIBCMT:winapinls.obj
 0002:000087c0       ??_C@_1M@HOIKODND@?$AAd?$AAe?$AA?9?$AAL?$AAU?$AA?$AA@ 0046a7c0     LIBCMT:winapinls.obj
 0002:000087cc       ??_C@_1M@DDOCCGFG@?$AAe?$AAn?$AA?9?$AAC?$AAA?$AA?$AA@ 0046a7cc     LIBCMT:winapinls.obj
 0002:000087d8       ??_C@_1M@BNOEMJLF@?$AAe?$AAs?$AA?9?$AAG?$AAT?$AA?$AA@ 0046a7d8     LIBCMT:winapinls.obj
 0002:000087e4       ??_C@_1M@EOGNKEK@?$AAf?$AAr?$AA?9?$AAC?$AAH?$AA?$AA@ 0046a7e4     LIBCMT:winapinls.obj
 0002:000087f0       ??_C@_1M@FLIDJFHL@?$AAh?$AAr?$AA?9?$AAB?$AAA?$AA?$AA@ 0046a7f0     LIBCMT:winapinls.obj
 0002:000087fc       ??_C@_1O@FMCELNAJ@?$AAs?$AAm?$AAj?$AA?9?$AAN?$AAO?$AA?$AA@ 0046a7fc     LIBCMT:winapinls.obj
 0002:0000880c       ??_C@_1M@JHGLJMGJ@?$AAa?$AAr?$AA?9?$AAD?$AAZ?$AA?$AA@ 0046a80c     LIBCMT:winapinls.obj
 0002:00008818       ??_C@_1M@JKKFDCNP@?$AAz?$AAh?$AA?9?$AAM?$AAO?$AA?$AA@ 0046a818     LIBCMT:winapinls.obj
 0002:00008824       ??_C@_1M@GEEFALPE@?$AAd?$AAe?$AA?9?$AAL?$AAI?$AA?$AA@ 0046a824     LIBCMT:winapinls.obj
 0002:00008830       ??_C@_1M@IGEOFBG@?$AAe?$AAn?$AA?9?$AAN?$AAZ?$AA?$AA@ 0046a830     LIBCMT:winapinls.obj
 0002:0000883c       ??_C@_1M@KDBONEHP@?$AAe?$AAs?$AA?9?$AAC?$AAR?$AA?$AA@ 0046a83c     LIBCMT:winapinls.obj
 0002:00008848       ??_C@_1M@FHMDOHNN@?$AAf?$AAr?$AA?9?$AAL?$AAU?$AA?$AA@ 0046a848     LIBCMT:winapinls.obj
 0002:00008854       ??_C@_1BG@NFKKMAFG@?$AAb?$AAs?$AA?9?$AAB?$AAA?$AA?9?$AAL?$AAa?$AAt?$AAn?$AA?$AA@ 0046a854     LIBCMT:winapinls.obj
 0002:0000886c       ??_C@_1O@IMNBEMCI@?$AAs?$AAm?$AAj?$AA?9?$AAS?$AAE?$AA?$AA@ 0046a86c     LIBCMT:winapinls.obj
 0002:0000887c       ??_C@_1M@DHHMBNDP@?$AAa?$AAr?$AA?9?$AAM?$AAA?$AA?$AA@ 0046a87c     LIBCMT:winapinls.obj
 0002:00008888       ??_C@_1M@BNBLJCGH@?$AAe?$AAn?$AA?9?$AAI?$AAE?$AA?$AA@ 0046a888     LIBCMT:winapinls.obj
 0002:00008894       ??_C@_1M@GEPAFMDL@?$AAe?$AAs?$AA?9?$AAP?$AAA?$AA?$AA@ 0046a894     LIBCMT:winapinls.obj
 0002:000088a0       ??_C@_1M@OJONDMDL@?$AAf?$AAr?$AA?9?$AAM?$AAC?$AA?$AA@ 0046a8a0     LIBCMT:winapinls.obj
 0002:000088ac       ??_C@_1BG@OBCNFJB@?$AAs?$AAr?$AA?9?$AAB?$AAA?$AA?9?$AAL?$AAa?$AAt?$AAn?$AA?$AA@ 0046a8ac     LIBCMT:winapinls.obj
 0002:000088c4       ??_C@_1O@KEMEEGPO@?$AAs?$AAm?$AAa?$AA?9?$AAN?$AAO?$AA?$AA@ 0046a8c4     LIBCMT:winapinls.obj
 0002:000088d4       ??_C@_1M@ELMGFODK@?$AAa?$AAr?$AA?9?$AAT?$AAN?$AA?$AA@ 0046a8d4     LIBCMT:winapinls.obj
 0002:000088e0       ??_C@_1M@BHDLHFAF@?$AAe?$AAn?$AA?9?$AAZ?$AAA?$AA?$AA@ 0046a8e0     LIBCMT:winapinls.obj
 0002:000088ec       ??_C@_1M@BMGIGLIF@?$AAe?$AAs?$AA?9?$AAD?$AAO?$AA?$AA@ 0046a8ec     LIBCMT:winapinls.obj
 0002:000088f8       ??_C@_1BG@CMBHIPBE@?$AAs?$AAr?$AA?9?$AAB?$AAA?$AA?9?$AAC?$AAy?$AAr?$AAl?$AA?$AA@ 0046a8f8     LIBCMT:winapinls.obj
 0002:00008910       ??_C@_1O@HEDBLHNP@?$AAs?$AAm?$AAa?$AA?9?$AAS?$AAE?$AA?$AA@ 0046a910     LIBCMT:winapinls.obj
 0002:00008920       ??_C@_1M@DAGCADIM@?$AAa?$AAr?$AA?9?$AAO?$AAM?$AA?$AA@ 0046a920     LIBCMT:winapinls.obj
 0002:0000892c       ??_C@_1M@FODLMICG@?$AAe?$AAn?$AA?9?$AAJ?$AAM?$AA?$AA@ 0046a92c     LIBCMT:winapinls.obj
 0002:00008938       ??_C@_1M@DNMLCIHB@?$AAe?$AAs?$AA?9?$AAV?$AAE?$AA?$AA@ 0046a938     LIBCMT:winapinls.obj
 0002:00008944       ??_C@_1O@EOKHMKJK@?$AAs?$AAm?$AAs?$AA?9?$AAF?$AAI?$AA?$AA@ 0046a944     LIBCMT:winapinls.obj
 0002:00008954       ??_C@_1M@CAFJMKOF@?$AAa?$AAr?$AA?9?$AAY?$AAE?$AA?$AA@ 0046a954     LIBCMT:winapinls.obj
 0002:00008960       ??_C@_1M@CBFHIJLI@?$AAe?$AAn?$AA?9?$AAC?$AAB?$AA?$AA@ 0046a960     LIBCMT:winapinls.obj
 0002:0000896c       ??_C@_1M@BGNFLDN@?$AAe?$AAs?$AA?9?$AAC?$AAO?$AA?$AA@ 0046a96c     LIBCMT:winapinls.obj
 0002:00008978       ??_C@_1O@JMPHMAMC@?$AAs?$AAm?$AAn?$AA?9?$AAF?$AAI?$AA?$AA@ 0046a978     LIBCMT:winapinls.obj
 0002:00008988       ??_C@_1M@JLANABKE@?$AAa?$AAr?$AA?9?$AAS?$AAY?$AA?$AA@ 0046a988     LIBCMT:winapinls.obj
 0002:00008994       ??_C@_1M@HPKGCFGN@?$AAe?$AAn?$AA?9?$AAB?$AAZ?$AA?$AA@ 0046a994     LIBCMT:winapinls.obj
 0002:000089a0       ??_C@_1M@OLJCMLGM@?$AAe?$AAs?$AA?9?$AAP?$AAE?$AA?$AA@ 0046a9a0     LIBCMT:winapinls.obj
 0002:000089ac       ??_C@_1M@MKKGFKLE@?$AAa?$AAr?$AA?9?$AAJ?$AAO?$AA?$AA@ 0046a9ac     LIBCMT:winapinls.obj
 0002:000089b8       ??_C@_1M@EKPGLDNI@?$AAe?$AAn?$AA?9?$AAT?$AAT?$AA?$AA@ 0046a9b8     LIBCMT:winapinls.obj
 0002:000089c4       ??_C@_1M@OONGHFHE@?$AAe?$AAs?$AA?9?$AAA?$AAR?$AA?$AA@ 0046a9c4     LIBCMT:winapinls.obj
 0002:000089d0       ??_C@_1M@OOJFGBHE@?$AAa?$AAr?$AA?9?$AAL?$AAB?$AA?$AA@ 0046a9d0     LIBCMT:winapinls.obj
 0002:000089dc       ??_C@_1M@GCEJHNEG@?$AAe?$AAn?$AA?9?$AAZ?$AAW?$AA?$AA@ 0046a9dc     LIBCMT:winapinls.obj
 0002:000089e8       ??_C@_1M@JNOCAHJI@?$AAe?$AAs?$AA?9?$AAE?$AAC?$AA?$AA@ 0046a9e8     LIBCMT:winapinls.obj
 0002:000089f4       ??_C@_1M@JEFHPGGB@?$AAa?$AAr?$AA?9?$AAK?$AAW?$AA?$AA@ 0046a9f4     LIBCMT:winapinls.obj
 0002:00008a00       ??_C@_1M@MLKIBJOJ@?$AAe?$AAn?$AA?9?$AAP?$AAH?$AA?$AA@ 0046aa00     LIBCMT:winapinls.obj
 0002:00008a0c       ??_C@_1M@BDNIPEND@?$AAe?$AAs?$AA?9?$AAC?$AAL?$AA?$AA@ 0046aa0c     LIBCMT:winapinls.obj
 0002:00008a18       ??_C@_1M@MPNMEKBD@?$AAa?$AAr?$AA?9?$AAA?$AAE?$AA?$AA@ 0046aa18     LIBCMT:winapinls.obj
 0002:00008a24       ??_C@_1M@KBJALCPI@?$AAe?$AAs?$AA?9?$AAU?$AAY?$AA?$AA@ 0046aa24     LIBCMT:winapinls.obj
 0002:00008a30       ??_C@_1M@LLCCOAGA@?$AAa?$AAr?$AA?9?$AAB?$AAH?$AA?$AA@ 0046aa30     LIBCMT:winapinls.obj
 0002:00008a3c       ??_C@_1M@PBFNCDEL@?$AAe?$AAs?$AA?9?$AAP?$AAY?$AA?$AA@ 0046aa3c     LIBCMT:winapinls.obj
 0002:00008a48       ??_C@_1M@EDGINPNP@?$AAa?$AAr?$AA?9?$AAQ?$AAA?$AA?$AA@ 0046aa48     LIBCMT:winapinls.obj
 0002:00008a54       ??_C@_1M@MKDBIIJI@?$AAe?$AAs?$AA?9?$AAB?$AAO?$AA?$AA@ 0046aa54     LIBCMT:winapinls.obj
 0002:00008a60       ??_C@_1M@CPKKEBLD@?$AAe?$AAs?$AA?9?$AAS?$AAV?$AA?$AA@ 0046aa60     LIBCMT:winapinls.obj
 0002:00008a6c       ??_C@_1M@NDBGMMJL@?$AAe?$AAs?$AA?9?$AAH?$AAN?$AA?$AA@ 0046aa6c     LIBCMT:winapinls.obj
 0002:00008a78       ??_C@_1M@JIJIBHDP@?$AAe?$AAs?$AA?9?$AAN?$AAI?$AA?$AA@ 0046aa78     LIBCMT:winapinls.obj
 0002:00008a84       ??_C@_1M@CGFMKEEK@?$AAe?$AAs?$AA?9?$AAP?$AAR?$AA?$AA@ 0046aa84     LIBCMT:winapinls.obj
 0002:00008a90       ??_C@_1O@ICJHKIIK@?$AAz?$AAh?$AA?9?$AAC?$AAH?$AAT?$AA?$AA@ 0046aa90     LIBCMT:winapinls.obj
 0002:00008aa0       ??_C@_15CLNEJCE@?$AAs?$AAr?$AA?$AA@ 0046aaa0     LIBCMT:winapinls.obj
 0002:00008aa8       ??_C@_1M@KAHEKEIG@?$AAa?$AAf?$AA?9?$AAz?$AAa?$AA?$AA@ 0046aaa8     LIBCMT:winapinls.obj
 0002:00008ab4       ??_C@_1M@GIECOABL@?$AAa?$AAr?$AA?9?$AAa?$AAe?$AA?$AA@ 0046aab4     LIBCMT:winapinls.obj
 0002:00008ac0       ??_C@_1M@BMLMEKGI@?$AAa?$AAr?$AA?9?$AAb?$AAh?$AA?$AA@ 0046aac0     LIBCMT:winapinls.obj
 0002:00008acc       ??_C@_1M@DAPFDGGB@?$AAa?$AAr?$AA?9?$AAd?$AAz?$AA?$AA@ 0046aacc     LIBCMT:winapinls.obj
 0002:00008ad8       ??_C@_1M@FJNKGKIG@?$AAa?$AAr?$AA?9?$AAe?$AAg?$AA?$AA@ 0046aad8     LIBCMT:winapinls.obj
 0002:00008ae4       ??_C@_1M@FLGKKCLO@?$AAa?$AAr?$AA?9?$AAi?$AAq?$AA?$AA@ 0046aae4     LIBCMT:winapinls.obj
 0002:00008af0       ??_C@_1M@GNDIPALM@?$AAa?$AAr?$AA?9?$AAj?$AAo?$AA?$AA@ 0046aaf0     LIBCMT:winapinls.obj
 0002:00008afc       ??_C@_1M@DDMJFMGJ@?$AAa?$AAr?$AA?9?$AAk?$AAw?$AA?$AA@ 0046aafc     LIBCMT:winapinls.obj
 0002:00008b08       ??_C@_1M@EJALMLHM@?$AAa?$AAr?$AA?9?$AAl?$AAb?$AA?$AA@ 0046ab08     LIBCMT:winapinls.obj
 0002:00008b14       ??_C@_1M@MOBDBLOC@?$AAa?$AAr?$AA?9?$AAl?$AAy?$AA?$AA@ 0046ab14     LIBCMT:winapinls.obj
 0002:00008b20       ??_C@_1M@JAOCLHDH@?$AAa?$AAr?$AA?9?$AAm?$AAa?$AA?$AA@ 0046ab20     LIBCMT:winapinls.obj
 0002:00008b2c       ??_C@_1M@JHPMKJIE@?$AAa?$AAr?$AA?9?$AAo?$AAm?$AA?$AA@ 0046ab2c     LIBCMT:winapinls.obj
 0002:00008b38       ??_C@_1M@OEPGHFNH@?$AAa?$AAr?$AA?9?$AAq?$AAa?$AA?$AA@ 0046ab38     LIBCMT:winapinls.obj
 0002:00008b44       ??_C@_1M@KJDONENM@?$AAa?$AAr?$AA?9?$AAs?$AAa?$AA?$AA@ 0046ab44     LIBCMT:winapinls.obj
 0002:00008b50       ??_C@_1M@DMJDKLKM@?$AAa?$AAr?$AA?9?$AAs?$AAy?$AA?$AA@ 0046ab50     LIBCMT:winapinls.obj
 0002:00008b5c       ??_C@_1M@OMFIPEDC@?$AAa?$AAr?$AA?9?$AAt?$AAn?$AA?$AA@ 0046ab5c     LIBCMT:winapinls.obj
 0002:00008b68       ??_C@_1M@IHMHGAON@?$AAa?$AAr?$AA?9?$AAy?$AAe?$AA?$AA@ 0046ab68     LIBCMT:winapinls.obj
 0002:00008b74       ??_C@_1BG@KDCPGJGB@?$AAa?$AAz?$AA?9?$AAa?$AAz?$AA?9?$AAc?$AAy?$AAr?$AAl?$AA?$AA@ 0046ab74     LIBCMT:winapinls.obj
 0002:00008b8c       ??_C@_1BG@IBCKDDOE@?$AAa?$AAz?$AA?9?$AAa?$AAz?$AA?9?$AAl?$AAa?$AAt?$AAn?$AA?$AA@ 0046ab8c     LIBCMT:winapinls.obj
 0002:00008ba4       ??_C@_1M@EGPFDCPD@?$AAb?$AAe?$AA?9?$AAb?$AAy?$AA?$AA@ 0046aba4     LIBCMT:winapinls.obj
 0002:00008bb0       ??_C@_1M@PCMGMCGC@?$AAb?$AAg?$AA?9?$AAb?$AAg?$AA?$AA@ 0046abb0     LIBCMT:winapinls.obj
 0002:00008bbc       ??_C@_1M@BJBMFGOB@?$AAb?$AAn?$AA?9?$AAi?$AAn?$AA?$AA@ 0046abbc     LIBCMT:winapinls.obj
 0002:00008bc8       ??_C@_1BG@EAKMMACD@?$AAb?$AAs?$AA?9?$AAb?$AAa?$AA?9?$AAl?$AAa?$AAt?$AAn?$AA?$AA@ 0046abc8     LIBCMT:winapinls.obj
 0002:00008be0       ??_C@_1M@KGADAODK@?$AAc?$AAa?$AA?9?$AAe?$AAs?$AA?$AA@ 0046abe0     LIBCMT:winapinls.obj
 0002:00008bec       ??_C@_1M@COAJPDHI@?$AAc?$AAs?$AA?9?$AAc?$AAz?$AA?$AA@ 0046abec     LIBCMT:winapinls.obj
 0002:00008bf8       ??_C@_1M@DHBHFONH@?$AAc?$AAy?$AA?9?$AAg?$AAb?$AA?$AA@ 0046abf8     LIBCMT:winapinls.obj
 0002:00008c04       ??_C@_1M@IMGKELGA@?$AAd?$AAa?$AA?9?$AAd?$AAk?$AA?$AA@ 0046ac04     LIBCMT:winapinls.obj
 0002:00008c10       ??_C@_1M@NNDGDNGA@?$AAd?$AAe?$AA?9?$AAa?$AAt?$AA?$AA@ 0046ac10     LIBCMT:winapinls.obj
 0002:00008c1c       ??_C@_1M@IKDBHEEM@?$AAd?$AAe?$AA?9?$AAc?$AAh?$AA?$AA@ 0046ac1c     LIBCMT:winapinls.obj
 0002:00008c28       ??_C@_1M@GFFOJMCJ@?$AAd?$AAe?$AA?9?$AAd?$AAe?$AA?$AA@ 0046ac28     LIBCMT:winapinls.obj
 0002:00008c34       ??_C@_1M@MDNLKBPM@?$AAd?$AAe?$AA?9?$AAl?$AAi?$AA?$AA@ 0046ac34     LIBCMT:winapinls.obj
 0002:00008c40       ??_C@_1M@NJBEEJNL@?$AAd?$AAe?$AA?9?$AAl?$AAu?$AA?$AA@ 0046ac40     LIBCMT:winapinls.obj
 0002:00008c4c       ??_C@_1O@GNNELBAP@?$AAd?$AAi?$AAv?$AA?9?$AAm?$AAv?$AA?$AA@ 0046ac4c     LIBCMT:winapinls.obj
 0002:00008c5c       ??_C@_1M@EJLEOGAE@?$AAe?$AAl?$AA?9?$AAg?$AAr?$AA?$AA@ 0046ac5c     LIBCMT:winapinls.obj
 0002:00008c68       ??_C@_1M@GMPONJN@?$AAe?$AAn?$AA?9?$AAa?$AAu?$AA?$AA@ 0046ac68     LIBCMT:winapinls.obj
 0002:00008c74       ??_C@_1M@NIDIIPGF@?$AAe?$AAn?$AA?9?$AAb?$AAz?$AA?$AA@ 0046ac74     LIBCMT:winapinls.obj
 0002:00008c80       ??_C@_1M@JEHMIMFO@?$AAe?$AAn?$AA?9?$AAc?$AAa?$AA?$AA@ 0046ac80     LIBCMT:winapinls.obj
 0002:00008c8c       ??_C@_1M@IGMJCDLA@?$AAe?$AAn?$AA?9?$AAc?$AAb?$AA?$AA@ 0046ac8c     LIBCMT:winapinls.obj
 0002:00008c98       ??_C@_1M@BNFIGBKG@?$AAe?$AAn?$AA?9?$AAg?$AAb?$AA?$AA@ 0046ac98     LIBCMT:winapinls.obj
 0002:00008ca4       ??_C@_1M@LKIFDIGP@?$AAe?$AAn?$AA?9?$AAi?$AAe?$AA?$AA@ 0046aca4     LIBCMT:winapinls.obj
 0002:00008cb0       ??_C@_1M@PJKFGCCO@?$AAe?$AAn?$AA?9?$AAj?$AAm?$AA?$AA@ 0046acb0     LIBCMT:winapinls.obj
 0002:00008cbc       ??_C@_1M@KPPKEPBO@?$AAe?$AAn?$AA?9?$AAn?$AAz?$AA?$AA@ 0046acbc     LIBCMT:winapinls.obj
 0002:00008cc8       ??_C@_1M@GMDGLDOB@?$AAe?$AAn?$AA?9?$AAp?$AAh?$AA?$AA@ 0046acc8     LIBCMT:winapinls.obj
 0002:00008cd4       ??_C@_1M@ONGIBJNA@?$AAe?$AAn?$AA?9?$AAt?$AAt?$AA?$AA@ 0046acd4     LIBCMT:winapinls.obj
 0002:00008ce0       ??_C@_1M@LLODPCMM@?$AAe?$AAn?$AA?9?$AAu?$AAs?$AA?$AA@ 0046ace0     LIBCMT:winapinls.obj
 0002:00008cec       ??_C@_1M@LAKFNPAN@?$AAe?$AAn?$AA?9?$AAz?$AAa?$AA?$AA@ 0046acec     LIBCMT:winapinls.obj
 0002:00008cf8       ??_C@_1M@MFNHNHEO@?$AAe?$AAn?$AA?9?$AAz?$AAw?$AA?$AA@ 0046acf8     LIBCMT:winapinls.obj
 0002:00008d04       ??_C@_1M@EJEINPHM@?$AAe?$AAs?$AA?9?$AAa?$AAr?$AA?$AA@ 0046ad04     LIBCMT:winapinls.obj
 0002:00008d10       ??_C@_1M@GNKPCCJA@?$AAe?$AAs?$AA?9?$AAb?$AAo?$AA?$AA@ 0046ad10     LIBCMT:winapinls.obj
 0002:00008d1c       ??_C@_1M@LEEGFONL@?$AAe?$AAs?$AA?9?$AAc?$AAl?$AA?$AA@ 0046ad1c     LIBCMT:winapinls.obj
 0002:00008d28       ??_C@_1M@KGPDPBDF@?$AAe?$AAs?$AA?9?$AAc?$AAo?$AA?$AA@ 0046ad28     LIBCMT:winapinls.obj
 0002:00008d34       ??_C@_1M@EIAHOHH@?$AAe?$AAs?$AA?9?$AAc?$AAr?$AA?$AA@ 0046ad34     LIBCMT:winapinls.obj
 0002:00008d40       ??_C@_1M@LLPGMBIN@?$AAe?$AAs?$AA?9?$AAd?$AAo?$AA?$AA@ 0046ad40     LIBCMT:winapinls.obj
 0002:00008d4c       ??_C@_1M@DKHMKNJA@?$AAe?$AAs?$AA?9?$AAe?$AAc?$AA?$AA@ 0046ad4c     LIBCMT:winapinls.obj
 0002:00008d58       ??_C@_1M@GKGFPKAP@?$AAe?$AAs?$AA?9?$AAe?$AAs?$AA?$AA@ 0046ad58     LIBCMT:winapinls.obj
 0002:00008d64       ??_C@_1M@LKHKGDLN@?$AAe?$AAs?$AA?9?$AAg?$AAt?$AA?$AA@ 0046ad64     LIBCMT:winapinls.obj
 0002:00008d70       ??_C@_1M@HEIIGGJD@?$AAe?$AAs?$AA?9?$AAh?$AAn?$AA?$AA@ 0046ad70     LIBCMT:winapinls.obj
 0002:00008d7c       ??_C@_1M@FBDHPPGD@?$AAe?$AAs?$AA?9?$AAm?$AAx?$AA?$AA@ 0046ad7c     LIBCMT:winapinls.obj
 0002:00008d88       ??_C@_1M@DPAGLNDH@?$AAe?$AAs?$AA?9?$AAn?$AAi?$AA?$AA@ 0046ad88     LIBCMT:winapinls.obj
 0002:00008d94       ??_C@_1M@MDGOPGDD@?$AAe?$AAs?$AA?9?$AAp?$AAa?$AA?$AA@ 0046ad94     LIBCMT:winapinls.obj
 0002:00008da0       ??_C@_1M@EMAMGBGE@?$AAe?$AAs?$AA?9?$AAp?$AAe?$AA?$AA@ 0046ada0     LIBCMT:winapinls.obj
 0002:00008dac       ??_C@_1M@IBMCAOEC@?$AAe?$AAs?$AA?9?$AAp?$AAr?$AA?$AA@ 0046adac     LIBCMT:winapinls.obj
 0002:00008db8       ??_C@_1M@FGMDIJED@?$AAe?$AAs?$AA?9?$AAp?$AAy?$AA?$AA@ 0046adb8     LIBCMT:winapinls.obj
 0002:00008dc4       ??_C@_1M@IIDEOLLL@?$AAe?$AAs?$AA?9?$AAs?$AAv?$AA?$AA@ 0046adc4     LIBCMT:winapinls.obj
 0002:00008dd0       ??_C@_1M@GAOBIPA@?$AAe?$AAs?$AA?9?$AAu?$AAy?$AA?$AA@ 0046add0     LIBCMT:winapinls.obj
 0002:00008ddc       ??_C@_1M@JKFFICHJ@?$AAe?$AAs?$AA?9?$AAv?$AAe?$AA?$AA@ 0046addc     LIBCMT:winapinls.obj
 0002:00008de8       ??_C@_1M@PNMLOJDF@?$AAe?$AAt?$AA?9?$AAe?$AAe?$AA?$AA@ 0046ade8     LIBCMT:winapinls.obj
 0002:00008df4       ??_C@_1M@GHHLIKEI@?$AAe?$AAu?$AA?9?$AAe?$AAs?$AA?$AA@ 0046adf4     LIBCMT:winapinls.obj
 0002:00008e00       ??_C@_1M@PBNONODE@?$AAf?$AAa?$AA?9?$AAi?$AAr?$AA?$AA@ 0046ae00     LIBCMT:winapinls.obj
 0002:00008e0c       ??_C@_1M@JEEHPMIL@?$AAf?$AAi?$AA?9?$AAf?$AAi?$AA?$AA@ 0046ae0c     LIBCMT:winapinls.obj
 0002:00008e18       ??_C@_1M@LMDCNDBA@?$AAf?$AAo?$AA?9?$AAf?$AAo?$AA?$AA@ 0046ae18     LIBCMT:winapinls.obj
 0002:00008e24       ??_C@_1M@JKEOHLDK@?$AAf?$AAr?$AA?9?$AAb?$AAe?$AA?$AA@ 0046ae24     LIBCMT:winapinls.obj
 0002:00008e30       ??_C@_1M@NOHADPMI@?$AAf?$AAr?$AA?9?$AAc?$AAa?$AA?$AA@ 0046ae30     LIBCMT:winapinls.obj
 0002:00008e3c       ??_C@_1M@KDHIHAEC@?$AAf?$AAr?$AA?9?$AAc?$AAh?$AA?$AA@ 0046ae3c     LIBCMT:winapinls.obj
 0002:00008e48       ??_C@_1M@MMBBFGAK@?$AAf?$AAr?$AA?9?$AAf?$AAr?$AA?$AA@ 0046ae48     LIBCMT:winapinls.obj
 0002:00008e54       ??_C@_1M@PAFNENNF@?$AAf?$AAr?$AA?9?$AAl?$AAu?$AA?$AA@ 0046ae54     LIBCMT:winapinls.obj
 0002:00008e60       ??_C@_1M@EOHDJGDD@?$AAf?$AAr?$AA?9?$AAm?$AAc?$AA?$AA@ 0046ae60     LIBCMT:winapinls.obj
 0002:00008e6c       ??_C@_1M@FAPLLOPF@?$AAg?$AAl?$AA?9?$AAe?$AAs?$AA?$AA@ 0046ae6c     LIBCMT:winapinls.obj
 0002:00008e78       ??_C@_1M@FOPBFLOO@?$AAg?$AAu?$AA?9?$AAi?$AAn?$AA?$AA@ 0046ae78     LIBCMT:winapinls.obj
 0002:00008e84       ??_C@_1M@KBMCINPM@?$AAh?$AAe?$AA?9?$AAi?$AAl?$AA?$AA@ 0046ae84     LIBCMT:winapinls.obj
 0002:00008e90       ??_C@_1M@BBPHKFPJ@?$AAh?$AAi?$AA?9?$AAi?$AAn?$AA?$AA@ 0046ae90     LIBCMT:winapinls.obj
 0002:00008e9c       ??_C@_1M@PMBNDPHD@?$AAh?$AAr?$AA?9?$AAb?$AAa?$AA?$AA@ 0046ae9c     LIBCMT:winapinls.obj
 0002:00008ea8       ??_C@_1M@BPCKOEGE@?$AAh?$AAr?$AA?9?$AAh?$AAr?$AA?$AA@ 0046aea8     LIBCMT:winapinls.obj
 0002:00008eb4       ??_C@_1M@GACBMHKE@?$AAh?$AAu?$AA?9?$AAh?$AAu?$AA?$AA@ 0046aeb4     LIBCMT:winapinls.obj
 0002:00008ec0       ??_C@_1M@MILPAJJC@?$AAh?$AAy?$AA?9?$AAa?$AAm?$AA?$AA@ 0046aec0     LIBCMT:winapinls.obj
 0002:00008ecc       ??_C@_1M@BABBICEC@?$AAi?$AAd?$AA?9?$AAi?$AAd?$AA?$AA@ 0046aecc     LIBCMT:winapinls.obj
 0002:00008ed8       ??_C@_1M@BIKNHHPF@?$AAi?$AAs?$AA?9?$AAi?$AAs?$AA?$AA@ 0046aed8     LIBCMT:winapinls.obj
 0002:00008ee4       ??_C@_1M@NMPCJPHE@?$AAi?$AAt?$AA?9?$AAc?$AAh?$AA?$AA@ 0046aee4     LIBCMT:winapinls.obj
 0002:00008ef0       ??_C@_1M@GHKGFEDF@?$AAi?$AAt?$AA?9?$AAi?$AAt?$AA?$AA@ 0046aef0     LIBCMT:winapinls.obj
 0002:00008efc       ??_C@_1M@NIEJCJJA@?$AAj?$AAa?$AA?9?$AAj?$AAp?$AA?$AA@ 0046aefc     LIBCMT:winapinls.obj
 0002:00008f08       ??_C@_1M@JILFNBIM@?$AAk?$AAa?$AA?9?$AAg?$AAe?$AA?$AA@ 0046af08     LIBCMT:winapinls.obj
 0002:00008f14       ??_C@_1M@PACPMGPH@?$AAk?$AAk?$AA?9?$AAk?$AAz?$AA?$AA@ 0046af14     LIBCMT:winapinls.obj
 0002:00008f20       ??_C@_1M@IELFGMHA@?$AAk?$AAn?$AA?9?$AAi?$AAn?$AA?$AA@ 0046af20     LIBCMT:winapinls.obj
 0002:00008f2c       ??_C@_1O@IBBJHCH@?$AAk?$AAo?$AAk?$AA?9?$AAi?$AAn?$AA?$AA@ 0046af2c     LIBCMT:winapinls.obj
 0002:00008f3c       ??_C@_1M@DMHAEOGC@?$AAk?$AAo?$AA?9?$AAk?$AAr?$AA?$AA@ 0046af3c     LIBCMT:winapinls.obj
 0002:00008f48       ??_C@_1M@HBAHBIGA@?$AAk?$AAy?$AA?9?$AAk?$AAg?$AA?$AA@ 0046af48     LIBCMT:winapinls.obj
 0002:00008f54       ??_C@_1M@KPMILCJG@?$AAl?$AAt?$AA?9?$AAl?$AAt?$AA?$AA@ 0046af54     LIBCMT:winapinls.obj
 0002:00008f60       ??_C@_1M@BDEKKCA@?$AAl?$AAv?$AA?9?$AAl?$AAv?$AA?$AA@ 0046af60     LIBCMT:winapinls.obj
 0002:00008f6c       ??_C@_1M@ELCKCCJJ@?$AAm?$AAi?$AA?9?$AAn?$AAz?$AA?$AA@ 0046af6c     LIBCMT:winapinls.obj
 0002:00008f78       ??_C@_1M@CBOOLAPA@?$AAm?$AAk?$AA?9?$AAm?$AAk?$AA?$AA@ 0046af78     LIBCMT:winapinls.obj
 0002:00008f84       ??_C@_1M@GPHNBJKN@?$AAm?$AAl?$AA?9?$AAi?$AAn?$AA?$AA@ 0046af84     LIBCMT:winapinls.obj
 0002:00008f90       ??_C@_1M@PABJILIG@?$AAm?$AAn?$AA?9?$AAm?$AAn?$AA?$AA@ 0046af90     LIBCMT:winapinls.obj
 0002:00008f9c       ??_C@_1M@FGBKKIPG@?$AAm?$AAr?$AA?9?$AAi?$AAn?$AA?$AA@ 0046af9c     LIBCMT:winapinls.obj
 0002:00008fa8       ??_C@_1M@NDBPDDAL@?$AAm?$AAs?$AA?9?$AAb?$AAn?$AA?$AA@ 0046afa8     LIBCMT:winapinls.obj
 0002:00008fb4       ??_C@_1M@OPIHOOPI@?$AAm?$AAs?$AA?9?$AAm?$AAy?$AA?$AA@ 0046afb4     LIBCMT:winapinls.obj
 0002:00008fc0       ??_C@_1M@PPDBCNFM@?$AAm?$AAt?$AA?9?$AAm?$AAt?$AA?$AA@ 0046afc0     LIBCMT:winapinls.obj
 0002:00008fcc       ??_C@_1M@KDJDKMDD@?$AAn?$AAb?$AA?9?$AAn?$AAo?$AA?$AA@ 0046afcc     LIBCMT:winapinls.obj
 0002:00008fd8       ??_C@_1M@KFCFLMJP@?$AAn?$AAl?$AA?9?$AAb?$AAe?$AA?$AA@ 0046afd8     LIBCMT:winapinls.obj
 0002:00008fe4       ??_C@_1M@KPOPDDGO@?$AAn?$AAl?$AA?9?$AAn?$AAl?$AA?$AA@ 0046afe4     LIBCMT:winapinls.obj
 0002:00008ff0       ??_C@_1M@LJKPEMLN@?$AAn?$AAn?$AA?9?$AAn?$AAo?$AA?$AA@ 0046aff0     LIBCMT:winapinls.obj
 0002:00008ffc       ??_C@_1M@BDGHHBFL@?$AAn?$AAs?$AA?9?$AAz?$AAa?$AA?$AA@ 0046affc     LIBCMT:winapinls.obj
 0002:00009008       ??_C@_1M@IDEHOAP@?$AAp?$AAa?$AA?9?$AAi?$AAn?$AA?$AA@ 0046b008     LIBCMT:winapinls.obj
 0002:00009014       ??_C@_1M@HDBKGOGH@?$AAp?$AAl?$AA?9?$AAp?$AAl?$AA?$AA@ 0046b014     LIBCMT:winapinls.obj
 0002:00009020       ??_C@_1M@LJLLCMEH@?$AAp?$AAt?$AA?9?$AAb?$AAr?$AA?$AA@ 0046b020     LIBCMT:winapinls.obj
 0002:0000902c       ??_C@_1M@NCMONAAL@?$AAp?$AAt?$AA?9?$AAp?$AAt?$AA?$AA@ 0046b02c     LIBCMT:winapinls.obj
 0002:00009038       ??_C@_1O@EAKMAJDN@?$AAq?$AAu?$AAz?$AA?9?$AAb?$AAo?$AA?$AA@ 0046b038     LIBCMT:winapinls.obj
 0002:00009048       ??_C@_1O@BHHPIGDN@?$AAq?$AAu?$AAz?$AA?9?$AAe?$AAc?$AA?$AA@ 0046b048     LIBCMT:winapinls.obj
 0002:00009058       ??_C@_1O@GBAPEKMJ@?$AAq?$AAu?$AAz?$AA?9?$AAp?$AAe?$AA?$AA@ 0046b058     LIBCMT:winapinls.obj
 0002:00009068       ??_C@_1M@CLGLEFBO@?$AAr?$AAo?$AA?9?$AAr?$AAo?$AA?$AA@ 0046b068     LIBCMT:winapinls.obj
 0002:00009074       ??_C@_1M@CEEDODME@?$AAr?$AAu?$AA?9?$AAr?$AAu?$AA?$AA@ 0046b074     LIBCMT:winapinls.obj
 0002:00009080       ??_C@_1M@HPKKKMPP@?$AAs?$AAa?$AA?9?$AAi?$AAn?$AA?$AA@ 0046b080     LIBCMT:winapinls.obj
 0002:0000908c       ??_C@_1M@BKMAIGOJ@?$AAs?$AAe?$AA?9?$AAf?$AAi?$AA?$AA@ 0046b08c     LIBCMT:winapinls.obj
 0002:00009098       ??_C@_1M@NDPIFLFI@?$AAs?$AAe?$AA?9?$AAn?$AAo?$AA?$AA@ 0046b098     LIBCMT:winapinls.obj
 0002:000090a4       ??_C@_1M@DANKKHJ@?$AAs?$AAe?$AA?9?$AAs?$AAe?$AA?$AA@ 0046b0a4     LIBCMT:winapinls.obj
 0002:000090b0       ??_C@_1M@PNBLONPJ@?$AAs?$AAk?$AA?9?$AAs?$AAk?$AA?$AA@ 0046b0b0     LIBCMT:winapinls.obj
 0002:000090bc       ??_C@_1M@LFMODOAL@?$AAs?$AAl?$AA?9?$AAs?$AAi?$AA?$AA@ 0046b0bc     LIBCMT:winapinls.obj
 0002:000090c8       ??_C@_1O@DFKOMPG@?$AAs?$AAm?$AAa?$AA?9?$AAn?$AAo?$AA?$AA@ 0046b0c8     LIBCMT:winapinls.obj
 0002:000090d8       ??_C@_1O@NDKPBNNH@?$AAs?$AAm?$AAa?$AA?9?$AAs?$AAe?$AA?$AA@ 0046b0d8     LIBCMT:winapinls.obj
 0002:000090e8       ??_C@_1O@PLLKBHAB@?$AAs?$AAm?$AAj?$AA?9?$AAn?$AAo?$AA?$AA@ 0046b0e8     LIBCMT:winapinls.obj
 0002:000090f8       ??_C@_1O@CLEPOGCA@?$AAs?$AAm?$AAj?$AA?9?$AAs?$AAe?$AA?$AA@ 0046b0f8     LIBCMT:winapinls.obj
 0002:00009108       ??_C@_1O@DLGJGKMK@?$AAs?$AAm?$AAn?$AA?9?$AAf?$AAi?$AA?$AA@ 0046b108     LIBCMT:winapinls.obj
 0002:00009118       ??_C@_1O@OJDJGAJC@?$AAs?$AAm?$AAs?$AA?9?$AAf?$AAi?$AA?$AA@ 0046b118     LIBCMT:winapinls.obj
 0002:00009128       ??_C@_1M@BOFOGHPB@?$AAs?$AAq?$AA?9?$AAa?$AAl?$AA?$AA@ 0046b128     LIBCMT:winapinls.obj
 0002:00009134       ??_C@_1BG@LJBBIPGB@?$AAs?$AAr?$AA?9?$AAb?$AAa?$AA?9?$AAc?$AAy?$AAr?$AAl?$AA?$AA@ 0046b134     LIBCMT:winapinls.obj
 0002:0000914c       ??_C@_1BG@JLBENFOE@?$AAs?$AAr?$AA?9?$AAb?$AAa?$AA?9?$AAl?$AAa?$AAt?$AAn?$AA?$AA@ 0046b14c     LIBCMT:winapinls.obj
 0002:00009164       ??_C@_1BG@KODPNHE@?$AAs?$AAr?$AA?9?$AAs?$AAp?$AA?9?$AAc?$AAy?$AAr?$AAl?$AA?$AA@ 0046b164     LIBCMT:winapinls.obj
 0002:0000917c       ??_C@_1BG@CIOGKHPB@?$AAs?$AAr?$AA?9?$AAs?$AAp?$AA?9?$AAl?$AAa?$AAt?$AAn?$AA?$AA@ 0046b17c     LIBCMT:winapinls.obj
 0002:00009194       ??_C@_1M@NGFJLMAC@?$AAs?$AAv?$AA?9?$AAf?$AAi?$AA?$AA@ 0046b194     LIBCMT:winapinls.obj
 0002:000091a0       ??_C@_1M@MPJEJAJC@?$AAs?$AAv?$AA?9?$AAs?$AAe?$AA?$AA@ 0046b1a0     LIBCMT:winapinls.obj
 0002:000091ac       ??_C@_1M@MPNDHLFK@?$AAs?$AAw?$AA?9?$AAk?$AAe?$AA?$AA@ 0046b1ac     LIBCMT:winapinls.obj
 0002:000091b8       ??_C@_1O@KOHBJJI@?$AAs?$AAy?$AAr?$AA?9?$AAs?$AAy?$AA?$AA@ 0046b1b8     LIBCMT:winapinls.obj
 0002:000091c8       ??_C@_1M@LDCEFHA@?$AAt?$AAa?$AA?9?$AAi?$AAn?$AA?$AA@ 0046b1c8     LIBCMT:winapinls.obj
 0002:000091d4       ??_C@_1M@CNJOFAK@?$AAt?$AAe?$AA?9?$AAi?$AAn?$AA?$AA@ 0046b1d4     LIBCMT:winapinls.obj
 0002:000091e0       ??_C@_1M@GNAECACD@?$AAt?$AAh?$AA?9?$AAt?$AAh?$AA?$AA@ 0046b1e0     LIBCMT:winapinls.obj
 0002:000091ec       ??_C@_1M@CHBIHOJO@?$AAt?$AAn?$AA?9?$AAz?$AAa?$AA?$AA@ 0046b1ec     LIBCMT:winapinls.obj
 0002:000091f8       ??_C@_1M@GCCMIGPJ@?$AAt?$AAr?$AA?9?$AAt?$AAr?$AA?$AA@ 0046b1f8     LIBCMT:winapinls.obj
 0002:00009204       ??_C@_1M@CELMCNBK@?$AAt?$AAt?$AA?9?$AAr?$AAu?$AA?$AA@ 0046b204     LIBCMT:winapinls.obj
 0002:00009210       ??_C@_1M@KLMCELGA@?$AAu?$AAk?$AA?9?$AAu?$AAa?$AA?$AA@ 0046b210     LIBCMT:winapinls.obj
 0002:0000921c       ??_C@_1M@EPAJJAJF@?$AAu?$AAr?$AA?9?$AAp?$AAk?$AA?$AA@ 0046b21c     LIBCMT:winapinls.obj
 0002:00009228       ??_C@_1BG@GEGPMCDJ@?$AAu?$AAz?$AA?9?$AAu?$AAz?$AA?9?$AAc?$AAy?$AAr?$AAl?$AA?$AA@ 0046b228     LIBCMT:winapinls.obj
 0002:00009240       ??_C@_1BG@EGGKJILM@?$AAu?$AAz?$AA?9?$AAu?$AAz?$AA?9?$AAl?$AAa?$AAt?$AAn?$AA?$AA@ 0046b240     LIBCMT:winapinls.obj
 0002:00009258       ??_C@_1M@GFOCLFF@?$AAv?$AAi?$AA?9?$AAv?$AAn?$AA?$AA@ 0046b258     LIBCMT:winapinls.obj
 0002:00009264       ??_C@_1M@CPAMEDFI@?$AAx?$AAh?$AA?9?$AAz?$AAa?$AA?$AA@ 0046b264     LIBCMT:winapinls.obj
 0002:00009270       ??_C@_1O@EBKIFIGN@?$AAz?$AAh?$AA?9?$AAc?$AAh?$AAs?$AA?$AA@ 0046b270     LIBCMT:winapinls.obj
 0002:00009280       ??_C@_1O@NMHPGANE@?$AAz?$AAh?$AA?9?$AAc?$AAh?$AAt?$AA?$AA@ 0046b280     LIBCMT:winapinls.obj
 0002:00009290       ??_C@_1M@LPINJOMC@?$AAz?$AAh?$AA?9?$AAc?$AAn?$AA?$AA@ 0046b290     LIBCMT:winapinls.obj
 0002:0000929c       ??_C@_1M@OCJEJODD@?$AAz?$AAh?$AA?9?$AAh?$AAk?$AA?$AA@ 0046b29c     LIBCMT:winapinls.obj
 0002:000092a8       ??_C@_1M@DNDLJINH@?$AAz?$AAh?$AA?9?$AAm?$AAo?$AA?$AA@ 0046b2a8     LIBCMT:winapinls.obj
 0002:000092b4       ??_C@_1M@MBFDNDND@?$AAz?$AAh?$AA?9?$AAs?$AAg?$AA?$AA@ 0046b2b4     LIBCMT:winapinls.obj
 0002:000092c0       ??_C@_1M@IMEPLEPE@?$AAz?$AAh?$AA?9?$AAt?$AAw?$AA?$AA@ 0046b2c0     LIBCMT:winapinls.obj
 0002:000092cc       ??_C@_1M@BBGHNHJP@?$AAz?$AAu?$AA?9?$AAz?$AAa?$AA?$AA@ 0046b2cc     LIBCMT:winapinls.obj
 0002:000092d8       ??_C@_06PGGFOGJG@1?$CDSNAN?$AA@ 0046b2d8     LIBCMT:x10fout.obj
 0002:000092e0       ??_C@_05PHHOCPM@1?$CDIND?$AA@ 0046b2e0     LIBCMT:x10fout.obj
 0002:000092e8       ??_C@_05DNEBIAHO@1?$CDINF?$AA@ 0046b2e8     LIBCMT:x10fout.obj
 0002:000092f0       ??_C@_06IMKFLFPG@1?$CDQNAN?$AA@ 0046b2f0     LIBCMT:x10fout.obj
 0002:000092f8       ??_C@_1BA@BALFACEM@?$AAC?$AAO?$AAN?$AAO?$AAU?$AAT?$AA$?$AA?$AA@ 0046b2f8     LIBCMT:initcon.obj
 0002:00009308       __load_config_used         0046b308     LIBCMT:loadcfg.obj
 0002:00009350       ??_R4FTII_VAR@@6B@         0046b350     profile.obj
 0002:00009364       ??_R3FTII_VAR@@8           0046b364     profile.obj
 0002:00009374       ??_R2FTII_VAR@@8           0046b374     profile.obj
 0002:0000937c       ??_R1A@?0A@EA@FTII_VAR@@8  0046b37c     profile.obj
 0002:00009398       ??_R4FTII_VAR_ARRAY@@6B@   0046b398     profile.obj
 0002:000093ac       ??_R3FTII_VAR_ARRAY@@8     0046b3ac     profile.obj
 0002:000093bc       ??_R2FTII_VAR_ARRAY@@8     0046b3bc     profile.obj
 0002:000093c8       ??_R1A@?0A@EA@FTII_VAR_ARRAY@@8 0046b3c8     profile.obj
 0002:000093e4       ??_R4WINDOW_CLASS@@6B@     0046b3e4     profile.obj
 0002:000093f8       ??_R3WINDOW_CLASS@@8       0046b3f8     profile.obj
 0002:00009408       ??_R2WINDOW_CLASS@@8       0046b408     profile.obj
 0002:00009410       ??_R1A@?0A@EA@WINDOW_CLASS@@8 0046b410     profile.obj
 0002:0000942c       ??_R4EDITOP_GRID_CLASS@@6B@ 0046b42c     editop.obj
 0002:00009440       ??_R3EDITOP_GRID_CLASS@@8  0046b440     editop.obj
 0002:00009450       ??_R2EDITOP_GRID_CLASS@@8  0046b450     editop.obj
 0002:0000945c       ??_R1A@?0A@EA@EDITOP_GRID_CLASS@@8 0046b45c     editop.obj
 0002:00009478       ??_R1A@?0A@EA@CUGCtrl@@8   0046b478     editop.obj
 0002:00009494       ??_R3CUGCtrl@@8            0046b494     editop.obj
 0002:000094a4       ??_R2CUGCtrl@@8            0046b4a4     editop.obj
 0002:000094ac       ??_R4GRID_CLASS@@6B@       0046b4ac     gridclas.obj
 0002:000094c0       ??_R3GRID_CLASS@@8         0046b4c0     gridclas.obj
 0002:000094d0       ??_R2GRID_CLASS@@8         0046b4d0     gridclas.obj
 0002:000094dc       ??_R1A@?0A@EA@GRID_CLASS@@8 0046b4dc     gridclas.obj
 0002:000094f8       ??_R4DATA_ARRAY_CLASS@@6B@ 0046b4f8     mplot.obj
 0002:0000950c       ??_R3DATA_ARRAY_CLASS@@8   0046b50c     mplot.obj
 0002:0000951c       ??_R2DATA_ARRAY_CLASS@@8   0046b51c     mplot.obj
 0002:00009524       ??_R1A@?0A@EA@DATA_ARRAY_CLASS@@8 0046b524     mplot.obj
 0002:00009540       ??_R4SINGLE_PLOT_CLASS@@6B@ 0046b540     mplot.obj
 0002:00009554       ??_R3SINGLE_PLOT_CLASS@@8  0046b554     mplot.obj
 0002:00009564       ??_R2SINGLE_PLOT_CLASS@@8  0046b564     mplot.obj
 0002:00009570       ??_R1A@?0A@EA@SINGLE_PLOT_CLASS@@8 0046b570     mplot.obj
 0002:0000958c       ??_R4PW_GRID_CLASS@@6B@    0046b58c     password.obj
 0002:000095a0       ??_R3PW_GRID_CLASS@@8      0046b5a0     password.obj
 0002:000095b0       ??_R2PW_GRID_CLASS@@8      0046b5b0     password.obj
 0002:000095bc       ??_R1A@?0A@EA@PW_GRID_CLASS@@8 0046b5bc     password.obj
 0002:000095d8       ??_R4INT32_ARRAY_CLASS@@6B@ 0046b5d8     tcconfig.obj
 0002:000095ec       ??_R3INT32_ARRAY_CLASS@@8  0046b5ec     tcconfig.obj
 0002:000095fc       ??_R2INT32_ARRAY_CLASS@@8  0046b5fc     tcconfig.obj
 0002:00009604       ??_R1A@?0A@EA@INT32_ARRAY_CLASS@@8 0046b604     tcconfig.obj
 0002:00009620       ??_R4SHOT_ARRAY_CLASS@@6B@ 0046b620     xaxis.obj
 0002:00009634       ??_R3SHOT_ARRAY_CLASS@@8   0046b634     xaxis.obj
 0002:00009644       ??_R2SHOT_ARRAY_CLASS@@8   0046b644     xaxis.obj
 0002:0000964c       ??_R1A@?0A@EA@SHOT_ARRAY_CLASS@@8 0046b64c     xaxis.obj
 0002:00009668       ??_R4X_AXIS_CLASS@@6B@     0046b668     xaxis.obj
 0002:0000967c       ??_R3X_AXIS_CLASS@@8       0046b67c     xaxis.obj
 0002:0000968c       ??_R2X_AXIS_CLASS@@8       0046b68c     xaxis.obj
 0002:00009698       ??_R1A@?0A@EA@X_AXIS_CLASS@@8 0046b698     xaxis.obj
 0002:000096b4       ??_R4FTII_ARRAY_DATA@@6B@  0046b6b4     v5subs:ftii_shot_data.obj
 0002:000096c8       ??_R3FTII_ARRAY_DATA@@8    0046b6c8     v5subs:ftii_shot_data.obj
 0002:000096d8       ??_R2FTII_ARRAY_DATA@@8    0046b6d8     v5subs:ftii_shot_data.obj
 0002:000096e0       ??_R1A@?0A@EA@FTII_ARRAY_DATA@@8 0046b6e0     v5subs:ftii_shot_data.obj
 0002:000096fc       ??_R4FTII_PROFILE@@6B@     0046b6fc     v5subs:ftii_shot_data.obj
 0002:00009710       ??_R3FTII_PROFILE@@8       0046b710     v5subs:ftii_shot_data.obj
 0002:00009720       ??_R2FTII_PROFILE@@8       0046b720     v5subs:ftii_shot_data.obj
 0002:0000972c       ??_R1A@?0A@EA@FTII_PROFILE@@8 0046b72c     v5subs:ftii_shot_data.obj
 0002:00009748       ??_R4CUGCtrl@@6B@          0046b748     dundas:ugctrl.obj
 0002:0000975c       ??_R4CUGCnrBtn@@6B@        0046b75c     dundas:ugcnrbtn.obj
 0002:00009770       ??_R3CUGCnrBtn@@8          0046b770     dundas:ugcnrbtn.obj
 0002:00009780       ??_R2CUGCnrBtn@@8          0046b780     dundas:ugcnrbtn.obj
 0002:00009788       ??_R1A@?0A@EA@CUGCnrBtn@@8 0046b788     dundas:ugcnrbtn.obj
 0002:000097a4       ??_R4CUGGrid@@6B@          0046b7a4     dundas:uggrid.obj
 0002:000097b8       ??_R3CUGGrid@@8            0046b7b8     dundas:uggrid.obj
 0002:000097c8       ??_R2CUGGrid@@8            0046b7c8     dundas:uggrid.obj
 0002:000097d0       ??_R1A@?0A@EA@CUGGrid@@8   0046b7d0     dundas:uggrid.obj
 0002:000097ec       ??_R4CUGHScroll@@6B@       0046b7ec     dundas:ughscrol.obj
 0002:00009800       ??_R3CUGHScroll@@8         0046b800     dundas:ughscrol.obj
 0002:00009810       ??_R2CUGHScroll@@8         0046b810     dundas:ughscrol.obj
 0002:00009818       ??_R1A@?0A@EA@CUGHScroll@@8 0046b818     dundas:ughscrol.obj
 0002:00009834       ??_R4CUGSideHdg@@6B@       0046b834     dundas:ugsidehd.obj
 0002:00009848       ??_R3CUGSideHdg@@8         0046b848     dundas:ugsidehd.obj
 0002:00009858       ??_R2CUGSideHdg@@8         0046b858     dundas:ugsidehd.obj
 0002:00009860       ??_R1A@?0A@EA@CUGSideHdg@@8 0046b860     dundas:ugsidehd.obj
 0002:0000987c       ??_R4CUGTopHdg@@6B@        0046b87c     dundas:ugtophdg.obj
 0002:00009890       ??_R3CUGTopHdg@@8          0046b890     dundas:ugtophdg.obj
 0002:000098a0       ??_R2CUGTopHdg@@8          0046b8a0     dundas:ugtophdg.obj
 0002:000098a8       ??_R1A@?0A@EA@CUGTopHdg@@8 0046b8a8     dundas:ugtophdg.obj
 0002:000098c4       ??_R4CUGVScroll@@6B@       0046b8c4     dundas:ugvscrol.obj
 0002:000098d8       ??_R3CUGVScroll@@8         0046b8d8     dundas:ugvscrol.obj
 0002:000098e8       ??_R2CUGVScroll@@8         0046b8e8     dundas:ugvscrol.obj
 0002:000098f0       ??_R1A@?0A@EA@CUGVScroll@@8 0046b8f0     dundas:ugvscrol.obj
 0002:0000990c       ??_R4CUGDataSource@@6B@    0046b90c     dundas:ugdtasrc.obj
 0002:00009920       ??_R3CUGDataSource@@8      0046b920     dundas:ugdtasrc.obj
 0002:00009930       ??_R2CUGDataSource@@8      0046b930     dundas:ugdtasrc.obj
 0002:00009938       ??_R1A@?0A@EA@CUGDataSource@@8 0046b938     dundas:ugdtasrc.obj
 0002:00009954       ??_R4CUGCellType@@6B@      0046b954     dundas:ugceltyp.obj
 0002:00009968       ??_R3CUGCellType@@8        0046b968     dundas:ugceltyp.obj
 0002:00009978       ??_R2CUGCellType@@8        0046b978     dundas:ugceltyp.obj
 0002:00009980       ??_R1A@?0A@EA@CUGCellType@@8 0046b980     dundas:ugceltyp.obj
 0002:0000999c       ??_R4CUGEdit@@6B@          0046b99c     dundas:ugedit.obj
 0002:000099b0       ??_R3CUGEdit@@8            0046b9b0     dundas:ugedit.obj
 0002:000099c0       ??_R2CUGEdit@@8            0046b9c0     dundas:ugedit.obj
 0002:000099c8       ??_R1A@?0A@EA@CUGEdit@@8   0046b9c8     dundas:ugedit.obj
 0002:000099e4       ??_R4CUGTab@@6B@           0046b9e4     dundas:ugtab.obj
 0002:000099f8       ??_R3CUGTab@@8             0046b9f8     dundas:ugtab.obj
 0002:00009a08       ??_R2CUGTab@@8             0046ba08     dundas:ugtab.obj
 0002:00009a10       ??_R1A@?0A@EA@CUGTab@@8    0046ba10     dundas:ugtab.obj
 0002:00009a2c       ??_R4CUGGridInfo@@6B@      0046ba2c     dundas:uggdinfo.obj
 0002:00009a40       ??_R3CUGGridInfo@@8        0046ba40     dundas:uggdinfo.obj
 0002:00009a50       ??_R2CUGGridInfo@@8        0046ba50     dundas:uggdinfo.obj
 0002:00009a58       ??_R1A@?0A@EA@CUGGridInfo@@8 0046ba58     dundas:uggdinfo.obj
 0002:00009a74       ??_R4CUGHint@@6B@          0046ba74     dundas:ughint.obj
 0002:00009a88       ??_R3CUGHint@@8            0046ba88     dundas:ughint.obj
 0002:00009a98       ??_R2CUGHint@@8            0046ba98     dundas:ughint.obj
 0002:00009aa0       ??_R1A@?0A@EA@CUGHint@@8   0046baa0     dundas:ughint.obj
 0002:00009abc       ??_R4CUGDropListType@@6B@  0046babc     dundas:ugdltype.obj
 0002:00009ad0       ??_R3CUGDropListType@@8    0046bad0     dundas:ugdltype.obj
 0002:00009ae0       ??_R2CUGDropListType@@8    0046bae0     dundas:ugdltype.obj
 0002:00009aec       ??_R1A@?0A@EA@CUGDropListType@@8 0046baec     dundas:ugdltype.obj
 0002:00009b08       ??_R4CUGArrowType@@6B@     0046bb08     dundas:ugctarrw.obj
 0002:00009b1c       ??_R3CUGArrowType@@8       0046bb1c     dundas:ugctarrw.obj
 0002:00009b2c       ??_R2CUGArrowType@@8       0046bb2c     dundas:ugctarrw.obj
 0002:00009b38       ??_R1A@?0A@EA@CUGArrowType@@8 0046bb38     dundas:ugctarrw.obj
 0002:00009b54       ??_R4CUGMem@@6B@           0046bb54     dundas:ugmemman.obj
 0002:00009b68       ??_R3CUGMem@@8             0046bb68     dundas:ugmemman.obj
 0002:00009b78       ??_R2CUGMem@@8             0046bb78     dundas:ugmemman.obj
 0002:00009b84       ??_R1A@?0A@EA@CUGMem@@8    0046bb84     dundas:ugmemman.obj
 0002:00009ba0       ??_R4CUGLstBox@@6B@        0046bba0     dundas:uglstbox.obj
 0002:00009bb4       ??_R3CUGLstBox@@8          0046bbb4     dundas:uglstbox.obj
 0002:00009bc4       ??_R2CUGLstBox@@8          0046bbc4     dundas:uglstbox.obj
 0002:00009bcc       ??_R1A@?0A@EA@CUGLstBox@@8 0046bbcc     dundas:uglstbox.obj
 0002:00009be8       ??_R1A@?0A@EA@exception@std@@8 0046bbe8     LIBCMT:new.obj
 0002:00009c04       ??_R3exception@std@@8      0046bc04     LIBCMT:new.obj
 0002:00009c14       ??_R2exception@std@@8      0046bc14     LIBCMT:new.obj
 0002:00009c1c       ??_R4bad_alloc@std@@6B@    0046bc1c     LIBCMT:new.obj
 0002:00009c30       ??_R3bad_alloc@std@@8      0046bc30     LIBCMT:new.obj
 0002:00009c40       ??_R2bad_alloc@std@@8      0046bc40     LIBCMT:new.obj
 0002:00009c4c       ??_R1A@?0A@EA@bad_alloc@std@@8 0046bc4c     LIBCMT:new.obj
 0002:00009c68       ??_R4type_info@@6B@        0046bc68     LIBCMT:typinfo.obj
 0002:00009c7c       ??_R3type_info@@8          0046bc7c     LIBCMT:typinfo.obj
 0002:00009c8c       ??_R2type_info@@8          0046bc8c     LIBCMT:typinfo.obj
 0002:00009c94       ??_R1A@?0A@EA@type_info@@8 0046bc94     LIBCMT:typinfo.obj
 0002:00009cb0       ??_R4exception@std@@6B@    0046bcb0     LIBCMT:stdexcpt.obj
 0002:00009cd0       ___safe_se_handler_table   0046bcd0     <linker-defined>
 0002:00009cdc       ___rtc_iaa                 0046bcdc     LIBCMT:initsect.obj
 0002:00009ce0       ___rtc_izz                 0046bce0     LIBCMT:initsect.obj
 0002:00009ce4       ___rtc_taa                 0046bce4     LIBCMT:initsect.obj
 0002:00009ce8       ___rtc_tzz                 0046bce8     LIBCMT:initsect.obj
 0002:00009cf0       __TI2?AVbad_alloc@std@@    0046bcf0     LIBCMT:new.obj
 0002:00009d00       __CTA2?AVbad_alloc@std@@   0046bd00     LIBCMT:new.obj
 0002:00009d0c       __CT??_R0?AVbad_alloc@std@@@8??0bad_alloc@std@@QAE@ABV01@@Z12 0046bd0c     LIBCMT:new.obj
 0002:00009d28       __CT??_R0?AVexception@std@@@8??0exception@std@@QAE@ABV01@@Z12 0046bd28     LIBCMT:new.obj
 0002:0000a03c       __IMPORT_DESCRIPTOR_KERNEL32 0046c03c     kernel32:KERNEL32.dll
 0002:0000a050       __IMPORT_DESCRIPTOR_USER32 0046c050     user32:USER32.dll
 0002:0000a064       __IMPORT_DESCRIPTOR_GDI32  0046c064     gdi32:GDI32.dll
 0002:0000a078       __IMPORT_DESCRIPTOR_WINSPOOL 0046c078     winspool:WINSPOOL.DRV
 0002:0000a08c       __IMPORT_DESCRIPTOR_COMDLG32 0046c08c     comdlg32:COMDLG32.dll
 0002:0000a0a0       __IMPORT_DESCRIPTOR_COMCTL32 0046c0a0     comctl32:COMCTL32.dll
 0002:0000a0b4       __IMPORT_DESCRIPTOR_SHELL32 0046c0b4     shell32:SHELL32.dll
 0002:0000a0c8       __NULL_IMPORT_DESCRIPTOR   0046c0c8     kernel32:KERNEL32.dll
 0003:00000000       ?MyScreenType@@3FA         0046e000     profile.obj
 0003:00000003       ?AChar@@3DA                0046e003     profile.obj
 0003:00000006       ?BChar@@3DA                0046e006     profile.obj
 0003:00000007       ?CChar@@3DA                0046e007     profile.obj
 0003:0000001a       ?DChar@@3DA                0046e01a     profile.obj
 0003:0000001b       ?EChar@@3DA                0046e01b     profile.obj
 0003:0000001e       ?FChar@@3DA                0046e01e     profile.obj
 0003:0000001f       ?GChar@@3DA                0046e01f     profile.obj
 0003:00000023       ?HChar@@3DA                0046e023     profile.obj
 0003:00000032       ?IChar@@3DA                0046e032     profile.obj
 0003:00000033       ?JChar@@3DA                0046e033     profile.obj
 0003:00000034       ?UnknownString@@3PADA      0046e034     profile.obj
 0003:0000003c       ?NofX4PointsToBackup@@3HA  0046e03c     profile.obj
 0003:00000040       ?KChar@@3DA                0046e040     profile.obj
 0003:00000041       ?LChar@@3DA                0046e041     profile.obj
 0003:00000042       ?MChar@@3DA                0046e042     profile.obj
 0003:00000043       ?NChar@@3DA                0046e043     profile.obj
 0003:00000044       ?OChar@@3DA                0046e044     profile.obj
 0003:00000045       ?PChar@@3DA                0046e045     profile.obj
 0003:00000046       ?QChar@@3DA                0046e046     profile.obj
 0003:00000047       ?RChar@@3DA                0046e047     profile.obj
 0003:00000048       ?SChar@@3DA                0046e048     profile.obj
 0003:00000049       ?TChar@@3DA                0046e049     profile.obj
 0003:0000004a       ?UChar@@3DA                0046e04a     profile.obj
 0003:0000004b       ?VChar@@3DA                0046e04b     profile.obj
 0003:0000004c       ?WChar@@3DA                0046e04c     profile.obj
 0003:0000004d       ?XChar@@3DA                0046e04d     profile.obj
 0003:0000004e       ?YChar@@3DA                0046e04e     profile.obj
 0003:0000004f       ?ZChar@@3DA                0046e04f     profile.obj
 0003:00000050       ?ACharLow@@3DA             0046e050     profile.obj
 0003:00000051       ?BCharLow@@3DA             0046e051     profile.obj
 0003:00000052       ?CCharLow@@3DA             0046e052     profile.obj
 0003:00000053       ?DCharLow@@3DA             0046e053     profile.obj
 0003:00000054       ?ECharLow@@3DA             0046e054     profile.obj
 0003:00000055       ?FCharLow@@3DA             0046e055     profile.obj
 0003:00000056       ?GCharLow@@3DA             0046e056     profile.obj
 0003:00000057       ?HCharLow@@3DA             0046e057     profile.obj
 0003:00000058       ?ICharLow@@3DA             0046e058     profile.obj
 0003:00000059       ?JCharLow@@3DA             0046e059     profile.obj
 0003:0000005a       ?KCharLow@@3DA             0046e05a     profile.obj
 0003:0000005b       ?LCharLow@@3DA             0046e05b     profile.obj
 0003:0000005c       ?MCharLow@@3DA             0046e05c     profile.obj
 0003:0000005d       ?NCharLow@@3DA             0046e05d     profile.obj
 0003:0000005e       ?OCharLow@@3DA             0046e05e     profile.obj
 0003:0000005f       ?PCharLow@@3DA             0046e05f     profile.obj
 0003:00000060       ?QCharLow@@3DA             0046e060     profile.obj
 0003:00000061       ?RCharLow@@3DA             0046e061     profile.obj
 0003:00000062       ?SCharLow@@3DA             0046e062     profile.obj
 0003:00000063       ?TCharLow@@3DA             0046e063     profile.obj
 0003:00000064       ?UCharLow@@3DA             0046e064     profile.obj
 0003:00000065       ?VCharLow@@3DA             0046e065     profile.obj
 0003:00000066       ?WCharLow@@3DA             0046e066     profile.obj
 0003:00000067       ?XCharLow@@3DA             0046e067     profile.obj
 0003:00000068       ?YCharLow@@3DA             0046e068     profile.obj
 0003:00000069       ?ZCharLow@@3DA             0046e069     profile.obj
 0003:0000006a       ?AsterixChar@@3DA          0046e06a     profile.obj
 0003:0000006b       ?BackSlashChar@@3DA        0046e06b     profile.obj
 0003:0000006c       ?CaretChar@@3DA            0046e06c     profile.obj
 0003:0000006d       ?CloseParen@@3DA           0046e06d     profile.obj
 0003:0000006e       ?ColonChar@@3DA            0046e06e     profile.obj
 0003:0000006f       ?CommaChar@@3DA            0046e06f     profile.obj
 0003:00000070       ?CrChar@@3DA               0046e070     profile.obj
 0003:00000071       ?DoubleQuoteChar@@3DA      0046e071     profile.obj
 0003:00000072       ?EqualsChar@@3DA           0046e072     profile.obj
 0003:00000073       ?EtxChar@@3DA              0046e073     profile.obj
 0003:00000074       ?ForwardSlashChar@@3DA     0046e074     profile.obj
 0003:00000075       ?LeftBracketChar@@3DA      0046e075     profile.obj
 0003:00000076       ?LeftCurlyBracket@@3DA     0046e076     profile.obj
 0003:00000077       ?LeftParen@@3DA            0046e077     profile.obj
 0003:00000078       ?LfChar@@3DA               0046e078     profile.obj
 0003:00000079       ?MinusChar@@3DA            0046e079     profile.obj
 0003:0000007a       ?OpenParen@@3DA            0046e07a     profile.obj
 0003:0000007b       ?PercentChar@@3DA          0046e07b     profile.obj
 0003:0000007c       ?PeriodChar@@3DA           0046e07c     profile.obj
 0003:0000007d       ?PlusChar@@3DA             0046e07d     profile.obj
 0003:0000007e       ?PoundChar@@3DA            0046e07e     profile.obj
 0003:0000007f       ?QuoteChar@@3DA            0046e07f     profile.obj
 0003:00000080       ?RightBracketChar@@3DA     0046e080     profile.obj
 0003:00000081       ?RightCurlyBracket@@3DA    0046e081     profile.obj
 0003:00000082       ?RightParen@@3DA           0046e082     profile.obj
 0003:00000083       ?SemiColonChar@@3DA        0046e083     profile.obj
 0003:00000084       ?SpaceChar@@3DA            0046e084     profile.obj
 0003:00000085       ?TabChar@@3DA              0046e085     profile.obj
 0003:00000086       ?TildaChar@@3DA            0046e086     profile.obj
 0003:00000087       ?UnderScoreChar@@3DA       0046e087     profile.obj
 0003:00000088       ?ZeroChar@@3DA             0046e088     profile.obj
 0003:00000089       ?OneChar@@3DA              0046e089     profile.obj
 0003:0000008a       ?TwoChar@@3DA              0046e08a     profile.obj
 0003:0000008b       ?ThreeChar@@3DA            0046e08b     profile.obj
 0003:0000008c       ?FourChar@@3DA             0046e08c     profile.obj
 0003:0000008d       ?FiveChar@@3DA             0046e08d     profile.obj
 0003:0000008e       ?SixChar@@3DA              0046e08e     profile.obj
 0003:0000008f       ?SevenChar@@3DA            0046e08f     profile.obj
 0003:00000090       ?DateString@@3PADA         0046e090     profile.obj
 0003:000000aa       ?StxChar@@3DA              0046e0aa     profile.obj
 0003:000000ab       ?EightChar@@3DA            0046e0ab     profile.obj
 0003:000000ac       ?AlarmColor@@3KA           0046e0ac     profile.obj
 0003:000000b0       ?NineChar@@3DA             0046e0b0     profile.obj
 0003:000000b1       ?IsPressureDisplay@@3EA    0046e0b1     profile.obj
 0003:000000b2       ?SnapshotIsActive@@3EA     0046e0b2     profile.obj
 0003:000000b3       ?HaveNewXdcrPart@@3_NA     0046e0b3     profile.obj
 0003:000000b4       ?AsterixString@@3PADA      0046e0b4     profile.obj
 0003:000000b8       ?CommaString@@3PADA        0046e0b8     profile.obj
 0003:000000bc       ?NoAlarmColor@@3KA         0046e0bc     profile.obj
 0003:000000c0       ?CrLfString@@3PADA         0046e0c0     profile.obj
 0003:000000c4       ?SpaceString@@3PADA        0046e0c4     profile.obj
 0003:000000c8       ?StarDotStar@@3PADA        0046e0c8     profile.obj
 0003:000000cc       ?ZeroPointZero@@3PADA      0046e0cc     profile.obj
 0003:000000d0       ?WarningColor@@3KA         0046e0d0     profile.obj
 0003:000000d4       ?NormalColor@@3PAKA        0046e0d4     profile.obj
 0003:00000108       ?NofItems@@3HA             0046e108     profile.obj
 0003:0000010c       ?ReferenceColor@@3PAKA     0046e10c     profile.obj
 0003:00000140       ?ItemList@@3PAUITEM_ENTRY@@A 0046e140     profile.obj
 0003:00000374       ?PrNormalColor@@3PAKA      0046e374     profile.obj
 0003:000003a8       ?PrReferenceColor@@3PAKA   0046e3a8     profile.obj
 0003:000003dc       ?CurrentColor@@3PAKA       0046e3dc     profile.obj
 0003:000003e0       ?CurvePenWidth@@3HA        0046e3e0     profile.obj
 0003:000003e4       ?HistoryShotCount@@3FA     0046e3e4     profile.obj
 0003:000003e8       ?EditStatusScreenLevel@@3FA 0046e3e8     profile.obj
 0003:000003ec       ?ShotparmLogFile@@3PADA    0046e3ec     profile.obj
 0003:00000404       ?DisplayIniFile@@3PADA     0046e404     profile.obj
 0003:00000410       ?EditPartIniFile@@3PADA    0046e410     profile.obj
 0003:00000420       ?EmachineIniFile@@3PADA    0046e420     profile.obj
 0003:00000430       ?MonallIniFile@@3PADA      0046e430     profile.obj
 0003:0000043c       ?MonallProgramName@@3PADA  0046e43c     profile.obj
 0003:00000448       ?SureTrakIniFile@@3PADA    0046e448     profile.obj
 0003:00000458       ?VisiTrakIniFile@@3PADA    0046e458     profile.obj
 0003:00000468       ?BackupSection@@3PADA      0046e468     profile.obj
 0003:00000470       ?ButtonLevelsSection@@3PADA 0046e470     profile.obj
 0003:00000480       ?ConfigSection@@3PADA      0046e480     profile.obj
 0003:00000488       ?MultipartSetupSection@@3PADA 0046e488     profile.obj
 0003:00000494       ?ChangeExternalShotNameLevelKey@@3PADA 0046e494     profile.obj
 0003:000004b0       ?ChangeShotNameLevelKey@@3PADA 0046e4b0     profile.obj
 0003:000004c4       ?ChangeShotResetLevelKey@@3PADA 0046e4c4     profile.obj
 0003:000004dc       ?ClearAlarmsEachShotKey@@3PADA 0046e4dc     profile.obj
 0003:000004f0       ?ClearDownWireFromPopupKey@@3PADA 0046e4f0     profile.obj
 0003:00000508       ?ClearMonitorWireOnDownKey@@3PADA 0046e508     profile.obj
 0003:00000520       ?CsvShotFileNameKey@@3PADA 0046e520     profile.obj
 0003:00000530       ?CsvShotFileTypeKey@@3PADA 0046e530     profile.obj
 0003:00000540       ?CsvUseShotNumberKey@@3PADA 0046e540     profile.obj
 0003:00000554       ?CurrentLanguageKey@@3PADA 0046e554     profile.obj
 0003:00000564       ?CurvePenWidthKey@@3PADA   0046e564     profile.obj
 0003:00000574       ?DisplaySecondsKey@@3PADA  0046e574     profile.obj
 0003:00000584       ?DownTimeAlarmWireKey@@3PADA 0046e584     profile.obj
 0003:00000598       ?DowntimePurgeButtonKey@@3PADA 0046e598     profile.obj
 0003:000005ac       ?EditMaOnOtherCoKey@@3PADA 0046e5ac     profile.obj
 0003:000005c4       ?EditOperatorsButtonKey@@3PADA 0046e5c4     profile.obj
 0003:000005d8       ?EditOtherComputerKey@@3PADA 0046e5d8     profile.obj
 0003:000005f0       ?EditOtherCurrentPartKey@@3PADA 0046e5f0     profile.obj
 0003:0000060c       ?EditOtherCurrentSuretrakKey@@3PADA 0046e60c     profile.obj
 0003:0000062c       ?EditOtherSuretrakKey@@3PADA 0046e62c     profile.obj
 0003:00000644       ?EditPressureSetupLevelKey@@3PADA 0046e644     profile.obj
 0003:0000065c       ?EditPressureProfileLevelKey@@3PADA 0046e65c     profile.obj
 0003:00000678       ?EditStatusSceenLevelKey@@3PADA 0046e678     profile.obj
 0003:00000690       ?Ft2F10LevelKey@@3PADA     0046e690     profile.obj
 0003:0000069c       ?Ft2F2LevelKey@@3PADA      0046e69c     profile.obj
 0003:000006a8       ?Ft2F3LevelKey@@3PADA      0046e6a8     profile.obj
 0003:000006b4       ?Ft2F4LevelKey@@3PADA      0046e6b4     profile.obj
 0003:000006c0       ?Ft2F5LevelKey@@3PADA      0046e6c0     profile.obj
 0003:000006cc       ?Ft2F6LevelKey@@3PADA      0046e6cc     profile.obj
 0003:000006d8       ?Ft2F7LevelKey@@3PADA      0046e6d8     profile.obj
 0003:000006e4       ?Ft2F8LevelKey@@3PADA      0046e6e4     profile.obj
 0003:000006f0       ?Ft2F9LevelKey@@3PADA      0046e6f0     profile.obj
 0003:000006fc       ?Ft2StartScreenKey@@3PADA  0046e6fc     profile.obj
 0003:0000070c       ?HaveTouchScreenKey@@3PADA 0046e70c     profile.obj
 0003:0000071c       ?HaveSureTrakKey@@3PADA    0046e71c     profile.obj
 0003:0000072c       ?HideSureTrakLimitSwitchWiresKey@@3PADA 0046e72c     profile.obj
 0003:0000074c       ?HighLimitTypeKey@@3PADA   0046e74c     profile.obj
 0003:0000075c       ?LastMachineKey@@3PADA     0046e75c     profile.obj
 0003:00000768       ?LastPartKey@@3PADA        0046e768     profile.obj
 0003:00000774       ?LastShotKey@@3PADA        0046e774     profile.obj
 0003:00000780       ?LoadNetworkedMachinesKey@@3PADA 0046e780     profile.obj
 0003:00000798       ?LockOnAlarmKey@@3PADA     0046e798     profile.obj
 0003:000007a4       ?LogShotparmAccessKey@@3PADA 0046e7a4     profile.obj
 0003:000007b8       ?LowLimitTypeKey@@3PADA    0046e7b8     profile.obj
 0003:000007c8       ?MachineBasedPlotDisplayKey@@3PADA 0046e7c8     profile.obj
 0003:000007e0       ?MainFontNameKey@@3PADA    0046e7e0     profile.obj
 0003:000007f0       ?MonitorWireKey@@3PADA     0046e7f0     profile.obj
 0003:000007fc       ?MultipartBaseWireKey@@3PADA 0046e7fc     profile.obj
 0003:00000804       ?NoNetworkKey@@3PADA       0046e804     profile.obj
 0003:00000810       ?ParameterTabEditLevelKey@@3PADA 0046e810     profile.obj
 0003:00000828       ?ParameterWindowFontKey@@3PADA 0046e828     profile.obj
 0003:0000083c       ?PasswordLevelTimeoutKey@@3PADA 0046e83c     profile.obj
 0003:00000854       ?PasswordsAreEncriptedKey@@3PADA 0046e854     profile.obj
 0003:00000868       ?PartBasedDisplayKey@@3PADA 0046e868     profile.obj
 0003:0000087c       ?PrintParametersKey@@3PADA 0046e87c     profile.obj
 0003:0000088c       ?SaveAllPartsLevelKey@@3PADA 0046e88c     profile.obj
 0003:000008a0       ?SaveAllAlarmShotsKey@@3PADA 0046e8a0     profile.obj
 0003:000008b4       ?SaveChangesLevelKey@@3PADA 0046e8b4     profile.obj
 0003:000008c8       ?SerialNumberKey@@3PADA    0046e8c8     profile.obj
 0003:000008d8       ?ServiceToolsGrayLevelKey@@3PADA 0046e8d8     profile.obj
 0003:000008f0       ?SetupSheetLevelKey@@3PADA 0046e8f0     profile.obj
 0003:00000900       ?ShowX1PointsOnlyKey@@3PADA 0046e900     profile.obj
 0003:00000914       ?ShowSetupSheetKey@@3PADA  0046e914     profile.obj
 0003:00000924       ?ShowWorkerKey@@3PADA      0046e924     profile.obj
 0003:00000930       ?SmoothFactorKey@@3PADA    0046e930     profile.obj
 0003:00000940       ?SmoothNKey@@3PADA         0046e940     profile.obj
 0003:00000948       ?SmoothCurvesKey@@3PADA    0046e948     profile.obj
 0003:00000958       ?SnapshotKey@@3PADA        0046e958     profile.obj
 0003:0000096c       ?SubtractTimeoutKey@@3PADA 0046e96c     profile.obj
 0003:0000097c       ?TurnOffAlarmsOnDownKey@@3PADA 0046e97c     profile.obj
 0003:00000990       ?UseDowntimeEntryKey@@3PADA 0046e990     profile.obj
 0003:000009a4       ?UseValveTestOutputKey@@3PADA 0046e9a4     profile.obj
 0003:000009b8       ?UseNullValveOutputKey@@3PADA 0046e9b8     profile.obj
 0003:000009cc       ?VelocityChangesLevelKey@@3PADA 0046e9cc     profile.obj
 0003:000009e4       ?VersionKey@@3PADA         0046e9e4     profile.obj
 0003:000009ec       ?XKeyTogglesX1X4Key@@3PADA 0046e9ec     profile.obj
 0003:000009fc       ?LOAD_MAIN_MENU_REQ@@3IA   0046e9fc     profile.obj
 0003:00000a00       ?SCREEN_REFRESH_REQ@@3IA   0046ea00     profile.obj
 0003:00000a04       ?PASSWORD_DIALOG_REQ@@3IA  0046ea04     profile.obj
 0003:00000a08       ?EDIT_PASSWORDS_DIALOG_REQ@@3IA 0046ea08     profile.obj
 0003:00000a0c       ?CO_OPTIONS_DIALOG_REQ@@3IA 0046ea0c     profile.obj
 0003:00000a14       ?HighLimitType@@3HA        0046ea14     profile.obj
 0003:00000a18       ?AccelName@@3PADA          0046ea18     profile.obj
 0003:00000a2c       ?NofColumns@@3HA           0046ea2c     profile.obj
 0003:00000a30       ?CurrentDisplay@@3HA       0046ea30     profile.obj
 0003:00000a34       ?LastPosDisplay@@3HA       0046ea34     profile.obj
 0003:00000a50       ?MyClassName@@3PADA        0046ea50     profile.obj
 0003:00000a5c       ?MyWindowTitle@@3PADA      0046ea5c     profile.obj
 0003:00000a64       ?CommonResourceFile@@3PADA 0046ea64     profile.obj
 0003:00000a6c       ?MainMenuWindowName@@3PADA 0046ea6c     profile.obj
 0003:00000a7c       ?MainPlotWindowClass@@3PADA 0046ea7c     profile.obj
 0003:00000a8c       ?ParameterWindowClassName@@3PADA 0046ea8c     profile.obj
 0003:00000aa4       ?PopupMenuWindowName@@3PADA 0046eaa4     profile.obj
 0003:00000ab4       ?ProfileMenuFile@@3PADA    0046eab4     profile.obj
 0003:00000ac0       ?ProfileResourceFile@@3PADA 0046eac0     profile.obj
 0003:00000ac8       ?XdcrWindowClass@@3PADA    0046eac8     profile.obj
 0003:00000ad8       ?DefaultArialFontName@@3PADA 0046ead8     profile.obj
 0003:00000ae0       ?DefaultArialBoldFontName@@3PADA 0046eae0     profile.obj
 0003:00000aec       ?DefaultTimesRomanFontName@@3PADA 0046eaec     profile.obj
 0003:00000afc       ?MainHelpFileName@@3PADA   0046eafc     profile.obj
 0003:00000b08       ?CpkHelpFileName@@3PADA    0046eb08     profile.obj
 0003:00000b10       ?ToolsHelpFileName@@3PADA  0046eb10     profile.obj
 0003:00000b20       ?XdcrWindow@@3VWINDOW_CLASS@@A 0046eb20     profile.obj
 0003:0000187c       ?ShotListboxId@@3HA        0046f87c     chosshot.obj
 0003:00001de8       ?TotalHours@@3NA           0046fde8     downbar.obj
 0003:00002020       ?Top_Edge@@3HA             00470020     paramhis.obj
 0003:0000202c       ?CurrentHistorySelect@@3HA 0047002c     paramhis.obj
 0003:00002030       ?CurrentShotRow@@3HA       00470030     paramhis.obj
 0003:00002038       ?LineHeight@@3HA           00470038     paramwin.obj
 0003:0000281c       ?n_per_sample@STAT_ENTRY@@0JA 0047081c     trend.obj
 0003:00002820       ?Parameters@@3VINT32_ARRAY_CLASS@@A 00470820     trend.obj
 0003:0000289c       ?Xdcr_Chan_A_Color@@3KA    0047089c     xdcrplot.obj
 0003:000028a0       ?Xdcr_Chan_B_Color@@3KA    004708a0     xdcrplot.obj
 0003:000028a4       ?Xdcr_BG_Color@@3KA        004708a4     xdcrplot.obj
 0003:000028a8       ?Xdcr_Grid_Color@@3KA      004708a8     xdcrplot.obj
 0003:000028ac       ?CurrentPosIndex@@3HA      004708ac     xdcrplot.obj
 0003:0000296c       ?FileTimeoutError@@3PADA   0047096c     v5subs:dbsubs.obj
 0003:00002980       ?FileNotFoundError@@3PADA  00470980     v5subs:dbsubs.obj
 0003:00002990       ?PathNotFoundError@@3PADA  00470990     v5subs:dbsubs.obj
 0003:00003124       ?PATTERN_INDEX@@3PBDB      00471124     v5subs:shot_name.obj
 0003:00003128       ?FIELD_LENGTH_INDEX@@3PBDB 00471128     v5subs:shot_name.obj
 0003:000031ac       ?ResultsString@@3PADA      004711ac     v5subs:partlist.obj
 0003:000033e0       ___security_cookie         004713e0     LIBCMT:gs_cookie.obj
 0003:000033e4       ___security_cookie_complement 004713e4     LIBCMT:gs_cookie.obj
 0003:000033e8       __fltused                  004713e8     LIBCMT:fpinit.obj
 0003:000033ec       __ldused                   004713ec     LIBCMT:fpinit.obj
 0003:00003500       ___isa_enabled             00471500     LIBCMT:cpu_disp.obj
 0003:00003510       __cfltcvt_tab              00471510     LIBCMT:cmiscdat.obj
 0003:00003548       __d_inf                    00471548     LIBCMT:util.obj
 0003:00003550       __d_ind                    00471550     LIBCMT:util.obj
 0003:00003558       __d_max                    00471558     LIBCMT:util.obj
 0003:00003560       __d_min                    00471560     LIBCMT:util.obj
 0003:00003568       __d_mzero                  00471568     LIBCMT:util.obj
 0003:0000358c       ___flsindex                0047158c     LIBCMT:tidtable.obj
 0003:00003590       ___badioinfo               00471590     LIBCMT:ioinit.obj
 0003:00003740       __mbctype                  00471740     LIBCMT:mbctype.obj
 0003:00003848       __mbcasemap                00471848     LIBCMT:mbctype.obj
 0003:00003948       ___initialmbcinfo          00471948     LIBCMT:mbctype.obj
 0003:00003b6c       ___ptmbcinfo               00471b6c     LIBCMT:mbctype.obj
 0003:00003c60       ___mb_cur_max              00471c60     LIBCMT:nlsdata.obj
 0003:00003c64       ___wclocalestr             00471c64     LIBCMT:nlsdata.obj
 0003:00003c68       ___lc_time_c               00471c68     LIBCMT:nlsdata.obj
 0003:00003dcc       ___ptlocinfo               00471dcc     LIBCMT:nlsdata.obj
 0003:00003dd0       ___initiallocinfo          00471dd0     LIBCMT:nlsdata.obj
 0003:00003e88       ___initiallocalestructinfo 00471e88     LIBCMT:nlsdata.obj
 0003:00003e90       ___globallocalestatus      00471e90     LIBCMT:glstatus.obj
 0003:00003ea0       __HUGE                     00471ea0     LIBCMT:huge.obj
 0003:00003fe0       __matherr_flag             00471fe0     LIBCMT:matherr.obj
 0003:00003ff0       __iob                      00471ff0     LIBCMT:_file.obj
 0003:000042a0       ___lconv                   004722a0     LIBCMT:lconv.obj
 0003:000042a4       ___lconv_static_decimal    004722a4     LIBCMT:lconv.obj
 0003:000042a8       ___lconv_c                 004722a8     LIBCMT:lconv.obj
 0003:000042f8       ___lconv_static_W_decimal  004722f8     LIBCMT:lconv.obj
 0003:000042fc       __pctype                   004722fc     LIBCMT:ctype.obj
 0003:00004300       __pwctype                  00472300     LIBCMT:ctype.obj
 0003:00004304       ___abort_behavior          00472304     LIBCMT:abort.obj
 0003:00004310       __NLG_Destination          00472310     LIBCMT:exsup.obj
 0003:00004320       __pow10pos                 00472320     LIBCMT:constpow.obj
 0003:00004480       __pow10neg                 00472480     LIBCMT:constpow.obj
 0003:000045e0       __confh                    004725e0     LIBCMT:initcon.obj
 0003:000045e4       ??_R0?AVFTII_VAR@@@8       004725e4     profile.obj
 0003:000045fc       ??_R0?AVFTII_VAR_ARRAY@@@8 004725fc     profile.obj
 0003:0000461c       ??_R0?AVWINDOW_CLASS@@@8   0047261c     profile.obj
 0003:00004638       ??_R0?AVEDITOP_GRID_CLASS@@@8 00472638     editop.obj
 0003:00004658       ??_R0?AVCUGCtrl@@@8        00472658     editop.obj
 0003:00004670       ??_R0?AVGRID_CLASS@@@8     00472670     gridclas.obj
 0003:0000468c       ??_R0?AVDATA_ARRAY_CLASS@@@8 0047268c     mplot.obj
 0003:000046ac       ??_R0?AVSINGLE_PLOT_CLASS@@@8 004726ac     mplot.obj
 0003:000046cc       ??_R0?AVPW_GRID_CLASS@@@8  004726cc     password.obj
 0003:000046e8       ??_R0?AVINT32_ARRAY_CLASS@@@8 004726e8     tcconfig.obj
 0003:00004708       ??_R0?AVSHOT_ARRAY_CLASS@@@8 00472708     xaxis.obj
 0003:00004728       ??_R0?AVX_AXIS_CLASS@@@8   00472728     xaxis.obj
 0003:00004744       ??_R0?AVFTII_ARRAY_DATA@@@8 00472744     v5subs:ftii_shot_data.obj
 0003:00004764       ??_R0?AVFTII_PROFILE@@@8   00472764     v5subs:ftii_shot_data.obj
 0003:00004780       ??_R0?AVCUGCnrBtn@@@8      00472780     dundas:ugcnrbtn.obj
 0003:00004798       ??_R0?AVCUGGrid@@@8        00472798     dundas:uggrid.obj
 0003:000047b0       ??_R0?AVCUGHScroll@@@8     004727b0     dundas:ughscrol.obj
 0003:000047cc       ??_R0?AVCUGSideHdg@@@8     004727cc     dundas:ugsidehd.obj
 0003:000047e8       ??_R0?AVCUGTopHdg@@@8      004727e8     dundas:ugtophdg.obj
 0003:00004800       ??_R0?AVCUGVScroll@@@8     00472800     dundas:ugvscrol.obj
 0003:0000481c       ??_R0?AVCUGDataSource@@@8  0047281c     dundas:ugdtasrc.obj
 0003:00004838       ??_R0?AVCUGCellType@@@8    00472838     dundas:ugceltyp.obj
 0003:00004854       ??_R0?AVCUGEdit@@@8        00472854     dundas:ugedit.obj
 0003:0000486c       ??_R0?AVCUGTab@@@8         0047286c     dundas:ugtab.obj
 0003:00004884       ??_R0?AVCUGGridInfo@@@8    00472884     dundas:uggdinfo.obj
 0003:000048a0       ??_R0?AVCUGHint@@@8        004728a0     dundas:ughint.obj
 0003:000048b8       ??_R0?AVCUGDropListType@@@8 004728b8     dundas:ugdltype.obj
 0003:000048d8       ??_R0?AVCUGArrowType@@@8   004728d8     dundas:ugctarrw.obj
 0003:000048f4       ??_R0?AVCUGMem@@@8         004728f4     dundas:ugmemman.obj
 0003:0000490c       ??_R0?AVCUGLstBox@@@8      0047290c     dundas:uglstbox.obj
 0003:00004924       ??_R0?AVbad_alloc@std@@@8  00472924     LIBCMT:new.obj
 0003:00004940       ??_R0?AVexception@std@@@8  00472940     LIBCMT:new.obj
 0003:0000495c       ??_R0?AVtype_info@@@8      0047295c     LIBCMT:typinfo.obj
 0003:00004980       ?CornerParameters@@3PAHA   00472980     profile.obj
 0003:00004b60       ?HaveLeftCursorLine@@3EA   00472b60     profile.obj
 0003:00004b61       ?HaveCursorLine@@3EA       00472b61     profile.obj
 0003:00004b62       ?Zooming@@3EA              00472b62     profile.obj
 0003:00004b63       ?Printing@@3EA             00472b63     profile.obj
 0003:00004b69       ?QuickPrint@@3EA           00472b69     profile.obj
 0003:00004b6a       ?Editing_Status_Screen@@3EA 00472b6a     profile.obj
 0003:00004b99       ?ShowX1PointsOnly@@3EA     00472b99     profile.obj
 0003:00004b9a       ?XKeyTogglesX1X4@@3EA      00472b9a     profile.obj
 0003:00004b9b       ?Smoothing@@3EA            00472b9b     profile.obj
 0003:00004ba0       ?SmoothingChannel@@3PAEA   00472ba0     profile.obj
 0003:00004ba8       ?SmoothingVelocity@@3EA    00472ba8     profile.obj
 0003:00004ba9       ?NullChar@@3DA             00472ba9     profile.obj
 0003:00004baa       ?EmptyString@@3PADA        00472baa     profile.obj
 0003:00004bab       ?RealTime@@3EA             00472bab     profile.obj
 0003:00004bac       ?PostImpactDisplayTime@@3MA 00472bac     profile.obj
 0003:00004bb0       ?CurrentP3Index@@3HA       00472bb0     profile.obj
 0003:00004bb4       ?DialogTextColor@@3KA      00472bb4     profile.obj
 0003:00004bb8       ?SingleMachineOnly@@3EA    00472bb8     profile.obj
 0003:00004bb9       ?HaveHeader@@3EA           00472bb9     profile.obj
 0003:00004bba       ?OverlayMenuState@@3EA     00472bba     profile.obj
 0003:00004bbb       ?ViewReferenceMenuState@@3EA 00472bbb     profile.obj
 0003:00004bbc       ?ViewParametersDisplay@@3EA 00472bbc     profile.obj
 0003:00004bbd       ?IsFullScreen@@3EA         00472bbd     profile.obj
 0003:00004bbe       ?DialogIsActive@@3EA       00472bbe     profile.obj
 0003:00004bbf       ?PrintingMultiplePlots@@3EA 00472bbf     profile.obj
 0003:00004bc0       ?PartBasedDisplay@@3EA     00472bc0     profile.obj
 0003:00004bc1       ?NeedNewStatusScreenColumnWidths@@3EA 00472bc1     profile.obj
 0003:00004bc2       ?IsHPM@@3_NA               00472bc2     profile.obj
 0003:00004bc3       ?ReadyForZoom@@3EA         00472bc3     profile.obj
 0003:00004bc4       ?NofParms@@3FA             00472bc4     profile.obj
 0003:00004bc6       ?GridIsVisible@@3EA        00472bc6     profile.obj
 0003:00004bc8       ?NofPoints@@3FA            00472bc8     profile.obj
 0003:00004bcc       ?TimeCurve@@3FA            00472bcc     profile.obj
 0003:00004bd0       ?PosCurve@@3FA             00472bd0     profile.obj
 0003:00004bd4       ?MaxPostPosition@@3MA      00472bd4     profile.obj
 0003:00004bd8       ?MinPostPosition@@3MA      00472bd8     profile.obj
 0003:00004bdc       ?MainInstance@@3PAUHINSTANCE__@@A 00472bdc     profile.obj
 0003:00004be0       ?Ph@@3UPROFILE_HEADER@@A   00472be0     profile.obj
 0003:00004c4c       ?MainWindow@@3PAUHWND__@@A 00472c4c     profile.obj
 0003:00004c50       ?Points@@3PAY0DGLA@MA      00472c50     profile.obj
 0003:0008d7d0       ?ToolTipWindow@@3PAUHWND__@@A 004fb7d0     profile.obj
 0003:0008d7d4       ?MultipleShotDialogWindow@@3PAUHWND__@@A 004fb7d4     profile.obj
 0003:0008d7d8       ?ExportAlarmsDialogWindow@@3PAUHWND__@@A 004fb7d8     profile.obj
 0003:0008d7dc       ?ChooseDowntimeMachineWindow@@3PAUHWND__@@A 004fb7dc     profile.obj
 0003:0008d7e0       ?MyFont@@3PAUHFONT__@@A    004fb7e0     profile.obj
 0003:0008d7e4       ?MyCharHeight@@3HA         004fb7e4     profile.obj
 0003:0008d7e8       ?MyCharWidth@@3HA          004fb7e8     profile.obj
 0003:0008d7ec       ?FirstDownCatButton@@3HA   004fb7ec     profile.obj
 0003:0008d7f0       ?LastDownCatButton@@3HA    004fb7f0     profile.obj
 0003:0008d7f4       ?StatusScreenTimerId@@3IA  004fb7f4     profile.obj
 0003:0008d7f8       ?PasswordLevelTimeoutId@@3IA 004fb7f8     profile.obj
 0003:0008d7fc       ?PasswordLevelTimeoutMs@@3IA 004fb7fc     profile.obj
 0003:0008d800       ?DateICanShowPressure@@3U_FILETIME@@A 004fb800     profile.obj
 0003:0008d808       ?NofPlotCurves@@3FA        004fb808     profile.obj
 0003:0008d80c       ?PreImpactPlotCurveTypes@@3GA 004fb80c     profile.obj
 0003:0008d810       ?PlotCurve@@3PAUPLOT_CURVE_ENTRY@@A 004fb810     profile.obj
 0003:0008d864       ?PostImpactPlotCurveTypes@@3GA 004fb864     profile.obj
 0003:0008d868       ?CurrentPasswordLevel@@3JA 004fb868     profile.obj
 0003:0008d86c       ?NofOverlayShots@@3FA      004fb86c     profile.obj
 0003:0008d870       ?LowLimitType@@3HA         004fb870     profile.obj
 0003:0008d874       ?AccelHandle@@3PAUHACCEL__@@A 004fb874     profile.obj
 0003:0008d878       ?MainPlotWindow@@3PAUHWND__@@A 004fb878     profile.obj
 0003:0008d87c       ?MenuHelpWindow@@3PAUHWND__@@A 004fb87c     profile.obj
 0003:0008d880       ?ChospartWindow@@3PAUHWND__@@A 004fb880     profile.obj
 0003:0008d884       ?ChosshotWindow@@3PAUHWND__@@A 004fb884     profile.obj
 0003:0008d888       ?ParameterWindow@@3PAUHWND__@@A 004fb888     profile.obj
 0003:0008d88c       ?ZoomBoxWindow@@3PAUHWND__@@A 004fb88c     profile.obj
 0003:0008d890       ?SmallZoomBoxWindow@@3PAUHWND__@@A 004fb890     profile.obj
 0003:0008d894       ?CornerParamDialogWindow@@3PAUHWND__@@A 004fb894     profile.obj
 0003:0008d898       ?ParamHistoryWindow@@3PAUHWND__@@A 004fb898     profile.obj
 0003:0008d89c       ?ViewParametersDialogWindow@@3PAUHWND__@@A 004fb89c     profile.obj
 0003:0008d8a0       ?ColorDefinitionDialogWindow@@3PAUHWND__@@A 004fb8a0     profile.obj
 0003:0008d8a4       ?AlarmSummaryDialogWindow@@3PAUHWND__@@A 004fb8a4     profile.obj
 0003:0008d8a8       ?LoadFromNetworkDialogWindow@@3PAUHWND__@@A 004fb8a8     profile.obj
 0003:0008d8ac       ?MyDc@@3PAUHDC__@@A        004fb8ac     profile.obj
 0003:0008d8b0       ?NofDcOwners@@3HA          004fb8b0     profile.obj
 0003:0008d8b4       ?MainWindowRect@@3UtagRECT@@A 004fb8b4     profile.obj
 0003:0008d8c4       ?PlotWindowRect@@3UtagRECT@@A 004fb8c4     profile.obj
 0003:0008d8d4       ?PrinterMargin@@3UtagRECT@@A 004fb8d4     profile.obj
 0003:0008d8e4       ?RealTimeButtonRect@@3UtagRECT@@A 004fb8e4     profile.obj
 0003:0008d8f4       ?NofCornerParameters@@3HA  004fb8f4     profile.obj
 0003:0008d8f8       ?Region@@3PAUREGION_ENTRY@@A 004fb8f8     profile.obj
 0003:0008d970       ?Axis@@3PAUAXIS_ENTRY@@A   004fb970     profile.obj
 0003:0008d9c8       ?DowntimeComputerName@@3VSTRING_CLASS@@A 004fb9c8     profile.obj
 0003:0008d9d0       ?DowntimeMachineName@@3VSTRING_CLASS@@A 004fb9d0     profile.obj
 0003:0008d9d8       ?ComputerName@@3VSTRING_CLASS@@A 004fb9d8     profile.obj
 0003:0008d9e0       ?MachineName@@3VSTRING_CLASS@@A 004fb9e0     profile.obj
 0003:0008d9e8       ?PartName@@3VSTRING_CLASS@@A 004fb9e8     profile.obj
 0003:0008d9f0       ?CurrentLanguage@@3VSTRING_CLASS@@A 004fb9f0     profile.obj
 0003:0008d9f8       ?ShotName@@3VSTRING_CLASS@@A 004fb9f8     profile.obj
 0003:0008da00       ?CurrentMarks@@3VMARKS_CLASS@@A 004fba00     profile.obj
 0003:0008e598       ?CurrentParam@@3VPARAMETER_CLASS@@A 004fc598     profile.obj
 0003:00091df0       ?CurrentPart@@3VPART_CLASS@@A 004ffdf0     profile.obj
 0003:00091f40       ?CurrentSort@@3VPARAM_INDEX_CLASS@@A 004fff40     profile.obj
 0003:00092120       ?CurrentMachine@@3VMACHINE_CLASS@@A 00500120     profile.obj
 0003:000921c8       ?CurrentFtAnalog@@3VFTANALOG_CLASS@@A 005001c8     profile.obj
 0003:00093398       ?CurrentFtCalc@@3VFTCALC_CLASS@@A 00501398     profile.obj
 0003:00094318       ?ChannelAxisLabel@@3VCHAXIS_LABEL_CLASS@@A 00502318     profile.obj
 0003:00094320       ?Parms@@3VMULTISTRING_CLASS@@A 00502320     profile.obj
 0003:00094334       ?Cats@@3VDOWNCAT_NAME_CLASS@@A 00502334     profile.obj
 0003:0009433c       ?SubCats@@3VDOWNSCAT_NAME_CLASS@@A 0050233c     profile.obj
 0003:00094344       ?FontList@@3VFONT_LIST_CLASS@@A 00502344     profile.obj
 0003:00094348       ?OverlayShot@@3PAUPROFILE_NAME_ENTRY@@A 00502348     profile.obj
 0003:00094988       ?MachList@@3VMACHINE_NAME_LIST_CLASS@@A 00502988     profile.obj
 0003:00094998       ?RealtimeMachineList@@3VREALTIME_MACHINE_LIST_CLASS@@A 00502998     profile.obj
 0003:000949a8       ?StringTable@@3VSTRINGTABLE_CLASS@@A 005029a8     profile.obj
 0003:00094a00       ?ParameterListTitle@@3PAVSTRING_CLASS@@A 00502a00     profile.obj
 0003:00094a28       ?MainMenu@@3VMENU_CONTROL_ENTRY@@A 00502a28     profile.obj
 0003:00094ae8       ?PopupMenu@@3VPOPUP_CONTROL_ENTRY@@A 00502ae8     profile.obj
 0003:00094b7c       ?ArialFontName@@3VSTRING_CLASS@@A 00502b7c     profile.obj
 0003:00094bc0       ?Grid@@3VGRID_CLASS@@A     00502bc0     profile.obj
 0003:00094e74       ?ArialBoldFontName@@3VSTRING_CLASS@@A 00502e74     profile.obj
 0003:00094e7c       ?TimesRomanFontName@@3VSTRING_CLASS@@A 00502e7c     profile.obj
 0003:00094e84       ?NewSetupMachine@@3VSTRING_CLASS@@A 00502e84     profile.obj
 0003:00095170       ?MyPart@@3UPART_NAME_ENTRY@@A 00503170     chosshot.obj
 0003:000951a8       ?MyWin@@3PAUHWND__@@A      005031a8     colordef.obj
 0003:000951ac       ?SavedNormalColor@@3PAKA   005031ac     colordef.obj
 0003:000951e0       ?SavedPrNormalColor@@3PAKA 005031e0     colordef.obj
 0003:00095214       ?SavedReferenceColor@@3PAKA 00503214     colordef.obj
 0003:00095248       ?SavedPrReferenceColor@@3PAKA 00503248     colordef.obj
 0003:0009527c       ?SavedAlarmColor@@3KA      0050327c     colordef.obj
 0003:00095280       ?SavedNoAlarmColor@@3KA    00503280     colordef.obj
 0003:00095284       ?SavedWarningColor@@3KA    00503284     colordef.obj
 0003:00095288       ?SavedDialogTextColor@@3KA 00503288     colordef.obj
 0003:000952d8       ?Vlb@@3VVIRTUAL_LISTBOX_CLASS@@A 005032d8     dbarcfg.obj
 0003:0009538c       ?LeftX@@3HA                0050338c     downbar.obj
 0003:00095390       ?HoursX@@3HA               00503390     downbar.obj
 0003:00095394       ?PercentX@@3HA             00503394     downbar.obj
 0003:00095398       ?TopButtonY@@3JA           00503398     downbar.obj
 0003:0009539c       ?ButtonHeight@@3JA         0050339c     downbar.obj
 0003:000953a4       ?Config@@3VDOWNBAR_CONFIG_CLASS@@A 005033a4     downbar.obj
 0003:000953b4       ?Titles@@3VTEXT_LIST_CLASS@@A 005033b4     downbar.obj
 0003:000953c4       ?NoCode@@3VDOWNTIME_BASE_CLASS@@A 005033c4     downbar.obj
 0003:000953d0       ?UpCode@@3VDOWNTIME_BASE_CLASS@@A 005033d0     downbar.obj
 0003:000953dc       ?NoCategory@@3VCAT_BASE_CLASS@@A 005033dc     downbar.obj
 0003:000953e0       ?CurrentCategory@@3VCAT_BASE_CLASS@@A 005033e0     downbar.obj
 0003:000953e4       ?Dh@@3VDOWNTIME_SUM_CLASS@@A 005033e4     downbar.obj
 0003:00095400       ?Cs@@3VCAT_SUM_CLASS@@A    00503400     downbar.obj
 0003:0009543c       ?my_default_font@EDITOP_GRID_CLASS@@0PAUHFONT__@@A 0050343c     editop.obj
 0003:00095748       ?my_default_font@GRID_CLASS@@0PAUHFONT__@@A 00503748     gridclas.obj
 0003:000957e0       ?LowHistoryShotRow@@3HA    005037e0     paramhis.obj
 0003:000957e4       ?HighHistoryShotRow@@3HA   005037e4     paramhis.obj
 0003:000957f4       ?LowHistoryShotName@@3VSHOT_NAME_PARTS_CLASS@@A 005037f4     paramhis.obj
 0003:00095810       ?HighHistoryShotName@@3VSHOT_NAME_PARTS_CLASS@@A 00503810     paramhis.obj
 0003:00095860       ?Grid@@3VPW_GRID_CLASS@@A  00503860     password.obj
 0003:00095b18       ?CoOptionsExeDir@@3VNAME_CLASS@@A 00503b18     password.obj
 0003:00095ca0       ?MyHeader@@3PAUHWND__@@A   00503ca0     status.obj
 0003:00095ca4       ?HeaderHeight@@3HA         00503ca4     status.obj
 0003:00095ca8       ?DeltaY@@3HA               00503ca8     status.obj
 0003:00095e40       ?TcConfig@@3VTREND_CONFIG_CLASS@@A 00503e40     trend.obj
 0003:00095ef0       ?XAxis@@3VX_AXIS_CLASS@@A  00503ef0     trend.obj
 0003:00095f6c       ?Plots@@3VMULTI_PLOT_CLASS@@A 00503f6c     trend.obj
 0003:00095f98       ?Xdcr_Axis_Color@@3KA      00503f98     xdcrplot.obj
 0003:00095f9c       ?Xdcr_BG_Brush@@3PAUHBRUSH__@@A 00503f9c     xdcrplot.obj
 0003:00095fa0       ___@@_PchSym_@00@UhlfixvhUevihrlmICFxUvnkgbUuivvUvnkgbOlyq@6B73A80F87A14A31 00503fa0     empty.obj
 0003:00095fd3       ?emptystring@STRING_CLASS@@0PADA 00503fd3     v5subs:stringcl.obj
 0003:000961bb       ?emptystring@STRING_ARRAY_CLASS@@0PADA 005041bb     v5subs:strarray.obj
 0003:000966f4       ?SmoothN@@3JA              005046f4     v5subs:plotsubs.obj
 0003:000966f8       ?SmoothFactor@@3MA         005046f8     v5subs:plotsubs.obj
 0003:000966fc       ?Shifts@@3PAUSHIFT@@A      005046fc     v5subs:shift.obj
 0003:00096700       ?NofShifts@@3FA            00504700     v5subs:shift.obj
 0003:000968e8       ?lpfnOldhScroll@@3P6GJPAUHWND__@@IIJ@ZA 005048e8     dundas:ughscrol.obj
 0003:000968ec       ?lpfnOldvScroll@@3P6GJPAUHWND__@@IIJ@ZA 005048ec     dundas:ugvscrol.obj
 0003:000968f4       ?lpfnOldEdit@@3P6GJPAUHWND__@@IIJ@ZA 005048f4     dundas:ugedit.obj
 0003:000968f8       ?lpfnOldListBox@@3P6GJPAUHWND__@@IIJ@ZA 005048f8     dundas:ugdltype.obj
 0003:00096c20       ___fastflag                00504c20     LIBCMT:fpinit.obj
 0003:00096c24       __aenvptr                  00504c24     LIBCMT:wincrt0.obj
 0003:00096c28       __wenvptr                  00504c28     LIBCMT:wincrt0.obj
 0003:00096c2c       ?_pnhHeap@@3P6AHI@ZA       00504c2c     LIBCMT:handler.obj
 0003:00096c30       __C_Exit_Done              00504c30     LIBCMT:crt0dat.obj
 0003:00096c34       ___argc                    00504c34     LIBCMT:crt0dat.obj
 0003:00096c38       ___argv                    00504c38     LIBCMT:crt0dat.obj
 0003:00096c3c       ___wargv                   00504c3c     LIBCMT:crt0dat.obj
 0003:00096c40       __environ                  00504c40     LIBCMT:crt0dat.obj
 0003:00096c44       __wenviron                 00504c44     LIBCMT:crt0dat.obj
 0003:00096c48       __pgmptr                   00504c48     LIBCMT:crt0dat.obj
 0003:00096c4c       __wpgmptr                  00504c4c     LIBCMT:crt0dat.obj
 0003:00096c50       __umaskval                 00504c50     LIBCMT:crt0dat.obj
 0003:00096c54       __exitflag                 00504c54     LIBCMT:crt0dat.obj
 0003:00096c58       __C_Termination_Done       00504c58     LIBCMT:crt0dat.obj
 0003:00096c5c       ___winitenv                00504c5c     LIBCMT:crt0dat.obj
 0003:00096c60       ___initenv                 00504c60     LIBCMT:crt0dat.obj
 0003:00096c64       __maxwait                  00504c64     LIBCMT:crtheap.obj
 0003:00096c68       ___isa_available           00504c68     LIBCMT:cpu_disp.obj
 0003:00096c6c       ___favor                   00504c6c     LIBCMT:cpu_disp.obj
 0003:00096c7c       __crtheap                  00504c7c     LIBCMT:heapinit.obj
 0003:00096c80       ___pioinfo                 00504c80     LIBCMT:ioinit.obj
 0003:00096e88       ___app_type                00504e88     LIBCMT:crt0msg.obj
 0003:000974b8       ___error_mode              005054b8     LIBCMT:errmode.obj
 0003:000974bc       ___pInvalidArgHandler      005054bc     LIBCMT:invarg.obj
 0003:000974c0       ___mbcodepage              005054c0     LIBCMT:mbctype.obj
 0003:000974c4       ___ismbcodepage            005054c4     LIBCMT:mbctype.obj
 0003:000974c8       ___mbulinfo                005054c8     LIBCMT:mbctype.obj
 0003:000974d4       ___mblocalename            005054d4     LIBCMT:mbctype.obj
 0003:000974dc       ___locale_changed          005054dc     LIBCMT:wsetloca.obj
 0003:000974e0       __newmode                  005054e0     LIBCMT:_newmode.obj
 0003:00097638       ?__pInconsistency@@3P6AXXZA 00505638     LIBCMT:hooks.obj
 0003:0009763c       ___pPurecall               0050563c     LIBCMT:inithelp.obj
 0003:00097658       __stdbuf                   00505658     LIBCMT:_sftbuf.obj
 0003:00097660       ?pArgList@UnDecorator@@0PAVReplicator@@A 00505660     LIBCMT:undname.obj
 0003:00097664       ?pZNameList@UnDecorator@@0PAVReplicator@@A 00505664     LIBCMT:undname.obj
 0003:00097668       ?pTemplateArgList@UnDecorator@@0PAVReplicator@@A 00505668     LIBCMT:undname.obj
 0003:0009766c       ?gName@UnDecorator@@0PBDB  0050566c     LIBCMT:undname.obj
 0003:00097670       ?name@UnDecorator@@0PBDB   00505670     LIBCMT:undname.obj
 0003:00097674       ?outputString@UnDecorator@@0PADA 00505674     LIBCMT:undname.obj
 0003:00097678       ?maxStringLength@UnDecorator@@0HA 00505678     LIBCMT:undname.obj
 0003:0009767c       ?disableFlags@UnDecorator@@0KA 0050567c     LIBCMT:undname.obj
 0003:00097680       ?fExplicitTemplateParams@UnDecorator@@0_NA 00505680     LIBCMT:undname.obj
 0003:00097681       ?fGetTemplateArgumentList@UnDecorator@@0_NA 00505681     LIBCMT:undname.obj
 0003:00097684       ?m_pGetParameter@UnDecorator@@0P6APADJ@ZA 00505684     LIBCMT:undname.obj
 0003:0009769c       __outputformat             0050569c     LIBCMT:outputformat.obj
 0003:000976a0       __cflush                   005056a0     LIBCMT:_file.obj
 0003:000976b8       ___lconv_static_null       005056b8     LIBCMT:lconv.obj
 0003:000976bc       ___lconv_static_W_null     005056bc     LIBCMT:lconv.obj
 0003:000976e0       __bufin                    005056e0     <common>
 0003:000986e0       ___piob                    005066e0     <common>
 0003:000986e4       __nstream                  005066e4     <common>
 0003:000986e8       __nhandle                  005066e8     <common>
 0003:000986ec       ___use_sse2_mathfcns       005066ec     <common>
 0003:000986f0       __pmatherr                 005066f0     <common>
 0003:00098700       _encodedKERNEL32Functions  00506700     <common>
 0003:00098784       __debugger_hook_dummy      00506784     <common>
 0003:00098788       __pDestructExceptionObject 00506788     <common>
 0003:0009878c       ___dyn_tls_init_callback   0050678c     <common>
 0003:00098790       ___onexitend               00506790     <common>
 0003:00098794       ___onexitbegin             00506794     <common>
 0003:00098798       ___mbctype_initialized     00506798     <common>
 0003:0009879c       ___env_initialized         0050679c     <common>
 0003:000987a0       __acmdln                   005067a0     <common>

 entry point at        0001:00052ea1

 Static symbols

 0001:00000000       ??__EArialBoldFontName@@YAXXZ 00401000 f   profile.obj
 0001:00000016       ??__EArialFontName@@YAXXZ  00401016 f   profile.obj
 0001:0000002c       ??__EAxis@@YAXXZ           0040102c f   profile.obj
 0001:0000004c       ??__ECats@@YAXXZ           0040104c f   profile.obj
 0001:00000058       ??__EChannelAxisLabel@@YAXXZ 00401058 f   profile.obj
 0001:00000064       ??__EComputerName@@YAXXZ   00401064 f   profile.obj
 0001:0000007a       ??__ECurrentFtAnalog@@YAXXZ 0040107a f   profile.obj
 0001:00000090       ??__ECurrentFtCalc@@YAXXZ  00401090 f   profile.obj
 0001:000000a6       ??__ECurrentLanguage@@YAXXZ 004010a6 f   profile.obj
 0001:000000bc       ??__ECurrentMachine@@YAXXZ 004010bc f   profile.obj
 0001:000000d2       ??__ECurrentMarks@@YAXXZ   004010d2 f   profile.obj
 0001:000000e8       ??__ECurrentParam@@YAXXZ   004010e8 f   profile.obj
 0001:000000fe       ??__ECurrentPart@@YAXXZ    004010fe f   profile.obj
 0001:00000114       ??__ECurrentSort@@YAXXZ    00401114 f   profile.obj
 0001:0000012a       ??__ECurrentWorker@@YAXXZ  0040112a f   profile.obj
 0001:00000140       ??__EDayParamCurrentEntry@@YAXXZ 00401140 f   profile.obj
 0001:00000156       ??__EDayParamFont@@YAXXZ   00401156 f   profile.obj
 0001:0000016c       ??__EDayParamLb@@YAXXZ     0040116c f   profile.obj
 0001:00000178       ??__EDayParamTitle@@YAXXZ  00401178 f   profile.obj
 0001:0000018e       ??__EDowntimeComputerName@@YAXXZ 0040118e f   profile.obj
 0001:000001a4       ??__EDowntimeEntryLb@@YAXXZ 004011a4 f   profile.obj
 0001:000001b0       ??__EDowntimeEntryMachine@@YAXXZ 004011b0 f   profile.obj
 0001:000001c6       ??__EDowntimeMachineName@@YAXXZ 004011c6 f   profile.obj
 0001:000001dc       ??__EFontList@@YAXXZ       004011dc f   profile.obj
 0001:000001f2       ??__EGrid@@YAXXZ           004011f2 f   profile.obj
 0001:00000208       ??__EMachList@@YAXXZ       00401208 f   profile.obj
 0001:0000021e       ??__EMachineName@@YAXXZ    0040121e f   profile.obj
 0001:00000234       ??__EMainMenu@@YAXXZ       00401234 f   profile.obj
 0001:0000024a       ??__ENewSetupMachine@@YAXXZ 0040124a f   profile.obj
 0001:00000260       ??__EOverlayShot@@YAXXZ    00401260 f   profile.obj
 0001:00000285       ??__EParameterListTitle@@YAXXZ 00401285 f   profile.obj
 0001:000002aa       ??__EParms@@YAXXZ          004012aa f   profile.obj
 0001:000002c0       ??__EPartName@@YAXXZ       004012c0 f   profile.obj
 0001:000002d6       ??__EPopupMenu@@YAXXZ      004012d6 f   profile.obj
 0001:000002ec       ??__ERealtimeMachineList@@YAXXZ 004012ec f   profile.obj
 0001:00000302       ??__ERegion@@YAXXZ         00401302 f   profile.obj
 0001:0000032c       ??__EShotName@@YAXXZ       0040132c f   profile.obj
 0001:00000342       ??__EStringTable@@YAXXZ    00401342 f   profile.obj
 0001:00000358       ??__ESubCats@@YAXXZ        00401358 f   profile.obj
 0001:00000364       ??__ETimesRomanFontName@@YAXXZ 00401364 f   profile.obj
 0001:0000037a       ??__EXdcrWindow@@YAXXZ     0040137a f   profile.obj
 0001:00000386       ??__EMyPart@@YAXXZ         00401386 f   chosshot.obj
 0001:0000039c       ??__EVlb@@YAXXZ            0040139c f   dbarcfg.obj
 0001:000003b2       ??__EFixedChannels@@YAXXZ  004013b2 f   dconfig.obj
 0001:000003be       ??__EFixedPressures@@YAXXZ 004013be f   dconfig.obj
 0001:000003ca       ??__EIni@@YAXXZ            004013ca f   dconfig.obj
 0001:000003d6       ??__EConfig@@YAXXZ         004013d6 f   downbar.obj
 0001:000003ec       ??__ECurrentCategory@@YAXXZ 004013ec f   downbar.obj
 0001:000003fd       ??__EDh@@YAXXZ             004013fd f   downbar.obj
 0001:00000420       ??__ENoCategory@@YAXXZ     00401420 f   downbar.obj
 0001:00000431       ??__ENoCode@@YAXXZ         00401431 f   downbar.obj
 0001:00000443       ??__ETitles@@YAXXZ         00401443 f   downbar.obj
 0001:00000459       ??__EUpCode@@YAXXZ         00401459 f   downbar.obj
 0001:0000046e       ??__EGrid@@YAXXZ           0040146e f   editop.obj
 0001:00000484       ??__EEmptyPlot@@YAXXZ      00401484 f   mplot.obj
 0001:0000049a       ??__EHighHistoryShotName@@YAXXZ 0040149a f   paramhis.obj
 0001:000004b0       ??__ELowHistoryShotName@@YAXXZ 004014b0 f   paramhis.obj
 0001:000004c6       ??__EFontList@@YAXXZ       004014c6 f   paramwin.obj
 0001:000004dc       ??__ECoOptionsExeDir@@YAXXZ 004014dc f   password.obj
 0001:000004f2       ??__EGrid@@YAXXZ           004014f2 f   password.obj
 0001:00000508       ??__ELogFileName@@YAXXZ    00401508 f   password.obj
 0001:0000051e       ??__EPassword@@YAXXZ       0040151e f   password.obj
 0001:0000052a       ??__EPasswordLogFormat@@YAXXZ 0040152a f   password.obj
 0001:00000540       ??__EAnalogSensor@@YAXXZ   00401540 f   plot.obj
 0001:00000556       ??__EDe@@YAXXZ             00401556 f   status.obj
 0001:00000564       ??__EFontList@@YAXXZ       00401564 f   status.obj
 0001:0000057a       ??__ETc@@YAXXZ             0040157a f   tcconfig.obj
 0001:00000590       ??__Elinechanged@@YAXXZ    00401590 f   tcconfig.obj
 0001:000005a6       ??__ECurrent@@YAXXZ        004015a6 f   trend.obj
 0001:000005bc       ??__EParameters@@YAXXZ     004015bc f   trend.obj
 0001:000005c8       ??__EPlots@@YAXXZ          004015c8 f   trend.obj
 0001:000005de       ??__ETcConfig@@YAXXZ       004015de f   trend.obj
 0001:000005f4       ??__EXAxis@@YAXXZ          004015f4 f   trend.obj
 0001:0000060a       ??__EEmptyString@@YAXXZ    0040160a f   v5subs:nameclas.obj
 0001:00000620       ??__EMyComputer@@YAXXZ     00401620 f   v5subs:nameclas.obj
 0001:0000062a       ??__EEmptySensor@@YAXXZ    0040162a f   v5subs:asensor.obj
 0001:00000640       ??__EEmptyDowncatEntry@@YAXXZ 00401640 f   v5subs:catclass.obj
 0001:0000064a       ??__EEmptyDownscatEntry@@YAXXZ 0040164a f   v5subs:catclass.obj
 0001:00000654       ??__EMyComputer@@YAXXZ     00401654 f   v5subs:computer.obj
 0001:0000066a       ??__ENoComputer@@YAXXZ     0040166a f   v5subs:computer.obj
 0001:00000680       ??__EEmptyString@@YAXXZ    00401680 f   v5subs:machname.obj
 0001:00000696       ??__Eempty_entry@@YAXXZ    00401696 f   v5subs:setpoint.obj
 0001:000006b6       ??__EFontList@@YAXXZ       004016b6 f   v5subs:stringtable.obj
 0001:000006cc       ??__EEventList@@YAXXZ      004016cc f   v5subs:client.obj
 0001:000006d8       ??__ET@@YAXXZ              004016d8 f   v5subs:semaphor.obj
 0001:000006ee       ??__EExeDirectory@@YAXXZ   004016ee f   v5subs:gexedir.obj
 0001:00000704       ??__EFontList@@YAXXZ       00401704 f   v5subs:menuctrl.obj
 0001:0000071a       ??__EFontList@@YAXXZ       0040171a f   v5subs:popctrl.obj
 0001:00000d4d       ?alarm_lb_string@@YAPADPAUHWND__@@JAAVALARM_SUMMARY_CLASS@@@Z 00401d4d f   profile.obj
 0001:00001214       ?append_overlay_shot@@YAEXZ 00402214 f   profile.obj
 0001:000012e6       ?begin_day_param_display@@YAXXZ 004022e6 f   profile.obj
 0001:0000170b       ?calculate_yaxis_limits@@YAXHH@Z 0040270b f   profile.obj
 0001:000018d6       ?check_for_human@@YAXXZ    004028d6 f   profile.obj
 0001:00001914       ?check_zoom_box_labels@@YAXXZ 00402914 f   profile.obj
 0001:00001b00       ?clear_axes@@YAXXZ         00402b00 f   profile.obj
 0001:00001b13       ?clear_one_axis@@YAXF@Z    00402b13 f   profile.obj
 0001:00001b41       ?clear_y_axes@@YAXXZ       00402b41 f   profile.obj
 0001:00001b73       ?copy_machine_list_to_clipboard@@YAXPAUHWND__@@@Z 00402b73 f   profile.obj
 0001:00001fd9       ?create_bigfont@@YAXPAUHDC__@@@Z 00402fd9 f   profile.obj
 0001:0000233f       ?create_chospart_window@@YAXXZ 0040333f f   profile.obj
 0001:000023b2       ?create_chosshot_window@@YAXXZ 004033b2 f   profile.obj
 0001:0000240f       ?create_grid@@YAXXZ        0040340f f   profile.obj
 0001:000025bb       ?create_printer_font@@YAXAAUtagRECT@@@Z 004035bb f   profile.obj
 0001:00002aa3       ?do_keyboard_zoom_button@@YAXXZ 00403aa3 f   profile.obj
 0001:00002c14       ?do_newsetup@@YAXXZ        00403c14 f   profile.obj
 0001:00002d7b       ?do_newshot@@YAXXZ         00403d7b f   profile.obj
 0001:00002ee9       ?do_overlay_toggle@@YAXH@Z 00403ee9 f   profile.obj
 0001:00002f28       ?do_popup_menu@@YAXJ@Z     00403f28 f   profile.obj
 0001:000032b9       ?do_xdcr_click@@YAXUtagPOINT@@@Z 004042b9 f   profile.obj
 0001:000034af       ?do_zoom_button@@YAXUtagPOINT@@@Z 004044af f   profile.obj
 0001:00003b05       ?draw_cursor_line@@YAXH@Z  00404b05 f   profile.obj
 0001:00003c00       ?draw_horizontal_tics@@YAXAAUtagRECT@@HPAUHPEN__@@1@Z 00404c00 f   profile.obj
 0001:00003c99       ?draw_line@@YAXHHHH@Z      00404c99 f   profile.obj
 0001:00003fc3       ?draw_rectangle@@YAXAAUtagRECT@@@Z 00404fc3 f   profile.obj
 0001:000040b8       ?draw_x_axis@@YAXAAUMINMAX@@HAAUtagRECT@@FFK@Z 004050b8 f   profile.obj
 0001:00004248       ?enable_edit_button@@YAXPAUHWND__@@@Z 00405248 f   profile.obj
 0001:000043bc       ?end_day_param_display@@YAXXZ 004053bc f   profile.obj
 0001:00004433       ?end_downtime_entry_dialog@@YAXXZ 00405433 f   profile.obj
 0001:0000444b       ?erase_cursor_line@@YAXXZ  0040544b f   profile.obj
 0001:00004468       ?erase_left_cursor_line@@YAXXZ 00405468 f   profile.obj
 0001:0000449a       ?fill_cat_and_subcat_lb@@YAXXZ 0040549a f   profile.obj
 0001:0000456f       ?fill_choose_downtime_machine_listbox@@YAEAAVLISTBOX_CLASS@@@Z 0040556f f   profile.obj
 0001:000046d6       ?fill_corner_param_listbox@@YAXXZ 004056d6 f   profile.obj
 0001:0000484c       ?fill_operator_signon_listboxes@@YAXPAUHWND__@@@Z 0040584c f   profile.obj
 0001:00004b28       ?force_downtime_popup@@YAXXZ 00405b28 f   profile.obj
 0001:00004ba0       ?get_alarm_data@@YAXPAUHWND__@@@Z 00405ba0 f   profile.obj
 0001:00004ddf       ?get_alarm_date_extents@@YAEXZ 00405ddf f   profile.obj
 0001:00005182       ?get_mydc@@YAXXZ           00406182 f   profile.obj
 0001:000051a8       ?get_new_downtime_machine@@YAXAAVLISTBOX_CLASS@@@Z 004061a8 f   profile.obj
 0001:000053ce       ?goto_next_shot@@YAXH@Z    004063ce f   profile.obj
 0001:0000551e       ?handle_selection@@YAXH@Z  0040651e f   profile.obj
 0001:00005dd2       ?init_tsl_boxes@@YAXPAUHWND__@@@Z 00406dd2 f   profile.obj
 0001:00005f78       ?load_machlist@@YAXXZ      00406f78 f   profile.obj
 0001:0000634d       ?load_main_menu@@YAXXZ     0040734d f   profile.obj
 0001:00006453       ?load_myfont@@YAXXZ        00407453 f   profile.obj
 0001:00006512       ?load_part_info@@YAEPAUPROFILE_NAME_ENTRY@@@Z 00407512 f   profile.obj
 0001:00006552       ?load_part_info@@YAEXZ     00407552 f   profile.obj
 0001:00006887       ?load_resources@@YAXXZ     00407887 f   profile.obj
 0001:00006f3c       $LN95                      00407f3c     profile.obj
 0001:00007a94       $LN213                     00408a94     profile.obj
 0001:00007af0       $LN214                     00408af0     profile.obj
 0001:00007b54       ?make_a_list_of_machines@@YAXPAUHWND__@@@Z 00408b54 f   profile.obj
 0001:00008320       ?next_time_period@@YAXPAUHWND__@@H@Z 00409320 f   profile.obj
 0001:000085fd       ?paint_background@@YAXXZ   004095fd f   profile.obj
 0001:0000867f       ?paint_day_param_display@@YAXAAUtagPAINTSTRUCT@@@Z 0040967f f   profile.obj
 0001:00008896       ?paint_me@@YAXXZ           00409896 f   profile.obj
 0001:00008b47       ?paint_the_curves@@YAXXZ   00409b47 f   profile.obj
 0001:00008d1e       ?plot_curve_index@@YAHG@Z  00409d1e f   profile.obj
 0001:00008d47       ?pos_of_time@@YAEAAM@Z     00409d47 f   profile.obj
 0001:00008dfe       ?position_corner_param_dialog@@YAXXZ 00409dfe f   profile.obj
 0001:00008f9e       ?position_machine_list_listbox@@YAXPAUHWND__@@@Z 00409f9e f   profile.obj
 0001:0000913f       ?position_zoom_box_window@@YAXXZ 0040a13f f   profile.obj
 0001:000091fc       ?print_alarm_summary@@YAXXZ 0040a1fc f   profile.obj
 0001:00009bb1       ?print_zoom_box@@YAXXZ     0040abb1 f   profile.obj
 0001:00009de7       ?printer_parameter_box_height@@YAHXZ 0040ade7 f   profile.obj
 0001:00009fdc       ?register_for_current_machine@@YAXXZ 0040afdc f   profile.obj
 0001:0000a02b       ?release_mydc@@YAXXZ       0040b02b f   profile.obj
 0001:0000a05b       ?remove_overlay_shot@@YAXH@Z 0040b05b f   profile.obj
 0001:0000a0b1       ?reset_plot_curves@@YAXXZ  0040b0b1 f   profile.obj
 0001:0000a17f       ?rod_head_label@@YAXXZ     0040b17f f   profile.obj
 0001:0000a363       ?run_external_program@@YAEH@Z 0040b363 f   profile.obj
 0001:0000a444       ?run_monall@@YAXXZ         0040b444 f   profile.obj
 0001:0000a499       ?run_tool@@YAXH@Z          0040b499 f   profile.obj
 0001:0000a573       ?save_changes@@YAXXZ       0040b573 f   profile.obj
 0001:0000a730       ?save_screen_types@@YAXXZ  0040b730 f   profile.obj
 0001:0000a7b6       ?save_serial_number@@YA_NPAUHWND__@@@Z 0040b7b6 f   profile.obj
 0001:0000a832       ?save_signed_on_operator@@YAXPAUHWND__@@@Z 0040b832 f   profile.obj
 0001:0000aac3       ?save_tsl_tbox_to_part@@YAXPAUHWND__@@@Z 0040bac3 f   profile.obj
 0001:0000ad0c       ?select_myfont@@YAXXZ      0040bd0c f   profile.obj
 0001:0000ad79       ?select_printer_font@@YAXXZ 0040bd79 f   profile.obj
 0001:0000add5       ?set_about_setup_strings@@YAXPAUHWND__@@@Z 0040bdd5 f   profile.obj
 0001:0000ae8b       ?set_alarm_log_setup_strings@@YAXPAUHWND__@@@Z 0040be8b f   profile.obj
 0001:0000af5a       ?set_alarm_summary_setup_strings@@YAXPAUHWND__@@@Z 0040bf5a f   profile.obj
 0001:0000b044       ?set_choose_downtime_machine_setup_strings@@YAXPAUHWND__@@@Z 0040c044 f   profile.obj
 0001:0000b10a       ?set_choose_language_setup_strings@@YAXPAUHWND__@@@Z 0040c10a f   profile.obj
 0001:0000b178       ?set_corner_param_setup_strings@@YAXXZ 0040c178 f   profile.obj
 0001:0000b251       ?set_csv_shot_file_strings@@YAXPAUHWND__@@@Z 0040c251 f   profile.obj
 0001:0000b2a6       ?set_csv_shot_name@@YAXPAUHWND__@@@Z 0040c2a6 f   profile.obj
 0001:0000b3e7       ?set_current_display@@YAXH@Z 0040c3e7 f   profile.obj
 0001:0000b454       ?set_downtime_entry_setup_strings@@YAXPAUHWND__@@@Z 0040c454 f   profile.obj
 0001:0000b523       ?set_downtime_from_choice@@YA_NXZ 0040c523 f   profile.obj
 0001:0000ba4e       ?set_lb_from_xbox@@YAXXZ   0040ca4e f   profile.obj
 0001:0000bb13       ?set_load_from_network_setup_strings@@YAXPAUHWND__@@@Z 0040cb13 f   profile.obj
 0001:0000bba5       ?set_machine_list_setup_strings@@YAXPAUHWND__@@@Z 0040cba5 f   profile.obj
 0001:0000bc69       ?set_op_signon_setup_strings@@YAXPAUHWND__@@@Z 0040cc69 f   profile.obj
 0001:0000c19d       ?set_tsl_setup_strings@@YAXPAUHWND__@@@Z 0040d19d f   profile.obj
 0001:0000c26c       ?set_tsl_tbox_from_biscuit@@YAXPAUHWND__@@@Z 0040d26c f   profile.obj
 0001:0000c31e       ?set_xbox_from_lb@@YAXXZ   0040d31e f   profile.obj
 0001:0000c3c9       ?set_zoom_axis@@YAXHHHH@Z  0040d3c9 f   profile.obj
 0001:0000c643       ?set_zoom_grayness@@YAXXZ  0040d643 f   profile.obj
 0001:0000c687       ?set_zoom_setup_strings@@YAXPAUHWND__@@@Z 0040d687 f   profile.obj
 0001:0000c725       ?show_alarm_state_in_lower_left_corner@@YAXXZ 0040d725 f   profile.obj
 0001:0000ca38       ?show_corner_parameters@@YAXXZ 0040da38 f   profile.obj
 0001:0000cf76       ?show_last_screen_type@@YAXXZ 0040df76 f   profile.obj
 0001:0000d2a2       ?show_marks@@YAXXZ         0040e2a2 f   profile.obj
 0001:0000d51d       ?show_overlays@@YAXXZ      0040e51d f   profile.obj
 0001:0000d575       ?show_pos_mark@@YAXMPAUMARKLIST_ENTRY@@@Z 0040e575 f   profile.obj
 0001:0000d5ac       ?show_printer_parameters@@YAXXZ 0040e5ac f   profile.obj
 0001:0000e03b       ?show_time_mark@@YAXMPAUMARKLIST_ENTRY@@PAUPARAMETER_ENTRY@@@Z 0040f03b f   profile.obj
 0001:0000e0ad       ?show_timeout_message@@YAXPAD@Z 0040f0ad f   profile.obj
 0001:0000e74b       ?shutdown@@YAXXZ           0040f74b f   profile.obj
 0001:0000e819       ?size_grid@@YAXXZ          0040f819 f   profile.obj
 0001:0000e875       ?size_plot_window_to_screen@@YAXXZ 0040f875 f   profile.obj
 0001:0000e8e5       ?size_profile_window@@YAXUtagRECT@@@Z 0040f8e5 f   profile.obj
 0001:0000e9ff       ?size_rectangles_to_current_display@@YAXXZ 0040f9ff f   profile.obj
 0001:0000ea45       ?sort_machine_list@@YAXPAUHWND__@@H@Z 0040fa45 f   profile.obj
 0001:0000ec7a       ?start_password_level_timeout_timer@@YA_NXZ 0040fc7a f   profile.obj
 0001:0000eda5       ?show_text@@YAXHHPBD@Z     0040fda5 f   profile.obj
 0001:0000edc9       ?time_of_pos@@YAEAAM@Z     0040fdc9 f   profile.obj
 0001:0000eec0       ?toggle_current_display_type@@YAXXZ 0040fec0 f   profile.obj
 0001:0000efc4       ?turn_off_zooming@@YAXXZ   0040ffc4 f   profile.obj
 0001:0000efdf       ?unregister_for_current_machine@@YAXXZ 0040ffdf f   profile.obj
 0001:0000f022       ?unzoom@@YAXE@Z            00410022 f   profile.obj
 0001:0000f0a6       ?update_day_param_display@@YAXXZ 004100a6 f   profile.obj
 0001:0000f9aa       ?x_axis_label@@YAXAAUtagRECT@@PAD@Z 004109aa f   profile.obj
 0001:0000faf7       ?y_axis_label@@YAXAAUtagRECT@@PAD1GKK@Z 00410af7 f   profile.obj
 0001:0000fc77       ?zoom@@YAXUtagPOINT@@@Z    00410c77 f   profile.obj
 0001:0000fd42       ?zoomed@@YAEXZ             00410d42 f   profile.obj
 0001:0000fed4       ?copy_to_clipboard@@YAXXZ  00410ed4 f   alarmexp.obj
 0001:000101b6       ?fill_export_listbox@@YAXXZ 004111b6 f   alarmexp.obj
 0001:000103b2       ?gray_buttons@@YAXXZ       004113b2 f   alarmexp.obj
 0001:00010407       ?kill_alarmsum_data@@YAXXZ 00411407 f   alarmexp.obj
 0001:00010512       ?set_export_alarms_tab_stops@@YAXXZ 00411512 f   alarmexp.obj
 0001:00010b42       ?box_display_restart@@YAXXZ 00411b42 f   box.obj
 0001:00011be3       ?resize_the_status_boxes@@YAXXZ 00412be3 f   box.obj
 0001:000122a9       ?choose_this_part@@YAXXZ   004132a9 f   chospart.obj
 0001:000123b2       ?copy_selections_to_extern@@YAXXZ 004133b2 f   chospart.obj
 0001:00012478       ?current_machine_name@@YAPADXZ 00413478 f   chospart.obj
 0001:0001250e       ?fill_parts@@YAXXZ         0041350e f   chospart.obj
 0001:000125fb       ?fill_statics@@YAXPAUHWND__@@@Z 004135fb f   chospart.obj
 0001:000126ca       ?choose_these_shots@@YAXXZ 004136ca f   chosshot.obj
 0001:00012a6d       ?current_machine_name@@YAAAVSTRING_CLASS@@XZ 00413a6d f   chosshot.obj
 0001:00012af3       ?current_part_name@@YAAAVSTRING_CLASS@@XZ 00413af3 f   chosshot.obj
 0001:00012b8a       ?fill_parts@@YAXE@Z        00413b8a f   chosshot.obj
 0001:00012d5e       ?fill_shots@@YAXXZ         00413d5e f   chosshot.obj
 0001:00013064       ?fill_statics@@YAXPAUHWND__@@@Z 00414064 f   chosshot.obj
 0001:00013133       ?position_dialog@@YAXXZ    00414133 f   chosshot.obj
 0001:000131a7       ?set_listbox_id@@YAXXZ     004141a7 f   chosshot.obj
 0001:000133f2       ?draw_one_item@@YAXIPAUtagDRAWITEMSTRUCT@@@Z 004143f2 f   colordef.obj
 0001:000134f5       ?redisplay_colors@@YAXI@Z  004144f5 f   colordef.obj
 0001:00013540       ?redisplay_window@@YAXPAUHWND__@@@Z 00414540 f   colordef.obj
 0001:00013564       ?restore_default_colors@@YAXXZ 00414564 f   colordef.obj
 0001:0001369c       ?set_color_def_setup_strings@@YAXPAUHWND__@@@Z 0041469c f   colordef.obj
 0001:00013838       ?get_saved_color@@YAHPAKPBD@Z 00414838 f   colors.obj
 0001:00013877       ?restore_color_set@@YAXPAKPBD@Z 00414877 f   colors.obj
 0001:00013960       ?save_color_set@@YAXPBDPAK@Z 00414960 f   colors.obj
 0001:0001402d       ?boolean_to_ini@@YAXPBDE@Z 0041502d f   dbarcfg.obj
 0001:0001416d       ?export_downtimes@@YAXPAUHWND__@@@Z 0041516d f   dbarcfg.obj
 0001:0001463d       ?get_date@@YAAAU_SYSTEMTIME@@PAUHWND__@@III@Z 0041563d f   dbarcfg.obj
 0001:000147f9       ?get_record_range@@YAXAAJ0AAVDB_TABLE@@PAUHWND__@@@Z 004157f9 f   dbarcfg.obj
 0001:00014962       ?gray_controls@@YAXPAUHWND__@@@Z 00415962 f   dbarcfg.obj
 0001:00014a55       ?init_controls@@YAXPAUHWND__@@@Z 00415a55 f   dbarcfg.obj
 0001:00014c85       ?purge@@YAXPAUHWND__@@@Z   00415c85 f   dbarcfg.obj
 0001:00014f00       ?save_changes@@YAXPAUHWND__@@@Z 00415f00 f   dbarcfg.obj
 0001:00014f48       ?set_downtime_report_setup_strings@@YAXPAUHWND__@@@Z 00415f48 f   dbarcfg.obj
 0001:00015017       ?shutdown@@YAXPAUHWND__@@@Z 00416017 f   dbarcfg.obj
 0001:00015035       ?time_to_screen@@YAXPAUHWND__@@HAAU_SYSTEMTIME@@@Z 00416035 f   dbarcfg.obj
 0001:00015123       ?check_one_set_of_buttons@@YAXGH@Z 00416123 f   dconfig.obj
 0001:000151f3       ?check_the_channel_buttons@@YAXXZ 004161f3 f   dconfig.obj
 0001:00015215       ?check_the_pressure_buttons@@YAXXZ 00416215 f   dconfig.obj
 0001:0001549e       ?init_choices@@YAXXZ       0041649e f   dconfig.obj
 0001:000157bf       ?load_one_config@@YAXAAGPAD@Z 004167bf f   dconfig.obj
 0001:000157f8       ?load_smooth@@YAXE@Z       004167f8 f   dconfig.obj
 0001:00015b91       ?read_the_fixed_channels@@YAXXZ 00416b91 f   dconfig.obj
 0001:00015c09       ?read_the_fixed_pressures@@YAXXZ 00416c09 f   dconfig.obj
 0001:00015c81       ?save_one_config@@YAXPADG@Z 00416c81 f   dconfig.obj
 0001:00015cd0       ?save_smooth_config_from_screen@@YAXXZ 00416cd0 f   dconfig.obj
 0001:00015e53       ?save_this_config@@YAXH@Z  00416e53 f   dconfig.obj
 0001:0001616e       ?set_display_config_setup_strings@@YAXPAUHWND__@@@Z 0041716e f   dconfig.obj
 0001:00017f2e       ?load_grid@@YAXXZ          00418f2e f   editop.obj
 0001:00018583       ?set_edit_operators_setup_strings@@YAXPAUHWND__@@@Z 00419583 f   editop.obj
 0001:0001862b       ?set_input_error_setup_strings@@YAXPAUHWND__@@@Z 0041962b f   editop.obj
 0001:00018712       ?copy_this_day@@YAXXZ      00419712 f   editshif.obj
 0001:000188c5       ?do_insert@@YAXXZ          004198c5 f   editshif.obj
 0001:000189b6       ?do_remove@@YAXXZ          004199b6 f   editshif.obj
 0001:00018a9c       ?do_select@@YAXXZ          00419a9c f   editshif.obj
 0001:00018cbb       ?fill_listbox@@YAXXZ       00419cbb f   editshif.obj
 0001:00019027       ?refresh_listbox_entry@@YAXXZ 0041a027 f   editshif.obj
 0001:00019209       ?set_edit_shifts_setup_strings@@YAXPAUHWND__@@@Z 0041a209 f   editshif.obj
 0001:000192d8       ?set_tab_stops@@YAXXZ      0041a2d8 f   editshif.obj
 0001:0001931b       ?two_char_int32@@YAPADJ@Z  0041a31b f   editshif.obj
 0001:0001934a       ?copy_to_clipboard@@YAXXZ  0041a34a f   export.obj
 0001:00019d94       ?fill_parameter_names@@YAXXZ 0041ad94 f   export.obj
 0001:00019e92       ?fill_shots@@YAXXZ         0041ae92 f   export.obj
 0001:0001a09d       ?gethelp@@YAXIK@Z          0041b09d f   export.obj
 0001:0001a0e7       ?save_selected_parameter_list@@YAXPAHH@Z 0041b0e7 f   export.obj
 0001:0001a16b       ?select_all@@YAXH@Z        0041b16b f   export.obj
 0001:0001a1ba       ?set_export_shots_setup_strings@@YAXPAUHWND__@@@Z 0041b1ba f   export.obj
 0001:0001a8e9       ?is_out@@YAEFMFF@Z         0041b8e9 f   isalarm.obj
 0001:0001ad38       ?draw_line@@YAXPAUHDC__@@HHHH@Z 0041bd38 f   mplot.obj
 0001:0001b019       ?load_bigfont@@YAEPAUHDC__@@PADAAUtagRECT@@1@Z 0041c019 f   mplot.obj
 0001:0001b0b6       ?loadfont@@YAEPAUHDC__@@PADJJ@Z 0041c0b6 f   mplot.obj
 0001:0001b939       ?round_up@@YAMMM@Z         0041c939 f   mplot.obj
 0001:0001bcfc       ?unloadfont@@YAXPAUHDC__@@@Z 0041ccfc f   mplot.obj
 0001:0001bde6       ?check_for_newshot_to_show@@YAXXZ 0041cde6 f   mulprint.obj
 0001:0001befc       ?current_machine_name@@YAPADXZ 0041cefc f   mulprint.obj
 0001:0001c045       ?fill_parts@@YAXXZ         0041d045 f   mulprint.obj
 0001:0001c0d2       ?fill_shots@@YAXXZ         0041d0d2 f   mulprint.obj
 0001:0001c5a8       ?set_mp_tabs@@YAXXZ        0041d5a8 f   mulprint.obj
 0001:0001c5ea       ?set_print_multiple_setup_strings@@YAXPAUHWND__@@@Z 0041d5ea f   mulprint.obj
 0001:0001c95b       ?allocate_dynamic_arrays@@YAXXZ 0041d95b f   paramhis.obj
 0001:0001ca60       ?cleanup_dynamic_arrays@@YAXXZ 0041da60 f   paramhis.obj
 0001:0001caa8       ?draw_parameter_history@@YAXPAUHDC__@@@Z 0041daa8 f   paramhis.obj
 0001:0001cfe4       ?highlight_current_history_selection@@YAXPAUHDC__@@@Z 0041dfe4 f   paramhis.obj
 0001:0001d5b9       ?choose_font@@YA_NXZ       0041e5b9 f   paramwin.obj
 0001:0001d662       ?init@@YAXXZ               0041e662 f   paramwin.obj
 0001:0001d7ea       ?paint_me@@YAXPAUHWND__@@@Z 0041e7ea f   paramwin.obj
 0001:0001e386       ?am_i_encrypted@@YAEXZ     0041f386 f   password.obj
 0001:0001e521       ?cooptionshelp@@YAXIK@Z    0041f521 f   password.obj
 0001:0001e56b       ?copy_passwords_to_network@@YAXXZ 0041f56b f   password.obj
 0001:0001ea16       ?enable_edit_passwords@@YAXJ@Z 0041fa16 f   password.obj
 0001:0001ec38       ?exit_co_options@@YAXXZ    0041fc38 f   password.obj
 0001:0001ec6b       ?exit_edit_passwords@@YAXXZ 0041fc6b f   password.obj
 0001:0001ec9a       ?fill_co_options@@YAXXZ    0041fc9a f   password.obj
 0001:0001f815       ?gethelp@@YAXPAUHWND__@@IK@Z 00420815 f   password.obj
 0001:0001fb30       ?log_password@@YAXPAD@Z    00420b30 f   password.obj
 0001:0001fe0c       ?save_changes@@YA_NXZ      00420e0c f   password.obj
 0001:00020045       ?save_co_options@@YAEXZ    00421045 f   password.obj
 0001:000200f3       ?save_co_options_to_computer@@YAXXZ 004210f3 f   password.obj
 0001:00020a75       ?set_co_options_setup_strings@@YAXPAUHWND__@@@Z 00421a75 f   password.obj
 0001:00020bf8       ?set_edit_passwords_setup_strings@@YAXPAUHWND__@@@Z 00421bf8 f   password.obj
 0001:00020ca0       ?set_password_level@@YAEXZ 00421ca0 f   password.obj
 0001:00020ef3       ?show_context_help@@YAHPAUHWND__@@J@Z 00421ef3 f   password.obj
 0001:00021104       ?dac_volts@@YANI@Z         00422104 f   plot.obj
 0001:000212fb       ?get_reference_trace_name@@YAEAAVNAME_CLASS@@@Z 004222fb f   plot.obj
 0001:0002151a       ?make_date_string@@YAXXZ   0042251a f   plot.obj
 0001:0002158a       ?read_ftii_profile@@YAHPAD@Z 0042258a f   plot.obj
 0001:00021efc       ?smooth_one_curve@@YAXPAMH@Z 00422efc f   plot.obj
 0001:00021f60       ?fill_listbox@@YAXD@Z      00422f60 f   rtmlist.obj
 0001:00022025       ?gethelp@@YAXIK@Z          00423025 f   rtmlist.obj
 0001:000220f7       ?machine_listbox_string@@YAPADAAVSTRING_CLASS@@D@Z 004230f7 f   rtmlist.obj
 0001:00022385       ?save_changes@@YAXXZ       00423385 f   rtmlist.obj
 0001:0002246b       ?set_rt_machine_setup_strings@@YAXPAUHWND__@@@Z 0042346b f   rtmlist.obj
 0001:000225d7       ?toggle_listbox_string@@YAXXZ 004235d7 f   rtmlist.obj
 0001:00022a7e       ?create_header_control@@YAXXZ 00423a7e f   status.obj
 0001:00023100       ?find_row@@YAHAAVSTRING_CLASS@@@Z 00424100 f   status.obj
 0001:000232a9       ?get_part_info@@YAEAAVSTATUS_SCREEN_ROW_ENTRY@@@Z 004242a9 f   status.obj
 0001:00023376       ?get_status_screen_column_widths@@YAXXZ 00424376 f   status.obj
 0001:00023b74       ?show_cycle_start@@YAXH@Z  00424b74 f   status.obj
 0001:00024358       ?show_one_row_only@@YAXH@Z 00425358 f   status.obj
 0001:00024be3       ?current_parameter_name@@YAPADPAUHWND__@@@Z 00425be3 f   tcconfig.obj
 0001:00024c60       ?do_new_listbox_line@@YAXPAUHWND__@@@Z 00425c60 f   tcconfig.obj
 0001:00024d17       ?fill_parameter_list@@YAXPAUHWND__@@@Z 00425d17 f   tcconfig.obj
 0001:00024f17       ?fill_tc_visible_lb@@YAXPAUHWND__@@@Z 00425f17 f   tcconfig.obj
 0001:00025157       ?get_radio_box_index@@YAJPAUHWND__@@JJ@Z 00426157 f   tcconfig.obj
 0001:000255ea       ?refresh_listbox_entry@@YAXPAUHWND__@@@Z 004265ea f   tcconfig.obj
 0001:000256ab       ?save_changes@@YAXPAUHWND__@@@Z 004266ab f   tcconfig.obj
 0001:00025858       ?save_tc_visible@@YAXPAUHWND__@@@Z 00426858 f   tcconfig.obj
 0001:000258fa       ?set_tc_visible_setup_strings@@YAXPAUHWND__@@@Z 004268fa f   tcconfig.obj
 0001:000259be       ?set_trend_config_setup_strings@@YAXPAUHWND__@@@Z 004269be f   tcconfig.obj
 0001:00026178       ?cellvalue@@YAMJJ@Z        00427178 f   trend.obj
 0001:0002618f       ?check_grid_height@@YAXH@Z 0042718f f   trend.obj
 0001:00026406       ?double_click@@YAXAAVSTRING_CLASS@@@Z 00427406 f   trend.obj
 0001:0002659c       ?draw_cursor_line@@YAXPAUHDC__@@@Z 0042759c f   trend.obj
 0001:0002665e       ?erase_cursor_line@@YAXXZ  0042765e f   trend.obj
 0001:000268be       ?line@@YAXPAUHDC__@@@Z     004278be f   trend.obj
 0001:00026908       ?load_data@@YAXXZ          00427908 f   trend.obj
 0001:000281ba       ?set_celltext@@YAXHJM@Z    004291ba f   trend.obj
 0001:000281f3       ?set_column_widths@@YAXXZ  004291f3 f   trend.obj
 0001:00028b1a       ?draw_one_item@@YAXPAUtagDRAWITEMSTRUCT@@@Z 00429b1a f   viewpara.obj
 0001:00028e7f       ?set_view_parameters_setup_strings@@YAXPAUHWND__@@@Z 00429e7f f   viewpara.obj
 0001:00028f27       ?size_view_parameters_listbox@@YAXXZ 00429f27 f   viewpara.obj
 0001:0002a02b       ?paint_me@@YA_NXZ          0042b02b f   xdcrplot.obj
 0001:0002a7dd       ?vline@@YAXPAUHDC__@@HHH@Z 0042b7dd f   xdcrplot.obj
 0001:0002a9c3       ?file_type@@YAHPAD@Z       0042b9c3 f   v5subs:exists.obj
 0001:0002b2eb       ?numberlen@@YAFPBD@Z       0042c2eb f   v5subs:extract.obj
 0001:0002ca5d       ?kill_sensor_array@@YAXXZ  0042da5d f   v5subs:asensor.obj
 0001:0002dc2a       ?fieldlength@@YAFPBD@Z     0042ec2a f   v5subs:dbsubs.obj
 0001:0002ea6d       ?trim_text@@YAFPADF@Z      0042fa6d f   v5subs:dbsubs.obj
 0001:0002eb38       ?downstate@@YAHPAD0@Z      0042fb38 f   v5subs:dstat.obj
 0001:0002faa7       ?ascii_long@@YAPADJ@Z      00430aa7 f   v5subs:fontclas.obj
 0001:0002fb60       ?copy_w_comma@@YAPADPAD0@Z 00430b60 f   v5subs:fontclas.obj
 0001:0002fe20       ?goto_next_string@@YAPADPAD@Z 00430e20 f   v5subs:fontclas.obj
 0001:0002fe2e       ?long_from_text@@YAJPBD@Z  00430e2e f   v5subs:fontclas.obj
 0001:00030002       ?get_ft_target_list@@YA_NPA_NAAVSTRING_CLASS@@11@Z 00431002 f   v5subs:ftanalog.obj
 0001:00031be5       ?get_binary_valve_settings_from_control_all@@YAXAAVMACHINE_CLASS@@@Z 00432be5 f   v5subs:machine.obj
 0001:00032e5f       ?compare_date@@YAHPAD0@Z   00433e5f f   v5subs:vdbclass.obj
 0001:00035e4c       ?init_systemtime@@YAXAAU_SYSTEMTIME@@@Z 00436e4c f   v5subs:timeclas.obj
 0001:00035e70       ?leap_index@@YAHH@Z        00436e70 f   v5subs:timeclas.obj
 0001:000378ab       ?strip_whitespace_from_eol@@YAXPAD@Z 004388ab f   v5subs:stringtable.obj
 0001:00037f33       $LN123                     00438f33     v5subs:unitadj.obj
 0001:000388b5       ?find_existing_event_item@@YAPAUEVENT_ITEM_ENTRY@@PAUEVENT_ENTRY@@F@Z 004398b5 f   v5subs:client.obj
 0001:000388ee       ?find_existing_event_topic@@YAPAUEVENT_ENTRY@@PAD@Z 004398ee f   v5subs:client.obj
 0001:00038cb4       ?cleanup_dcurves@@YAXXZ    00439cb4 f   v5subs:dcurve.obj
 0001:00038dae       ?reload_dcurves@@YAEXZ     00439dae f   v5subs:dcurve.obj
 0001:000396f6       ?ftoasc@@YAXPADNH@Z        0043a6f6 f   v5subs:ftoasc.obj
 0001:0003984d       ?get_static_exe_directory@@YAXXZ 0043a84d f   v5subs:gexedir.obj
 0001:0003a1f0       ?add_seconds_to_systemtime@@YAEAAU_SYSTEMTIME@@J@Z 0043b1f0 f   v5subs:shift.obj
 0001:0003a316       ?shift_from_rec@@YAXPAFFAAVDB_TABLE@@@Z 0043b316 f   v5subs:shift.obj
 0001:0003a3d7       ?shift_index@@YAFABU_SYSTEMTIME@@@Z 0043b3d7 f   v5subs:shift.obj
 0001:0003a768       ?units_index@@YAFF@Z       0043b768 f   v5subs:units.obj
 0001:0003b13d       ?paint_temp_message@@YAXXZ 0043c13d f   v5subs:temp_message.obj
 0001:0003b1da       ?position_temp_message@@YAXPAUHWND__@@@Z 0043c1da f   v5subs:temp_message.obj
 0001:0003bc9c       ?variable_number@@YAHPBD@Z 0043cc9c f   v5subs:ftiiclas.obj
 0001:0003e950       ?do_nothing_paint_me@@YAXPAUHWND__@@@Z 0043f950 f   v5subs:menuctrl.obj
 0001:0003ecdf       ?get_current_colors@@YAXPAD@Z 0043fcdf f   v5subs:menuctrl.obj
 0001:00040572       ?fill_parts_and_counts_listbox@@YAXPAUHWND__@@HAAVSTRING_CLASS@@1DE@Z 00441572 f   v5subs:fillpart.obj
 0001:00042a0f       ?get_position@@YANPANHNAAVSTRING_CLASS@@@Z 00443a0f f   v5subs:ftii_parameters.obj
 0001:00042a7b       ?set_source_data@@YAXPAVSOURCE_DATA@@HHAAVFTII_PROFILE@@AAVPART_CLASS@@@Z 00443a7b f   v5subs:ftii_parameters.obj
 0001:00042b16       ?set_source_data@@YAXPAVSOURCE_DATA@@HNAAVFTII_PROFILE@@AAVPART_CLASS@@@Z 00443b16 f   v5subs:ftii_parameters.obj
 0001:0004334c       ?add_err_number@@YAXPADF@Z 0044434c f   v5subs:error_ms.obj
 0001:000433ce       ?add_string@@YAXPAD@Z      004443ce f   v5subs:error_ms.obj
 0001:00043441       ?wait_for_key@@YAXXZ       00444441 f   v5subs:error_ms.obj
 0001:0004aedf       $LN20                      0044bedf     dundas:ughscrol.obj
 0001:0004d788       $LN20                      0044e788     dundas:ugvscrol.obj
 0001:00052488       __onexit_nolock            00453488 f   LIBCMT:onexit.obj
 0001:00052780       $$000000                   00453780     LIBCMT:chkstk.obj
 0001:000527b0       $$000000                   004537b0     LIBCMT:ftol3.obj
 0001:00052b80       $$000000                   00453b80     LIBCMT:memset.obj
 0001:00052cc0       $$000000                   00453cc0     LIBCMT:sqrt.obj
 0001:00052d80       $$000000                   00453d80     LIBCMT:floor_pentium4.obj
 0001:00052eab       ___tmainCRTStartup         00453eab f   LIBCMT:wincrt0.obj
 0001:00052ffb       _fast_error_exit           00453ffb f   LIBCMT:wincrt0.obj
 0001:000531d6       ?strtoxl@@YAKPAUlocaleinfo_struct@@PBDPAPBDHH@Z 004541d6 f   LIBCMT:strtol.obj
 0001:00053450       $$000000                   00454450     LIBCMT:memcpy.obj
 0001:000536a0       LeadUpVec                  004546a0     LIBCMT:memcpy.obj
 0001:0005371c       UnwindUpVec                0045471c     LIBCMT:memcpy.obj
 0001:00053788       TrailUpVec                 00454788     LIBCMT:memcpy.obj
 0001:0005382c       LeadDownVec                0045482c     LIBCMT:memcpy.obj
 0001:000538b8       UnwindDownVec              004548b8     LIBCMT:memcpy.obj
 0001:00053924       TrailDownVec               00454924     LIBCMT:memcpy.obj
 0001:00053a94       ?_fpcvt@@YAHPADIPAU_strflt@@HPAH2@Z 00454a94 f   LIBCMT:fcvt.obj
 0001:00053bc0       $$000000                   00454bc0     LIBCMT:log10.obj
 0001:00053d10       $$000000                   00454d10     LIBCMT:ulldiv.obj
 0001:00053d80       $$000000                   00454d80     LIBCMT:ftol2.obj
 0001:00053e30       $$000000                   00454e30     LIBCMT:ceil_pentium4.obj
 0001:00053f50       $$000000                   00454f50     LIBCMT:lldiv.obj
 0001:00054000       $$000000                   00455000     LIBCMT:llmul.obj
 0001:00054040       $$000000                   00455040     LIBCMT:memmove.obj
 0001:00054290       LeadUpVec                  00455290     LIBCMT:memmove.obj
 0001:0005430c       UnwindUpVec                0045530c     LIBCMT:memmove.obj
 0001:00054378       TrailUpVec                 00455378     LIBCMT:memmove.obj
 0001:0005441c       LeadDownVec                0045541c     LIBCMT:memmove.obj
 0001:000544a8       UnwindDownVec              004554a8     LIBCMT:memmove.obj
 0001:00054514       TrailDownVec               00455514     LIBCMT:memmove.obj
 0001:00055d7c       $LN1281                    00456d7c     LIBCMT:memcmp.obj
 0001:00055e00       $$000000                   00456e00     LIBCMT:strstr.obj
 0001:0005641f       __initterm                 0045741f f   LIBCMT:crt0dat.obj
 0001:00056489       _doexit                    00457489 f   LIBCMT:crt0dat.obj
 0001:000566e0       $$000000                   004576e0     LIBCMT:sehprolg4.obj
 0001:00057600       $$000000                   00458600     LIBCMT:strcmp.obj
 0001:00057b1e       __cftoe2_l                 00458b1e f   LIBCMT:cvt.obj
 0001:00057d3d       __cftof2_l                 00458d3d f   LIBCMT:cvt.obj
 0001:00058173       __shift                    00459173 f   LIBCMT:cvt.obj
 0001:000581f0       $$000000                   004591f0     LIBCMT:87disp.obj
 0001:000583c0       $$000000                   004593c0     LIBCMT:genexcep.obj
 0001:00058420       $$000000                   00459420     LIBCMT:common.obj
 0001:0005885c       $LN79                      0045985c     LIBCMT:libm_error.obj
 0001:00059418       _parse_cmdline             0045a418 f   LIBCMT:stdargv.obj
 0001:0005a0e6       ?CPtoLocaleName@@YAPB_WH@Z 0045b0e6 f   LIBCMT:mbctype.obj
 0001:0005a120       ?getSystemCP@@YAHH@Z       0045b120 f   LIBCMT:mbctype.obj
 0001:0005a18e       ?setSBCS@@YAXPAUthreadmbcinfostruct@@@Z 0045b18e f   LIBCMT:mbctype.obj
 0001:0005a1ed       ?setSBUpLow@@YAXPAUthreadmbcinfostruct@@@Z 0045b1ed f   LIBCMT:mbctype.obj
 0001:0005aad0       $$000000                   0045bad0     LIBCMT:log10_pentium4.obj
 0001:0005ad60       $$000000                   0045bd60     LIBCMT:87tran.obj
 0001:0005b030       $$000000                   0045c030     LIBCMT:strchr.obj
 0001:0005b1b0       $$000000                   0045c1b0     LIBCMT:strlen.obj
 0001:0005b737       _siglookup                 0045c737 f   LIBCMT:winsig.obj
 0001:0005b8b0       $$000000                   0045c8b0     LIBCMT:exsup4.obj
 0001:0005b940       __unwind_handler4          0045c940 f   LIBCMT:exsup4.obj
 0001:0005bbf0       $$000000                   0045cbf0     LIBCMT:strrchr.obj
 0001:0005be80       $$000000                   0045ce80     LIBCMT:lldvrm.obj
 0001:0005bf60       $$000000                   0045cf60     LIBCMT:ullshr.obj
 0001:0005c272       ?x_ismbbtype_l@@YAHPAUlocaleinfo_struct@@IHH@Z 0045d272 f   LIBCMT:ismbbyte.obj
 0001:0005d8c3       $LN333                     0045e8c3     LIBCMT:strgtold.obj
 0001:0005ddd6       ?__crtLCMapStringA_stat@@YAHPAUlocaleinfo_struct@@PB_WKPBDHPADHHH@Z 0045edd6 f   LIBCMT:a_map.obj
 0001:0005e03e       ?__crtGetStringTypeA_stat@@YAHPAUlocaleinfo_struct@@KPBDHPAGHH@Z 0045f03e f   LIBCMT:a_str.obj
 0001:0005efd3       _flsall                    0045ffd3 f   LIBCMT:fflush.obj
 0001:0005f0c0       $$000000                   004600c0     LIBCMT:exsup.obj
 0001:0005f0e0       __unwind_handler           004600e0 f   LIBCMT:exsup.obj
 0001:0005f200       $$000000                   00460200     LIBCMT:ulldvrm.obj
 0001:0005f295       ___hw_cw_sse2              00460295 f   LIBCMT:ieee87.obj
 0001:0005f640       __hw_cw                    00460640 f   LIBCMT:ieee87.obj
 0001:0005f960       $$000000                   00460960     LIBCMT:alloca16.obj
 0001:00060ac4       ??__FAnalogSensor@?1??write_std_units_csv_file@@YAEAAVSTRING_CLASS@@0@Z@YAXXZ 00461ac4 f   profile.obj
 0001:00060ace       ??__FArialBoldFontName@@YAXXZ 00461ace f   profile.obj
 0001:00060ad8       ??__FArialFontName@@YAXXZ  00461ad8 f   profile.obj
 0001:00060ae2       ??__FCats@@YAXXZ           00461ae2 f   profile.obj
 0001:00060aec       ??__FChannelAxisLabel@@YAXXZ 00461aec f   profile.obj
 0001:00060af6       ??__FComputerName@@YAXXZ   00461af6 f   profile.obj
 0001:00060b00       ??__FCurrentFtAnalog@@YAXXZ 00461b00 f   profile.obj
 0001:00060b0a       ??__FCurrentFtCalc@@YAXXZ  00461b0a f   profile.obj
 0001:00060b14       ??__FCurrentLanguage@@YAXXZ 00461b14 f   profile.obj
 0001:00060b1e       ??__FCurrentMachine@@YAXXZ 00461b1e f   profile.obj
 0001:00060b28       ??__FCurrentMarks@@YAXXZ   00461b28 f   profile.obj
 0001:00060b32       ??__FCurrentParam@@YAXXZ   00461b32 f   profile.obj
 0001:00060b3c       ??__FCurrentPart@@YAXXZ    00461b3c f   profile.obj
 0001:00060b46       ??__FCurrentSort@@YAXXZ    00461b46 f   profile.obj
 0001:00060b50       ??__FCurrentWorker@@YAXXZ  00461b50 f   profile.obj
 0001:00060b5a       ??__FDayParamCurrentEntry@@YAXXZ 00461b5a f   profile.obj
 0001:00060b64       ??__FDayParamFont@@YAXXZ   00461b64 f   profile.obj
 0001:00060b6e       ??__FDayParamLb@@YAXXZ     00461b6e f   profile.obj
 0001:00060b78       ??__FDayParamTitle@@YAXXZ  00461b78 f   profile.obj
 0001:00060b82       ??__FDowntimeComputerName@@YAXXZ 00461b82 f   profile.obj
 0001:00060b8c       ??__FDowntimeEntryLb@@YAXXZ 00461b8c f   profile.obj
 0001:00060b96       ??__FDowntimeEntryMachine@@YAXXZ 00461b96 f   profile.obj
 0001:00060ba0       ??__FDowntimeMachineName@@YAXXZ 00461ba0 f   profile.obj
 0001:00060baa       ??__FFontList@@YAXXZ       00461baa f   profile.obj
 0001:00060bb4       ??__FGrid@@YAXXZ           00461bb4 f   profile.obj
 0001:00060bbe       ??__FMachList@@YAXXZ       00461bbe f   profile.obj
 0001:00060bc8       ??__FMachineName@@YAXXZ    00461bc8 f   profile.obj
 0001:00060bd2       ??__FMainMenu@@YAXXZ       00461bd2 f   profile.obj
 0001:00060bdc       ??__FNewSetupMachine@@YAXXZ 00461bdc f   profile.obj
 0001:00060be6       ??__FOverlayShot@@YAXXZ    00461be6 f   profile.obj
 0001:00060c00       ??__FParameterListTitle@@YAXXZ 00461c00 f   profile.obj
 0001:00060c1a       ??__FParms@@YAXXZ          00461c1a f   profile.obj
 0001:00060c24       ??__FPartName@@YAXXZ       00461c24 f   profile.obj
 0001:00060c2e       ??__FPopupMenu@@YAXXZ      00461c2e f   profile.obj
 0001:00060c38       ??__FRealtimeMachineList@@YAXXZ 00461c38 f   profile.obj
 0001:00060c42       ??__FRegion@@YAXXZ         00461c42 f   profile.obj
 0001:00060c43       ??__FShotName@@YAXXZ       00461c43 f   profile.obj
 0001:00060c4d       ??__FStringTable@@YAXXZ    00461c4d f   profile.obj
 0001:00060c57       ??__FSubCats@@YAXXZ        00461c57 f   profile.obj
 0001:00060c61       ??__FTimesRomanFontName@@YAXXZ 00461c61 f   profile.obj
 0001:00060c6b       ??__FXdcrWindow@@YAXXZ     00461c6b f   profile.obj
 0001:00060c76       ??__Flb@?1??choose_downtime_machine_dialog_proc@@YGHPAUHWND__@@IIJ@Z@YAXXZ 00461c76 f   profile.obj
 0001:00060c80       ??__Fs@?1??set_lb_from_xbox@@YAXXZ@YAXXZ 00461c80 f   profile.obj
 0001:00060c8a       ??__Fs@?1??set_xbox_from_lb@@YAXXZ@YAXXZ 00461c8a f   profile.obj
 0001:00060c94       ??__Ft@?1??main_proc@@YGJPAUHWND__@@IIJ@Z@YAXXZ 00461c94 f   profile.obj
 0001:00060c9e       ??__Fmachine_name@?1??current_machine_name@@YAPADXZ@YAXXZ 00461c9e f   chospart.obj
 0001:00060ca8       ??__FMyPart@@YAXXZ         00461ca8 f   chosshot.obj
 0001:00060cb2       ??__Fmy_machine_name@?1??current_machine_name@@YAAAVSTRING_CLASS@@XZ@YAXXZ 00461cb2 f   chosshot.obj
 0001:00060cbc       ??__Fmy_part_name@?1??current_part_name@@YAAAVSTRING_CLASS@@XZ@YAXXZ 00461cbc f   chosshot.obj
 0001:00060cc6       ??__FVlb@@YAXXZ            00461cc6 f   dbarcfg.obj
 0001:00060cda       ??__Fbuf@?1??listbox_line@@YAPADAAVDB_TABLE@@@Z@YAXXZ 00461cda f   dbarcfg.obj
 0001:00060ce4       ??__FFixedChannels@@YAXXZ  00461ce4 f   dconfig.obj
 0001:00060cee       ??__FFixedPressures@@YAXXZ 00461cee f   dconfig.obj
 0001:00060cf8       ??__FIni@@YAXXZ            00461cf8 f   dconfig.obj
 0001:00060d02       ??__FConfig@@YAXXZ         00461d02 f   downbar.obj
 0001:00060d0c       ??__FDh@@YAXXZ             00461d0c f   downbar.obj
 0001:00060d16       ??__FTitles@@YAXXZ         00461d16 f   downbar.obj
 0001:00060d20       ??__FGrid@@YAXXZ           00461d20 f   editop.obj
 0001:00060d2a       ??__Fs@?1??export_shots_proc@@YGHPAUHWND__@@IIJ@Z@YAXXZ 00461d2a f   export.obj
 0001:00060d34       ??__FEmptyPlot@@YAXXZ      00461d34 f   mplot.obj
 0001:00060d3e       ??__Fmachine_name@?1??current_machine_name@@YAPADXZ@YAXXZ 00461d3e f   mulprint.obj
 0001:00060d48       ??__FHighHistoryShotName@@YAXXZ 00461d48 f   paramhis.obj
 0001:00060d52       ??__FLowHistoryShotName@@YAXXZ 00461d52 f   paramhis.obj
 0001:00060d5c       ??__FFontList@@YAXXZ       00461d5c f   paramwin.obj
 0001:00060d66       ??__FCoOptionsExeDir@@YAXXZ 00461d66 f   password.obj
 0001:00060d70       ??__FEmptyPasswordEntry@?1???APASSWORD_CLASS@@QAEAAUPASSWORD_ENTRY@@J@Z@YAXXZ 00461d70 f   password.obj
 0001:00060d71       ??__FGrid@@YAXXZ           00461d71 f   password.obj
 0001:00060d7b       ??__FLogFileName@@YAXXZ    00461d7b f   password.obj
 0001:00060d85       ??__FPassword@@YAXXZ       00461d85 f   password.obj
 0001:00060d8f       ??__FPasswordLogFormat@@YAXXZ 00461d8f f   password.obj
 0001:00060d99       ??__FAnalogSensor@@YAXXZ   00461d99 f   plot.obj
 0001:00060da3       ??__Fbuf@?1??machine_listbox_string@@YAPADAAVSTRING_CLASS@@D@Z@YAXXZ 00461da3 f   rtmlist.obj
 0001:00060dad       ??__FFontList@@YAXXZ       00461dad f   status.obj
 0001:00060db7       ??__Fs@?1??put@STATUS_SCREEN_COLUMN_ENTRY@@QAEPADXZ@YAXXZ 00461db7 f   status.obj
 0001:00060dc1       ??__FTc@@YAXXZ             00461dc1 f   tcconfig.obj
 0001:00060dcb       ??__Flinechanged@@YAXXZ    00461dcb f   tcconfig.obj
 0001:00060dd5       ??__FCurrent@@YAXXZ        00461dd5 f   trend.obj
 0001:00060ddf       ??__FParameters@@YAXXZ     00461ddf f   trend.obj
 0001:00060de9       ??__FPlots@@YAXXZ          00461de9 f   trend.obj
 0001:00060df3       ??__FTcConfig@@YAXXZ       00461df3 f   trend.obj
 0001:00060dfd       ??__FXAxis@@YAXXZ          00461dfd f   trend.obj
 0001:00060e07       ??__Fempty_shot@?1???ASHOT_ARRAY_CLASS@@QAEAAVSHOT_DATA_ENTRY@@J@Z@YAXXZ 00461e07 f   xaxis.obj
 0001:00060e11       ??__FEmptyString@@YAXXZ    00461e11 f   v5subs:nameclas.obj
 0001:00060e1b       ??__FEmptySensor@@YAXXZ    00461e1b f   v5subs:asensor.obj
 0001:00060e25       ??__FMyComputer@@YAXXZ     00461e25 f   v5subs:computer.obj
 0001:00060e2f       ??__FNoComputer@@YAXXZ     00461e2f f   v5subs:computer.obj
 0001:00060e39       ??__FEmptyString@@YAXXZ    00461e39 f   v5subs:machname.obj
 0001:00060e43       ??__Fempty_entry@@YAXXZ    00461e43 f   v5subs:setpoint.obj
 0001:00060e57       ??__FFontList@@YAXXZ       00461e57 f   v5subs:stringtable.obj
 0001:00060e61       ??__FEventList@@YAXXZ      00461e61 f   v5subs:client.obj
 0001:00060e6b       ??__Fs@?1??one_hot_link@@YAXPAUHCONV__@@FI@Z@YAXXZ 00461e6b f   v5subs:client.obj
 0001:00060e75       ??__FT@@YAXXZ              00461e75 f   v5subs:semaphor.obj
 0001:00060e7f       ??__FExeDirectory@@YAXXZ   00461e7f f   v5subs:gexedir.obj
 0001:00060e89       ??__FFontList@@YAXXZ       00461e89 f   v5subs:menuctrl.obj
 0001:00060e93       ??__FFontList@@YAXXZ       00461e93 f   v5subs:popctrl.obj
 0002:0000044c       _Region$initializer$       0046244c     profile.obj
 0002:00000450       _Axis$initializer$         00462450     profile.obj
 0002:00000454       _DowntimeComputerName$initializer$ 00462454     profile.obj
 0002:00000458       _DowntimeMachineName$initializer$ 00462458     profile.obj
 0002:0000045c       _ComputerName$initializer$ 0046245c     profile.obj
 0002:00000460       _MachineName$initializer$  00462460     profile.obj
 0002:00000464       _PartName$initializer$     00462464     profile.obj
 0002:00000468       _CurrentLanguage$initializer$ 00462468     profile.obj
 0002:0000046c       _ShotName$initializer$     0046246c     profile.obj
 0002:00000470       _CurrentMarks$initializer$ 00462470     profile.obj
 0002:00000474       _CurrentParam$initializer$ 00462474     profile.obj
 0002:00000478       _CurrentPart$initializer$  00462478     profile.obj
 0002:0000047c       _CurrentSort$initializer$  0046247c     profile.obj
 0002:00000480       _CurrentMachine$initializer$ 00462480     profile.obj
 0002:00000484       _CurrentFtAnalog$initializer$ 00462484     profile.obj
 0002:00000488       _CurrentFtCalc$initializer$ 00462488     profile.obj
 0002:0000048c       _ChannelAxisLabel$initializer$ 0046248c     profile.obj
 0002:00000490       _Parms$initializer$        00462490     profile.obj
 0002:00000494       _Cats$initializer$         00462494     profile.obj
 0002:00000498       _SubCats$initializer$      00462498     profile.obj
 0002:0000049c       _XdcrWindow$initializer$   0046249c     profile.obj
 0002:000004a0       _OverlayShot$initializer$  004624a0     profile.obj
 0002:000004a4       _MachList$initializer$     004624a4     profile.obj
 0002:000004a8       _RealtimeMachineList$initializer$ 004624a8     profile.obj
 0002:000004ac       _FontList$initializer$     004624ac     profile.obj
 0002:000004b0       _StringTable$initializer$  004624b0     profile.obj
 0002:000004b4       _ParameterListTitle$initializer$ 004624b4     profile.obj
 0002:000004b8       _MainMenu$initializer$     004624b8     profile.obj
 0002:000004bc       _PopupMenu$initializer$    004624bc     profile.obj
 0002:000004c0       _Grid$initializer$         004624c0     profile.obj
 0002:000004c4       _ArialFontName$initializer$ 004624c4     profile.obj
 0002:000004c8       _ArialBoldFontName$initializer$ 004624c8     profile.obj
 0002:000004cc       _TimesRomanFontName$initializer$ 004624cc     profile.obj
 0002:000004d0       _NewSetupMachine$initializer$ 004624d0     profile.obj
 0002:000004d4       _DayParamFont$initializer$ 004624d4     profile.obj
 0002:000004d8       _DayParamLb$initializer$   004624d8     profile.obj
 0002:000004dc       _DayParamTitle$initializer$ 004624dc     profile.obj
 0002:000004e0       _DayParamCurrentEntry$initializer$ 004624e0     profile.obj
 0002:000004e4       _DowntimeEntryLb$initializer$ 004624e4     profile.obj
 0002:000004e8       _DowntimeEntryMachine$initializer$ 004624e8     profile.obj
 0002:000004ec       _CurrentWorker$initializer$ 004624ec     profile.obj
 0002:000004f0       _MyPart$initializer$       004624f0     chosshot.obj
 0002:000004f4       _Vlb$initializer$          004624f4     dbarcfg.obj
 0002:000004f8       _FixedPressures$initializer$ 004624f8     dconfig.obj
 0002:000004fc       _FixedChannels$initializer$ 004624fc     dconfig.obj
 0002:00000500       _Ini$initializer$          00462500     dconfig.obj
 0002:00000504       _Config$initializer$       00462504     downbar.obj
 0002:00000508       _Titles$initializer$       00462508     downbar.obj
 0002:0000050c       _NoCode$initializer$       0046250c     downbar.obj
 0002:00000510       _UpCode$initializer$       00462510     downbar.obj
 0002:00000514       _NoCategory$initializer$   00462514     downbar.obj
 0002:00000518       _CurrentCategory$initializer$ 00462518     downbar.obj
 0002:0000051c       _Dh$initializer$           0046251c     downbar.obj
 0002:00000520       _Grid$initializer$         00462520     editop.obj
 0002:00000524       _EmptyPlot$initializer$    00462524     mplot.obj
 0002:00000528       _LowHistoryShotName$initializer$ 00462528     paramhis.obj
 0002:0000052c       _HighHistoryShotName$initializer$ 0046252c     paramhis.obj
 0002:00000530       _FontList$initializer$     00462530     paramwin.obj
 0002:00000534       _PasswordLogFormat$initializer$ 00462534     password.obj
 0002:00000538       _LogFileName$initializer$  00462538     password.obj
 0002:0000053c       _Password$initializer$     0046253c     password.obj
 0002:00000540       _Grid$initializer$         00462540     password.obj
 0002:00000544       _CoOptionsExeDir$initializer$ 00462544     password.obj
 0002:00000548       _AnalogSensor$initializer$ 00462548     plot.obj
 0002:0000054c       _De$initializer$           0046254c     status.obj
 0002:00000550       _FontList$initializer$     00462550     status.obj
 0002:00000554       _linechanged$initializer$  00462554     tcconfig.obj
 0002:00000558       _Tc$initializer$           00462558     tcconfig.obj
 0002:0000055c       _Current$initializer$      0046255c     trend.obj
 0002:00000560       _Parameters$initializer$   00462560     trend.obj
 0002:00000564       _TcConfig$initializer$     00462564     trend.obj
 0002:00000568       _XAxis$initializer$        00462568     trend.obj
 0002:0000056c       _Plots$initializer$        0046256c     trend.obj
 0002:00000570       _EmptyString$initializer$  00462570     v5subs:nameclas.obj
 0002:00000574       _MyComputer$initializer$   00462574     v5subs:nameclas.obj
 0002:00000578       _EmptySensor$initializer$  00462578     v5subs:asensor.obj
 0002:0000057c       _EmptyDowncatEntry$initializer$ 0046257c     v5subs:catclass.obj
 0002:00000580       _EmptyDownscatEntry$initializer$ 00462580     v5subs:catclass.obj
 0002:00000584       _MyComputer$initializer$   00462584     v5subs:computer.obj
 0002:00000588       _NoComputer$initializer$   00462588     v5subs:computer.obj
 0002:0000058c       _EmptyString$initializer$  0046258c     v5subs:machname.obj
 0002:00000590       _empty_entry$initializer$  00462590     v5subs:setpoint.obj
 0002:00000594       _FontList$initializer$     00462594     v5subs:stringtable.obj
 0002:00000598       _EventList$initializer$    00462598     v5subs:client.obj
 0002:0000059c       _T$initializer$            0046259c     v5subs:semaphor.obj
 0002:000005a0       _ExeDirectory$initializer$ 004625a0     v5subs:gexedir.obj
 0002:000005a4       _FontList$initializer$     004625a4     v5subs:menuctrl.obj
 0002:000005a8       _FontList$initializer$     004625a8     v5subs:popctrl.obj
 0002:000005b4       _pinit                     004625b4     LIBCMT:onexit.obj
 0002:000005b8       _pinit                     004625b8     LIBCMT:cpu_disp.obj
 0002:000005bc       _pinit                     004625bc     LIBCMT:mathfcns.obj
 0002:000005c0       _pinit                     004625c0     LIBCMT:mbctype.obj
 0002:000005c4       _pinit                     004625c4     LIBCMT:_file.obj
 0002:000005c8       _pinit                     004625c8     LIBCMT:wincrt0.obj
 0002:000005d4       _pterm                     004625d4     LIBCMT:wsetloca.obj
 0002:000005d8       _pterm                     004625d8     LIBCMT:initcon.obj
 0002:000005dc       _pterm                     004625dc     LIBCMT:_file.obj
 0002:000005f0       _AnalogTbox                004625f0     profile.obj
 0002:00002248       _TwoSpaces                 00464248     box.obj
 0002:000023e4       _NormColorName             004643e4     colors.obj
 0002:000023f0       _RefColorName              004643f0     colors.obj
 0002:000023fc       _PrColorName               004643fc     colors.obj
 0002:00002404       _PrefColorName             00464404     colors.obj
 0002:00002410       _WarningColorName          00464410     colors.obj
 0002:00002420       _AlarmColorName            00464420     colors.obj
 0002:0000242c       _NoAlarmColorName          0046442c     colors.obj
 0002:0000243c       _DialogTextColorName       0046443c     colors.obj
 0002:000024b8       _CornerParamsKey           004644b8     corner.obj
 0002:000026f8       _REAL_SECONDS_PER_HOUR     004646f8     downbar.obj
 0002:000031d0       _RT_MACHINE_LIST_FILE      004651d0     rtmlist.obj
 0002:000031dc       _V5HELP_FILE               004651dc     rtmlist.obj
 0002:0000320e       _EmptyString               0046520e     status.obj
 0002:00003438       ?a@?1??draw_one_item@@YAXPAUtagDRAWITEMSTRUCT@@@Z@4QBHB 00465438     viewpara.obj
 0002:0000348c       ?space@?1??show_info_box@X_AXIS_CLASS@@QAEEPAUHDC__@@JJE@Z@4QBDB 0046548c     xaxis.obj
 0002:00003490       ?twospaces@?1??show_info_box@X_AXIS_CLASS@@QAEEPAUHDC__@@JJE@Z@4QBDB 00465490     xaxis.obj
 0002:000034e0       _MAX_RAW_COUNTS            004654e0     v5subs:asensor.obj
 0002:00003558       _RECORD_DELIMITER_STRING   00465558     v5subs:dbsubs.obj
 0002:0000355b       _EmptyString               0046555b     v5subs:dbsubs.obj
 0002:0000363c       _ResetCmd                  0046563c     v5subs:listbox.obj
 0002:00003644       _AddCmd                    00465644     v5subs:listbox.obj
 0002:0000364c       _DeleteCmd                 0046564c     v5subs:listbox.obj
 0002:00003654       _GetCurSelCmd              00465654     v5subs:listbox.obj
 0002:0000365c       _SetCurSelCmd              0046565c     v5subs:listbox.obj
 0002:00003664       _FindStringCmd             00465664     v5subs:listbox.obj
 0002:0000366c       _FindPrefixCmd             0046566c     v5subs:listbox.obj
 0002:00003674       _GetCountCmd               00465674     v5subs:listbox.obj
 0002:0000367c       _GetTextCmd                0046567c     v5subs:listbox.obj
 0002:00003684       _GetTextLenCmd             00465684     v5subs:listbox.obj
 0002:0000368c       _InsertCmd                 0046568c     v5subs:listbox.obj
 0002:00003694       _CmdError                  00465694     v5subs:listbox.obj
 0002:000036d4       _ConfigSection             004656d4     v5subs:machine.obj
 0002:000036dc       _FlashVersionKey           004656dc     v5subs:machine.obj
 0002:000039e0       _RECORD_DELIMITER_STRING   004659e0     v5subs:vdbclass.obj
 0002:00003b24       _Cursors                   00465b24     v5subs:rectclas.obj
 0002:00003c64       _CrLf                      00465c64     v5subs:client.obj
 0002:00003cb8       _ZeroPointZero             00465cb8     v5subs:dtotchar.obj
 0002:00003cd0       _PeriodString              00465cd0     v5subs:ftoasc.obj
 0002:00003cd4       _ZeroPointZero             00465cd4     v5subs:ftoasc.obj
 0002:00003ce8       _MinPosDouble              00465ce8     v5subs:zero.obj
 0002:00003cf0       _MinNegDouble              00465cf0     v5subs:zero.obj
 0002:00003d34       ?s@?1??is_hex_char@@YAED@Z@4QBDB 00465d34     v5subs:hex.obj
 0002:00003d64       _UnknownString             00465d64     v5subs:winsubs.obj
 0002:00003dec       _CheckDigitTag             00465dec     v5subs:shot_name.obj
 0002:00003dfc       _HondaYearTag              00465dfc     v5subs:shot_name.obj
 0002:00003e04       _YearTag                   00465e04     v5subs:shot_name.obj
 0002:00003e0c       _ShiftYearTag              00465e0c     v5subs:shot_name.obj
 0002:00003e14       _ShiftHondaYearTag         00465e14     v5subs:shot_name.obj
 0002:00003e1c       _HexMonthTag               00465e1c     v5subs:shot_name.obj
 0002:00003e24       _MonthTag                  00465e24     v5subs:shot_name.obj
 0002:00003e2c       _ShiftHexMonthTag          00465e2c     v5subs:shot_name.obj
 0002:00003e34       _ShiftMonthTag             00465e34     v5subs:shot_name.obj
 0002:00003e3c       _DayTag                    00465e3c     v5subs:shot_name.obj
 0002:00003e44       _ShiftDayTag               00465e44     v5subs:shot_name.obj
 0002:00003e4c       _ShiftTag                  00465e4c     v5subs:shot_name.obj
 0002:00003e54       _JulianTag                 00465e54     v5subs:shot_name.obj
 0002:00003e58       _ShiftJulianTag            00465e58     v5subs:shot_name.obj
 0002:00003e60       _HoursTag                  00465e60     v5subs:shot_name.obj
 0002:00003f98       _LFString                  00465f98     dundas:ugctrl.obj
 0002:00003f9a       _EmptyString               00465f9a     dundas:ugctrl.obj
 0002:00003f9c       _TabString                 00465f9c     dundas:ugctrl.obj
 0002:00004248       ?ugid@?1??GetUGID@CUGCellType@@UAEPBUUGID@@XZ@4U3@B 00466248     dundas:ugceltyp.obj
 0002:000042f8       ?ugid@?1??GetUGID@CUGDropListType@@UAEPBUUGID@@XZ@4U3@B 004662f8     dundas:ugdltype.obj
 0002:00004308       _EmptyString               00466308     dundas:ugctarrw.obj
 0002:0000440c       _GS_ExceptionPointers      0046640c     LIBCMT:gs_report.obj
 0002:00004420       _Int32ToUInt32             00466420     LIBCMT:ftol3.obj
 0002:00004430       _MantissaMask              00466430     LIBCMT:ftol3.obj
 0002:00004438       _IntegerBit                00466438     LIBCMT:ftol3.obj
 0002:00004440       _SignBit64                 00466440     LIBCMT:ftol3.obj
 0002:00004448       _MinFP64                   00466448     LIBCMT:ftol3.obj
 0002:00004450       _MinInt64                  00466450     LIBCMT:ftol3.obj
 0002:00004458       _MaxInt64                  00466458     LIBCMT:ftol3.obj
 0002:00004460       _MaxUInt64                 00466460     LIBCMT:ftol3.obj
 0002:00004468       _MaxFP32                   00466468     LIBCMT:ftol3.obj
 0002:00004470       _MinFP32                   00466470     LIBCMT:ftol3.obj
 0002:00004478       _MinSubInexact             00466478     LIBCMT:ftol3.obj
 0002:00004480       _FpExcptTable              00466480     LIBCMT:ftol3.obj
 0002:00004490       _i1075                     00466490     LIBCMT:ftol3.obj
 0002:00004494       _i1087                     00466494     LIBCMT:ftol3.obj
 0002:00004498       _x0800                     00466498     LIBCMT:ftol3.obj
 0002:0000449c       _x17FF                     0046649c     LIBCMT:ftol3.obj
 0002:000044a0       _CWMask                    004664a0     LIBCMT:ftol3.obj
 0002:000044b0       _One                       004664b0     LIBCMT:floor_pentium4.obj
 0002:000044c0       _Bns                       004664c0     LIBCMT:floor_pentium4.obj
 0002:000044d0       _NegOne                    004664d0     LIBCMT:floor_pentium4.obj
 0002:000044e0       _NegZero                   004664e0     LIBCMT:floor_pentium4.obj
 0002:000044f0       _S                         004664f0     LIBCMT:floor_pentium4.obj
 0002:00004500       _One                       00466500     LIBCMT:ceil_pentium4.obj
 0002:00004510       _Bns                       00466510     LIBCMT:ceil_pentium4.obj
 0002:00004520       _Zero                      00466520     LIBCMT:ceil_pentium4.obj
 0002:00004530       _S                         00466530     LIBCMT:ceil_pentium4.obj
 0002:00004540       _NegZero                   00466540     LIBCMT:ceil_pentium4.obj
 0002:00004568       ?ExceptionTemplate@?1??_CxxThrowException@@9@8@4UEHExceptionRecord@@B 00466568     LIBCMT:throw.obj
 0002:00004974       One                        00466974     LIBCMT:87disp.obj
 0002:0000497c       XAMtoTagTab                0046697c     LIBCMT:87disp.obj
 0002:00004990       One                        00466990     LIBCMT:common.obj
 0002:000049a4       DblMax                     004669a4     LIBCMT:common.obj
 0002:000049ac       DblMin                     004669ac     LIBCMT:common.obj
 0002:000049b4       IeeeAdjO                   004669b4     LIBCMT:common.obj
 0002:000049bc       IeeeAdjU                   004669bc     LIBCMT:common.obj
 0002:000049c4       _infinity                  004669c4     LIBCMT:common.obj
 0002:000049cc       _zero                      004669cc     LIBCMT:common.obj
 0002:000049d8       _INF                       004669d8     LIBCMT:libm_error.obj
 0002:000049e8       _BIG                       004669e8     LIBCMT:libm_error.obj
 0002:000049f8       _ZERO                      004669f8     LIBCMT:libm_error.obj
 0002:00004a08       _INF_32                    00466a08     LIBCMT:libm_error.obj
 0002:00004a10       _NAN_32                    00466a10     LIBCMT:libm_error.obj
 0002:00004a18       _ZERO_32                   00466a18     LIBCMT:libm_error.obj
 0002:00004a20       _libm_largef               00466a20     LIBCMT:libm_error.obj
 0002:00004a28       _libm_smallf               00466a28     LIBCMT:libm_error.obj
 0002:00004a30       _libm_small                00466a30     LIBCMT:libm_error.obj
 0002:00004ae8       _rterrs                    00466ae8     LIBCMT:crt0msg.obj
 0002:0000554c       __mb_locale_names          0046754c     LIBCMT:mbctype.obj
 0002:00005890       __first_127char            00467890     LIBCMT:wsetloca.obj
 0002:00005910       emask                      00467910     LIBCMT:log10_pentium4.obj
 0002:00005920       CC                         00467920     LIBCMT:log10_pentium4.obj
 0002:00005930       Magic                      00467930     LIBCMT:log10_pentium4.obj
 0002:00005940       hi_mask                    00467940     LIBCMT:log10_pentium4.obj
 0002:00005950       LOG10_2                    00467950     LIBCMT:log10_pentium4.obj
 0002:00005960       place_L                    00467960     LIBCMT:log10_pentium4.obj
 0002:00005980       One                        00467980     LIBCMT:log10_pentium4.obj
 0002:00005990       Zero                       00467990     LIBCMT:log10_pentium4.obj
 0002:000059a0       Two52                      004679a0     LIBCMT:log10_pentium4.obj
 0002:000059b0       Infs                       004679b0     LIBCMT:log10_pentium4.obj
 0002:000059c0       NaN                        004679c0     LIBCMT:log10_pentium4.obj
 0002:000059d0       coeff                      004679d0     LIBCMT:log10_pentium4.obj
 0002:00005a10       T_Tbl                      00467a10     LIBCMT:log10_pentium4.obj
 0002:00005e20       CB_Tbl                     00467e20     LIBCMT:log10_pentium4.obj
 0002:0000624e       _log2max                   0046824e     LIBCMT:87tran.obj
 0002:00006258       _smallarg                  00468258     LIBCMT:87tran.obj
 0002:00006262       _half                      00468262     LIBCMT:87tran.obj
 0002:00006290       _tokenTable                00468290     LIBCMT:undname.obj
 0002:000062c8       _nameTable                 004682c8     LIBCMT:undname.obj
 0002:00006408       _rttiTable                 00468408     LIBCMT:undname.obj
 0002:00009d48       __sehtable$__onexit        0046bd48     LIBCMT:onexit.obj
 0002:00009d68       __sehtable$___tmainCRTStartup 0046bd68     LIBCMT:wincrt0.obj
 0002:00009d88       __sehtable$_doexit         0046bd88     LIBCMT:crt0dat.obj
 0002:00009da8       __sehtable$?_Type_info_dtor@type_info@@CAXPAV1@@Z 0046bda8     LIBCMT:typname.obj
 0002:00009dc8       __sehtable$___set_fpsr_sse2 0046bdc8     LIBCMT:fpctrl.obj
 0002:00009de8       __sehtable$__freefls@4     0046bde8     LIBCMT:tidtable.obj
 0002:00009e10       __sehtable$__initptd       0046be10     LIBCMT:tidtable.obj
 0002:00009e38       __sehtable$__ioinit        0046be38     LIBCMT:ioinit.obj
 0002:00009e58       __sehtable$___updatetlocinfo 0046be58     LIBCMT:localref.obj
 0002:00009e78       __sehtable$___updatetmbcinfo 0046be78     LIBCMT:mbctype.obj
 0002:00009e98       __sehtable$__setmbcp       0046be98     LIBCMT:mbctype.obj
 0002:00009eb8       __sehtable$__locterm       0046beb8     LIBCMT:wsetloca.obj
 0002:00009ed8       __sehtable$__mtinitlocknum 0046bed8     LIBCMT:mlock.obj
 0002:00009ef8       __sehtable$__IsNonwritableInCurrentImage 0046bef8     LIBCMT:pesect.obj
 0002:00009f18       __sehtable$?terminate@@YAXXZ 0046bf18     LIBCMT:hooks.obj
 0002:00009f38       __sehtable$_raise          0046bf38     LIBCMT:winsig.obj
 0002:00009f58       __sehtable$_flsall         0046bf58     LIBCMT:fflush.obj
 0002:00009f80       __sehtable$__fcloseall     0046bf80     LIBCMT:closeall.obj
 0002:00009fa0       __sehtable$__commit        0046bfa0     LIBCMT:commit.obj
 0002:00009fc0       __sehtable$__write         0046bfc0     LIBCMT:write.obj
 0002:00009fe0       __sehtable$_fclose         0046bfe0     LIBCMT:fclose.obj
 0002:0000a000       __sehtable$___lock_fhandle 0046c000     LIBCMT:osfinfo.obj
 0002:0000a020       __sehtable$__close         0046c020     LIBCMT:close.obj
 0002:0000a6b6       .idata$6                   0046c6b6     kernel32:KERNEL32.dll
 0002:0000ab4c       .idata$6                   0046cb4c     user32:USER32.dll
 0002:0000ad14       .idata$6                   0046cd14     gdi32:GDI32.dll
 0002:0000ad4c       .idata$6                   0046cd4c     winspool:WINSPOOL.DRV
 0002:0000ad76       .idata$6                   0046cd76     comdlg32:COMDLG32.dll
 0002:0000ad84       .idata$6                   0046cd84     comctl32:COMCTL32.dll
 0002:0000ada4       .idata$6                   0046cda4     shell32:SHELL32.dll
 0003:00000002       _HaveMonitorProgram        0046e002     profile.obj
 0003:00000004       _StandardProfileScreenType 0046e004     profile.obj
 0003:00000008       _DisplayBeforeZoom         0046e008     profile.obj
 0003:0000000c       _LeftZoomAxis              0046e00c     profile.obj
 0003:00000010       _ZoomAxis                  0046e010     profile.obj
 0003:00000014       _DayParamFontHandle        0046e014     profile.obj
 0003:00000018       _PercentString             0046e018     profile.obj
 0003:0000001c       _TabString                 0046e01c     profile.obj
 0003:00000020       _TwoSpacesString           0046e020     profile.obj
 0003:00000024       _HmiSection                0046e024     profile.obj
 0003:00000028       _ClassKey                  0046e028     profile.obj
 0003:00000a10       _ClipFormat                0046ea10     profile.obj
 0003:00000a38       _CHANNEL_MODE_1            0046ea38     profile.obj
 0003:00000a3c       _CHANNEL_MODE_2            0046ea3c     profile.obj
 0003:00000a40       _CHANNEL_MODE_3            0046ea40     profile.obj
 0003:00000a44       _CHANNEL_MODE_4            0046ea44     profile.obj
 0003:00000a48       _CHANNEL_MODE_5            0046ea48     profile.obj
 0003:00000a4c       _CHANNEL_MODE_6            0046ea4c     profile.obj
 0003:00000a58       _CHANNEL_MODE_7            0046ea58     profile.obj
 0003:00000b28       ?rsn@?1??resource_string@@YAPADI@Z@4PAURESOURCE_TEXT_ENTRY@?1??1@YAPADI@Z@A 0046eb28     profile.obj
 0003:000010b0       ?s@?1??get_ft2_help@@YAXXZ@4PADA 0046f0b0     profile.obj
 0003:000010c8       ?info@?1??get_ft2_help@@YAXXZ@4U_STARTUPINFOA@@A 0046f0c8     profile.obj
 0003:0000110c       ?tabs@?1??set_cat_and_subcat_tabs@@YAXXZ@4PAHA 0046f10c     profile.obj
 0003:00001114       ?defclass@?1??restore_focus_to_hmi@@YAXXZ@4PADA 0046f114     profile.obj
 0003:00001124       ?rsn@?1??set_downtime_entry_setup_strings@@YAXPAUHWND__@@@Z@4PAURESOURCE_TEXT_ENTRY@?1??1@YAX0@Z@A 0046f124     profile.obj
 0003:00001144       ?box@?1??set_downtime_entry_setup_strings@@YAXPAUHWND__@@@Z@4PAIA 0046f144     profile.obj
 0003:0000114c       ?was_realtime@?1??toggle_big_param_display_type@@YAXXZ@4EA 0046f14c     profile.obj
 0003:00001150       ?old_screen_type@?1??toggle_big_param_display_type@@YAXXZ@4FA 0046f150     profile.obj
 0003:00001154       ?separator@?1??update_day_param_display@@YAXXZ@4PADA 0046f154     profile.obj
 0003:00001158       ?di@?1??print_me@@YAXXZ@4U_DOCINFOA@@A 0046f158     profile.obj
 0003:0000116c       ?item@?1??set_zoom_grayness@@YAXXZ@4PAIA 0046f16c     profile.obj
 0003:00001184       ?CsDialog@?1??create_chosshot_window@@YAXXZ@4PADA 0046f184     profile.obj
 0003:00001191       ?firstime@?1??password_level_callback@@YAXPADFPAUHDDEDATA__@@@Z@4_NA 0046f191     profile.obj
 0003:00001194       ?rsn@?1??set_zoom_setup_strings@@YAXPAUHWND__@@@Z@4PAURESOURCE_TEXT_ENTRY@@A 0046f194     profile.obj
 0003:000011c4       ?box@?1??set_zoom_setup_strings@@YAXPAUHWND__@@@Z@4PAIA 0046f1c4     profile.obj
 0003:000011d8       ?rsn@?1??set_tsl_setup_strings@@YAXPAUHWND__@@@Z@4PAURESOURCE_TEXT_ENTRY@?1??1@YAX0@Z@A 0046f1d8     profile.obj
 0003:00001220       ?box@?1??set_tsl_setup_strings@@YAXPAUHWND__@@@Z@4PAIA 0046f220     profile.obj
 0003:00001228       ?rsn@?1??set_corner_param_setup_strings@@YAXXZ@4PAURESOURCE_TEXT_ENTRY@?1??1@YAXXZ@A 0046f228     profile.obj
