 ft2

 Timestamp is 4ee22152 (Fri Dec 09 09:55:14 2011)

 Preferred load address is 00400000

 Start         Length     Name                   Class
 0001:00000000 0006246aH .text                   CODE
 0002:00000000 000003dcH .idata$5                DATA
 0002:000003e0 00001e7cH .rdata                  DATA
 0002:0000225c 0000008cH .idata$2                DATA
 0002:000022e8 00000014H .idata$3                DATA
 0002:000022fc 000003dcH .idata$4                DATA
 0002:000026d8 00000f4cH .idata$6                DATA
 0002:00003624 00000000H .edata                  DATA
 0003:00000000 00000004H .CRT$XCA                DATA
 0003:00000004 0000019cH .CRT$XCU                DATA
 0003:000001a0 00000004H .CRT$XCZ                DATA
 0003:000001a4 00000004H .CRT$XIA                DATA
 0003:000001a8 0000000cH .CRT$XIC                DATA
 0003:000001b4 00000004H .CRT$XIZ                DATA
 0003:000001b8 00000004H .CRT$XPA                DATA
 0003:000001bc 00000004H .CRT$XPX                DATA
 0003:000001c0 00000004H .CRT$XPZ                DATA
 0003:000001c4 00000004H .CRT$XTA                DATA
 0003:000001c8 00000004H .CRT$XTZ                DATA
 0003:000001d0 0000a4ecH .data                   DATA
 0003:0000a6c0 0000a368H .bss                    DATA
 0004:00000000 00000a98H .rsrc$01                DATA
 0004:00000aa0 00005c40H .rsrc$02                DATA

  Address         Publics by Value              Rva+Base     Lib:Object

 0001:00000000       ??2@YAPAXI@Z               00401000 f i ft2.obj
 0001:00001407       ?resource_string@@YAPAGI@Z 00402407 f   ft2.obj
 0001:00001b48       ?ascii_0_to_5_volts@@YAPAGI@Z 00402b48 f   ft2.obj
 0001:00001b8b       ?dac_volts@@YANI@Z         00402b8b f   ft2.obj
 0001:00001bdd       ?ascii_dac_volts@@YAPAGI@Z 00402bdd f   ft2.obj
 0001:00001bf9       ?ascii_dac_volts_3@@YAPAGI@Z 00402bf9 f   ft2.obj
 0001:00001c5e       ?current_lvdt_feedback_index@@YAHH@Z 00402c5e f   ft2.obj
 0001:00001c93       ?current_raw_lvdt_feedback_index@@YAIH@Z 00402c93 f   ft2.obj
 0001:00001cb4       ?current_measured_command_index@@YAIH@Z 00402cb4 f   ft2.obj
 0001:00001ce9       ?get_help@@YAXXZ           00402ce9 f   ft2.obj
 0001:00001d8b       ?push_log_message@@YAXPAG@Z 00402d8b f   ft2.obj
 0001:00001e5b       ?fatal_error_string@@YAPAGH@Z 00402e5b f   ft2.obj
 0001:00001eca       ?warning_error_string@@YAPAGH@Z 00402eca f   ft2.obj
 0001:00001f39       ?resource_message_box@@YAXII@Z 00402f39 f   ft2.obj
 0001:00001fac       ?okcancel_message_box@@YA_NII@Z 00402fac f   ft2.obj
 0001:00001fd8       ?ft2_control_program_name@@YAPAGHAAVMACHINE_CLASS@@@Z 00402fd8 f   ft2.obj
 0001:00002064       ?new_downtime_callback@@YAXPAGFPAUHDDEDATA__@@@Z 00403064 f   ft2.obj
 0001:000020b2       ?edit_control_proc@@YGJPAUHWND__@@IIJ@Z 004030b2 f   ft2.obj
 0001:00002368       ?send_null_offset_to_board@@YA_NXZ 00403368 f   ft2.obj
 0001:00002433       ?send_lvdt_offset_to_board@@YA_NXZ 00403433 f   ft2.obj
 0001:000024fe       ?set_control_y@@YAXHI@Z    004034fe f   ft2.obj
 0001:0000256d       ?terminal_proc@@YGJPAUHWND__@@IIJ@Z 0040356d f   ft2.obj
 0001:000029c7       ?upload_aborted_dialog_proc@@YGHPAUHWND__@@IIJ@Z 004039c7 f   ft2.obj
 0001:00002bca       ?new_monitor_setup_callback@@YAXPAGFPAUHDDEDATA__@@@Z 00403bca f   ft2.obj
 0001:00003d12       ?deactivate_control_dialog_proc@@YGHPAUHWND__@@IIJ@Z 00404d12 f   ft2.obj
 0001:00003d7b       ?load_one_machine_only@@YAXPAUHWND__@@@Z 00404d7b f   ft2.obj
 0001:00003edf       ?choose_monitor_machine_dialog_proc@@YGHPAUHWND__@@IIJ@Z 00404edf f   ft2.obj
 0001:00004076       ?send_output_bits_to_current_machine@@YAXIE@Z 00405076 f   ft2.obj
 0001:000040d4       ?get_hires_sensor_test_config@@YAXPAUHWND__@@@Z 004050d4 f   ft2.obj
 0001:000042d7       ?put_hires_sensor_test_config@@YAXPAUHWND__@@@Z 004052d7 f   ft2.obj
 0001:00004399       ?hires_sensor_test_dialog_proc@@YGHPAUHWND__@@IIJ@Z 00405399 f   ft2.obj
 0001:0000476d       ?do_new_set_null_ascii_data@@YAXJ@Z 0040576d f   ft2.obj
 0001:000048d3       ?shutdown_status_dialog_proc@@YGHPAUHWND__@@IIJ@Z 004058d3 f   ft2.obj
 0001:00004985       ?set_null_dialog_proc@@YGHPAUHWND__@@IIJ@Z 00405985 f   ft2.obj
 0001:00004d83       ?send_set_dac_command@@YAXH@Z 00405d83 f   ft2.obj
 0001:00005241       ?ft2_test_dialog_proc@@YGHPAUHWND__@@IIJ@Z 00406241 f   ft2.obj
 0001:00005584       ?set_dac_dialog_proc@@YGHPAUHWND__@@IIJ@Z 00406584 f   ft2.obj
 0001:00005fce       ?start_if_ok_to_deactivate@@YAXAAVWINDOW_CLASS@@@Z 00406fce f   ft2.obj
 0001:0000600e       ?replace_volts_from_percent_value@@YAAAVSTRING_CLASS@@PAGM@Z 0040700e f   ft2.obj
 0001:00006664       ?global_parameter_dialog_proc@@YGHPAUHWND__@@IIJ@Z 00407664 f   ft2.obj
 0001:00006d1e       ?compare_variables_dialog_proc@@YGHPAUHWND__@@IIJ@Z 00407d1e f   ft2.obj
 0001:00007479       ?ft2_volts_toascii@@YAPAGPAG@Z 00408479 f   ft2.obj
 0001:00007575       ?ascii_volts_to_ft2_volts@@YAPAGPAG@Z 00408575 f   ft2.obj
 0001:000076a8       ?alt_step_text@@YAPAGXZ    004086a8 f   ft2.obj
 0001:00007786       ?control_mods_dialog_proc@@YGHPAUHWND__@@IIJ@Z 00408786 f   ft2.obj
 0001:00008a73       ?valve_test_dialog_proc@@YGHPAUHWND__@@IIJ@Z 00409a73 f   ft2.obj
 0001:00009516       ?log_als_file@@YAXAAVSTRING_CLASS@@@Z 0040a516 f   ft2.obj
 0001:000095a5       ?update_optos@@YAXII@Z     0040a5a5 f   ft2.obj
 0001:0000962e       ?need_brush@@YA_NPAUHWND__@@@Z 0040a62e f   ft2.obj
 0001:000096ec       ?kill_log_file@@YAXXZ      0040a6ec f   ft2.obj
 0001:0000981c       ?test_alarm_outputs_dialog_proc@@YGHPAUHWND__@@IIJ@Z 0040a81c f   ft2.obj
 0001:00009aa3       ?current_values_dialog_proc@@YGHPAUHWND__@@IIJ@Z 0040aaa3 f   ft2.obj
 0001:0000cd4d       ?output_list_dialog_proc@@YGHPAUHWND__@@IIJ@Z 0040dd4d f   ft2.obj
 0001:0000ce44       ?end_upload_flash_dialog@@YAXXZ 0040de44 f   ft2.obj
 0001:0000ce77       ?upload_flash_dialog_proc@@YGHPAUHWND__@@IIJ@Z 0040de77 f   ft2.obj
 0001:0000ceee       ?poke_newshot_message@@YAXIJ@Z 0040deee f   ft2.obj
 0001:0000d007       ?password_level_callback@@YAXPAGFPAUHDDEDATA__@@@Z 0040e007 f   ft2.obj
 0001:0000d2ca       ?plot_min_callback@@YAXPAGFPAUHDDEDATA__@@@Z 0040e2ca f   ft2.obj
 0001:0000d2e7       ?canexit@@YA_NXZ           0040e2e7 f   ft2.obj
 0001:0000d37c       ?status_proc@@YGJPAUHWND__@@IIJ@Z 0040e37c f   ft2.obj
 0001:0000def8       ?main_proc@@YGJPAUHWND__@@IIJ@Z 0040eef8 f   ft2.obj
 0001:00010578       ?init@@YAEH@Z              00411578 f   ft2.obj
 0001:00010e6f       _WinMain@16                00411e6f f   ft2.obj
 0001:000113f0       ??0WINDOW_CLASS@@QAE@XZ    004123f0 f i ft2.obj
 0001:00011420       ??_GWINDOW_CLASS@@UAEPAXI@Z 00412420 f i ft2.obj
 0001:00011450       ??1WINDOW_CLASS@@UAE@XZ    00412450 f i ft2.obj
 0001:00011470       ??0LISTBOX_CLASS@@QAE@XZ   00412470 f i ft2.obj
 0001:000114b0       ??1MACHINE_CLASS@@QAE@XZ   004124b0 f i ft2.obj
 0001:00011520       ??_H@YGXPAXIHP6EX0@Z@Z     00412520 f i ft2.obj
 0001:00011550       ??_I@YGXPAXIHP6EX0@Z@Z     00412550 f i ft2.obj
 0001:00011590       ??0FTII_VAR_ARRAY@@QAE@XZ  00412590 f i ft2.obj
 0001:000115e0       ??0FTII_VAR@@QAE@XZ        004125e0 f i ft2.obj
 0001:00011610       ?set@FTII_VAR@@UAEXHI@Z    00412610 f i ft2.obj
 0001:00011630       ??4FTII_VAR@@UAEXABV0@@Z   00412630 f i ft2.obj
 0001:00011660       ??4FTII_VAR@@UAEXH@Z       00412660 f i ft2.obj
 0001:00011680       ??4FTII_VAR@@UAEXI@Z       00412680 f i ft2.obj
 0001:000116a0       ??_GFTII_VAR@@UAEPAXI@Z    004126a0 f i ft2.obj
 0001:000116d0       ??1FTII_VAR@@UAE@XZ        004126d0 f i ft2.obj
 0001:000116f0       ??_GFTII_VAR_ARRAY@@UAEPAXI@Z 004126f0 f i ft2.obj
 0001:000116f0       ??_EFTII_VAR_ARRAY@@UAEPAXI@Z 004126f0 f i ft2.obj
 0001:00011720       ??0BIT_CONTROL@@QAE@XZ     00412720 f i ft2.obj
 0001:00011760       ??1BIT_CONTROL@@QAE@XZ     00412760 f i ft2.obj
 0001:00011790       ??0STATUS_CONTROL@@QAE@XZ  00412790 f i ft2.obj
 0001:000117c0       ??1STATUS_CONTROL@@QAE@XZ  004127c0 f i ft2.obj
 0001:000117e0       ?text@STRING_CLASS@@QAEPAGXZ 004127e0 f i ft2.obj
 0001:00011810       ??0NAME_CLASS@@QAE@XZ      00412810 f i ft2.obj
 0001:00011830       ??1NAME_CLASS@@QAE@XZ      00412830 f i ft2.obj
 0001:00011850       ??0TIME_CLASS@@QAE@XZ      00412850 f i ft2.obj
 0001:00011870       ??1DOWN_DATA_CLASS@@QAE@XZ 00412870 f i ft2.obj
 0001:00011890       ??0DOWN_DATA_CLASS@@QAE@ABV0@@Z 00412890 f i ft2.obj
 0001:00011970       ?control@WINDOW_CLASS@@QAEPAUHWND__@@I@Z 00412970 f i ft2.obj
 0001:000119a0       ?show@WINDOW_CLASS@@QAEXXZ 004129a0 f i ft2.obj
 0001:000119c0       ?height@RECTANGLE_CLASS@@QAEJXZ 004129c0 f i ft2.obj
 0001:000119e0       ?width@RECTANGLE_CLASS@@QAEJXZ 004129e0 f i ft2.obj
 0001:00011a00       ?get_ft2_global_settings_file_name@NAME_CLASS@@QAEEAAVSTRING_CLASS@@0@Z 00412a00 f i ft2.obj
 0001:00011a30       ??4WINDOW_CLASS@@QAEXQAUHWND__@@@Z 00412a30 f i ft2.obj
 0001:00011a50       ?handle@LISTBOX_CLASS@@QAEPAUHWND__@@XZ 00412a50 f i ft2.obj
 0001:00011a60       ?get_client_rect@WINDOW_CLASS@@QAEHAAUtagRECT@@@Z 00412a60 f i ft2.obj
 0001:00011a90       ??9WINDOW_CLASS@@QAE_NABV0@@Z 00412a90 f i ft2.obj
 0001:00011ab0       ?hide@WINDOW_CLASS@@QAEXXZ 00412ab0 f i ft2.obj
 0001:00011ad0       ?set_focus@WINDOW_CLASS@@QAEXXZ 00412ad0 f i ft2.obj
 0001:00011b00       ??0INI_CLASS@@QAE@XZ       00412b00 f i ft2.obj
 0001:00011b40       ?count@TEXT_LIST_CLASS@@QAEJXZ 00412b40 f i ft2.obj
 0001:00011b60       ?rewind@TEXT_LIST_CLASS@@QAEXXZ 00412b60 f i ft2.obj
 0001:00011b80       ?text@TEXT_LIST_CLASS@@QAEPAGXZ 00412b80 f i ft2.obj
 0001:00011b90       ??8WINDOW_CLASS@@QAE_NABV0@@Z 00412b90 f i ft2.obj
 0001:00011bb0       ??4WINDOW_CLASS@@QAEXABV0@@Z 00412bb0 f i ft2.obj
 0001:00011bd0       ?handle@WINDOW_CLASS@@QAEPAUHWND__@@XZ 00412bd0 f i ft2.obj
 0001:00011bf0       ?close@WINDOW_CLASS@@QAEXXZ 00412bf0 f i ft2.obj
 0001:00011c10       ?file_exists@NAME_CLASS@@QAEEXZ 00412c10 f i ft2.obj
 0001:00011c30       ?get_ft2_machine_settings_file_name@NAME_CLASS@@QAEEAAVSTRING_CLASS@@0@Z 00412c30 f i ft2.obj
 0001:00011c60       ?empty@FTII_VAR_ARRAY@@QAEXXZ 00412c60 f i ft2.obj
 0001:00011c80       ?get_machset_csvname@NAME_CLASS@@QAEEAAVSTRING_CLASS@@0@Z 00412c80 f i ft2.obj
 0001:00011cb0       ?count@MACHINE_NAME_LIST_CLASS@@QAEHXZ 00412cb0 f i ft2.obj
 0001:00011cd0       ?rewind@MACHINE_NAME_LIST_CLASS@@QAEXXZ 00412cd0 f i ft2.obj
 0001:00011cf0       ?set_text@STRING_CLASS@@QAEEPAUHWND__@@H@Z 00412cf0 f i ft2.obj
 0001:00011d20       ?get_text@STRING_CLASS@@QAE_NPAUHWND__@@H@Z 00412d20 f i ft2.obj
 0001:00011d50       ?int_value@STRING_CLASS@@QAEHXZ 00412d50 f i ft2.obj
 0001:00011d80       ?ival@FTII_VAR@@QAEHXZ     00412d80 f i ft2.obj
 0001:00011da0       ?count@FTII_VAR_ARRAY@@QAEHXZ 00412da0 f i ft2.obj
 0001:00011dc0       ?uint_value@STRING_CLASS@@QAEIXZ 00412dc0 f i ft2.obj
 0001:00011df0       ?uval@FTII_VAR@@QAEIXZ     00412df0 f i ft2.obj
 0001:00011e10       ?show@WINDOW_CLASS@@QAEX_N@Z 00412e10 f i ft2.obj
 0001:00011e40       ??9STRING_CLASS@@QAEEABV0@@Z 00412e40 f i ft2.obj
 0001:00011e70       ??4NAME_CLASS@@QAEXPBG@Z   00412e70 f i ft2.obj
 0001:00011e90       ??8NAME_CLASS@@QAEEPBG@Z   00412e90 f i ft2.obj
 0001:00011eb0       ?get_ft2_editor_settings_file_name@NAME_CLASS@@QAEEAAVSTRING_CLASS@@0@Z 00412eb0 f i ft2.obj
 0001:00011ee0       ?dist_from_x4@PART_CLASS@@QAENN@Z 00412ee0 f i ft2.obj
 0001:00011f00       ?x4_from_dist@PART_CLASS@@QAENN@Z 00412f00 f i ft2.obj
 0001:00011f20       ?null_dac_offset@SURETRAK_PARAM_CLASS@@QAEJXZ 00412f20 f i ft2.obj
 0001:00011f30       ?lvdt_dac_offset@SURETRAK_PARAM_CLASS@@QAEJXZ 00412f30 f i ft2.obj
 0001:00011f50       ?zero_speed_check_pos@SURETRAK_PARAM_CLASS@@QAEMXZ 00412f50 f i ft2.obj
 0001:00011f70       ?jog_valve_percent@SURETRAK_PARAM_CLASS@@QAEMXZ 00412f70 f i ft2.obj
 0001:00011f90       ?retract_valve_percent@SURETRAK_PARAM_CLASS@@QAEMXZ 00412f90 f i ft2.obj
 0001:00011fb0       ?ft_valve_percent@SURETRAK_PARAM_CLASS@@QAEMXZ 00412fb0 f i ft2.obj
 0001:00011fd0       ?min_low_impact_percent@SURETRAK_PARAM_CLASS@@QAEMXZ 00412fd0 f i ft2.obj
 0001:00011ff0       ?max_velocity@SURETRAK_PARAM_CLASS@@QAEMXZ 00412ff0 f i ft2.obj
 0001:00012010       ??4NAME_CLASS@@QAEXG@Z     00413010 f i ft2.obj
 0001:00012030       ??YNAME_CLASS@@QAEXG@Z     00413030 f i ft2.obj
 0001:00012050       ??YNAME_CLASS@@QAEXABVSTRING_CLASS@@@Z 00413050 f i ft2.obj
 0001:00012070       ??YNAME_CLASS@@QAEXH@Z     00413070 f i ft2.obj
 0001:00012090       ??YNAME_CLASS@@QAEXPBG@Z   00413090 f i ft2.obj
 0001:000120b0       ?get_ft2_ctrl_prog_steps_file_name@NAME_CLASS@@QAEEAAVSTRING_CLASS@@0@Z 004130b0 f i ft2.obj
 0001:000120e0       ?rewind@FILE_CLASS@@QAEEXZ 004130e0 f i ft2.obj
 0001:00012100       ?velocity_from_x4@PART_CLASS@@QAENN@Z 00413100 f i ft2.obj
 0001:00012130       ?x4_from_velocity@PART_CLASS@@QAENN@Z 00413130 f i ft2.obj
 0001:00012160       ?get_valve_test_master_file_name@NAME_CLASS@@QAEEAAVSTRING_CLASS@@0@Z 00413160 f i ft2.obj
 0001:00012190       ?get_dc@WINDOW_CLASS@@QAEPAUHDC__@@XZ 00413190 f i ft2.obj
 0001:000121c0       ?release_dc@WINDOW_CLASS@@QAEHPAUHDC__@@@Z 004131c0 f i ft2.obj
 0001:000121f0       ??8WINDOW_CLASS@@QAE_NQAUHWND__@@@Z 004131f0 f i ft2.obj
 0001:00012210       ??4NAME_CLASS@@QAEXABV0@@Z 00413210 f i ft2.obj
 0001:00012230       ??1PARAMETER_CLASS@@QAE@XZ 00413230 f i ft2.obj
 0001:00012260       ?count@FIFO_CLASS@@QAEHXZ  00413260 f i ft2.obj
 0001:00012280       ?minimize@WINDOW_CLASS@@QAEXXZ 00413280 f i ft2.obj
 0001:000122b0       ??9FTII_OP_STATUS_DATA@@QAE_NABU0@@Z 004132b0 f i ft2.obj
 0001:000122e0       ?append@TEXT_LIST_CLASS@@QAEEPAG@Z 004132e0 f i ft2.obj
 0001:00012310       ?get_ft2_boards_dbname@NAME_CLASS@@QAEEAAVSTRING_CLASS@@@Z 00413310 f i ft2.obj
 0001:00012330       ?open@DB_TABLE@@QAEEAAVSTRING_CLASS@@FF@Z 00413330 f i ft2.obj
 0001:00012360       ?get_local_ini_file_name@NAME_CLASS@@QAEEPAG@Z 00413360 f i ft2.obj
 0001:00012380       ?fontclass@STRINGTABLE_CLASS@@QAEABVFONT_CLASS@@XZ 00413380 f i ft2.obj
 0001:000123a0       ?set_language@STRINGTABLE_CLASS@@QAEXAAVSTRING_CLASS@@@Z 004133a0 f i ft2.obj
 0001:0001253a       ?start_chars_are_equal@@YA_NPBGPBD@Z 0041353a f   board_monitor.obj
 0001:000125a2       ?find_board@@YAPAVFTII_BOARD_ENTRY@@AAUsockaddr_in@@@Z 004135a2 f   board_monitor.obj
 0001:0001261f       ?current_board_number@@YAHXZ 0041361f f   board_monitor.obj
 0001:00012645       ?current_board_index@@YAHXZ 00413645 f   board_monitor.obj
 0001:000126ae       ?is_suretrak_controlled@@YAEH@Z 004136ae f   board_monitor.obj
 0001:000126de       ?current_channel_mode@@YAHXZ 004136de f   board_monitor.obj
 0001:00012719       ?current_version_string@@YAPAGXZ 00413719 f   board_monitor.obj
 0001:00012748       ?current_upload_file_name@@YAPAGXZ 00413748 f   board_monitor.obj
 0001:00012777       ?current_version@@YAHXZ    00413777 f   board_monitor.obj
 0001:0001279e       ?current_sub_version@@YAHXZ 0041379e f   board_monitor.obj
 0001:000127c5       ?wirebit@@YAIH@Z           004137c5 f   board_monitor.obj
 0001:000127f1       ??1BOARD_EXTENDED_ANALOG_ARRAY@@QAE@XZ 004137f1 f   board_monitor.obj
 0001:0001282f       ?clear@BOARD_EXTENDED_ANALOG_ARRAY@@QAEXXZ 0041382f f   board_monitor.obj
 0001:0001286d       ?init@BOARD_EXTENDED_ANALOG_ARRAY@@QAEEH@Z 0041386d f   board_monitor.obj
 0001:0001293d       ??ABOARD_EXTENDED_ANALOG_ARRAY@@QAEAAUBOARD_EXTENDED_ANALOG_ENTRY@@H@Z 0041393d f   board_monitor.obj
 0001:000129b1       ??0FTII_BOARD_ENTRY@@QAE@XZ 004139b1 f   board_monitor.obj
 0001:00012c2d       ??1FTII_BOARD_ENTRY@@QAE@XZ 00413c2d f   board_monitor.obj
 0001:00012d15       ?set_connect_state@FTII_BOARD_ENTRY@@QAEXI@Z 00413d15 f   board_monitor.obj
 0001:00012e2f       ?send_config_word@FTII_BOARD_ENTRY@@QAEXXZ 00413e2f f   board_monitor.obj
 0001:00012ea9       ?get_version_string@FTII_BOARD_ENTRY@@QAEEXZ 00413ea9 f   board_monitor.obj
 0001:00012f8f       ?put_version_string@FTII_BOARD_ENTRY@@QAEXXZ 00413f8f f   board_monitor.obj
 0001:0001300e       ?is_monitoring@FTII_BOARD_ENTRY@@QAE_NXZ 0041400e f   board_monitor.obj
 0001:00013032       ?get_config_word@FTII_BOARD_ENTRY@@QAEXPAG@Z 00414032 f   board_monitor.obj
 0001:00013079       ?add_binary_to_shotdata@FTII_BOARD_ENTRY@@QAEXXZ 00414079 f   board_monitor.obj
 0001:0001315d       ?check_for_extended_channel_value@FTII_BOARD_ENTRY@@QAEXPAG@Z 0041415d f   board_monitor.obj
 0001:00013243       ?check_inputs@FTII_BOARD_ENTRY@@QAEXPAG@Z 00414243 f   board_monitor.obj
 0001:00013830       ?send_socket_message@FTII_BOARD_ENTRY@@QAE_NPAG_N@Z 00414830 f   board_monitor.obj
 0001:000139e0       ?set_extended_analog_bits@FTII_BOARD_ENTRY@@QAEXXZ 004149e0 f   board_monitor.obj
 0001:00013b7c       ?get_parameter_alarm_bits@FTII_BOARD_ENTRY@@QAEIXZ 00414b7c f   board_monitor.obj
 0001:00013c8e       ?get_alarm_bits@FTII_BOARD_ENTRY@@QAEXXZ 00414c8e f   board_monitor.obj
 0001:00013cd3       ?clear_all_alarm_bits@FTII_BOARD_ENTRY@@QAEXXZ 00414cd3 f   board_monitor.obj
 0001:00013d05       ?send_bits@FTII_BOARD_ENTRY@@QAEXI_N@Z 00414d05 f   board_monitor.obj
 0001:00013d91       ?clearwire@FTII_BOARD_ENTRY@@QAEXH@Z 00414d91 f   board_monitor.obj
 0001:00013dd0       ?setwire@FTII_BOARD_ENTRY@@QAEXH@Z 00414dd0 f   board_monitor.obj
 0001:00013e0b       ?check_one_alarm@@YAXAA_NAAIMMFMM@Z 00414e0b f   board_monitor.obj
 0001:00013edb       ?current_operator@@YAPAGAAVSTRING_CLASS@@0@Z 00414edb f   board_monitor.obj
 0001:00013f6e       ?issue_downtime_event@@YAXAAVSTRING_CLASS@@00AAU_SYSTEMTIME@@PAG2@Z 00414f6e f   board_monitor.obj
 0001:00013fc9       ?append_downtime_record@@YAEAAVSTRING_CLASS@@00AAU_SYSTEMTIME@@PAG2@Z 00414fc9 f   board_monitor.obj
 0001:00014095       ?save_shot@FTII_BOARD_ENTRY@@QAEXXZ 00415095 f   board_monitor.obj
 0001:000149e7       ?upload_control_file@FTII_BOARD_ENTRY@@QAE_NXZ 004159e7 f   board_monitor.obj
 0001:00015707       ?display_board_info@@YAXXZ 00416707 f   board_monitor.obj
 0001:00015855       ?position_auto_shot_display@@YAXXZ 00416855 f   board_monitor.obj
 0001:000158dd       ?AutoShotDisplayProc@@YGHPAUHWND__@@IIJ@Z 004168dd f   board_monitor.obj
 0001:000159f0       ?load_the_current_machine_at_this_board@@YAXAAVFTII_BOARD_ENTRY@@@Z 004169f0 f   board_monitor.obj
 0001:0001639b       ?load_ftii_boards@@YAHXZ   0041739b f   board_monitor.obj
 0001:000166d1       ?check_for_down@@YAXXZ     004176d1 f   board_monitor.obj
 0001:00016985       ?convert_io_change_to_ascii@@YAXHPAUSOCKET_MESSAGE@@@Z 00417985 f   board_monitor.obj
 0001:000172d2       ?start_of_binary_data@@YAXHPAUBINARY_HEADER@@@Z 004182d2 f   board_monitor.obj
 0001:00017538       ?new_data_thread@@YAXPAX@Z 00418538 f   board_monitor.obj
 0001:00017d01       ?get_channel_mode@@YAXHPAD@Z 00418d01 f   board_monitor.obj
 0001:00017dfa       ?send_thread@@YAXPAX@Z     00418dfa f   board_monitor.obj
 0001:00018fe4       ?read_thread@@YAXPAX@Z     00419fe4 f   board_monitor.obj
 0001:000192e6       ?begin_monitoring@@YA_NXZ  0041a2e6 f   board_monitor.obj
 0001:00019836       ?stop_monitoring@@YAXXZ    0041a836 f   board_monitor.obj
 0001:00019c54       ?send_command@@YAXAAVSTRING_CLASS@@PAG_N@Z 0041ac54 f   board_monitor.obj
 0001:0001a0b0       ?update_downtime@@YAXVDOWN_DATA_CLASS@@@Z 0041b0b0 f   board_monitor.obj
 0001:0001a210       ??0STDDOWN_CLASS@@QAE@XZ   0041b210 f i board_monitor.obj
 0001:0001a240       ??1STDDOWN_CLASS@@QAE@XZ   0041b240 f i board_monitor.obj
 0001:0001a260       ?cleanup@STDDOWN_CLASS@@QAEXXZ 0041b260 f i board_monitor.obj
 0001:0001a2b0       ??0BOARD_EXTENDED_ANALOG_ENTRY@@QAE@XZ 0041b2b0 f i board_monitor.obj
 0001:0001a2f0       ??0EXTENDED_ANALOG_ENTRY@@QAE@XZ 0041b2f0 f i board_monitor.obj
 0001:0001a310       ??0FTANALOG_CLASS@@QAE@XZ  0041b310 f i board_monitor.obj
 0001:0001a330       ??0FTANALOG_ENTRY@@QAE@XZ  0041b330 f i board_monitor.obj
 0001:0001a370       ??0FTCALC_CLASS@@QAE@XZ    0041b370 f i board_monitor.obj
 0001:0001a390       ??0RUNLIST_CLASS@@QAE@XZ   0041b390 f i board_monitor.obj
 0001:0001a3c0       ??0BOARD_EXTENDED_ANALOG_ARRAY@@QAE@XZ 0041b3c0 f i board_monitor.obj
 0001:0001a3f0       ??1FTANALOG_CLASS@@QAE@XZ  0041b3f0 f i board_monitor.obj
 0001:0001a410       ??1FTANALOG_ENTRY@@QAE@XZ  0041b410 f i board_monitor.obj
 0001:0001a440       ??1FTCALC_CLASS@@QAE@XZ    0041b440 f i board_monitor.obj
 0001:0001a460       ?set@PART_NAME_ENTRY@@QAEXAAVSTRING_CLASS@@00@Z 0041b460 f i board_monitor.obj
 0001:0001a4a0       ??0DOUBLE_ARRAY_CLASS@@QAE@XZ 0041b4a0 f i board_monitor.obj
 0001:0001a4d0       ??0DSTAT_CLASS@@QAE@XZ     0041b4d0 f i board_monitor.obj
 0001:0001a500       ??1DSTAT_CLASS@@QAE@XZ     0041b500 f i board_monitor.obj
 0001:0001a510       ?set_cat@DSTAT_CLASS@@QAEXPAG@Z 0041b510 f i board_monitor.obj
 0001:0001a530       ?set_subcat@DSTAT_CLASS@@QAEXPAG@Z 0041b530 f i board_monitor.obj
 0001:0001a550       ?set_time@DSTAT_CLASS@@QAEXAAU_SYSTEMTIME@@@Z 0041b550 f i board_monitor.obj
 0001:0001a580       ??4EXTENDED_ANALOG_ENTRY@@QAEXAAU0@@Z 0041b580 f i board_monitor.obj
 0001:0001a5b0       ??1PART_NAME_ENTRY@@QAE@XZ 0041b5b0 f i board_monitor.obj
 0001:0001a5e0       ??YNAME_CLASS@@QAEXI@Z     0041b5e0 f i board_monitor.obj
 0001:0001a600       ?get_ft2_part_settings_file_name@NAME_CLASS@@QAEEAAVSTRING_CLASS@@00@Z 0041b600 f i board_monitor.obj
 0001:0001a630       ?get_alarmsum_dbname@NAME_CLASS@@QAEEAAVSTRING_CLASS@@00@Z 0041b630 f i board_monitor.obj
 0001:0001a660       ?get_graphlst_dbname@NAME_CLASS@@QAEEAAVSTRING_CLASS@@00@Z 0041b660 f i board_monitor.obj
 0001:0001a690       ?get_shotparm_dbname@NAME_CLASS@@QAEEAAVSTRING_CLASS@@00@Z 0041b690 f i board_monitor.obj
 0001:0001a6c0       ??4TIME_CLASS@@QAEXABV0@@Z 0041b6c0 f i board_monitor.obj
 0001:0001a6e0       ?int_value@SETPOINT_ENTRY@@QAEHXZ 0041b6e0 f i board_monitor.obj
 0001:0001a700       ?uint_value@SETPOINT_ENTRY@@QAEIXZ 0041b700 f i board_monitor.obj
 0001:0001a720       ?count@RUNLIST_CLASS@@QAEHXZ 0041b720 f i board_monitor.obj
 0001:0001a740       ?set_us_per_time_sample@FTII_NET_DATA@@QAEXH@Z 0041b740 f i board_monitor.obj
 0001:0001a760       ?get_short@DB_TABLE@@QAEFG@Z 0041b760 f i board_monitor.obj
 0001:0001a780       ??_EFTII_BOARD_ENTRY@@QAEPAXI@Z 0041b780 f i board_monitor.obj
 0001:0001a800       ?current_value@TIME_CLASS@@QAEKXZ 0041b800 f i board_monitor.obj
 0001:0001a810       ?category@DSTAT_CLASS@@QAEPAGXZ 0041b810 f i board_monitor.obj
 0001:0001a820       ?subcategory@DSTAT_CLASS@@QAEPAGXZ 0041b820 f i board_monitor.obj
 0001:0001a840       ??9STRING_CLASS@@QAEEPBG@Z 0041b840 f i board_monitor.obj
 0001:0001a870       ?bitmask@RUNLIST_CLASS@@QAEIXZ 0041b870 f i board_monitor.obj
 0001:0001a890       ??0ACK_MESSAGE@@QAE@XZ     0041b890 f i board_monitor.obj
 0001:0001a8b0       ?machine_name@DOWN_DATA_CLASS@@QAEAAVSTRING_CLASS@@XZ 0041b8b0 f i board_monitor.obj
 0001:0001a8c0       ?category@DOWN_DATA_CLASS@@QAEPAGXZ 0041b8c0 f i board_monitor.obj
 0001:0001a8e0       ?subcategory@DOWN_DATA_CLASS@@QAEPAGXZ 0041b8e0 f i board_monitor.obj
 0001:0001a999       ?get_ini_char@@YAPAGPAG0@Z 0041b999 f   shotsave.obj
 0001:0001aa29       ?init_serial_port@@YAXXZ   0041ba29 f   shotsave.obj
 0001:0001add8       ?nextshot@@YAEPAUSHOT_BUFFER_ENTRY@@@Z 0041bdd8 f   shotsave.obj
 0001:0001ae82       ?write_ftii_parameters@@YAEPAUSHOT_BUFFER_ENTRY@@AAU_SYSTEMTIME@@G@Z 0041be82 f   shotsave.obj
 0001:0001b089       ?add_to_shotsave@@YA_N_N0AAUPART_NAME_ENTRY@@AAVFTII_FILE_DATA@@AAVDOUBLE_ARRAY_CLASS@@@Z 0041c089 f   shotsave.obj
 0001:0001b156       ?write_bytes_to_output_file@@YAEPAXK@Z 0041c156 f   shotsave.obj
 0001:0001b1b7       ?write_binary_file_to_serial_port@@YAEAAVNAME_CLASS@@@Z 0041c1b7 f   shotsave.obj
 0001:0001b356       ?kill_output_file@@YAXXZ   0041c356 f   shotsave.obj
 0001:0001b38f       ?save_shot@@YAXPAUSHOT_BUFFER_ENTRY@@@Z 0041c38f f   shotsave.obj
 0001:0001d3fd       ?save_all_shots@@YAXXZ     0041e3fd f   shotsave.obj
 0001:0001d62e       ?shotsave_thread@@YAXPAX@Z 0041e62e f   shotsave.obj
 0001:0001deb1       ?start_shotsave_thread@@YAXXZ 0041eeb1 f   shotsave.obj
 0001:0001def0       ?create@DB_TABLE@@QAEEAAVSTRING_CLASS@@@Z 0041eef0 f i shotsave.obj
 0001:0001df10       ?get_global_error@DB_TABLE@@QAEKXZ 0041ef10 f i shotsave.obj
 0001:0001df30       ?open@DB_TABLE@@QAEEAAVSTRING_CLASS@@FFF@Z 0041ef30 f i shotsave.obj
 0001:0001df60       ?put_short@DB_TABLE@@QAEEGFF@Z 0041ef60 f i shotsave.obj
 0001:0001df90       ?rec_delete@DB_TABLE@@QAEEXZ 0041ef90 f i shotsave.obj
 0001:0001dfb0       ??0SHOT_BUFFER_ENTRY@@QAE@XZ 0041efb0 f i shotsave.obj
 0001:0001dff0       ??0PROFILE_NAME_ENTRY@@QAE@XZ 0041eff0 f i shotsave.obj
 0001:0001e030       ?delete_file@NAME_CLASS@@QAEEXZ 0041f030 f i shotsave.obj
 0001:0001e060       ??4NAME_CLASS@@QAEXABVSTRING_CLASS@@@Z 0041f060 f i shotsave.obj
 0001:0001e080       ?get_profile_ii_name@NAME_CLASS@@QAEEAAVSTRING_CLASS@@00PAG@Z 0041f080 f i shotsave.obj
 0001:0001e0b0       ?get_profile_ii_name@NAME_CLASS@@QAEEAAVSTRING_CLASS@@00J@Z 0041f0b0 f i shotsave.obj
 0001:0001e0e0       ?cat_w_char@STRING_CLASS@@QAEXABV1@G@Z 0041f0e0 f i shotsave.obj
 0001:0001e110       ?count@DOUBLE_ARRAY_CLASS@@QAEHXZ 0041f110 f i shotsave.obj
 0001:0001e130       ?cat_path@STRING_CLASS@@QAEXABV1@@Z 0041f130 f i shotsave.obj
 0001:0001e150       ??4NAME_CLASS@@QAEXN@Z     0041f150 f i shotsave.obj
 0001:0001e170       ??_GSHOT_BUFFER_ENTRY@@QAEPAXI@Z 0041f170 f i shotsave.obj
 0001:0001e1a0       ??1SHOT_BUFFER_ENTRY@@QAE@XZ 0041f1a0 f i shotsave.obj
 0001:0001e1d0       ??1PROFILE_NAME_ENTRY@@QAE@XZ 0041f1d0 f i shotsave.obj
 0001:0001e24f       ?skip_reset_machine@@YAEAAVSTRING_CLASS@@@Z 0041f24f f   skip.obj
 0001:0001e56c       ?skip_startup@@YAEXZ       0041f56c f   skip.obj
 0001:0001e573       ?skip_shutdown@@YAXXZ      0041f573 f   skip.obj
 0001:0001e5d9       ?skip_new_shot_notify@@YAGAAVSTRING_CLASS@@U_FILETIME@@@Z 0041f5d9 f   skip.obj
 0001:0001e7b2       ?max_parameters_saved@@YAJAAVSTRING_CLASS@@@Z 0041f7b2 f   skip.obj
 0001:0001e7d9       ?max_profiles_saved@@YAJAAVSTRING_CLASS@@@Z 0041f7d9 f   skip.obj
 0001:0001e800       ??0GENERIC_LIST_CLASS@@QAE@XZ 0041f800 f i skip.obj
 0001:0001e830       ??0MACH_SKIP_ENTRY@@QAE@XZ 0041f830 f i skip.obj
 0001:0001e850       ??_GMACH_SKIP_ENTRY@@QAEPAXI@Z 0041f850 f i skip.obj
 0001:0001e880       ??1MACH_SKIP_ENTRY@@QAE@XZ 0041f880 f i skip.obj
 0001:0001e8a0       ?init@UPLOAD_COPY_CLASS@@QAEXXZ 0041f8a0 f   upload_copy_class.obj
 0001:0001e8e2       ??0UPLOAD_COPY_CLASS@@QAE@XZ 0041f8e2 f   upload_copy_class.obj
 0001:0001e90f       ??1UPLOAD_COPY_CLASS@@QAE@XZ 0041f90f f   upload_copy_class.obj
 0001:0001e92f       ?is_changed@UPLOAD_COPY_CLASS@@QAE_NXZ 0041f92f f   upload_copy_class.obj
 0001:0001e943       ??AUPLOAD_COPY_CLASS@@QAEAAVSTRING_CLASS@@H@Z 0041f943 f   upload_copy_class.obj
 0001:0001e9b2       ?load@UPLOAD_COPY_CLASS@@QAEIVSTRING_CLASS@@00@Z 0041f9b2 f   upload_copy_class.obj
 0001:0001eaf0       ?save@UPLOAD_COPY_CLASS@@QAEIVSTRING_CLASS@@00@Z 0041faf0 f   upload_copy_class.obj
 0001:0001ec4c       ?isnew@UPLOAD_COPY_CLASS@@QAE_NAAVSTRING_CLASS@@@Z 0041fc4c f   upload_copy_class.obj
 0001:0001ed90       ?get_upload_copy_file_name@NAME_CLASS@@QAEEAAVSTRING_CLASS@@00@Z 0041fd90 f i upload_copy_class.obj
 0001:0001edc0       ??4NAME_CLASS@@QAEXH@Z     0041fdc0 f i upload_copy_class.obj
 0001:0001ede0       ??2@YAPAXIHPBDH@Z          0041fde0 f   libcmtd:dbgnew.obj
 0001:0001ee00       ??3@YAXPAX@Z               0041fe00 f   libcmtd:dbgdel.obj
 0001:0001eeb0       __onexit                   0041feb0 f   libcmtd:onexit.obj
 0001:0001ef70       _atexit                    0041ff70 f   libcmtd:onexit.obj
 0001:0001ef90       ___onexitinit              0041ff90 f   libcmtd:onexit.obj
 0001:0001efe0       __fpmath                   0041ffe0 f   libcmtd:fpinit.obj
 0001:0001f010       __fpclear                  00420010 f   libcmtd:fpinit.obj
 0001:0001f020       __cfltcvt_init             00420020 f   libcmtd:fpinit.obj
 0001:0001f070       ___setfflag                00420070 f   libcmtd:fpinit.obj
 0001:0001f08c       __ftol                     0042008c f   libcmtd:ftol.obj
 0001:0001f0c0       __alloca_probe             004200c0 f   libcmtd:chkstk.obj
 0001:0001f0c0       __chkstk                   004200c0 f   libcmtd:chkstk.obj
 0001:0001f0f0       _malloc                    004200f0 f   libcmtd:dbgheap.obj
 0001:0001f120       __malloc_dbg               00420120 f   libcmtd:dbgheap.obj
 0001:0001f150       __nh_malloc                00420150 f   libcmtd:dbgheap.obj
 0001:0001f170       __nh_malloc_dbg            00420170 f   libcmtd:dbgheap.obj
 0001:0001f210       __heap_alloc               00420210 f   libcmtd:dbgheap.obj
 0001:0001f230       __heap_alloc_dbg           00420230 f   libcmtd:dbgheap.obj
 0001:0001f550       _calloc                    00420550 f   libcmtd:dbgheap.obj
 0001:0001f580       __calloc_dbg               00420580 f   libcmtd:dbgheap.obj
 0001:0001f5e0       _realloc                   004205e0 f   libcmtd:dbgheap.obj
 0001:0001f610       __realloc_dbg              00420610 f   libcmtd:dbgheap.obj
 0001:0001fbc0       __expand                   00420bc0 f   libcmtd:dbgheap.obj
 0001:0001fbf0       __expand_dbg               00420bf0 f   libcmtd:dbgheap.obj
 0001:0001fc80       _free                      00420c80 f   libcmtd:dbgheap.obj
 0001:0001fca0       __free_lk                  00420ca0 f   libcmtd:dbgheap.obj
 0001:0001fcc0       __free_dbg                 00420cc0 f   libcmtd:dbgheap.obj
 0001:0001fd30       __free_dbg_lk              00420d30 f   libcmtd:dbgheap.obj
 0001:00020120       __msize                    00421120 f   libcmtd:dbgheap.obj
 0001:00020140       __msize_dbg                00421140 f   libcmtd:dbgheap.obj
 0001:000202d0       __CrtSetBreakAlloc         004212d0 f   libcmtd:dbgheap.obj
 0001:000202f0       __CrtSetDbgBlockType       004212f0 f   libcmtd:dbgheap.obj
 0001:000203d0       __CrtSetAllocHook          004213d0 f   libcmtd:dbgheap.obj
 0001:00020480       __CrtCheckMemory           00421480 f   libcmtd:dbgheap.obj
 0001:00020830       __CrtSetDbgFlag            00421830 f   libcmtd:dbgheap.obj
 0001:00020860       __CrtDoForAllClientObjects 00421860 f   libcmtd:dbgheap.obj
 0001:00020910       __CrtIsValidPointer        00421910 f   libcmtd:dbgheap.obj
 0001:00020960       __CrtIsValidHeapPointer    00421960 f   libcmtd:dbgheap.obj
 0001:00020a90       __CrtIsMemoryBlock         00421a90 f   libcmtd:dbgheap.obj
 0001:00020bc0       __CrtSetDumpClient         00421bc0 f   libcmtd:dbgheap.obj
 0001:00020be0       __CrtMemCheckpoint         00421be0 f   libcmtd:dbgheap.obj
 0001:00020d90       __CrtMemDifference         00421d90 f   libcmtd:dbgheap.obj
 0001:00020ec0       __CrtMemDumpAllObjectsSince 00421ec0 f   libcmtd:dbgheap.obj
 0001:000212e0       __CrtDumpMemoryLeaks       004222e0 f   libcmtd:dbgheap.obj
 0001:00021360       __CrtMemDumpStatistics     00422360 f   libcmtd:dbgheap.obj
 0001:00021430       _memcpy                    00422430 f   libcmtd:memcpy.obj
 0001:00021770       __beginthread              00422770 f   libcmtd:thread.obj
 0001:00021940       __endthread                00422940 f   libcmtd:thread.obj
 0001:000219a0       _WinMainCRTStartup         004229a0 f   libcmtd:wincrt0.obj
 0001:00021b10       __amsg_exit                00422b10 f   libcmtd:wincrt0.obj
 0001:00021b70       __mtinitlocks              00422b70 f   libcmtd:mlock.obj
 0001:00021bb0       __mtdeletelocks            00422bb0 f   libcmtd:mlock.obj
 0001:00021c50       __lock                     00422c50 f   libcmtd:mlock.obj
 0001:00021cf0       __unlock                   00422cf0 f   libcmtd:mlock.obj
 0001:00021d10       __lockerr_exit             00422d10 f   libcmtd:mlock.obj
 0001:00021d30       __CrtDbgBreak              00422d30 f   libcmtd:dbgrpt.obj
 0001:00021d40       __CrtSetReportMode         00422d40 f   libcmtd:dbgrpt.obj
 0001:00021da0       __CrtSetReportFile         00422da0 f   libcmtd:dbgrpt.obj
 0001:00021e20       __CrtSetReportHook         00422e20 f   libcmtd:dbgrpt.obj
 0001:00021e40       __CrtDbgReport             00422e40 f   libcmtd:dbgrpt.obj
 0001:000224e0       __cinit                    004234e0 f   libcmtd:crt0dat.obj
 0001:00022520       _exit                      00423520 f   libcmtd:crt0dat.obj
 0001:00022540       __exit                     00423540 f   libcmtd:crt0dat.obj
 0001:00022560       __cexit                    00423560 f   libcmtd:crt0dat.obj
 0001:00022580       __c_exit                   00423580 f   libcmtd:crt0dat.obj
 0001:00022690       __lockexit                 00423690 f   libcmtd:crt0dat.obj
 0001:000226a0       __unlockexit               004236a0 f   libcmtd:crt0dat.obj
 0001:000226e0       __setdefaultprecision      004236e0 f   libcmtd:fp8.obj
 0001:00022700       __ms_p5_test_fdiv          00423700 f   libcmtd:testfdiv.obj
 0001:00022760       __ms_p5_mp_test_fdiv       00423760 f   libcmtd:testfdiv.obj
 0001:000227b0       __forcdecpt                004237b0 f   libcmtd:cvt.obj
 0001:00022860       __cropzeros                00423860 f   libcmtd:cvt.obj
 0001:00022940       __positive                 00423940 f   libcmtd:cvt.obj
 0001:00022970       __fassign                  00423970 f   libcmtd:cvt.obj
 0001:000229c0       __cftoe                    004239c0 f   libcmtd:cvt.obj
 0001:00022bb0       __cftof                    00423bb0 f   libcmtd:cvt.obj
 0001:00022d60       __cftog                    00423d60 f   libcmtd:cvt.obj
 0001:00022e50       __cfltcvt                  00423e50 f   libcmtd:cvt.obj
 0001:00022ee0       ?_set_new_handler@@YAP6AHI@ZP6AHI@Z@Z 00423ee0 f   libcmtd:handler.obj
 0001:00022f10       ?_query_new_handler@@YAP6AHI@ZXZ 00423f10 f   libcmtd:handler.obj
 0001:00022f20       __callnewh                 00423f20 f   libcmtd:handler.obj
 0001:00022f50       __global_unwind2           00423f50 f   libcmtd:exsup.obj
 0001:00022f92       __local_unwind2            00423f92 f   libcmtd:exsup.obj
 0001:00022fea       __NLG_Return2              00423fea f   libcmtd:exsup.obj
 0001:00022ffa       __abnormal_termination     00423ffa f   libcmtd:exsup.obj
 0001:0002301d       __NLG_Notify1              0042401d f   libcmtd:exsup.obj
 0001:00023026       __NLG_Notify               00424026 f   libcmtd:exsup.obj
 0001:00023039       __NLG_Dispatch             00424039 f   libcmtd:exsup.obj
 0001:00023048       __except_handler3          00424048 f   libcmtd:exsup3.obj
 0001:00023105       __seh_longjmp_unwind@4     00424105 f   libcmtd:exsup3.obj
 0001:00023120       _memset                    00424120 f   libcmtd:memset.obj
 0001:00023180       __malloc_base              00424180 f   libcmtd:malloc.obj
 0001:000231a0       __nh_malloc_base           004241a0 f   libcmtd:malloc.obj
 0001:00023200       __heap_alloc_base          00424200 f   libcmtd:malloc.obj
 0001:00023350       __CrtDefaultAllocHook      00424350 f   libcmtd:dbghook.obj
 0001:00023360       __expand_base              00424360 f   libcmtd:expand.obj
 0001:00023570       __realloc_base             00424570 f   libcmtd:realloc.obj
 0001:00023a10       __free_base                00424a10 f   libcmtd:free.obj
 0001:00023b60       __heapchk                  00424b60 f   libcmtd:heapchk.obj
 0001:00023c70       __heapset                  00424c70 f   libcmtd:heapchk.obj
 0001:00023c80       __get_sbh_threshold        00424c80 f   libcmtd:sbheap.obj
 0001:00023cb0       __set_sbh_threshold        00424cb0 f   libcmtd:sbheap.obj
 0001:00023dc0       ___sbh_heap_init           00424dc0 f   libcmtd:sbheap.obj
 0001:00023e30       ___sbh_find_block          00424e30 f   libcmtd:sbheap.obj
 0001:00023e90       ___sbh_verify_block        00424e90 f   libcmtd:sbheap.obj
 0001:00023ef0       ___sbh_free_block          00424ef0 f   libcmtd:sbheap.obj
 0001:000244d0       ___sbh_alloc_block         004254d0 f   libcmtd:sbheap.obj
 0001:00024a10       ___sbh_alloc_new_region    00425a10 f   libcmtd:sbheap.obj
 0001:00024b20       ___sbh_alloc_new_group     00425b20 f   libcmtd:sbheap.obj
 0001:00024d10       ___sbh_resize_block        00425d10 f   libcmtd:sbheap.obj
 0001:00025300       ___sbh_heapmin             00426300 f   libcmtd:sbheap.obj
 0001:00025430       ___sbh_heap_check          00426430 f   libcmtd:sbheap.obj
 0001:00025a50       __get_old_sbh_threshold    00426a50 f   libcmtd:sbheap.obj
 0001:00025a60       __set_old_sbh_threshold    00426a60 f   libcmtd:sbheap.obj
 0001:00025a90       ___old_sbh_new_region      00426a90 f   libcmtd:sbheap.obj
 0001:00025c70       ___old_sbh_release_region  00426c70 f   libcmtd:sbheap.obj
 0001:00025cf0       ___old_sbh_decommit_pages  00426cf0 f   libcmtd:sbheap.obj
 0001:00025e50       ___old_sbh_find_block      00426e50 f   libcmtd:sbheap.obj
 0001:00025ee0       ___old_sbh_free_block      00426ee0 f   libcmtd:sbheap.obj
 0001:00025f50       ___old_sbh_alloc_block     00426f50 f   libcmtd:sbheap.obj
 0001:00026310       ___old_sbh_alloc_block_from_page 00427310 f   libcmtd:sbheap.obj
 0001:000265c0       ___old_sbh_resize_block    004275c0 f   libcmtd:sbheap.obj
 0001:00026730       ___old_sbh_heap_check      00427730 f   libcmtd:sbheap.obj
 0001:00026970       __GetLinkerVersion         00427970 f   libcmtd:heapinit.obj
 0001:000269d0       ___heap_select             004279d0 f   libcmtd:heapinit.obj
 0001:00026c00       __heap_init                00427c00 f   libcmtd:heapinit.obj
 0001:00026c90       __heap_term                00427c90 f   libcmtd:heapinit.obj
 0001:00026d80       _sprintf                   00427d80 f   libcmtd:sprintf.obj
 0001:00026e80       __isctype                  00427e80 f   libcmtd:isctype.obj
 0001:00026f40       __dosmaperr                00427f40 f   libcmtd:dosmap.obj
 0001:00026fe0       __errno                    00427fe0 f   libcmtd:dosmap.obj
 0001:00026ff0       ___doserrno                00427ff0 f   libcmtd:dosmap.obj
 0001:00027000       __mtinit                   00428000 f   libcmtd:tidtable.obj
 0001:00027090       __mtterm                   00428090 f   libcmtd:tidtable.obj
 0001:000270c0       __initptd                  004280c0 f   libcmtd:tidtable.obj
 0001:000270e0       __getptd                   004280e0 f   libcmtd:tidtable.obj
 0001:00027180       __freeptd                  00428180 f   libcmtd:tidtable.obj
 0001:00027290       ___threadid                00428290 f   libcmtd:tidtable.obj
 0001:000272a0       ___threadhandle            004282a0 f   libcmtd:tidtable.obj
 0001:000272b0       __XcptFilter               004282b0 f   libcmtd:winxfltr.obj
 0001:000274d0       __wincmdln                 004284d0 f   libcmtd:wincmdln.obj
 0001:00027590       __setenvp                  00428590 f   libcmtd:stdenvp.obj
 0001:000276e0       __setargv                  004286e0 f   libcmtd:stdargv.obj
 0001:00027bf0       ___crtGetEnvironmentStringsA 00428bf0 f   libcmtd:a_env.obj
 0001:00027e10       __ioinit                   00428e10 f   libcmtd:ioinit.obj
 0001:00028140       __ioterm                   00429140 f   libcmtd:ioinit.obj
 0001:000281e0       __FF_MSGBANNER             004291e0 f   libcmtd:crt0msg.obj
 0001:00028230       __NMSG_WRITE               00429230 f   libcmtd:crt0msg.obj
 0001:000283f0       __GET_RTERRMSG             004293f0 f   libcmtd:crt0msg.obj
 0001:00028440       __itoa                     00429440 f   libcmtd:xtoa.obj
 0001:00028560       __ltoa                     00429560 f   libcmtd:xtoa.obj
 0001:000285a0       __ultoa                    004295a0 f   libcmtd:xtoa.obj
 0001:000285c0       __i64toa                   004295c0 f   libcmtd:xtoa.obj
 0001:00028710       __ui64toa                  00429710 f   libcmtd:xtoa.obj
 0001:00028730       _strlen                    00429730 f   libcmtd:strlen.obj
 0001:000287b0       __snprintf                 004297b0 f   libcmtd:snprintf.obj
 0001:000288b0       _strcpy                    004298b0 f   libcmtd:strcat.obj
 0001:000288c0       _strcat                    004298c0 f   libcmtd:strcat.obj
 0001:000289a0       __vsnprintf                004299a0 f   libcmtd:vsnprint.obj
 0001:00028aa0       _signal                    00429aa0 f   libcmtd:winsig.obj
 0001:00028d70       _raise                     00429d70 f   libcmtd:winsig.obj
 0001:00029010       ___fpecode                 0042a010 f   libcmtd:winsig.obj
 0001:00029020       ___pxcptinfoptrs           0042a020 f   libcmtd:winsig.obj
 0001:00029030       ___crtMessageBoxA          0042a030 f   libcmtd:crtmbox.obj
 0001:000290f0       _strncpy                   0042a0f0 f   libcmtd:strncpy.obj
 0001:000291f0       __statusfp                 0042a1f0 f   libcmtd:ieee87.obj
 0001:00029210       __clearfp                  0042a210 f   libcmtd:ieee87.obj
 0001:00029230       __control87                0042a230 f   libcmtd:ieee87.obj
 0001:00029280       __controlfp                0042a280 f   libcmtd:ieee87.obj
 0001:000292a0       __fpreset                  0042a2a0 f   libcmtd:ieee87.obj
 0001:00029690       __tolower                  0042a690 f   libcmtd:tolower.obj
 0001:000296a0       _tolower                   0042a6a0 f   libcmtd:tolower.obj
 0001:00029740       __tolower_lk               0042a740 f   libcmtd:tolower.obj
 0001:00029870       __ZeroTail                 0042a870 f   libcmtd:intrncvt.obj
 0001:00029900       __IncMan                   0042a900 f   libcmtd:intrncvt.obj
 0001:000299b0       __RoundMan                 0042a9b0 f   libcmtd:intrncvt.obj
 0001:00029a90       __CopyMan                  0042aa90 f   libcmtd:intrncvt.obj
 0001:00029ae0       __FillZeroMan              0042aae0 f   libcmtd:intrncvt.obj
 0001:00029b10       __IsZeroMan                0042ab10 f   libcmtd:intrncvt.obj
 0001:00029b50       __ShrMan                   0042ab50 f   libcmtd:intrncvt.obj
 0001:00029c40       __ld12cvt                  0042ac40 f   libcmtd:intrncvt.obj
 0001:00029e90       __ld12tod                  0042ae90 f   libcmtd:intrncvt.obj
 0001:00029eb0       __ld12tof                  0042aeb0 f   libcmtd:intrncvt.obj
 0001:00029ed0       __ld12told                 0042aed0 f   libcmtd:intrncvt.obj
 0001:00029f90       __atodbl                   0042af90 f   libcmtd:intrncvt.obj
 0001:00029fd0       __atoldbl                  0042afd0 f   libcmtd:intrncvt.obj
 0001:0002a010       __atoflt                   0042b010 f   libcmtd:intrncvt.obj
 0001:0002a050       __fptostr                  0042b050 f   libcmtd:_fptostr.obj
 0001:0002a150       __fltout2                  0042b150 f   libcmtd:cfout.obj
 0001:0002a1d0       ___dtold                   0042b1d0 f   libcmtd:cfout.obj
 0001:0002a340       _memmove                   0042b340 f   libcmtd:memmove.obj
 0001:0002a680       __fptrap                   0042b680 f   libcmtd:crt0fp.obj
 0001:0002a690       _strtol                    0042b690 f   libcmtd:strtol.obj
 0001:0002a9f0       _strtoul                   0042b9f0 f   libcmtd:strtol.obj
 0001:0002aa20       _strchr                    0042ba20 f   libcmtd:strchr.obj
 0001:0002aa26       ___from_strstr_to_strchr   0042ba26 f   libcmtd:strchr.obj
 0001:0002aae0       _strstr                    0042bae0 f   libcmtd:strstr.obj
 0001:0002ab60       _strncmp                   0042bb60 f   libcmtd:strncmp.obj
 0001:0002aba0       __flsbuf                   0042bba0 f   libcmtd:_flsbuf.obj
 0001:0002ae20       __output                   0042be20 f   libcmtd:output.obj
 0001:0002bd50       ___crtGetStringTypeA       0042cd50 f   libcmtd:a_str.obj
 0001:0002bf10       __ismbbkalnum              0042cf10 f   libcmtd:ismbbyte.obj
 0001:0002bf30       __ismbbkprint              0042cf30 f   libcmtd:ismbbyte.obj
 0001:0002bf50       __ismbbkpunct              0042cf50 f   libcmtd:ismbbyte.obj
 0001:0002bf70       __ismbbalnum               0042cf70 f   libcmtd:ismbbyte.obj
 0001:0002bf90       __ismbbalpha               0042cf90 f   libcmtd:ismbbyte.obj
 0001:0002bfb0       __ismbbgraph               0042cfb0 f   libcmtd:ismbbyte.obj
 0001:0002bfd0       __ismbbprint               0042cfd0 f   libcmtd:ismbbyte.obj
 0001:0002bff0       __ismbbpunct               0042cff0 f   libcmtd:ismbbyte.obj
 0001:0002c010       __ismbblead                0042d010 f   libcmtd:ismbbyte.obj
 0001:0002c030       __ismbbtrail               0042d030 f   libcmtd:ismbbyte.obj
 0001:0002c050       __ismbbkana                0042d050 f   libcmtd:ismbbyte.obj
 0001:0002c100       __setmbcp                  0042d100 f   libcmtd:mbctype.obj
 0001:0002c8c0       __getmbcp                  0042d8c0 f   libcmtd:mbctype.obj
 0001:0002c8e0       ___initmbctable            0042d8e0 f   libcmtd:mbctype.obj
 0001:0002c910       __aulldiv                  0042d910 f   libcmtd:ulldiv.obj
 0001:0002c980       __aullrem                  0042d980 f   libcmtd:ullrem.obj
 0001:0002ca00       _setlocale                 0042da00 f   libcmtd:setlocal.obj
 0001:0002d090       __expandlocale             0042e090 f   libcmtd:setlocal.obj
 0001:0002d220       ___init_dummy              0042e220 f   libcmtd:setlocal.obj
 0001:0002d230       __strcats                  0042e230 f   libcmtd:setlocal.obj
 0001:0002d280       ___lc_strtolc              0042e280 f   libcmtd:setlocal.obj
 0001:0002d3e0       ___lc_lctostr              0042e3e0 f   libcmtd:setlocal.obj
 0001:0002d450       ___crtLCMapStringA         0042e450 f   libcmtd:a_map.obj
 0001:0002d7b0       ___addl                    0042e7b0 f   libcmtd:mantold.obj
 0001:0002d7f0       ___add_12                  0042e7f0 f   libcmtd:mantold.obj
 0001:0002d8a0       ___shl_12                  0042e8a0 f   libcmtd:mantold.obj
 0001:0002d900       ___shr_12                  0042e900 f   libcmtd:mantold.obj
 0001:0002d970       ___mtold12                 0042e970 f   libcmtd:mantold.obj
 0001:0002dab0       ___strgtold12              0042eab0 f   libcmtd:strgtold.obj
 0001:0002e5e0       ___STRINGTOLD              0042f5e0 f   libcmtd:strgtold.obj
 0001:0002e630       _$I10_OUTPUT               0042f630 f   libcmtd:x10fout.obj
 0001:0002eb50       __toupper                  0042fb50 f   libcmtd:toupper.obj
 0001:0002eb60       _toupper                   0042fb60 f   libcmtd:toupper.obj
 0001:0002ec00       __toupper_lk               0042fc00 f   libcmtd:toupper.obj
 0001:0002ed30       __lseek                    0042fd30 f   libcmtd:lseek.obj
 0001:0002edc0       __lseek_lk                 0042fdc0 f   libcmtd:lseek.obj
 0001:0002ee80       __write                    0042fe80 f   libcmtd:write.obj
 0001:0002ef10       __write_lk                 0042ff10 f   libcmtd:write.obj
 0001:0002f190       __getbuf                   00430190 f   libcmtd:_getbuf.obj
 0001:0002f260       __isatty                   00430260 f   libcmtd:isatty.obj
 0001:0002f2a0       ___initstdio               004302a0 f   libcmtd:_file.obj
 0001:0002f3d0       ___endstdio                004303d0 f   libcmtd:_file.obj
 0001:0002f3f0       __lock_file                004303f0 f   libcmtd:_file.obj
 0001:0002f430       __lock_file2               00430430 f   libcmtd:_file.obj
 0001:0002f460       __unlock_file              00430460 f   libcmtd:_file.obj
 0001:0002f4a0       __unlock_file2             004304a0 f   libcmtd:_file.obj
 0001:0002f4d0       _wctomb                    004304d0 f   libcmtd:wctomb.obj
 0001:0002f550       __wctomb_lk                00430550 f   libcmtd:wctomb.obj
 0001:0002f5f0       ___init_time               004305f0 f   libcmtd:inittime.obj
 0001:0002ff70       ___init_numeric            00430f70 f   libcmtd:initnum.obj
 0001:000302a0       ___init_monetary           004312a0 f   libcmtd:initmon.obj
 0001:00030700       ___init_ctype              00431700 f   libcmtd:initctyp.obj
 0001:00030aa0       ___init_collate            00431aa0 f   libcmtd:initcoll.obj
 0001:00030ab0       _strcmp                    00431ab0 f   libcmtd:strcmp.obj
 0001:00030b40       _strcspn                   00431b40 f   libcmtd:strcspn.obj
 0001:00030b80       _strpbrk                   00431b80 f   libcmtd:strpbrk.obj
 0001:00030bc0       ___get_qualified_locale    00431bc0 f   libcmtd:getqloc.obj
 0001:00031960       ___ld12mul                 00432960 f   libcmtd:tenpow.obj
 0001:00031da0       ___multtenpow12            00432da0 f   libcmtd:tenpow.obj
 0001:00031e70       __alloc_osfhnd             00432e70 f   libcmtd:osfinfo.obj
 0001:00032060       __set_osfhnd               00433060 f   libcmtd:osfinfo.obj
 0001:00032120       __free_osfhnd              00433120 f   libcmtd:osfinfo.obj
 0001:00032200       __get_osfhandle            00433200 f   libcmtd:osfinfo.obj
 0001:00032270       __open_osfhandle           00433270 f   libcmtd:osfinfo.obj
 0001:00032380       __lock_fhandle             00433380 f   libcmtd:osfinfo.obj
 0001:00032410       __unlock_fhandle           00433410 f   libcmtd:osfinfo.obj
 0001:00032440       __fcloseall                00433440 f   libcmtd:closeall.obj
 0001:00032520       _fflush                    00433520 f   libcmtd:fflush.obj
 0001:00032570       __fflush_lk                00433570 f   libcmtd:fflush.obj
 0001:000325c0       __flush                    004335c0 f   libcmtd:fflush.obj
 0001:00032680       __flushall                 00433680 f   libcmtd:fflush.obj
 0001:000327d0       __Getdays                  004337d0 f   libcmtd:strftime.obj
 0001:00032900       __Getmonths                00433900 f   libcmtd:strftime.obj
 0001:00032a30       __Gettnames                00433a30 f   libcmtd:strftime.obj
 0001:00032da0       _strftime                  00433da0 f   libcmtd:strftime.obj
 0001:00032dc0       __Strftime                 00433dc0 f   libcmtd:strftime.obj
 0001:00033ce0       ___getlocaleinfo           00434ce0 f   libcmtd:inithelp.obj
 0001:00033f70       _localeconv                00434f70 f   libcmtd:lconv.obj
 0001:00033f80       ___crtGetStringTypeW       00434f80 f   libcmtd:w_str.obj
 0001:000341f0       __strcmpi                  004351f0 f   libcmtd:stricmp.obj
 0001:000341f0       __stricmp                  004351f0 f   libcmtd:stricmp.obj
 0001:000342c0       __strnicmp                 004352c0 f   libcmtd:strnicmp.obj
 0001:000343d0       _atol                      004353d0 f   libcmtd:atox.obj
 0001:000344d0       _atoi                      004354d0 f   libcmtd:atox.obj
 0001:000344f0       __atoi64                   004354f0 f   libcmtd:atox.obj
 0001:00034620       _fclose                    00435620 f   libcmtd:fclose.obj
 0001:000346b0       __fclose_lk                004356b0 f   libcmtd:fclose.obj
 0001:00034770       __commit                   00435770 f   libcmtd:commit.obj
 0001:00034850       ___tzset                   00435850 f   libcmtd:tzset.obj
 0001:00034890       __tzset                    00435890 f   libcmtd:tzset.obj
 0001:00034c60       __isindst                  00435c60 f   libcmtd:tzset.obj
 0001:00035190       ___crtGetLocaleInfoW       00436190 f   libcmtd:w_loc.obj
 0001:00035330       ___crtGetLocaleInfoA       00436330 f   libcmtd:a_loc.obj
 0001:000354e0       __allmul                   004364e0 f   libcmtd:llmul.obj
 0001:00035520       __close                    00436520 f   libcmtd:close.obj
 0001:000355a0       __close_lk                 004365a0 f   libcmtd:close.obj
 0001:00035650       __freebuf                  00436650 f   libcmtd:_freebuf.obj
 0001:000356f0       _getenv                    004366f0 f   libcmtd:getenv.obj
 0001:00035720       __getenv_lk                00436720 f   libcmtd:getenv.obj
 0001:000357f0       __mbsnbicoll               004367f0 f   libcmtd:mbsnbico.obj
 0001:00035840       ___wtomb_environ           00436840 f   libcmtd:wtombenv.obj
 0001:000358f0       ___crtCompareStringA       004368f0 f   libcmtd:a_cmp.obj
 0001:00035d40       ___crtsetenv               00436d40 f   libcmtd:setenv.obj
 0001:00036190       __mbschr                   00437190 f   libcmtd:mbschr.obj
 0001:0003627e       _CreateProcessW@40         0043727e f   kernel32:KERNEL32.dll
 0001:00036284       _Sleep@4                   00437284 f   kernel32:KERNEL32.dll
 0001:0003628a       _MoveFileW@8               0043728a f   kernel32:KERNEL32.dll
 0001:00036290       _DeleteFileW@4             00437290 f   kernel32:KERNEL32.dll
 0001:00036296       _WinExec@8                 00437296 f   kernel32:KERNEL32.dll
 0001:0003629c       _SetEvent@4                0043729c f   kernel32:KERNEL32.dll
 0001:000362a2       _lstrlenW@4                004372a2 f   kernel32:KERNEL32.dll
 0001:000362a8       _lstrcpyW@8                004372a8 f   kernel32:KERNEL32.dll
 0001:000362ae       _GetUserDefaultLangID@0    004372ae f   kernel32:KERNEL32.dll
 0001:000362b4       _CreateEventW@16           004372b4 f   kernel32:KERNEL32.dll
 0001:000362ba       _CloseHandle@4             004372ba f   kernel32:KERNEL32.dll
 0001:000362c0       _GetTickCount@0            004372c0 f   kernel32:KERNEL32.dll
 0001:000362c6       _FileTimeToSystemTime@8    004372c6 f   kernel32:KERNEL32.dll
 0001:000362cc       _lstrcpynW@12              004372cc f   kernel32:KERNEL32.dll
 0001:000362d2       _WaitForSingleObject@8     004372d2 f   kernel32:KERNEL32.dll
 0001:000362d8       _SetCommState@8            004372d8 f   kernel32:KERNEL32.dll
 0001:000362de       _GetCommState@8            004372de f   kernel32:KERNEL32.dll
 0001:000362e4       _CreateFileW@28            004372e4 f   kernel32:KERNEL32.dll
 0001:000362ea       _WriteFile@20              004372ea f   kernel32:KERNEL32.dll
 0001:000362f0       _lstrcmpW@8                004372f0 f   kernel32:KERNEL32.dll
 0001:000362f6       _SystemTimeToFileTime@8    004372f6 f   kernel32:KERNEL32.dll
 0001:000362fc       _GetLocalTime@4            004372fc f   kernel32:KERNEL32.dll
 0001:00036302       _IsBadWritePtr@8           00437302 f   kernel32:KERNEL32.dll
 0001:00036308       _IsBadReadPtr@8            00437308 f   kernel32:KERNEL32.dll
 0001:0003630e       _HeapValidate@12           0043730e f   kernel32:KERNEL32.dll
 0001:00036314       _ResumeThread@4            00437314 f   kernel32:KERNEL32.dll
 0001:0003631a       _GetLastError@0            0043731a f   kernel32:KERNEL32.dll
 0001:00036320       _CreateThread@24           00437320 f   kernel32:KERNEL32.dll
 0001:00036326       _TlsSetValue@8             00437326 f   kernel32:KERNEL32.dll
 0001:0003632c       _TlsGetValue@4             0043732c f   kernel32:KERNEL32.dll
 0001:00036332       _ExitThread@4              00437332 f   kernel32:KERNEL32.dll
 0001:00036338       _GetModuleHandleA@4        00437338 f   kernel32:KERNEL32.dll
 0001:0003633e       _GetStartupInfoA@4         0043733e f   kernel32:KERNEL32.dll
 0001:00036344       _GetCommandLineA@0         00437344 f   kernel32:KERNEL32.dll
 0001:0003634a       _GetVersion@0              0043734a f   kernel32:KERNEL32.dll
 0001:00036350       _ExitProcess@4             00437350 f   kernel32:KERNEL32.dll
 0001:00036356       _InitializeCriticalSection@4 00437356 f   kernel32:KERNEL32.dll
 0001:0003635c       _DeleteCriticalSection@4   0043735c f   kernel32:KERNEL32.dll
 0001:00036362       _EnterCriticalSection@4    00437362 f   kernel32:KERNEL32.dll
 0001:00036368       _LeaveCriticalSection@4    00437368 f   kernel32:KERNEL32.dll
 0001:0003636e       _FatalAppExitA@8           0043736e f   kernel32:KERNEL32.dll
 0001:00036374       _DebugBreak@0              00437374 f   kernel32:KERNEL32.dll
 0001:0003637a       _GetStdHandle@4            0043737a f   kernel32:KERNEL32.dll
 0001:00036380       _InterlockedDecrement@4    00437380 f   kernel32:KERNEL32.dll
 0001:00036386       _OutputDebugStringA@4      00437386 f   kernel32:KERNEL32.dll
 0001:0003638c       _GetProcAddress@8          0043738c f   kernel32:KERNEL32.dll
 0001:00036392       _LoadLibraryA@4            00437392 f   kernel32:KERNEL32.dll
 0001:00036398       _InterlockedIncrement@4    00437398 f   kernel32:KERNEL32.dll
 0001:0003639e       _GetModuleFileNameA@12     0043739e f   kernel32:KERNEL32.dll
 0001:000363a4       _TerminateProcess@8        004373a4 f   kernel32:KERNEL32.dll
 0001:000363aa       _GetCurrentProcess@0       004373aa f   kernel32:KERNEL32.dll
 0001:000363b0       _RtlUnwind@16              004373b0 f   kernel32:KERNEL32.dll
 0001:000363b6       _HeapAlloc@12              004373b6 f   kernel32:KERNEL32.dll
 0001:000363bc       _HeapReAlloc@16            004373bc f   kernel32:KERNEL32.dll
 0001:000363c2       _HeapFree@12               004373c2 f   kernel32:KERNEL32.dll
 0001:000363c8       _VirtualFree@12            004373c8 f   kernel32:KERNEL32.dll
 0001:000363ce       _VirtualAlloc@16           004373ce f   kernel32:KERNEL32.dll
 0001:000363d4       _GetEnvironmentVariableA@12 004373d4 f   kernel32:KERNEL32.dll
 0001:000363da       _GetVersionExA@4           004373da f   kernel32:KERNEL32.dll
 0001:000363e0       _HeapDestroy@4             004373e0 f   kernel32:KERNEL32.dll
 0001:000363e6       _HeapCreate@12             004373e6 f   kernel32:KERNEL32.dll
 0001:000363ec       _GetCurrentThreadId@0      004373ec f   kernel32:KERNEL32.dll
 0001:000363f2       _TlsAlloc@0                004373f2 f   kernel32:KERNEL32.dll
 0001:000363f8       _TlsFree@4                 004373f8 f   kernel32:KERNEL32.dll
 0001:000363fe       _SetLastError@4            004373fe f   kernel32:KERNEL32.dll
 0001:00036404       _GetCurrentThread@0        00437404 f   kernel32:KERNEL32.dll
 0001:0003640a       _UnhandledExceptionFilter@4 0043740a f   kernel32:KERNEL32.dll
 0001:00036410       _FreeEnvironmentStringsA@4 00437410 f   kernel32:KERNEL32.dll
 0001:00036416       _FreeEnvironmentStringsW@4 00437416 f   kernel32:KERNEL32.dll
 0001:0003641c       _WideCharToMultiByte@32    0043741c f   kernel32:KERNEL32.dll
 0001:00036422       _GetEnvironmentStrings@0   00437422 f   kernel32:KERNEL32.dll
 0001:00036428       _GetEnvironmentStringsW@0  00437428 f   kernel32:KERNEL32.dll
 0001:0003642e       _SetHandleCount@4          0043742e f   kernel32:KERNEL32.dll
 0001:00036434       _GetFileType@4             00437434 f   kernel32:KERNEL32.dll
 0001:0003643a       _SetConsoleCtrlHandler@8   0043743a f   kernel32:KERNEL32.dll
 0001:00036440       _MultiByteToWideChar@24    00437440 f   kernel32:KERNEL32.dll
 0001:00036446       _GetStringTypeA@20         00437446 f   kernel32:KERNEL32.dll
 0001:0003644c       _GetStringTypeW@16         0043744c f   kernel32:KERNEL32.dll
 0001:00036452       _GetCPInfo@8               00437452 f   kernel32:KERNEL32.dll
 0001:00036458       _GetACP@0                  00437458 f   kernel32:KERNEL32.dll
 0001:0003645e       _GetOEMCP@0                0043745e f   kernel32:KERNEL32.dll
 0001:00036464       _LCMapStringA@24           00437464 f   kernel32:KERNEL32.dll
 0001:0003646a       _LCMapStringW@24           0043746a f   kernel32:KERNEL32.dll
 0001:00036470       _SetFilePointer@16         00437470 f   kernel32:KERNEL32.dll
 0001:00036476       _IsValidLocale@8           00437476 f   kernel32:KERNEL32.dll
 0001:0003647c       _IsValidCodePage@4         0043747c f   kernel32:KERNEL32.dll
 0001:00036482       _GetLocaleInfoA@16         00437482 f   kernel32:KERNEL32.dll
 0001:00036488       _EnumSystemLocalesA@8      00437488 f   kernel32:KERNEL32.dll
 0001:0003648e       _GetUserDefaultLCID@0      0043748e f   kernel32:KERNEL32.dll
 0001:00036494       _SetStdHandle@8            00437494 f   kernel32:KERNEL32.dll
 0001:0003649a       _FlushFileBuffers@4        0043749a f   kernel32:KERNEL32.dll
 0001:000364a0       _GetTimeZoneInformation@4  004374a0 f   kernel32:KERNEL32.dll
 0001:000364a6       _GetLocaleInfoW@16         004374a6 f   kernel32:KERNEL32.dll
 0001:000364ac       _CompareStringA@24         004374ac f   kernel32:KERNEL32.dll
 0001:000364b2       _CompareStringW@24         004374b2 f   kernel32:KERNEL32.dll
 0001:000364b8       _SetEnvironmentVariableA@8 004374b8 f   kernel32:KERNEL32.dll
 0001:000364be       _MessageBoxW@16            004374be f   user32:USER32.dll
 0001:000364c4       _CallWindowProcW@20        004374c4 f   user32:USER32.dll
 0001:000364ca       _SetFocus@4                004374ca f   user32:USER32.dll
 0001:000364d0       _GetDlgItem@8              004374d0 f   user32:USER32.dll
 0001:000364d6       _DefWindowProcW@16         004374d6 f   user32:USER32.dll
 0001:000364dc       _PostQuitMessage@4         004374dc f   user32:USER32.dll
 0001:000364e2       _GetClientRect@8           004374e2 f   user32:USER32.dll
 0001:000364e8       _DdeGetData@16             004374e8 f   user32:USER32.dll
 0001:000364ee       _SetTimer@16               004374ee f   user32:USER32.dll
 0001:000364f4       _EndDialog@8               004374f4 f   user32:USER32.dll
 0001:000364fa       _InvalidateRect@12         004374fa f   user32:USER32.dll
 0001:00036500       _GetFocus@0                00437500 f   user32:USER32.dll
 0001:00036506       _CheckRadioButton@16       00437506 f   user32:USER32.dll
 0001:0003650c       _PostMessageW@16           0043750c f   user32:USER32.dll
 0001:00036512       _DialogBoxParamW@20        00437512 f   user32:USER32.dll
 0001:00036518       _KillTimer@8               00437518 f   user32:USER32.dll
 0001:0003651e       _GetDC@4                   0043751e f   user32:USER32.dll
 0001:00036524       _ReleaseDC@8               00437524 f   user32:USER32.dll
 0001:0003652a       _SendMessageW@16           0043752a f   user32:USER32.dll
 0001:00036530       _CreateWindowExW@48        00437530 f   user32:USER32.dll
 0001:00036536       _EnableMenuItem@12         00437536 f   user32:USER32.dll
 0001:0003653c       _GetMenu@4                 0043753c f   user32:USER32.dll
 0001:00036542       _CloseWindow@4             00437542 f   user32:USER32.dll
 0001:00036548       _CreateDialogParamW@20     00437548 f   user32:USER32.dll
 0001:0003654e       _SetWindowLongW@12         0043754e f   user32:USER32.dll
 0001:00036554       _GetDesktopWindow@0        00437554 f   user32:USER32.dll
 0001:0003655a       _UpdateWindow@4            0043755a f   user32:USER32.dll
 0001:00036560       _RegisterClassW@4          00437560 f   user32:USER32.dll
 0001:00036566       _LoadIconW@8               00437566 f   user32:USER32.dll
 0001:0003656c       _LoadCursorW@8             0043756c f   user32:USER32.dll
 0001:00036572       _DispatchMessageW@4        00437572 f   user32:USER32.dll
 0001:00036578       _TranslateMessage@4        00437578 f   user32:USER32.dll
 0001:0003657e       _IsDialogMessageW@8        0043757e f   user32:USER32.dll
 0001:00036584       _TranslateAcceleratorW@12  00437584 f   user32:USER32.dll
 0001:0003658a       _GetMessageW@16            0043758a f   user32:USER32.dll
 0001:00036590       _LoadAcceleratorsW@8       00437590 f   user32:USER32.dll
 0001:00036596       _SetWindowPos@28           00437596 f   user32:USER32.dll
 0001:0003659c       _IsWindowEnabled@4         0043759c f   user32:USER32.dll
 0001:000365a2       _GetDlgCtrlID@4            004375a2 f   user32:USER32.dll
 0001:000365a8       _SetBkColor@8              004375a8 f   gdi32:GDI32.dll
 0001:000365ae       _DeleteObject@4            004375ae f   gdi32:GDI32.dll
 0001:000365b4       _LineTo@12                 004375b4 f   gdi32:GDI32.dll
 0001:000365ba       _MoveToEx@16               004375ba f   gdi32:GDI32.dll
 0001:000365c0       _SelectObject@8            004375c0 f   gdi32:GDI32.dll
 0001:000365c6       _CreatePen@12              004375c6 f   gdi32:GDI32.dll
 0001:000365cc       _CreateSolidBrush@4        004375cc f   gdi32:GDI32.dll
 0001:000365d2       _InitCommonControls@0      004375d2 f   comctl32:COMCTL32.dll
 0001:000365d8       _SHAppBarMessage@8         004375d8 f   shell32:SHELL32.dll
 0001:000365de       _inet_addr@4               004375de f   wsock32:WSOCK32.dll
 0001:000365e4       _htons@4                   004375e4 f   wsock32:WSOCK32.dll
 0001:000365ea       _WSACleanup@0              004375ea f   wsock32:WSOCK32.dll
 0001:000365f0       _closesocket@4             004375f0 f   wsock32:WSOCK32.dll
 0001:000365f6       _sendto@24                 004375f6 f   wsock32:WSOCK32.dll
 0001:000365fc       _recvfrom@24               004375fc f   wsock32:WSOCK32.dll
 0001:00036602       _gethostbyname@4           00437602 f   wsock32:WSOCK32.dll
 0001:00036608       _gethostname@8             00437608 f   wsock32:WSOCK32.dll
 0001:0003660e       _bind@12                   0043760e f   wsock32:WSOCK32.dll
 0001:00036614       _htonl@4                   00437614 f   wsock32:WSOCK32.dll
 0001:0003661a       _WSAGetLastError@0         0043761a f   wsock32:WSOCK32.dll
 0001:00036620       _socket@12                 00437620 f   wsock32:WSOCK32.dll
 0001:00036626       _WSAStartup@8              00437626 f   wsock32:WSOCK32.dll
 0001:00036630       ?destroy@WINDOW_CLASS@@QAEXXZ 00437630 f   v5subs:wclass.obj
 0001:0003665b       ?show@WINDOW_CLASS@@QAEXH@Z 0043765b f   v5subs:wclass.obj
 0001:00036682       ?enable@WINDOW_CLASS@@QAEX_N@Z 00437682 f   v5subs:wclass.obj
 0001:000366c7       ?enable@WINDOW_CLASS@@QAEXE@Z 004376c7 f   v5subs:wclass.obj
 0001:0003670c       ?send@WINDOW_CLASS@@QAEXIIJ@Z 0043770c f   v5subs:wclass.obj
 0001:0003673b       ?send@WINDOW_CLASS@@QAEXI@Z 0043773b f   v5subs:wclass.obj
 0001:00036766       ?post@WINDOW_CLASS@@QAEXIIJ@Z 00437766 f   v5subs:wclass.obj
 0001:00036795       ?post@WINDOW_CLASS@@QAEXI@Z 00437795 f   v5subs:wclass.obj
 0001:000367c0       ?shrinkwrap@WINDOW_CLASS@@QAEXPAUHWND__@@@Z 004377c0 f   v5subs:wclass.obj
 0001:000367e0       ?move@WINDOW_CLASS@@QAEXHHHHH@Z 004377e0 f   v5subs:wclass.obj
 0001:00036817       ?getrect@WINDOW_CLASS@@QAEHAAUtagRECT@@@Z 00437817 f   v5subs:wclass.obj
 0001:0003684b       ?get_move_rect@WINDOW_CLASS@@QAEHAAUtagRECT@@@Z 0043784b f   v5subs:wclass.obj
 0001:0003691f       ?remove_style@WINDOW_CLASS@@QAEHJ@Z 0043791f f   v5subs:wclass.obj
 0001:00036965       ?add_style@WINDOW_CLASS@@QAEHJ@Z 00437965 f   v5subs:wclass.obj
 0001:000369a7       ?style@WINDOW_CLASS@@QAEJXZ 004379a7 f   v5subs:wclass.obj
 0001:000369d9       ?userdata@WINDOW_CLASS@@QAEJXZ 004379d9 f   v5subs:wclass.obj
 0001:00036a0b       ?offset@WINDOW_CLASS@@QAEXJJ@Z 00437a0b f   v5subs:wclass.obj
 0001:00036a5a       ?move@WINDOW_CLASS@@QAEXHHH@Z 00437a5a f   v5subs:wclass.obj
 0001:00036aac       ?move@WINDOW_CLASS@@QAEXAAUtagRECT@@@Z 00437aac f   v5subs:wclass.obj
 0001:00036af7       ?is_enabled@WINDOW_CLASS@@QAEHXZ 00437af7 f   v5subs:wclass.obj
 0001:00036b1c       ?is_visible@WINDOW_CLASS@@QAEHXZ 00437b1c f   v5subs:wclass.obj
 0001:00036b41       ?is_minimized@WINDOW_CLASS@@QAEHXZ 00437b41 f   v5subs:wclass.obj
 0001:00036b66       ?refresh@WINDOW_CLASS@@QAEXXZ 00437b66 f   v5subs:wclass.obj
 0001:00036b93       ?set_title@WINDOW_CLASS@@QAEXPAG@Z 00437b93 f   v5subs:wclass.obj
 0001:00036bc6       ?empty@WINDOW_ARRAY_CLASS@@QAEXXZ 00437bc6 f   v5subs:wclass.obj
 0001:00036c2e       ?remove_all@WINDOW_ARRAY_CLASS@@QAEXXZ 00437c2e f   v5subs:wclass.obj
 0001:00036c88       ??1WINDOW_ARRAY_CLASS@@QAE@XZ 00437c88 f   v5subs:wclass.obj
 0001:00036c9b       ?setsize@WINDOW_ARRAY_CLASS@@QAE_NH@Z 00437c9b f   v5subs:wclass.obj
 0001:00036e18       ?contains@WINDOW_ARRAY_CLASS@@QAE_NPAUHWND__@@@Z 00437e18 f   v5subs:wclass.obj
 0001:00036e69       ?next@WINDOW_ARRAY_CLASS@@QAE_NXZ 00437e69 f   v5subs:wclass.obj
 0001:00036e9a       ?add@WINDOW_ARRAY_CLASS@@QAE_NPAUHWND__@@@Z 00437e9a f   v5subs:wclass.obj
 0001:00036f07       ?remove@WINDOW_ARRAY_CLASS@@QAE_NPAUHWND__@@@Z 00437f07 f   v5subs:wclass.obj
 0001:00036fbe       ??AWINDOW_ARRAY_CLASS@@QAEAAVWINDOW_CLASS@@H@Z 00437fbe f   v5subs:wclass.obj
 0001:00037040       ??_EWINDOW_CLASS@@UAEPAXI@Z 00438040 f i v5subs:wclass.obj
 0001:000370b0       ??1LISTBOX_CLASS@@QAE@XZ   004380b0 f   v5subs:listbox.obj
 0001:000370db       ?init@LISTBOX_CLASS@@QAEEPAUHWND__@@@Z 004380db f   v5subs:listbox.obj
 0001:0003718e       ?init@LISTBOX_CLASS@@QAEEPAUHWND__@@H@Z 0043818e f   v5subs:listbox.obj
 0001:000371b2       ?empty@LISTBOX_CLASS@@QAEXXZ 004381b2 f   v5subs:listbox.obj
 0001:000371db       ?check_buf_size@LISTBOX_CLASS@@AAEEH@Z 004381db f   v5subs:listbox.obj
 0001:00037253       ?check_buf_size@LISTBOX_CLASS@@AAEEPAG@Z 00438253 f   v5subs:listbox.obj
 0001:0003727b       ?check_item_size@LISTBOX_CLASS@@AAEEH@Z 0043827b f   v5subs:listbox.obj
 0001:000372d5       ?add@LISTBOX_CLASS@@QAEHPAG@Z 004382d5 f   v5subs:listbox.obj
 0001:0003733b       ?insert@LISTBOX_CLASS@@QAEHHPAG@Z 0043833b f   v5subs:listbox.obj
 0001:000373a3       ?setcursel@LISTBOX_CLASS@@QAEEH@Z 004383a3 f   v5subs:listbox.obj
 0001:00037415       ?index@LISTBOX_CLASS@@QAEHPAG@Z 00438415 f   v5subs:listbox.obj
 0001:00037467       ?setcursel@LISTBOX_CLASS@@QAEEPAG@Z 00438467 f   v5subs:listbox.obj
 0001:000374cd       ?findprefix@LISTBOX_CLASS@@QAEEPAG@Z 004384cd f   v5subs:listbox.obj
 0001:00037537       ?redraw_off@LISTBOX_CLASS@@QAEXXZ 00438537 f   v5subs:listbox.obj
 0001:00037554       ?redraw_on@LISTBOX_CLASS@@QAEXXZ 00438554 f   v5subs:listbox.obj
 0001:00037581       ?count@LISTBOX_CLASS@@QAEHXZ 00438581 f   v5subs:listbox.obj
 0001:000375cb       ?current_index@LISTBOX_CLASS@@QAEHXZ 004385cb f   v5subs:listbox.obj
 0001:00037610       ?set_current_index@LISTBOX_CLASS@@QAEEH@Z 00438610 f   v5subs:listbox.obj
 0001:0003764e       ?get_item_data@LISTBOX_CLASS@@QAEHH@Z 0043864e f   v5subs:listbox.obj
 0001:0003767a       ?get_item_data@LISTBOX_CLASS@@QAEHXZ 0043867a f   v5subs:listbox.obj
 0001:000376af       ?set_item_data@LISTBOX_CLASS@@QAE_NHH@Z 004386af f   v5subs:listbox.obj
 0001:000376e6       ?set_item_data@LISTBOX_CLASS@@QAE_NH@Z 004386e6 f   v5subs:listbox.obj
 0001:00037728       ?top_index@LISTBOX_CLASS@@QAEHXZ 00438728 f   v5subs:listbox.obj
 0001:0003776d       ?set_top_index@LISTBOX_CLASS@@QAEEH@Z 0043876d f   v5subs:listbox.obj
 0001:000377ab       ?scroll_to_end@LISTBOX_CLASS@@QAEXXZ 004387ab f   v5subs:listbox.obj
 0001:000377ea       ?remove@LISTBOX_CLASS@@QAEEH@Z 004387ea f   v5subs:listbox.obj
 0001:00037834       ?is_selected@LISTBOX_CLASS@@QAEEH@Z 00438834 f   v5subs:listbox.obj
 0001:0003786f       ?replace@LISTBOX_CLASS@@QAEEPAG@Z 0043886f f   v5subs:listbox.obj
 0001:00037900       ?set_select@LISTBOX_CLASS@@QAEXHE@Z 00438900 f   v5subs:listbox.obj
 0001:0003792c       ?select_all@LISTBOX_CLASS@@QAEXI@Z 0043892c f   v5subs:listbox.obj
 0001:000379a4       ?select_count@LISTBOX_CLASS@@QAEHXZ 004389a4 f   v5subs:listbox.obj
 0001:000379f5       ?item_text@LISTBOX_CLASS@@QAEPAGH@Z 004389f5 f   v5subs:listbox.obj
 0001:00037a67       ?selected_index@LISTBOX_CLASS@@QAEHXZ 00438a67 f   v5subs:listbox.obj
 0001:00037aaf       ?selected_text@LISTBOX_CLASS@@QAEPAGXZ 00438aaf f   v5subs:listbox.obj
 0001:00037ae0       ?get_select_list@LISTBOX_CLASS@@QAEHPAPAH@Z 00438ae0 f   v5subs:listbox.obj
 0001:00037b7f       ?visible_row_count@LISTBOX_CLASS@@QAEHXZ 00438b7f f   v5subs:listbox.obj
 0001:00037bed       ?convert_tab_array_to_dialog_units@LISTBOX_CLASS@@AAE_NPAHH@Z 00438bed f   v5subs:listbox.obj
 0001:00037c96       ?set_pixel_tabs@LISTBOX_CLASS@@QAE_NPAHH@Z 00438c96 f   v5subs:listbox.obj
 0001:00037cee       ?set_tabs@LISTBOX_CLASS@@QAE_NPAUHWND__@@@Z 00438cee f   v5subs:listbox.obj
 0001:00037dcf       ?set_tabs@LISTBOX_CLASS@@QAE_NHH@Z 00438dcf f   v5subs:listbox.obj
 0001:00037ed4       ?refresh@LISTBOX_CLASS@@QAEXXZ 00438ed4 f   v5subs:listbox.obj
 0001:00037f10       ?init_save_counts@@YAXPAUSAVE_COUNTS@@@Z 00438f10 f   v5subs:machine.obj
 0001:00037f45       ?init@MACHINE_CLASS@@QAEXXZ 00438f45 f   v5subs:machine.obj
 0001:0003802a       ??0MACHINE_CLASS@@QAE@XZ   0043902a f   v5subs:machine.obj
 0001:00038098       ?isempty@MACHINE_CLASS@@QAEEXZ 00439098 f   v5subs:machine.obj
 0001:000380ab       ?read_machset_db@MACHINE_CLASS@@QAEEAAVSTRING_CLASS@@@Z 004390ab f   v5subs:machine.obj
 0001:00038836       ?find@MACHINE_CLASS@@QAEEAAVSTRING_CLASS@@0@Z 00439836 f   v5subs:machine.obj
 0001:00038895       ?refresh_monitor_flags@MACHINE_CLASS@@QAEEXZ 00439895 f   v5subs:machine.obj
 0001:0003895d       ?has_binary_valve@MACHINE_CLASS@@QAEEXZ 0043995d f   v5subs:machine.obj
 0001:0003897e       ?set_has_binary_valve@MACHINE_CLASS@@QAEXE@Z 0043997e f   v5subs:machine.obj
 0001:000389c5       ?has_hmi@MACHINE_CLASS@@QAEEXZ 004399c5 f   v5subs:machine.obj
 0001:000389e6       ?set_has_hmi@MACHINE_CLASS@@QAEXE@Z 004399e6 f   v5subs:machine.obj
 0001:00038a2d       ?ls_off_at_eos@MACHINE_CLASS@@QAEEXZ 00439a2d f   v5subs:machine.obj
 0001:00038a51       ?set_ls_off_at_eos@MACHINE_CLASS@@QAEXE@Z 00439a51 f   v5subs:machine.obj
 0001:00038a98       ?save@MACHINE_CLASS@@QAEEXZ 00439a98 f   v5subs:machine.obj
 0001:00038f1d       ??4MACHINE_CLASS@@QAEXABV0@@Z 00439f1d f   v5subs:machine.obj
 0001:000390f0       ?count@SETPOINT_CLASS@@QAEHXZ 0043a0f0 f i v5subs:machine.obj
 0001:00039110       ?get_default_hmi_settings_csvname@NAME_CLASS@@QAEEXZ 0043a110 f i v5subs:machine.obj
 0001:00039130       ?create_directory@NAME_CLASS@@QAEEXZ 0043a130 f i v5subs:machine.obj
 0001:00039150       ?directory_exists@NAME_CLASS@@QAEEXZ 0043a150 f i v5subs:machine.obj
 0001:00039170       ?get_dstat_dbname@NAME_CLASS@@QAEEAAVSTRING_CLASS@@0@Z 0043a170 f i v5subs:machine.obj
 0001:000391a0       ?get_semaphor_dbname@NAME_CLASS@@QAEEAAVSTRING_CLASS@@0@Z 0043a1a0 f i v5subs:machine.obj
 0001:000391d0       ?empty@STRING_CLASS@@QAEXXZ 0043a1d0 f   v5subs:stringcl.obj
 0001:0003920e       ?null@STRING_CLASS@@QAEXXZ 0043a20e f   v5subs:stringcl.obj
 0001:00039231       ?acquire@STRING_CLASS@@QAEEPAGH@Z 0043a231 f   v5subs:stringcl.obj
 0001:00039281       ?acquire@STRING_CLASS@@QAEEPAG@Z 0043a281 f   v5subs:stringcl.obj
 0001:000392cb       ?get_ascii@STRING_CLASS@@QAEEPAD@Z 0043a2cb f   v5subs:stringcl.obj
 0001:00039378       ?release@STRING_CLASS@@QAEPAGXZ 0043a378 f   v5subs:stringcl.obj
 0001:000393a4       ?len@STRING_CLASS@@QAEJXZ  0043a3a4 f   v5subs:stringcl.obj
 0001:000393c9       ?last_char@STRING_CLASS@@QAEPAGXZ 0043a3c9 f   v5subs:stringcl.obj
 0001:00039400       ??0STRING_CLASS@@QAE@XZ    0043a400 f   v5subs:stringcl.obj
 0001:00039421       ??0STRING_CLASS@@QAE@PBG@Z 0043a421 f   v5subs:stringcl.obj
 0001:00039450       ??0STRING_CLASS@@QAE@ABV0@@Z 0043a450 f   v5subs:stringcl.obj
 0001:0003947f       ??1STRING_CLASS@@QAE@XZ    0043a47f f   v5subs:stringcl.obj
 0001:00039492       ?next_field@STRING_CLASS@@QAE_NG@Z 0043a492 f   v5subs:stringcl.obj
 0001:00039676       ?next_field@STRING_CLASS@@QAE_NXZ 0043a676 f   v5subs:stringcl.obj
 0001:00039690       ?get_text@STRING_CLASS@@QAE_NPAUHWND__@@@Z 0043a690 f   v5subs:stringcl.obj
 0001:00039714       ?set_text@STRING_CLASS@@QAE_NPAUHWND__@@@Z 0043a714 f   v5subs:stringcl.obj
 0001:00039759       ?init@STRING_CLASS@@QAEEJ@Z 0043a759 f   v5subs:stringcl.obj
 0001:000397dc       ?boolean_value@STRING_CLASS@@QAEEXZ 0043a7dc f   v5subs:stringcl.obj
 0001:0003982a       ??4STRING_CLASS@@QAEXE@Z   0043a82a f   v5subs:stringcl.obj
 0001:0003985f       ??4STRING_CLASS@@QAEXH@Z   0043a85f f   v5subs:stringcl.obj
 0001:0003989e       ??4STRING_CLASS@@QAEXI@Z   0043a89e f   v5subs:stringcl.obj
 0001:000398dd       ??4STRING_CLASS@@QAEXN@Z   0043a8dd f   v5subs:stringcl.obj
 0001:0003991e       ??4STRING_CLASS@@QAEXG@Z   0043a91e f   v5subs:stringcl.obj
 0001:00039950       ??4STRING_CLASS@@QAEXPBG@Z 0043a950 f   v5subs:stringcl.obj
 0001:000399d8       ??4STRING_CLASS@@QAEXABV0@@Z 0043a9d8 f   v5subs:stringcl.obj
 0001:000399f4       ?get_substring@STRING_CLASS@@QAEEABV1@GG@Z 0043a9f4 f   v5subs:stringcl.obj
 0001:00039b36       ?compare@STRING_CLASS@@QAEHPAG@Z 0043ab36 f   v5subs:stringcl.obj
 0001:00039b87       ??MSTRING_CLASS@@QAEEPBG@Z 0043ab87 f   v5subs:stringcl.obj
 0001:00039bc6       ??MSTRING_CLASS@@QAEEABV0@@Z 0043abc6 f   v5subs:stringcl.obj
 0001:00039c0b       ??OSTRING_CLASS@@QAEEPBG@Z 0043ac0b f   v5subs:stringcl.obj
 0001:00039c4a       ??OSTRING_CLASS@@QAEEABV0@@Z 0043ac4a f   v5subs:stringcl.obj
 0001:00039c8f       ??PSTRING_CLASS@@QAEEABV0@@Z 0043ac8f f   v5subs:stringcl.obj
 0001:00039cd4       ??NSTRING_CLASS@@QAEEABV0@@Z 0043acd4 f   v5subs:stringcl.obj
 0001:00039d19       ??8STRING_CLASS@@QAEEABV0@@Z 0043ad19 f   v5subs:stringcl.obj
 0001:00039d5e       ??8STRING_CLASS@@QAEEPBG@Z 0043ad5e f   v5subs:stringcl.obj
 0001:00039d9d       ?upsize@STRING_CLASS@@QAEEJ@Z 0043ad9d f   v5subs:stringcl.obj
 0001:00039e36       ?cat_w_char@STRING_CLASS@@QAEXPBGG@Z 0043ae36 f   v5subs:stringcl.obj
 0001:00039ed2       ?cat_path@STRING_CLASS@@QAEXPBG@Z 0043aed2 f   v5subs:stringcl.obj
 0001:00039fc4       ??YSTRING_CLASS@@QAEXG@Z   0043afc4 f   v5subs:stringcl.obj
 0001:0003a033       ??YSTRING_CLASS@@QAEXPBG@Z 0043b033 f   v5subs:stringcl.obj
 0001:0003a095       ??YSTRING_CLASS@@QAEXABV0@@Z 0043b095 f   v5subs:stringcl.obj
 0001:0003a0b1       ??YSTRING_CLASS@@QAEXE@Z   0043b0b1 f   v5subs:stringcl.obj
 0001:0003a0e6       ??YSTRING_CLASS@@QAEXH@Z   0043b0e6 f   v5subs:stringcl.obj
 0001:0003a14b       ??YSTRING_CLASS@@QAEXN@Z   0043b14b f   v5subs:stringcl.obj
 0001:0003a1b2       ??YSTRING_CLASS@@QAEXI@Z   0043b1b2 f   v5subs:stringcl.obj
 0001:0003a217       ?isempty@STRING_CLASS@@QAEEXZ 0043b217 f   v5subs:stringcl.obj
 0001:0003a25a       ?isnumeric@STRING_CLASS@@QAEEXZ 0043b25a f   v5subs:stringcl.obj
 0001:0003a314       ?iszero@STRING_CLASS@@QAE_NXZ 0043b314 f   v5subs:stringcl.obj
 0001:0003a3dc       ?real_value@STRING_CLASS@@QAENXZ 0043b3dc f   v5subs:stringcl.obj
 0001:0003a473       ?replace_leading_chars@STRING_CLASS@@QAEHGG@Z 0043b473 f   v5subs:stringcl.obj
 0001:0003a4e9       ?remove_leading_chars@STRING_CLASS@@QAEHG@Z 0043b4e9 f   v5subs:stringcl.obj
 0001:0003a558       ?find@STRING_CLASS@@QAEPAGG@Z 0043b558 f   v5subs:stringcl.obj
 0001:0003a5b5       ?find@STRING_CLASS@@QAEPAGPBG@Z 0043b5b5 f   v5subs:stringcl.obj
 0001:0003a5f3       ?contains@STRING_CLASS@@QAE_NG@Z 0043b5f3 f   v5subs:stringcl.obj
 0001:0003a617       ?start_equals@STRING_CLASS@@QAE_NPAG@Z 0043b617 f   v5subs:stringcl.obj
 0001:0003a689       ?uppercase@STRING_CLASS@@QAEXXZ 0043b689 f   v5subs:stringcl.obj
 0001:0003a6ac       ?lowercase@STRING_CLASS@@QAEXXZ 0043b6ac f   v5subs:stringcl.obj
 0001:0003a6cf       ?contains@STRING_CLASS@@QAE_NPBG@Z 0043b6cf f   v5subs:stringcl.obj
 0001:0003a6f2       ?replace@STRING_CLASS@@QAEEPBG0@Z 0043b6f2 f   v5subs:stringcl.obj
 0001:0003a7f9       ?replace@STRING_CLASS@@QAEEGG@Z 0043b7f9 f   v5subs:stringcl.obj
 0001:0003a863       ?replace_all@STRING_CLASS@@QAEHGG@Z 0043b863 f   v5subs:stringcl.obj
 0001:0003a8da       ?strip_crlf@STRING_CLASS@@QAEXXZ 0043b8da f   v5subs:stringcl.obj
 0001:0003a96f       ?null_first_control_char@STRING_CLASS@@QAEXXZ 0043b96f f   v5subs:stringcl.obj
 0001:0003a9d8       ?strip@STRING_CLASS@@QAEXXZ 0043b9d8 f   v5subs:stringcl.obj
 0001:0003aae0       ?rjust@STRING_CLASS@@QAEEJG@Z 0043bae0 f   v5subs:stringcl.obj
 0001:0003ab98       ?rjust@STRING_CLASS@@QAEEJ@Z 0043bb98 f   v5subs:stringcl.obj
 0001:0003abc0       ?init@PART_CLASS@@QAEXXZ   0043bbc0 f   v5subs:part.obj
 0001:0003ae21       ??0PART_CLASS@@QAE@XZ      0043be21 f   v5subs:part.obj
 0001:0003ae63       ??1PART_CLASS@@QAE@XZ      0043be63 f   v5subs:part.obj
 0001:0003ae9a       ??4PART_CLASS@@QAEXABV0@@Z 0043be9a f   v5subs:part.obj
 0001:0003b1bb       ?read_part_setup@PART_CLASS@@QAEEAAVSTRING_CLASS@@@Z 0043c1bb f   v5subs:part.obj
 0001:0003b1ec       ?refresh_time_sample@PART_CLASS@@QAEEXZ 0043c1ec f   v5subs:part.obj
 0001:0003b30b       ?read_ftchan_db@PART_CLASS@@QAEEAAVSTRING_CLASS@@@Z 0043c30b f   v5subs:part.obj
 0001:0003b3e9       ?read_x4_divisor@PART_CLASS@@QAEEXZ 0043c3e9 f   v5subs:part.obj
 0001:0003b540       ?find@PART_CLASS@@QAEEAAVSTRING_CLASS@@00@Z 0043c540 f   v5subs:part.obj
 0001:0003b6c3       ?save@PART_CLASS@@QAEEXZ   0043c6c3 f   v5subs:part.obj
 0001:0003b98e       ?plunger_area@PART_CLASS@@QAENXZ 0043c98e f   v5subs:part.obj
 0001:0003b9ee       ?set_distance_units@PART_CLASS@@QAEXF@Z 0043c9ee f   v5subs:part.obj
 0001:0003ba46       ?set_distance_units@PART_CLASS@@QAEXAAVSTRING_CLASS@@@Z 0043ca46 f   v5subs:part.obj
 0001:0003ba9e       ?set_velocity_units@PART_CLASS@@QAEXF@Z 0043ca9e f   v5subs:part.obj
 0001:0003baf6       ?set_velocity_units@PART_CLASS@@QAEXAAVSTRING_CLASS@@@Z 0043caf6 f   v5subs:part.obj
 0001:0003bb4e       ?set_pressure_units@PART_CLASS@@QAEXF@Z 0043cb4e f   v5subs:part.obj
 0001:0003bb85       ?set_pressure_units@PART_CLASS@@QAEXAAVSTRING_CLASS@@@Z 0043cb85 f   v5subs:part.obj
 0001:0003bbbc       ?set_total_stroke_length@PART_CLASS@@QAEXN@Z 0043cbbc f   v5subs:part.obj
 0001:0003bbfa       ?set_total_stroke_length@PART_CLASS@@QAEXAAVSTRING_CLASS@@@Z 0043cbfa f   v5subs:part.obj
 0001:0003bc30       ?set_min_stroke_length@PART_CLASS@@QAEXN@Z 0043cc30 f   v5subs:part.obj
 0001:0003bc6e       ?set_min_stroke_length@PART_CLASS@@QAEXAAVSTRING_CLASS@@@Z 0043cc6e f   v5subs:part.obj
 0001:0003bca4       ?set_biscuit_time_delay@PART_CLASS@@QAEXJ@Z 0043cca4 f   v5subs:part.obj
 0001:0003bcd8       ?set_biscuit_time_delay@PART_CLASS@@QAEXAAVSTRING_CLASS@@@Z 0043ccd8 f   v5subs:part.obj
 0001:0003bd0e       ?set_eos_velocity@PART_CLASS@@QAEXN@Z 0043cd0e f   v5subs:part.obj
 0001:0003bd4c       ?set_eos_velocity@PART_CLASS@@QAEXAAVSTRING_CLASS@@@Z 0043cd4c f   v5subs:part.obj
 0001:0003bd82       ?set_sleeve_fill_distance@PART_CLASS@@QAEXN@Z 0043cd82 f   v5subs:part.obj
 0001:0003bdc0       ?set_sleeve_fill_distance@PART_CLASS@@QAEXAAVSTRING_CLASS@@@Z 0043cdc0 f   v5subs:part.obj
 0001:0003bdf6       ?set_runner_fill_distance@PART_CLASS@@QAEXN@Z 0043cdf6 f   v5subs:part.obj
 0001:0003be34       ?set_runner_fill_distance@PART_CLASS@@QAEXAAVSTRING_CLASS@@@Z 0043ce34 f   v5subs:part.obj
 0001:0003be6a       ?set_csfs_min_velocity@PART_CLASS@@QAEXN@Z 0043ce6a f   v5subs:part.obj
 0001:0003bea8       ?set_csfs_min_velocity@PART_CLASS@@QAEXAAVSTRING_CLASS@@@Z 0043cea8 f   v5subs:part.obj
 0001:0003bede       ?set_csfs_rise_velocity@PART_CLASS@@QAEXN@Z 0043cede f   v5subs:part.obj
 0001:0003bf1c       ?set_csfs_rise_velocity@PART_CLASS@@QAEXAAVSTRING_CLASS@@@Z 0043cf1c f   v5subs:part.obj
 0001:0003bf52       ?set_csfs_min_position@PART_CLASS@@QAEXN@Z 0043cf52 f   v5subs:part.obj
 0001:0003bf90       ?set_csfs_min_position@PART_CLASS@@QAEXAAVSTRING_CLASS@@@Z 0043cf90 f   v5subs:part.obj
 0001:0003bfc6       ?set_user_velocity_position@PART_CLASS@@QAEXHN@Z 0043cfc6 f   v5subs:part.obj
 0001:0003c00b       ?set_user_velocity_position@PART_CLASS@@QAEXHAAVSTRING_CLASS@@@Z 0043d00b f   v5subs:part.obj
 0001:0003c04a       ?set_user_avg_velocity_start@PART_CLASS@@QAEXHN@Z 0043d04a f   v5subs:part.obj
 0001:0003c095       ?set_user_avg_velocity_start@PART_CLASS@@QAEXHAAVSTRING_CLASS@@@Z 0043d095 f   v5subs:part.obj
 0001:0003c0d7       ?set_user_avg_velocity_end@PART_CLASS@@QAEXHN@Z 0043d0d7 f   v5subs:part.obj
 0001:0003c122       ?set_user_avg_velocity_end@PART_CLASS@@QAEXHAAVSTRING_CLASS@@@Z 0043d122 f   v5subs:part.obj
 0001:0003c164       ?set_plunger_diameter@PART_CLASS@@QAEXN@Z 0043d164 f   v5subs:part.obj
 0001:0003c1ae       ?set_plunger_diameter@PART_CLASS@@QAEXAAVSTRING_CLASS@@@Z 0043d1ae f   v5subs:part.obj
 0001:0003c1e7       ?set_time_for_intens_pres@PART_CLASS@@QAEXJ@Z 0043d1e7 f   v5subs:part.obj
 0001:0003c221       ?set_time_for_intens_pres@PART_CLASS@@QAEXAAVSTRING_CLASS@@@Z 0043d221 f   v5subs:part.obj
 0001:0003c25a       ?set_pres_for_response_time@PART_CLASS@@QAEXN@Z 0043d25a f   v5subs:part.obj
 0001:0003c2a4       ?set_pres_for_response_time@PART_CLASS@@QAEXAAVSTRING_CLASS@@@Z 0043d2a4 f   v5subs:part.obj
 0001:0003c2dd       ?set_ms_per_time_sample@PART_CLASS@@QAEXF@Z 0043d2dd f   v5subs:part.obj
 0001:0003c31a       ?set_ms_per_time_sample@PART_CLASS@@QAEXAAVSTRING_CLASS@@@Z 0043d31a f   v5subs:part.obj
 0001:0003c354       ?set_nof_time_samples@PART_CLASS@@QAEXF@Z 0043d354 f   v5subs:part.obj
 0001:0003c391       ?set_nof_time_samples@PART_CLASS@@QAEXAAVSTRING_CLASS@@@Z 0043d391 f   v5subs:part.obj
 0001:0003c3cb       ?set_production_enabled@PART_CLASS@@QAEXE@Z 0043d3cb f   v5subs:part.obj
 0001:0003c405       ?set_head_pressure_channel@PART_CLASS@@QAEXF@Z 0043d405 f   v5subs:part.obj
 0001:0003c442       ?set_head_pressure_channel@PART_CLASS@@QAEXAAVSTRING_CLASS@@@Z 0043d442 f   v5subs:part.obj
 0001:0003c47c       ?set_rod_pressure_channel@PART_CLASS@@QAEXF@Z 0043d47c f   v5subs:part.obj
 0001:0003c4b9       ?set_rod_pressure_channel@PART_CLASS@@QAEXAAVSTRING_CLASS@@@Z 0043d4b9 f   v5subs:part.obj
 0001:0003c4f3       ?update@PART_CLASS@@QAEEXZ 0043d4f3 f   v5subs:part.obj
 0001:0003c920       ?get_partset_csvname@NAME_CLASS@@QAEEAAVSTRING_CLASS@@00@Z 0043d920 f i v5subs:part.obj
 0001:0003c950       ?get_psensor_dbname@NAME_CLASS@@QAEEXZ 0043d950 f i v5subs:part.obj
 0001:0003c970       ?get_psensor_dbname@NAME_CLASS@@QAEEAAVSTRING_CLASS@@@Z 0043d970 f i v5subs:part.obj
 0001:0003c990       ?reset_search_mode@DB_TABLE@@QAEXXZ 0043d990 f i v5subs:part.obj
 0001:0003c9b0       ?get_ftchan_dbname@NAME_CLASS@@QAEEAAVSTRING_CLASS@@00@Z 0043d9b0 f i v5subs:part.obj
 0001:0003c9e0       ?get_good_shot_setup_file_name@NAME_CLASS@@QAEEAAVSTRING_CLASS@@00@Z 0043d9e0 f i v5subs:part.obj
 0001:0003ca4f       ??0ANALOG_SENSOR_ENTRY@@QAE@XZ 0043da4f f   v5subs:asensor.obj
 0001:0003cae4       ??1ANALOG_SENSOR_ENTRY@@QAE@XZ 0043dae4 f   v5subs:asensor.obj
 0001:0003cb26       ??4ANALOG_SENSOR_ENTRY@@QAEAAU0@ABU0@@Z 0043db26 f   v5subs:asensor.obj
 0001:0003cbe8       ??8ANALOG_SENSOR_ENTRY@@QAEEABU0@@Z 0043dbe8 f   v5subs:asensor.obj
 0001:0003cc98       ?update@ANALOG_SENSOR_ENTRY@@QAEEXZ 0043dc98 f   v5subs:asensor.obj
 0001:0003cddd       ?get@ANALOG_SENSOR_ENTRY@@QAEEPAG@Z 0043dddd f   v5subs:asensor.obj
 0001:0003cfb7       ?put@ANALOG_SENSOR_ENTRY@@QAEEAAVSTRING_CLASS@@@Z 0043dfb7 f   v5subs:asensor.obj
 0001:0003d09a       ?max_volts_text@ANALOG_SENSOR_ENTRY@@QAEPAGXZ 0043e09a f   v5subs:asensor.obj
 0001:0003d0d0       ?converted_value@ANALOG_SENSOR_ENTRY@@QAENN@Z 0043e0d0 f   v5subs:asensor.obj
 0001:0003d103       ?converted_value@ANALOG_SENSOR_ENTRY@@QAENI@Z 0043e103 f   v5subs:asensor.obj
 0001:0003d135       ?raw_count@ANALOG_SENSOR_ENTRY@@QAENN@Z 0043e135 f   v5subs:asensor.obj
 0001:0003d179       ??0ANALOG_SENSOR@@QAE@XZ   0043e179 f   v5subs:asensor.obj
 0001:0003d190       ??1ANALOG_SENSOR@@QAE@XZ   0043e190 f   v5subs:asensor.obj
 0001:0003d19b       ?shutdown@ANALOG_SENSOR@@SAXXZ 0043e19b f   v5subs:asensor.obj
 0001:0003d1fc       ?get@ANALOG_SENSOR@@SAEXZ  0043e1fc f   v5subs:asensor.obj
 0001:0003d413       ?put@ANALOG_SENSOR@@SAEXZ  0043e413 f   v5subs:asensor.obj
 0001:0003d4de       ?setsize@ANALOG_SENSOR@@SAEH@Z 0043e4de f   v5subs:asensor.obj
 0001:0003d5d5       ?count@ANALOG_SENSOR@@QAEHXZ 0043e5d5 f   v5subs:asensor.obj
 0001:0003d5e5       ??AANALOG_SENSOR@@QAEAAUANALOG_SENSOR_ENTRY@@H@Z 0043e5e5 f   v5subs:asensor.obj
 0001:0003d617       ?index@ANALOG_SENSOR@@QAEHPAG@Z 0043e617 f   v5subs:asensor.obj
 0001:0003d66f       ?find@ANALOG_SENSOR@@QAEEPAG@Z 0043e66f f   v5subs:asensor.obj
 0001:0003d6aa       ?find@ANALOG_SENSOR@@QAEEH@Z 0043e6aa f   v5subs:asensor.obj
 0001:0003d6df       ?exists@ANALOG_SENSOR@@QAEEH@Z 0043e6df f   v5subs:asensor.obj
 0001:0003d703       ?next@ANALOG_SENSOR@@QAEEXZ 0043e703 f   v5subs:asensor.obj
 0001:0003d74f       ?rewind@ANALOG_SENSOR@@QAEEXZ 0043e74f f   v5subs:asensor.obj
 0001:0003d765       ?converted_value@ANALOG_SENSOR@@QAENN@Z 0043e765 f   v5subs:asensor.obj
 0001:0003d79f       ?converted_value@ANALOG_SENSOR@@QAENI@Z 0043e79f f   v5subs:asensor.obj
 0001:0003d7d5       ?raw_count@ANALOG_SENSOR@@QAENN@Z 0043e7d5 f   v5subs:asensor.obj
 0001:0003d80f       ?units_index@ANALOG_SENSOR@@QAEHXZ 0043e80f f   v5subs:asensor.obj
 0001:0003d839       ?vartype@ANALOG_SENSOR@@QAEIXZ 0043e839 f   v5subs:asensor.obj
 0001:0003d861       ?high_value@ANALOG_SENSOR@@QAENXZ 0043e861 f   v5subs:asensor.obj
 0001:0003d892       ?low_value@ANALOG_SENSOR@@QAENXZ 0043e892 f   v5subs:asensor.obj
 0001:0003d8c3       ?max_volts@ANALOG_SENSOR@@QAENXZ 0043e8c3 f   v5subs:asensor.obj
 0001:0003d8ef       ?desc@ANALOG_SENSOR@@QAEPAGXZ 0043e8ef f   v5subs:asensor.obj
 0001:0003d920       ??_EANALOG_SENSOR_ENTRY@@QAEPAXI@Z 0043e920 f i v5subs:asensor.obj
 0001:0003d990       ??0FTII_OP_STATUS_DATA@@QAE@XZ 0043e990 f   v5subs:ftii_shot_data.obj
 0001:0003dae7       ??8FTII_OP_STATUS_DATA@@QAE_NABU0@@Z 0043eae7 f   v5subs:ftii_shot_data.obj
 0001:0003de5e       ??4FTII_OP_STATUS_DATA@@QAEXABU0@@Z 0043ee5e f   v5subs:ftii_shot_data.obj
 0001:0003e035       ??4FTII_PARAMETERS@@QAEXABU0@@Z 0043f035 f   v5subs:ftii_shot_data.obj
 0001:0003e09c       ??4FTII_PARAMETERS@@QAEXABUVERSION_1_FTII_PARAMETERS@@@Z 0043f09c f   v5subs:ftii_shot_data.obj
 0001:0003e0f8       ??4FTII_POSITION_DATA@@QAEXABUFTII_SAMPLE@@@Z 0043f0f8 f   v5subs:ftii_shot_data.obj
 0001:0003e199       ??4FTII_TIME_DATA@@QAEXABUFTII_SAMPLE@@@Z 0043f199 f   v5subs:ftii_shot_data.obj
 0001:0003e20c       ??0FTII_NET_DATA@@QAE@XZ   0043f20c f   v5subs:ftii_shot_data.obj
 0001:0003e25f       ?clear@FTII_NET_DATA@@QAEXXZ 0043f25f f   v5subs:ftii_shot_data.obj
 0001:0003e2d0       ??1FTII_NET_DATA@@QAE@XZ   0043f2d0 f   v5subs:ftii_shot_data.obj
 0001:0003e2e3       ?set_shot_time@FTII_NET_DATA@@QAEXAAU_FILETIME@@@Z 0043f2e3 f   v5subs:ftii_shot_data.obj
 0001:0003e301       ?set_time_based_points@FTII_NET_DATA@@QAEXPAUFTII_SAMPLE@@H@Z 0043f301 f   v5subs:ftii_shot_data.obj
 0001:0003e35a       ?set_time_based_points@FTII_NET_DATA@@QAEXAAUNEW_FTII_DATA@@@Z 0043f35a f   v5subs:ftii_shot_data.obj
 0001:0003e391       ?set_position_based_points@FTII_NET_DATA@@QAEXPAUFTII_SAMPLE@@H@Z 0043f391 f   v5subs:ftii_shot_data.obj
 0001:0003e3ea       ?set_position_based_points@FTII_NET_DATA@@QAEXAAUNEW_FTII_DATA@@@Z 0043f3ea f   v5subs:ftii_shot_data.obj
 0001:0003e421       ?set_parameters@FTII_NET_DATA@@QAEXAAUNEW_FTII_DATA@@@Z 0043f421 f   v5subs:ftii_shot_data.obj
 0001:0003e494       ?set_parameters@FTII_NET_DATA@@QAEXPAUFTII_PARAMETERS@@@Z 0043f494 f   v5subs:ftii_shot_data.obj
 0001:0003e4c4       ?write_csv@FTII_NET_DATA@@QAEEAAVSTRING_CLASS@@@Z 0043f4c4 f   v5subs:ftii_shot_data.obj
 0001:0003e6ff       ??0FTII_FILE_DATA@@QAE@XZ  0043f6ff f   v5subs:ftii_shot_data.obj
 0001:0003e82a       ?clear@FTII_FILE_DATA@@QAEXXZ 0043f82a f   v5subs:ftii_shot_data.obj
 0001:0003e8eb       ??1FTII_FILE_DATA@@QAE@XZ  0043f8eb f   v5subs:ftii_shot_data.obj
 0001:0003e913       ?move@FTII_FILE_DATA@@QAEXAAV1@@Z 0043f913 f   v5subs:ftii_shot_data.obj
 0001:0003ea8e       ??4FTII_FILE_DATA@@QAEXABVFTII_NET_DATA@@@Z 0043fa8e f   v5subs:ftii_shot_data.obj
 0001:0003eced       ?get@FTII_FILE_DATA@@QAEEAAVSTRING_CLASS@@@Z 0043fced f   v5subs:ftii_shot_data.obj
 0001:0003f0d4       ?put@FTII_FILE_DATA@@QAEEAAVSTRING_CLASS@@@Z 004400d4 f   v5subs:ftii_shot_data.obj
 0001:0003f5ec       ?set_nof_extended_analogs@FTII_FILE_DATA@@QAEXH@Z 004405ec f   v5subs:ftii_shot_data.obj
 0001:0003f6a4       ?write_csv@FTII_FILE_DATA@@QAEEAAVSTRING_CLASS@@@Z 004406a4 f   v5subs:ftii_shot_data.obj
 0001:0003fb49       ??0FTII_ARRAY_DATA@@QAE@XZ 00440b49 f   v5subs:ftii_shot_data.obj
 0001:0003fc06       ?clear@FTII_ARRAY_DATA@@QAEXXZ 00440c06 f   v5subs:ftii_shot_data.obj
 0001:0003fd87       ??1FTII_ARRAY_DATA@@UAE@XZ 00440d87 f   v5subs:ftii_shot_data.obj
 0001:0003fda3       ?write_csv@FTII_ARRAY_DATA@@QAEXPAG@Z 00440da3 f   v5subs:ftii_shot_data.obj
 0001:0003ffa8       ??4FTII_ARRAY_DATA@@QAEXABVFTII_FILE_DATA@@@Z 00440fa8 f   v5subs:ftii_shot_data.obj
 0001:000409e7       ?interpolated_timer_count@FTII_ARRAY_DATA@@QAEIN@Z 004419e7 f   v5subs:ftii_shot_data.obj
 0001:00040ac9       ?interpolated_velocity@FTII_ARRAY_DATA@@QAENN@Z 00441ac9 f   v5subs:ftii_shot_data.obj
 0001:00040c49       ?velocity_between_positions@FTII_ARRAY_DATA@@QAENNN@Z 00441c49 f   v5subs:ftii_shot_data.obj
 0001:00040cf5       ?index_from_position@FTII_ARRAY_DATA@@QAEHN@Z 00441cf5 f   v5subs:ftii_shot_data.obj
 0001:00040d47       ?index_from_time@FTII_ARRAY_DATA@@QAEHN@Z 00441d47 f   v5subs:ftii_shot_data.obj
 0001:00040e08       ?clear@FTII_PROFILE@@QAEXXZ 00441e08 f   v5subs:ftii_shot_data.obj
 0001:00040f11       ??0FTII_PROFILE@@QAE@XZ    00441f11 f   v5subs:ftii_shot_data.obj
 0001:00040f8c       ??1FTII_PROFILE@@UAE@XZ    00441f8c f   v5subs:ftii_shot_data.obj
 0001:00040fb0       ?curve_index@FTII_PROFILE@@QAEHH@Z 00441fb0 f   v5subs:ftii_shot_data.obj
 0001:00041009       ?ms_between_positions@FTII_PROFILE@@QAENNN@Z 00442009 f   v5subs:ftii_shot_data.obj
 0001:00041062       ?interpolated_postion_from_velocity@FTII_PROFILE@@QAENHHH@Z 00442062 f   v5subs:ftii_shot_data.obj
 0001:000410d9       ?write_to_csv@FTII_PROFILE@@QAEXPAG@Z 004420d9 f   v5subs:ftii_shot_data.obj
 0001:000412a1       ??4FTII_PROFILE@@QAEXABVFTII_FILE_DATA@@@Z 004422a1 f   v5subs:ftii_shot_data.obj
 0001:00041603       ?get@FTII_PROFILE@@QAEEAAVSTRING_CLASS@@@Z 00442603 f   v5subs:ftii_shot_data.obj
 0001:000416b6       ?ms@FTII_PROFILE@@QAENH@Z  004426b6 f   v5subs:ftii_shot_data.obj
 0001:00041703       ?interpolated_ms@FTII_PROFILE@@QAENN@Z 00442703 f   v5subs:ftii_shot_data.obj
 0001:00041760       ??0FTII_MIN_MAX_DATA@@QAE@XZ 00442760 f i v5subs:ftii_shot_data.obj
 0001:00041790       ??1FTII_MIN_MAX_DATA@@QAE@XZ 00442790 f i v5subs:ftii_shot_data.obj
 0001:000417a0       ??4FTII_MIN_MAX_DATA@@QAEXABV0@@Z 004427a0 f i v5subs:ftii_shot_data.obj
 0001:000417d0       ??_EFTII_ARRAY_DATA@@UAEPAXI@Z 004427d0 f i v5subs:ftii_shot_data.obj
 0001:000417d0       ??_GFTII_ARRAY_DATA@@UAEPAXI@Z 004427d0 f i v5subs:ftii_shot_data.obj
 0001:00041800       ?timer_counts_between_positions@FTII_ARRAY_DATA@@QAEINN@Z 00442800 f i v5subs:ftii_shot_data.obj
 0001:00041840       ??_EFTII_MIN_MAX_DATA@@QAEPAXI@Z 00442840 f i v5subs:ftii_shot_data.obj
 0001:000418b0       ??_EFTII_PARAMETER_ENTRY@@QAEPAXI@Z 004428b0 f i v5subs:ftii_shot_data.obj
 0001:00041920       ??1FTII_PARAMETER_ENTRY@@QAE@XZ 00442920 f i v5subs:ftii_shot_data.obj
 0001:00041930       ??_GFTII_PROFILE@@UAEPAXI@Z 00442930 f i v5subs:ftii_shot_data.obj
 0001:00041930       ??_EFTII_PROFILE@@UAEPAXI@Z 00442930 f i v5subs:ftii_shot_data.obj
 0001:00041960       ??0FTII_PARAMETER_ENTRY@@QAE@XZ 00442960 f i v5subs:ftii_shot_data.obj
 0001:00041990       ?cleanup@BLOCK_MESSAGE_CLASS@@QAEXXZ 00442990 f   v5subs:msgclas.obj
 0001:000419fb       ??0BLOCK_MESSAGE_CLASS@@QAE@XZ 004429fb f   v5subs:msgclas.obj
 0001:00041a11       ??1BLOCK_MESSAGE_CLASS@@QAE@XZ 00442a11 f   v5subs:msgclas.obj
 0001:00041a2c       ?load@BLOCK_MESSAGE_CLASS@@QAEEPAG@Z 00442a2c f   v5subs:msgclas.obj
 0001:00041bb7       ?message@BLOCK_MESSAGE_CLASS@@QAEPAGJ@Z 00442bb7 f   v5subs:msgclas.obj
 0001:00041c4f       ?to_point@@YAXAAUtagPOINT@@J@Z 00442c4f f   v5subs:menuctrl.obj
 0001:00041c81       ?show_submenu@MENU_CONTROL_ENTRY@@QAEXXZ 00442c81 f   v5subs:menuctrl.obj
 0001:00041d66       ?do_left_button_up@MENU_CONTROL_ENTRY@@QAEXIJ@Z 00442d66 f   v5subs:menuctrl.obj
 0001:00041e8d       ?do_left_button_down@MENU_CONTROL_ENTRY@@QAEXIJ@Z 00442e8d f   v5subs:menuctrl.obj
 0001:00042064       ?do_mousemove@MENU_CONTROL_ENTRY@@QAEXPAUHWND__@@IJ@Z 00443064 f   v5subs:menuctrl.obj
 0001:00042493       ?menu_control_proc@@YGJPAUHWND__@@IIJ@Z 00443493 f   v5subs:menuctrl.obj
 0001:000425d2       ?sub_menu_control_proc@@YGJPAUHWND__@@IIJ@Z 004435d2 f   v5subs:menuctrl.obj
 0001:0004264b       ?read_rectangle@@YAEAAVRECTANGLE_CLASS@@AAVFILE_CLASS@@@Z 0044364b f   v5subs:menuctrl.obj
 0001:00042726       ??0MENU_ITEM_ENTRY@@QAE@XZ 00443726 f   v5subs:menuctrl.obj
 0001:000427e3       ??1MENU_ITEM_ENTRY@@QAE@XZ 004437e3 f   v5subs:menuctrl.obj
 0001:0004284a       ?draw_rect@MENU_ITEM_ENTRY@@QAEXPAUHDC__@@@Z 0044384a f   v5subs:menuctrl.obj
 0001:000428ce       ?draw@MENU_ITEM_ENTRY@@QAEXPAUHDC__@@@Z 004438ce f   v5subs:menuctrl.obj
 0001:00042a3f       ?draw_submenu_item@MENU_ITEM_ENTRY@@QAEXPAUHDC__@@I@Z 00443a3f f   v5subs:menuctrl.obj
 0001:00042b7a       ?get@MENU_ITEM_ENTRY@@QAEEPAG@Z 00443b7a f   v5subs:menuctrl.obj
 0001:00042c54       ??0MENU_CONTROL_ENTRY@@QAE@XZ 00443c54 f   v5subs:menuctrl.obj
 0001:00042d82       ??1MENU_CONTROL_ENTRY@@QAE@XZ 00443d82 f   v5subs:menuctrl.obj
 0001:00042e60       ?draw_line@@YAXPAUHDC__@@HHHH@Z 00443e60 f   v5subs:menuctrl.obj
 0001:00042e91       ?paint_me@MENU_CONTROL_ENTRY@@QAEXPAUHWND__@@@Z 00443e91 f   v5subs:menuctrl.obj
 0001:00042f7e       ?paint_submenu@MENU_CONTROL_ENTRY@@QAEXPAUHWND__@@@Z 00443f7e f   v5subs:menuctrl.obj
 0001:00043094       ?register_window@MENU_CONTROL_ENTRY@@SAXXZ 00444094 f   v5subs:menuctrl.obj
 0001:00043162       ?destroy_windows@MENU_CONTROL_ENTRY@@QAEXXZ 00444162 f   v5subs:menuctrl.obj
 0001:000431e1       ?create_windows@MENU_CONTROL_ENTRY@@QAEEPAGPAUHWND__@@@Z 004441e1 f   v5subs:menuctrl.obj
 0001:00043323       ?find@MENU_CONTROL_ENTRY@@QAEPAVMENU_ITEM_ENTRY@@I@Z 00444323 f   v5subs:menuctrl.obj
 0001:000433b4       ?is_checked@MENU_CONTROL_ENTRY@@QAEEI@Z 004443b4 f   v5subs:menuctrl.obj
 0001:000433e8       ?set_checkmark@MENU_CONTROL_ENTRY@@QAEEIE@Z 004443e8 f   v5subs:menuctrl.obj
 0001:00043426       ?is_gray@MENU_CONTROL_ENTRY@@QAEEI@Z 00444426 f   v5subs:menuctrl.obj
 0001:0004345a       ?set_gray@MENU_CONTROL_ENTRY@@QAEEIE@Z 0044445a f   v5subs:menuctrl.obj
 0001:00043498       ?resize@MENU_CONTROL_ENTRY@@QAEEH@Z 00444498 f   v5subs:menuctrl.obj
 0001:00043552       ?resize@MENU_CONTROL_ENTRY@@QAEEXZ 00444552 f   v5subs:menuctrl.obj
 0001:00043567       ?excel_to_csv@@YAXPAG@Z    00444567 f   v5subs:menuctrl.obj
 0001:000435cd       ?read@MENU_CONTROL_ENTRY@@QAEEAAVNAME_CLASS@@H@Z 004445cd f   v5subs:menuctrl.obj
 0001:00043f90       ??_EMENU_ITEM_ENTRY@@QAEPAXI@Z 00444f90 f i v5subs:menuctrl.obj
 0001:0004403f       ?cleanup@STRINGTABLE_ENTRY@@QAEXXZ 0044503f f   v5subs:stringtable.obj
 0001:00044099       ??0STRINGTABLE_ENTRY@@QAE@XZ 00445099 f   v5subs:stringtable.obj
 0001:000440ba       ??1STRINGTABLE_ENTRY@@QAE@XZ 004450ba f   v5subs:stringtable.obj
 0001:000440cd       ??4STRINGTABLE_ENTRY@@QAEXABV0@@Z 004450cd f   v5subs:stringtable.obj
 0001:0004411b       ?acquire@STRINGTABLE_ENTRY@@QAEXAAV1@@Z 0044511b f   v5subs:stringtable.obj
 0001:00044159       ?cleanup@STRINGTABLE_CLASS@@QAEXXZ 00445159 f   v5subs:stringtable.obj
 0001:000441b8       ??0STRINGTABLE_CLASS@@QAE@XZ 004451b8 f   v5subs:stringtable.obj
 0001:00044221       ??1STRINGTABLE_CLASS@@QAE@XZ 00445221 f   v5subs:stringtable.obj
 0001:0004424a       ??4STRINGTABLE_CLASS@@QAEXABV0@@Z 0044524a f   v5subs:stringtable.obj
 0001:00044337       ?append@STRINGTABLE_CLASS@@QAE_NAAVSTRING_CLASS@@@Z 00445337 f   v5subs:stringtable.obj
 0001:000447b2       ?read@STRINGTABLE_CLASS@@QAE_NAAVSTRING_CLASS@@@Z 004457b2 f   v5subs:stringtable.obj
 0001:000447d3       ?find@STRINGTABLE_CLASS@@QAEPAGPAG@Z 004457d3 f   v5subs:stringtable.obj
 0001:000448eb       ?find@STRINGTABLE_CLASS@@QAEPAGAAVSTRING_CLASS@@@Z 004458eb f   v5subs:stringtable.obj
 0001:00044909       ?rewind@STRINGTABLE_CLASS@@QAEXXZ 00445909 f   v5subs:stringtable.obj
 0001:0004491e       ?next@STRINGTABLE_CLASS@@QAE_NXZ 0044591e f   v5subs:stringtable.obj
 0001:0004494f       ?id@STRINGTABLE_CLASS@@QAEPAGXZ 0044594f f   v5subs:stringtable.obj
 0001:00044987       ?text@STRINGTABLE_CLASS@@QAEPAGXZ 00445987 f   v5subs:stringtable.obj
 0001:000449e0       ??_ESTRINGTABLE_ENTRY@@QAEPAXI@Z 004459e0 f i v5subs:stringtable.obj
 0001:00044a50       ?getpos@FILE_CLASS@@QAEKXZ 00445a50 f i v5subs:stringtable.obj
 0001:00044a70       ??0RECTANGLE_CLASS@@QAE@XZ 00445a70 f   v5subs:rectclas.obj
 0001:00044aa5       ??0RECTANGLE_CLASS@@QAE@ABV0@@Z 00445aa5 f   v5subs:rectclas.obj
 0001:00044ae3       ??0RECTANGLE_CLASS@@QAE@ABUtagRECT@@@Z 00445ae3 f   v5subs:rectclas.obj
 0001:00044b21       ??0RECTANGLE_CLASS@@QAE@JJJJ@Z 00445b21 f   v5subs:rectclas.obj
 0001:00044b54       ??1RECTANGLE_CLASS@@QAE@XZ 00445b54 f   v5subs:rectclas.obj
 0001:00044b5f       ??4RECTANGLE_CLASS@@QAEXABV0@@Z 00445b5f f   v5subs:rectclas.obj
 0001:00044b9a       ??4RECTANGLE_CLASS@@QAEXABUtagRECT@@@Z 00445b9a f   v5subs:rectclas.obj
 0001:00044bd5       ??8RECTANGLE_CLASS@@QAEEABV0@@Z 00445bd5 f   v5subs:rectclas.obj
 0001:00044c1e       ??8RECTANGLE_CLASS@@QAEEABUtagRECT@@@Z 00445c1e f   v5subs:rectclas.obj
 0001:00044c67       ?contains@RECTANGLE_CLASS@@QAEEABUtagPOINT@@@Z 00445c67 f   v5subs:rectclas.obj
 0001:00044cb3       ?intersects@RECTANGLE_CLASS@@QAEEABUtagRECT@@@Z 00445cb3 f   v5subs:rectclas.obj
 0001:00044cde       ?is_empty@RECTANGLE_CLASS@@QAEEXZ 00445cde f   v5subs:rectclas.obj
 0001:00044d50       ?near_borders@RECTANGLE_CLASS@@QAEGABUtagPOINT@@@Z 00445d50 f   v5subs:rectclas.obj
 0001:00044e35       ?getcursor@RECTANGLE_CLASS@@QAEHABUtagPOINT@@@Z 00445e35 f   v5subs:rectclas.obj
 0001:00044ea6       ?moveto@RECTANGLE_CLASS@@QAEXJJ@Z 00445ea6 f   v5subs:rectclas.obj
 0001:00044ef1       ?moveto@RECTANGLE_CLASS@@QAEXAAUtagPOINT@@@Z 00445ef1 f   v5subs:rectclas.obj
 0001:00044f46       ?offset@RECTANGLE_CLASS@@QAEXJJ@Z 00445f46 f   v5subs:rectclas.obj
 0001:00044f8d       ?setsize@RECTANGLE_CLASS@@QAEXUtagSIZE@@@Z 00445f8d f   v5subs:rectclas.obj
 0001:00044fb7       ?setsize@RECTANGLE_CLASS@@QAEXJJ@Z 00445fb7 f   v5subs:rectclas.obj
 0001:00044fe1       ?draw@RECTANGLE_CLASS@@QAEXPAUHDC__@@@Z 00445fe1 f   v5subs:rectclas.obj
 0001:00045065       ?draw@RECTANGLE_CLASS@@QAEXPAUHDC__@@K@Z 00446065 f   v5subs:rectclas.obj
 0001:000450ba       ?fill@RECTANGLE_CLASS@@QAEXPAUHDC__@@PAUHBRUSH__@@@Z 004460ba f   v5subs:rectclas.obj
 0001:000450d9       ?fill@RECTANGLE_CLASS@@QAEXPAUHDC__@@K@Z 004460d9 f   v5subs:rectclas.obj
 0001:00045130       ?put@RECTANGLE_CLASS@@QAEPAGXZ 00446130 f   v5subs:rectclas.obj
 0001:000451f7       ?get@RECTANGLE_CLASS@@QAEEPAG@Z 004461f7 f   v5subs:rectclas.obj
 0001:00045300       ?empty@RECTANGLE_CLASS@@QAEXXZ 00446300 f i v5subs:rectclas.obj
 0001:00045330       ??0FONT_CLASS@@QAE@XZ      00446330 f   v5subs:fontclas.obj
 0001:000453b0       ??4FONT_CLASS@@QAEXABUtagLOGFONTW@@@Z 004463b0 f   v5subs:fontclas.obj
 0001:0004546d       ??0FONT_CLASS@@QAE@ABUtagLOGFONTW@@@Z 0044646d f   v5subs:fontclas.obj
 0001:00045489       ??0FONT_CLASS@@QAE@ABV0@@Z 00446489 f   v5subs:fontclas.obj
 0001:000454b8       ??1FONT_CLASS@@QAE@XZ      004464b8 f   v5subs:fontclas.obj
 0001:000454c3       ??4FONT_CLASS@@QAEXABV0@@Z 004464c3 f   v5subs:fontclas.obj
 0001:000454ef       ??8FONT_CLASS@@QAE_NABUtagLOGFONTW@@@Z 004464ef f   v5subs:fontclas.obj
 0001:0004564a       ??8FONT_CLASS@@QAE_NABV0@@Z 0044664a f   v5subs:fontclas.obj
 0001:00045676       ??9FONT_CLASS@@QAE_NABUtagLOGFONTW@@@Z 00446676 f   v5subs:fontclas.obj
 0001:0004569e       ??9FONT_CLASS@@QAE_NABV0@@Z 0044669e f   v5subs:fontclas.obj
 0001:000456d9       ?get@FONT_CLASS@@QAE_NPAG@Z 004466d9 f   v5subs:fontclas.obj
 0001:00045a75       ?put@FONT_CLASS@@QAEPAGXZ  00446a75 f   v5subs:fontclas.obj
 0001:00045d9a       ?choose@FONT_CLASS@@QAE_NPAUHWND__@@AAK@Z 00446d9a f   v5subs:fontclas.obj
 0001:00045e2b       ?choose@FONT_CLASS@@QAE_NPAUHWND__@@@Z 00446e2b f   v5subs:fontclas.obj
 0001:00045eb3       ??0FONT_LIST_ENTRY@@QAE@XZ 00446eb3 f   v5subs:fontclas.obj
 0001:00045ee9       ??1FONT_LIST_ENTRY@@QAE@XZ 00446ee9 f   v5subs:fontclas.obj
 0001:00045f1f       ??0FONT_LIST_CLASS@@QAE@XZ 00446f1f f   v5subs:fontclas.obj
 0001:00045f36       ??1FONT_LIST_CLASS@@QAE@XZ 00446f36 f   v5subs:fontclas.obj
 0001:00045f89       ?get_font@FONT_LIST_CLASS@@QAE_NAAVFONT_CLASS@@PAUHFONT__@@@Z 00446f89 f   v5subs:fontclas.obj
 0001:00045fd0       ?get_handle@FONT_LIST_CLASS@@QAEPAUHFONT__@@ABVFONT_CLASS@@@Z 00446fd0 f   v5subs:fontclas.obj
 0001:00046108       ?free_handle@FONT_LIST_CLASS@@QAEXPAUHFONT__@@@Z 00447108 f   v5subs:fontclas.obj
 0001:000461b0       ??_GFONT_LIST_ENTRY@@QAEPAXI@Z 004471b0 f i v5subs:fontclas.obj
 0001:000461e0       ??0AUTO_BACKUP_CLASS@@QAE@XZ 004471e0 f   v5subs:autoback.obj
 0001:000461ff       ??1AUTO_BACKUP_CLASS@@QAE@XZ 004471ff f   v5subs:autoback.obj
 0001:00046215       ?dir@AUTO_BACKUP_CLASS@@QAEAAVSTRING_CLASS@@XZ 00447215 f   v5subs:autoback.obj
 0001:00046226       ?exists@AUTO_BACKUP_CLASS@@QAEEXZ 00447226 f   v5subs:autoback.obj
 0001:00046236       ?get_backup_dir@AUTO_BACKUP_CLASS@@QAEEXZ 00447236 f   v5subs:autoback.obj
 0001:000462e3       ?put_backup_dir@AUTO_BACKUP_CLASS@@QAEEXZ 004472e3 f   v5subs:autoback.obj
 0001:0004638b       ?set_backup_dir@AUTO_BACKUP_CLASS@@QAEXAAVSTRING_CLASS@@@Z 0044738b f   v5subs:autoback.obj
 0001:000463d1       ?backup_data_dir@AUTO_BACKUP_CLASS@@QAEEXZ 004473d1 f   v5subs:autoback.obj
 0001:00046481       ?backup_exe_dir@AUTO_BACKUP_CLASS@@QAEEXZ 00447481 f   v5subs:autoback.obj
 0001:00046581       ?backup_machine@AUTO_BACKUP_CLASS@@QAEEAAVSTRING_CLASS@@@Z 00447581 f   v5subs:autoback.obj
 0001:0004670e       ?backup_part@AUTO_BACKUP_CLASS@@QAEEAAVSTRING_CLASS@@0@Z 0044770e f   v5subs:autoback.obj
 0001:00046990       ?get_downtime_dbname@NAME_CLASS@@QAEEAAVSTRING_CLASS@@0@Z 00447990 f i v5subs:autoback.obj
 0001:000469c0       ?get_machine_directory@NAME_CLASS@@QAEEAAVSTRING_CLASS@@0@Z 004479c0 f i v5subs:autoback.obj
 0001:000469e0       ?get_machine_results_directory@NAME_CLASS@@QAEEAAVSTRING_CLASS@@0@Z 004479e0 f i v5subs:autoback.obj
 0001:00046a00       ?get_part_directory@NAME_CLASS@@QAEEAAVSTRING_CLASS@@00@Z 00447a00 f i v5subs:autoback.obj
 0001:00046a30       ?get_part_results_directory@NAME_CLASS@@QAEEAAVSTRING_CLASS@@00@Z 00447a30 f i v5subs:autoback.obj
 0001:00046a60       ?get_master_name@NAME_CLASS@@QAEEAAVSTRING_CLASS@@00@Z 00447a60 f i v5subs:autoback.obj
 0001:00046a90       ?get_master_ii_name@NAME_CLASS@@QAEEAAVSTRING_CLASS@@00@Z 00447a90 f i v5subs:autoback.obj
 0001:00046ac0       ?myfindchar@@YAPBGGPBG@Z   00447ac0 f   v5subs:ftiiclas.obj
 0001:00046b0f       ?myfindchar@@YAPAGGPAG@Z   00447b0f f   v5subs:ftiiclas.obj
 0001:00046b5e       ?get@FTII_VAR@@UAE_NPBG@Z  00447b5e f   v5subs:ftiiclas.obj
 0001:00046c3b       ?is_same_variable@FTII_VAR@@QAE_NPBG@Z 00447c3b f   v5subs:ftiiclas.obj
 0001:00046c62       ?append_value@FTII_VAR@@QAE_NAAVSTRING_CLASS@@@Z 00447c62 f   v5subs:ftiiclas.obj
 0001:00046dba       ?makeline@FTII_VAR@@QAE_NAAVSTRING_CLASS@@@Z 00447dba f   v5subs:ftiiclas.obj
 0001:00046e12       ?put@FTII_VAR@@UAE_NAAVSTRING_CLASS@@@Z 00447e12 f   v5subs:ftiiclas.obj
 0001:00046f05       ?realval@FTII_VAR@@QAENXZ  00447f05 f   v5subs:ftiiclas.obj
 0001:00046fbe       ??4FTII_VAR@@UAEXN@Z       00447fbe f   v5subs:ftiiclas.obj
 0001:0004702d       ??4FTII_VAR@@UAEXPBG@Z     0044802d f   v5subs:ftiiclas.obj
 0001:00047142       ?cleanup@FTII_VAR_ARRAY@@QAEXXZ 00448142 f   v5subs:ftiiclas.obj
 0001:000471ad       ??1FTII_VAR_ARRAY@@UAE@XZ  004481ad f   v5subs:ftiiclas.obj
 0001:000471d1       ?get_from@FTII_VAR_ARRAY@@QAE_NAAVSTRING_CLASS@@@Z 004481d1 f   v5subs:ftiiclas.obj
 0001:00047305       ?get@FTII_VAR_ARRAY@@QAE_NAAVSTRING_CLASS@@@Z 00448305 f   v5subs:ftiiclas.obj
 0001:00047476       ?put_into@FTII_VAR_ARRAY@@QAE_NAAVSTRING_CLASS@@@Z 00448476 f   v5subs:ftiiclas.obj
 0001:00047645       ?put@FTII_VAR_ARRAY@@UAE_NAAVSTRING_CLASS@@@Z 00448645 f   v5subs:ftiiclas.obj
 0001:0004774d       ??AFTII_VAR_ARRAY@@QAEAAVFTII_VAR@@H@Z 0044874d f   v5subs:ftiiclas.obj
 0001:000477a7       ?next@FTII_VAR_ARRAY@@QAE_NXZ 004487a7 f   v5subs:ftiiclas.obj
 0001:000477f5       ?prev@FTII_VAR_ARRAY@@QAE_NXZ 004487f5 f   v5subs:ftiiclas.obj
 0001:00047850       ?find@FTII_VAR_ARRAY@@QAE_NH@Z 00448850 f   v5subs:ftiiclas.obj
 0001:000478ce       ?find@FTII_VAR_ARRAY@@QAE_NPAG@Z 004488ce f   v5subs:ftiiclas.obj
 0001:000478f8       ?set@FTII_VAR_ARRAY@@UAEXHI@Z 004488f8 f   v5subs:ftiiclas.obj
 0001:0004794c       ??4FTII_VAR_ARRAY@@QAEXABV0@@Z 0044894c f   v5subs:ftiiclas.obj
 0001:000479ea       ??4FTII_VAR_ARRAY@@UAEXABVFTII_VAR@@@Z 004489ea f   v5subs:ftiiclas.obj
 0001:00047a10       ??4FTII_VAR_ARRAY@@UAEXI@Z 00448a10 f   v5subs:ftiiclas.obj
 0001:00047a59       ??4FTII_VAR_ARRAY@@UAEXH@Z 00448a59 f   v5subs:ftiiclas.obj
 0001:00047a75       ??4FTII_VAR_ARRAY@@UAEXN@Z 00448a75 f   v5subs:ftiiclas.obj
 0001:00047ac5       ??4FTII_VAR_ARRAY@@QAEXPAG@Z 00448ac5 f   v5subs:ftiiclas.obj
 0001:00047b13       ?remove@FTII_VAR_ARRAY@@QAE_NH@Z 00448b13 f   v5subs:ftiiclas.obj
 0001:00047c10       ?remove@FTII_VAR_ARRAY@@QAE_NXZ 00448c10 f   v5subs:ftiiclas.obj
 0001:00047c37       ?upsize@FTII_VAR_ARRAY@@QAE_NH@Z 00448c37 f   v5subs:ftiiclas.obj
 0001:00047d70       ??_EFTII_VAR@@UAEPAXI@Z    00448d70 f i v5subs:ftiiclas.obj
 0001:00047de0       ??0FIFO_CLASS@@QAE@XZ      00448de0 f   v5subs:fifo.obj
 0001:00047e16       ??1FIFO_CLASS@@QAE@XZ      00448e16 f   v5subs:fifo.obj
 0001:00047e2b       ?push@FIFO_CLASS@@QAEEPAX@Z 00448e2b f   v5subs:fifo.obj
 0001:00047ee3       ?pop@FIFO_CLASS@@QAEPAXXZ  00448ee3 f   v5subs:fifo.obj
 0001:00047f87       ?peek@FIFO_CLASS@@QAEPAXXZ 00448f87 f   v5subs:fifo.obj
 0001:00047fb0       ??0TEXT_LIST_CLASS@@QAE@XZ 00448fb0 f   v5subs:textlist.obj
 0001:00047fd2       ?empty@TEXT_LIST_CLASS@@QAEXXZ 00448fd2 f   v5subs:textlist.obj
 0001:00048031       ?next@TEXT_LIST_CLASS@@QAEEXZ 00449031 f   v5subs:textlist.obj
 0001:0004805a       ?remove@TEXT_LIST_CLASS@@QAEEXZ 0044905a f   v5subs:textlist.obj
 0001:0004809d       ?release@TEXT_LIST_CLASS@@QAEPAGXZ 0044909d f   v5subs:textlist.obj
 0001:000480d8       ?sort@TEXT_LIST_CLASS@@QAEEXZ 004490d8 f   v5subs:textlist.obj
 0001:00048103       ?find@TEXT_LIST_CLASS@@QAEEPAGJ@Z 00449103 f   v5subs:textlist.obj
 0001:0004814f       ?maxlen@TEXT_LIST_CLASS@@QAEHXZ 0044914f f   v5subs:textlist.obj
 0001:000481aa       ?len@TEXT_LIST_CLASS@@QAEHXZ 004491aa f   v5subs:textlist.obj
 0001:000481d8       ?find_exact@TEXT_LIST_CLASS@@QAEEPAG@Z 004491d8 f   v5subs:textlist.obj
 0001:00048229       ?append@TEXT_LIST_CLASS@@QAEEPAGJ@Z 00449229 f   v5subs:textlist.obj
 0001:0004830a       ??4TEXT_LIST_CLASS@@QAEXAAV0@@Z 0044930a f   v5subs:textlist.obj
 0001:00048357       ??1TEXT_LIST_CLASS@@QAE@XZ 00449357 f   v5subs:textlist.obj
 0001:00048375       ?split@TEXT_LIST_CLASS@@QAE_NPBG0@Z 00449375 f   v5subs:textlist.obj
 0001:00048459       ?get_file_list@TEXT_LIST_CLASS@@QAEXPBG@Z 00449459 f   v5subs:textlist.obj
 0001:000484df       ?get_file_list@TEXT_LIST_CLASS@@QAEXPBG0@Z 004494df f   v5subs:textlist.obj
 0001:0004852a       ?get_directory_list@TEXT_LIST_CLASS@@QAEXPBG@Z 0044952a f   v5subs:textlist.obj
 0001:00048600       ?resource_string@@YAPAGPAUHINSTANCE__@@I@Z 00449600 f   v5subs:winsubs.obj
 0001:00048636       ?get_lb_count@@YAFPAUHWND__@@@Z 00449636 f   v5subs:winsubs.obj
 0001:00048665       ?get_lb_count@@YAFPAUHWND__@@H@Z 00449665 f   v5subs:winsubs.obj
 0001:00048681       ?set_current_lb_item@@YAEPAUHWND__@@PAG@Z 00449681 f   v5subs:winsubs.obj
 0001:000486c2       ?set_current_lb_item@@YAEPAUHWND__@@HPAG@Z 004496c2 f   v5subs:winsubs.obj
 0001:000486e2       ?set_current_cb_item@@YAEPAUHWND__@@PAG@Z 004496e2 f   v5subs:winsubs.obj
 0001:00048723       ?set_current_cb_item@@YAEPAUHWND__@@HPAG@Z 00449723 f   v5subs:winsubs.obj
 0001:00048743       ?lb_select_all@@YAXPAUHWND__@@@Z 00449743 f   v5subs:winsubs.obj
 0001:00048795       ?lb_select_all@@YAXPAUHWND__@@H@Z 00449795 f   v5subs:winsubs.obj
 0001:000487b1       ?desktop_client_rect@@YA?AUtagRECT@@XZ 004497b1 f   v5subs:winsubs.obj
 0001:00048874       ?is_previous_instance@@YAEPAG0@Z 00449874 f   v5subs:winsubs.obj
 0001:000488af       ?set_menu_view_state@@YAXAAEPAUHWND__@@I@Z 004498af f   v5subs:winsubs.obj
 0001:000488f3       ?toggle_menu_view_state@@YAXAAEPAUHWND__@@I@Z 004498f3 f   v5subs:winsubs.obj
 0001:00048925       ?get_text@@YAEPAGPAUHWND__@@H@Z 00449925 f   v5subs:winsubs.obj
 0001:0004895b       ?get_text@@YAEPAGPAUHWND__@@HH@Z 0044995b f   v5subs:winsubs.obj
 0001:0004897f       ?get_double_from_ebox@@YANPAUHWND__@@@Z 0044997f f   v5subs:winsubs.obj
 0001:000489cf       ?get_double_from_ebox@@YANPAUHWND__@@H@Z 004499cf f   v5subs:winsubs.obj
 0001:000489eb       ?get_int_from_ebox@@YAHPAUHWND__@@@Z 004499eb f   v5subs:winsubs.obj
 0001:00048a29       ?get_int_from_ebox@@YAHPAUHWND__@@H@Z 00449a29 f   v5subs:winsubs.obj
 0001:00048a45       ?set_text@@YAEPAUHWND__@@PBG@Z 00449a45 f   v5subs:winsubs.obj
 0001:00048a74       ?set_text@@YAEPAUHWND__@@HPBG@Z 00449a74 f   v5subs:winsubs.obj
 0001:00048a94       ?limit_text@@YAXPAUHWND__@@H@Z 00449a94 f   v5subs:winsubs.obj
 0001:00048aae       ?limit_text@@YAXPAUHWND__@@HH@Z 00449aae f   v5subs:winsubs.obj
 0001:00048ace       ?eb_select_all@@YAXPAUHWND__@@@Z 00449ace f   v5subs:winsubs.obj
 0001:00048ae6       ?eb_select_all@@YAXPAUHWND__@@H@Z 00449ae6 f   v5subs:winsubs.obj
 0001:00048b02       ?is_checked@@YAEPAUHWND__@@H@Z 00449b02 f   v5subs:winsubs.obj
 0001:00048b20       ?is_checked@@YAEPAUHWND__@@@Z 00449b20 f   v5subs:winsubs.obj
 0001:00048b43       ?is_changed@@YAEPAUHWND__@@@Z 00449b43 f   v5subs:winsubs.obj
 0001:00048b65       ?is_changed@@YAEPAUHWND__@@H@Z 00449b65 f   v5subs:winsubs.obj
 0001:00048b92       ?set_checkbox@@YAXPAUHWND__@@E@Z 00449b92 f   v5subs:winsubs.obj
 0001:00048bcb       ?set_checkbox@@YAXPAUHWND__@@HE@Z 00449bcb f   v5subs:winsubs.obj
 0001:00048beb       ?resource_message_box@@YAHPAUHWND__@@PAUHINSTANCE__@@III@Z 00449beb f   v5subs:winsubs.obj
 0001:00048c5b       ?resource_message_box@@YAHPAUHINSTANCE__@@III@Z 00449c5b f   v5subs:winsubs.obj
 0001:00048c7a       ?resource_message_box@@YAXPAUHINSTANCE__@@II@Z 00449c7a f   v5subs:winsubs.obj
 0001:00048c9a       ?shrinkwrap@@YAXPAUHWND__@@0@Z 00449c9a f   v5subs:winsubs.obj
 0001:00048d18       ?is_a_listbox@@YAEPAUHWND__@@@Z 00449d18 f   v5subs:winsubs.obj
 0001:00048d86       ?is_an_editbox@@YAEPAUHWND__@@@Z 00449d86 f   v5subs:winsubs.obj
 0001:00048dee       ?character_height@@YAJPAUHDC__@@@Z 00449dee f   v5subs:winsubs.obj
 0001:00048e09       ?average_character_width@@YAJPAUHDC__@@@Z 00449e09 f   v5subs:winsubs.obj
 0001:00048e24       ?draw_rectangle@@YAXPAUHDC__@@AAUtagRECT@@K@Z 00449e24 f   v5subs:winsubs.obj
 0001:00048e76       ?fill_rectangle@@YAXPAUHDC__@@AAUtagRECT@@K@Z 00449e76 f   v5subs:winsubs.obj
 0001:00048ec8       ?pixel_width@@YAJPAUHDC__@@PAG@Z 00449ec8 f   v5subs:winsubs.obj
 0001:00048ef8       ?pixel_width@@YAJPAUHDC__@@PAGJ@Z 00449ef8 f   v5subs:winsubs.obj
 0001:00048f1b       ?free_megabytes@@YAJPBG@Z  00449f1b f   v5subs:winsubs.obj
 0001:00048fa6       ?create_font@@YAPAUHFONT__@@PAUHDC__@@JJPAG@Z 00449fa6 f   v5subs:winsubs.obj
 0001:0004904d       ?is_windows_nt@@YAEXZ      0044a04d f   v5subs:winsubs.obj
 0001:00049080       ?set_listbox_tabs_from_title_positions@@YAXPAUHWND__@@IPAHH@Z 0044a080 f   v5subs:winsubs.obj
 0001:000491c0       ?show_window@@YAXPAUHWND__@@E@Z 0044a1c0 f   v5subs:winsubs.obj
 0001:000491f0       ?show_window@@YAXPAUHWND__@@HE@Z 0044a1f0 f   v5subs:winsubs.obj
 0001:00049230       ?fixed_string@@YAPAGNJJ@Z  0044a230 f   v5subs:ftoasc.obj
 0001:000493b3       ?ftoasc@@YAXPAGM@Z         0044a3b3 f   v5subs:ftoasc.obj
 0001:00049532       ?ftoasc@@YAXPAGN@Z         0044a532 f   v5subs:ftoasc.obj
 0001:00049550       ?ascii_to_boolean@@YAEPAG@Z 0044a550 f   v5subs:misc.obj
 0001:00049585       ?boolean_to_ascii@@YAPAGE@Z 0044a585 f   v5subs:misc.obj
 0001:000495a2       ?unknown@@YAEPAG@Z         0044a5a2 f   v5subs:misc.obj
 0001:000495c0       ?unknown_string@@YAPAGXZ   0044a5c0 f   v5subs:misc.obj
 0001:000495ca       ?round@@YANNN@Z            0044a5ca f   v5subs:misc.obj
 0001:0004962e       ?mask_from_wire@@YAII@Z    0044a62e f   v5subs:misc.obj
 0001:0004965a       ?wire_from_mask@@YAII@Z    0044a65a f   v5subs:misc.obj
 0001:000496a0       ?ascii_double@@YAPAGN@Z    0044a6a0 f   v5subs:ascfloat.obj
 0001:000496bf       ?ascii_float@@YAPAGM@Z     0044a6bf f   v5subs:ascfloat.obj
 0001:000496e0       ?cleanup_memory@FILE_CLASS@@QAEXXZ 0044a6e0 f   v5subs:fileclas.obj
 0001:00049744       ?cleanup@FILE_CLASS@@QAEXXZ 0044a744 f   v5subs:fileclas.obj
 0001:00049795       ??0FILE_CLASS@@QAE@XZ      0044a795 f   v5subs:fileclas.obj
 0001:000497fc       ??1FILE_CLASS@@QAE@XZ      0044a7fc f   v5subs:fileclas.obj
 0001:0004980f       ?make_path@FILE_CLASS@@QAEEPAG@Z 0044a80f f   v5subs:fileclas.obj
 0001:00049882       ?open@FILE_CLASS@@QAEEPAGK@Z 0044a882 f   v5subs:fileclas.obj
 0001:00049991       ?open_for_write@FILE_CLASS@@QAEEPAG@Z 0044a991 f   v5subs:fileclas.obj
 0001:000499c0       ?open_for_write@FILE_CLASS@@QAEEAAVSTRING_CLASS@@@Z 0044a9c0 f   v5subs:fileclas.obj
 0001:000499de       ?open_for_read@FILE_CLASS@@QAEEPAG@Z 0044a9de f   v5subs:fileclas.obj
 0001:00049a0d       ?open_for_read@FILE_CLASS@@QAEEAAVSTRING_CLASS@@@Z 0044aa0d f   v5subs:fileclas.obj
 0001:00049a2b       ?open_for_append@FILE_CLASS@@QAEEPAG@Z 0044aa2b f   v5subs:fileclas.obj
 0001:00049a7c       ?open_for_append@FILE_CLASS@@QAEEAAVSTRING_CLASS@@@Z 0044aa7c f   v5subs:fileclas.obj
 0001:00049a9a       ?open_for_update@FILE_CLASS@@QAEEPAG@Z 0044aa9a f   v5subs:fileclas.obj
 0001:00049ac9       ?open_for_update@FILE_CLASS@@QAEEAAVSTRING_CLASS@@@Z 0044aac9 f   v5subs:fileclas.obj
 0001:00049ae7       ?close@FILE_CLASS@@QAEXXZ  0044aae7 f   v5subs:fileclas.obj
 0001:00049afa       ?get_file_size@FILE_CLASS@@QAEEAAK@Z 0044aafa f   v5subs:fileclas.obj
 0001:00049b40       ?set_eof@FILE_CLASS@@QAEEXZ 0044ab40 f   v5subs:fileclas.obj
 0001:00049b81       ?empty@FILE_CLASS@@QAEEXZ  0044ab81 f   v5subs:fileclas.obj
 0001:00049bbf       ?setpos@FILE_CLASS@@QAEEJ@Z 0044abbf f   v5subs:fileclas.obj
 0001:00049c24       ?writebinary@FILE_CLASS@@QAEEPAXK@Z 0044ac24 f   v5subs:fileclas.obj
 0001:00049cbb       ?insertbinary@FILE_CLASS@@QAEEPAXK@Z 0044acbb f   v5subs:fileclas.obj
 0001:00049df0       ?insertline@FILE_CLASS@@QAEEPAG@Z 0044adf0 f   v5subs:fileclas.obj
 0001:00049ece       ?writeline@FILE_CLASS@@QAEEPAG@Z 0044aece f   v5subs:fileclas.obj
 0001:00049fb9       ?writeline@FILE_CLASS@@QAEEAAVSTRING_CLASS@@@Z 0044afb9 f   v5subs:fileclas.obj
 0001:00049fd7       ?readbinary@FILE_CLASS@@QAEKPAXK@Z 0044afd7 f   v5subs:fileclas.obj
 0001:0004a077       ?readline@FILE_CLASS@@QAEPAGXZ 0044b077 f   v5subs:fileclas.obj
 0001:0004a242       ?nof_lines@FILE_CLASS@@QAEHXZ 0044b242 f   v5subs:fileclas.obj
 0001:0004a3d1       ?get_creation_time@FILE_CLASS@@QAEEPAU_FILETIME@@@Z 0044b3d1 f   v5subs:fileclas.obj
 0001:0004a468       ?get_current_directory@NAME_CLASS@@QAEEXZ 0044b468 f   v5subs:nameclas.obj
 0001:0004a4ca       ?set_current_directory@NAME_CLASS@@QAEEXZ 0044b4ca f   v5subs:nameclas.obj
 0001:0004a50d       ?get_last_write_time@NAME_CLASS@@QAEEAAU_FILETIME@@@Z 0044b50d f   v5subs:nameclas.obj
 0001:0004a58c       ?copyto@NAME_CLASS@@QAEEAAVSTRING_CLASS@@@Z 0044b58c f   v5subs:nameclas.obj
 0001:0004a5bd       ?moveto@NAME_CLASS@@QAEEAAVSTRING_CLASS@@@Z 0044b5bd f   v5subs:nameclas.obj
 0001:0004a5ec       ?add_ending_backslash@NAME_CLASS@@QAEXXZ 0044b5ec f   v5subs:nameclas.obj
 0001:0004a642       ?convert_to_data_dir@NAME_CLASS@@QAEEXZ 0044b642 f   v5subs:nameclas.obj
 0001:0004a6a8       ?get_root_name@NAME_CLASS@@QAEEAAVSTRING_CLASS@@@Z 0044b6a8 f   v5subs:nameclas.obj
 0001:0004a778       ?get_extension@NAME_CLASS@@QAEEPAG@Z 0044b778 f   v5subs:nameclas.obj
 0001:0004a7e2       ?get_extension@NAME_CLASS@@QAEEAAVSTRING_CLASS@@@Z 0044b7e2 f   v5subs:nameclas.obj
 0001:0004a800       ?remove_ending_backslash@NAME_CLASS@@QAEXXZ 0044b800 f   v5subs:nameclas.obj
 0001:0004a854       ?remove_ending_filename@NAME_CLASS@@QAEEXZ 0044b854 f   v5subs:nameclas.obj
 0001:0004a885       ?remove_dir_from_file_path@NAME_CLASS@@QAEEXZ 0044b885 f   v5subs:nameclas.obj
 0001:0004a968       ?get_exe_dir_file_name@NAME_CLASS@@QAEEAAVSTRING_CLASS@@PBG@Z 0044b968 f   v5subs:nameclas.obj
 0001:0004a9b7       ?get_exe_dir_file_name@NAME_CLASS@@QAEEPBG@Z 0044b9b7 f   v5subs:nameclas.obj
 0001:0004a9f8       ?get_stringtable_name@NAME_CLASS@@QAEEAAVSTRING_CLASS@@PBG@Z 0044b9f8 f   v5subs:nameclas.obj
 0001:0004aa61       ?get_stringtable_name@NAME_CLASS@@QAEEPBG@Z 0044ba61 f   v5subs:nameclas.obj
 0001:0004aabc       ?get_display_dir_file_name@NAME_CLASS@@QAEEAAVSTRING_CLASS@@PBG@Z 0044babc f   v5subs:nameclas.obj
 0001:0004ab0b       ?get_display_dir_file_name@NAME_CLASS@@QAEEAAVSTRING_CLASS@@0PBG@Z 0044bb0b f   v5subs:nameclas.obj
 0001:0004ab77       ?get_symphony_machine_directory@NAME_CLASS@@QAEEAAVSTRING_CLASS@@0@Z 0044bb77 f   v5subs:nameclas.obj
 0001:0004abd1       ?get_symphony_directory@NAME_CLASS@@QAEEAAVSTRING_CLASS@@@Z 0044bbd1 f   v5subs:nameclas.obj
 0001:0004abef       ?get_data_dir_file_name@NAME_CLASS@@QAEEAAVSTRING_CLASS@@PBG@Z 0044bbef f   v5subs:nameclas.obj
 0001:0004ac3e       ?get_data_dir_file_name@NAME_CLASS@@QAEEPBG@Z 0044bc3e f   v5subs:nameclas.obj
 0001:0004ac62       ?get_machine_dir_file_name@NAME_CLASS@@QAEEAAVSTRING_CLASS@@0PBG@Z 0044bc62 f   v5subs:nameclas.obj
 0001:0004acbb       ?get_machine_list_file_name@NAME_CLASS@@QAEEAAVSTRING_CLASS@@@Z 0044bcbb f   v5subs:nameclas.obj
 0001:0004ad31       ?get_part_dir_file_name@NAME_CLASS@@QAEEAAVSTRING_CLASS@@00PBG@Z 0044bd31 f   v5subs:nameclas.obj
 0001:0004ad8e       ?get_part_results_dir_file_name@NAME_CLASS@@QAEEAAVSTRING_CLASS@@00PBG@Z 0044bd8e f   v5subs:nameclas.obj
 0001:0004addf       ?get_machine_results_dir_file_name@NAME_CLASS@@QAEEAAVSTRING_CLASS@@0PBG@Z 0044bddf f   v5subs:nameclas.obj
 0001:0004ae2c       ?get_profile_name@NAME_CLASS@@QAEEAAVSTRING_CLASS@@00PBG1@Z 0044be2c f   v5subs:nameclas.obj
 0001:0004ae93       ?get_profile_name@NAME_CLASS@@QAEEAAVSTRING_CLASS@@00JPBG@Z 0044be93 f   v5subs:nameclas.obj
 0001:0004aef0       ??ZTIME_CLASS@@QAEXK@Z     0044bef0 f   v5subs:timeclas.obj
 0001:0004af1f       ??GTIME_CLASS@@QAEJABV0@@Z 0044bf1f f   v5subs:timeclas.obj
 0001:0004af61       ?get_local_time@TIME_CLASS@@QAEXXZ 0044bf61 f   v5subs:timeclas.obj
 0001:0004af84       ?set@TIME_CLASS@@QAEEABU_SYSTEMTIME@@@Z 0044bf84 f   v5subs:timeclas.obj
 0001:0004b105       ?set@TIME_CLASS@@QAEEABU_FILETIME@@@Z 0044c105 f   v5subs:timeclas.obj
 0001:0004b130       ?get@TIME_CLASS@@QAEEAAU_SYSTEMTIME@@@Z 0044c130 f   v5subs:timeclas.obj
 0001:0004b3a9       ?system_time@TIME_CLASS@@QAEAAU_SYSTEMTIME@@XZ 0044c3a9 f   v5subs:timeclas.obj
 0001:0004b3c6       ?file_time@TIME_CLASS@@QAEAAU_FILETIME@@XZ 0044c3c6 f   v5subs:timeclas.obj
 0001:0004b406       ?text@TIME_CLASS@@QAEPAGXZ 0044c406 f   v5subs:timeclas.obj
 0001:0004b476       ?mmddyy@TIME_CLASS@@QAEPAGXZ 0044c476 f   v5subs:timeclas.obj
 0001:0004b4e4       ?mmddyyyy@TIME_CLASS@@QAEPAGXZ 0044c4e4 f   v5subs:timeclas.obj
 0001:0004b52d       ?mm@TIME_CLASS@@QAEPAGXZ   0044c52d f   v5subs:timeclas.obj
 0001:0004b551       ?mmm@TIME_CLASS@@QAEPAGXZ  0044c551 f   v5subs:timeclas.obj
 0001:0004b5a5       ?dd@TIME_CLASS@@QAEPAGXZ   0044c5a5 f   v5subs:timeclas.obj
 0001:0004b5d2       ?yy@TIME_CLASS@@QAEPAGXZ   0044c5d2 f   v5subs:timeclas.obj
 0001:0004b5ff       ?yyyy@TIME_CLASS@@QAEPAGXZ 0044c5ff f   v5subs:timeclas.obj
 0001:0004b623       ?hhmmss@TIME_CLASS@@QAEPAGXZ 0044c623 f   v5subs:timeclas.obj
 0001:0004b66c       ?hhmm@TIME_CLASS@@QAEPAGXZ 0044c66c f   v5subs:timeclas.obj
 0001:0004b690       ?hh@TIME_CLASS@@QAEPAGXZ   0044c690 f   v5subs:timeclas.obj
 0001:0004b6b4       ?mi@TIME_CLASS@@QAEPAGXZ   0044c6b4 f   v5subs:timeclas.obj
 0001:0004b6e1       ??4TIME_CLASS@@QAEXPBG@Z   0044c6e1 f   v5subs:timeclas.obj
 0001:0004b758       ?set_time@TIME_CLASS@@QAEXPBG@Z 0044c758 f   v5subs:timeclas.obj
 0001:0004b7b0       ?set@NEW_MACHINE_STATE_CLASS@@QAEEPAUHDDEDATA__@@@Z 0044c7b0 f   v5subs:evclass.obj
 0001:0004b8c2       ??0DOWN_DATA_CLASS@@QAE@XZ 0044c8c2 f   v5subs:evclass.obj
 0001:0004b94c       ??4DOWN_DATA_CLASS@@QAEXABV0@@Z 0044c94c f   v5subs:evclass.obj
 0001:0004b9fd       ?set@DOWN_DATA_CLASS@@QAEEPAUHDDEDATA__@@@Z 0044c9fd f   v5subs:evclass.obj
 0001:0004bca0       ?cleanup@INI_CLASS@@QAEXXZ 0044cca0 f   v5subs:iniclass.obj
 0001:0004bd22       ??1INI_CLASS@@QAE@XZ       0044cd22 f   v5subs:iniclass.obj
 0001:0004bd35       ?set_file@INI_CLASS@@QAEEPBG@Z 0044cd35 f   v5subs:iniclass.obj
 0001:0004bda9       ?set_section@INI_CLASS@@QAEEPBG@Z 0044cda9 f   v5subs:iniclass.obj
 0001:0004bdfe       ?find@INI_CLASS@@QAEEPBG0@Z 0044cdfe f   v5subs:iniclass.obj
 0001:0004be98       ?find@INI_CLASS@@QAEEPBG@Z 0044ce98 f   v5subs:iniclass.obj
 0001:0004bec5       ?get_string@INI_CLASS@@QAEPAGXZ 0044cec5 f   v5subs:iniclass.obj
 0001:0004bee6       ?get_string@INI_CLASS@@QAEPAGPBG0@Z 0044cee6 f   v5subs:iniclass.obj
 0001:0004bf23       ?get_string@INI_CLASS@@QAEPAGPBG@Z 0044cf23 f   v5subs:iniclass.obj
 0001:0004bf5c       ?get_boolean@INI_CLASS@@QAEEXZ 0044cf5c f   v5subs:iniclass.obj
 0001:0004bfa6       ?get_boolean@INI_CLASS@@QAEEPBG0@Z 0044cfa6 f   v5subs:iniclass.obj
 0001:0004bfd8       ?get_boolean@INI_CLASS@@QAEEPBG@Z 0044cfd8 f   v5subs:iniclass.obj
 0001:0004c005       ?get_int@INI_CLASS@@QAEHXZ 0044d005 f   v5subs:iniclass.obj
 0001:0004c037       ?get_int@INI_CLASS@@QAEHPBG0@Z 0044d037 f   v5subs:iniclass.obj
 0001:0004c069       ?get_int@INI_CLASS@@QAEHPBG@Z 0044d069 f   v5subs:iniclass.obj
 0001:0004c096       ?get_ul@INI_CLASS@@QAEKXZ  0044d096 f   v5subs:iniclass.obj
 0001:0004c0c8       ?get_ul@INI_CLASS@@QAEKPBG@Z 0044d0c8 f   v5subs:iniclass.obj
 0001:0004c0e9       ?get_ul@INI_CLASS@@QAEKPBG0@Z 0044d0e9 f   v5subs:iniclass.obj
 0001:0004c10e       ?get_double@INI_CLASS@@QAENXZ 0044d10e f   v5subs:iniclass.obj
 0001:0004c147       ?get_double@INI_CLASS@@QAENPBG@Z 0044d147 f   v5subs:iniclass.obj
 0001:0004c179       ?get_double@INI_CLASS@@QAENPBG0@Z 0044d179 f   v5subs:iniclass.obj
 0001:0004c1af       ?put_string@INI_CLASS@@QAEEPBG00@Z 0044d1af f   v5subs:iniclass.obj
 0001:0004c2f2       ?put_string@INI_CLASS@@QAEEPBG0@Z 0044d2f2 f   v5subs:iniclass.obj
 0001:0004c323       ?put_string@INI_CLASS@@QAEEPBG000@Z 0044d323 f   v5subs:iniclass.obj
 0001:0004c350       ?put_boolean@INI_CLASS@@QAEEPBG0E@Z 0044d350 f   v5subs:iniclass.obj
 0001:0004c39c       ?put_boolean@INI_CLASS@@QAEEPBGE@Z 0044d39c f   v5subs:iniclass.obj
 0001:0004c3cd       ?put_boolean@INI_CLASS@@QAEEPBG00E@Z 0044d3cd f   v5subs:iniclass.obj
 0001:0004c3fa       ?put_int@INI_CLASS@@QAEEPBG0H@Z 0044d3fa f   v5subs:iniclass.obj
 0001:0004c42f       ?put_int@INI_CLASS@@QAEEPBGH@Z 0044d42f f   v5subs:iniclass.obj
 0001:0004c460       ?put_ul@INI_CLASS@@QAEEPBG0K@Z 0044d460 f   v5subs:iniclass.obj
 0001:0004c495       ?put_ul@INI_CLASS@@QAEEPBGK@Z 0044d495 f   v5subs:iniclass.obj
 0001:0004c4c6       ?put_double@INI_CLASS@@QAEEPBG0N@Z 0044d4c6 f   v5subs:iniclass.obj
 0001:0004c4fd       ?put_double@INI_CLASS@@QAEEPBGN@Z 0044d4fd f   v5subs:iniclass.obj
 0001:0004c53d       ?remove_key@INI_CLASS@@QAEXPBG0@Z 0044d53d f   v5subs:iniclass.obj
 0001:0004c560       ?remove_key@INI_CLASS@@QAEXPBG@Z 0044d560 f   v5subs:iniclass.obj
 0001:0004c590       ??1GENERIC_LIST_CLASS@@QAE@XZ 0044d590 f   v5subs:genlist.obj
 0001:0004c5d3       ?append@GENERIC_LIST_CLASS@@QAEEPAX@Z 0044d5d3 f   v5subs:genlist.obj
 0001:0004c669       ?insert@GENERIC_LIST_CLASS@@QAEEPAX@Z 0044d669 f   v5subs:genlist.obj
 0001:0004c6f7       ?next@GENERIC_LIST_CLASS@@QAEPAXXZ 0044d6f7 f   v5subs:genlist.obj
 0001:0004c75a       ?next_loop@GENERIC_LIST_CLASS@@QAEPAXXZ 0044d75a f   v5subs:genlist.obj
 0001:0004c7d4       ?find@GENERIC_LIST_CLASS@@QAEEPAX@Z 0044d7d4 f   v5subs:genlist.obj
 0001:0004c832       ?rewind@GENERIC_LIST_CLASS@@QAEXXZ 0044d832 f   v5subs:genlist.obj
 0001:0004c851       ?remove@GENERIC_LIST_CLASS@@QAEEXZ 0044d851 f   v5subs:genlist.obj
 0001:0004c8bc       ?remove@GENERIC_LIST_CLASS@@QAEEPAX@Z 0044d8bc f   v5subs:genlist.obj
 0001:0004c8ea       ?remove_all@GENERIC_LIST_CLASS@@QAEXXZ 0044d8ea f   v5subs:genlist.obj
 0001:0004c941       ?count@GENERIC_LIST_CLASS@@QAEFXZ 0044d941 f   v5subs:genlist.obj
 0001:0004c97c       ?sort@GENERIC_LIST_CLASS@@QAEEP6AHPBX0@Z@Z 0044d97c f   v5subs:genlist.obj
 0001:0004cbe0       ?units_shutdown@@YAXXZ     0044dbe0 f   v5subs:units.obj
 0001:0004cc0f       ?units_startup@@YAEXZ      0044dc0f f   v5subs:units.obj
 0001:0004cd98       ?units_name@@YAPAGF@Z      0044dd98 f   v5subs:units.obj
 0001:0004ce2c       ?units_id@@YAFPAG@Z        0044de2c f   v5subs:units.obj
 0001:0004cea5       ?units_type@@YAGF@Z        0044dea5 f   v5subs:units.obj
 0001:0004cede       ?sec_per_vel_unit@@YAMF@Z  0044dede f   v5subs:units.obj
 0001:0004cf20       ?get_float@DB_TABLE@@QAEMG@Z 0044df20 f i v5subs:units.obj
 0001:0004cf40       ?fix_shotname@@YAXPAG@Z    0044df40 f   v5subs:fix.obj
 0001:0004d01b       ?fix_dde_name@@YAXPAG@Z    0044e01b f   v5subs:fix.obj
 0001:0004d080       ?temp_message_proc@@YGJPAUHWND__@@IIJ@Z 0044e080 f   v5subs:temp_message.obj
 0001:0004d3b5       ?register_temp_message@@YAXXZ 0044e3b5 f   v5subs:temp_message.obj
 0001:0004d42e       ?temp_message@@YAXPAGH@Z   0044e42e f   v5subs:temp_message.obj
 0001:0004d51d       ?temp_message@@YAXPAG@Z    0044e51d f   v5subs:temp_message.obj
 0001:0004d533       ?kill_temp_message@@YAXXZ  0044e533 f   v5subs:temp_message.obj
 0001:0004d54d       ?center_temp_message@@YAXXZ 0044e54d f   v5subs:temp_message.obj
 0001:0004d560       ?get_drive_name@@YAEPAG@Z  0044e560 f   v5subs:exists.obj
 0001:0004d5ad       ?drive_exists@@YAEPAG@Z    0044e5ad f   v5subs:exists.obj
 0001:0004d5fa       ?is_removable@@YAEPAG@Z    0044e5fa f   v5subs:exists.obj
 0001:0004d647       ?disk_is_in_drive@@YAEPAG@Z 0044e647 f   v5subs:exists.obj
 0001:0004d68e       ?file_exists@@YAEPAG@Z     0044e68e f   v5subs:exists.obj
 0001:0004d787       ?directory_exists@@YAEPAG@Z 0044e787 f   v5subs:exists.obj
 0001:0004d7b8       ?file_size@@YAJPAG@Z       0044e7b8 f   v5subs:exists.obj
 0001:0004d810       ?init@PRESSURE_CONTROL_CLASS@@QAEXXZ 0044e810 f   v5subs:stpres.obj
 0001:0004d918       ??0PRESSURE_CONTROL_CLASS@@QAE@XZ 0044e918 f   v5subs:stpres.obj
 0001:0004d990       ??1PRESSURE_CONTROL_CLASS@@QAE@XZ 0044e990 f   v5subs:stpres.obj
 0001:0004d9fd       ??4PRESSURE_CONTROL_CLASS@@QAEXABV0@@Z 0044e9fd f   v5subs:stpres.obj
 0001:0004dbd3       ?find@PRESSURE_CONTROL_CLASS@@QAEEAAVSTRING_CLASS@@00@Z 0044ebd3 f   v5subs:stpres.obj
 0001:0004dfd1       ?save@PRESSURE_CONTROL_CLASS@@QAEEAAVSTRING_CLASS@@00@Z 0044efd1 f   v5subs:stpres.obj
 0001:0004e320       ??0PRES_CONTROL_STEP_ENTRY@@QAE@XZ 0044f320 f i v5subs:stpres.obj
 0001:0004e350       ??1PRES_CONTROL_STEP_ENTRY@@QAE@XZ 0044f350 f i v5subs:stpres.obj
 0001:0004e380       ?get_stpres_datname@NAME_CLASS@@QAEEAAVSTRING_CLASS@@00@Z 0044f380 f i v5subs:stpres.obj
 0001:0004e3b0       ??0LIMIT_SWITCH_CLASS@@QAE@XZ 0044f3b0 f   v5subs:limit_switch_class.obj
 0001:0004e3dc       ??1LIMIT_SWITCH_CLASS@@QAE@XZ 0044f3dc f   v5subs:limit_switch_class.obj
 0001:0004e405       ?get@LIMIT_SWITCH_CLASS@@QAEEAAVSTRING_CLASS@@00@Z 0044f405 f   v5subs:limit_switch_class.obj
 0001:0004e48c       ?put@LIMIT_SWITCH_CLASS@@QAEEAAVSTRING_CLASS@@00@Z 0044f48c f   v5subs:limit_switch_class.obj
 0001:0004e50b       ?empty@LIMIT_SWITCH_CLASS@@QAEXXZ 0044f50b f   v5subs:limit_switch_class.obj
 0001:0004e534       ??0LIMIT_SWITCH_DESC_CLASS@@QAE@XZ 0044f534 f   v5subs:limit_switch_class.obj
 0001:0004e554       ??1LIMIT_SWITCH_DESC_CLASS@@QAE@XZ 0044f554 f   v5subs:limit_switch_class.obj
 0001:0004e571       ?get@LIMIT_SWITCH_DESC_CLASS@@QAEEAAVSTRING_CLASS@@00@Z 0044f571 f   v5subs:limit_switch_class.obj
 0001:0004e62f       ?put@LIMIT_SWITCH_DESC_CLASS@@QAEEAAVSTRING_CLASS@@00@Z 0044f62f f   v5subs:limit_switch_class.obj
 0001:0004e6db       ??ALIMIT_SWITCH_DESC_CLASS@@QAEAAVSTRING_CLASS@@H@Z 0044f6db f   v5subs:limit_switch_class.obj
 0001:0004e747       ?empty@LIMIT_SWITCH_DESC_CLASS@@QAEXXZ 0044f747 f   v5subs:limit_switch_class.obj
 0001:0004e77c       ??0LIMIT_SWITCH_POS_CLASS@@QAE@XZ 0044f77c f   v5subs:limit_switch_class.obj
 0001:0004e79c       ??1LIMIT_SWITCH_POS_CLASS@@QAE@XZ 0044f79c f   v5subs:limit_switch_class.obj
 0001:0004e7b9       ?get@LIMIT_SWITCH_POS_CLASS@@QAEEAAVSTRING_CLASS@@@Z 0044f7b9 f   v5subs:limit_switch_class.obj
 0001:0004e83e       ?get@LIMIT_SWITCH_POS_CLASS@@QAEEAAVSTRING_CLASS@@00@Z 0044f83e f   v5subs:limit_switch_class.obj
 0001:0004e8a5       ?put@LIMIT_SWITCH_POS_CLASS@@QAEEAAVSTRING_CLASS@@@Z 0044f8a5 f   v5subs:limit_switch_class.obj
 0001:0004e925       ?put@LIMIT_SWITCH_POS_CLASS@@QAEEAAVSTRING_CLASS@@00@Z 0044f925 f   v5subs:limit_switch_class.obj
 0001:0004e96a       ??ALIMIT_SWITCH_POS_CLASS@@QAEAAVSTRING_CLASS@@H@Z 0044f96a f   v5subs:limit_switch_class.obj
 0001:0004e9d6       ?empty@LIMIT_SWITCH_POS_CLASS@@QAEXXZ 0044f9d6 f   v5subs:limit_switch_class.obj
 0001:0004ea0b       ?real_pos@LIMIT_SWITCH_POS_CLASS@@QAENH@Z 0044fa0b f   v5subs:limit_switch_class.obj
 0001:0004ea3a       ??0LIMIT_SWITCH_WIRE_CLASS@@QAE@XZ 0044fa3a f   v5subs:limit_switch_class.obj
 0001:0004ea5a       ??1LIMIT_SWITCH_WIRE_CLASS@@QAE@XZ 0044fa5a f   v5subs:limit_switch_class.obj
 0001:0004ea77       ?mask@LIMIT_SWITCH_WIRE_CLASS@@QAEIH@Z 0044fa77 f   v5subs:limit_switch_class.obj
 0001:0004ead2       ?ascii_mask@LIMIT_SWITCH_WIRE_CLASS@@QAEPAGH@Z 0044fad2 f   v5subs:limit_switch_class.obj
 0001:0004eb1a       ?wire_number@LIMIT_SWITCH_WIRE_CLASS@@QAEHH@Z 0044fb1a f   v5subs:limit_switch_class.obj
 0001:0004eb35       ?get@LIMIT_SWITCH_WIRE_CLASS@@QAEEAAVSTRING_CLASS@@00@Z 0044fb35 f   v5subs:limit_switch_class.obj
 0001:0004ed26       ?put@LIMIT_SWITCH_WIRE_CLASS@@QAEEAAVSTRING_CLASS@@00@Z 0044fd26 f   v5subs:limit_switch_class.obj
 0001:0004edd7       ??ALIMIT_SWITCH_WIRE_CLASS@@QAEAAVSTRING_CLASS@@H@Z 0044fdd7 f   v5subs:limit_switch_class.obj
 0001:0004ee43       ?empty@LIMIT_SWITCH_WIRE_CLASS@@QAEXXZ 0044fe43 f   v5subs:limit_switch_class.obj
 0001:0004ee80       ?get_limit_switch_desc_file_name@NAME_CLASS@@QAEEAAVSTRING_CLASS@@00@Z 0044fe80 f i v5subs:limit_switch_class.obj
 0001:0004eeb0       ?get_limit_switch_pos_file_name@NAME_CLASS@@QAEEAAVSTRING_CLASS@@00@Z 0044feb0 f i v5subs:limit_switch_class.obj
 0001:0004eee0       ?is_numeric@@YAEG@Z        0044fee0 f   v5subs:time.obj
 0001:0004ef0d       ?getday@@YAXPAGF@Z         0044ff0d f   v5subs:time.obj
 0001:0004ef43       ?init_systemtime_struct@@YAXAAU_SYSTEMTIME@@@Z 0044ff43 f   v5subs:time.obj
 0001:0004ef5b       ?is_time@@YAEPAG@Z         0044ff5b f   v5subs:time.obj
 0001:0004f049       ?exthms@@YAEAAU_SYSTEMTIME@@PBG@Z 00450049 f   v5subs:time.obj
 0001:0004f0ed       ?extmdy@@YAEAAU_SYSTEMTIME@@PBG@Z 004500ed f   v5subs:time.obj
 0001:0004f1dc       ?extmmddyy@@YAEAAU_SYSTEMTIME@@PBG@Z 004501dc f   v5subs:time.obj
 0001:0004f290       ?alphadate@@YAEPAGABU_SYSTEMTIME@@@Z 00450290 f   v5subs:time.obj
 0001:0004f330       ?alphadate@@YAPAGABU_SYSTEMTIME@@@Z 00450330 f   v5subs:time.obj
 0001:0004f34b       ?alphadate@@YAEAAVSTRING_CLASS@@ABU_SYSTEMTIME@@@Z 0045034b f   v5subs:time.obj
 0001:0004f380       ?alphatime@@YAEPAGABU_SYSTEMTIME@@@Z 00450380 f   v5subs:time.obj
 0001:0004f421       ?alphatime@@YAPAGABU_SYSTEMTIME@@@Z 00450421 f   v5subs:time.obj
 0001:0004f43c       ?alphatime@@YAEAAVSTRING_CLASS@@ABU_SYSTEMTIME@@@Z 0045043c f   v5subs:time.obj
 0001:0004f471       ?fix_alphatime@@YAXPAG@Z   00450471 f   v5subs:time.obj
 0001:0004f4a2       ?hhmm@@YAPAGJJ@Z           004504a2 f   v5subs:time.obj
 0001:0004f50d       ?is_leap_year@@YAEG@Z      0045050d f   v5subs:time.obj
 0001:0004f55c       ?days_in_month@@YAGGG@Z    0045055c f   v5subs:time.obj
 0001:0004f5ac       ?days_in_month@@YAGAAU_SYSTEMTIME@@@Z 004505ac f   v5subs:time.obj
 0001:0004f5c8       ?dofyr@@YAGGGG@Z           004505c8 f   v5subs:time.obj
 0001:0004f662       ?dofyr@@YAGABU_SYSTEMTIME@@@Z 00450662 f   v5subs:time.obj
 0001:0004f686       ?samedate@@YAEABU_SYSTEMTIME@@0@Z 00450686 f   v5subs:time.obj
 0001:0004f6d9       ?sec_since1990@@YAJAAU_SYSTEMTIME@@@Z 004506d9 f   v5subs:time.obj
 0001:0004f7b3       ?current_sec_since1990@@YAJXZ 004507b3 f   v5subs:time.obj
 0001:0004f7d3       ?seconds_difference@@YAJAAU_SYSTEMTIME@@0@Z 004507d3 f   v5subs:time.obj
 0001:0004f801       ?seconds_difference@@YAJAAU_FILETIME@@0@Z 00450801 f   v5subs:time.obj
 0001:0004f88f       ??4SETPOINT_ENTRY@@QAEXABU0@@Z 0045088f f   v5subs:setpoint.obj
 0001:0004f8ba       ?empty@SETPOINT_CLASS@@QAEXXZ 004508ba f   v5subs:setpoint.obj
 0001:0004f90c       ?cleanup@SETPOINT_CLASS@@QAEXXZ 0045090c f   v5subs:setpoint.obj
 0001:0004f964       ??0SETPOINT_CLASS@@QAE@XZ  00450964 f   v5subs:setpoint.obj
 0001:0004f985       ??1SETPOINT_CLASS@@QAE@XZ  00450985 f   v5subs:setpoint.obj
 0001:0004f998       ??4SETPOINT_CLASS@@QAEXABV0@@Z 00450998 f   v5subs:setpoint.obj
 0001:0004fa22       ?setsize@SETPOINT_CLASS@@QAEEH@Z 00450a22 f   v5subs:setpoint.obj
 0001:0004fb7f       ?getfrom@SETPOINT_CLASS@@QAEHAAVSTRING_CLASS@@@Z 00450b7f f   v5subs:setpoint.obj
 0001:0004fcef       ?get@SETPOINT_CLASS@@QAEHAAVSTRING_CLASS@@@Z 00450cef f   v5subs:setpoint.obj
 0001:0004fd10       ?get_one_value@SETPOINT_CLASS@@QAEEAAVSTRING_CLASS@@0H@Z 00450d10 f   v5subs:setpoint.obj
 0001:0004fdd3       ??ASETPOINT_CLASS@@QAEAAUSETPOINT_ENTRY@@H@Z 00450dd3 f   v5subs:setpoint.obj
 0001:0004fe05       ??ASETPOINT_CLASS@@QAEAAUSETPOINT_ENTRY@@AAVSTRING_CLASS@@@Z 00450e05 f   v5subs:setpoint.obj
 0001:0004fe68       ??ASETPOINT_CLASS@@QAEAAUSETPOINT_ENTRY@@PBG@Z 00450e68 f   v5subs:setpoint.obj
 0001:0004fed1       ?put@SETPOINT_CLASS@@QAEEAAVSTRING_CLASS@@@Z 00450ed1 f   v5subs:setpoint.obj
 0001:00050000       ??1SETPOINT_ENTRY@@QAE@XZ  00451000 f i v5subs:setpoint.obj
 0001:00050020       ??0SETPOINT_ENTRY@@QAE@XZ  00451020 f i v5subs:setpoint.obj
 0001:00050050       ??_ESETPOINT_ENTRY@@QAEPAXI@Z 00451050 f i v5subs:setpoint.obj
 0001:000500c0       ?upper_case@@YAXAAG@Z      004510c0 f   v5subs:mem.obj
 0001:000500e9       ?upper_case@@YAXPAG@Z      004510e9 f   v5subs:mem.obj
 0001:00050129       ?lower_case@@YAXAAG@Z      00451129 f   v5subs:mem.obj
 0001:00050152       ?lower_case@@YAXPAG@Z      00451152 f   v5subs:mem.obj
 0001:00050192       ?unicode_to_char@@YADG@Z   00451192 f   v5subs:mem.obj
 0001:000501a5       ?ul_to_char@@YADK@Z        004511a5 f   v5subs:mem.obj
 0001:000501b6       ?unicode_to_char@@YAXPADPAG@Z 004511b6 f   v5subs:mem.obj
 0001:0005020a       ?digit_to_ul@@YAKG@Z       0045120a f   v5subs:mem.obj
 0001:0005025e       ?char_to_tchar@@YAGD@Z     0045125e f   v5subs:mem.obj
 0001:0005027a       ?char_to_tchar@@YAXPAGPADH@Z 0045127a f   v5subs:mem.obj
 0001:000502f8       ?char_to_tchar@@YAXPAGPAD@Z 004512f8 f   v5subs:mem.obj
 0001:00050359       ?char_to_tchar@@YAPAGPAD@Z 00451359 f   v5subs:mem.obj
 0001:000503d3       ?fillchars@@YAXPAGGF@Z     004513d3 f   v5subs:mem.obj
 0001:00050401       ?countchars@@YAJGPBG@Z     00451401 f   v5subs:mem.obj
 0001:00050448       ?findchar@@YAPBGGPBGF@Z    00451448 f   v5subs:mem.obj
 0001:00050495       ?findchar@@YAPAGGPAGF@Z    00451495 f   v5subs:mem.obj
 0001:000504e2       ?find_last_char@@YAPAGGPAG@Z 004514e2 f   v5subs:mem.obj
 0001:00050535       ?findstring@@YAPAGPBGPAG@Z 00451535 f   v5subs:mem.obj
 0001:00050608       ?start_chars_are_equal@@YA_NPBG0@Z 00451608 f   v5subs:mem.obj
 0001:0005065a       ?findchar@@YAPAGGPAG@Z     0045165a f   v5subs:mem.obj
 0001:0005067b       ?findchar@@YAPBGGPBG@Z     0045167b f   v5subs:mem.obj
 0001:0005069c       ?copychars@@YAXPAGPBGF@Z   0045169c f   v5subs:mem.obj
 0001:000506d5       ?charlen@@YAFPBGF@Z        004516d5 f   v5subs:mem.obj
 0001:0005072c       ?copyfromstr@@YAXPAGPBGF@Z 0045172c f   v5subs:mem.obj
 0001:00050798       ?compare@@YAFPBG0@Z        00451798 f   v5subs:mem.obj
 0001:00050843       ?compare@@YAFPBG0F@Z       00451843 f   v5subs:mem.obj
 0001:000508f9       ?compare_text@@YAHPBX0@Z   004518f9 f   v5subs:mem.obj
 0001:0005095d       ?strings_are_equal@@YAEPBG0F@Z 0045195d f   v5subs:mem.obj
 0001:00050984       ?strings_are_equal@@YAEPBG0@Z 00451984 f   v5subs:mem.obj
 0001:000509d3       ?copyCharsToTab@@YAPAGPAGPBGF@Z 004519d3 f   v5subs:mem.obj
 0001:00050a41       ?copystring@@YAPAGPAGPBG@Z 00451a41 f   v5subs:mem.obj
 0001:00050aa1       ?catstring@@YAPAGPAGPBG@Z  00451aa1 f   v5subs:mem.obj
 0001:00050ad3       ?copystring@@YAPAGPAGPBGH@Z 00451ad3 f   v5subs:mem.obj
 0001:00050b51       ?nextstring@@YAPAGPAG@Z    00451b51 f   v5subs:mem.obj
 0001:00050b75       ?replace_char_with_null@@YAEPAGPBG@Z 00451b75 f   v5subs:mem.obj
 0001:00050bf5       ?replace_char_with_null@@YAEPAGG@Z 00451bf5 f   v5subs:mem.obj
 0001:00050c32       ?replace_tab_with_null@@YAEPAG@Z 00451c32 f   v5subs:mem.obj
 0001:00050c4a       ?copy_w_char@@YAPAGPAG0G@Z 00451c4a f   v5subs:mem.obj
 0001:00050c78       ?killtext@@YAXPAG@Z        00451c78 f   v5subs:mem.obj
 0001:00050ca1       ?maketext@@YAPAGJ@Z        00451ca1 f   v5subs:mem.obj
 0001:00050cda       ?maketext@@YAPAGPBGJ@Z     00451cda f   v5subs:mem.obj
 0001:00050d27       ?maketext@@YAPAGPBG@Z      00451d27 f   v5subs:mem.obj
 0001:00050d3a       ?maketext_from_char@@YAPAGPADH@Z 00451d3a f   v5subs:mem.obj
 0001:00050db2       ?maketext_from_char@@YAPAGPAD@Z 00451db2 f   v5subs:mem.obj
 0001:00050e0b       ?insert_char@@YAXPAGG@Z    00451e0b f   v5subs:mem.obj
 0001:00050e65       ?move_string_forward@@YAXPAGH@Z 00451e65 f   v5subs:mem.obj
 0001:00050edc       ?remove_char@@YAXPAG@Z     00451edc f   v5subs:mem.obj
 0001:00050f2a       ?remove_all_occurances@@YAXPAGG@Z 00451f2a f   v5subs:mem.obj
 0001:00050f72       ?trim@@YAXPAG@Z            00451f72 f   v5subs:mem.obj
 0001:00050fc3       ?strip@@YAXPAG@Z           00451fc3 f   v5subs:mem.obj
 0001:00051014       ?matchcase@@YAXPAGPBG@Z    00452014 f   v5subs:mem.obj
 0001:000510df       ??0MACHINE_NAME_LIST_CLASS@@QAE@XZ 004520df f   v5subs:machname.obj
 0001:00051101       ?add_computer@MACHINE_NAME_LIST_CLASS@@QAEEAAVSTRING_CLASS@@@Z 00452101 f   v5subs:machname.obj
 0001:000512b7       ?empty@MACHINE_NAME_LIST_CLASS@@QAEXXZ 004522b7 f   v5subs:machname.obj
 0001:0005132c       ?remove@MACHINE_NAME_LIST_CLASS@@QAEXXZ 0045232c f   v5subs:machname.obj
 0001:0005137f       ?next@MACHINE_NAME_LIST_CLASS@@QAEEXZ 0045237f f   v5subs:machname.obj
 0001:000513a8       ?add@MACHINE_NAME_LIST_CLASS@@QAEEPAUMACHINE_NAME_LIST_ENTRY@@G@Z 004523a8 f   v5subs:machname.obj
 0001:000514ce       ?add@MACHINE_NAME_LIST_CLASS@@QAEEAAVSTRING_CLASS@@0G@Z 004524ce f   v5subs:machname.obj
 0001:00051540       ?acquire@MACHINE_NAME_LIST_CLASS@@QAEEAAV1@G@Z 00452540 f   v5subs:machname.obj
 0001:000515b4       ?find@MACHINE_NAME_LIST_CLASS@@QAEEPAG@Z 004525b4 f   v5subs:machname.obj
 0001:00051634       ?find@MACHINE_NAME_LIST_CLASS@@QAEEAAVSTRING_CLASS@@@Z 00452634 f   v5subs:machname.obj
 0001:00051667       ?get_computer_name@MACHINE_NAME_LIST_CLASS@@QAEEAAVSTRING_CLASS@@0@Z 00452667 f   v5subs:machname.obj
 0001:000516a2       ?name@MACHINE_NAME_LIST_CLASS@@QAEAAVSTRING_CLASS@@XZ 004526a2 f   v5subs:machname.obj
 0001:000516c4       ?computer_name@MACHINE_NAME_LIST_CLASS@@QAEAAVSTRING_CLASS@@XZ 004526c4 f   v5subs:machname.obj
 0001:000516e3       ??1MACHINE_NAME_LIST_CLASS@@QAE@XZ 004526e3 f   v5subs:machname.obj
 0001:00051710       ??0MACHINE_NAME_LIST_ENTRY@@QAE@XZ 00452710 f i v5subs:machname.obj
 0001:00051740       ??_GMACHINE_NAME_LIST_ENTRY@@QAEPAXI@Z 00452740 f i v5subs:machname.obj
 0001:00051770       ??1MACHINE_NAME_LIST_ENTRY@@QAE@XZ 00452770 f i v5subs:machname.obj
 0001:00051790       ?compare@STRING_CLASS@@QAEHAAV1@@Z 00452790 f i v5subs:machname.obj
 0001:0005182e       ??0COMPUTER_CLASS@@QAE@XZ  0045282e f   v5subs:computer.obj
 0001:00051857       ?shutdown@COMPUTER_CLASS@@QAEXXZ 00452857 f   v5subs:computer.obj
 0001:0005186a       ?empty@COMPUTER_CLASS@@QAEXXZ 0045286a f   v5subs:computer.obj
 0001:000518d1       ?load@COMPUTER_CLASS@@QAEEXZ 004528d1 f   v5subs:computer.obj
 0001:00051a48       ?startup@COMPUTER_CLASS@@QAEEAAVSTRING_CLASS@@@Z 00452a48 f   v5subs:computer.obj
 0001:00051a6b       ?startup@COMPUTER_CLASS@@QAEEXZ 00452a6b f   v5subs:computer.obj
 0001:00051a88       ?whoami@COMPUTER_CLASS@@QAEAAVSTRING_CLASS@@XZ 00452a88 f   v5subs:computer.obj
 0001:00051a98       ?is_this_computer@COMPUTER_CLASS@@QAEEXZ 00452a98 f   v5subs:computer.obj
 0001:00051acc       ?count@COMPUTER_CLASS@@QAEHXZ 00452acc f   v5subs:computer.obj
 0001:00051adc       ?find@COMPUTER_CLASS@@QAEEPAG@Z 00452adc f   v5subs:computer.obj
 0001:00051b24       ?rewind@COMPUTER_CLASS@@QAEXXZ 00452b24 f   v5subs:computer.obj
 0001:00051b38       ?next@COMPUTER_CLASS@@QAEEXZ 00452b38 f   v5subs:computer.obj
 0001:00051b7e       ?name@COMPUTER_CLASS@@QAEAAVSTRING_CLASS@@XZ 00452b7e f   v5subs:computer.obj
 0001:00051ba0       ?add@COMPUTER_CLASS@@QAEEPAG@Z 00452ba0 f   v5subs:computer.obj
 0001:00051d1e       ?is_present@COMPUTER_CLASS@@QAEEXZ 00452d1e f   v5subs:computer.obj
 0001:00051d52       ?is_present@COMPUTER_CLASS@@QAEEAAVSTRING_CLASS@@@Z 00452d52 f   v5subs:computer.obj
 0001:00051d80       ?online_status@COMPUTER_CLASS@@QAEEXZ 00452d80 f   v5subs:computer.obj
 0001:00051d9f       ?online_status@COMPUTER_CLASS@@QAEEAAVSTRING_CLASS@@@Z 00452d9f f   v5subs:computer.obj
 0001:00051e15       ?set_online_status@COMPUTER_CLASS@@QAEEE@Z 00452e15 f   v5subs:computer.obj
 0001:00051e3b       ?set_online_status@COMPUTER_CLASS@@QAEEAAVSTRING_CLASS@@E@Z 00452e3b f   v5subs:computer.obj
 0001:00051eba       ?save@COMPUTER_CLASS@@QAEEXZ 00452eba f   v5subs:computer.obj
 0001:00051f50       ??_GCOMPUTER_ENTRY@@QAEPAXI@Z 00452f50 f i v5subs:computer.obj
 0001:00051f80       ??1COMPUTER_ENTRY@@QAE@XZ  00452f80 f i v5subs:computer.obj
 0001:00051fa0       ?add@COMPUTER_CLASS@@QAEEAAVSTRING_CLASS@@@Z 00452fa0 f i v5subs:computer.obj
 0001:00051fc0       ??8NAME_CLASS@@QAEEABVSTRING_CLASS@@@Z 00452fc0 f i v5subs:computer.obj
 0001:00051fe0       ??MNAME_CLASS@@QAEEABV0@@Z 00452fe0 f i v5subs:computer.obj
 0001:00052000       ??0COMPUTER_ENTRY@@QAE@XZ  00453000 f i v5subs:computer.obj
 0001:00052020       ?find@COMPUTER_CLASS@@QAEEAAVSTRING_CLASS@@@Z 00453020 f i v5subs:computer.obj
 0001:00052040       ?is_hex_char@@YAEG@Z       00453040 f   v5subs:hex.obj
 0001:00052081       ?ultohex@@YAXPAGK@Z        00453081 f   v5subs:hex.obj
 0001:00052098       ?ultohex@@YAPAGK@Z         00453098 f   v5subs:hex.obj
 0001:000520af       ?hextoul@@YAKPBG@Z         004530af f   v5subs:hex.obj
 0001:00052130       ?is_real_char@@YAEG@Z      00453130 f   v5subs:extract.obj
 0001:000521a9       ?extdouble@@YANPBGF@Z      004531a9 f   v5subs:extract.obj
 0001:00052213       ?extdouble@@YANPBG@Z       00453213 f   v5subs:extract.obj
 0001:0005222f       ?extfloat@@YAMPBGF@Z       0045322f f   v5subs:extract.obj
 0001:0005224b       ?extfloat@@YAMPBG@Z        0045324b f   v5subs:extract.obj
 0001:00052374       ?extlong@@YAJPBGFH@Z       00453374 f   v5subs:extract.obj
 0001:000523d8       ?extul@@YAKPBGFH@Z         004533d8 f   v5subs:extract.obj
 0001:0005243c       ?asctoul@@YAKPBG@Z         0045343c f   v5subs:extract.obj
 0001:0005245c       ?asctoint32@@YAJPBG@Z      0045345c f   v5subs:extract.obj
 0001:0005247c       ?extlong@@YAJPBGF@Z        0045347c f   v5subs:extract.obj
 0001:00052494       ?extshort@@YAFPBGF@Z       00453494 f   v5subs:extract.obj
 0001:000524ac       ?extfield@@YAPAGPAG0GJ@Z   004534ac f   v5subs:extract.obj
 0001:00052550       ?int32toasc@@YAXPAGJJ@Z    00453550 f   v5subs:itoasc.obj
 0001:000525e2       ?int32toasc@@YAPAGJ@Z      004535e2 f   v5subs:itoasc.obj
 0001:000525ff       ?ultoascii@@YAXPAGKK@Z     004535ff f   v5subs:itoasc.obj
 0001:00052668       ?ultoascii@@YAPAGKK@Z      00453668 f   v5subs:itoasc.obj
 0001:00052687       ?ultoascii@@YAPAGK@Z       00453687 f   v5subs:itoasc.obj
 0001:000526a0       ?replace_value@@YAAAVSTRING_CLASS@@PAG0@Z 004536a0 f   v5subs:ftii_file.obj
 0001:000527a8       ?replace_value@@YAAAVSTRING_CLASS@@PAGH@Z 004537a8 f   v5subs:ftii_file.obj
 0001:000527da       ?replace_value@@YAAAVSTRING_CLASS@@PAGI@Z 004537da f   v5subs:ftii_file.obj
 0001:0005280c       ?replace_percent_value@@YAAAVSTRING_CLASS@@PAGNE@Z 0045380c f   v5subs:ftii_file.obj
 0001:000528b1       ?replace_percent_value@@YAAAVSTRING_CLASS@@PAGME@Z 004538b1 f   v5subs:ftii_file.obj
 0001:000528cf       ?replace_percent_value@@YAAAVSTRING_CLASS@@PAGN@Z 004538cf f   v5subs:ftii_file.obj
 0001:000528ea       ?replace_percent_value@@YAAAVSTRING_CLASS@@PAGM@Z 004538ea f   v5subs:ftii_file.obj
 0001:00052906       ?variable_number@@YAHPBG@Z 00453906 f   v5subs:ftii_file.obj
 0001:0005297d       ?variable_value@@YAIPBG@Z  0045397d f   v5subs:ftii_file.obj
 0001:000529d9       ?signed_variable_value@@YAHPAG@Z 004539d9 f   v5subs:ftii_file.obj
 0001:00052a40       ??0SURETRAK_PARAM_CLASS@@QAE@XZ 00453a40 f   v5subs:stparam.obj
 0001:00052abb       ??1SURETRAK_PARAM_CLASS@@QAE@XZ 00453abb f   v5subs:stparam.obj
 0001:00052ac6       ?find@SURETRAK_PARAM_CLASS@@QAEEAAVSTRING_CLASS@@0@Z 00453ac6 f   v5subs:stparam.obj
 0001:00052c1b       ?save@SURETRAK_PARAM_CLASS@@QAEEAAVSTRING_CLASS@@0@Z 00453c1b f   v5subs:stparam.obj
 0001:00052d30       ?get_stparam_file_name@NAME_CLASS@@QAEEAAVSTRING_CLASS@@@Z 00453d30 f i v5subs:stparam.obj
 0001:00052d50       ?get_stparam_file_name@NAME_CLASS@@QAEEAAVSTRING_CLASS@@0@Z 00453d50 f i v5subs:stparam.obj
 0001:00052d80       ??4NAME_CLASS@@QAEXI@Z     00453d80 f i v5subs:stparam.obj
 0001:00052da0       ?double_to_tchar@@YA_NPAGNH@Z 00453da0 f   v5subs:dtotchar.obj
 0001:00052f63       ?rounded_double_to_tchar@@YA_NPAGN@Z 00453f63 f   v5subs:dtotchar.obj
 0001:00053000       ?insalph@@YAXPAGJJGJ@Z     00454000 f   v5subs:insalph.obj
 0001:00053049       ?insalph@@YAXPAGNJG@Z      00454049 f   v5subs:insalph.obj
 0001:00053092       ?insalph@@YAXPAGMJG@Z      00454092 f   v5subs:insalph.obj
 0001:000530d7       ?copy_ascii_shot_number@@YAPAGPAGJ@Z 004540d7 f   v5subs:insalph.obj
 0001:00053110       ?execute_and_wait@@YAEPAG0K@Z 00454110 f   v5subs:execwait.obj
 0001:000531e0       ?execute_and_wait@@YAEPAG0@Z 004541e0 f   v5subs:execwait.obj
 0001:0005324f       ?set_exe_directory@@YAEPAG@Z 0045424f f   v5subs:gexedir.obj
 0001:00053281       ?exe_directory@@YAPBGXZ    00454281 f   v5subs:gexedir.obj
 0001:000533a4       ?get_exe_directory@@YAEPAG@Z 004543a4 f   v5subs:gexedir.obj
 0001:000533d0       ??4PARAMETER_ENTRY@@QAEXABU0@@Z 004543d0 f   v5subs:param.obj
 0001:00053477       ?has_warning_limits@PARAMETER_ENTRY@@QAEEXZ 00454477 f   v5subs:param.obj
 0001:0005349a       ?has_alarm_limits@PARAMETER_ENTRY@@QAEEXZ 0045449a f   v5subs:param.obj
 0001:000534bd       ?is_alarm@PARAMETER_ENTRY@@QAEEM@Z 004544bd f   v5subs:param.obj
 0001:00053565       ?is_warning@PARAMETER_ENTRY@@QAEEM@Z 00454565 f   v5subs:param.obj
 0001:0005358c       ?count@PARAMETER_CLASS@@QAEFXZ 0045458c f   v5subs:param.obj
 0001:000535d4       ?get_type_and_units@PARAMETER_CLASS@@QAEEFPAG@Z 004545d4 f   v5subs:param.obj
 0001:00053735       ?init@PARAMETER_CLASS@@QAEXF@Z 00454735 f   v5subs:param.obj
 0001:00053809       ?remove@PARAMETER_CLASS@@QAEEF@Z 00454809 f   v5subs:param.obj
 0001:00053881       ??0PARAMETER_CLASS@@QAE@XZ 00454881 f   v5subs:param.obj
 0001:000538db       ?read_param_db@PARAMETER_CLASS@@QAEEAAVSTRING_CLASS@@@Z 004548db f   v5subs:param.obj
 0001:00053b23       ?shot_goodness@PARAMETER_CLASS@@QAEHAAVDB_TABLE@@@Z 00454b23 f   v5subs:param.obj
 0001:00053bdf       ?find@PARAMETER_CLASS@@QAEEAAVSTRING_CLASS@@00@Z 00454bdf f   v5subs:param.obj
 0001:00053c4e       ?save@PARAMETER_CLASS@@QAEEXZ 00454c4e f   v5subs:param.obj
 0001:00053ec0       ?get_parmlist_dbname@NAME_CLASS@@QAEEAAVSTRING_CLASS@@00@Z 00454ec0 f i v5subs:param.obj
 0001:00053ef0       ?maxint32@@YAXAAJJ@Z       00454ef0 f   v5subs:maximize.obj
 0001:00053f07       ?maxint@@YAXAAHH@Z         00454f07 f   v5subs:maximize.obj
 0001:00053f1e       ?maxunsigned@@YAXAAII@Z    00454f1e f   v5subs:maximize.obj
 0001:00053f35       ?maxlong@@YAXAAJJ@Z        00454f35 f   v5subs:maximize.obj
 0001:00053f4c       ?maxshort@@YAXAAFF@Z       00454f4c f   v5subs:maximize.obj
 0001:00053f69       ?maxfloat@@YAXAAMM@Z       00454f69 f   v5subs:maximize.obj
 0001:00053f85       ?maxdouble@@YAXAANN@Z      00454f85 f   v5subs:maximize.obj
 0001:00053fa7       ?minint32@@YAXAAJJ@Z       00454fa7 f   v5subs:maximize.obj
 0001:00053fbe       ?minint@@YAXAAHH@Z         00454fbe f   v5subs:maximize.obj
 0001:00053fd5       ?minunsigned@@YAXAAII@Z    00454fd5 f   v5subs:maximize.obj
 0001:00053fec       ?minlong@@YAXAAJJ@Z        00454fec f   v5subs:maximize.obj
 0001:00054003       ?minshort@@YAXAAFF@Z       00455003 f   v5subs:maximize.obj
 0001:00054020       ?minfloat@@YAXAAMM@Z       00455020 f   v5subs:maximize.obj
 0001:0005403c       ?mindouble@@YAXAANN@Z      0045503c f   v5subs:maximize.obj
 0001:0005409f       ?find_conversation@@YAPAUEVENT_ENTRY@@PAUHCONV__@@@Z 0045509f f   v5subs:client.obj
 0001:000540f3       ?poke_data@@YAXPAG00@Z     004550f3 f   v5subs:client.obj
 0001:0005424b       ?get_dde_data@@YAEAAVSTRING_CLASS@@PAUHDDEDATA__@@@Z 0045524b f   v5subs:client.obj
 0001:000542d6       ?connect_to_server@@YAPAUHCONV__@@PAG@Z 004552d6 f   v5subs:client.obj
 0001:00054347       ?one_hot_link@@YAXPAUHCONV__@@FI@Z 00455347 f   v5subs:client.obj
 0001:0005457a       ?hot_links@@YAXPAUEVENT_ENTRY@@I@Z 0045557a f   v5subs:client.obj
 0001:000545d3       ?connect_to_server@@YAXXZ  004555d3 f   v5subs:client.obj
 0001:0005465a       ?dde_callback@@YGPAUHDDEDATA__@@IIPAUHCONV__@@PAUHSZ__@@1PAU1@KK@Z 0045565a f   v5subs:client.obj
 0001:000547f1       ?register_for_event@@YAXPAGFP6AX0FPAUHDDEDATA__@@@Z@Z 004557f1 f   v5subs:client.obj
 0001:00054a30       ?unregister_for_event@@YAXPAGF@Z 00455a30 f   v5subs:client.obj
 0001:00054b1b       ?client_dde_startup@@YAXXZ 00455b1b f   v5subs:client.obj
 0001:00054bec       ?client_dde_startup@@YAXPAUHWND__@@@Z 00455bec f   v5subs:client.obj
 0001:00054c12       ?client_dde_shutdown@@YAXXZ 00455c12 f   v5subs:client.obj
 0001:00054d37       ?get_current_password_level@@YAXXZ 00455d37 f   v5subs:client.obj
 0001:00054da0       ??0EVENT_ENTRY@@QAE@XZ     00455da0 f i v5subs:client.obj
 0001:00054dd0       ??_GEVENT_ENTRY@@QAEPAXI@Z 00455dd0 f i v5subs:client.obj
 0001:00054e00       ??1EVENT_ENTRY@@QAE@XZ     00455e00 f i v5subs:client.obj
 0001:00054e20       ?hourglass_cursor@@YAXXZ   00455e20 f   v5subs:hourglas.obj
 0001:00054e54       ?restore_cursor@@YAXXZ     00455e54 f   v5subs:hourglas.obj
 0001:00054e90       ?rjust@@YAXPAGFG@Z         00455e90 f   v5subs:rjust.obj
 0001:00054f10       ?post_error@@YAXPAG@Z      00455f10 f   v5subs:dbsubs.obj
 0001:00054f28       ?post_error@@YAXPAG0@Z     00455f28 f   v5subs:dbsubs.obj
 0001:00054f3f       ??0DB_TABLE@@QAE@XZ        00455f3f f   v5subs:dbsubs.obj
 0001:00054f81       ??1DB_TABLE@@QAE@XZ        00455f81 f   v5subs:dbsubs.obj
 0001:00055006       ?close@DB_TABLE@@QAEXXZ    00456006 f   v5subs:dbsubs.obj
 0001:00055039       ?empty@DB_TABLE@@QAEEXZ    00456039 f   v5subs:dbsubs.obj
 0001:00055075       ?initbuf@DB_TABLE@@AAEEPAPAGPAFF@Z 00456075 f   v5subs:dbsubs.obj
 0001:0005515b       ?open@DB_TABLE@@QAEEPAGFFF@Z 0045615b f   v5subs:dbsubs.obj
 0001:000553da       ?open@DB_TABLE@@QAEEPAGFF@Z 004563da f   v5subs:dbsubs.obj
 0001:000553ff       ?create@DB_TABLE@@QAEEPAG@Z 004563ff f   v5subs:dbsubs.obj
 0001:0005548e       ?ensure_existance@DB_TABLE@@QAEEAAVSTRING_CLASS@@@Z 0045648e f   v5subs:dbsubs.obj
 0001:000554d1       ?open_status@DB_TABLE@@QAEEXZ 004564d1 f   v5subs:dbsubs.obj
 0001:000554eb       ?lock_record@DB_TABLE@@QAEEXZ 004564eb f   v5subs:dbsubs.obj
 0001:00055599       ?unlock_record@DB_TABLE@@QAEEXZ 00456599 f   v5subs:dbsubs.obj
 0001:0005560f       ?goto_record_number@DB_TABLE@@QAEEJ@Z 0045660f f   v5subs:dbsubs.obj
 0001:000556bb       ?get_rec@DB_TABLE@@QAEEXZ  004566bb f   v5subs:dbsubs.obj
 0001:00055742       ?nof_recs@DB_TABLE@@QAEKXZ 00456742 f   v5subs:dbsubs.obj
 0001:00055793       ?get_next_record@DB_TABLE@@QAEEE@Z 00456793 f   v5subs:dbsubs.obj
 0001:0005581a       ?get_prev_record@DB_TABLE@@QAEEE@Z 0045681a f   v5subs:dbsubs.obj
 0001:000558c0       ?get_current_record@DB_TABLE@@QAEEE@Z 004568c0 f   v5subs:dbsubs.obj
 0001:0005592d       ?compare_date@@YAFPAG0@Z   0045692d f   v5subs:dbsubs.obj
 0001:00055973       ?compare_int32@@YAFPAG0J@Z 00456973 f   v5subs:dbsubs.obj
 0001:000559c4       ?compare_one_record@DB_TABLE@@AAEEPAFJJ@Z 004569c4 f   v5subs:dbsubs.obj
 0001:00055b6f       ?restore_from_searchbuf@DB_TABLE@@AAEXXZ 00456b6f f   v5subs:dbsubs.obj
 0001:00055bb5       ?fill_searchbuf@DB_TABLE@@AAEEF@Z 00456bb5 f   v5subs:dbsubs.obj
 0001:00055c5a       ?goto_key_record@DB_TABLE@@AAEEFJJ@Z 00456c5a f   v5subs:dbsubs.obj
 0001:00055e16       ?goto_first_key_record@DB_TABLE@@AAEEF@Z 00456e16 f   v5subs:dbsubs.obj
 0001:00055e4c       ?goto_first_greater_than_record@DB_TABLE@@QAEEF@Z 00456e4c f   v5subs:dbsubs.obj
 0001:00055fb6       ?goto_first_equal_or_greater_record@DB_TABLE@@QAEEF@Z 00456fb6 f   v5subs:dbsubs.obj
 0001:00056123       ?goto_first_equal_or_greater_date@DB_TABLE@@QAEEGAAU_SYSTEMTIME@@@Z 00457123 f   v5subs:dbsubs.obj
 0001:000562d8       ?get_next_key_match@DB_TABLE@@QAEEFE@Z 004572d8 f   v5subs:dbsubs.obj
 0001:00056394       ?get_alpha@DB_TABLE@@QAEEPAGGFG@Z 00457394 f   v5subs:dbsubs.obj
 0001:000564cc       ?get_text_field@DB_TABLE@@QAEEPAGG@Z 004574cc f   v5subs:dbsubs.obj
 0001:000565a8       ?get_alpha@DB_TABLE@@QAEEPAGGF@Z 004575a8 f   v5subs:dbsubs.obj
 0001:000565cd       ?get_alpha@DB_TABLE@@QAEEAAVSTRING_CLASS@@GF@Z 004575cd f   v5subs:dbsubs.obj
 0001:00056646       ?get_char@DB_TABLE@@QAEGG@Z 00457646 f   v5subs:dbsubs.obj
 0001:0005666e       ?get_boolean@DB_TABLE@@QAEEG@Z 0045766e f   v5subs:dbsubs.obj
 0001:000566c1       ?get_date@DB_TABLE@@QAEEAAU_SYSTEMTIME@@G@Z 004576c1 f   v5subs:dbsubs.obj
 0001:000566ec       ?get_long@DB_TABLE@@QAEJG@Z 004576ec f   v5subs:dbsubs.obj
 0001:0005678a       ?get_double@DB_TABLE@@QAENG@Z 0045778a f   v5subs:dbsubs.obj
 0001:000567e4       ?get_time@DB_TABLE@@QAEEAAU_SYSTEMTIME@@G@Z 004577e4 f   v5subs:dbsubs.obj
 0001:0005680f       ?point_to_start_of_field@DB_TABLE@@AAEPAGG@Z 0045780f f   v5subs:dbsubs.obj
 0001:0005685c       ?put_alpha@DB_TABLE@@QAEEGPBGF@Z 0045785c f   v5subs:dbsubs.obj
 0001:000568f4       ?put_char@DB_TABLE@@QAEEGG@Z 004578f4 f   v5subs:dbsubs.obj
 0001:00056924       ?put_boolean@DB_TABLE@@QAEEGE@Z 00457924 f   v5subs:dbsubs.obj
 0001:00056966       ?put_date@DB_TABLE@@QAEEGABU_SYSTEMTIME@@@Z 00457966 f   v5subs:dbsubs.obj
 0001:000569bb       ?put_double@DB_TABLE@@QAEEGNF@Z 004579bb f   v5subs:dbsubs.obj
 0001:00056a1d       ?put_float@DB_TABLE@@QAEEGMF@Z 00457a1d f   v5subs:dbsubs.obj
 0001:00056a7b       ?put_long@DB_TABLE@@QAEEGJF@Z 00457a7b f   v5subs:dbsubs.obj
 0001:00056adb       ?put_time@DB_TABLE@@QAEEGAAU_SYSTEMTIME@@@Z 00457adb f   v5subs:dbsubs.obj
 0001:00056b30       ?write_record@DB_TABLE@@AAEEXZ 00457b30 f   v5subs:dbsubs.obj
 0001:00056bc9       ?rec_update@DB_TABLE@@QAEEXZ 00457bc9 f   v5subs:dbsubs.obj
 0001:00056c05       ?rec_append@DB_TABLE@@QAEEXZ 00457c05 f   v5subs:dbsubs.obj
 0001:00056c4b       ?rec_insert@DB_TABLE@@QAEEXZ 00457c4b f   v5subs:dbsubs.obj
 0001:00056d63       ?rec_delete@DB_TABLE@@QAEEJ@Z 00457d63 f   v5subs:dbsubs.obj
 0001:00056f47       ?copy_rec@DB_TABLE@@QAEEAAV1@@Z 00457f47 f   v5subs:dbsubs.obj
 0001:00056f90       ?current_record_offset@DB_TABLE@@AAEKXZ 00457f90 f i v5subs:dbsubs.obj
 0001:00056fef       ?shutdown_vtww_opto_control@@YAXXZ 00457fef f   v5subs:optocontrol.obj
 0001:00057057       ?register_vtww_opto_control@@YAXXZ 00458057 f   v5subs:optocontrol.obj
 0001:0005715f       ?vtww_opto_proc@@YGJPAUHWND__@@IIJ@Z 0045815f f   v5subs:optocontrol.obj
 0001:000577f0       ?get_long_ini_string@@YAPAGPBG00@Z 004587f0 f   v5subs:get_ini.obj
 0001:00057851       ?get_ini_string@@YAPAGPBG00@Z 00458851 f   v5subs:get_ini.obj
 0001:0005787b       ?put_ini_string@@YAXPBG000@Z 0045887b f   v5subs:get_ini.obj
 0001:000578c3       ?bool_from_ini@@YA_NPBG00@Z 004588c3 f   v5subs:get_ini.obj
 0001:000578f4       ?bool_to_ini@@YAXPBG00_N@Z 004588f4 f   v5subs:get_ini.obj
 0001:0005793c       ?boolean_from_ini@@YAEPBG00@Z 0045893c f   v5subs:get_ini.obj
 0001:0005796d       ?boolean_to_ini@@YAXPBG00E@Z 0045896d f   v5subs:get_ini.obj
 0001:000579b5       ?ul_from_ini@@YAKPBG00@Z   004589b5 f   v5subs:get_ini.obj
 0001:000579d7       ?ul_to_ini@@YAXPBG00K@Z    004589d7 f   v5subs:get_ini.obj
 0001:00057a0b       ?int32_from_ini@@YAJPBG00@Z 00458a0b f   v5subs:get_ini.obj
 0001:00057a2d       ?int32_to_ini@@YAXPBG00J@Z 00458a2d f   v5subs:get_ini.obj
 0001:00057a61       ?float_from_ini@@YAMPBG00@Z 00458a61 f   v5subs:get_ini.obj
 0001:00057a83       ?float_to_ini@@YAXPBG00M@Z 00458a83 f   v5subs:get_ini.obj
 0001:00057aba       ?double_from_ini@@YANPBG00@Z 00458aba f   v5subs:get_ini.obj
 0001:00057adc       ?double_to_ini@@YAXPBG00N@Z 00458adc f   v5subs:get_ini.obj
 0001:00057b20       ?dcurve_startup@@YAEXZ     00458b20 f   v5subs:dcurve.obj
 0001:00057cbf       ?dcurve_shutdown@@YAXXZ    00458cbf f   v5subs:dcurve.obj
 0001:00057cc9       ?get_dcurve_coefficients@@YAEAAM0F@Z 00458cc9 f   v5subs:dcurve.obj
 0001:00057d45       ?get_dcurve_coefficients@@YAEAAN0H@Z 00458d45 f   v5subs:dcurve.obj
 0001:00057de0       ?minutes_past_sunday@@YAFABU_SYSTEMTIME@@@Z 00458de0 f   v5subs:shift.obj
 0001:00057e0f       ?dow_from_string@@YAFPAG@Z 00458e0f f   v5subs:shift.obj
 0001:00057e87       ?shift_number@@YAFPAFABU_SYSTEMTIME@@@Z 00458e87 f   v5subs:shift.obj
 0001:00057fca       ?start_of_shift@@YAAAU_SYSTEMTIME@@ABU1@@Z 00458fca f   v5subs:shift.obj
 0001:00058108       ?get_shift_number_and_date@@YAXPAFPAU_SYSTEMTIME@@ABU1@@Z 00459108 f   v5subs:shift.obj
 0001:000581f8       ?shifts_startup@@YAEXZ     004591f8 f   v5subs:shift.obj
 0001:000584c3       ?shifts_shutdown@@YAXXZ    004594c3 f   v5subs:shift.obj
 0001:000584e8       ?check_for_shift_change@@YAXXZ 004594e8 f   v5subs:shift.obj
 0001:00058544       ??0SHIFT_CLASS@@QAE@XZ     00459544 f   v5subs:shift.obj
 0001:0005855a       ??1SHIFT_CLASS@@QAE@XZ     0045955a f   v5subs:shift.obj
 0001:00058565       ?set_start_of_shift@SHIFT_CLASS@@QAEEABU_SYSTEMTIME@@F@Z 00459565 f   v5subs:shift.obj
 0001:000586b4       ?read@SHIFT_CLASS@@QAEEAAVDB_TABLE@@GG@Z 004596b4 f   v5subs:shift.obj
 0001:00058730       ??YTIME_CLASS@@QAEXK@Z     00459730 f i v5subs:shift.obj
 0001:00058750       ?get_last_error@DB_TABLE@@QAEKXZ 00459750 f i v5subs:shift.obj
 0001:000587af       ?cleanup@RUNLIST_CLASS@@AAEXXZ 004597af f   v5subs:runlist.obj
 0001:0005880b       ??0RUNLIST_CLASS@@QAE@ABV0@@Z 0045980b f   v5subs:runlist.obj
 0001:0005891b       ??1RUNLIST_CLASS@@QAE@XZ   0045991b f   v5subs:runlist.obj
 0001:0005892e       ??ARUNLIST_CLASS@@QAEAAURUNLIST_ENTRY@@H@Z 0045992e f   v5subs:runlist.obj
 0001:00058960       ?current_part_name@RUNLIST_CLASS@@QAEAAVSTRING_CLASS@@XZ 00459960 f   v5subs:runlist.obj
 0001:00058983       ?find_part@RUNLIST_CLASS@@QAEAAVSTRING_CLASS@@I@Z 00459983 f   v5subs:runlist.obj
 0001:000589ff       ?get@RUNLIST_CLASS@@QAEEAAVNAME_CLASS@@@Z 004599ff f   v5subs:runlist.obj
 0001:00058c0a       ?get@RUNLIST_CLASS@@QAEEAAVSTRING_CLASS@@0@Z 00459c0a f   v5subs:runlist.obj
 0001:00058c50       ??0RUNLIST_ENTRY@@QAE@XZ   00459c50 f i v5subs:runlist.obj
 0001:00058c80       ??1RUNLIST_ENTRY@@QAE@XZ   00459c80 f i v5subs:runlist.obj
 0001:00058ca0       ??_ERUNLIST_ENTRY@@QAEPAXI@Z 00459ca0 f i v5subs:runlist.obj
 0001:00058d10       ?get_runlist_csvname@NAME_CLASS@@QAEEAAVSTRING_CLASS@@0@Z 00459d10 f i v5subs:runlist.obj
 0001:00058d40       ?current_part_name@@YAEAAVSTRING_CLASS@@00@Z 00459d40 f   v5subs:current.obj
 0001:00058dd3       ?set_current_part_name@@YAEAAVSTRING_CLASS@@00@Z 00459dd3 f   v5subs:current.obj
 0001:00058e60       ?set_current_part_name@@YAEAAUPART_NAME_ENTRY@@@Z 00459e60 f   v5subs:current.obj
 0001:00058e80       ?part_exists@@YAEAAVSTRING_CLASS@@00@Z 00459e80 f   v5subs:pexists.obj
 0001:00058ebc       ?part_exists@@YAEAAUPART_NAME_ENTRY@@@Z 00459ebc f   v5subs:pexists.obj
 0001:00058ee0       ?is_float_zero@@YAEM@Z     00459ee0 f   v5subs:zero.obj
 0001:00058f0b       ?not_float_zero@@YAEM@Z    00459f0b f   v5subs:zero.obj
 0001:00058f36       ?is_zero@@YA_NN@Z          00459f36 f   v5subs:zero.obj
 0001:00058f61       ?not_zero@@YA_NN@Z         00459f61 f   v5subs:zero.obj
 0001:00058f90       ?double_are_equal@@YA_NNN@Z 00459f90 f   v5subs:zero.obj
 0001:00058fb0       ?update_downtime_table@@YAEAAVSTRING_CLASS@@0@Z 00459fb0 f   v5subs:downsubs.obj
 0001:0005926d       ?make_downtime_record@@YAEAAVDB_TABLE@@AAU_SYSTEMTIME@@PAG22AAVSTRING_CLASS@@@Z 0045a26d f   v5subs:downsubs.obj
 0001:000592fd       ?make_downtime_event_string@@YAPAGAAVSTRING_CLASS@@0AAU_SYSTEMTIME@@PAG22@Z 0045a2fd f   v5subs:downsubs.obj
 0001:00059420       ?category_name@@YAPAGPAG@Z 0045a420 f   v5subs:downsubs.obj
 0001:000594ea       ?subcategory_name@@YAPAGPAG0@Z 0045a4ea f   v5subs:downsubs.obj
 0001:00059620       ?put_alpha@DB_TABLE@@QAEEGAAVSTRING_CLASS@@F@Z 0045a620 f i v5subs:downsubs.obj
 0001:00059650       ?down_state@DSTAT_CLASS@@QAEHXZ 0045a650 f   v5subs:dstat.obj
 0001:00059762       ?same_code@DSTAT_CLASS@@QAEEPAG0@Z 0045a762 f   v5subs:dstat.obj
 0001:000597ae       ?is_down@DSTAT_CLASS@@QAEEXZ 0045a7ae f   v5subs:dstat.obj
 0001:000597dd       ?update_sec@DSTAT_CLASS@@QAEJXZ 0045a7dd f   v5subs:dstat.obj
 0001:000597f7       ?get@DSTAT_CLASS@@QAEEAAVSTRING_CLASS@@0@Z 0045a7f7 f   v5subs:dstat.obj
 0001:00059911       ?put@DSTAT_CLASS@@QAEEAAVSTRING_CLASS@@0@Z 0045a911 f   v5subs:dstat.obj
 0001:00059ae0       ?same_code@DSTAT_CLASS@@QAEEPAG@Z 0045aae0 f i v5subs:dstat.obj
 0001:00059b00       ?next@FLOAT_ARRAY_CLASS@@QAEEXZ 0045ab00 f   v5subs:array.obj
 0001:00059b48       ?rewind_to@FLOAT_ARRAY_CLASS@@QAEEJ@Z 0045ab48 f   v5subs:array.obj
 0001:00059b85       ?cleanup@FLOAT_ARRAY_CLASS@@QAEXXZ 0045ab85 f   v5subs:array.obj
 0001:00059bd5       ?init@FLOAT_ARRAY_CLASS@@UAEEJ@Z 0045abd5 f   v5subs:array.obj
 0001:00059c83       ??1FLOAT_ARRAY_CLASS@@QAE@XZ 0045ac83 f   v5subs:array.obj
 0001:00059c9f       ?cleanup@DOUBLE_ARRAY_CLASS@@QAEXXZ 0045ac9f f   v5subs:array.obj
 0001:00059cde       ?init@DOUBLE_ARRAY_CLASS@@UAEEJ@Z 0045acde f   v5subs:array.obj
 0001:00059d65       ?init@DOUBLE_ARRAY_CLASS@@UAEEJPAN@Z 0045ad65 f   v5subs:array.obj
 0001:00059d98       ??4DOUBLE_ARRAY_CLASS@@QAEXABV0@@Z 0045ad98 f   v5subs:array.obj
 0001:00059e21       ?move@DOUBLE_ARRAY_CLASS@@QAEXAAV1@@Z 0045ae21 f   v5subs:array.obj
 0001:00059e62       ??1DOUBLE_ARRAY_CLASS@@QAE@XZ 0045ae62 f   v5subs:array.obj
 0001:00059e7e       ??ADOUBLE_ARRAY_CLASS@@QAEAANJ@Z 0045ae7e f   v5subs:array.obj
 0001:00059eb8       ?next@INT32_ARRAY_CLASS@@QAEEXZ 0045aeb8 f   v5subs:array.obj
 0001:00059f00       ?rewind_to@INT32_ARRAY_CLASS@@QAEEJ@Z 0045af00 f   v5subs:array.obj
 0001:00059f3d       ?cleanup@INT32_ARRAY_CLASS@@QAEXXZ 0045af3d f   v5subs:array.obj
 0001:00059f97       ?init@INT32_ARRAY_CLASS@@UAEEJ@Z 0045af97 f   v5subs:array.obj
 0001:0005a045       ?left_shift@INT32_ARRAY_CLASS@@UAEXJ@Z 0045b045 f   v5subs:array.obj
 0001:0005a0ee       ?max_value@INT32_ARRAY_CLASS@@QAEJXZ 0045b0ee f   v5subs:array.obj
 0001:0005a155       ?min_value@INT32_ARRAY_CLASS@@QAEJXZ 0045b155 f   v5subs:array.obj
 0001:0005a1bc       ??1INT32_ARRAY_CLASS@@QAE@XZ 0045b1bc f   v5subs:array.obj
 0001:0005a1d8       ??4INT32_ARRAY_CLASS@@QAEXABV0@@Z 0045b1d8 f   v5subs:array.obj
 0001:0005a24d       ??8INT32_ARRAY_CLASS@@QAEEABV0@@Z 0045b24d f   v5subs:array.obj
 0001:0005a2c5       ??9INT32_ARRAY_CLASS@@QAEEABV0@@Z 0045b2c5 f   v5subs:array.obj
 0001:0005a2ed       ??AINT32_ARRAY_CLASS@@QAEAAJJ@Z 0045b2ed f   v5subs:array.obj
 0001:0005a327       ?read@INT32_ARRAY_CLASS@@QAEEPAG@Z 0045b327 f   v5subs:array.obj
 0001:0005a48a       ?write@INT32_ARRAY_CLASS@@QAEEPAG@Z 0045b48a f   v5subs:array.obj
 0001:0005a591       ?cleanup@INT_ARRAY_CLASS@@QAEXXZ 0045b591 f   v5subs:array.obj
 0001:0005a5cd       ??1INT_ARRAY_CLASS@@QAE@XZ 0045b5cd f   v5subs:array.obj
 0001:0005a5e0       ?contains@INT_ARRAY_CLASS@@QAE_NH@Z 0045b5e0 f   v5subs:array.obj
 0001:0005a624       ??AINT_ARRAY_CLASS@@QAEAAHH@Z 0045b624 f   v5subs:array.obj
 0001:0005a700       ?set@FLOAT_ARRAY_CLASS@@UAEXM@Z 0045b700 f i v5subs:array.obj
 0001:0005a730       ?set@INT32_ARRAY_CLASS@@UAEXJ@Z 0045b730 f i v5subs:array.obj
 0001:0005a780       ?rewind@INT32_ARRAY_CLASS@@QAEXXZ 0045b780 f i v5subs:array.obj
 0001:0005a7a0       ?value@INT32_ARRAY_CLASS@@QAEJXZ 0045b7a0 f i v5subs:array.obj
 0001:0005a7d0       ?calculate_ftii_parameters@@YAPANAAVFTII_PROFILE@@AAVMACHINE_CLASS@@AAVPART_CLASS@@AAVPARAMETER_CLASS@@AAVANALOG_SENSOR@@AAVFTANALOG_CLASS@@AAVFTCALC_CLASS@@@Z 0045b7d0 f   v5subs:ftii_parameters.obj
 0001:0005ce50       ?ft_channel_number@CURVE_DATA@@QAEFXZ 0045de50 f   v5subs:structs.obj
 0001:0005ce9d       ?ft_channel_type@CURVE_DATA@@QAEGXZ 0045de9d f   v5subs:structs.obj
 0001:0005ceef       ??0PART_NAME_ENTRY@@QAE@XZ 0045deef f   v5subs:structs.obj
 0001:0005cf1b       ??8PART_NAME_ENTRY@@QAEEABU0@@Z 0045df1b f   v5subs:structs.obj
 0001:0005cf81       ??4PART_NAME_ENTRY@@QAEXABU0@@Z 0045df81 f   v5subs:structs.obj
 0001:0005cfbe       ?set@PART_NAME_ENTRY@@QAEXAAVSTRING_CLASS@@0@Z 0045dfbe f   v5subs:structs.obj
 0001:0005cff1       ?is_equal@PART_NAME_ENTRY@@QAEEABVSTRING_CLASS@@00@Z 0045dff1 f   v5subs:structs.obj
 0001:0005d051       ?exists@PART_NAME_ENTRY@@QAEEXZ 0045e051 f   v5subs:structs.obj
 0001:0005d076       ??4MACHINE_NAME_ENTRY@@QAEXABU0@@Z 0045e076 f   v5subs:structs.obj
 0001:0005d0a1       ?is_equal@MACHINE_NAME_ENTRY@@QAEEABVSTRING_CLASS@@0@Z 0045e0a1 f   v5subs:structs.obj
 0001:0005d0e5       ??0MACHINE_NAME_ENTRY@@QAE@XZ 0045e0e5 f   v5subs:structs.obj
 0001:0005d106       ?empty@MACHINE_NAME_ENTRY@@QAEXXZ 0045e106 f   v5subs:structs.obj
 0001:0005d124       ?is_empty@MACHINE_NAME_ENTRY@@QAEEXZ 0045e124 f   v5subs:structs.obj
 0001:0005d15a       ?set@PROFILE_NAME_ENTRY@@QAEXABVSTRING_CLASS@@000@Z 0045e15a f   v5subs:structs.obj
 0001:0005d1a0       ?set@PROFILE_NAME_ENTRY@@QAEXABVSTRING_CLASS@@00PBG@Z 0045e1a0 f   v5subs:structs.obj
 0001:0005d1e6       ??4PROFILE_NAME_ENTRY@@QAEXABU0@@Z 0045e1e6 f   v5subs:structs.obj
 0001:0005d214       ??4PROFILE_NAME_ENTRY@@QAEXABUPART_NAME_ENTRY@@@Z 0045e214 f   v5subs:structs.obj
 0001:0005d240       ?add@ALARM_SUMMARY_CLASS@@QAEPAUALARM_COUNTS_ENTRY@@J@Z 0045e240 f   v5subs:alarmsum.obj
 0001:0005d2f5       ?find@ALARM_SUMMARY_CLASS@@QAEPAUALARM_COUNTS_ENTRY@@J@Z 0045e2f5 f   v5subs:alarmsum.obj
 0001:0005d33f       ?count@ALARM_SUMMARY_CLASS@@QAEJJJ@Z 0045e33f f   v5subs:alarmsum.obj
 0001:0005d386       ?empty@ALARM_SUMMARY_CLASS@@QAEXXZ 0045e386 f   v5subs:alarmsum.obj
 0001:0005d3fa       ??0ALARM_SUMMARY_CLASS@@QAE@XZ 0045e3fa f   v5subs:alarmsum.obj
 0001:0005d463       ??1ALARM_SUMMARY_CLASS@@QAE@XZ 0045e463 f   v5subs:alarmsum.obj
 0001:0005d489       ?set_part@ALARM_SUMMARY_CLASS@@QAEXAAVSTRING_CLASS@@00@Z 0045e489 f   v5subs:alarmsum.obj
 0001:0005d4c0       ?get_counts@ALARM_SUMMARY_CLASS@@QAEEAAU_SYSTEMTIME@@JPAG@Z 0045e4c0 f   v5subs:alarmsum.obj
 0001:0005d7e4       ?get_counts@ALARM_SUMMARY_CLASS@@QAEEAAU_SYSTEMTIME@@J@Z 0045e7e4 f   v5subs:alarmsum.obj
 0001:0005d83c       ?get_counts@ALARM_SUMMARY_CLASS@@QAEEXZ 0045e83c f   v5subs:alarmsum.obj
 0001:0005d8ab       ?get_counts@ALARM_SUMMARY_CLASS@@QAEEAAU_SYSTEMTIME@@@Z 0045e8ab f   v5subs:alarmsum.obj
 0001:0005d90a       ?set_counts@ALARM_SUMMARY_CLASS@@QAEXPAMPAVPARAMETER_CLASS@@@Z 0045e90a f   v5subs:alarmsum.obj
 0001:0005db53       ?save@ALARM_SUMMARY_CLASS@@QAEXABU_SYSTEMTIME@@JEAAVSTRING_CLASS@@@Z 0045eb53 f   v5subs:alarmsum.obj
 0001:0005dfda       ?save@ALARM_SUMMARY_CLASS@@QAEXABU_SYSTEMTIME@@JE@Z 0045efda f   v5subs:alarmsum.obj
 0001:0005e02b       ?save@ALARM_SUMMARY_CLASS@@QAEXABU_SYSTEMTIME@@J@Z 0045f02b f   v5subs:alarmsum.obj
 0001:0005e080       ??MSHIFT_CLASS@@QAEEABV0@@Z 0045f080 f i v5subs:alarmsum.obj
 0001:0005e0a0       ??MTIME_CLASS@@QAEEABV0@@Z 0045f0a0 f i v5subs:alarmsum.obj
 0001:0005e0c0       ??OSHIFT_CLASS@@QAEEABV0@@Z 0045f0c0 f i v5subs:alarmsum.obj
 0001:0005e0e0       ??OTIME_CLASS@@QAEEABV0@@Z 0045f0e0 f i v5subs:alarmsum.obj
 0001:0005e100       ?cleanup@FTCALC_CLASS@@QAEXXZ 0045f100 f   v5subs:ftcalc.obj
 0001:0005e135       ?value@FTCALC_CLASS@@QAENHPAN@Z 0045f135 f   v5subs:ftcalc.obj
 0001:0005e3bd       ?load@FTCALC_CLASS@@QAEEAAVSTRING_CLASS@@00@Z 0045f3bd f   v5subs:ftcalc.obj
 0001:0005e4eb       ?save@FTCALC_CLASS@@QAEEAAVSTRING_CLASS@@00@Z 0045f4eb f   v5subs:ftcalc.obj
 0001:0005e5e0       ?countchars@STRING_CLASS@@QAEJG@Z 0045f5e0 f i v5subs:ftcalc.obj
 0001:0005e610       ?get_ftcalc_csvname@NAME_CLASS@@QAEEAAVSTRING_CLASS@@00@Z 0045f610 f i v5subs:ftcalc.obj
 0001:0005e640       ?init@FTANALOG_CLASS@@QAEXF@Z 0045f640 f   v5subs:ftanalog.obj
 0001:0005e6af       ?remove@FTANALOG_CLASS@@QAEEF@Z 0045f6af f   v5subs:ftanalog.obj
 0001:0005e723       ?load@FTANALOG_CLASS@@QAEEAAVSTRING_CLASS@@00@Z 0045f723 f   v5subs:ftanalog.obj
 0001:0005eb8a       ?save@FTANALOG_CLASS@@QAEEAAVSTRING_CLASS@@00@Z 0045fb8a f   v5subs:ftanalog.obj
 0001:0005ed50       ??4FTANALOG_ENTRY@@QAEAAU0@ABU0@@Z 0045fd50 f i v5subs:ftanalog.obj
 0001:0005edb0       ?get_ftanalog_dbname@NAME_CLASS@@QAEEAAVSTRING_CLASS@@00@Z 0045fdb0 f i v5subs:ftanalog.obj
 0001:0005ede0       ?get_ftanalog_csvname@NAME_CLASS@@QAEEAAVSTRING_CLASS@@00@Z 0045fde0 f i v5subs:ftanalog.obj
 0001:0005ee10       ?startup@STDDOWN_CLASS@@QAEXXZ 0045fe10 f   v5subs:stddown.obj
 0001:0005ef82       ?find@STDDOWN_CLASS@@QAE_NJ@Z 0045ff82 f   v5subs:stddown.obj
 0001:0005f032       ?cat@STDDOWN_CLASS@@QAEPAGXZ 00460032 f   v5subs:stddown.obj
 0001:0005f05c       ?subcat@STDDOWN_CLASS@@QAEPAGXZ 0046005c f   v5subs:stddown.obj
 0001:0005f090       ??0PLOOKUP_CLASS@@QAE@XZ   00460090 f   v5subs:plookup.obj
 0001:0005f0b1       ??1PLOOKUP_CLASS@@QAE@XZ   004600b1 f   v5subs:plookup.obj
 0001:0005f0cf       ?init@PLOOKUP_CLASS@@QAEEAAVSTRING_CLASS@@00@Z 004600cf f   v5subs:plookup.obj
 0001:0005f0f3       ?exists@PLOOKUP_CLASS@@QAEEXZ 004600f3 f   v5subs:plookup.obj
 0001:0005f109       ?get@PLOOKUP_CLASS@@QAEHXZ 00460109 f   v5subs:plookup.obj
 0001:0005f123       ?put@PLOOKUP_CLASS@@QAEEXZ 00460123 f   v5subs:plookup.obj
 0001:0005f248       ?set_last_shot_number@PLOOKUP_CLASS@@QAEEH@Z 00460248 f   v5subs:plookup.obj
 0001:0005f27c       ?set_last_shot_number@PLOOKUP_CLASS@@QAEEAAVSTRING_CLASS@@00H@Z 0046027c f   v5subs:plookup.obj
 0001:0005f2b9       ?get_last_shot_number@PLOOKUP_CLASS@@QAEHAAVSTRING_CLASS@@00@Z 004602b9 f   v5subs:plookup.obj
 0001:0005f300       ?get_last_shot_number@PLOOKUP_CLASS@@QAEHXZ 00460300 f   v5subs:plookup.obj
 0001:0005f32c       ?set_time@PLOOKUP_CLASS@@QAEEAAVTIME_CLASS@@@Z 0046032c f   v5subs:plookup.obj
 0001:0005f380       ?set_time@PLOOKUP_CLASS@@QAEEAAU_SYSTEMTIME@@@Z 00460380 f   v5subs:plookup.obj
 0001:0005f3ec       ?get_time@PLOOKUP_CLASS@@QAEEAAVTIME_CLASS@@@Z 004603ec f   v5subs:plookup.obj
 0001:0005f460       ?get_time@PLOOKUP_CLASS@@QAEEAAU_SYSTEMTIME@@@Z 00460460 f   v5subs:plookup.obj
 0001:0005f4c0       ?get_plookup_csvname@NAME_CLASS@@QAEEAAVSTRING_CLASS@@00@Z 004604c0 f i v5subs:plookup.obj
 0001:0005f4f0       ?root_from_path@@YAEAAVSTRING_CLASS@@@Z 004604f0 f   v5subs:path.obj
 0001:0005f5d9       ?path_is_drive_only@@YAEPAG@Z 004605d9 f   v5subs:path.obj
 0001:0005f657       ?append_backslash_to_path@@YAXPAG@Z 00460657 f   v5subs:path.obj
 0001:0005f6c8       ?append_directory_to_path@@YAXPAGPBG@Z 004606c8 f   v5subs:path.obj
 0001:0005f6f3       ?append_filename_to_path@@YAXPAGPBG@Z 004606f3 f   v5subs:path.obj
 0001:0005f712       ?catpath@@YAPAGPAGPBG@Z    00460712 f   v5subs:path.obj
 0001:0005f7c2       ?remove_backslash_from_path@@YAXPAG@Z 004607c2 f   v5subs:path.obj
 0001:0005f81b       ?dir_from_filename@@YAEPAG@Z 0046081b f   v5subs:path.obj
 0001:0005f8da       ?dir_from_command_line@@YAEPAG@Z 004608da f   v5subs:path.obj
 0001:0005f924       ?filename_from_path@@YAPAGPAG@Z 00460924 f   v5subs:path.obj
 0001:0005f974       ?create_directory@@YAEPAG@Z 00460974 f   v5subs:path.obj
 0001:0005fbf5       ?execute@@YAEPAG@Z         00460bf5 f   v5subs:path.obj
 0001:0005fc7f       ?get_shotsave_semaphore@@YAEAAVSTRING_CLASS@@0@Z 00460c7f f   v5subs:semaphor.obj
 0001:0005fd0b       ?free_shotsave_semaphore@@YAXXZ 00460d0b f   v5subs:semaphor.obj
 0001:0005fd1a       ?waitfor_shotsave_semaphor@@YAEAAVSTRING_CLASS@@0@Z 00460d1a f   v5subs:semaphor.obj
 0001:0005fdb0       ?error_message@@YAXPAG@Z   00460db0 f   v5subs:error_ms.obj
 0001:0005fe76       ?error_message@@YAXFFPAG@Z 00460e76 f   v5subs:error_ms.obj
 0001:0005ff3a       ?error_message@@YAXFFF@Z   00460f3a f   v5subs:error_ms.obj
 0001:0005ffd4       ?error_message@@YAXFF@Z    00460fd4 f   v5subs:error_ms.obj
 0001:0006000b       ?error_message@@YAXPAGF@Z  0046100b f   v5subs:error_ms.obj
 0001:00060040       ?is_empty@@YAEPBG@Z        00461040 f   v5subs:is_empty.obj
 0001:00060075       ?is_numeric@@YAEPBG@Z      00461075 f   v5subs:is_empty.obj
 0001:00060120       ?adjust_for_units@@YANFNF@Z 00461120 f   v5subs:unitadj.obj
 0001:00060767       ?adjust_for_units@@YAMFMF@Z 00461767 f   v5subs:unitadj.obj
 0001:00060794       ?dups_to_vu@@YANFF@Z       00461794 f   v5subs:unitadj.obj
 0001:000608b0       ?copy_all_files@@YAEPAG00EPAUHWND__@@H@Z 004618b0 f   v5subs:callfile.obj
 0001:00060a7f       ?copy_all_files@@YAEPAG0EPAUHWND__@@H@Z 00461a7f f   v5subs:callfile.obj
 0001:00060aa5       ?copy_all_files@@YAEPAG0@Z 00461aa5 f   v5subs:callfile.obj
 0001:00060ad0       ?day_of_the_week@@YAHHHH@Z 00461ad0 f   v5subs:dow.obj
 0001:00060b60       ?reverse@@YAXPAG@Z         00461b60 f   v5subs:reverse.obj
 0001:00060bc0       __alldiv                   00461bc0 f   libcmtd:lldiv.obj
 0001:00060c70       _ceil                      00461c70 f   libcmtd:ceil.obj
 0001:00060db0       _floor                     00461db0 f   libcmtd:floor.obj
 0001:00060ef0       _strtod                    00461ef0 f   libcmtd:strtod.obj
 0001:00061040       __fcvt                     00462040 f   libcmtd:fcvt.obj
 0001:00061090       _ecvt                      00462090 f   libcmtd:fcvt.obj
 0001:00061090       __ecvt                     00462090 f   libcmtd:fcvt.obj
 0001:000610f0       __fpcvt                    004620f0 f   libcmtd:fcvt.obj
 0001:00061190       __frnd                     00462190 f   libcmtd:frnd.obj
 0001:000611b0       __handle_qnan1             004621b0 f   libcmtd:fpexcept.obj
 0001:00061210       __handle_qnan2             00462210 f   libcmtd:fpexcept.obj
 0001:00061280       __except1                  00462280 f   libcmtd:fpexcept.obj
 0001:00061340       __except2                  00462340 f   libcmtd:fpexcept.obj
 0001:00061410       __raise_exc                00462410 f   libcmtd:fpexcept.obj
 0001:000618e0       __handle_exc               004628e0 f   libcmtd:fpexcept.obj
 0001:00061c60       __umatherr                 00462c60 f   libcmtd:fpexcept.obj
 0001:00061d00       __set_errno                00462d00 f   libcmtd:fpexcept.obj
 0001:00061d80       __errcode                  00462d80 f   libcmtd:fpexcept.obj
 0001:00061e00       __set_exp                  00462e00 f   libcmtd:util.obj
 0001:00061e40       __get_exp                  00462e40 f   libcmtd:util.obj
 0001:00061e70       __add_exp                  00462e70 f   libcmtd:util.obj
 0001:00061eb0       __set_bexp                 00462eb0 f   libcmtd:util.obj
 0001:00061ef0       __sptype                   00462ef0 f   libcmtd:util.obj
 0001:00061f70       __decomp                   00462f70 f   libcmtd:util.obj
 0001:000620b0       __statfp                   004630b0 f   libcmtd:fpctrl.obj
 0001:000620d0       __clrfp                    004630d0 f   libcmtd:fpctrl.obj
 0001:000620f0       __ctrlfp                   004630f0 f   libcmtd:fpctrl.obj
 0001:00062130       __set_statfp               00463130 f   libcmtd:fpctrl.obj
 0001:000621b0       __fltin2                   004631b0 f   libcmtd:cfin.obj
 0001:00062270       __matherr                  00463270 f   libcmtd:matherr.obj
 0001:00062278       _lstrcmpiW@8               00463278 f   kernel32:KERNEL32.dll
 0001:0006227e       _lstrcatW@8                0046327e f   kernel32:KERNEL32.dll
 0001:00062284       _FindClose@4               00463284 f   kernel32:KERNEL32.dll
 0001:0006228a       _FindNextFileW@8           0046328a f   kernel32:KERNEL32.dll
 0001:00062290       _FindFirstFileW@8          00463290 f   kernel32:KERNEL32.dll
 0001:00062296       _GetDiskFreeSpaceExW@16    00463296 f   kernel32:KERNEL32.dll
 0001:0006229c       _GetVersionExW@4           0046329c f   kernel32:KERNEL32.dll
 0001:000622a2       _GetFileSize@8             004632a2 f   kernel32:KERNEL32.dll
 0001:000622a8       _SetEndOfFile@4            004632a8 f   kernel32:KERNEL32.dll
 0001:000622ae       _ReadFile@20               004632ae f   kernel32:KERNEL32.dll
 0001:000622b4       _GetFileTime@16            004632b4 f   kernel32:KERNEL32.dll
 0001:000622ba       _GetCurrentDirectoryW@8    004632ba f   kernel32:KERNEL32.dll
 0001:000622c0       _SetCurrentDirectoryW@4    004632c0 f   kernel32:KERNEL32.dll
 0001:000622c6       _CopyFileW@12              004632c6 f   kernel32:KERNEL32.dll
 0001:000622cc       _GetPrivateProfileStringW@24 004632cc f   kernel32:KERNEL32.dll
 0001:000622d2       _WritePrivateProfileStringW@16 004632d2 f   kernel32:KERNEL32.dll
 0001:000622d8       _GetDriveTypeW@4           004632d8 f   kernel32:KERNEL32.dll
 0001:000622de       _GetFileAttributesW@4      004632de f   kernel32:KERNEL32.dll
 0001:000622e4       _SetErrorMode@4            004632e4 f   kernel32:KERNEL32.dll
 0001:000622ea       _GetModuleFileNameW@12     004632ea f   kernel32:KERNEL32.dll
 0001:000622f0       _LockFile@20               004632f0 f   kernel32:KERNEL32.dll
 0001:000622f6       _UnlockFile@20             004632f6 f   kernel32:KERNEL32.dll
 0001:000622fc       _CreateDirectoryW@8        004632fc f   kernel32:KERNEL32.dll
 0001:00062302       _RaiseException@16         00463302 f   kernel32:KERNEL32.dll
 0001:00062308       _DestroyWindow@4           00463308 f   user32:USER32.dll
 0001:0006230e       _ShowWindow@8              0046330e f   user32:USER32.dll
 0001:00062314       _EnableWindow@8            00463314 f   user32:USER32.dll
 0001:0006231a       _MoveWindow@24             0046331a f   user32:USER32.dll
 0001:00062320       _GetWindowRect@8           00463320 f   user32:USER32.dll
 0001:00062326       _ScreenToClient@8          00463326 f   user32:USER32.dll
 0001:0006232c       _GetParent@4               0046332c f   user32:USER32.dll
 0001:00062332       _GetWindowLongW@8          00463332 f   user32:USER32.dll
 0001:00062338       _IsWindowVisible@4         00463338 f   user32:USER32.dll
 0001:0006233e       _IsIconic@4                0046333e f   user32:USER32.dll
 0001:00062344       _MapDialogRect@8           00463344 f   user32:USER32.dll
 0001:0006234a       _GetWindowTextLengthW@4    0046334a f   user32:USER32.dll
 0001:00062350       _ReleaseCapture@0          00463350 f   user32:USER32.dll
 0001:00062356       _SetCapture@4              00463356 f   user32:USER32.dll
 0001:0006235c       _ClientToScreen@8          0046335c f   user32:USER32.dll
 0001:00062362       _EndPaint@8                00463362 f   user32:USER32.dll
 0001:00062368       _BeginPaint@8              00463368 f   user32:USER32.dll
 0001:0006236e       _GetSystemMetrics@4        0046336e f   user32:USER32.dll
 0001:00062374       _IntersectRect@12          00463374 f   user32:USER32.dll
 0001:0006237a       _FillRect@12               0046337a f   user32:USER32.dll
 0001:00062380       _CharToOemW@8              00463380 f   user32:USER32.dll
 0001:00062386       _LoadStringW@16            00463386 f   user32:USER32.dll
 0001:0006238c       _SetForegroundWindow@4     0046338c f   user32:USER32.dll
 0001:00062392       _FindWindowW@8             00463392 f   user32:USER32.dll
 0001:00062398       _CheckMenuItem@12          00463398 f   user32:USER32.dll
 0001:0006239e       _IsDlgButtonChecked@8      0046339e f   user32:USER32.dll
 0001:000623a4       _GetClassNameW@12          004633a4 f   user32:USER32.dll
 0001:000623aa       _FrameRect@12              004633aa f   user32:USER32.dll
 0001:000623b0       _SendDlgItemMessageW@20    004633b0 f   user32:USER32.dll
 0001:000623b6       _GetUpdateRect@12          004633b6 f   user32:USER32.dll
 0001:000623bc       _IsCharAlphaNumericW@4     004633bc f   user32:USER32.dll
 0001:000623c2       _IsCharAlphaW@4            004633c2 f   user32:USER32.dll
 0001:000623c8       _CharUpperW@4              004633c8 f   user32:USER32.dll
 0001:000623ce       _CharLowerW@4              004633ce f   user32:USER32.dll
 0001:000623d4       _IsCharUpperW@4            004633d4 f   user32:USER32.dll
 0001:000623da       _DdeClientTransaction@32   004633da f   user32:USER32.dll
 0001:000623e0       _DdeFreeStringHandle@8     004633e0 f   user32:USER32.dll
 0001:000623e6       _DdeConnect@16             004633e6 f   user32:USER32.dll
 0001:000623ec       _DdeCreateStringHandleW@12 004633ec f   user32:USER32.dll
 0001:000623f2       _DdeGetLastError@4         004633f2 f   user32:USER32.dll
 0001:000623f8       _DdeCmpStringHandles@8     004633f8 f   user32:USER32.dll
 0001:000623fe       _DdeDisconnect@4           004633fe f   user32:USER32.dll
 0001:00062404       _DdeInitializeW@16         00463404 f   user32:USER32.dll
 0001:0006240a       _DdeUninitialize@4         0046340a f   user32:USER32.dll
 0001:00062410       _SetCursor@4               00463410 f   user32:USER32.dll
 0001:00062416       _wsprintfW                 00463416 f   user32:USER32.dll
 0001:0006241c       _SetDlgItemTextW@12        0046341c f   user32:USER32.dll
 0001:00062422       _SetBkMode@8               00463422 f   gdi32:GDI32.dll
 0001:00062428       _SetTextAlign@8            00463428 f   gdi32:GDI32.dll
 0001:0006242e       _TextOutW@20               0046342e f   gdi32:GDI32.dll
 0001:00062434       _SetTextColor@8            00463434 f   gdi32:GDI32.dll
 0001:0006243a       _GetStockObject@4          0046343a f   gdi32:GDI32.dll
 0001:00062440       _CreateFontIndirectW@4     00463440 f   gdi32:GDI32.dll
 0001:00062446       _GetTextMetricsW@8         00463446 f   gdi32:GDI32.dll
 0001:0006244c       _GetTextExtentPoint32W@16  0046344c f   gdi32:GDI32.dll
 0001:00062452       _DPtoLP@12                 00463452 f   gdi32:GDI32.dll
 0001:00062458       _Ellipse@20                00463458 f   gdi32:GDI32.dll
 0001:0006245e       _GetBkMode@4               0046345e f   gdi32:GDI32.dll
 0001:00062464       _ChooseFontW@4             00463464 f   comdlg32:comdlg32.dll
 0002:00000000       __imp__InitCommonControls@0 00464000     comctl32:COMCTL32.dll
 0002:00000004       \177COMCTL32_NULL_THUNK_DATA 00464004     comctl32:COMCTL32.dll
 0002:00000008       __imp__SelectObject@8      00464008     gdi32:GDI32.dll
 0002:0000000c       __imp__CreatePen@12        0046400c     gdi32:GDI32.dll
 0002:00000010       __imp__CreateSolidBrush@4  00464010     gdi32:GDI32.dll
 0002:00000014       __imp__SetBkColor@8        00464014     gdi32:GDI32.dll
 0002:00000018       __imp__DeleteObject@4      00464018     gdi32:GDI32.dll
 0002:0000001c       __imp__MoveToEx@16         0046401c     gdi32:GDI32.dll
 0002:00000020       __imp__GetBkMode@4         00464020     gdi32:GDI32.dll
 0002:00000024       __imp__Ellipse@20          00464024     gdi32:GDI32.dll
 0002:00000028       __imp__DPtoLP@12           00464028     gdi32:GDI32.dll
 0002:0000002c       __imp__GetTextExtentPoint32W@16 0046402c     gdi32:GDI32.dll
 0002:00000030       __imp__GetTextMetricsW@8   00464030     gdi32:GDI32.dll
 0002:00000034       __imp__CreateFontIndirectW@4 00464034     gdi32:GDI32.dll
 0002:00000038       __imp__GetStockObject@4    00464038     gdi32:GDI32.dll
 0002:0000003c       __imp__SetTextColor@8      0046403c     gdi32:GDI32.dll
 0002:00000040       __imp__TextOutW@20         00464040     gdi32:GDI32.dll
 0002:00000044       __imp__SetTextAlign@8      00464044     gdi32:GDI32.dll
 0002:00000048       __imp__SetBkMode@8         00464048     gdi32:GDI32.dll
 0002:0000004c       __imp__LineTo@12           0046404c     gdi32:GDI32.dll
 0002:00000050       \177GDI32_NULL_THUNK_DATA  00464050     gdi32:GDI32.dll
 0002:00000054       __imp__GetLocalTime@4      00464054     kernel32:KERNEL32.dll
 0002:00000058       __imp__IsBadWritePtr@8     00464058     kernel32:KERNEL32.dll
 0002:0000005c       __imp__IsBadReadPtr@8      0046405c     kernel32:KERNEL32.dll
 0002:00000060       __imp__HeapValidate@12     00464060     kernel32:KERNEL32.dll
 0002:00000064       __imp__ResumeThread@4      00464064     kernel32:KERNEL32.dll
 0002:00000068       __imp__GetLastError@0      00464068     kernel32:KERNEL32.dll
 0002:0000006c       __imp__CreateThread@24     0046406c     kernel32:KERNEL32.dll
 0002:00000070       __imp__TlsSetValue@8       00464070     kernel32:KERNEL32.dll
 0002:00000074       __imp__TlsGetValue@4       00464074     kernel32:KERNEL32.dll
 0002:00000078       __imp__ExitThread@4        00464078     kernel32:KERNEL32.dll
 0002:0000007c       __imp__GetModuleHandleA@4  0046407c     kernel32:KERNEL32.dll
 0002:00000080       __imp__GetStartupInfoA@4   00464080     kernel32:KERNEL32.dll
 0002:00000084       __imp__GetCommandLineA@0   00464084     kernel32:KERNEL32.dll
 0002:00000088       __imp__GetVersion@0        00464088     kernel32:KERNEL32.dll
 0002:0000008c       __imp__ExitProcess@4       0046408c     kernel32:KERNEL32.dll
 0002:00000090       __imp__InitializeCriticalSection@4 00464090     kernel32:KERNEL32.dll
 0002:00000094       __imp__DeleteCriticalSection@4 00464094     kernel32:KERNEL32.dll
 0002:00000098       __imp__EnterCriticalSection@4 00464098     kernel32:KERNEL32.dll
 0002:0000009c       __imp__LeaveCriticalSection@4 0046409c     kernel32:KERNEL32.dll
 0002:000000a0       __imp__FatalAppExitA@8     004640a0     kernel32:KERNEL32.dll
 0002:000000a4       __imp__DebugBreak@0        004640a4     kernel32:KERNEL32.dll
 0002:000000a8       __imp__GetStdHandle@4      004640a8     kernel32:KERNEL32.dll
 0002:000000ac       __imp__InterlockedDecrement@4 004640ac     kernel32:KERNEL32.dll
 0002:000000b0       __imp__OutputDebugStringA@4 004640b0     kernel32:KERNEL32.dll
 0002:000000b4       __imp__GetProcAddress@8    004640b4     kernel32:KERNEL32.dll
 0002:000000b8       __imp__LoadLibraryA@4      004640b8     kernel32:KERNEL32.dll
 0002:000000bc       __imp__InterlockedIncrement@4 004640bc     kernel32:KERNEL32.dll
 0002:000000c0       __imp__GetModuleFileNameA@12 004640c0     kernel32:KERNEL32.dll
 0002:000000c4       __imp__TerminateProcess@8  004640c4     kernel32:KERNEL32.dll
 0002:000000c8       __imp__GetCurrentProcess@0 004640c8     kernel32:KERNEL32.dll
 0002:000000cc       __imp__RtlUnwind@16        004640cc     kernel32:KERNEL32.dll
 0002:000000d0       __imp__HeapAlloc@12        004640d0     kernel32:KERNEL32.dll
 0002:000000d4       __imp__HeapReAlloc@16      004640d4     kernel32:KERNEL32.dll
 0002:000000d8       __imp__HeapFree@12         004640d8     kernel32:KERNEL32.dll
 0002:000000dc       __imp__VirtualFree@12      004640dc     kernel32:KERNEL32.dll
 0002:000000e0       __imp__VirtualAlloc@16     004640e0     kernel32:KERNEL32.dll
 0002:000000e4       __imp__GetEnvironmentVariableA@12 004640e4     kernel32:KERNEL32.dll
 0002:000000e8       __imp__GetVersionExA@4     004640e8     kernel32:KERNEL32.dll
 0002:000000ec       __imp__HeapDestroy@4       004640ec     kernel32:KERNEL32.dll
 0002:000000f0       __imp__HeapCreate@12       004640f0     kernel32:KERNEL32.dll
 0002:000000f4       __imp__GetCurrentThreadId@0 004640f4     kernel32:KERNEL32.dll
 0002:000000f8       __imp__TlsAlloc@0          004640f8     kernel32:KERNEL32.dll
 0002:000000fc       __imp__TlsFree@4           004640fc     kernel32:KERNEL32.dll
 0002:00000100       __imp__SetLastError@4      00464100     kernel32:KERNEL32.dll
 0002:00000104       __imp__GetCurrentThread@0  00464104     kernel32:KERNEL32.dll
 0002:00000108       __imp__UnhandledExceptionFilter@4 00464108     kernel32:KERNEL32.dll
 0002:0000010c       __imp__FreeEnvironmentStringsA@4 0046410c     kernel32:KERNEL32.dll
 0002:00000110       __imp__FreeEnvironmentStringsW@4 00464110     kernel32:KERNEL32.dll
 0002:00000114       __imp__WideCharToMultiByte@32 00464114     kernel32:KERNEL32.dll
 0002:00000118       __imp__SystemTimeToFileTime@8 00464118     kernel32:KERNEL32.dll
 0002:0000011c       __imp__GetEnvironmentStringsW@0 0046411c     kernel32:KERNEL32.dll
 0002:00000120       __imp__SetHandleCount@4    00464120     kernel32:KERNEL32.dll
 0002:00000124       __imp__GetFileType@4       00464124     kernel32:KERNEL32.dll
 0002:00000128       __imp__SetConsoleCtrlHandler@8 00464128     kernel32:KERNEL32.dll
 0002:0000012c       __imp__MultiByteToWideChar@24 0046412c     kernel32:KERNEL32.dll
 0002:00000130       __imp__GetStringTypeA@20   00464130     kernel32:KERNEL32.dll
 0002:00000134       __imp__GetStringTypeW@16   00464134     kernel32:KERNEL32.dll
 0002:00000138       __imp__GetCPInfo@8         00464138     kernel32:KERNEL32.dll
 0002:0000013c       __imp__GetACP@0            0046413c     kernel32:KERNEL32.dll
 0002:00000140       __imp__GetOEMCP@0          00464140     kernel32:KERNEL32.dll
 0002:00000144       __imp__LCMapStringA@24     00464144     kernel32:KERNEL32.dll
 0002:00000148       __imp__LCMapStringW@24     00464148     kernel32:KERNEL32.dll
 0002:0000014c       __imp__SetFilePointer@16   0046414c     kernel32:KERNEL32.dll
 0002:00000150       __imp__IsValidLocale@8     00464150     kernel32:KERNEL32.dll
 0002:00000154       __imp__IsValidCodePage@4   00464154     kernel32:KERNEL32.dll
 0002:00000158       __imp__GetLocaleInfoA@16   00464158     kernel32:KERNEL32.dll
 0002:0000015c       __imp__EnumSystemLocalesA@8 0046415c     kernel32:KERNEL32.dll
 0002:00000160       __imp__GetUserDefaultLCID@0 00464160     kernel32:KERNEL32.dll
 0002:00000164       __imp__SetStdHandle@8      00464164     kernel32:KERNEL32.dll
 0002:00000168       __imp__FlushFileBuffers@4  00464168     kernel32:KERNEL32.dll
 0002:0000016c       __imp__GetTimeZoneInformation@4 0046416c     kernel32:KERNEL32.dll
 0002:00000170       __imp__GetLocaleInfoW@16   00464170     kernel32:KERNEL32.dll
 0002:00000174       __imp__CompareStringA@24   00464174     kernel32:KERNEL32.dll
 0002:00000178       __imp__CompareStringW@24   00464178     kernel32:KERNEL32.dll
 0002:0000017c       __imp__SetEnvironmentVariableA@8 0046417c     kernel32:KERNEL32.dll
 0002:00000180       __imp__CreateDirectoryW@8  00464180     kernel32:KERNEL32.dll
 0002:00000184       __imp__UnlockFile@20       00464184     kernel32:KERNEL32.dll
 0002:00000188       __imp__LockFile@20         00464188     kernel32:KERNEL32.dll
 0002:0000018c       __imp__GetModuleFileNameW@12 0046418c     kernel32:KERNEL32.dll
 0002:00000190       __imp__SetErrorMode@4      00464190     kernel32:KERNEL32.dll
 0002:00000194       __imp__GetFileAttributesW@4 00464194     kernel32:KERNEL32.dll
 0002:00000198       __imp__GetDriveTypeW@4     00464198     kernel32:KERNEL32.dll
 0002:0000019c       __imp__WritePrivateProfileStringW@16 0046419c     kernel32:KERNEL32.dll
 0002:000001a0       __imp__GetPrivateProfileStringW@24 004641a0     kernel32:KERNEL32.dll
 0002:000001a4       __imp__CopyFileW@12        004641a4     kernel32:KERNEL32.dll
 0002:000001a8       __imp__SetCurrentDirectoryW@4 004641a8     kernel32:KERNEL32.dll
 0002:000001ac       __imp__GetCurrentDirectoryW@8 004641ac     kernel32:KERNEL32.dll
 0002:000001b0       __imp__GetFileTime@16      004641b0     kernel32:KERNEL32.dll
 0002:000001b4       __imp__ReadFile@20         004641b4     kernel32:KERNEL32.dll
 0002:000001b8       __imp__SetEndOfFile@4      004641b8     kernel32:KERNEL32.dll
 0002:000001bc       __imp__GetFileSize@8       004641bc     kernel32:KERNEL32.dll
 0002:000001c0       __imp__GetVersionExW@4     004641c0     kernel32:KERNEL32.dll
 0002:000001c4       __imp__GetDiskFreeSpaceExW@16 004641c4     kernel32:KERNEL32.dll
 0002:000001c8       __imp__FindFirstFileW@8    004641c8     kernel32:KERNEL32.dll
 0002:000001cc       __imp__FindNextFileW@8     004641cc     kernel32:KERNEL32.dll
 0002:000001d0       __imp__FindClose@4         004641d0     kernel32:KERNEL32.dll
 0002:000001d4       __imp__lstrcatW@8          004641d4     kernel32:KERNEL32.dll
 0002:000001d8       __imp__lstrcmpiW@8         004641d8     kernel32:KERNEL32.dll
 0002:000001dc       __imp__lstrcmpW@8          004641dc     kernel32:KERNEL32.dll
 0002:000001e0       __imp__WriteFile@20        004641e0     kernel32:KERNEL32.dll
 0002:000001e4       __imp__CreateFileW@28      004641e4     kernel32:KERNEL32.dll
 0002:000001e8       __imp__GetCommState@8      004641e8     kernel32:KERNEL32.dll
 0002:000001ec       __imp__SetCommState@8      004641ec     kernel32:KERNEL32.dll
 0002:000001f0       __imp__WaitForSingleObject@8 004641f0     kernel32:KERNEL32.dll
 0002:000001f4       __imp__lstrcpynW@12        004641f4     kernel32:KERNEL32.dll
 0002:000001f8       __imp__FileTimeToSystemTime@8 004641f8     kernel32:KERNEL32.dll
 0002:000001fc       __imp__GetTickCount@0      004641fc     kernel32:KERNEL32.dll
 0002:00000200       __imp__CloseHandle@4       00464200     kernel32:KERNEL32.dll
 0002:00000204       __imp__CreateEventW@16     00464204     kernel32:KERNEL32.dll
 0002:00000208       __imp__GetUserDefaultLangID@0 00464208     kernel32:KERNEL32.dll
 0002:0000020c       __imp__lstrcpyW@8          0046420c     kernel32:KERNEL32.dll
 0002:00000210       __imp__lstrlenW@4          00464210     kernel32:KERNEL32.dll
 0002:00000214       __imp__SetEvent@4          00464214     kernel32:KERNEL32.dll
 0002:00000218       __imp__WinExec@8           00464218     kernel32:KERNEL32.dll
 0002:0000021c       __imp__DeleteFileW@4       0046421c     kernel32:KERNEL32.dll
 0002:00000220       __imp__MoveFileW@8         00464220     kernel32:KERNEL32.dll
 0002:00000224       __imp__Sleep@4             00464224     kernel32:KERNEL32.dll
 0002:00000228       __imp__GetEnvironmentStrings@0 00464228     kernel32:KERNEL32.dll
 0002:0000022c       __imp__CreateProcessW@40   0046422c     kernel32:KERNEL32.dll
 0002:00000230       __imp__RaiseException@16   00464230     kernel32:KERNEL32.dll
 0002:00000234       \177KERNEL32_NULL_THUNK_DATA 00464234     kernel32:KERNEL32.dll
 0002:00000238       __imp__SHAppBarMessage@8   00464238     shell32:SHELL32.dll
 0002:0000023c       \177SHELL32_NULL_THUNK_DATA 0046423c     shell32:SHELL32.dll
 0002:00000240       __imp__LoadAcceleratorsW@8 00464240     user32:USER32.dll
 0002:00000244       __imp__GetMessageW@16      00464244     user32:USER32.dll
 0002:00000248       __imp__SetWindowPos@28     00464248     user32:USER32.dll
 0002:0000024c       __imp__IsWindowEnabled@4   0046424c     user32:USER32.dll
 0002:00000250       __imp__GetDlgCtrlID@4      00464250     user32:USER32.dll
 0002:00000254       __imp__TranslateAcceleratorW@12 00464254     user32:USER32.dll
 0002:00000258       __imp__IsDialogMessageW@8  00464258     user32:USER32.dll
 0002:0000025c       __imp__TranslateMessage@4  0046425c     user32:USER32.dll
 0002:00000260       __imp__DispatchMessageW@4  00464260     user32:USER32.dll
 0002:00000264       __imp__LoadCursorW@8       00464264     user32:USER32.dll
 0002:00000268       __imp__LoadIconW@8         00464268     user32:USER32.dll
 0002:0000026c       __imp__RegisterClassW@4    0046426c     user32:USER32.dll
 0002:00000270       __imp__UpdateWindow@4      00464270     user32:USER32.dll
 0002:00000274       __imp__GetDesktopWindow@0  00464274     user32:USER32.dll
 0002:00000278       __imp__SetWindowLongW@12   00464278     user32:USER32.dll
 0002:0000027c       __imp__CreateDialogParamW@20 0046427c     user32:USER32.dll
 0002:00000280       __imp__SetDlgItemTextW@12  00464280     user32:USER32.dll
 0002:00000284       __imp__wsprintfW           00464284     user32:USER32.dll
 0002:00000288       __imp__SetCursor@4         00464288     user32:USER32.dll
 0002:0000028c       __imp__CloseWindow@4       0046428c     user32:USER32.dll
 0002:00000290       __imp__GetMenu@4           00464290     user32:USER32.dll
 0002:00000294       __imp__EnableMenuItem@12   00464294     user32:USER32.dll
 0002:00000298       __imp__CreateWindowExW@48  00464298     user32:USER32.dll
 0002:0000029c       __imp__SendMessageW@16     0046429c     user32:USER32.dll
 0002:000002a0       __imp__ReleaseDC@8         004642a0     user32:USER32.dll
 0002:000002a4       __imp__GetDC@4             004642a4     user32:USER32.dll
 0002:000002a8       __imp__KillTimer@8         004642a8     user32:USER32.dll
 0002:000002ac       __imp__DialogBoxParamW@20  004642ac     user32:USER32.dll
 0002:000002b0       __imp__PostMessageW@16     004642b0     user32:USER32.dll
 0002:000002b4       __imp__CheckRadioButton@16 004642b4     user32:USER32.dll
 0002:000002b8       __imp__GetFocus@0          004642b8     user32:USER32.dll
 0002:000002bc       __imp__InvalidateRect@12   004642bc     user32:USER32.dll
 0002:000002c0       __imp__EndDialog@8         004642c0     user32:USER32.dll
 0002:000002c4       __imp__SetTimer@16         004642c4     user32:USER32.dll
 0002:000002c8       __imp__DdeGetData@16       004642c8     user32:USER32.dll
 0002:000002cc       __imp__GetClientRect@8     004642cc     user32:USER32.dll
 0002:000002d0       __imp__PostQuitMessage@4   004642d0     user32:USER32.dll
 0002:000002d4       __imp__DefWindowProcW@16   004642d4     user32:USER32.dll
 0002:000002d8       __imp__GetDlgItem@8        004642d8     user32:USER32.dll
 0002:000002dc       __imp__SetFocus@4          004642dc     user32:USER32.dll
 0002:000002e0       __imp__CallWindowProcW@20  004642e0     user32:USER32.dll
 0002:000002e4       __imp__MessageBoxW@16      004642e4     user32:USER32.dll
 0002:000002e8       __imp__DestroyWindow@4     004642e8     user32:USER32.dll
 0002:000002ec       __imp__ShowWindow@8        004642ec     user32:USER32.dll
 0002:000002f0       __imp__EnableWindow@8      004642f0     user32:USER32.dll
 0002:000002f4       __imp__MoveWindow@24       004642f4     user32:USER32.dll
 0002:000002f8       __imp__GetWindowRect@8     004642f8     user32:USER32.dll
 0002:000002fc       __imp__ScreenToClient@8    004642fc     user32:USER32.dll
 0002:00000300       __imp__GetParent@4         00464300     user32:USER32.dll
 0002:00000304       __imp__GetWindowLongW@8    00464304     user32:USER32.dll
 0002:00000308       __imp__IsWindowVisible@4   00464308     user32:USER32.dll
 0002:0000030c       __imp__IsIconic@4          0046430c     user32:USER32.dll
 0002:00000310       __imp__MapDialogRect@8     00464310     user32:USER32.dll
 0002:00000314       __imp__GetWindowTextLengthW@4 00464314     user32:USER32.dll
 0002:00000318       __imp__ReleaseCapture@0    00464318     user32:USER32.dll
 0002:0000031c       __imp__SetCapture@4        0046431c     user32:USER32.dll
 0002:00000320       __imp__ClientToScreen@8    00464320     user32:USER32.dll
 0002:00000324       __imp__EndPaint@8          00464324     user32:USER32.dll
 0002:00000328       __imp__BeginPaint@8        00464328     user32:USER32.dll
 0002:0000032c       __imp__GetSystemMetrics@4  0046432c     user32:USER32.dll
 0002:00000330       __imp__IntersectRect@12    00464330     user32:USER32.dll
 0002:00000334       __imp__FillRect@12         00464334     user32:USER32.dll
 0002:00000338       __imp__CharToOemW@8        00464338     user32:USER32.dll
 0002:0000033c       __imp__LoadStringW@16      0046433c     user32:USER32.dll
 0002:00000340       __imp__SetForegroundWindow@4 00464340     user32:USER32.dll
 0002:00000344       __imp__FindWindowW@8       00464344     user32:USER32.dll
 0002:00000348       __imp__CheckMenuItem@12    00464348     user32:USER32.dll
 0002:0000034c       __imp__IsDlgButtonChecked@8 0046434c     user32:USER32.dll
 0002:00000350       __imp__GetClassNameW@12    00464350     user32:USER32.dll
 0002:00000354       __imp__FrameRect@12        00464354     user32:USER32.dll
 0002:00000358       __imp__SendDlgItemMessageW@20 00464358     user32:USER32.dll
 0002:0000035c       __imp__GetUpdateRect@12    0046435c     user32:USER32.dll
 0002:00000360       __imp__IsCharAlphaNumericW@4 00464360     user32:USER32.dll
 0002:00000364       __imp__IsCharAlphaW@4      00464364     user32:USER32.dll
 0002:00000368       __imp__CharUpperW@4        00464368     user32:USER32.dll
 0002:0000036c       __imp__CharLowerW@4        0046436c     user32:USER32.dll
 0002:00000370       __imp__IsCharUpperW@4      00464370     user32:USER32.dll
 0002:00000374       __imp__DdeClientTransaction@32 00464374     user32:USER32.dll
 0002:00000378       __imp__DdeFreeStringHandle@8 00464378     user32:USER32.dll
 0002:0000037c       __imp__DdeConnect@16       0046437c     user32:USER32.dll
 0002:00000380       __imp__DdeCreateStringHandleW@12 00464380     user32:USER32.dll
 0002:00000384       __imp__DdeGetLastError@4   00464384     user32:USER32.dll
 0002:00000388       __imp__DdeCmpStringHandles@8 00464388     user32:USER32.dll
 0002:0000038c       __imp__DdeDisconnect@4     0046438c     user32:USER32.dll
 0002:00000390       __imp__DdeInitializeW@16   00464390     user32:USER32.dll
 0002:00000394       __imp__DdeUninitialize@4   00464394     user32:USER32.dll
 0002:00000398       \177USER32_NULL_THUNK_DATA 00464398     user32:USER32.dll
 0002:0000039c       __imp__WSAStartup@8        0046439c     wsock32:WSOCK32.dll
 0002:000003a0       __imp__socket@12           004643a0     wsock32:WSOCK32.dll
 0002:000003a4       __imp__WSAGetLastError@0   004643a4     wsock32:WSOCK32.dll
 0002:000003a8       __imp__htonl@4             004643a8     wsock32:WSOCK32.dll
 0002:000003ac       __imp__bind@12             004643ac     wsock32:WSOCK32.dll
 0002:000003b0       __imp__gethostname@8       004643b0     wsock32:WSOCK32.dll
 0002:000003b4       __imp__gethostbyname@4     004643b4     wsock32:WSOCK32.dll
 0002:000003b8       __imp__recvfrom@24         004643b8     wsock32:WSOCK32.dll
 0002:000003bc       __imp__sendto@24           004643bc     wsock32:WSOCK32.dll
 0002:000003c0       __imp__closesocket@4       004643c0     wsock32:WSOCK32.dll
 0002:000003c4       __imp__WSACleanup@0        004643c4     wsock32:WSOCK32.dll
 0002:000003c8       __imp__htons@4             004643c8     wsock32:WSOCK32.dll
 0002:000003cc       __imp__inet_addr@4         004643cc     wsock32:WSOCK32.dll
 0002:000003d0       \177WSOCK32_NULL_THUNK_DATA 004643d0     wsock32:WSOCK32.dll
 0002:000003d4       __imp__ChooseFontW@4       004643d4     comdlg32:comdlg32.dll
 0002:000003d8       \177comdlg32_NULL_THUNK_DATA 004643d8     comdlg32:comdlg32.dll
 0002:0000048c       ??_7WINDOW_CLASS@@6B@      0046448c     ft2.obj
 0002:00000490       ??_7FTII_VAR_ARRAY@@6B@    00464490     ft2.obj
 0002:000004b4       ??_7FTII_VAR@@6B@          004644b4     ft2.obj
 0002:000004d8       __real@8@400afff0000000000000 004644d8     ft2.obj
 0002:000004e0       __real@8@4001a000000000000000 004644e0     ft2.obj
 0002:000004e8       __real@8@4002a000000000000000 004644e8     ft2.obj
 0002:000004f0       __real@8@4003a000000000000000 004644f0     ft2.obj
 0002:000004f8       __real@8@4008fa00000000000000 004644f8     ft2.obj
 0002:00000500       __real@8@4005c800000000000000 00464500     ft2.obj
 0002:00000508       __real@8@40018000000000000000 00464508     ft2.obj
 0002:00000510       __real@8@3ffe8000000000000000 00464510     ft2.obj
 0002:00000518       __real@8@40038000000000000000 00464518     ft2.obj
 0002:000005bc       __real@4@00000000000000000000 004645bc     board_monitor.obj
 0002:000005c0       ??_7DOUBLE_ARRAY_CLASS@@6B@ 004645c0     board_monitor.obj
 0002:000005c8       ??_C@_0L@OFGA@dbgdel?4cpp?$AA@ 004645c8     libcmtd:dbgdel.obj
 0002:000005d4       ??_C@_0CH@PHOC@_BLOCK_TYPE_IS_VALID?$CIpHead?9?$DOnBlo@ 004645d4     libcmtd:dbgdel.obj
 0002:000005fc       ??_C@_08CEA@onexit?4c?$AA@ 004645fc     libcmtd:onexit.obj
 0002:00000608       ??_C@_06DPMO@Client?$AA@   00464608     libcmtd:dbgheap.obj
 0002:00000610       ??_C@_06BAFM@Ignore?$AA@   00464610     libcmtd:dbgheap.obj
 0002:00000618       ??_C@_03DICE@CRT?$AA@      00464618     libcmtd:dbgheap.obj
 0002:0000061c       ??_C@_06BILL@Normal?$AA@   0046461c     libcmtd:dbgheap.obj
 0002:00000624       ??_C@_04NEN@Free?$AA@      00464624     libcmtd:dbgheap.obj
 0002:0000063c       ??_C@_0DC@CGID@Error?3?5memory?5allocation?3?5bad?5me@ 0046463c     libcmtd:dbgheap.obj
 0002:00000670       ??_C@_0CE@FMIA@Invalid?5allocation?5size?3?5?$CFu?5byte@ 00464670     libcmtd:dbgheap.obj
 0002:00000694       ??_C@_02DILL@?$CFs?$AA@    00464694     libcmtd:dbgheap.obj
 0002:00000698       ??_C@_0CB@CPBI@Client?5hook?5allocation?5failure?4?6@ 00464698     libcmtd:dbgheap.obj
 0002:000006bc       ??_C@_0DF@DKHF@Client?5hook?5allocation?5failure?5a@ 004646bc     libcmtd:dbgheap.obj
 0002:000006f4       ??_C@_09IMJC@dbgheap?4c?$AA@ 004646f4     libcmtd:dbgheap.obj
 0002:00000700       ??_C@_0BC@EPKL@_CrtCheckMemory?$CI?$CJ?$AA@ 00464700     libcmtd:dbgheap.obj
 0002:00000724       ??_C@_0BK@JDHA@_pFirstBlock?5?$DN?$DN?5pOldBlock?$AA@ 00464724     libcmtd:dbgheap.obj
 0002:00000740       ??_C@_0BJ@NMEF@_pLastBlock?5?$DN?$DN?5pOldBlock?$AA@ 00464740     libcmtd:dbgheap.obj
 0002:0000075c       ??_C@_0DC@BOCN@fRealloc?5?$HM?$HM?5?$CI?$CBfRealloc?5?$CG?$CG?5pNewBl@ 0046475c     libcmtd:dbgheap.obj
 0002:00000790       ??_C@_0DK@DKOM@_BLOCK_TYPE?$CIpOldBlock?9?$DOnBlockUse@ 00464790     libcmtd:dbgheap.obj
 0002:000007cc       ??_C@_0EF@EDKM@pOldBlock?9?$DOnLine?5?$DN?$DN?5IGNORE_LINE?5@ 004647cc     libcmtd:dbgheap.obj
 0002:00000814       ??_C@_0CC@GPMO@_CrtIsValidHeapPointer?$CIpUserData@ 00464814     libcmtd:dbgheap.obj
 0002:00000838       ??_C@_0CN@FHGE@Allocation?5too?5large?5or?5negative@ 00464838     libcmtd:dbgheap.obj
 0002:00000868       ??_C@_0CE@EAMN@Client?5hook?5re?9allocation?5failur@ 00464868     libcmtd:dbgheap.obj
 0002:0000088c       ??_C@_0DI@KKMM@Client?5hook?5re?9allocation?5failur@ 0046488c     libcmtd:dbgheap.obj
 0002:000008e4       ??_C@_0BG@JCEC@_pFirstBlock?5?$DN?$DN?5pHead?$AA@ 004648e4     libcmtd:dbgheap.obj
 0002:000008fc       ??_C@_0BF@NLNN@_pLastBlock?5?$DN?$DN?5pHead?$AA@ 004648fc     libcmtd:dbgheap.obj
 0002:00000914       ??_C@_0BO@PLHH@pHead?9?$DOnBlockUse?5?$DN?$DN?5nBlockUse?$AA@ 00464914     libcmtd:dbgheap.obj
 0002:00000934       ??_C@_0DN@KKIO@pHead?9?$DOnLine?5?$DN?$DN?5IGNORE_LINE?5?$CG?$CG?5p@ 00464934     libcmtd:dbgheap.obj
 0002:00000974       ??_C@_0CK@OJNB@DAMAGE?3?5after?5?$CFhs?5block?5?$CI?$CD?$CFd?$CJ?5at@ 00464974     libcmtd:dbgheap.obj
 0002:000009a0       ??_C@_0CL@IJIL@DAMAGE?3?5before?5?$CFhs?5block?5?$CI?$CD?$CFd?$CJ?5a@ 004649a0     libcmtd:dbgheap.obj
 0002:000009cc       ??_C@_0BL@MBNA@Client?5hook?5free?5failure?4?6?$AA@ 004649cc     libcmtd:dbgheap.obj
 0002:00000a04       ??_C@_0DK@EKKL@memory?5check?5error?5at?50x?$CF08X?5?$DN?50@ 00464a04     libcmtd:dbgheap.obj
 0002:00000a40       ??_C@_0CJ@GCII@?$CFhs?5located?5at?50x?$CF08X?5is?5?$CFu?5byte@ 00464a40     libcmtd:dbgheap.obj
 0002:00000a6c       ??_C@_0CA@EJPI@?$CFhs?5allocated?5at?5file?5?$CFhs?$CI?$CFd?$CJ?4?6?$AA@ 00464a6c     libcmtd:dbgheap.obj
 0002:00000a8c       ??_C@_0CJ@LHHG@DAMAGE?3?5on?5top?5of?5Free?5block?5at?5@ 00464a8c     libcmtd:dbgheap.obj
 0002:00000ab8       ??_C@_07GJHM@DAMAGED?$AA@  00464ab8     libcmtd:dbgheap.obj
 0002:00000ac0       ??_C@_0CL@ODIE@_heapchk?5fails?5with?5unknown?5retu@ 00464ac0     libcmtd:dbgheap.obj
 0002:00000aec       ??_C@_0CC@EHNC@_heapchk?5fails?5with?5_HEAPBADPTR?4@ 00464aec     libcmtd:dbgheap.obj
 0002:00000b10       ??_C@_0CC@JNDP@_heapchk?5fails?5with?5_HEAPBADEND?4@ 00464b10     libcmtd:dbgheap.obj
 0002:00000b34       ??_C@_0CD@DNMG@_heapchk?5fails?5with?5_HEAPBADNODE@ 00464b34     libcmtd:dbgheap.obj
 0002:00000b58       ??_C@_0CE@JMCB@_heapchk?5fails?5with?5_HEAPBADBEGI@ 00464b58     libcmtd:dbgheap.obj
 0002:00000bac       ??_C@_0CD@MEMI@Bad?5memory?5block?5found?5at?50x?$CF08X@ 00464bac     libcmtd:dbgheap.obj
 0002:00000bd0       ??_C@_0CI@GMAO@_CrtMemCheckPoint?3?5NULL?5state?5po@ 00464bd0     libcmtd:dbgheap.obj
 0002:00000c04       ??_C@_0CI@MNAE@_CrtMemDifference?3?5NULL?5state?5po@ 00464c04     libcmtd:dbgheap.obj
 0002:00000c2c       ??_C@_0BH@PKIJ@Object?5dump?5complete?4?6?$AA@ 00464c2c     libcmtd:dbgheap.obj
 0002:00000c44       ??_C@_0DB@DBPF@crt?5block?5at?50x?$CF08X?0?5subtype?5?$CFx?0@ 00464c44     libcmtd:dbgheap.obj
 0002:00000c78       ??_C@_0CI@JLM@normal?5block?5at?50x?$CF08X?0?5?$CFu?5bytes@ 00464c78     libcmtd:dbgheap.obj
 0002:00000ca0       ??_C@_0DE@PFEA@client?5block?5at?50x?$CF08X?0?5subtype?5@ 00464ca0     libcmtd:dbgheap.obj
 0002:00000cd4       ??_C@_06MBCE@?$HL?$CFld?$HN?5?$AA@ 00464cd4     libcmtd:dbgheap.obj
 0002:00000cdc       ??_C@_0L@BLDJ@?$CFhs?$CI?$CFd?$CJ?5?3?5?$AA@ 00464cdc     libcmtd:dbgheap.obj
 0002:00000ce8       ??_C@_0BE@FEMA@?$CDFile?5Error?$CD?$CI?$CFd?$CJ?5?3?5?$AA@ 00464ce8     libcmtd:dbgheap.obj
 0002:00000cfc       ??_C@_0BE@FPPM@Dumping?5objects?5?9?$DO?6?$AA@ 00464cfc     libcmtd:dbgheap.obj
 0002:00000d1c       ??_C@_0BA@POLM@?5Data?3?5?$DM?$CFs?$DO?5?$CFs?6?$AA@ 00464d1c     libcmtd:dbgheap.obj
 0002:00000d2c       ??_C@_05JLAO@?$CF?42X?5?$AA@ 00464d2c     libcmtd:dbgheap.obj
 0002:00000d34       ??_C@_0BI@KONA@Detected?5memory?5leaks?$CB?6?$AA@ 00464d34     libcmtd:dbgheap.obj
 0002:00000d4c       ??_C@_0BP@LCCN@Total?5allocations?3?5?$CFld?5bytes?4?6?$AA@ 00464d4c     libcmtd:dbgheap.obj
 0002:00000d6c       ??_C@_0CB@COID@Largest?5number?5used?3?5?$CFld?5bytes?4?6@ 00464d6c     libcmtd:dbgheap.obj
 0002:00000d90       ??_C@_0BO@MEJD@?$CFld?5bytes?5in?5?$CFld?5?$CFhs?5Blocks?4?6?$AA@ 00464d90     libcmtd:dbgheap.obj
 0002:00000db0       ??_C@_08GEIE@thread?4c?$AA@ 00464db0     libcmtd:thread.obj
 0002:00000ddc       ??_C@_07PDLA@mlock?4c?$AA@ 00464ddc     libcmtd:mlock.obj
 0002:00000de4       ??_C@_0BB@BLL@Assertion?5Failed?$AA@ 00464de4     libcmtd:dbgrpt.obj
 0002:00000df8       ??_C@_05CKBG@Error?$AA@    00464df8     libcmtd:dbgrpt.obj
 0002:00000e00       ??_C@_07JCGI@Warning?$AA@  00464e00     libcmtd:dbgrpt.obj
 0002:00000e08       ??_C@_0M@ODEP@?$CFs?$CI?$CFd?$CJ?5?3?5?$CFs?$AA@ 00464e08     libcmtd:dbgrpt.obj
 0002:00000e14       ??_C@_01BJG@?6?$AA@        00464e14     libcmtd:dbgrpt.obj
 0002:00000e18       ??_C@_01FEHD@?$AN?$AA@     00464e18     libcmtd:dbgrpt.obj
 0002:00000e1c       ??_C@_0BC@OIMC@Assertion?5failed?$CB?$AA@ 00464e1c     libcmtd:dbgrpt.obj
 0002:00000e30       ??_C@_0BD@BEAK@Assertion?5failed?3?5?$AA@ 00464e30     libcmtd:dbgrpt.obj
 0002:00000e44       ??_C@_0CL@LCCP@_CrtDbgReport?3?5String?5too?5long?5o@ 00464e44     libcmtd:dbgrpt.obj
 0002:00000e70       ??_C@_0DC@EMDK@Second?5Chance?5Assertion?5Failed?3?5@ 00464e70     libcmtd:dbgrpt.obj
 0002:00000ea4       ??_C@_09NJAK@wsprintfA?$AA@ 00464ea4     libcmtd:dbgrpt.obj
 0002:00000eb0       ??_C@_0L@HKL@user32?4dll?$AA@ 00464eb0     libcmtd:dbgrpt.obj
 0002:00000ebc       ??_C@_0CD@GCMD@Microsoft?5Visual?5C?$CL?$CL?5Debug?5Libra@ 00464ebc     libcmtd:dbgrpt.obj
 0002:00000ee0       ??_C@_0FD@EBDD@Debug?5?$CFs?$CB?6?6Program?3?5?$CFs?$CFs?$CFs?$CFs?$CFs?$CFs@ 00464ee0     libcmtd:dbgrpt.obj
 0002:00000f34       ??_C@_09DCKN@?6Module?3?5?$AA@ 00464f34     libcmtd:dbgrpt.obj
 0002:00000f40       ??_C@_07HJII@?6File?3?5?$AA@ 00464f40     libcmtd:dbgrpt.obj
 0002:00000f48       ??_C@_07LFGN@?6Line?3?5?$AA@ 00464f48     libcmtd:dbgrpt.obj
 0002:00000f50       ??_C@_02JJJH@?6?6?$AA@     00464f50     libcmtd:dbgrpt.obj
 0002:00000f54       ??_C@_0N@NOAB@Expression?3?5?$AA@ 00464f54     libcmtd:dbgrpt.obj
 0002:00000f64       ??_C@_00A@?$AA@            00464f64     libcmtd:dbgrpt.obj
 0002:00000f68       ??_C@_0HD@BHFH@?6?6For?5information?5on?5how?5your?5pr@ 00464f68     libcmtd:dbgrpt.obj
 0002:00000fdc       ??_C@_03NAME@?4?4?4?$AA@   00464fdc     libcmtd:dbgrpt.obj
 0002:00000fe0       ??_C@_0BH@NNCD@?$DMprogram?5name?5unknown?$DO?$AA@ 00464fe0     libcmtd:dbgrpt.obj
 0002:00000ff8       ??_C@_08GFHP@dbgrpt?4c?$AA@ 00464ff8     libcmtd:dbgrpt.obj
 0002:00001004       ??_C@_0BG@FBEA@szUserMessage?5?$CB?$DN?5NULL?$AA@ 00465004     libcmtd:dbgrpt.obj
 0002:00001020       __real@8@3fff8000000000000000 00465020     libcmtd:testfdiv.obj
 0002:00001028       ??_C@_0BK@JEGK@IsProcessorFeaturePresent?$AA@ 00465028     libcmtd:testfdiv.obj
 0002:00001044       ??_C@_08OBID@KERNEL32?$AA@ 00465044     libcmtd:testfdiv.obj
 0002:00001050       __real@8@00000000000000000000 00465050     libcmtd:cvt.obj
 0002:00001058       ??_C@_05OFLO@e?$CL000?$AA@ 00465058     libcmtd:cvt.obj
 0002:000010d8       ??_C@_0BH@PHHF@__GLOBAL_HEAP_SELECTED?$AA@ 004650d8     libcmtd:heapinit.obj
 0002:000010f0       ??_C@_0BF@BBGL@__MSVCRT_HEAP_SELECT?$AA@ 004650f0     libcmtd:heapinit.obj
 0002:00001108       ??_C@_0P@LNLA@format?5?$CB?$DN?5NULL?$AA@ 00465108     libcmtd:sprintf.obj
 0002:00001118       ??_C@_09NEAG@sprintf?4c?$AA@ 00465118     libcmtd:sprintf.obj
 0002:00001124       ??_C@_0P@OOIN@string?5?$CB?$DN?5NULL?$AA@ 00465124     libcmtd:sprintf.obj
 0002:00001134       ??_C@_0L@ENLJ@tidtable?4c?$AA@ 00465134     libcmtd:tidtable.obj
 0002:00001140       ??_C@_09IGKD@stdenvp?4c?$AA@ 00465140     libcmtd:stdenvp.obj
 0002:0000114c       ??_C@_09MPMN@stdargv?4c?$AA@ 0046514c     libcmtd:stdargv.obj
 0002:00001158       ??_C@_07BNNE@a_env?4c?$AA@ 00465158     libcmtd:a_env.obj
 0002:00001160       ??_C@_08KFDJ@ioinit?4c?$AA@ 00465160     libcmtd:ioinit.obj
 0002:0000116c       ??_C@_0P@GGKG@runtime?5error?5?$AA@ 0046516c     libcmtd:crt0msg.obj
 0002:0000117c       ??_C@_02PIMC@?$AN?6?$AA@   0046517c     libcmtd:crt0msg.obj
 0002:00001180       ??_C@_0O@DELO@TLOSS?5error?$AN?6?$AA@ 00465180     libcmtd:crt0msg.obj
 0002:00001190       ??_C@_0N@OMLL@SING?5error?$AN?6?$AA@ 00465190     libcmtd:crt0msg.obj
 0002:000011a0       ??_C@_0P@OJAK@DOMAIN?5error?$AN?6?$AA@ 004651a0     libcmtd:crt0msg.obj
 0002:000011b0       ??_C@_0CF@EANP@R6028?$AN?6?9?5unable?5to?5initialize?5he@ 004651b0     libcmtd:crt0msg.obj
 0002:000011d8       ??_C@_0DF@ECGN@R6027?$AN?6?9?5not?5enough?5space?5for?5lo@ 004651d8     libcmtd:crt0msg.obj
 0002:00001210       ??_C@_0DF@FKAC@R6026?$AN?6?9?5not?5enough?5space?5for?5st@ 00465210     libcmtd:crt0msg.obj
 0002:00001248       ??_C@_0CG@DPMN@R6025?$AN?6?9?5pure?5virtual?5function?5c@ 00465248     libcmtd:crt0msg.obj
 0002:00001270       ??_C@_0DF@CKIP@R6024?$AN?6?9?5not?5enough?5space?5for?5_o@ 00465270     libcmtd:crt0msg.obj
 0002:000012a8       ??_C@_0CJ@GGOE@R6019?$AN?6?9?5unable?5to?5open?5console?5@ 004652a8     libcmtd:crt0msg.obj
 0002:000012d4       ??_C@_0CB@LBOB@R6018?$AN?6?9?5unexpected?5heap?5error?$AN?6@ 004652d4     libcmtd:crt0msg.obj
 0002:000012f8       ??_C@_0CN@FPEG@R6017?$AN?6?9?5unexpected?5multithread?5@ 004652f8     libcmtd:crt0msg.obj
 0002:00001328       ??_C@_0CM@OBIC@R6016?$AN?6?9?5not?5enough?5space?5for?5th@ 00465328     libcmtd:crt0msg.obj
 0002:00001354       ??_C@_0CB@HPAL@?$AN?6abnormal?5program?5termination?$AN?6@ 00465354     libcmtd:crt0msg.obj
 0002:00001378       ??_C@_0CM@JOOB@R6009?$AN?6?9?5not?5enough?5space?5for?5en@ 00465378     libcmtd:crt0msg.obj
 0002:000013a4       ??_C@_0CK@OIBL@R6008?$AN?6?9?5not?5enough?5space?5for?5ar@ 004653a4     libcmtd:crt0msg.obj
 0002:000013d0       ??_C@_0CF@LKPB@R6002?$AN?6?9?5floating?5point?5not?5load@ 004653d0     libcmtd:crt0msg.obj
 0002:000013f8       ??_C@_0CF@JPDF@Microsoft?5Visual?5C?$CL?$CL?5Runtime?5Lib@ 004653f8     libcmtd:crt0msg.obj
 0002:00001420       ??_C@_0BK@DEOK@Runtime?5Error?$CB?6?6Program?3?5?$AA@ 00465420     libcmtd:crt0msg.obj
 0002:0000143c       ??_C@_0L@HE@vsprintf?4c?$AA@ 0046543c     libcmtd:vsnprint.obj
 0002:00001448       ??_C@_08CNMA@winsig?4c?$AA@ 00465448     libcmtd:winsig.obj
 0002:00001454       ??_C@_0BD@NJFP@GetLastActivePopup?$AA@ 00465454     libcmtd:crtmbox.obj
 0002:00001468       ??_C@_0BA@GILI@GetActiveWindow?$AA@ 00465468     libcmtd:crtmbox.obj
 0002:00001478       ??_C@_0M@PKCK@MessageBoxA?$AA@ 00465478     libcmtd:crtmbox.obj
 0002:00001484       ??_C@_0DP@IHIN@?$CI?$CCinconsistent?5IOB?5fields?$CC?0?5stre@ 00465484     libcmtd:_flsbuf.obj
 0002:000014c4       ??_C@_09LGEI@_flsbuf?4c?$AA@ 004654c4     libcmtd:_flsbuf.obj
 0002:000014d0       ??_C@_0M@KJPK@str?5?$CB?$DN?5NULL?$AA@ 004654d0     libcmtd:_flsbuf.obj
 0002:000014dc       ___lookuptable             004654dc     libcmtd:output.obj
 0002:00001538       ??_C@_1O@POHA@?$AA?$CI?$AAn?$AAu?$AAl?$AAl?$AA?$CJ?$AA?$AA@ 00465538     libcmtd:output.obj
 0002:00001548       ??_C@_06ONKE@?$CInull?$CJ?$AA@ 00465548     libcmtd:output.obj
 0002:00001550       ??_C@_08MIHI@output?4c?$AA@ 00465550     libcmtd:output.obj
 0002:0000155c       ??_C@_0P@PIHB@ch?5?$CB?$DN?5_T?$CI?8?20?8?$CJ?$AA@ 0046555c     libcmtd:output.obj
 0002:0000156c       ??_C@_01A@?$AA?$AA@        0046556c     libcmtd:a_str.obj
 0002:00001570       ??_C@_13A@?$AA?$AA?$AA?$AA@ 00465570     libcmtd:a_str.obj
 0002:00001584       ??_C@_07PCLE@LC_TIME?$AA@  00465584     libcmtd:setlocal.obj
 0002:0000158c       ??_C@_0L@NKG@LC_NUMERIC?$AA@ 0046558c     libcmtd:setlocal.obj
 0002:00001598       ??_C@_0M@CBIH@LC_MONETARY?$AA@ 00465598     libcmtd:setlocal.obj
 0002:000015a4       ??_C@_08LFGE@LC_CTYPE?$AA@ 004655a4     libcmtd:setlocal.obj
 0002:000015b0       ??_C@_0L@CFLC@LC_COLLATE?$AA@ 004655b0     libcmtd:setlocal.obj
 0002:000015bc       ??_C@_06GCPK@LC_ALL?$AA@   004655bc     libcmtd:setlocal.obj
 0002:000015c4       ??_C@_01FAJB@?$DL?$AA@     004655c4     libcmtd:setlocal.obj
 0002:000015c8       ??_C@_02BGDO@?$DN?$DL?$AA@ 004655c8     libcmtd:setlocal.obj
 0002:000015cc       ??_C@_0L@MOEE@setlocal?4c?$AA@ 004655cc     libcmtd:setlocal.obj
 0002:000015d8       ??_C@_01KPOD@?$DN?$AA@     004655d8     libcmtd:setlocal.obj
 0002:000015dc       ??_C@_03DBOJ@_?4?0?$AA@    004655dc     libcmtd:setlocal.obj
 0002:000015e0       ??_C@_01PJCK@?4?$AA@       004655e0     libcmtd:setlocal.obj
 0002:000015e4       ??_C@_01NON@_?$AA@         004655e4     libcmtd:setlocal.obj
 0002:00001600       ??_C@_06PAPI@1?$CDQNAN?$AA@ 00465600     libcmtd:x10fout.obj
 0002:00001608       ??_C@_05BGNL@1?$CDINF?$AA@ 00465608     libcmtd:x10fout.obj
 0002:00001610       ??_C@_05EDPF@1?$CDIND?$AA@ 00465610     libcmtd:x10fout.obj
 0002:00001618       ??_C@_06LKFM@1?$CDSNAN?$AA@ 00465618     libcmtd:x10fout.obj
 0002:00001620       ??_C@_09EMDO@_getbuf?4c?$AA@ 00465620     libcmtd:_getbuf.obj
 0002:0000162c       ??_C@_07HPAH@_file?4c?$AA@ 0046562c     libcmtd:_file.obj
 0002:00001634       ??_C@_0L@EEGJ@inittime?4c?$AA@ 00465634     libcmtd:inittime.obj
 0002:00001640       ??_C@_09IMJJ@initnum?4c?$AA@ 00465640     libcmtd:initnum.obj
 0002:0000164c       ??_C@_09KPNI@initmon?4c?$AA@ 0046564c     libcmtd:initmon.obj
 0002:00001658       ??_C@_0L@COIL@initctyp?4c?$AA@ 00465658     libcmtd:initctyp.obj
 0002:00001664       ??_C@_08OBJD@Paraguay?$AA@ 00465664     libcmtd:getqloc.obj
 0002:00001670       ??_C@_07GLKH@Uruguay?$AA@  00465670     libcmtd:getqloc.obj
 0002:00001678       ??_C@_05FPFC@Chile?$AA@    00465678     libcmtd:getqloc.obj
 0002:00001680       ??_C@_07IIGF@Ecuador?$AA@  00465680     libcmtd:getqloc.obj
 0002:00001688       ??_C@_09PKAL@Argentina?$AA@ 00465688     libcmtd:getqloc.obj
 0002:00001694       ??_C@_04LKAH@Peru?$AA@     00465694     libcmtd:getqloc.obj
 0002:0000169c       ??_C@_08NEEM@Colombia?$AA@ 0046569c     libcmtd:getqloc.obj
 0002:000016a8       ??_C@_09ODEB@Venezuela?$AA@ 004656a8     libcmtd:getqloc.obj
 0002:000016b4       ??_C@_0BD@CLEL@Dominican?5Republic?$AA@ 004656b4     libcmtd:getqloc.obj
 0002:000016c8       ??_C@_0N@MDGL@South?5Africa?$AA@ 004656c8     libcmtd:getqloc.obj
 0002:000016d8       ??_C@_06NKBG@Panama?$AA@   004656d8     libcmtd:getqloc.obj
 0002:000016e0       ??_C@_0L@BMHO@Luxembourg?$AA@ 004656e0     libcmtd:getqloc.obj
 0002:000016ec       ??_C@_0L@IMDK@Costa?5Rica?$AA@ 004656ec     libcmtd:getqloc.obj
 0002:000016f8       ??_C@_0M@BLJF@Switzerland?$AA@ 004656f8     libcmtd:getqloc.obj
 0002:00001704       ??_C@_09KBOL@Guatemala?$AA@ 00465704     libcmtd:getqloc.obj
 0002:00001710       ??_C@_06JNAK@Canada?$AA@   00465710     libcmtd:getqloc.obj
 0002:00001718       ??_C@_0BG@OLLP@Spanish?5?9?5Modern?5Sort?$AA@ 00465718     libcmtd:getqloc.obj
 0002:00001730       ??_C@_09IDKE@Australia?$AA@ 00465730     libcmtd:getqloc.obj
 0002:0000173c       ??_C@_07JJJJ@English?$AA@  0046573c     libcmtd:getqloc.obj
 0002:00001744       ??_C@_07NMDO@Austria?$AA@  00465744     libcmtd:getqloc.obj
 0002:0000174c       ??_C@_06DEFE@German?$AA@   0046574c     libcmtd:getqloc.obj
 0002:00001754       ??_C@_07JAIH@Belgium?$AA@  00465754     libcmtd:getqloc.obj
 0002:0000175c       ??_C@_06BNLJ@Mexico?$AA@   0046575c     libcmtd:getqloc.obj
 0002:00001764       ??_C@_07JHAG@Spanish?$AA@  00465764     libcmtd:getqloc.obj
 0002:0000176c       ??_C@_06DADE@Basque?$AA@   0046576c     libcmtd:getqloc.obj
 0002:00001774       ??_C@_06ENFP@Sweden?$AA@   00465774     libcmtd:getqloc.obj
 0002:0000177c       ??_C@_07JPMH@Swedish?$AA@  0046577c     libcmtd:getqloc.obj
 0002:00001784       ??_C@_07IEKF@Iceland?$AA@  00465784     libcmtd:getqloc.obj
 0002:0000178c       ??_C@_09KNEA@Icelandic?$AA@ 0046578c     libcmtd:getqloc.obj
 0002:00001798       ??_C@_06IJOD@France?$AA@   00465798     libcmtd:getqloc.obj
 0002:000017a0       ??_C@_06EINI@French?$AA@   004657a0     libcmtd:getqloc.obj
 0002:000017a8       ??_C@_07FOOE@Finland?$AA@  004657a8     libcmtd:getqloc.obj
 0002:000017b0       ??_C@_07OJOM@Finnish?$AA@  004657b0     libcmtd:getqloc.obj
 0002:000017b8       ??_C@_05FFAC@Spain?$AA@    004657b8     libcmtd:getqloc.obj
 0002:000017c0       ??_C@_0BL@BIHM@Spanish?5?9?5Traditional?5Sort?$AA@ 004657c0     libcmtd:getqloc.obj
 0002:000017dc       ??_C@_0O@GLHB@united?9states?$AA@ 004657dc     libcmtd:getqloc.obj
 0002:000017ec       ??_C@_0P@IIKK@united?9kingdom?$AA@ 004657ec     libcmtd:getqloc.obj
 0002:000017fc       ??_C@_0BC@FHBO@trinidad?5?$CG?5tobago?$AA@ 004657fc     libcmtd:getqloc.obj
 0002:00001810       ??_C@_0M@BDFM@south?9korea?$AA@ 00465810     libcmtd:getqloc.obj
 0002:0000181c       ??_C@_0N@CKFA@south?9africa?$AA@ 0046581c     libcmtd:getqloc.obj
 0002:0000182c       ??_C@_0M@HNHN@south?5korea?$AA@ 0046582c     libcmtd:getqloc.obj
 0002:00001838       ??_C@_0N@MKDO@south?5africa?$AA@ 00465838     libcmtd:getqloc.obj
 0002:00001848       ??_C@_06KFFJ@slovak?$AA@   00465848     libcmtd:getqloc.obj
 0002:00001850       ??_C@_0M@NMAC@puerto?9rico?$AA@ 00465850     libcmtd:getqloc.obj
 0002:0000185c       ??_C@_08EJOH@pr?9china?$AA@ 0046585c     libcmtd:getqloc.obj
 0002:00001868       ??_C@_08CHMG@pr?5china?$AA@ 00465868     libcmtd:getqloc.obj
 0002:00001874       ??_C@_02OCJK@nz?$AA@       00465874     libcmtd:getqloc.obj
 0002:00001878       ??_C@_0M@MMKA@new?9zealand?$AA@ 00465878     libcmtd:getqloc.obj
 0002:00001884       ??_C@_09MGEH@hong?9kong?$AA@ 00465884     libcmtd:getqloc.obj
 0002:00001890       ??_C@_07CCAK@holland?$AA@  00465890     libcmtd:getqloc.obj
 0002:00001898       ??_C@_0O@MEPL@great?5britain?$AA@ 00465898     libcmtd:getqloc.obj
 0002:000018a8       ??_C@_07LGIB@england?$AA@  004658a8     libcmtd:getqloc.obj
 0002:000018b0       ??_C@_05BMOA@czech?$AA@    004658b0     libcmtd:getqloc.obj
 0002:000018b8       ??_C@_05NMPB@china?$AA@    004658b8     libcmtd:getqloc.obj
 0002:000018c0       ??_C@_07GN@britain?$AA@    004658c0     libcmtd:getqloc.obj
 0002:000018c8       ??_C@_07DLAK@america?$AA@  004658c8     libcmtd:getqloc.obj
 0002:000018d0       ??_C@_03IPEP@usa?$AA@      004658d0     libcmtd:getqloc.obj
 0002:000018d4       ??_C@_02PILH@us?$AA@       004658d4     libcmtd:getqloc.obj
 0002:000018d8       ??_C@_02FHP@uk?$AA@        004658d8     libcmtd:getqloc.obj
 0002:000018dc       ??_C@_05DEAI@swiss?$AA@    004658dc     libcmtd:getqloc.obj
 0002:000018e4       ??_C@_0BA@LIAF@swedish?9finland?$AA@ 004658e4     libcmtd:getqloc.obj
 0002:000018f4       ??_C@_0BC@FMEG@spanish?9venezuela?$AA@ 004658f4     libcmtd:getqloc.obj
 0002:00001908       ??_C@_0BA@BNMG@spanish?9uruguay?$AA@ 00465908     libcmtd:getqloc.obj
 0002:00001918       ??_C@_0BE@BKDJ@spanish?9puerto?5rico?$AA@ 00465918     libcmtd:getqloc.obj
 0002:0000192c       ??_C@_0N@JIBL@spanish?9peru?$AA@ 0046592c     libcmtd:getqloc.obj
 0002:0000193c       ??_C@_0BB@OGOF@spanish?9paraguay?$AA@ 0046593c     libcmtd:getqloc.obj
 0002:00001950       ??_C@_0P@LLFA@spanish?9panama?$AA@ 00465950     libcmtd:getqloc.obj
 0002:00001960       ??_C@_0BC@BBJM@spanish?9nicaragua?$AA@ 00465960     libcmtd:getqloc.obj
 0002:00001974       ??_C@_0P@NJBN@spanish?9modern?$AA@ 00465974     libcmtd:getqloc.obj
 0002:00001984       ??_C@_0BA@NHDN@spanish?9mexican?$AA@ 00465984     libcmtd:getqloc.obj
 0002:00001994       ??_C@_0BB@JHOJ@spanish?9honduras?$AA@ 00465994     libcmtd:getqloc.obj
 0002:000019a8       ??_C@_0BC@BOOM@spanish?9guatemala?$AA@ 004659a8     libcmtd:getqloc.obj
 0002:000019bc       ??_C@_0BE@EELI@spanish?9el?5salvador?$AA@ 004659bc     libcmtd:getqloc.obj
 0002:000019d0       ??_C@_0BA@POAE@spanish?9ecuador?$AA@ 004659d0     libcmtd:getqloc.obj
 0002:000019e0       ??_C@_0BL@LDKN@spanish?9dominican?5republic?$AA@ 004659e0     libcmtd:getqloc.obj
 0002:000019fc       ??_C@_0BD@HPMH@spanish?9costa?5rica?$AA@ 004659fc     libcmtd:getqloc.obj
 0002:00001a10       ??_C@_0BB@NDDK@spanish?9colombia?$AA@ 00465a10     libcmtd:getqloc.obj
 0002:00001a24       ??_C@_0O@BJHA@spanish?9chile?$AA@ 00465a24     libcmtd:getqloc.obj
 0002:00001a34       ??_C@_0BA@OBNG@spanish?9bolivia?$AA@ 00465a34     libcmtd:getqloc.obj
 0002:00001a44       ??_C@_0BC@EFAM@spanish?9argentina?$AA@ 00465a44     libcmtd:getqloc.obj
 0002:00001a58       ??_C@_0BF@KMMM@portuguese?9brazilian?$AA@ 00465a58     libcmtd:getqloc.obj
 0002:00001a70       ??_C@_0BC@BAAE@norwegian?9nynorsk?$AA@ 00465a70     libcmtd:getqloc.obj
 0002:00001a84       ??_C@_0BB@PBHK@norwegian?9bokmal?$AA@ 00465a84     libcmtd:getqloc.obj
 0002:00001a98       ??_C@_09EHKL@norwegian?$AA@ 00465a98     libcmtd:getqloc.obj
 0002:00001aa4       ??_C@_0O@BEAN@italian?9swiss?$AA@ 00465aa4     libcmtd:getqloc.obj
 0002:00001ab4       ??_C@_0O@OIFK@irish?9english?$AA@ 00465ab4     libcmtd:getqloc.obj
 0002:00001ac4       ??_C@_0N@NBPL@german?9swiss?$AA@ 00465ac4     libcmtd:getqloc.obj
 0002:00001ad4       ??_C@_0BC@ICFJ@german?9luxembourg?$AA@ 00465ad4     libcmtd:getqloc.obj
 0002:00001ae8       ??_C@_0BE@GGPC@german?9lichtenstein?$AA@ 00465ae8     libcmtd:getqloc.obj
 0002:00001afc       ??_C@_0BA@MKDC@german?9austrian?$AA@ 00465afc     libcmtd:getqloc.obj
 0002:00001b0c       ??_C@_0N@ODNB@french?9swiss?$AA@ 00465b0c     libcmtd:getqloc.obj
 0002:00001b1c       ??_C@_0BC@MGCM@french?9luxembourg?$AA@ 00465b1c     libcmtd:getqloc.obj
 0002:00001b30       ??_C@_0BA@NABK@french?9canadian?$AA@ 00465b30     libcmtd:getqloc.obj
 0002:00001b40       ??_C@_0P@CJNO@french?9belgian?$AA@ 00465b40     libcmtd:getqloc.obj
 0002:00001b50       ??_C@_0M@LJOL@english?9usa?$AA@ 00465b50     libcmtd:getqloc.obj
 0002:00001b5c       ??_C@_0L@FMNC@english?9us?$AA@ 00465b5c     libcmtd:getqloc.obj
 0002:00001b68       ??_C@_0L@KBBK@english?9uk?$AA@ 00465b68     libcmtd:getqloc.obj
 0002:00001b74       ??_C@_0BK@NDDE@english?9trinidad?5y?5tobago?$AA@ 00465b74     libcmtd:getqloc.obj
 0002:00001b90       ??_C@_0BF@LKML@english?9south?5africa?$AA@ 00465b90     libcmtd:getqloc.obj
 0002:00001ba8       ??_C@_0L@EGPP@english?9nz?$AA@ 00465ba8     libcmtd:getqloc.obj
 0002:00001bb4       ??_C@_0BA@HLH@english?9jamaica?$AA@ 00465bb4     libcmtd:getqloc.obj
 0002:00001bc4       ??_C@_0M@PMJI@english?9ire?$AA@ 00465bc4     libcmtd:getqloc.obj
 0002:00001bd0       ??_C@_0BC@HINE@english?9caribbean?$AA@ 00465bd0     libcmtd:getqloc.obj
 0002:00001be4       ??_C@_0M@DCFH@english?9can?$AA@ 00465be4     libcmtd:getqloc.obj
 0002:00001bf0       ??_C@_0P@DGHK@english?9belize?$AA@ 00465bf0     libcmtd:getqloc.obj
 0002:00001c00       ??_C@_0M@FLHK@english?9aus?$AA@ 00465c00     libcmtd:getqloc.obj
 0002:00001c0c       ??_C@_0BB@HNCK@english?9american?$AA@ 00465c0c     libcmtd:getqloc.obj
 0002:00001c20       ??_C@_0O@PAMI@dutch?9belgian?$AA@ 00465c20     libcmtd:getqloc.obj
 0002:00001c30       ??_C@_0BE@FPEJ@chinese?9traditional?$AA@ 00465c30     libcmtd:getqloc.obj
 0002:00001c44       ??_C@_0BC@CHFL@chinese?9singapore?$AA@ 00465c44     libcmtd:getqloc.obj
 0002:00001c58       ??_C@_0BD@DCMH@chinese?9simplified?$AA@ 00465c58     libcmtd:getqloc.obj
 0002:00001c6c       ??_C@_0BB@JMOE@chinese?9hongkong?$AA@ 00465c6c     libcmtd:getqloc.obj
 0002:00001c80       ??_C@_07NGFN@chinese?$AA@  00465c80     libcmtd:getqloc.obj
 0002:00001c88       ??_C@_03PCOI@chi?$AA@      00465c88     libcmtd:getqloc.obj
 0002:00001c8c       ??_C@_03FIHP@chh?$AA@      00465c8c     libcmtd:getqloc.obj
 0002:00001c90       ??_C@_08HFLO@canadian?$AA@ 00465c90     libcmtd:getqloc.obj
 0002:00001c9c       ??_C@_07INIJ@belgian?$AA@  00465c9c     libcmtd:getqloc.obj
 0002:00001ca4       ??_C@_0L@LCCA@australian?$AA@ 00465ca4     libcmtd:getqloc.obj
 0002:00001cb0       ??_C@_0BB@BJIO@american?9english?$AA@ 00465cb0     libcmtd:getqloc.obj
 0002:00001cc4       ??_C@_0BB@DAGO@american?5english?$AA@ 00465cc4     libcmtd:getqloc.obj
 0002:00001cd8       ??_C@_08HENB@american?$AA@ 00465cd8     libcmtd:getqloc.obj
 0002:00001ce4       ??_C@_03DGJE@OCP?$AA@      00465ce4     libcmtd:getqloc.obj
 0002:00001ce8       ??_C@_03EKFG@ACP?$AA@      00465ce8     libcmtd:getqloc.obj
 0002:00001cec       ??_C@_09LNLM@osfinfo?4c?$AA@ 00465cec     libcmtd:osfinfo.obj
 0002:00001cf8       ??_C@_07CJME@H?3mm?3ss?$AA@ 00465cf8     libcmtd:strftime.obj
 0002:00001d00       ??_C@_0BE@MHI@dddd?0?5MMMM?5dd?0?5yyyy?$AA@ 00465d00     libcmtd:strftime.obj
 0002:00001d14       ??_C@_06HCAD@M?1d?1yy?$AA@ 00465d14     libcmtd:strftime.obj
 0002:00001d1c       ??_C@_02DBLP@PM?$AA@       00465d1c     libcmtd:strftime.obj
 0002:00001d20       ??_C@_02ENLM@AM?$AA@       00465d20     libcmtd:strftime.obj
 0002:00001d24       ??_C@_08LIDF@December?$AA@ 00465d24     libcmtd:strftime.obj
 0002:00001d30       ??_C@_08NJLI@November?$AA@ 00465d30     libcmtd:strftime.obj
 0002:00001d3c       ??_C@_07IAMM@October?$AA@  00465d3c     libcmtd:strftime.obj
 0002:00001d44       ??_C@_09MKGD@September?$AA@ 00465d44     libcmtd:strftime.obj
 0002:00001d50       ??_C@_06PADP@August?$AA@   00465d50     libcmtd:strftime.obj
 0002:00001d58       ??_C@_04PIJO@July?$AA@     00465d58     libcmtd:strftime.obj
 0002:00001d60       ??_C@_04ICFP@June?$AA@     00465d60     libcmtd:strftime.obj
 0002:00001d68       ??_C@_05JFGC@April?$AA@    00465d68     libcmtd:strftime.obj
 0002:00001d70       ??_C@_05FGPD@March?$AA@    00465d70     libcmtd:strftime.obj
 0002:00001d78       ??_C@_08PGBA@February?$AA@ 00465d78     libcmtd:strftime.obj
 0002:00001d84       ??_C@_07BPKJ@January?$AA@  00465d84     libcmtd:strftime.obj
 0002:00001d8c       ??_C@_03PGJO@Dec?$AA@      00465d8c     libcmtd:strftime.obj
 0002:00001d90       ??_C@_03PDLM@Nov?$AA@      00465d90     libcmtd:strftime.obj
 0002:00001d94       ??_C@_03BLHK@Oct?$AA@      00465d94     libcmtd:strftime.obj
 0002:00001d98       ??_C@_03DPFM@Sep?$AA@      00465d98     libcmtd:strftime.obj
 0002:00001d9c       ??_C@_03CMCH@Aug?$AA@      00465d9c     libcmtd:strftime.obj
 0002:00001da0       ??_C@_03OBKI@Jul?$AA@      00465da0     libcmtd:strftime.obj
 0002:00001da4       ??_C@_03LEIG@Jun?$AA@      00465da4     libcmtd:strftime.obj
 0002:00001da8       ??_C@_03MGHB@May?$AA@      00465da8     libcmtd:strftime.obj
 0002:00001dac       ??_C@_03MJJM@Apr?$AA@      00465dac     libcmtd:strftime.obj
 0002:00001db0       ??_C@_03GNHA@Mar?$AA@      00465db0     libcmtd:strftime.obj
 0002:00001db4       ??_C@_03PICE@Feb?$AA@      00465db4     libcmtd:strftime.obj
 0002:00001db8       ??_C@_03IEIF@Jan?$AA@      00465db8     libcmtd:strftime.obj
 0002:00001dbc       ??_C@_08FAKH@Saturday?$AA@ 00465dbc     libcmtd:strftime.obj
 0002:00001dc8       ??_C@_06ONCK@Friday?$AA@   00465dc8     libcmtd:strftime.obj
 0002:00001dd0       ??_C@_08CCFO@Thursday?$AA@ 00465dd0     libcmtd:strftime.obj
 0002:00001ddc       ??_C@_09PBIN@Wednesday?$AA@ 00465ddc     libcmtd:strftime.obj
 0002:00001de8       ??_C@_07BMBC@Tuesday?$AA@  00465de8     libcmtd:strftime.obj
 0002:00001df0       ??_C@_06CHLK@Monday?$AA@   00465df0     libcmtd:strftime.obj
 0002:00001df8       ??_C@_06OOEM@Sunday?$AA@   00465df8     libcmtd:strftime.obj
 0002:00001e00       ??_C@_03MPKK@Sat?$AA@      00465e00     libcmtd:strftime.obj
 0002:00001e04       ??_C@_03FINJ@Fri?$AA@      00465e04     libcmtd:strftime.obj
 0002:00001e08       ??_C@_03HIKC@Thu?$AA@      00465e08     libcmtd:strftime.obj
 0002:00001e0c       ??_C@_03HECK@Wed?$AA@      00465e0c     libcmtd:strftime.obj
 0002:00001e10       ??_C@_03ECCP@Tue?$AA@      00465e10     libcmtd:strftime.obj
 0002:00001e14       ??_C@_03PIEP@Mon?$AA@      00465e14     libcmtd:strftime.obj
 0002:00001e18       ??_C@_03FHEP@Sun?$AA@      00465e18     libcmtd:strftime.obj
 0002:00001e1c       ??_C@_03MKGK@a?1p?$AA@     00465e1c     libcmtd:strftime.obj
 0002:00001e20       ??_C@_05BDJK@am?1pm?$AA@   00465e20     libcmtd:strftime.obj
 0002:00001e28       ??_C@_0L@HKCB@inithelp?4c?$AA@ 00465e28     libcmtd:inithelp.obj
 0002:00001e50       ??_C@_08PHBD@fclose?4c?$AA@ 00465e50     libcmtd:fclose.obj
 0002:00001e5c       ??_C@_0P@FHEA@stream?5?$CB?$DN?5NULL?$AA@ 00465e5c     libcmtd:fclose.obj
 0002:00001e6c       ___dnames                  00465e6c     libcmtd:timeset.obj
 0002:00001e84       ___mnames                  00465e84     libcmtd:timeset.obj
 0002:00001eac       ??_C@_07DEKI@tzset?4c?$AA@ 00465eac     libcmtd:tzset.obj
 0002:00001eb4       ??_C@_02JHIA@TZ?$AA@       00465eb4     libcmtd:tzset.obj
 0002:00001ed4       ??_C@_0L@JIE@_freebuf?4c?$AA@ 00465ed4     libcmtd:_freebuf.obj
 0002:00001ee0       ??_C@_0L@EJNO@wtombenv?4c?$AA@ 00465ee0     libcmtd:wtombenv.obj
 0002:00001eec       ??_C@_07FOIK@a_cmp?4c?$AA@ 00465eec     libcmtd:a_cmp.obj
 0002:00001ef4       ??_C@_0DN@PPKB@cchCount1?$DN?$DN0?5?$CG?$CG?5cchCount2?$DN?$DN1?5?$HM?$HM?5@ 00465ef4     libcmtd:a_cmp.obj
 0002:00001f50       ??_C@_08FEIK@setenv?4c?$AA@ 00465f50     libcmtd:setenv.obj
 0002:00001fe8       __real@8@4012f424000000000000 00465fe8     v5subs:machine.obj
 0002:00001ff0       __real@8@3ffec90ff97247453800 00465ff0     v5subs:part.obj
 0002:00002000       __real@8@4000a010624dd2f1a800 00466000     v5subs:asensor.obj
 0002:00002008       __real@8@4001a0083126e978d800 00466008     v5subs:asensor.obj
 0002:00002010       ??_7FTII_ARRAY_DATA@@6B@   00466010     v5subs:ftii_shot_data.obj
 0002:00002014       ??_7FTII_PROFILE@@6B@      00466014     v5subs:ftii_shot_data.obj
 0002:00002060       __real@8@bfeea7c5ac471b478800 00466060     v5subs:ftoasc.obj
 0002:00002068       __real@8@3feea7c5ac471b478800 00466068     v5subs:ftoasc.obj
 0002:000020d0       __real@8@bff1d1b71758e2196800 004660d0     v5subs:zero.obj
 0002:000020d8       __real@8@3ff1d1b71758e2196800 004660d8     v5subs:zero.obj
 0002:000020e4       ??_7FLOAT_ARRAY_CLASS@@6B@ 004660e4     v5subs:array.obj
 0002:000020ec       ??_7INT32_ARRAY_CLASS@@6B@ 004660ec     v5subs:array.obj
 0002:000020f8       __real@8@400c8a48000000000000 004660f8     v5subs:unitadj.obj
 0002:00002100       __real@8@3ff1ecfa69be09bb6800 00466100     v5subs:unitadj.obj
 0002:00002108       __real@8@40029000000000000000 00466108     v5subs:unitadj.obj
 0002:00002110       __real@8@40048000000000000000 00466110     v5subs:unitadj.obj
 0002:00002118       __real@8@3fff82862f5989df1000 00466118     v5subs:unitadj.obj
 0002:00002120       __real@8@4002e80f9096bb98c800 00466120     v5subs:unitadj.obj
 0002:00002128       __real@8@3ffb8ffd1dcd7060b800 00466128     v5subs:unitadj.obj
 0002:00002130       __real@8@3ffb8d33ed6d5644b000 00466130     v5subs:unitadj.obj
 0002:00002138       __real@8@4002e392a30553261800 00466138     v5subs:unitadj.obj
 0002:00002140       __real@8@3ffefb0c88a47ecfe800 00466140     v5subs:unitadj.obj
 0002:00002148       __real@8@4006c4d9999999999800 00466148     v5subs:unitadj.obj
 0002:00002150       __real@8@3ff8a3d70a3d70a3d800 00466150     v5subs:unitadj.obj
 0002:00002158       __real@8@3ffffbf7ced916872800 00466158     v5subs:unitadj.obj
 0002:00002160       __real@8@3ff7a67620ee8d10f800 00466160     v5subs:unitadj.obj
 0002:00002168       __real@8@3ffe820c49ba5e354000 00466168     v5subs:unitadj.obj
 0002:00002170       __real@8@3ffcccccccccccccd000 00466170     v5subs:unitadj.obj
 0002:00002178       __real@8@3ff9d013a92a30553000 00466178     v5subs:unitadj.obj
 0002:00002180       __real@8@4000a28f5c28f5c29000 00466180     v5subs:unitadj.obj
 0002:00002188       __real@8@40079866666666666800 00466188     v5subs:unitadj.obj
 0002:00002190       __real@8@4003f3d70a3d70a3d800 00466190     v5subs:unitadj.obj
 0002:00002198       __real@8@4002c000000000000000 00466198     v5subs:unitadj.obj
 0002:000021a0       ??_C@_06IJHJ@fcvt?4c?$AA@  004661a0     libcmtd:fcvt.obj
 0002:000021a8       ??_C@_03GAFO@_yn?$AA@      004661a8     libcmtd:fpexcept.obj
 0002:000021ac       ??_C@_03GNLD@_y1?$AA@      004661ac     libcmtd:fpexcept.obj
 0002:000021b0       ??_C@_03MHCE@_y0?$AA@      004661b0     libcmtd:fpexcept.obj
 0002:000021b4       ??_C@_05PAK@frexp?$AA@     004661b4     libcmtd:fpexcept.obj
 0002:000021bc       ??_C@_04JKCH@fmod?$AA@     004661bc     libcmtd:fpexcept.obj
 0002:000021c4       ??_C@_06GGHF@_hypot?$AA@   004661c4     libcmtd:fpexcept.obj
 0002:000021cc       ??_C@_05JNMC@_cabs?$AA@    004661cc     libcmtd:fpexcept.obj
 0002:000021d4       ??_C@_05MEKH@ldexp?$AA@    004661d4     libcmtd:fpexcept.obj
 0002:000021dc       ??_C@_04KAOJ@modf?$AA@     004661dc     libcmtd:fpexcept.obj
 0002:000021e4       ??_C@_04EHAJ@fabs?$AA@     004661e4     libcmtd:fpexcept.obj
 0002:000021ec       ??_C@_05MFBN@floor?$AA@    004661ec     libcmtd:fpexcept.obj
 0002:000021f4       ??_C@_04JJMP@ceil?$AA@     004661f4     libcmtd:fpexcept.obj
 0002:000021fc       ??_C@_03JLPI@tan?$AA@      004661fc     libcmtd:fpexcept.obj
 0002:00002200       ??_C@_03DLFL@cos?$AA@      00466200     libcmtd:fpexcept.obj
 0002:00002204       ??_C@_03JAMN@sin?$AA@      00466204     libcmtd:fpexcept.obj
 0002:00002208       ??_C@_04LMBE@sqrt?$AA@     00466208     libcmtd:fpexcept.obj
 0002:00002210       ??_C@_05BFPO@atan2?$AA@    00466210     libcmtd:fpexcept.obj
 0002:00002218       ??_C@_04EAGN@atan?$AA@     00466218     libcmtd:fpexcept.obj
 0002:00002220       ??_C@_04OAMO@acos?$AA@     00466220     libcmtd:fpexcept.obj
 0002:00002228       ??_C@_04ELFI@asin?$AA@     00466228     libcmtd:fpexcept.obj
 0002:00002230       ??_C@_04LFAD@tanh?$AA@     00466230     libcmtd:fpexcept.obj
 0002:00002238       ??_C@_04PFKD@cosh?$AA@     00466238     libcmtd:fpexcept.obj
 0002:00002240       ??_C@_04NPAI@sinh?$AA@     00466240     libcmtd:fpexcept.obj
 0002:00002248       ??_C@_05IJHH@log10?$AA@    00466248     libcmtd:fpexcept.obj
 0002:00002250       ??_C@_03BGKD@log?$AA@      00466250     libcmtd:fpexcept.obj
 0002:00002254       ??_C@_03EGFG@pow?$AA@      00466254     libcmtd:fpexcept.obj
 0002:00002258       ??_C@_03CDGJ@exp?$AA@      00466258     libcmtd:fpexcept.obj
 0002:0000225c       __IMPORT_DESCRIPTOR_KERNEL32 0046625c     kernel32:KERNEL32.dll
 0002:00002270       __IMPORT_DESCRIPTOR_USER32 00466270     user32:USER32.dll
 0002:00002284       __IMPORT_DESCRIPTOR_GDI32  00466284     gdi32:GDI32.dll
 0002:00002298       __IMPORT_DESCRIPTOR_COMCTL32 00466298     comctl32:COMCTL32.dll
 0002:000022ac       __IMPORT_DESCRIPTOR_SHELL32 004662ac     shell32:SHELL32.dll
 0002:000022c0       __IMPORT_DESCRIPTOR_WSOCK32 004662c0     wsock32:WSOCK32.dll
 0002:000022d4       __IMPORT_DESCRIPTOR_comdlg32 004662d4     comdlg32:comdlg32.dll
 0002:000022e8       __NULL_IMPORT_DESCRIPTOR   004662e8     kernel32:KERNEL32.dll
 0003:00000000       ___xc_a                    00468000     libcmtd:crt0init.obj
 0003:000001a0       ___xc_z                    004681a0     libcmtd:crt0init.obj
 0003:000001a4       ___xi_a                    004681a4     libcmtd:crt0init.obj
 0003:000001b4       ___xi_z                    004681b4     libcmtd:crt0init.obj
 0003:000001b8       ___xp_a                    004681b8     libcmtd:crt0init.obj
 0003:000001c0       ___xp_z                    004681c0     libcmtd:crt0init.obj
 0003:000001c4       ___xt_a                    004681c4     libcmtd:crt0init.obj
 0003:000001c8       ___xt_z                    004681c8     libcmtd:crt0init.obj
 0003:000001ec       ?AChar@@3GA                004681ec     ft2.obj
 0003:000001ee       ?BChar@@3GA                004681ee     ft2.obj
 0003:000001f0       ?CChar@@3GA                004681f0     ft2.obj
 0003:000001f2       ?DChar@@3GA                004681f2     ft2.obj
 0003:000001f4       ?EChar@@3GA                004681f4     ft2.obj
 0003:000001f6       ?FChar@@3GA                004681f6     ft2.obj
 0003:000001f8       ?GChar@@3GA                004681f8     ft2.obj
 0003:000001fa       ?HChar@@3GA                004681fa     ft2.obj
 0003:000001fc       ?IChar@@3GA                004681fc     ft2.obj
 0003:000001fe       ?JChar@@3GA                004681fe     ft2.obj
 0003:00000200       ?KChar@@3GA                00468200     ft2.obj
 0003:00000202       ?LChar@@3GA                00468202     ft2.obj
 0003:00000204       ?MChar@@3GA                00468204     ft2.obj
 0003:00000206       ?NChar@@3GA                00468206     ft2.obj
 0003:00000208       ?OChar@@3GA                00468208     ft2.obj
 0003:0000020a       ?PChar@@3GA                0046820a     ft2.obj
 0003:0000020c       ?QChar@@3GA                0046820c     ft2.obj
 0003:0000020e       ?RChar@@3GA                0046820e     ft2.obj
 0003:00000210       ?SChar@@3GA                00468210     ft2.obj
 0003:00000212       ?TChar@@3GA                00468212     ft2.obj
 0003:00000214       ?UChar@@3GA                00468214     ft2.obj
 0003:00000216       ?VChar@@3GA                00468216     ft2.obj
 0003:00000218       ?WChar@@3GA                00468218     ft2.obj
 0003:0000021a       ?XChar@@3GA                0046821a     ft2.obj
 0003:0000021c       ?YChar@@3GA                0046821c     ft2.obj
 0003:0000021e       ?ZChar@@3GA                0046821e     ft2.obj
 0003:00000220       ?ACharLow@@3GA             00468220     ft2.obj
 0003:00000222       ?BCharLow@@3GA             00468222     ft2.obj
 0003:00000224       ?CCharLow@@3GA             00468224     ft2.obj
 0003:00000226       ?DCharLow@@3GA             00468226     ft2.obj
 0003:00000228       ?ECharLow@@3GA             00468228     ft2.obj
 0003:0000022a       ?FCharLow@@3GA             0046822a     ft2.obj
 0003:0000022c       ?GCharLow@@3GA             0046822c     ft2.obj
 0003:0000022e       ?HCharLow@@3GA             0046822e     ft2.obj
 0003:00000230       ?ICharLow@@3GA             00468230     ft2.obj
 0003:00000232       ?JCharLow@@3GA             00468232     ft2.obj
 0003:00000234       ?KCharLow@@3GA             00468234     ft2.obj
 0003:00000236       ?LCharLow@@3GA             00468236     ft2.obj
 0003:00000238       ?MCharLow@@3GA             00468238     ft2.obj
 0003:0000023a       ?NCharLow@@3GA             0046823a     ft2.obj
 0003:0000023c       ?OCharLow@@3GA             0046823c     ft2.obj
 0003:0000023e       ?PCharLow@@3GA             0046823e     ft2.obj
 0003:00000240       ?QCharLow@@3GA             00468240     ft2.obj
 0003:00000242       ?RCharLow@@3GA             00468242     ft2.obj
 0003:00000244       ?SCharLow@@3GA             00468244     ft2.obj
 0003:00000246       ?TCharLow@@3GA             00468246     ft2.obj
 0003:00000248       ?UCharLow@@3GA             00468248     ft2.obj
 0003:0000024a       ?VCharLow@@3GA             0046824a     ft2.obj
 0003:0000024c       ?WCharLow@@3GA             0046824c     ft2.obj
 0003:0000024e       ?XCharLow@@3GA             0046824e     ft2.obj
 0003:00000250       ?YCharLow@@3GA             00468250     ft2.obj
 0003:00000252       ?ZCharLow@@3GA             00468252     ft2.obj
 0003:00000254       ?AsterixChar@@3GA          00468254     ft2.obj
 0003:00000256       ?BackSlashChar@@3GA        00468256     ft2.obj
 0003:00000258       ?ColonChar@@3GA            00468258     ft2.obj
 0003:0000025a       ?CommaChar@@3GA            0046825a     ft2.obj
 0003:0000025c       ?CrChar@@3GA               0046825c     ft2.obj
 0003:0000025e       ?DoubleQuoteChar@@3GA      0046825e     ft2.obj
 0003:00000260       ?EqualsChar@@3GA           00468260     ft2.obj
 0003:00000262       ?EtxChar@@3GA              00468262     ft2.obj
 0003:00000264       ?ForwardSlashChar@@3GA     00468264     ft2.obj
 0003:00000266       ?LeftBracketChar@@3GA      00468266     ft2.obj
 0003:00000268       ?LeftCurlyBracket@@3GA     00468268     ft2.obj
 0003:0000026a       ?LfChar@@3GA               0046826a     ft2.obj
 0003:0000026c       ?MinusChar@@3GA            0046826c     ft2.obj
 0003:0000026e       ?PercentChar@@3GA          0046826e     ft2.obj
 0003:00000270       ?PeriodChar@@3GA           00468270     ft2.obj
 0003:00000272       ?PlusChar@@3GA             00468272     ft2.obj
 0003:00000274       ?PoundChar@@3GA            00468274     ft2.obj
 0003:00000276       ?QuoteChar@@3GA            00468276     ft2.obj
 0003:00000278       ?RightBracketChar@@3GA     00468278     ft2.obj
 0003:0000027a       ?RightCurlyBracket@@3GA    0046827a     ft2.obj
 0003:0000027c       ?SemiColonChar@@3GA        0046827c     ft2.obj
 0003:0000027e       ?SpaceChar@@3GA            0046827e     ft2.obj
 0003:00000280       ?TabChar@@3GA              00468280     ft2.obj
 0003:00000282       ?TildaChar@@3GA            00468282     ft2.obj
 0003:00000284       ?UnderScoreChar@@3GA       00468284     ft2.obj
 0003:00000286       ?ZeroChar@@3GA             00468286     ft2.obj
 0003:00000288       ?OneChar@@3GA              00468288     ft2.obj
 0003:0000028a       ?TwoChar@@3GA              0046828a     ft2.obj
 0003:0000028c       ?ThreeChar@@3GA            0046828c     ft2.obj
 0003:0000028e       ?FourChar@@3GA             0046828e     ft2.obj
 0003:00000290       ?FiveChar@@3GA             00468290     ft2.obj
 0003:00000292       ?SixChar@@3GA              00468292     ft2.obj
 0003:00000294       ?SevenChar@@3GA            00468294     ft2.obj
 0003:00000296       ?StxChar@@3GA              00468296     ft2.obj
 0003:00000298       ?EightChar@@3GA            00468298     ft2.obj
 0003:0000029a       ?NineChar@@3GA             0046829a     ft2.obj
 0003:0000029c       ?AsterixString@@3PAGA      0046829c     ft2.obj
 0003:000002a0       ?CommaString@@3PAGA        004682a0     ft2.obj
 0003:000002a4       ?CrLfString@@3PAGA         004682a4     ft2.obj
 0003:000002ac       ?SpaceString@@3PAGA        004682ac     ft2.obj
 0003:000002b0       ?StarDotStar@@3PAGA        004682b0     ft2.obj
 0003:000002b8       ?NofRows@@3HA              004682b8     ft2.obj
 0003:000002bc       ?Char_Width@@3HA           004682bc     ft2.obj
 0003:000002c0       ?Line_Height@@3HA          004682c0     ft2.obj
 0003:000002c4       ?CurrentBoardIndex@@3HA    004682c4     ft2.obj
 0003:000002c8       ?RetractWireMask@@3IA      004682c8     ft2.obj
 0003:000002cc       ?NOT_CONNECTED_STATE@@3IA  004682cc     ft2.obj
 0003:000002d0       ?NOT_MONITORED_STATE@@3IA  004682d0     ft2.obj
 0003:000002d4       ?CONNECTING_STATE@@3IA     004682d4     ft2.obj
 0003:000002d8       ?CONNECTED_STATE@@3IA      004682d8     ft2.obj
 0003:000002dc       ?ZERO_STROKE_LENGTH_STATE@@3IA 004682dc     ft2.obj
 0003:000002e0       ?UPLOAD_WAS_ABORTED_STATE@@3IA 004682e0     ft2.obj
 0003:000002e4       ?HistoryShotCount@@3HA     004682e4     ft2.obj
 0003:000002e8       ?ConfigSection@@3PAGA      004682e8     ft2.obj
 0003:000002f8       ?CurrentValuesSection@@3PAGA 004682f8     ft2.obj
 0003:00000314       ?CommonResourceFile@@3PAGA 00468314     ft2.obj
 0003:00000324       ?DisplayIniFile@@3PAGA     00468324     ft2.obj
 0003:0000033c       ?FtiiIniFile@@3PAGA        0046833c     ft2.obj
 0003:00000350       ?MonallIniFile@@3PAGA      00468350     ft2.obj
 0003:00000368       ?MyMenuFile@@3PAGA         00468368     ft2.obj
 0003:00000378       ?MyResourceFile@@3PAGA     00468378     ft2.obj
 0003:00000380       ?SureTrakIniFile@@3PAGA    00468380     ft2.obj
 0003:0000039c       ?TerminalMenuFile@@3PAGA   0046839c     ft2.obj
 0003:000003bc       ?VisiTrakIniFile@@3PAGA    004683bc     ft2.obj
 0003:000003d8       ?AlsLogFile@@3PAGA         004683d8     ft2.obj
 0003:00000400       ?AlsLogIsActiveKey@@3PAGA  00468400     ft2.obj
 0003:00000410       ?ClearAlarmsEachShotKey@@3PAGA 00468410     ft2.obj
 0003:00000438       ?ClearDownWireFromPopupKey@@3PAGA 00468438     ft2.obj
 0003:00000468       ?ClearMonitorWireOnDownKey@@3PAGA 00468468     ft2.obj
 0003:00000498       ?CurrentChannelModeKey@@3PAGA 00468498     ft2.obj
 0003:000004c0       ?CurrentLanguageKey@@3PAGA 004684c0     ft2.obj
 0003:000004e0       ?DownTimeAlarmWireKey@@3PAGA 004684e0     ft2.obj
 0003:00000504       ?ExitEnableLevelKey@@3PAGA 00468504     ft2.obj
 0003:00000524       ?FlashVersionKey@@3PAGA    00468524     ft2.obj
 0003:00000540       ?HavePressureControlKey@@3PAGA 00468540     ft2.obj
 0003:00000568       ?HaveSureTrakKey@@3PAGA    00468568     ft2.obj
 0003:00000584       ?IsHiresSensorKey@@3PAGA   00468584     ft2.obj
 0003:000005a0       ?LogSentCommandsKey@@3PAGA 004685a0     ft2.obj
 0003:000005c0       ?LastNKey@@3PAGA           004685c0     ft2.obj
 0003:000005cc       ?MonitorWireKey@@3PAGA     004685cc     ft2.obj
 0003:000005e4       ?NoUploadWireKey@@3PAGA    004685e4     ft2.obj
 0003:00000600       ?RetractWireKey@@3PAGA     00468600     ft2.obj
 0003:00000618       ?SaveAllAlarmShotsKey@@3PAGA 00468618     ft2.obj
 0003:0000063c       ?SavepartExeName@@3PAGA    0046863c     ft2.obj
 0003:00000658       ?SentCommandsLogFile@@3PAGA 00468658     ft2.obj
 0003:00000694       ?ServiceToolsGrayLevelKey@@3PAGA 00468694     ft2.obj
 0003:000006c0       ?SubtractTimeoutKey@@3PAGA 004686c0     ft2.obj
 0003:000006e0       ?TurnOffAlarmsOnDownKey@@3PAGA 004686e0     ft2.obj
 0003:00000708       ?UploadRetractTimeoutKey@@3PAGA 00468708     ft2.obj
 0003:00000734       ?UploadStartShotTimeoutKey@@3PAGA 00468734     ft2.obj
 0003:00000764       ?UseNullValveOutputKey@@3PAGA 00468764     ft2.obj
 0003:0000078c       ?UseValveTestOutputKey@@3PAGA 0046878c     ft2.obj
 0003:000007b4       ?StartControlPgmCmd@@3PAGA 004687b4     ft2.obj
 0003:000007bc       ?EnableShotXmitCmd@@3PAGA  004687bc     ft2.obj
 0003:000007c8       ?DisableShotXmitCmd@@3PAGA 004687c8     ft2.obj
 0003:000007d4       ?ShotXmitCmdLen@@3HA       004687d4     ft2.obj
 0003:000007d8       ?START_OF_UPLOAD@@3PAGA    004687d8     ft2.obj
 0003:000007f8       ?END_OF_UPLOAD@@3PAGA      004687f8     ft2.obj
 0003:00000814       ?RESET_MACHINE_CMD@@3PAGA  00468814     ft2.obj
 0003:00000830       ?CLEAR_NO_UPLOAD_FLAG_CMD@@3PAGA 00468830     ft2.obj
 0003:0000085c       ?DONT_SEND_OP_DATA_PACKETS@@3PAGA 0046885c     ft2.obj
 0003:00000868       ?SEND_OP_DATA_PACKETS@@3PAGA 00468868     ft2.obj
 0003:00000874       ?CLEAR_CONTROL_FILE_DATE_CMD@@3PAGA 00468874     ft2.obj
 0003:00000884       ?NormalCellColor@@3KA      00468884     ft2.obj
 0003:00000888       ?GreenColor@@3KA           00468888     ft2.obj
 0003:0000088c       ?OrangeColor@@3KA          0046888c     ft2.obj
 0003:00000890       ?RedColor@@3KA             00468890     ft2.obj
 0003:00000894       ?CurrentOpStatusIsEmpty@@3_NA 00468894     ft2.obj
 0003:00000898       ?NofItems@@3HA             00468898     ft2.obj
 0003:000008a0       ?ItemList@@3PAUITEM_ENTRY@@A 004688a0     ft2.obj
 0003:00000cd8       ?MyClassName@@3PAGA        00468cd8     ft2.obj
 0003:00000cec       ?TerminalClassName@@3PAGA  00468cec     ft2.obj
 0003:00000d04       ?StatusClassName@@3PAGA    00468d04     ft2.obj
 0003:00000d18       ?AccelName@@3PAGA          00468d18     ft2.obj
 0003:00000f48       ?Button@@3PAURESOURCE_TEXT_ENTRY@@A 00468f48     ft2.obj
 0003:00003bfc       ??_C@_0CH@IIOE@C?3?2PROGRA?$HO1?2msc6?2VC98?2INCLUDE?2cr@ 0046bbfc     ft2.obj
 0003:00003c24       ??_C@_1DC@CJDO@?$AAf?$AAt?$AAi?$AAi?$AA_?$AAg?$AAl?$AAo?$AAb?$AAa?$AAl?$AA_?$AAs?$AAe?$AAt?$AAt?$AAi?$AAn?$AAg?$AAs@ 0046bc24     ft2.obj
 0003:00003c58       ??_C@_1DE@CGPA@?$AAf?$AAt?$AAi?$AAi?$AA_?$AAm?$AAa?$AAc?$AAh?$AAi?$AAn?$AAe?$AA_?$AAs?$AAe?$AAt?$AAt?$AAi?$AAn?$AAg@ 0046bc58     ft2.obj
 0003:00003c8c       ??_C@_1CE@BLKJ@?$AAm?$AAa?$AAc?$AAh?$AAi?$AAn?$AAe?$AA_?$AAs?$AAe?$AAt?$AAu?$AAp?$AA?4?$AAc?$AAs?$AAv?$AA?$AA@ 0046bc8c     ft2.obj
 0003:00003cb0       ??_C@_1DC@JALC@?$AAf?$AAt?$AAi?$AAi?$AA_?$AAe?$AAd?$AAi?$AAt?$AAo?$AAr?$AA_?$AAs?$AAe?$AAt?$AAt?$AAi?$AAn?$AAg?$AAs@ 0046bcb0     ft2.obj
 0003:00003ce4       ??_C@_1DC@ODPJ@?$AAf?$AAt?$AAi?$AAi?$AA_?$AAc?$AAt?$AAr?$AAl?$AA_?$AAp?$AAr?$AAo?$AAg?$AA_?$AAs?$AAt?$AAe?$AAp?$AAs@ 0046bce4     ft2.obj
 0003:00003d18       ??_C@_1BI@PBFB@?$AAV?$AAA?$AAL?$AAR?$AAE?$AAS?$AAP?$AA?4?$AAS?$AAA?$AAV?$AA?$AA@ 0046bd18     ft2.obj
 0003:00003d30       ??_C@_1CA@HCOL@?$AAF?$AAt?$AAi?$AAi?$AA_?$AAb?$AAo?$AAa?$AAr?$AAd?$AAs?$AA?4?$AAt?$AAx?$AAt?$AA?$AA@ 0046bd30     ft2.obj
 0003:0000424c       ??_C@_15BEJJ@?$AA?9?$AA1?$AA?$AA@ 0046c24c     board_monitor.obj
 0003:00004254       ??_C@_1CO@OFMM@?$AAf?$AAt?$AAi?$AAi?$AA_?$AAp?$AAa?$AAr?$AAt?$AA_?$AAs?$AAe?$AAt?$AAt?$AAi?$AAn?$AAg?$AAs?$AA?4?$AAt@ 0046c254     board_monitor.obj
 0003:00004284       ??_C@_1BK@OFMN@?$AAA?$AAL?$AAA?$AAR?$AAM?$AAS?$AAU?$AAM?$AA?4?$AAT?$AAX?$AAT?$AA?$AA@ 0046c284     board_monitor.obj
 0003:000042a0       ??_C@_1BK@BCIL@?$AAG?$AAR?$AAA?$AAP?$AAH?$AAL?$AAS?$AAT?$AA?4?$AAT?$AAX?$AAT?$AA?$AA@ 0046c2a0     board_monitor.obj
 0003:000042bc       ??_C@_1BK@HLH@?$AAS?$AAH?$AAO?$AAT?$AAP?$AAA?$AAR?$AAM?$AA?4?$AAT?$AAX?$AAT?$AA?$AA@ 0046c2bc     board_monitor.obj
 0003:00004ae4       ??_C@_19BGBP@?$AA?4?$AAP?$AAR?$AA2?$AA?$AA@ 0046cae4     shotsave.obj
 0003:00004af0       ??_C@_1CA@KBBH@?$AAu?$AAp?$AAl?$AAo?$AAa?$AAd?$AA_?$AAc?$AAo?$AAp?$AAy?$AA?4?$AAt?$AAx?$AAt?$AA?$AA@ 0046caf0     upload_copy_class.obj
 0003:00004b10       __fltused                  0046cb10     libcmtd:fpinit.obj
 0003:00004b14       __ldused                   0046cb14     libcmtd:fpinit.obj
 0003:00004b18       __FPinit                   0046cb18     libcmtd:fpinit.obj
 0003:00004b1c       __FPmtinit                 0046cb1c     libcmtd:fpinit.obj
 0003:00004b20       __FPmtterm                 0046cb20     libcmtd:fpinit.obj
 0003:00004b30       __crtDbgFlag               0046cb30     libcmtd:dbgheap.obj
 0003:00004b38       __crtBreakAlloc            0046cb38     libcmtd:dbgheap.obj
 0003:00004b60       __aexit_rtn                0046cb60     libcmtd:wincrt0.obj
 0003:00004b64       ___app_type                0046cb64     libcmtd:wincrt0.obj
 0003:00004b68       __locktable                0046cb68     libcmtd:mlock.obj
 0003:00004c28       __crtAssertBusy            0046cc28     libcmtd:dbgrpt.obj
 0003:00004c2c       __CrtDbgMode               0046cc2c     libcmtd:dbgrpt.obj
 0003:00004c38       __CrtDbgFile               0046cc38     libcmtd:dbgrpt.obj
 0003:00004c50       __cfltcvt_tab              0046cc50     libcmtd:cmiscdat.obj
 0003:00004c68       __NLG_Destination          0046cc68     libcmtd:exsup.obj
 0003:00004c80       __pfnAllocHook             0046cc80     libcmtd:dbghook.obj
 0003:00004c88       ___old_small_block_heap    0046cc88     libcmtd:sbheap.obj
 0003:00006cac       ___old_sbh_threshold       0046ecac     libcmtd:sbheap.obj
 0003:00006cb0       __amblksiz                 0046ecb0     libcmtd:heapinit.obj
 0003:00006cb4       __pctype                   0046ecb4     libcmtd:ctype.obj
 0003:00006cb8       __pwctype                  0046ecb8     libcmtd:ctype.obj
 0003:00006cbc       __ctype                    0046ecbc     libcmtd:ctype.obj
 0003:00006ec0       ___mb_cur_max              0046eec0     libcmtd:nlsdata1.obj
 0003:00006ec4       ___decimal_point           0046eec4     libcmtd:nlsdata1.obj
 0003:00006ec8       ___decimal_point_length    0046eec8     libcmtd:nlsdata1.obj
 0003:00007038       ___tlsindex                0046f038     libcmtd:tidtable.obj
 0003:00007040       __XcptActTab               0046f040     libcmtd:winxfltr.obj
 0003:000070b8       __First_FPE_Indx           0046f0b8     libcmtd:winxfltr.obj
 0003:000070bc       __Num_FPE                  0046f0bc     libcmtd:winxfltr.obj
 0003:000070c0       __XcptActTabSize           0046f0c0     libcmtd:winxfltr.obj
 0003:000070c4       __XcptActTabCount          0046f0c4     libcmtd:winxfltr.obj
 0003:000070c8       ___badioinfo               0046f0c8     libcmtd:ioinit.obj
 0003:000071b0       ___nullstring              0046f1b0     libcmtd:output.obj
 0003:000071b4       ___wnullstring             0046f1b4     libcmtd:output.obj
 0003:000073c0       ___lc_category             0046f3c0     libcmtd:setlocal.obj
 0003:00007408       __iob                      0046f408     libcmtd:_file.obj
 0003:00007690       ___rgLocInfo               0046f690     libcmtd:getqloc.obj
 0003:00007b34       ___rglangidNotDefault      0046fb34     libcmtd:getqloc.obj
 0003:00007b48       ___rg_country              0046fb48     libcmtd:getqloc.obj
 0003:00007c00       ___rg_language             0046fc00     libcmtd:getqloc.obj
 0003:00007e08       ___lc_time_curr            0046fe08     libcmtd:strftime.obj
 0003:00007e10       ___lc_time_c               0046fe10     libcmtd:strftime.obj
 0003:00007ec0       ___lconv_static_decimal    0046fec0     libcmtd:lconv.obj
 0003:00007ec8       ___lconv_c                 0046fec8     libcmtd:lconv.obj
 0003:00007ef8       ___lconv                   0046fef8     libcmtd:lconv.obj
 0003:00007f00       __pow10pos                 0046ff00     libcmtd:constpow.obj
 0003:00008060       __pow10neg                 00470060     libcmtd:constpow.obj
 0003:000081bc       __timezone                 004701bc     libcmtd:timeset.obj
 0003:000081c0       __daylight                 004701c0     libcmtd:timeset.obj
 0003:000081c4       __dstbias                  004701c4     libcmtd:timeset.obj
 0003:00008248       __tzname                   00470248     libcmtd:timeset.obj
 0003:00008270       __lpdays                   00470270     libcmtd:days.obj
 0003:000082a4       __days                     004702a4     libcmtd:days.obj
 0003:00008988       ??_C@_1DC@KPAA@?$AAd?$AAe?$AAf?$AAa?$AAu?$AAl?$AAt?$AA_?$AAh?$AAm?$AAi?$AA_?$AAs?$AAe?$AAt?$AAt?$AAi?$AAn?$AAg?$AAs@ 00470988     v5subs:machine.obj
 0003:000089bc       ??_C@_1BE@MOLB@?$AAD?$AAS?$AAT?$AAA?$AAT?$AA?4?$AAT?$AAX?$AAT?$AA?$AA@ 004709bc     v5subs:machine.obj
 0003:000089d0       ??_C@_1BK@IFKN@?$AAS?$AAE?$AAM?$AAA?$AAP?$AAH?$AAO?$AAR?$AA?4?$AAT?$AAX?$AAT?$AA?$AA@ 004709d0     v5subs:machine.obj
 0003:00009034       ??_C@_1BO@DFJO@?$AAp?$AAa?$AAr?$AAt?$AA_?$AAs?$AAe?$AAt?$AAu?$AAp?$AA?4?$AAc?$AAs?$AAv?$AA?$AA@ 00471034     v5subs:part.obj
 0003:00009054       ??_C@_1BI@MGFL@?$AAP?$AAS?$AAE?$AAN?$AAS?$AAO?$AAR?$AA?4?$AAT?$AAX?$AAT?$AA?$AA@ 00471054     v5subs:part.obj
 0003:0000906c       ??_C@_1BG@JO@?$AAF?$AAT?$AAC?$AAH?$AAA?$AAN?$AA?4?$AAT?$AAX?$AAT?$AA?$AA@ 0047106c     v5subs:part.obj
 0003:00009084       ??_C@_1CI@OGOO@?$AAg?$AAo?$AAo?$AAd?$AA_?$AAs?$AAh?$AAo?$AAt?$AA_?$AAs?$AAe?$AAt?$AAu?$AAp?$AA?4?$AAc?$AAs?$AAv?$AA?$AA@ 00471084     v5subs:part.obj
 0003:000094f8       ??_C@_1BK@NNA@?$AAD?$AAO?$AAW?$AAN?$AAT?$AAI?$AAM?$AAE?$AA?4?$AAT?$AAX?$AAT?$AA?$AA@ 004714f8     v5subs:autoback.obj
 0003:00009514       ??_C@_1BA@EPBA@?$AAC?$AAU?$AAR?$AAR?$AAE?$AAN?$AAT?$AA?$AA@ 00471514     v5subs:autoback.obj
 0003:00009524       ??_C@_19GIHI@?$AA?4?$AAM?$AAA?$AAS?$AA?$AA@ 00471524     v5subs:autoback.obj
 0003:00009530       ??_C@_19PNBB@?$AA?4?$AAM?$AAA?$AA2?$AA?$AA@ 00471530     v5subs:autoback.obj
 0003:00009ac4       ??_C@_1BG@ICFB@?$AAS?$AAT?$AAP?$AAR?$AAE?$AAS?$AA?4?$AAD?$AAA?$AAT?$AA?$AA@ 00471ac4     v5subs:stpres.obj
 0003:00009ba0       ??_C@_1CM@JJE@?$AAl?$AAi?$AAm?$AAi?$AAt?$AA_?$AAs?$AAw?$AAi?$AAt?$AAc?$AAh?$AA_?$AAd?$AAe?$AAs?$AAc?$AA?4?$AAd?$AAa@ 00471ba0     v5subs:limit_switch_class.obj
 0003:00009bcc       ??_C@_1CK@DPKH@?$AAl?$AAi?$AAm?$AAi?$AAt?$AA_?$AAs?$AAw?$AAi?$AAt?$AAc?$AAh?$AA_?$AAp?$AAo?$AAs?$AA?4?$AAd?$AAa?$AAt@ 00471bcc     v5subs:limit_switch_class.obj
 0003:00009db8       ??_C@_1BI@BEIH@?$AAS?$AAT?$AAP?$AAA?$AAR?$AAA?$AAM?$AA?4?$AAD?$AAA?$AAT?$AA?$AA@ 00471db8     v5subs:stparam.obj
 0003:00009e30       ??_C@_1BK@MAHA@?$AAP?$AAA?$AAR?$AAM?$AAL?$AAI?$AAS?$AAT?$AA?4?$AAT?$AAX?$AAT?$AA?$AA@ 00471e30     v5subs:param.obj
 0003:00009ff0       ?FileTimeoutError@@3PAGA   00471ff0     v5subs:dbsubs.obj
 0003:0000a014       ?FileNotFoundError@@3PAGA  00472014     v5subs:dbsubs.obj
 0003:0000a034       ?PathNotFoundError@@3PAGA  00472034     v5subs:dbsubs.obj
 0003:0000a058       ?SecurityAttributes@@3U_SECURITY_ATTRIBUTES@@A 00472058     v5subs:dbsubs.obj
 0003:0000a208       ??_C@_1BI@CAP@?$AAR?$AAU?$AAN?$AAL?$AAI?$AAS?$AAT?$AA?4?$AAC?$AAS?$AAV?$AA?$AA@ 00472208     v5subs:runlist.obj
 0003:0000a348       ??_C@_1BG@DJJN@?$AAF?$AAT?$AAC?$AAA?$AAL?$AAC?$AA?4?$AAC?$AAS?$AAV?$AA?$AA@ 00472348     v5subs:ftcalc.obj
 0003:0000a368       ??_C@_1BK@LAP@?$AAF?$AAT?$AAA?$AAN?$AAA?$AAL?$AAO?$AAG?$AA?4?$AAT?$AAX?$AAT?$AA?$AA@ 00472368     v5subs:ftanalog.obj
 0003:0000a384       ??_C@_1BK@GONF@?$AAF?$AAT?$AAA?$AAN?$AAA?$AAL?$AAO?$AAG?$AA?4?$AAC?$AAS?$AAV?$AA?$AA@ 00472384     v5subs:ftanalog.obj
 0003:0000a404       ??_C@_1BI@HAJC@?$AAp?$AAl?$AAo?$AAo?$AAk?$AAu?$AAp?$AA?4?$AAc?$AAs?$AAv?$AA?$AA@ 00472404     v5subs:plookup.obj
 0003:0000a670       __d_inf                    00472670     libcmtd:util.obj
 0003:0000a678       __d_ind                    00472678     libcmtd:util.obj
 0003:0000a680       __d_max                    00472680     libcmtd:util.obj
 0003:0000a688       __d_min                    00472688     libcmtd:util.obj
 0003:0000a690       __d_mzero                  00472690     libcmtd:util.obj
 0003:0000a6b0       __HUGE                     004726b0     libcmtd:huge.obj
 0003:0000a6b8       __matherr_flag             004726b8     libcmtd:matherr.obj
 0003:0000a6d0       ?ValveTestDialog@@3VWINDOW_CLASS@@A 004726d0     ft2.obj
 0003:0000a738       ?OriEditControlProc@@3P6GJPAUHWND__@@IIJ@ZA 00472738     ft2.obj
 0003:0000a740       ?NotConnected@@3VSTRING_CLASS@@A 00472740     ft2.obj
 0003:0000a748       ?MainWindowMoveRect@@3VRECTANGLE_CLASS@@A 00472748     ft2.obj
 0003:0000a760       ?TerminalWindow@@3VWINDOW_CLASS@@A 00472760     ft2.obj
 0003:0000a788       ?MainListBox@@3VLISTBOX_CLASS@@A 00472788     ft2.obj
 0003:0000a7a0       ?NotMonitored@@3VSTRING_CLASS@@A 004727a0     ft2.obj
 0003:0000a7a8       ?ShutdownStatusListbox@@3VLISTBOX_CLASS@@A 004727a8     ft2.obj
 0003:0000a7d8       ?ManualInfoTbox@@3VWINDOW_CLASS@@A 004727d8     ft2.obj
 0003:0000a7e0       ?AccelHandle@@3PAUHACCEL__@@A 004727e0     ft2.obj
 0003:0000a7e8       ?NoConnectState@@3VSTRING_CLASS@@A 004727e8     ft2.obj
 0003:0000a808       ?CurrentValuesDialog@@3VWINDOW_CLASS@@A 00472808     ft2.obj
 0003:0000a820       ?FtiiAutoNull@@3VFTII_VAR_ARRAY@@A 00472820     ft2.obj
 0003:0000a868       ?UploadFlashDialog@@3VWINDOW_CLASS@@A 00472868     ft2.obj
 0003:0000a950       ?ComputerName@@3VSTRING_CLASS@@A 00472950     ft2.obj
 0003:0000a958       ?CurrentMachine@@3VMACHINE_CLASS@@A 00472958     ft2.obj
 0003:0000aa1c       ?AnalogSensor@@3VANALOG_SENSOR@@A 00472a1c     ft2.obj
 0003:0000aa20       ?InputBitControl@@3PAUBIT_CONTROL@@A 00472a20     ft2.obj
 0003:0000ab00       ?ShutdownStatusDialog@@3VWINDOW_CLASS@@A 00472b00     ft2.obj
 0003:0000ab08       ?MainWindow@@3VWINDOW_CLASS@@A 00472b08     ft2.obj
 0003:0000ab10       ?StatusWindow@@3VWINDOW_CLASS@@A 00472b10     ft2.obj
 0003:0000ab18       ?MyDc@@3PAUHDC__@@A        00472b18     ft2.obj
 0003:0000ab28       ?StepMessage@@3VBLOCK_MESSAGE_CLASS@@A 00472b28     ft2.obj
 0003:0000ab38       ?UploadFailed@@3VSTRING_CLASS@@A 00472b38     ft2.obj
 0003:0000ab40       ?ZeroStrokeLength@@3VSTRING_CLASS@@A 00472b40     ft2.obj
 0003:0000ac78       ?TestAlarmOutputsDialog@@3VWINDOW_CLASS@@A 00472c78     ft2.obj
 0003:0000cbf0       ?MainInstance@@3PAUHINSTANCE__@@A 00474bf0     ft2.obj
 0003:0000cc08       ?StringTable@@3VSTRINGTABLE_CLASS@@A 00474c08     ft2.obj
 0003:0000ccb0       ?UploadAbortedDialog@@3VWINDOW_CLASS@@A 00474cb0     ft2.obj
 0003:0000ccd0       ?Connecting@@3VSTRING_CLASS@@A 00474cd0     ft2.obj
 0003:0000cce8       ?Connected@@3VSTRING_CLASS@@A 00474ce8     ft2.obj
 0003:0000ccf0       ?CurrentWindow@@3VWINDOW_CLASS@@A 00474cf0     ft2.obj
 0003:0000cd00       ?OutputListbox@@3VLISTBOX_CLASS@@A 00474d00     ft2.obj
 0003:0000cd18       ?TerminalMenu@@3VMENU_CONTROL_ENTRY@@A 00474d18     ft2.obj
 0003:0000ce00       ?NoResponse@@3VSTRING_CLASS@@A 00474e00     ft2.obj
 0003:0000ce20       ?ControlModsDialog@@3VWINDOW_CLASS@@A 00474e20     ft2.obj
 0003:0000ce28       ?CurrentMachineVars@@3VFTII_VAR_ARRAY@@A 00474e28     ft2.obj
 0003:0000ce50       ?CurrentOpStatus@@3UFTII_OP_STATUS_DATA@@A 00474e50     ft2.obj
 0003:0000ee20       ?OutputBitControl@@3PAUBIT_CONTROL@@A 00476e20     ft2.obj
 0003:0000eec8       ?CurrentPart@@3VPART_CLASS@@A 00476ec8     ft2.obj
 0003:0000f000       ?NullStatusMessage@@3VWINDOW_CLASS@@A 00477000     ft2.obj
 0003:0000f010       ?MainMenu@@3VMENU_CONTROL_ENTRY@@A 00477010     ft2.obj
 0003:0000f0f8       ?GlobalParameters@@3VFTII_VAR_ARRAY@@A 004770f8     ft2.obj
 0003:0000f130       ?SetNullDialog@@3VWINDOW_CLASS@@A 00477130     ft2.obj
 0003:0000f138       ?MainWindowClientRect@@3VRECTANGLE_CLASS@@A 00477138     ft2.obj
 0003:0000f150       ?CurrentDacDialog@@3VWINDOW_CLASS@@A 00477150     ft2.obj
 0003:0000f1d8       ?AutoShotDisplayWindow@@3VWINDOW_CLASS@@A 004771d8     ft2.obj
 0003:0000f1e0       ?OutputListDialog@@3VWINDOW_CLASS@@A 004771e0     ft2.obj
 0003:0000f238       ?UploadAbortedList@@3VTEXT_LIST_CLASS@@A 00477238     ft2.obj
 0003:0000f260       ?CompareVariablesDialog@@3VWINDOW_CLASS@@A 00477260     ft2.obj
 0003:00011278       ?MasterPen@@3PAUHPEN__@@A  00479278     ft2.obj
 0003:0001127c       ?BufPtr@@3PAPAUSHOT_BUFFER_ENTRY@@A 0047927c     ft2.obj
 0003:000112d8       ?HiresSensorTestDialog@@3VWINDOW_CLASS@@A 004792d8     ft2.obj
 0003:000112e0       ?GlobalParameterDialog@@3VWINDOW_CLASS@@A 004792e0     ft2.obj
 0003:000112e8       ?SetDacDialog@@3VWINDOW_CLASS@@A 004792e8     ft2.obj
 0003:00012300       ?NullChar@@3GA             0047a300     ft2.obj
 0003:00012304       ?EmptyString@@3PAGA        0047a304     ft2.obj
 0003:00012308       ?MainPushButton@@3PAUCONTROL_INFO@@A 0047a308     ft2.obj
 0003:0001230c       ?AddressTbox@@3PAUCONTROL_INFO@@A 0047a30c     ft2.obj
 0003:00012310       ?ConnectedTbox@@3PAUCONTROL_INFO@@A 0047a310     ft2.obj
 0003:00012314       ?MachineTbox@@3PAUCONTROL_INFO@@A 0047a314     ft2.obj
 0003:00012318       ?PartTbox@@3PAUCONTROL_INFO@@A 0047a318     ft2.obj
 0003:0001231c       ?MonitorStatusTbox@@3PAUCONTROL_INFO@@A 0047a31c     ft2.obj
 0003:00012320       ?MainEbox@@3PAUHWND__@@A   0047a320     ft2.obj
 0003:00012324       ?TerminalIsVisible@@3EA    0047a324     ft2.obj
 0003:00012325       ?BoardMonitorIsRunning@@3_NA 0047a325     ft2.obj
 0003:00012326       ?ShotSaveIsRunning@@3_NA   0047a326     ft2.obj
 0003:00012327       ?ClearAlarmsEachShot@@3EA  0047a327     ft2.obj
 0003:00012328       ?ClearMonitorWireOnDown@@3EA 0047a328     ft2.obj
 0003:00012329       ?ClearDownWireFromPopup@@3EA 0047a329     ft2.obj
 0003:0001232a       ?SaveAllAlarmShots@@3EA    0047a32a     ft2.obj
 0003:0001232b       ?SubtractTimeoutFromAutoDown@@3EA 0047a32b     ft2.obj
 0003:0001232c       ?HasDigitalServoAmp@@3EA   0047a32c     ft2.obj
 0003:0001232d       ?NeedErrorLog@@3EA         0047a32d     ft2.obj
 0003:0001232e       ?IsHiresSensor@@3EA        0047a32e     ft2.obj
 0003:0001232f       ?IsRemoteMonitor@@3EA      0047a32f     ft2.obj
 0003:00012330       ?AlsLogIsActive@@3EA       0047a330     ft2.obj
 0003:00012331       ?LoggingSentCommands@@3EA  0047a331     ft2.obj
 0003:00012332       ?TurnOffAlarmsOnDown@@3EA  0047a332     ft2.obj
 0003:00012334       ?DownTimeAlarmWire@@3HA    0047a334     ft2.obj
 0003:00012338       ?MonitorWire@@3HA          0047a338     ft2.obj
 0003:0001233c       ?NoUploadWire@@3IA         0047a33c     ft2.obj
 0003:00012340       ?NoUploadWireMask@@3IA     0047a340     ft2.obj
 0003:00012344       ?RetractWire@@3IA          0047a344     ft2.obj
 0003:00012348       ?UploadRetractTimeout@@3IA 0047a348     ft2.obj
 0003:0001234c       ?UploadStartShotTimeout@@3IA 0047a34c     ft2.obj
 0003:00012350       ?NO_FT2_CONNECT_STATE@@3IA 0047a350     ft2.obj
 0003:00012354       ?ShutdownState@@3HA        0047a354     ft2.obj
 0003:00012358       ?CurrentAnalogValue@@3PAIA 0047a358     ft2.obj
 0003:000123b8       ?ShotSaveEvent@@3PAXA      0047a3b8     ft2.obj
 0003:000123bc       ?ManualNullInProgress@@3_NA 0047a3bc     ft2.obj
 0003:000123c0       ?Dnu@@3PAPAUHWND__@@A      0047a3c0     ft2.obj
 0003:000126fc       ?Boards@@3PAVFTII_BOARD_ENTRY@@A 0047a6fc     board_monitor.obj
 0003:00012700       ?NofBoards@@3HA            0047a700     board_monitor.obj
 0003:00012790       ?SkipList@@3VGENERIC_LIST_CLASS@@A 0047a790     skip.obj
 0003:000127ac       ___fastflag                0047a7ac     libcmtd:fpinit.obj
 0003:000127b0       __adjust_fdiv              0047a7b0     libcmtd:fpinit.obj
 0003:000127c8       __aenvptr                  0047a7c8     libcmtd:wincrt0.obj
 0003:000127cc       __wenvptr                  0047a7cc     libcmtd:wincrt0.obj
 0003:000127d0       ___error_mode              0047a7d0     libcmtd:wincrt0.obj
 0003:0001283c       __umaskval                 0047a83c     libcmtd:crt0dat.obj
 0003:00012840       __osver                    0047a840     libcmtd:crt0dat.obj
 0003:00012844       __winver                   0047a844     libcmtd:crt0dat.obj
 0003:00012848       __winmajor                 0047a848     libcmtd:crt0dat.obj
 0003:0001284c       __winminor                 0047a84c     libcmtd:crt0dat.obj
 0003:00012850       ___argc                    0047a850     libcmtd:crt0dat.obj
 0003:00012854       ___argv                    0047a854     libcmtd:crt0dat.obj
 0003:00012858       ___wargv                   0047a858     libcmtd:crt0dat.obj
 0003:0001285c       __environ                  0047a85c     libcmtd:crt0dat.obj
 0003:00012860       ___initenv                 0047a860     libcmtd:crt0dat.obj
 0003:00012864       __wenviron                 0047a864     libcmtd:crt0dat.obj
 0003:00012868       ___winitenv                0047a868     libcmtd:crt0dat.obj
 0003:0001286c       __pgmptr                   0047a86c     libcmtd:crt0dat.obj
 0003:00012870       __wpgmptr                  0047a870     libcmtd:crt0dat.obj
 0003:00012874       __exitflag                 0047a874     libcmtd:crt0dat.obj
 0003:00012878       __C_Termination_Done       0047a878     libcmtd:crt0dat.obj
 0003:0001287c       __C_Exit_Done              0047a87c     libcmtd:crt0dat.obj
 0003:00012884       __newmode                  0047a884     libcmtd:_newmode.obj
 0003:00012888       ?_pnhHeap@@3P6AHI@ZA       0047a888     libcmtd:handler.obj
 0003:00012998       __adbgmsg                  0047a998     libcmtd:crt0msg.obj
 0003:000129d0       ___lc_handle               0047a9d0     libcmtd:nlsdata2.obj
 0003:000129e8       ___lc_codepage             0047a9e8     libcmtd:nlsdata2.obj
 0003:000129ec       ___lc_collate_cp           0047a9ec     libcmtd:nlsdata2.obj
 0003:000129f4       __cflush                   0047a9f4     libcmtd:_file.obj
 0003:000129f8       ___lc_time_intl            0047a9f8     libcmtd:inittime.obj
 0003:00012a14       ___lc_id                   0047aa14     libcmtd:nlsdata3.obj
 0003:00012a64       ___lconv_static_null       0047aa64     libcmtd:lconv.obj
 0003:00012b50       ?emptystring@STRING_CLASS@@0PAGA 0047ab50     v5subs:stringcl.obj
 0003:00013558       ?Shifts@@3PAUSHIFT@@A      0047b558     v5subs:shift.obj
 0003:0001355c       ?NofShifts@@3FA            0047b55c     v5subs:shift.obj
 0003:00013694       ___alternate_form          0047b694     <common>
 0003:00013698       ___no_lead_zeros           0047b698     <common>
 0003:0001369c       ___piob                    0047b69c     <common>
 0003:000136a0       __bufin                    0047b6a0     <common>
 0003:000146a0       __nstream                  0047c6a0     <common>
 0003:000146a4       ___setlc_active            0047c6a4     <common>
 0003:000146a8       ___unguarded_readlc_active 0047c6a8     <common>
 0003:000146ac       ___mbcodepage              0047c6ac     <common>
 0003:000146b0       ___mbulinfo                0047c6b0     <common>
 0003:000146bc       ___ismbcodepage            0047c6bc     <common>
 0003:000146c0       __mbcasemap                0047c6c0     <common>
 0003:000147c0       __mbctype                  0047c7c0     <common>
 0003:000148c4       ___mblcid                  0047c8c4     <common>
 0003:000148e0       ___pioinfo                 0047c8e0     <common>
 0003:000149e0       __nhandle                  0047c9e0     <common>
 0003:000149e4       __crtheap                  0047c9e4     <common>
 0003:000149e8       ___active_heap             0047c9e8     <common>
 0003:000149ec       ___sbh_sizeHeaderList      0047c9ec     <common>
 0003:000149f0       ___sbh_indGroupDefer       0047c9f0     <common>
 0003:000149f4       ___sbh_pHeaderScan         0047c9f4     <common>
 0003:000149f8       ___sbh_initialized         0047c9f8     <common>
 0003:000149fc       ___sbh_pHeaderDefer        0047c9fc     <common>
 0003:00014a00       ___sbh_cntHeaderList       0047ca00     <common>
 0003:00014a04       ___sbh_pHeaderList         0047ca04     <common>
 0003:00014a08       ___sbh_threshold           0047ca08     <common>
 0003:00014a0c       ___env_initialized         0047ca0c     <common>
 0003:00014a10       ___mbctype_initialized     0047ca10     <common>
 0003:00014a14       ___onexitend               0047ca14     <common>
 0003:00014a18       ___onexitbegin             0047ca18     <common>
 0003:00014a1c       __pfnReportHook            0047ca1c     <common>
 0003:00014a20       __acmdln                   0047ca20     <common>
 0003:00014a24       __pfnDumpClient            0047ca24     <common>

 entry point at        0001:000219a0

 Static symbols

 0001:0001e9a3       _$E3                       0041f9a3 f   upload_copy_class.obj
 0001:0001e210       _$E5                       0041f210 f   skip.obj
 0001:0001e21f       _$E2                       0041f21f f   skip.obj
 0001:0001e22e       _$E4                       0041f22e f   skip.obj
 0001:0001e240       _$E3                       0041f240 f   skip.obj
 0001:0001e27c       ?reset@@YAEPAUMACH_SKIP_ENTRY@@@Z 0041f27c f   skip.obj
 0001:0001e311       ?fill_skip_entry@@YAXPAUSKIP_ENTRY@@AAVSETPOINT_CLASS@@H@Z 0041f311 f   skip.obj
 0001:0001e421       ?find@@YAPAUMACH_SKIP_ENTRY@@AAVSTRING_CLASS@@@Z 0041f421 f   skip.obj
 0001:0001e658       ?increment_shot_entry@@YAEPAUSKIP_ENTRY@@U_FILETIME@@@Z 0041f658 f   skip.obj
 0001:0001a900       _$E3                       0041b900 f   shotsave.obj
 0001:0001a90a       _$E2                       0041b90a f   shotsave.obj
 0001:0001a91b       _$E8                       0041b91b f   shotsave.obj
 0001:0001a92a       _$E5                       0041b92a f   shotsave.obj
 0001:0001a939       _$E7                       0041b939 f   shotsave.obj
 0001:0001a94b       _$E6                       0041b94b f   shotsave.obj
 0001:0001a95a       _$E13                      0041b95a f   shotsave.obj
 0001:0001a969       _$E10                      0041b969 f   shotsave.obj
 0001:0001a978       _$E12                      0041b978 f   shotsave.obj
 0001:0001a98a       _$E11                      0041b98a f   shotsave.obj
 0001:0001b2fd       ?write_bytes_to_serial_port@@YAEPAXK@Z 0041c2fd f   shotsave.obj
 0001:0001b7ba       ?make_parameter_event_string@@YAPAGPAUSHOT_BUFFER_ENTRY@@@Z 0041c7ba f   shotsave.obj
 0001:0001ba6f       ?write_eos_param_file@@YAXPAUSHOT_BUFFER_ENTRY@@@Z 0041ca6f f   shotsave.obj
 0001:0001bf7c       ?write_serial_port_info@@YAXPAUSHOT_BUFFER_ENTRY@@@Z 0041cf7c f   shotsave.obj
 0001:0001cab3       ?write_hex_file_to_serial_port@@YAEAAVNAME_CLASS@@@Z 0041dab3 f   shotsave.obj
 0001:0001cd43       ?convert_control_chars@@YAXPAG@Z 0041dd43 f   shotsave.obj
 0001:0001ceb6       ?write_als_log@@YAXPAGAAVFTII_FILE_DATA@@@Z 0041deb6 f   shotsave.obj
 0001:0001d380       ?make_line@@YAXAAVSTRING_CLASS@@INH@Z 0041e380 f   shotsave.obj
 0001:0001d3e6       ?bit_state@@YAPAGI@Z       0041e3e6 f   shotsave.obj
 0001:0001d481       ?save_this_machine@@YAXAAVSTRING_CLASS@@@Z 0041e481 f   shotsave.obj
 0001:0001d5db       ?freebuf@@YAXH@Z           0041e5db f   shotsave.obj
 0001:0001d6e5       ?startup@@YAXXZ            0041e6e5 f   shotsave.obj
 0001:0001dc40       ?get_dde_parameter_list@@YAXXZ 0041ec40 f   shotsave.obj
 0001:0001de3a       ?shutdown@@YAXXZ           0041ee3a f   shotsave.obj
 0001:000123c0       _$E5                       004133c0 f   board_monitor.obj
 0001:000123cf       _$E2                       004133cf f   board_monitor.obj
 0001:000123de       _$E4                       004133de f   board_monitor.obj
 0001:000123f0       _$E3                       004133f0 f   board_monitor.obj
 0001:000123ff       _$E10                      004133ff f   board_monitor.obj
 0001:0001240e       _$E7                       0041340e f   board_monitor.obj
 0001:0001241d       _$E9                       0041341d f   board_monitor.obj
 0001:0001242f       _$E8                       0041342f f   board_monitor.obj
 0001:0001243e       _$E15                      0041343e f   board_monitor.obj
 0001:0001244d       _$E12                      0041344d f   board_monitor.obj
 0001:0001245c       _$E14                      0041345c f   board_monitor.obj
 0001:0001246e       _$E13                      0041346e f   board_monitor.obj
 0001:0001247d       _$E20                      0041347d f   board_monitor.obj
 0001:0001248c       _$E17                      0041348c f   board_monitor.obj
 0001:0001249b       _$E19                      0041349b f   board_monitor.obj
 0001:000124ad       _$E18                      004134ad f   board_monitor.obj
 0001:000124bc       _$E25                      004134bc f   board_monitor.obj
 0001:000124cb       _$E22                      004134cb f   board_monitor.obj
 0001:000124da       _$E24                      004134da f   board_monitor.obj
 0001:000124ec       _$E23                      004134ec f   board_monitor.obj
 0001:000124fb       _$E30                      004134fb f   board_monitor.obj
 0001:0001250a       _$E27                      0041350a f   board_monitor.obj
 0001:00012519       _$E29                      00413519 f   board_monitor.obj
 0001:0001252b       _$E28                      0041352b f   board_monitor.obj
 0001:000125d3       ?board_index@@YAHAAUsockaddr_in@@@Z 004135d3 f   board_monitor.obj
 0001:00012657       ?board_index@@YAHABVSTRING_CLASS@@@Z 00413657 f   board_monitor.obj
 0001:000129ac       _$E35                      004139ac f   board_monitor.obj
 0001:00012dfa       ?board_index@@YAHPBVFTII_BOARD_ENTRY@@@Z 00413dfa f   board_monitor.obj
 0001:000135ce       ?write_als_bit_changes@@YAXII@Z 004145ce f   board_monitor.obj
 0001:000137e1       ?make_line@@YAXAAVSTRING_CLASS@@IAAVTIME_CLASS@@@Z 004147e1 f   board_monitor.obj
 0001:00013819       ?bit_state@@YAPAGI@Z       00414819 f   board_monitor.obj
 0001:00013995       ?get_socket_message@@YAPAUSOCKET_MESSAGE@@XZ 00414995 f   board_monitor.obj
 0001:000144e5       ?update_monitor_status@@YAXPAVFTII_BOARD_ENTRY@@PAG@Z 004154e5 f   board_monitor.obj
 0001:00014643       ?send_machine_state_event_string@@YAXAAVSTRING_CLASS@@GG@Z 00415643 f   board_monitor.obj
 0001:000146eb       ?add_board_data@@YAPAGPAGG@Z 004156eb f   board_monitor.obj
 0001:00014733       ?check_alarms@@YAXAAU_SYSTEMTIME@@PAVFTII_BOARD_ENTRY@@PAN@Z 00415733 f   board_monitor.obj
 0001:000154e3       ?encoded_file_date@@YAIAAVNAME_CLASS@@@Z 004164e3 f   board_monitor.obj
 0001:00015561       ?truncate_control_file_line@@YAXPAG@Z 00416561 f   board_monitor.obj
 0001:000155d8       ?update_config_word@@YAXAAVSTRING_CLASS@@K@Z 004165d8 f   board_monitor.obj
 0001:0001566c       ?update_config_word@@YAXAAVSTRING_CLASS@@KK@Z 0041666c f   board_monitor.obj
 0001:0001573f       ?update_one_board_display@@YAXHPAG@Z 0041673f f   board_monitor.obj
 0001:000169fa       ?do_ascii_message@@YAXHPAG@Z 004179fa f   board_monitor.obj
 0001:00016e44       ?continue_connecting_one_board@@YAXH@Z 00417e44 f   board_monitor.obj
 0001:00017145       _$E39                      00418145 f   board_monitor.obj
 0001:00017154       ?check_for_cycle_start@@YA_NPAVFTII_BOARD_ENTRY@@PAG@Z 00418154 f   board_monitor.obj
 0001:00017c05       ?ascii_strings_are_equal@@YAEPBD0H@Z 00418c05 f   board_monitor.obj
 0001:00017c46       ?do_ascii_message@@YAXHPAUSOCKET_MESSAGE@@@Z 00418c46 f   board_monitor.obj
 0001:00018861       ?ascii_copystring@@YAXPADPBD@Z 00419861 f   board_monitor.obj
 0001:00018899       ?clean_message_stores@@YAXXZ 00419899 f   board_monitor.obj
 0001:00018901       ?write_sent_command@@YAXHPAD@Z 00419901 f   board_monitor.obj
 0001:00018a16       ?do_ack_message@@YAXPAUSOCKET_MESSAGE@@@Z 00419a16 f   board_monitor.obj
 0001:00018c2b       ?check_for_timeouts@@YAXXZ 00419c2b f   board_monitor.obj
 0001:0001923d       ?send_ack@@YAXAAUsockaddr_in@@@Z 0041a23d f   board_monitor.obj
 0001:00019284       ?get_ack_message@@YAPAUACK_MESSAGE@@XZ 0041a284 f   board_monitor.obj
 0001:0001938b       ?connect_to_boards@@YAXXZ  0041a38b f   board_monitor.obj
 0001:000193fb       ?connect_one_board@@YAXH@Z 0041a3fb f   board_monitor.obj
 0001:000195ec       ?start_socket@@YAXXZ       0041a5ec f   board_monitor.obj
 0001:00019853       ?disconnect_from_boards@@YAXXZ 0041a853 f   board_monitor.obj
 0001:00019e26       ?do_newsetup@@YAXAAVSTRING_CLASS@@@Z 0041ae26 f   board_monitor.obj
 0001:00000020       _$E5                       00401020 f   ft2.obj
 0001:0000002f       _$E2                       0040102f f   ft2.obj
 0001:0000003e       _$E4                       0040103e f   ft2.obj
 0001:00000050       _$E3                       00401050 f   ft2.obj
 0001:0000005f       _$E10                      0040105f f   ft2.obj
 0001:0000006e       _$E7                       0040106e f   ft2.obj
 0001:0000007d       _$E9                       0040107d f   ft2.obj
 0001:0000008f       _$E8                       0040108f f   ft2.obj
 0001:0000009e       _$E15                      0040109e f   ft2.obj
 0001:000000ad       _$E12                      004010ad f   ft2.obj
 0001:000000bc       _$E14                      004010bc f   ft2.obj
 0001:000000ce       _$E13                      004010ce f   ft2.obj
 0001:000000dd       _$E20                      004010dd f   ft2.obj
 0001:000000ec       _$E17                      004010ec f   ft2.obj
 0001:000000fb       _$E19                      004010fb f   ft2.obj
 0001:0000010d       _$E18                      0040110d f   ft2.obj
 0001:0000011c       _$E25                      0040111c f   ft2.obj
 0001:0000012b       _$E22                      0040112b f   ft2.obj
 0001:0000013a       _$E24                      0040113a f   ft2.obj
 0001:0000014c       _$E23                      0040114c f   ft2.obj
 0001:0000015b       _$E30                      0040115b f   ft2.obj
 0001:0000016a       _$E27                      0040116a f   ft2.obj
 0001:00000179       _$E29                      00401179 f   ft2.obj
 0001:0000018b       _$E28                      0040118b f   ft2.obj
 0001:0000019a       _$E35                      0040119a f   ft2.obj
 0001:000001a9       _$E32                      004011a9 f   ft2.obj
 0001:000001b8       _$E34                      004011b8 f   ft2.obj
 0001:000001ca       _$E33                      004011ca f   ft2.obj
 0001:000001d9       _$E40                      004011d9 f   ft2.obj
 0001:000001e8       _$E37                      004011e8 f   ft2.obj
 0001:000001f7       _$E39                      004011f7 f   ft2.obj
 0001:00000209       _$E38                      00401209 f   ft2.obj
 0001:00000218       _$E45                      00401218 f   ft2.obj
 0001:00000227       _$E42                      00401227 f   ft2.obj
 0001:00000236       _$E44                      00401236 f   ft2.obj
 0001:00000248       _$E43                      00401248 f   ft2.obj
 0001:00000257       _$E50                      00401257 f   ft2.obj
 0001:00000266       _$E47                      00401266 f   ft2.obj
 0001:00000275       _$E49                      00401275 f   ft2.obj
 0001:00000287       _$E48                      00401287 f   ft2.obj
 0001:00000296       _$E55                      00401296 f   ft2.obj
 0001:000002a5       _$E52                      004012a5 f   ft2.obj
 0001:000002b4       _$E54                      004012b4 f   ft2.obj
 0001:000002c6       _$E53                      004012c6 f   ft2.obj
 0001:000002d5       _$E60                      004012d5 f   ft2.obj
 0001:000002e4       _$E57                      004012e4 f   ft2.obj
 0001:000002f3       _$E59                      004012f3 f   ft2.obj
 0001:00000305       _$E58                      00401305 f   ft2.obj
 0001:00000314       _$E65                      00401314 f   ft2.obj
 0001:00000323       _$E62                      00401323 f   ft2.obj
 0001:00000332       _$E64                      00401332 f   ft2.obj
 0001:00000344       _$E63                      00401344 f   ft2.obj
 0001:00000353       _$E70                      00401353 f   ft2.obj
 0001:00000362       _$E67                      00401362 f   ft2.obj
 0001:00000371       _$E69                      00401371 f   ft2.obj
 0001:00000383       _$E68                      00401383 f   ft2.obj
 0001:00000392       _$E75                      00401392 f   ft2.obj
 0001:000003a1       _$E72                      004013a1 f   ft2.obj
 0001:000003b0       _$E74                      004013b0 f   ft2.obj
 0001:000003c2       _$E73                      004013c2 f   ft2.obj
 0001:000003d1       _$E80                      004013d1 f   ft2.obj
 0001:000003e0       _$E77                      004013e0 f   ft2.obj
 0001:000003ef       _$E79                      004013ef f   ft2.obj
 0001:00000401       _$E78                      00401401 f   ft2.obj
 0001:00000410       _$E85                      00401410 f   ft2.obj
 0001:0000041f       _$E82                      0040141f f   ft2.obj
 0001:0000042e       _$E84                      0040142e f   ft2.obj
 0001:00000440       _$E83                      00401440 f   ft2.obj
 0001:0000044f       _$E90                      0040144f f   ft2.obj
 0001:0000045e       _$E87                      0040145e f   ft2.obj
 0001:0000046d       _$E89                      0040146d f   ft2.obj
 0001:0000047f       _$E88                      0040147f f   ft2.obj
 0001:0000048e       _$E95                      0040148e f   ft2.obj
 0001:0000049d       _$E92                      0040149d f   ft2.obj
 0001:000004ac       _$E94                      004014ac f   ft2.obj
 0001:000004be       _$E93                      004014be f   ft2.obj
 0001:000004cd       _$E100                     004014cd f   ft2.obj
 0001:000004dc       _$E97                      004014dc f   ft2.obj
 0001:000004eb       _$E99                      004014eb f   ft2.obj
 0001:000004fd       _$E98                      004014fd f   ft2.obj
 0001:0000050c       _$E105                     0040150c f   ft2.obj
 0001:0000051b       _$E102                     0040151b f   ft2.obj
 0001:0000052a       _$E104                     0040152a f   ft2.obj
 0001:0000053c       _$E103                     0040153c f   ft2.obj
 0001:0000054b       _$E110                     0040154b f   ft2.obj
 0001:0000055a       _$E107                     0040155a f   ft2.obj
 0001:00000569       _$E109                     00401569 f   ft2.obj
 0001:0000057b       _$E108                     0040157b f   ft2.obj
 0001:0000058a       _$E115                     0040158a f   ft2.obj
 0001:00000599       _$E112                     00401599 f   ft2.obj
 0001:000005a8       _$E114                     004015a8 f   ft2.obj
 0001:000005ba       _$E113                     004015ba f   ft2.obj
 0001:000005c9       _$E120                     004015c9 f   ft2.obj
 0001:000005d8       _$E117                     004015d8 f   ft2.obj
 0001:000005e7       _$E119                     004015e7 f   ft2.obj
 0001:000005f9       _$E118                     004015f9 f   ft2.obj
 0001:00000608       _$E125                     00401608 f   ft2.obj
 0001:00000617       _$E122                     00401617 f   ft2.obj
 0001:00000626       _$E124                     00401626 f   ft2.obj
 0001:00000638       _$E123                     00401638 f   ft2.obj
 0001:00000647       _$E130                     00401647 f   ft2.obj
 0001:00000656       _$E127                     00401656 f   ft2.obj
 0001:00000665       _$E129                     00401665 f   ft2.obj
 0001:00000677       _$E128                     00401677 f   ft2.obj
 0001:00000686       _$E135                     00401686 f   ft2.obj
 0001:00000695       _$E132                     00401695 f   ft2.obj
 0001:000006a4       _$E134                     004016a4 f   ft2.obj
 0001:000006b6       _$E133                     004016b6 f   ft2.obj
 0001:000006c5       _$E140                     004016c5 f   ft2.obj
 0001:000006d4       _$E137                     004016d4 f   ft2.obj
 0001:000006e3       _$E139                     004016e3 f   ft2.obj
 0001:000006f5       _$E138                     004016f5 f   ft2.obj
 0001:00000704       _$E145                     00401704 f   ft2.obj
 0001:00000713       _$E142                     00401713 f   ft2.obj
 0001:00000722       _$E144                     00401722 f   ft2.obj
 0001:00000734       _$E143                     00401734 f   ft2.obj
 0001:00000743       _$E150                     00401743 f   ft2.obj
 0001:00000752       _$E147                     00401752 f   ft2.obj
 0001:00000761       _$E149                     00401761 f   ft2.obj
 0001:00000773       _$E148                     00401773 f   ft2.obj
 0001:00000782       _$E153                     00401782 f   ft2.obj
 0001:0000078c       _$E152                     0040178c f   ft2.obj
 0001:0000079b       _$E158                     0040179b f   ft2.obj
 0001:000007aa       _$E155                     004017aa f   ft2.obj
 0001:000007b9       _$E157                     004017b9 f   ft2.obj
 0001:000007cb       _$E156                     004017cb f   ft2.obj
 0001:000007da       _$E163                     004017da f   ft2.obj
 0001:000007e9       _$E160                     004017e9 f   ft2.obj
 0001:000007f8       _$E162                     004017f8 f   ft2.obj
 0001:0000080a       _$E161                     0040180a f   ft2.obj
 0001:00000819       _$E168                     00401819 f   ft2.obj
 0001:00000828       _$E165                     00401828 f   ft2.obj
 0001:00000837       _$E167                     00401837 f   ft2.obj
 0001:00000849       _$E166                     00401849 f   ft2.obj
 0001:00000858       _$E173                     00401858 f   ft2.obj
 0001:00000867       _$E170                     00401867 f   ft2.obj
 0001:00000876       _$E172                     00401876 f   ft2.obj
 0001:00000888       _$E171                     00401888 f   ft2.obj
 0001:00000897       _$E178                     00401897 f   ft2.obj
 0001:000008a6       _$E175                     004018a6 f   ft2.obj
 0001:000008b5       _$E177                     004018b5 f   ft2.obj
 0001:000008c7       _$E176                     004018c7 f   ft2.obj
 0001:000008d6       _$E183                     004018d6 f   ft2.obj
 0001:000008e5       _$E180                     004018e5 f   ft2.obj
 0001:000008f4       _$E182                     004018f4 f   ft2.obj
 0001:00000906       _$E181                     00401906 f   ft2.obj
 0001:00000915       _$E188                     00401915 f   ft2.obj
 0001:00000924       _$E185                     00401924 f   ft2.obj
 0001:00000933       _$E187                     00401933 f   ft2.obj
 0001:00000945       _$E186                     00401945 f   ft2.obj
 0001:00000954       _$E193                     00401954 f   ft2.obj
 0001:00000963       _$E190                     00401963 f   ft2.obj
 0001:0000097b       _$E192                     0040197b f   ft2.obj
 0001:0000098d       _$E191                     0040198d f   ft2.obj
 0001:000009a5       _$E198                     004019a5 f   ft2.obj
 0001:000009b4       _$E195                     004019b4 f   ft2.obj
 0001:000009cc       _$E197                     004019cc f   ft2.obj
 0001:000009de       _$E196                     004019de f   ft2.obj
 0001:000009f6       _$E203                     004019f6 f   ft2.obj
 0001:00000a05       _$E200                     00401a05 f   ft2.obj
 0001:00000a1d       _$E202                     00401a1d f   ft2.obj
 0001:00000a2f       _$E201                     00401a2f f   ft2.obj
 0001:00000a47       _$E208                     00401a47 f   ft2.obj
 0001:00000a56       _$E205                     00401a56 f   ft2.obj
 0001:00000a65       _$E207                     00401a65 f   ft2.obj
 0001:00000a77       _$E206                     00401a77 f   ft2.obj
 0001:00000a86       _$E213                     00401a86 f   ft2.obj
 0001:00000a95       _$E210                     00401a95 f   ft2.obj
 0001:00000aa4       _$E212                     00401aa4 f   ft2.obj
 0001:00000ab6       _$E211                     00401ab6 f   ft2.obj
 0001:00000ac5       _$E218                     00401ac5 f   ft2.obj
 0001:00000ad4       _$E215                     00401ad4 f   ft2.obj
 0001:00000ae3       _$E217                     00401ae3 f   ft2.obj
 0001:00000af5       _$E216                     00401af5 f   ft2.obj
 0001:00000b04       _$E223                     00401b04 f   ft2.obj
 0001:00000b13       _$E220                     00401b13 f   ft2.obj
 0001:00000b22       _$E222                     00401b22 f   ft2.obj
 0001:00000b34       _$E221                     00401b34 f   ft2.obj
 0001:00000b43       _$E228                     00401b43 f   ft2.obj
 0001:00000b52       _$E225                     00401b52 f   ft2.obj
 0001:00000b61       _$E227                     00401b61 f   ft2.obj
 0001:00000b73       _$E226                     00401b73 f   ft2.obj
 0001:00000b82       _$E233                     00401b82 f   ft2.obj
 0001:00000b91       _$E230                     00401b91 f   ft2.obj
 0001:00000ba0       _$E232                     00401ba0 f   ft2.obj
 0001:00000bb2       _$E231                     00401bb2 f   ft2.obj
 0001:00000bc1       _$E238                     00401bc1 f   ft2.obj
 0001:00000bd0       _$E235                     00401bd0 f   ft2.obj
 0001:00000bdf       _$E237                     00401bdf f   ft2.obj
 0001:00000bf1       _$E236                     00401bf1 f   ft2.obj
 0001:00000c00       _$E243                     00401c00 f   ft2.obj
 0001:00000c0f       _$E240                     00401c0f f   ft2.obj
 0001:00000c1e       _$E242                     00401c1e f   ft2.obj
 0001:00000c30       _$E241                     00401c30 f   ft2.obj
 0001:00000c3f       _$E248                     00401c3f f   ft2.obj
 0001:00000c4e       _$E245                     00401c4e f   ft2.obj
 0001:00000c5d       _$E247                     00401c5d f   ft2.obj
 0001:00000c6f       _$E246                     00401c6f f   ft2.obj
 0001:00000c7e       _$E253                     00401c7e f   ft2.obj
 0001:00000c8d       _$E250                     00401c8d f   ft2.obj
 0001:00000c9c       _$E252                     00401c9c f   ft2.obj
 0001:00000cae       _$E251                     00401cae f   ft2.obj
 0001:00000cbd       _$E258                     00401cbd f   ft2.obj
 0001:00000ccc       _$E255                     00401ccc f   ft2.obj
 0001:00000ce7       _$E257                     00401ce7 f   ft2.obj
 0001:00000cf9       _$E256                     00401cf9 f   ft2.obj
 0001:00000d14       _$E263                     00401d14 f   ft2.obj
 0001:00000d23       _$E260                     00401d23 f   ft2.obj
 0001:00000d3e       _$E262                     00401d3e f   ft2.obj
 0001:00000d50       _$E261                     00401d50 f   ft2.obj
 0001:00000d6b       _$E268                     00401d6b f   ft2.obj
 0001:00000d7a       _$E265                     00401d7a f   ft2.obj
 0001:00000d89       _$E267                     00401d89 f   ft2.obj
 0001:00000d9b       _$E266                     00401d9b f   ft2.obj
 0001:00000daa       _$E273                     00401daa f   ft2.obj
 0001:00000db9       _$E270                     00401db9 f   ft2.obj
 0001:00000dc8       _$E272                     00401dc8 f   ft2.obj
 0001:00000dda       _$E271                     00401dda f   ft2.obj
 0001:00000de9       _$E278                     00401de9 f   ft2.obj
 0001:00000df8       _$E275                     00401df8 f   ft2.obj
 0001:00000e07       _$E277                     00401e07 f   ft2.obj
 0001:00000e19       _$E276                     00401e19 f   ft2.obj
 0001:00000e28       _$E283                     00401e28 f   ft2.obj
 0001:00000e37       _$E280                     00401e37 f   ft2.obj
 0001:00000e46       _$E282                     00401e46 f   ft2.obj
 0001:00000e58       _$E281                     00401e58 f   ft2.obj
 0001:00000e67       _$E288                     00401e67 f   ft2.obj
 0001:00000e76       _$E285                     00401e76 f   ft2.obj
 0001:00000e85       _$E287                     00401e85 f   ft2.obj
 0001:00000e97       _$E286                     00401e97 f   ft2.obj
 0001:00000ea6       _$E293                     00401ea6 f   ft2.obj
 0001:00000eb5       _$E290                     00401eb5 f   ft2.obj
 0001:00000ec4       _$E292                     00401ec4 f   ft2.obj
 0001:00000ed6       _$E291                     00401ed6 f   ft2.obj
 0001:00000ee5       _$E298                     00401ee5 f   ft2.obj
 0001:00000ef4       _$E295                     00401ef4 f   ft2.obj
 0001:00000f03       _$E297                     00401f03 f   ft2.obj
 0001:00000f15       _$E296                     00401f15 f   ft2.obj
 0001:00000f24       _$E303                     00401f24 f   ft2.obj
 0001:00000f33       _$E300                     00401f33 f   ft2.obj
 0001:00000f42       _$E302                     00401f42 f   ft2.obj
 0001:00000f54       _$E301                     00401f54 f   ft2.obj
 0001:00000f63       _$E308                     00401f63 f   ft2.obj
 0001:00000f72       _$E305                     00401f72 f   ft2.obj
 0001:00000f81       _$E307                     00401f81 f   ft2.obj
 0001:00000f93       _$E306                     00401f93 f   ft2.obj
 0001:00000fa2       _$E313                     00401fa2 f   ft2.obj
 0001:00000fb1       _$E310                     00401fb1 f   ft2.obj
 0001:00000fc0       _$E312                     00401fc0 f   ft2.obj
 0001:00000fd2       _$E311                     00401fd2 f   ft2.obj
 0001:00000fe1       _$E318                     00401fe1 f   ft2.obj
 0001:00000ff0       _$E315                     00401ff0 f   ft2.obj
 0001:00000fff       _$E317                     00401fff f   ft2.obj
 0001:00001011       _$E316                     00402011 f   ft2.obj
 0001:00001020       _$E323                     00402020 f   ft2.obj
 0001:0000102f       _$E320                     0040202f f   ft2.obj
 0001:0000103e       _$E322                     0040203e f   ft2.obj
 0001:00001050       _$E321                     00402050 f   ft2.obj
 0001:0000105f       _$E328                     0040205f f   ft2.obj
 0001:0000106e       _$E325                     0040206e f   ft2.obj
 0001:0000107d       _$E327                     0040207d f   ft2.obj
 0001:0000108f       _$E326                     0040208f f   ft2.obj
 0001:0000109e       _$E333                     0040209e f   ft2.obj
 0001:000010ad       _$E330                     004020ad f   ft2.obj
 0001:000010bc       _$E332                     004020bc f   ft2.obj
 0001:000010ce       _$E331                     004020ce f   ft2.obj
 0001:000010dd       _$E338                     004020dd f   ft2.obj
 0001:000010ec       _$E335                     004020ec f   ft2.obj
 0001:000010fb       _$E337                     004020fb f   ft2.obj
 0001:0000110d       _$E336                     0040210d f   ft2.obj
 0001:0000111c       _$E343                     0040211c f   ft2.obj
 0001:0000112b       _$E340                     0040212b f   ft2.obj
 0001:0000113a       _$E342                     0040213a f   ft2.obj
 0001:0000114c       _$E341                     0040214c f   ft2.obj
 0001:0000115b       _$E348                     0040215b f   ft2.obj
 0001:0000116a       _$E345                     0040216a f   ft2.obj
 0001:00001179       _$E347                     00402179 f   ft2.obj
 0001:0000118b       _$E346                     0040218b f   ft2.obj
 0001:0000119a       _$E353                     0040219a f   ft2.obj
 0001:000011a9       _$E350                     004021a9 f   ft2.obj
 0001:000011b8       _$E352                     004021b8 f   ft2.obj
 0001:000011ca       _$E351                     004021ca f   ft2.obj
 0001:000011d9       _$E358                     004021d9 f   ft2.obj
 0001:000011e8       _$E355                     004021e8 f   ft2.obj
 0001:000011f7       _$E357                     004021f7 f   ft2.obj
 0001:00001209       _$E356                     00402209 f   ft2.obj
 0001:00001218       _$E363                     00402218 f   ft2.obj
 0001:00001227       _$E360                     00402227 f   ft2.obj
 0001:00001236       _$E362                     00402236 f   ft2.obj
 0001:00001248       _$E361                     00402248 f   ft2.obj
 0001:00001257       _$E368                     00402257 f   ft2.obj
 0001:00001266       _$E365                     00402266 f   ft2.obj
 0001:00001275       _$E367                     00402275 f   ft2.obj
 0001:00001287       _$E366                     00402287 f   ft2.obj
 0001:00001296       _$E373                     00402296 f   ft2.obj
 0001:000012a5       _$E370                     004022a5 f   ft2.obj
 0001:000012b4       _$E372                     004022b4 f   ft2.obj
 0001:000012c6       _$E371                     004022c6 f   ft2.obj
 0001:000012d5       _$E378                     004022d5 f   ft2.obj
 0001:000012e4       _$E375                     004022e4 f   ft2.obj
 0001:000012f3       _$E377                     004022f3 f   ft2.obj
 0001:00001305       _$E376                     00402305 f   ft2.obj
 0001:00001314       _$E383                     00402314 f   ft2.obj
 0001:00001323       _$E380                     00402323 f   ft2.obj
 0001:0000133b       _$E382                     0040233b f   ft2.obj
 0001:0000134d       _$E381                     0040234d f   ft2.obj
 0001:00001365       _$E388                     00402365 f   ft2.obj
 0001:00001374       _$E385                     00402374 f   ft2.obj
 0001:0000138c       _$E387                     0040238c f   ft2.obj
 0001:0000139e       _$E386                     0040239e f   ft2.obj
 0001:000013b6       _$E393                     004023b6 f   ft2.obj
 0001:000013c5       _$E390                     004023c5 f   ft2.obj
 0001:000013dd       _$E392                     004023dd f   ft2.obj
 0001:000013ef       _$E391                     004023ef f   ft2.obj
 0001:00001e47       _$E401                     00402e47 f   ft2.obj
 0001:00001e56       _$E400                     00402e56 f   ft2.obj
 0001:000022ac       ?position_ft2_test_dialog@@YAXXZ 004032ac f   ft2.obj
 0001:0000234a       _$E404                     0040334a f   ft2.obj
 0001:00002359       _$E403                     00403359 f   ft2.obj
 0001:000026c5       ?save_listbox@@YAXXZ       004036c5 f   ft2.obj
 0001:0000273a       ?size_terminal@@YAXXZ      0040373a f   ft2.obj
 0001:000027e4       ?check_terminal_position@@YAXXZ 004037e4 f   ft2.obj
 0001:000028a6       ?dock_terminal@@YAXXZ      004038a6 f   ft2.obj
 0001:00002972       ?load_terminal_menu@@YAXXZ 00403972 f   ft2.obj
 0001:00002af1       ?retry_upload_to_aborted_machine@@YAXXZ 00403af1 f   ft2.obj
 0001:00002b38       ?send_command@@YAXPAG0_N@Z 00403b38 f   ft2.obj
 0001:00002b7a       ?get_next_upload_aborted_machine@@YA_NXZ 00403b7a f   ft2.obj
 0001:00002ec8       ?set_current_window@@YAXAAVWINDOW_CLASS@@@Z 00403ec8 f   ft2.obj
 0001:000038b1       ?load_machine_vars@@YAEXZ  004048b1 f   ft2.obj
 0001:000039c5       ?hide_terminal_window@@YAXXZ 004049c5 f   ft2.obj
 0001:00003a24       ?refresh_current_machine@@YAXAAVSTRING_CLASS@@@Z 00404a24 f   ft2.obj
 0001:00003a63       ?load_current_part@@YAXXZ  00404a63 f   ft2.obj
 0001:00003ae4       ?load_limit_switch_wires_for_realtime_output_display@@YAXXZ 00404ae4 f   ft2.obj
 0001:00003bf1       ?send_command_to_current_machine@@YAXPAG_N@Z 00404bf1 f   ft2.obj
 0001:00003cc1       ?scroll_listbox_to_last_entry@@YAXXZ 00404cc1 f   ft2.obj
 0001:00003d03       _$E408                     00404d03 f   ft2.obj
 0001:00003f6a       ?fill_machine_listbox@@YAEPAUHWND__@@@Z 00404f6a f   ft2.obj
 0001:000041ba       ?set_globals_from_eboxes@@YAXPAUHWND__@@@Z 004051ba f   ft2.obj
 0001:00004531       ?stop_hires_sensor_test@@YAXXZ 00405531 f   ft2.obj
 0001:000045c7       ?do_hires_sensor_test_timer@@YAXPAUHWND__@@@Z 004055c7 f   ft2.obj
 0001:00004854       ?save_null_value@@YAXXZ    00405854 f   ft2.obj
 0001:000048f1       ?position_shutdown_status_dialog@@YAXPAUHWND__@@@Z 004058f1 f   ft2.obj
 0001:00004abd       ?position_button_child@@YAXAAVWINDOW_CLASS@@@Z 00405abd f   ft2.obj
 0001:00004bdc       ?send_auto_null_command@@YAXXZ 00405bdc f   ft2.obj
 0001:00004c0f       ?send_manual_null_command@@YAXXZ 00405c0f f   ft2.obj
 0001:00004c98       ?do_new_set_null_values@@YAXXZ 00405c98 f   ft2.obj
 0001:00004d74       _$E410                     00405d74 f   ft2.obj
 0001:00004fd2       ?save_machine_vars@@YAEXZ  00405fd2 f   ft2.obj
 0001:000050c4       ?send_lvdt_digital_pot_command@@YAXE@Z 004060c4 f   ft2.obj
 0001:000051e5       ?put_byte@@YAXAAIIH@Z      004061e5 f   ft2.obj
 0001:000052da       ?send_test_message@@YAXH@Z 004062da f   ft2.obj
 0001:00005801       ?refresh_set_dac_dialog@@YAXXZ 00406801 f   ft2.obj
 0001:00005919       ?digital_pot_setting@@YAIH@Z 00406919 f   ft2.obj
 0001:00005977       ?show_revision_d_controls@@YAXXZ 00406977 f   ft2.obj
 0001:000059f1       ?init_set_dac_dialog@@YAXXZ 004069f1 f   ft2.obj
 0001:00005b2e       ?do_new_set_dac_values@@YAXXZ 00406b2e f   ft2.obj
 0001:00005fa1       _$E414                     00406fa1 f   ft2.obj
 0001:00005fb0       _$E413                     00406fb0 f   ft2.obj
 0001:00005fbf       _$E412                     00406fbf f   ft2.obj
 0001:00006056       ?fill_global_parameters@@YAXXZ 00407056 f   ft2.obj
 0001:0000660e       ?mv_from_percent@@YAHN@Z   0040760e f   ft2.obj
 0001:0000663b       ?percent_from_mv@@YAPAGH@Z 0040763b f   ft2.obj
 0001:0000671d       ?save_global_parameters@@YAXXZ 0040771d f   ft2.obj
 0001:00006b01       ?mv_from_percent@@YAHAAVSTRING_CLASS@@@Z 00407b01 f   ft2.obj
 0001:00006b6f       ?check_for_savepart_updates@@YAXXZ 00407b6f f   ft2.obj
 0001:00006edf       ?update_current_variables_listbox@@YAXXZ 00407edf f   ft2.obj
 0001:00007058       ?start_acquiring_all_board_variables@@YAEH@Z 00408058 f   ft2.obj
 0001:0000710f       ?get_board_variable_descriptions@@YAXXZ 0040810f f   ft2.obj
 0001:00007218       ?restore_saved_board_variables@@YAEXZ 00408218 f   ft2.obj
 0001:00007390       ?save_board_variables@@YAXXZ 00408390 f   ft2.obj
 0001:000079ab       ?init_control_mods_dialog@@YAXXZ 004089ab f   ft2.obj
 0001:00007a98       ?show_alt_step_controls@@YAXXZ 00408a98 f   ft2.obj
 0001:00007b53       ?save_control_mod_changes@@YAXXZ 00408b53 f   ft2.obj
 0001:00007d2b       ?load_current_control_mods@@YAXXZ 00408d2b f   ft2.obj
 0001:00007d3a       ?load_control_mods_from_file@@YA_NXZ 00408d3a f   ft2.obj
 0001:0000813e       ?get_alt_step_from_line@@YAXPAG@Z 0040913e f   ft2.obj
 0001:00008272       ?get_string_value_from_line@@YAPAGPAG@Z 00409272 f   ft2.obj
 0001:000082aa       ?copy_mods_to_screen@@YAXXZ 004092aa f   ft2.obj
 0001:0000847f       ?show_alt_step@@YAXXZ      0040947f f   ft2.obj
 0001:000084a2       ?show_start_step@@YAXXZ    004094a2 f   ft2.obj
 0001:00008505       ?show_park_step@@YAXXZ     00409505 f   ft2.obj
 0001:00008568       ?get_alt_step_velocity_for_ebox@@YAXAAVSTRING_CLASS@@@Z 00409568 f   ft2.obj
 0001:000086e1       ?check_for_new_board@@YAXXZ 004096e1 f   ft2.obj
 0001:00008746       _$E416                     00409746 f   ft2.obj
 0001:00008755       ?do_alt_step_type_select@@YAXXZ 00409755 f   ft2.obj
 0001:000087ad       ?update_park_step@@YAXXZ   004097ad f   ft2.obj
 0001:00008800       ?update_start_step@@YAXXZ  00409800 f   ft2.obj
 0001:00008853       ?update_alt_step@@YAXH@Z   00409853 f   ft2.obj
 0001:0000898d       ?extract_alt_step_velocity@@YAXAAVSTRING_CLASS@@@Z 0040998d f   ft2.obj
 0001:00008a13       ?percent_to_hex@@YAPAGN@Z  00409a13 f   ft2.obj
 0001:00008d31       ?send_current_digital_pot_command@@YAXXZ 00409d31 f   ft2.obj
 0001:00008dec       ?load_master_trace@@YAXXZ  00409dec f   ft2.obj
 0001:00008eaf       ?save_master_trace@@YAXXZ  00409eaf f   ft2.obj
 0001:00008fa7       ?plot_oscilloscope_data@@YAXPAH@Z 00409fa7 f   ft2.obj
 0001:0000928e       ?do_new_oscilloscope_data@@YAXJ@Z 0040a28e f   ft2.obj
 0001:0000936a       ?refresh_valve_test_screen@@YAXXZ 0040a36a f   ft2.obj
 0001:000093cf       ?show_valve_test_revision_d_controls@@YAXXZ 0040a3cf f   ft2.obj
 0001:00009449       ?init_valve_test_data@@YAXXZ 0040a449 f   ft2.obj
 0001:00009945       ?do_opto_click@@YAXIJ@Z    0040a945 f   ft2.obj
 0001:000099d3       ?do_new_alarm_output_values@@YAXXZ 0040a9d3 f   ft2.obj
 0001:00009a51       ?init_test_alarm_optos@@YAXXZ 0040aa51 f   ft2.obj
 0001:0000a0a8       ?set_channel_5_8_labels@@YAXH@Z 0040b0a8 f   ft2.obj
 0001:0000a5b7       ?set_channel_5_8_labels@@YAXXZ 0040b5b7 f   ft2.obj
 0001:0000a5ca       ?refresh_current_values@@YAXXZ 0040b5ca f   ft2.obj
 0001:0000a770       ?create_tooltips@@YAXXZ    0040b770 f   ft2.obj
 0001:0000aef1       ?init_current_values_dialog@@YAXXZ 0040bef1 f   ft2.obj
 0001:0000b413       ?do_new_current_values@@YAXXZ 0040c413 f   ft2.obj
 0001:0000c4be       ?write_log@@YAXPAG@Z       0040d4be f   ft2.obj
 0001:0000c610       _$E398                     0040d610 f   ft2.obj
 0001:0000c61f       _$E397                     0040d61f f   ft2.obj
 0001:0000c624       _$E396                     0040d624 f   ft2.obj
 0001:0000c633       ?log_input_bits@@YAXXZ     0040d633 f   ft2.obj
 0001:0000c722       _$E418                     0040d722 f   ft2.obj
 0001:0000c731       ?log_output_bits@@YAXXZ    0040d731 f   ft2.obj
 0001:0000c83d       _$E420                     0040d83d f   ft2.obj
 0001:0000c84c       _$E426                     0040d84c f   ft2.obj
 0001:0000c85b       _$E425                     0040d85b f   ft2.obj
 0001:0000c86a       _$E424                     0040d86a f   ft2.obj
 0001:0000c879       _$E423                     0040d879 f   ft2.obj
 0001:0000c888       _$E422                     0040d888 f   ft2.obj
 0001:0000c897       ?send_channel_mode_command@@YAHXZ 0040d897 f   ft2.obj
 0001:0000c933       ?save_channel_mode@@YAXH@Z 0040d933 f   ft2.obj
 0001:0000c99e       ?toggle_io_display@@YAXXZ  0040d99e f   ft2.obj
 0001:0000cbbe       ?send_zero_message_to_board@@YAXXZ 0040dbbe f   ft2.obj
 0001:0000cbf0       ?do_updown@@YAXH@Z         0040dbf0 f   ft2.obj
 0001:0000ccfb       ?send_channel_mode_command@@YAXH@Z 0040dcfb f   ft2.obj
 0001:0000cded       ?size_output_list_dialog@@YAXXZ 0040dded f   ft2.obj
 0001:0000cf77       ?send_data_server_shot_notification@@YAXPAG0@Z 0040df77 f   ft2.obj
 0001:0000cff8       _$E428                     0040dff8 f   ft2.obj
 0001:0000d0fa       ?set_gray_menu_items@@YAXXZ 0040e0fa f   ft2.obj
 0001:0000d1fb       ?show_buttons@@YAXXZ       0040e1fb f   ft2.obj
 0001:0000d275       ?load_main_menu@@YAXXZ     0040e275 f   ft2.obj
 0001:0000d80f       ?clear_current_value_copies@@YAXXZ 0040e80f f   ft2.obj
 0001:0000d87b       ?toggle_logging_sent_commands@@YAXXZ 0040e87b f   ft2.obj
 0001:0000d90a       ?output_list_update@@YAXXZ 0040e90a f   ft2.obj
 0001:0000dd21       ?need_connected_brush@@YAPAUHBRUSH__@@PAUHWND__@@@Z 0040ed21 f   ft2.obj
 0001:0000dd7d       ?need_monitor_brush@@YAPAUHBRUSH__@@PAUHWND__@@@Z 0040ed7d f   ft2.obj
 0001:0000de9e       ?exit_main_proc@@YAXXZ     0040ee9e f   ft2.obj
 0001:0000e704       ?do_new_rt_data@@YAXIJ@Z   0040f704 f   ft2.obj
 0001:0000e83f       ?get_ascii_rt_data@@YAXJ@Z 0040f83f f   ft2.obj
 0001:0000ec5e       ?showbits@@YAPAGPAGI@Z     0040fc5e f   ft2.obj
 0001:0000edcb       ?do_config_word@@YAXPAG@Z  0040fdcb f   ft2.obj
 0001:0000ee56       ?ultohexstring@@YAPAGPAGI@Z 0040fe56 f   ft2.obj
 0001:0000eee3       ?should_be_hex@@YAEPAG0@Z  0040fee3 f   ft2.obj
 0001:0000f025       _$E406                     00410025 f   ft2.obj
 0001:0000f034       ?copy_analog@@YAXHG@Z      00410034 f   ft2.obj
 0001:0000f060       ?create_controls@@YAXH@Z   00410060 f   ft2.obj
 0001:0000fc00       ?do_new_ft2_connect_state@@YAXIJ@Z 00410c00 f   ft2.obj
 0001:0000fd54       ?show_upload_aborted_dialog@@YAXH@Z 00410d54 f   ft2.obj
 0001:0000fe06       ?remote_shutdown@@YAXXZ    00410e06 f   ft2.obj
 0001:0000fee1       ?add_board_variable_to_list@@YAXPAG@Z 00410ee1 f   ft2.obj
 0001:00010047       ?create_diagnostic_dialogs@@YAXXZ 00411047 f   ft2.obj
 0001:00010177       ?start_null_dialog@@YAXXZ  00411177 f   ft2.obj
 0001:000101e0       ?start_set_dac_dialog@@YAXXZ 004111e0 f   ft2.obj
 0001:00010249       ?start_valve_test_dialog@@YAXXZ 00411249 f   ft2.obj
 0001:000102b2       ?start_alarm_test_dialog@@YAXXZ 004112b2 f   ft2.obj
 0001:0001031b       ?send_data_server_down_notification@@YAXPAG@Z 0041131b f   ft2.obj
 0001:00010396       ?position_main_window@@YAXXZ 00411396 f   ft2.obj
 0001:000104fd       ?nof_ft2_boards@@YAHXZ     004114fd f   ft2.obj
 0001:00010c4c       ?get_history_length@@YAXXZ 00411c4c f   ft2.obj
 0001:00010cca       ?check_disk_free_space@@YAXXZ 00411cca f   ft2.obj
 0001:00010d0f       ?check_for_workstation@@YAXXZ 00411d0f f   ft2.obj
 0001:00010d66       ?load_resources@@YAXXZ     00411d66 f   ft2.obj
 0001:000111c4       ?shutdown@@YAXXZ           004121c4 f   ft2.obj
 0001:00061d40       __get_fname                00462d40 f   libcmtd:fpexcept.obj
 0001:00060be1       L1                         00461be1 f   libcmtd:lldiv.obj
 0001:00060bfd       L2                         00461bfd f   libcmtd:lldiv.obj
 0001:00060c19       L3                         00461c19 f   libcmtd:lldiv.obj
 0001:00060c27       L5                         00461c27 f   libcmtd:lldiv.obj
 0001:00060c55       L6                         00461c55 f   libcmtd:lldiv.obj
 0001:00060c56       L7                         00461c56 f   libcmtd:lldiv.obj
 0001:00060c5a       L4                         00461c5a f   libcmtd:lldiv.obj
 0001:00060c64       L8                         00461c64 f   libcmtd:lldiv.obj
 0001:00036020       _findenv                   00437020 f   libcmtd:setenv.obj
 0001:000360a0       _copy_environ              004370a0 f   libcmtd:setenv.obj
 0001:00035cf0       _strncnt                   00436cf0 f   libcmtd:a_cmp.obj
 0001:000354f9       hard                       004364f9 f   libcmtd:llmul.obj
 0001:000348b0       __tzset_lk                 004358b0 f   libcmtd:tzset.obj
 0001:00034c90       __isindst_lk               00435c90 f   libcmtd:tzset.obj
 0001:00034f90       _cvtdate                   00435f90 f   libcmtd:tzset.obj
 0001:000342ec       lupe                       004352ec f   libcmtd:strnicmp.obj
 0001:00034304       skip1                      00435304 f   libcmtd:strnicmp.obj
 0001:0003430e       skip2                      0043530e f   libcmtd:strnicmp.obj
 0001:00034315       eject                      00435315 f   libcmtd:strnicmp.obj
 0001:0003431f       differ                     0043531f f   libcmtd:strnicmp.obj
 0001:00034331       notclocale                 00435331 f   libcmtd:strnicmp.obj
 0001:00034345       do_lock                    00435345 f   libcmtd:strnicmp.obj
 0001:0003435e       end_lock                   0043535e f   libcmtd:strnicmp.obj
 0001:00034364       lupe2                      00435364 f   libcmtd:strnicmp.obj
 0001:0003438f       eject2                     0043538f f   libcmtd:strnicmp.obj
 0001:00034395       differ2                    00435395 f   libcmtd:strnicmp.obj
 0001:0003439e       toend2                     0043539e f   libcmtd:strnicmp.obj
 0001:000343ac       do_unlock                  004353ac f   libcmtd:strnicmp.obj
 0001:000343ba       end_unlock                 004353ba f   libcmtd:strnicmp.obj
 0001:000343ba       toend                      004353ba f   libcmtd:strnicmp.obj
 0001:0003420c       chk_null                   0043520c f   libcmtd:stricmp.obj
 0001:0003423e       done                       0043523e f   libcmtd:stricmp.obj
 0001:00034243       notclocale                 00435243 f   libcmtd:stricmp.obj
 0001:00034257       do_lock                    00435257 f   libcmtd:stricmp.obj
 0001:0003426c       end_lock                   0043526c f   libcmtd:stricmp.obj
 0001:00034274       chk_null2                  00435274 f   libcmtd:stricmp.obj
 0001:0003429f       done2                      0043529f f   libcmtd:stricmp.obj
 0001:000342af       do_unlock                  004352af f   libcmtd:stricmp.obj
 0001:000342b9       end_unlock                 004352b9 f   libcmtd:stricmp.obj
 0001:000342bb       doret                      004352bb f   libcmtd:stricmp.obj
 0001:00032f50       __expandtime               00433f50 f   libcmtd:strftime.obj
 0001:00033570       __store_str                00434570 f   libcmtd:strftime.obj
 0001:000335c0       __store_num                004345c0 f   libcmtd:strftime.obj
 0001:00033670       __store_number             00434670 f   libcmtd:strftime.obj
 0001:00033720       __store_winword            00434720 f   libcmtd:strftime.obj
 0001:00032690       _flsall                    00433690 f   libcmtd:fflush.obj
 0001:00030dc0       _TranslateName             00431dc0 f   libcmtd:getqloc.obj
 0001:00030e50       _GetLcidFromLangCountry    00431e50 f   libcmtd:getqloc.obj
 0001:00030f10       _LangCountryEnumProc@4     00431f10 f   libcmtd:getqloc.obj
 0001:00031240       _GetLcidFromLanguage       00432240 f   libcmtd:getqloc.obj
 0001:000312c0       _LanguageEnumProc@4        004322c0 f   libcmtd:getqloc.obj
 0001:000313e0       _GetLcidFromCountry        004323e0 f   libcmtd:getqloc.obj
 0001:00031430       _CountryEnumProc@4         00432430 f   libcmtd:getqloc.obj
 0001:000314e0       _GetLcidFromDefault        004324e0 f   libcmtd:getqloc.obj
 0001:00031510       _ProcessCodePage           00432510 f   libcmtd:getqloc.obj
 0001:000315b0       _TestDefaultCountry        004325b0 f   libcmtd:getqloc.obj
 0001:00031600       _TestDefaultLanguage       00432600 f   libcmtd:getqloc.obj
 0001:00031690       _IsThisWindowsNT           00432690 f   libcmtd:getqloc.obj
 0001:000316e0       _crtGetLocaleInfoA@16      004326e0 f   libcmtd:getqloc.obj
 0001:00031870       _LcidFromHexString         00432870 f   libcmtd:getqloc.obj
 0001:000318f0       _GetPrimaryLen             004328f0 f   libcmtd:getqloc.obj
 0001:00030b94       listnext                   00431b94 f   libcmtd:strpbrk.obj
 0001:00030ba1       listdone                   00431ba1 f   libcmtd:strpbrk.obj
 0001:00030ba4       dstnext                    00431ba4 f   libcmtd:strpbrk.obj
 0001:00030bb4       dstdone                    00431bb4 f   libcmtd:strpbrk.obj
 0001:00030b54       listnext                   00431b54 f   libcmtd:strcspn.obj
 0001:00030b61       listdone                   00431b61 f   libcmtd:strcspn.obj
 0001:00030b68       dstnext                    00431b68 f   libcmtd:strcspn.obj
 0001:00030b76       dstdone                    00431b76 f   libcmtd:strcspn.obj
 0001:00030ac0       dodwords                   00431ac0 f   libcmtd:strcmp.obj
 0001:00030af0       doneeq                     00431af0 f   libcmtd:strcmp.obj
 0001:00030af4       donene                     00431af4 f   libcmtd:strcmp.obj
 0001:00030afc       dopartial                  00431afc f   libcmtd:strcmp.obj
 0001:00030b18       doword                     00431b18 f   libcmtd:strcmp.obj
 0001:000303d0       __get_lc_lconv             004313d0 f   libcmtd:initmon.obj
 0001:000305e0       _fix_grouping              004315e0 f   libcmtd:initmon.obj
 0001:00030660       __free_lc_lconv            00431660 f   libcmtd:initmon.obj
 0001:00030220       _fix_grouping              00431220 f   libcmtd:initnum.obj
 0001:0002f6d0       __get_lc_time              004306d0 f   libcmtd:inittime.obj
 0001:0002fc60       __free_lc_time             00430c60 f   libcmtd:inittime.obj
 0001:0002d760       _strncnt                   0042e760 f   libcmtd:a_map.obj
 0001:0002cdf0       __setlocale_set_cat        0042ddf0 f   libcmtd:setlocal.obj
 0001:0002cf90       __setlocale_get_all        0042df90 f   libcmtd:setlocal.obj
 0001:0002c9a1       L1                         0042d9a1 f   libcmtd:ullrem.obj
 0001:0002c9af       L3                         0042d9af f   libcmtd:ullrem.obj
 0001:0002c9da       L4                         0042d9da f   libcmtd:ullrem.obj
 0001:0002c9e2       L5                         0042d9e2 f   libcmtd:ullrem.obj
 0001:0002c9f1       L2                         0042d9f1 f   libcmtd:ullrem.obj
 0001:0002c932       L1                         0042d932 f   libcmtd:ulldiv.obj
 0001:0002c940       L3                         0042d940 f   libcmtd:ulldiv.obj
 0001:0002c96e       L4                         0042d96e f   libcmtd:ulldiv.obj
 0001:0002c96f       L5                         0042d96f f   libcmtd:ulldiv.obj
 0001:0002c973       L2                         0042d973 f   libcmtd:ulldiv.obj
 0001:0002c450       _getSystemCP               0042d450 f   libcmtd:mbctype.obj
 0001:0002c4b0       _CPtoLCID                  0042d4b0 f   libcmtd:mbctype.obj
 0001:0002c530       _setSBCS                   0042d530 f   libcmtd:mbctype.obj
 0001:0002c5b0       _setSBUpLow                0042d5b0 f   libcmtd:mbctype.obj
 0001:0002c090       _x_ismbbtype               0042d090 f   libcmtd:ismbbyte.obj
 0001:0002bbe0       _write_char                0042cbe0 f   libcmtd:output.obj
 0001:0002bc60       _write_multi_char          0042cc60 f   libcmtd:output.obj
 0001:0002bca0       _write_string              0042cca0 f   libcmtd:output.obj
 0001:0002bcf0       _get_int_arg               0042ccf0 f   libcmtd:output.obj
 0001:0002bd10       _get_int64_arg             0042cd10 f   libcmtd:output.obj
 0001:0002bd30       _get_short_arg             0042cd30 f   libcmtd:output.obj
 0001:0002ab7a       okay                       0042bb7a f   libcmtd:strncmp.obj
 0001:0002ab8d       firstbig                   0042bb8d f   libcmtd:strncmp.obj
 0001:0002ab8f       lastbig                    0042bb8f f   libcmtd:strncmp.obj
 0001:0002ab91       toend                      0042bb91 f   libcmtd:strncmp.obj
 0001:0002aaf8       findnext                   0042baf8 f   libcmtd:strstr.obj
 0001:0002ab09       loop_start                 0042bb09 f   libcmtd:strstr.obj
 0001:0002ab0c       in_loop                    0042bb0c f   libcmtd:strstr.obj
 0001:0002ab14       not_found                  0042bb14 f   libcmtd:strstr.obj
 0001:0002ab1a       first_char_found           0042bb1a f   libcmtd:strstr.obj
 0001:0002ab21       two_first_chars_equal      0042bb21 f   libcmtd:strstr.obj
 0001:0002ab24       compare_loop               0042bb24 f   libcmtd:strstr.obj
 0001:0002ab47       strchr_call                0042bb47 f   libcmtd:strstr.obj
 0001:0002ab53       match                      0042bb53 f   libcmtd:strstr.obj
 0001:0002ab5a       empty_str2                 0042bb5a f   libcmtd:strstr.obj
 0001:0002aa10       _$$$00001                  0042ba10 f   libcmtd:strchr.obj
 0001:0002aa38       str_misaligned             0042ba38 f   libcmtd:strchr.obj
 0001:0002aa4b       main_loop_start            0042ba4b f   libcmtd:strchr.obj
 0001:0002aa56       main_loop                  0042ba56 f   libcmtd:strchr.obj
 0001:0002aa92       retnull                    0042ba92 f   libcmtd:strchr.obj
 0001:0002aa94       retnull_bx                 0042ba94 f   libcmtd:strchr.obj
 0001:0002aa98       chr_is_found               0042ba98 f   libcmtd:strchr.obj
 0001:0002aac0       byte_3                     0042bac0 f   libcmtd:strchr.obj
 0001:0002aac7       byte_2                     0042bac7 f   libcmtd:strchr.obj
 0001:0002aace       byte_1                     0042bace f   libcmtd:strchr.obj
 0001:0002aad5       byte_0                     0042bad5 f   libcmtd:strchr.obj
 0001:0002aa10       found_bx                   0042ba10 f   libcmtd:strchr.obj
 0001:0002a6b0       _strtoxl                   0042b6b0 f   libcmtd:strtol.obj
 0001:0002a3b0       LeadUp1                    0042b3b0 f   libcmtd:memmove.obj
 0001:0002a3dc       LeadUp2                    0042b3dc f   libcmtd:memmove.obj
 0001:0002a400       LeadUp3                    0042b400 f   libcmtd:memmove.obj
 0001:0002a47f       UnwindUp0                  0042b47f f   libcmtd:memmove.obj
 0001:0002a46c       UnwindUp1                  0042b46c f   libcmtd:memmove.obj
 0001:0002a464       UnwindUp2                  0042b464 f   libcmtd:memmove.obj
 0001:0002a45c       UnwindUp3                  0042b45c f   libcmtd:memmove.obj
 0001:0002a454       UnwindUp4                  0042b454 f   libcmtd:memmove.obj
 0001:0002a44c       UnwindUp5                  0042b44c f   libcmtd:memmove.obj
 0001:0002a444       UnwindUp6                  0042b444 f   libcmtd:memmove.obj
 0001:0002a43c       UnwindUp7                  0042b43c f   libcmtd:memmove.obj
 0001:0002a498       TrailUp0                   0042b498 f   libcmtd:memmove.obj
 0001:0002a4a0       TrailUp1                   0042b4a0 f   libcmtd:memmove.obj
 0001:0002a4ac       TrailUp2                   0042b4ac f   libcmtd:memmove.obj
 0001:0002a4c0       TrailUp3                   0042b4c0 f   libcmtd:memmove.obj
 0001:0002a538       LeadDown1                  0042b538 f   libcmtd:memmove.obj
 0001:0002a558       LeadDown2                  0042b558 f   libcmtd:memmove.obj
 0001:0002a580       LeadDown3                  0042b580 f   libcmtd:memmove.obj
 0001:0002a5d4       UnwindDown7                0042b5d4 f   libcmtd:memmove.obj
 0001:0002a5dc       UnwindDown6                0042b5dc f   libcmtd:memmove.obj
 0001:0002a5e4       UnwindDown5                0042b5e4 f   libcmtd:memmove.obj
 0001:0002a5ec       UnwindDown4                0042b5ec f   libcmtd:memmove.obj
 0001:0002a5f4       UnwindDown3                0042b5f4 f   libcmtd:memmove.obj
 0001:0002a5fc       UnwindDown2                0042b5fc f   libcmtd:memmove.obj
 0001:0002a604       UnwindDown1                0042b604 f   libcmtd:memmove.obj
 0001:0002a617       UnwindDown0                0042b617 f   libcmtd:memmove.obj
 0001:0002a630       TrailDown0                 0042b630 f   libcmtd:memmove.obj
 0001:0002a638       TrailDown1                 0042b638 f   libcmtd:memmove.obj
 0001:0002a648       TrailDown2                 0042b648 f   libcmtd:memmove.obj
 0001:0002a65c       TrailDown3                 0042b65c f   libcmtd:memmove.obj
 0001:0002a360       CopyUp                     0042b360 f   libcmtd:memmove.obj
 0001:0002a37c       CopyLeadUp                 0042b37c f   libcmtd:memmove.obj
 0001:0002a394       ByteCopyUp                 0042b394 f   libcmtd:memmove.obj
 0001:0002a39c       CopyUnwindUp               0042b39c f   libcmtd:memmove.obj
 0001:0002a4d8       CopyDown                   0042b4d8 f   libcmtd:memmove.obj
 0001:0002a500       CopyUnwindDown             0042b500 f   libcmtd:memmove.obj
 0001:0002a50c       CopyLeadDown               0042b50c f   libcmtd:memmove.obj
 0001:0002a524       ByteCopyDown               0042b524 f   libcmtd:memmove.obj
 0001:00029300       __abstract_cw              0042a300 f   libcmtd:ieee87.obj
 0001:00029480       __hw_cw                    0042a480 f   libcmtd:ieee87.obj
 0001:000295e0       __abstract_sw              0042a5e0 f   libcmtd:ieee87.obj
 0001:00029114       src_misaligned             0042a114 f   libcmtd:strncpy.obj
 0001:00029130       tail_loop_start            0042a130 f   libcmtd:strncpy.obj
 0001:00029135       copy_tail_loop             0042a135 f   libcmtd:strncpy.obj
 0001:00029142       fill_tail_end1             0042a142 f   libcmtd:strncpy.obj
 0001:0002914a       align_dest                 0042a14a f   libcmtd:strncpy.obj
 0001:00029152       dest_align_loop            0042a152 f   libcmtd:strncpy.obj
 0001:00029164       dest_align_loop_end        0042a164 f   libcmtd:strncpy.obj
 0001:0002916b       finish_loop                0042a16b f   libcmtd:strncpy.obj
 0001:0002916e       fill_tail_zero_bytes       0042a16e f   libcmtd:strncpy.obj
 0001:00029173       finish                     0042a173 f   libcmtd:strncpy.obj
 0001:00029179       main_loop                  0042a179 f   libcmtd:strncpy.obj
 0001:00029181       main_loop_entrance         0042a181 f   libcmtd:strncpy.obj
 0001:000291b7       byte_2                     0042a1b7 f   libcmtd:strncpy.obj
 0001:000291c1       byte_1                     0042a1c1 f   libcmtd:strncpy.obj
 0001:000291cb       byte_0                     0042a1cb f   libcmtd:strncpy.obj
 0001:000291cf       fill_with_EOS_dwords       0042a1cf f   libcmtd:strncpy.obj
 0001:000291d7       fill_dwords_with_EOS       0042a1d7 f   libcmtd:strncpy.obj
 0001:000291d9       fill_with_EOS_loop         0042a1d9 f   libcmtd:strncpy.obj
 0001:000291e1       fill_tail                  0042a1e1 f   libcmtd:strncpy.obj
 0001:000291e6       fill_tail_end              0042a1e6 f   libcmtd:strncpy.obj
 0001:00028cd0       _ctrlevent_capture@4       00429cd0 f   libcmtd:winsig.obj
 0001:00028fb0       _siglookup                 00429fb0 f   libcmtd:winsig.obj
 0001:000288cd       dest_misaligned            004298cd f   libcmtd:strcat.obj
 0001:000288dc       find_end_of_dest_string_loop 004298dc f   libcmtd:strcat.obj
 0001:0002890f       start_byte_3               0042990f f   libcmtd:strcat.obj
 0001:00028914       start_byte_2               00429914 f   libcmtd:strcat.obj
 0001:00028919       start_byte_1               00429919 f   libcmtd:strcat.obj
 0001:0002891e       start_byte_0               0042991e f   libcmtd:strcat.obj
 0001:0002892d       src_misaligned             0042992d f   libcmtd:strcat.obj
 0001:00028941       main_loop                  00429941 f   libcmtd:strcat.obj
 0001:00028946       main_loop_entrance         00429946 f   libcmtd:strcat.obj
 0001:0002897a       byte_3                     0042997a f   libcmtd:strcat.obj
 0001:00028982       byte_2                     00429982 f   libcmtd:strcat.obj
 0001:0002898f       byte_1                     0042998f f   libcmtd:strcat.obj
 0001:00028998       byte_0                     00429998 f   libcmtd:strcat.obj
 0001:00028921       copy_start                 00429921 f   libcmtd:strcat.obj
 0001:0002873c       str_misaligned             0042973c f   libcmtd:strlen.obj
 0001:00028750       main_loop                  00429750 f   libcmtd:strlen.obj
 0001:00028783       byte_3                     00429783 f   libcmtd:strlen.obj
 0001:0002878d       byte_2                     0042978d f   libcmtd:strlen.obj
 0001:00028797       byte_1                     00429797 f   libcmtd:strlen.obj
 0001:000287a1       byte_0                     004297a1 f   libcmtd:strlen.obj
 0001:00028490       _xtoa                      00429490 f   libcmtd:xtoa.obj
 0001:00028610       _x64toa@20                 00429610 f   libcmtd:xtoa.obj
 0001:000277c0       _parse_cmdline             004287c0 f   libcmtd:stdargv.obj
 0001:00027470       _xcptlookup                00428470 f   libcmtd:winxfltr.obj
 0001:00023143       adjust_loop                00424143 f   libcmtd:memset.obj
 0001:00023149       dwords                     00424149 f   libcmtd:memset.obj
 0001:00023163       main_loop_tail             00424163 f   libcmtd:memset.obj
 0001:00023167       tail                       00424167 f   libcmtd:memset.obj
 0001:0002316d       finish                     0042416d f   libcmtd:memset.obj
 0001:00023173       toend                      00424173 f   libcmtd:memset.obj
 0001:00022f68       _gu_return                 00423f68 f   libcmtd:exsup.obj
 0001:00022f70       __unwind_handler           00423f70 f   libcmtd:exsup.obj
 0001:00022a40       __cftoe2                   00423a40 f   libcmtd:cvt.obj
 0001:00022c20       __cftof2                   00423c20 f   libcmtd:cvt.obj
 0001:00022eb0       __shift                    00423eb0 f   libcmtd:cvt.obj
 0001:000225a0       _doexit                    004235a0 f   libcmtd:crt0dat.obj
 0001:000226b0       __initterm                 004236b0 f   libcmtd:crt0dat.obj
 0001:000221d0       _CrtMessageWindow          004231d0 f   libcmtd:dbgrpt.obj
 0001:00021b40       _fast_error_exit           00422b40 f   libcmtd:wincrt0.obj
 0001:00021840       __threadstart@4            00422840 f   libcmtd:thread.obj
 0001:000214a0       LeadUp1                    004224a0 f   libcmtd:memcpy.obj
 0001:000214cc       LeadUp2                    004224cc f   libcmtd:memcpy.obj
 0001:000214f0       LeadUp3                    004224f0 f   libcmtd:memcpy.obj
 0001:0002156f       UnwindUp0                  0042256f f   libcmtd:memcpy.obj
 0001:0002155c       UnwindUp1                  0042255c f   libcmtd:memcpy.obj
 0001:00021554       UnwindUp2                  00422554 f   libcmtd:memcpy.obj
 0001:0002154c       UnwindUp3                  0042254c f   libcmtd:memcpy.obj
 0001:00021544       UnwindUp4                  00422544 f   libcmtd:memcpy.obj
 0001:0002153c       UnwindUp5                  0042253c f   libcmtd:memcpy.obj
 0001:00021534       UnwindUp6                  00422534 f   libcmtd:memcpy.obj
 0001:0002152c       UnwindUp7                  0042252c f   libcmtd:memcpy.obj
 0001:00021588       TrailUp0                   00422588 f   libcmtd:memcpy.obj
 0001:00021590       TrailUp1                   00422590 f   libcmtd:memcpy.obj
 0001:0002159c       TrailUp2                   0042259c f   libcmtd:memcpy.obj
 0001:000215b0       TrailUp3                   004225b0 f   libcmtd:memcpy.obj
 0001:00021628       LeadDown1                  00422628 f   libcmtd:memcpy.obj
 0001:00021648       LeadDown2                  00422648 f   libcmtd:memcpy.obj
 0001:00021670       LeadDown3                  00422670 f   libcmtd:memcpy.obj
 0001:000216c4       UnwindDown7                004226c4 f   libcmtd:memcpy.obj
 0001:000216cc       UnwindDown6                004226cc f   libcmtd:memcpy.obj
 0001:000216d4       UnwindDown5                004226d4 f   libcmtd:memcpy.obj
 0001:000216dc       UnwindDown4                004226dc f   libcmtd:memcpy.obj
 0001:000216e4       UnwindDown3                004226e4 f   libcmtd:memcpy.obj
 0001:000216ec       UnwindDown2                004226ec f   libcmtd:memcpy.obj
 0001:000216f4       UnwindDown1                004226f4 f   libcmtd:memcpy.obj
 0001:00021707       UnwindDown0                00422707 f   libcmtd:memcpy.obj
 0001:00021720       TrailDown0                 00422720 f   libcmtd:memcpy.obj
 0001:00021728       TrailDown1                 00422728 f   libcmtd:memcpy.obj
 0001:00021738       TrailDown2                 00422738 f   libcmtd:memcpy.obj
 0001:0002174c       TrailDown3                 0042274c f   libcmtd:memcpy.obj
 0001:00021450       CopyUp                     00422450 f   libcmtd:memcpy.obj
 0001:0002146c       CopyLeadUp                 0042246c f   libcmtd:memcpy.obj
 0001:00021484       ByteCopyUp                 00422484 f   libcmtd:memcpy.obj
 0001:0002148c       CopyUnwindUp               0042248c f   libcmtd:memcpy.obj
 0001:000215c8       CopyDown                   004225c8 f   libcmtd:memcpy.obj
 0001:000215f0       CopyUnwindDown             004225f0 f   libcmtd:memcpy.obj
 0001:000215fc       CopyLeadDown               004225fc f   libcmtd:memcpy.obj
 0001:00021614       ByteCopyDown               00422614 f   libcmtd:memcpy.obj
 0001:0001f6a0       _realloc_help              004206a0 f   libcmtd:dbgheap.obj
 0001:000203f0       _CheckBytes                004213f0 f   libcmtd:dbgheap.obj
 0001:000211c0       __printMemBlockData        004221c0 f   libcmtd:dbgheap.obj
 0001:0001f0c0       _$$$00001                  004200c0 f   libcmtd:chkstk.obj
 0001:0001f0cc       probepages                 004200cc f   libcmtd:chkstk.obj
 0001:0001f0e0       lastpage                   004200e0 f   libcmtd:chkstk.obj
 0001:0005fdcf       ?wait_for_key@@YAXXZ       00460dcf f   v5subs:error_ms.obj
 0001:0005fdeb       ?add_string@@YAXPAG@Z      00460deb f   v5subs:error_ms.obj
 0001:0005feb9       ?add_err_number@@YAXPAGF@Z 00460eb9 f   v5subs:error_ms.obj
 0001:0005fc40       _$E5                       00460c40 f   v5subs:semaphor.obj
 0001:0005fc4f       _$E2                       00460c4f f   v5subs:semaphor.obj
 0001:0005fc5e       _$E4                       00460c5e f   v5subs:semaphor.obj
 0001:0005fc70       _$E3                       00460c70 f   v5subs:semaphor.obj
 0001:0005eb43       ?comma_count@@YAHPAG@Z     0045fb43 f   v5subs:ftanalog.obj
 0001:0005966e       ?downstate@@YAHPAG0@Z      0045a66e f   v5subs:dstat.obj
 0001:00058770       _$E5                       00459770 f   v5subs:runlist.obj
 0001:0005877f       _$E2                       0045977f f   v5subs:runlist.obj
 0001:0005878e       _$E4                       0045978e f   v5subs:runlist.obj
 0001:000587a0       _$E3                       004597a0 f   v5subs:runlist.obj
 0001:00057ef0       ?shift_index@@YAFABU_SYSTEMTIME@@@Z 00458ef0 f   v5subs:shift.obj
 0001:00058085       ?add_seconds_to_systemtime@@YAEAAU_SYSTEMTIME@@J@Z 00459085 f   v5subs:shift.obj
 0001:000581b1       ?tomorrow@@YAFF@Z          004591b1 f   v5subs:shift.obj
 0001:000581d5       ?yeasterday@@YAFF@Z        004591d5 f   v5subs:shift.obj
 0001:000583db       ?shift_from_rec@@YAXPAFFAAVDB_TABLE@@@Z 004593db f   v5subs:shift.obj
 0001:00057b2a       ?reload_dcurves@@YAEXZ     00458b2a f   v5subs:dcurve.obj
 0001:00057c86       ?cleanup_dcurves@@YAXXZ    00458c86 f   v5subs:dcurve.obj
 0001:00056fb0       _$E4                       00457fb0 f   v5subs:optocontrol.obj
 0001:00056fbf       _$E1                       00457fbf f   v5subs:optocontrol.obj
 0001:00056fce       _$E3                       00457fce f   v5subs:optocontrol.obj
 0001:00056fe0       _$E2                       00457fe0 f   v5subs:optocontrol.obj
 0001:000570fc       ?create_my_font@@YAXXZ     004580fc f   v5subs:optocontrol.obj
 0001:000572bd       ?paint_me@@YAXPAUHWND__@@J@Z 004582bd f   v5subs:optocontrol.obj
 0001:0005767e       ?paint_background@@YAXPAUHWND__@@PAUHDC__@@@Z 0045867e f   v5subs:optocontrol.obj
 0001:000576b9       ?send_click_message_to_parent@@YAXPAUHWND__@@J@Z 004586b9 f   v5subs:optocontrol.obj
 0001:00056454       ?trim_text@@YAFPAGF@Z      00457454 f   v5subs:dbsubs.obj
 0001:0005673f       ?fieldlength@@YAFPBG@Z     0045773f f   v5subs:dbsubs.obj
 0001:000568da       ?add_field_delimiter@@YAXPAG@Z 004578da f   v5subs:dbsubs.obj
 0001:00054060       _$E5                       00455060 f   v5subs:client.obj
 0001:0005406f       _$E2                       0045506f f   v5subs:client.obj
 0001:0005407e       _$E4                       0045507e f   v5subs:client.obj
 0001:00054090       _$E3                       00455090 f   v5subs:client.obj
 0001:000541f8       ?item_index@@YAFPAG@Z      004551f8 f   v5subs:client.obj
 0001:0005455c       _$E9                       0045555c f   v5subs:client.obj
 0001:0005456b       _$E8                       0045556b f   v5subs:client.obj
 0001:000547a8       ?item_index@@YAHPAUHSZ__@@@Z 004557a8 f   v5subs:client.obj
 0001:0005484a       ?find_event_topic@@YAPAUEVENT_ENTRY@@PAG@Z 0045584a f   v5subs:client.obj
 0001:000548ff       ?find_existing_event_topic@@YAPAUEVENT_ENTRY@@PAG@Z 004558ff f   v5subs:client.obj
 0001:0005494b       ?find_event_item@@YAPAUEVENT_ITEM_ENTRY@@PAUEVENT_ENTRY@@FP6AXPAGFPAUHDDEDATA__@@@Z@Z 0045594b f   v5subs:client.obj
 0001:000549dc       ?find_existing_event_item@@YAPAUEVENT_ITEM_ENTRY@@PAUEVENT_ENTRY@@F@Z 004559dc f   v5subs:client.obj
 0001:000534e4       ?is_out@@YAHMMM@Z          004544e4 f   v5subs:param.obj
 0001:00053210       _$E5                       00454210 f   v5subs:gexedir.obj
 0001:0005321f       _$E2                       0045421f f   v5subs:gexedir.obj
 0001:0005322e       _$E4                       0045422e f   v5subs:gexedir.obj
 0001:00053240       _$E3                       00454240 f   v5subs:gexedir.obj
 0001:000532a7       ?get_static_exe_directory@@YAXXZ 004542a7 f   v5subs:gexedir.obj
 0001:00052799       _$E3                       00453799 f   v5subs:ftii_file.obj
 0001:0005226f       ?numberlen@@YAFPBG@Z       0045326f f   v5subs:extract.obj
 0001:000517b0       _$E5                       004527b0 f   v5subs:computer.obj
 0001:000517bf       _$E2                       004527bf f   v5subs:computer.obj
 0001:000517ce       _$E4                       004527ce f   v5subs:computer.obj
 0001:000517e0       _$E3                       004527e0 f   v5subs:computer.obj
 0001:000517ef       _$E10                      004527ef f   v5subs:computer.obj
 0001:000517fe       _$E7                       004527fe f   v5subs:computer.obj
 0001:0005180d       _$E9                       0045280d f   v5subs:computer.obj
 0001:0005181f       _$E8                       0045281f f   v5subs:computer.obj
 0001:000510a0       _$E5                       004520a0 f   v5subs:machname.obj
 0001:000510af       _$E2                       004520af f   v5subs:machname.obj
 0001:000510be       _$E4                       004520be f   v5subs:machname.obj
 0001:000510d0       _$E3                       004520d0 f   v5subs:machname.obj
 0001:0004f850       _$E5                       00450850 f   v5subs:setpoint.obj
 0001:0004f85f       _$E2                       0045085f f   v5subs:setpoint.obj
 0001:0004f86e       _$E4                       0045086e f   v5subs:setpoint.obj
 0001:0004f880       _$E3                       00450880 f   v5subs:setpoint.obj
 0001:0004e738       _$E3                       0044f738 f   v5subs:limit_switch_class.obj
 0001:0004e9c7       _$E5                       0044f9c7 f   v5subs:limit_switch_class.obj
 0001:0004ee34       _$E7                       0044fe34 f   v5subs:limit_switch_class.obj
 0001:0004d6aa       ?file_type@@YAHPAG@Z       0044e6aa f   v5subs:exists.obj
 0001:0004d1d2       ?paint_temp_message@@YAXXZ 0044e1d2 f   v5subs:temp_message.obj
 0001:0004d274       ?position_temp_message@@YAXPAUHWND__@@@Z 0044e274 f   v5subs:temp_message.obj
 0001:0004cdd2       ?units_index@@YAFF@Z       0044ddd2 f   v5subs:units.obj
 0001:0004c631       ?create_entry@@YAPAUGENERIC_LIST_ENTRY@@PAX@Z 0044d631 f   v5subs:genlist.obj
 0001:0004c21f       ?check_for_unicode_ini_file@@YAXPBG0@Z 0044d21f f   v5subs:iniclass.obj
 0001:0004b0bf       ?leap_index@@YAHH@Z        0044c0bf f   v5subs:timeclas.obj
 0001:0004b35d       ?init_systemtime@@YAXAAU_SYSTEMTIME@@@Z 0044c35d f   v5subs:timeclas.obj
 0001:0004a410       _$E5                       0044b410 f   v5subs:nameclas.obj
 0001:0004a41f       _$E2                       0044b41f f   v5subs:nameclas.obj
 0001:0004a42e       _$E4                       0044b42e f   v5subs:nameclas.obj
 0001:0004a440       _$E3                       0044b440 f   v5subs:nameclas.obj
 0001:0004a44f       _$E8                       0044b44f f   v5subs:nameclas.obj
 0001:0004a459       _$E7                       0044b459 f   v5subs:nameclas.obj
 0001:000493cf       ?ftoasc@@YAXPAGNH@Z        0044a3cf f   v5subs:ftoasc.obj
 0001:00046bc4       ?variable_number@@YAHPBG@Z 00447bc4 f   v5subs:ftiiclas.obj
 0001:000459dc       ?long_from_text@@YAJPBG@Z  004469dc f   v5subs:fontclas.obj
 0001:00045a4d       ?goto_next_string@@YAPAGPAG@Z 00446a4d f   v5subs:fontclas.obj
 0001:00045c42       ?ascii_long@@YAPAGJ@Z      00446c42 f   v5subs:fontclas.obj
 0001:00045c55       ?ascii_long@@YAPAGJJ@Z     00446c55 f   v5subs:fontclas.obj
 0001:00045cf5       ?reverse@@YAXPAG@Z         00446cf5 f   v5subs:fontclas.obj
 0001:00045d55       ?copy_w_comma@@YAPAGPAG0@Z 00446d55 f   v5subs:fontclas.obj
 0001:000452a5       ?next_field@@YA_NAAPAG@Z   004462a5 f   v5subs:rectclas.obj
 0001:00044000       _$E5                       00445000 f   v5subs:stringtable.obj
 0001:0004400f       _$E2                       0044500f f   v5subs:stringtable.obj
 0001:0004401e       _$E4                       0044501e f   v5subs:stringtable.obj
 0001:00044030       _$E3                       00445030 f   v5subs:stringtable.obj
 0001:00044735       ?strip_whitespace_from_eol@@YAXPAG@Z 00445735 f   v5subs:stringtable.obj
 0001:00041c10       _$E5                       00442c10 f   v5subs:menuctrl.obj
 0001:00041c1f       _$E2                       00442c1f f   v5subs:menuctrl.obj
 0001:00041c2e       _$E4                       00442c2e f   v5subs:menuctrl.obj
 0001:00041c40       _$E3                       00442c40 f   v5subs:menuctrl.obj
 0001:000425ac       ?do_nothing_paint_me@@YAXPAUHWND__@@@Z 004435ac f   v5subs:menuctrl.obj
 0001:00043e57       ?get_current_colors@@YAXPAG@Z 00444e57 f   v5subs:menuctrl.obj
 0001:00043f06       ?passwordlevel@@YAHPAG@Z   00444f06 f   v5subs:menuctrl.obj
 0001:0003e5db       ?make_csv_line@@YAXAAVSTRING_CLASS@@AAUFTII_SAMPLE@@@Z 0043f5db f   v5subs:ftii_shot_data.obj
 0001:0003f5c1       ?extract_channel_from_analog@@YAHG@Z 004405c1 f   v5subs:ftii_shot_data.obj
 0001:0003f97b       ?make_csv_line@@YAXAAVSTRING_CLASS@@AAVFTII_POSITION_DATA@@@Z 0044097b f   v5subs:ftii_shot_data.obj
 0001:0003fa82       ?make_csv_line@@YAXAAVSTRING_CLASS@@AAVFTII_TIME_DATA@@@Z 00440a82 f   v5subs:ftii_shot_data.obj
 0001:0003ca10       _$E5                       0043da10 f   v5subs:asensor.obj
 0001:0003ca1f       _$E2                       0043da1f f   v5subs:asensor.obj
 0001:0003ca2e       _$E4                       0043da2e f   v5subs:asensor.obj
 0001:0003ca40       _$E3                       0043da40 f   v5subs:asensor.obj
 0001:0003d1a5       ?kill_sensor_array@@YAXXZ  0043e1a5 f   v5subs:asensor.obj
 0001:000385a3       ?get_binary_valve_settings_from_control_all@@YAXAAVMACHINE_CLASS@@@Z 004395a3 f   v5subs:machine.obj
 0001:00037022       _$E3                       00438022 f   v5subs:wclass.obj
