 ft2

 Timestamp is 4ac957ab (Sun Oct 04 22:19:23 2009)

 Preferred load address is 00400000

 Start         Length     Name                   Class
 0001:00000000 0002a786H .text                   CODE
 0002:00000000 00000354H .idata$5                DATA
 0002:00000358 00000955H .rdata                  DATA
 0002:00000cb0 00000078H .idata$2                DATA
 0002:00000d28 00000014H .idata$3                DATA
 0002:00000d3c 00000354H .idata$4                DATA
 0002:00001090 00000ce8H .idata$6                DATA
 0002:00001d78 00000000H .edata                  DATA
 0003:00000000 00000004H .CRT$XCA                DATA
 0003:00000004 00000180H .CRT$XCU                DATA
 0003:00000184 00000004H .CRT$XCZ                DATA
 0003:00000188 00000004H .CRT$XIA                DATA
 0003:0000018c 00000008H .CRT$XIC                DATA
 0003:00000194 00000004H .CRT$XIZ                DATA
 0003:00000198 00000004H .CRT$XPA                DATA
 0003:0000019c 00000004H .CRT$XPZ                DATA
 0003:000001a0 00000004H .CRT$XTA                DATA
 0003:000001a4 00000004H .CRT$XTZ                DATA
 0003:000001b0 000065f8H .data                   DATA
 0003:000067a8 00005c90H .bss                    DATA
 0004:00000000 00000a38H .rsrc$01                DATA
 0004:00000a40 00005960H .rsrc$02                DATA

  Address         Publics by Value              Rva+Base     Lib:Object

 0001:00000396       ??1MACHINE_CLASS@@QAE@XZ   00401396 f i ft2.obj
 0001:00000913       ??0FTII_VAR_ARRAY@@QAE@XZ  00401913 f i ft2.obj
 0001:00000932       ??_GFTII_VAR_ARRAY@@UAEPAXI@Z 00401932 f i ft2.obj
 0001:00000932       ??_EFTII_VAR_ARRAY@@UAEPAXI@Z 00401932 f i ft2.obj
 0001:00000d0c       ??0BIT_CONTROL@@QAE@XZ     00401d0c f i ft2.obj
 0001:00000df6       ?resource_string@@YAPADI@Z 00401df6 f   ft2.obj
 0001:000014ec       ?ascii_0_to_5_volts@@YAPADI@Z 004024ec f   ft2.obj
 0001:0000151d       ?dac_volts@@YANI@Z         0040251d f   ft2.obj
 0001:0000155b       ?ascii_dac_volts@@YAPADI@Z 0040255b f   ft2.obj
 0001:00001570       ?ascii_dac_volts_3@@YAPADI@Z 00402570 f   ft2.obj
 0001:000015bc       ?current_lvdt_feedback_index@@YAHH@Z 004025bc f   ft2.obj
 0001:000015da       ?current_raw_lvdt_feedback_index@@YAIH@Z 004025da f   ft2.obj
 0001:000015e9       ?current_measured_command_index@@YAIH@Z 004025e9 f   ft2.obj
 0001:00001607       ?get_help@@YAXXZ           00402607 f   ft2.obj
 0001:000016a1       ?push_log_message@@YAXPAD@Z 004026a1 f   ft2.obj
 0001:0000173e       ?fatal_error_string@@YAPADH@Z 0040273e f   ft2.obj
 0001:00001778       ?warning_error_string@@YAPADH@Z 00402778 f   ft2.obj
 0001:000017b2       ?resource_message_box@@YAXII@Z 004027b2 f   ft2.obj
 0001:00001824       ?ft2_control_program_name@@YAPADHAAVMACHINE_CLASS@@@Z 00402824 f   ft2.obj
 0001:00001877       ?new_downtime_callback@@YAXPADFPAUHDDEDATA__@@@Z 00402877 f   ft2.obj
 0001:000018bc       ??0DOWN_DATA_CLASS@@QAE@ABV0@@Z 004028bc f i ft2.obj
 0001:0000191a       ?edit_control_proc@@YGJPAUHWND__@@IIJ@Z 0040291a f   ft2.obj
 0001:00001b37       ?send_null_offset_to_board@@YA_NXZ 00402b37 f   ft2.obj
 0001:00001bdc       ?send_lvdt_offset_to_board@@YA_NXZ 00402bdc f   ft2.obj
 0001:00001c81       ?set_control_y@@YAXHI@Z    00402c81 f   ft2.obj
 0001:00001ce4       ?terminal_proc@@YGJPAUHWND__@@IIJ@Z 00402ce4 f   ft2.obj
 0001:000020ae       ?upload_aborted_dialog_proc@@YGHPAUHWND__@@IIJ@Z 004030ae f   ft2.obj
 0001:00002239       ?new_monitor_setup_callback@@YAXPADFPAUHDDEDATA__@@@Z 00403239 f   ft2.obj
 0001:00002ca1       ?deactivate_control_dialog_proc@@YGHPAUHWND__@@IIJ@Z 00403ca1 f   ft2.obj
 0001:00002cd5       ?load_one_machine_only@@YAXPAUHWND__@@@Z 00403cd5 f   ft2.obj
 0001:00002e5d       ?choose_monitor_machine_dialog_proc@@YGHPAUHWND__@@IIJ@Z 00403e5d f   ft2.obj
 0001:00002fac       ?send_output_bits_to_current_machine@@YAXIE@Z 00403fac f   ft2.obj
 0001:00002fe8       ?get_hires_sensor_test_config@@YAXPAUHWND__@@@Z 00403fe8 f   ft2.obj
 0001:000031f0       ?put_hires_sensor_test_config@@YAXPAUHWND__@@@Z 004041f0 f   ft2.obj
 0001:00003295       ?hires_sensor_test_dialog_proc@@YGHPAUHWND__@@IIJ@Z 00404295 f   ft2.obj
 0001:00003540       ?do_new_set_null_ascii_data@@YAXJ@Z 00404540 f   ft2.obj
 0001:00003643       ?shutdown_status_dialog_proc@@YGHPAUHWND__@@IIJ@Z 00404643 f   ft2.obj
 0001:000036d8       ?set_null_dialog_proc@@YGHPAUHWND__@@IIJ@Z 004046d8 f   ft2.obj
 0001:000039d6       ?send_set_dac_command@@YAXH@Z 004049d6 f   ft2.obj
 0001:00003dd3       ?ft2_test_dialog_proc@@YGHPAUHWND__@@IIJ@Z 00404dd3 f   ft2.obj
 0001:00004011       ?set_dac_dialog_proc@@YGHPAUHWND__@@IIJ@Z 00405011 f   ft2.obj
 0001:000047f2       ?start_if_ok_to_deactivate@@YAXAAVWINDOW_CLASS@@@Z 004057f2 f   ft2.obj
 0001:00004ce4       ?global_parameter_dialog_proc@@YGHPAUHWND__@@IIJ@Z 00405ce4 f   ft2.obj
 0001:00005308       ?ft2_volts_toascii@@YAPADPAD@Z 00406308 f   ft2.obj
 0001:0000537e       ?ascii_volts_to_ft2_volts@@YAPADPAD@Z 0040637e f   ft2.obj
 0001:0000543c       ?alt_step_text@@YAPADXZ    0040643c f   ft2.obj
 0001:000054f4       ?control_mods_dialog_proc@@YGHPAUHWND__@@IIJ@Z 004064f4 f   ft2.obj
 0001:00006424       ?valve_test_dialog_proc@@YGHPAUHWND__@@IIJ@Z 00407424 f   ft2.obj
 0001:00006ca2       ?log_als_file@@YAXAAVSTRING_CLASS@@@Z 00407ca2 f   ft2.obj
 0001:00006d29       ?update_optos@@YAXII@Z     00407d29 f   ft2.obj
 0001:00006d7b       ?need_brush@@YA_NPAUHWND__@@@Z 00407d7b f   ft2.obj
 0001:00006dbe       ?kill_log_file@@YAXXZ      00407dbe f   ft2.obj
 0001:00006ecd       ?test_alarm_outputs_dialog_proc@@YGHPAUHWND__@@IIJ@Z 00407ecd f   ft2.obj
 0001:0000703e       ?current_values_dialog_proc@@YGHPAUHWND__@@IIJ@Z 0040803e f   ft2.obj
 0001:00009519       ?output_list_dialog_proc@@YGHPAUHWND__@@IIJ@Z 0040a519 f   ft2.obj
 0001:000095c6       ?end_upload_flash_dialog@@YAXXZ 0040a5c6 f   ft2.obj
 0001:000095e0       ?upload_flash_dialog_proc@@YGHPAUHWND__@@IIJ@Z 0040a5e0 f   ft2.obj
 0001:00009619       ?poke_newshot_message@@YAXIJ@Z 0040a619 f   ft2.obj
 0001:000096dd       ?password_level_callback@@YAXPADFPAUHDDEDATA__@@@Z 0040a6dd f   ft2.obj
 0001:00009934       ?plot_min_callback@@YAXPADFPAUHDDEDATA__@@@Z 0040a934 f   ft2.obj
 0001:00009953       ?canexit@@YA_NXZ           0040a953 f   ft2.obj
 0001:000099ce       ?status_proc@@YGJPAUHWND__@@IIJ@Z 0040a9ce f   ft2.obj
 0001:0000a144       ?main_proc@@YGJPAUHWND__@@IIJ@Z 0040b144 f   ft2.obj
 0001:0000bb33       ?init@@YAEH@Z              0040cb33 f   ft2.obj
 0001:0000c2ed       _WinMain@16                0040d2ed f   ft2.obj
 0001:0000c728       ?cleanup@STDDOWN_CLASS@@QAEXXZ 0040d728 f i board_monitor.obj
 0001:0000c745       ?start_chars_are_equal@@YA_NPBD0@Z 0040d745 f   board_monitor.obj
 0001:0000c799       ?current_board_number@@YAHXZ 0040d799 f   board_monitor.obj
 0001:0000c7b6       ?current_board_index@@YAHXZ 0040d7b6 f   board_monitor.obj
 0001:0000c802       ?is_suretrak_controlled@@YAEH@Z 0040d802 f   board_monitor.obj
 0001:0000c829       ?current_channel_mode@@YAHXZ 0040d829 f   board_monitor.obj
 0001:0000c853       ?current_version_string@@YAPADXZ 0040d853 f   board_monitor.obj
 0001:0000c880       ?current_upload_file_name@@YAPADXZ 0040d880 f   board_monitor.obj
 0001:0000c8ad       ?current_version@@YAHXZ    0040d8ad f   board_monitor.obj
 0001:0000c8cb       ?wirebit@@YAIH@Z           0040d8cb f   board_monitor.obj
 0001:0000c8da       ?clear@BOARD_EXTENDED_ANALOG_ARRAY@@QAEXXZ 0040d8da f   board_monitor.obj
 0001:0000c8da       ??1BOARD_EXTENDED_ANALOG_ARRAY@@QAE@XZ 0040d8da f   board_monitor.obj
 0001:0000c8f4       ?init@BOARD_EXTENDED_ANALOG_ARRAY@@QAEEH@Z 0040d8f4 f   board_monitor.obj
 0001:0000c97d       ??0BOARD_EXTENDED_ANALOG_ENTRY@@QAE@XZ 0040d97d f i board_monitor.obj
 0001:0000c999       ??ABOARD_EXTENDED_ANALOG_ARRAY@@QAEAAUBOARD_EXTENDED_ANALOG_ENTRY@@H@Z 0040d999 f   board_monitor.obj
 0001:0000c9e5       ??0FTII_BOARD_ENTRY@@QAE@XZ 0040d9e5 f   board_monitor.obj
 0001:0000cb3b       ??0FTANALOG_CLASS@@QAE@XZ  0040db3b f i board_monitor.obj
 0001:0000cb58       ??0FTANALOG_ENTRY@@QAE@XZ  0040db58 f i board_monitor.obj
 0001:0000cb7f       ??1FTII_BOARD_ENTRY@@QAE@XZ 0040db7f f   board_monitor.obj
 0001:0000cc18       ??1FTANALOG_CLASS@@QAE@XZ  0040dc18 f i board_monitor.obj
 0001:0000cc3b       ?set_connect_state@FTII_BOARD_ENTRY@@QAEXI@Z 0040dc3b f   board_monitor.obj
 0001:0000cce9       ?put_version_string@FTII_BOARD_ENTRY@@QAEXXZ 0040dce9 f   board_monitor.obj
 0001:0000cd75       ?is_monitoring@FTII_BOARD_ENTRY@@QAE_NXZ 0040dd75 f   board_monitor.obj
 0001:0000cd7e       ?get_config_word@FTII_BOARD_ENTRY@@QAEXPAD@Z 0040dd7e f   board_monitor.obj
 0001:0000cda5       ?add_binary_to_shotdata@FTII_BOARD_ENTRY@@QAEXXZ 0040dda5 f   board_monitor.obj
 0001:0000ce3a       ?check_for_extended_channel_value@FTII_BOARD_ENTRY@@QAEXPAD@Z 0040de3a f   board_monitor.obj
 0001:0000ceb5       ?check_inputs@FTII_BOARD_ENTRY@@QAEXPAD@Z 0040deb5 f   board_monitor.obj
 0001:0000d341       ?send_socket_message@FTII_BOARD_ENTRY@@QAE_NPAD_N@Z 0040e341 f   board_monitor.obj
 0001:0000d43a       ?set_extended_analog_bits@FTII_BOARD_ENTRY@@QAEXXZ 0040e43a f   board_monitor.obj
 0001:0000d551       ?get_parameter_alarm_bits@FTII_BOARD_ENTRY@@QAEIXZ 0040e551 f   board_monitor.obj
 0001:0000d5d9       ?get_alarm_bits@FTII_BOARD_ENTRY@@QAEXXZ 0040e5d9 f   board_monitor.obj
 0001:0000d5fa       ?clear_all_alarm_bits@FTII_BOARD_ENTRY@@QAEXXZ 0040e5fa f   board_monitor.obj
 0001:0000d611       ?send_bits@FTII_BOARD_ENTRY@@QAEXI_N@Z 0040e611 f   board_monitor.obj
 0001:0000d678       ?clearwire@FTII_BOARD_ENTRY@@QAEXH@Z 0040e678 f   board_monitor.obj
 0001:0000d69c       ?setwire@FTII_BOARD_ENTRY@@QAEXH@Z 0040e69c f   board_monitor.obj
 0001:0000d6be       ?check_one_alarm@@YAXAA_NAAIMMFMM@Z 0040e6be f   board_monitor.obj
 0001:0000d750       ?current_operator@@YAPADAAVSTRING_CLASS@@0@Z 0040e750 f   board_monitor.obj
 0001:0000d7dc       ?issue_downtime_event@@YAXAAVSTRING_CLASS@@00AAU_SYSTEMTIME@@PAD2@Z 0040e7dc f   board_monitor.obj
 0001:0000d81a       ?append_downtime_record@@YAEAAVSTRING_CLASS@@00AAU_SYSTEMTIME@@PAD2@Z 0040e81a f   board_monitor.obj
 0001:0000d8ce       ?save_shot@FTII_BOARD_ENTRY@@QAEXXZ 0040e8ce f   board_monitor.obj
 0001:0000dede       ??1PART_NAME_ENTRY@@QAE@XZ 0040eede f i board_monitor.obj
 0001:0000dede       ??1PARAMETER_CLASS@@QAE@XZ 0040eede f i board_monitor.obj
 0001:0000defa       ?upload_control_file@FTII_BOARD_ENTRY@@QAE_NXZ 0040eefa f   board_monitor.obj
 0001:0000e675       ?display_board_info@@YAXXZ 0040f675 f   board_monitor.obj
 0001:0000e77a       ?position_auto_shot_display@@YAXXZ 0040f77a f   board_monitor.obj
 0001:0000e7eb       ?AutoShotDisplayProc@@YGHPAUHWND__@@IIJ@Z 0040f7eb f   board_monitor.obj
 0001:0000e8ac       ?load_the_current_machine_at_this_board@@YAXAAVFTII_BOARD_ENTRY@@@Z 0040f8ac f   board_monitor.obj
 0001:0000ef98       ?load_ftii_boards@@YAHXZ   0040ff98 f   board_monitor.obj
 0001:0000f27b       ??_EFTII_BOARD_ENTRY@@QAEPAXI@Z 0041027b f i board_monitor.obj
 0001:0000f2dc       ?check_for_down@@YAXXZ     004102dc f   board_monitor.obj
 0001:0000f4c0       ?convert_io_change_to_ascii@@YAXHPAUSOCKET_MESSAGE@@@Z 004104c0 f   board_monitor.obj
 0001:0000fa34       ?start_of_binary_data@@YAXHPAUBINARY_HEADER@@@Z 00410a34 f   board_monitor.obj
 0001:0000fb6b       ?new_data_thread@@YAXPAX@Z 00410b6b f   board_monitor.obj
 0001:0000ff84       ?get_channel_mode@@YAXHPAD@Z 00410f84 f   board_monitor.obj
 0001:00010006       ?send_thread@@YAXPAX@Z     00411006 f   board_monitor.obj
 0001:00010a1c       ?read_thread@@YAXPAX@Z     00411a1c f   board_monitor.obj
 0001:00010be2       ?begin_monitoring@@YA_NXZ  00411be2 f   board_monitor.obj
 0001:00010f78       ?stop_monitoring@@YAXXZ    00411f78 f   board_monitor.obj
 0001:000111e9       ?send_command@@YAXAAVSTRING_CLASS@@PAD_N@Z 004121e9 f   board_monitor.obj
 0001:000114bb       ?update_downtime@@YAXVDOWN_DATA_CLASS@@@Z 004124bb f   board_monitor.obj
 0001:00011605       ?get_ini_char@@YAPADPAD0@Z 00412605 f   shotsave.obj
 0001:00011651       ?init_serial_port@@YAXXZ   00412651 f   shotsave.obj
 0001:000118ae       ?nextshot@@YAEPAUSHOT_BUFFER_ENTRY@@@Z 004128ae f   shotsave.obj
 0001:00011925       ?write_ftii_parameters@@YAEPAUSHOT_BUFFER_ENTRY@@AAU_SYSTEMTIME@@G@Z 00412925 f   shotsave.obj
 0001:00011aca       ?add_to_shotsave@@YA_N_N0AAUPART_NAME_ENTRY@@AAVFTII_FILE_DATA@@AAVDOUBLE_ARRAY_CLASS@@@Z 00412aca f   shotsave.obj
 0001:00011b4a       ??0SHOT_BUFFER_ENTRY@@QAE@XZ 00412b4a f i shotsave.obj
 0001:00011b7b       ??0PROFILE_NAME_ENTRY@@QAE@XZ 00412b7b f i shotsave.obj
 0001:00011b9f       ?write_serial_port_info@@YAXPAUSHOT_BUFFER_ENTRY@@@Z 00412b9f f   shotsave.obj
 0001:00012207       ?save_shot@@YAXPAUSHOT_BUFFER_ENTRY@@@Z 00413207 f   shotsave.obj
 0001:00012bd1       ?save_all_shots@@YAXXZ     00413bd1 f   shotsave.obj
 0001:00012d11       ??1SHOT_BUFFER_ENTRY@@QAE@XZ 00413d11 f i shotsave.obj
 0001:00012d31       ??1PROFILE_NAME_ENTRY@@QAE@XZ 00413d31 f i shotsave.obj
 0001:00012d55       ?shotsave_thread@@YAXPAX@Z 00413d55 f   shotsave.obj
 0001:00013246       ?start_shotsave_thread@@YAXXZ 00414246 f   shotsave.obj
 0001:000132a5       ?skip_reset_machine@@YAEAAVSTRING_CLASS@@@Z 004142a5 f   skip.obj
 0001:000134ee       ?skip_startup@@YAEXZ       004144ee f   skip.obj
 0001:000134f1       ?skip_shutdown@@YAXXZ      004144f1 f   skip.obj
 0001:00013526       ?skip_new_shot_notify@@YAGAAVSTRING_CLASS@@U_FILETIME@@@Z 00414526 f   skip.obj
 0001:0001360a       ?max_parameters_saved@@YAJAAVSTRING_CLASS@@@Z 0041460a f   skip.obj
 0001:0001361f       ?max_profiles_saved@@YAJAAVSTRING_CLASS@@@Z 0041461f f   skip.obj
 0001:00013634       ?init@UPLOAD_COPY_CLASS@@QAEXXZ 00414634 f   upload_copy_class.obj
 0001:00013658       ??0UPLOAD_COPY_CLASS@@QAE@XZ 00414658 f   upload_copy_class.obj
 0001:0001367e       ??1UPLOAD_COPY_CLASS@@QAE@XZ 0041467e f   upload_copy_class.obj
 0001:0001369b       ?load@UPLOAD_COPY_CLASS@@QAEIVSTRING_CLASS@@00@Z 0041469b f   upload_copy_class.obj
 0001:00013795       ?save@UPLOAD_COPY_CLASS@@QAEIVSTRING_CLASS@@00@Z 00414795 f   upload_copy_class.obj
 0001:000138b6       ?isnew@UPLOAD_COPY_CLASS@@QAE_NAAVSTRING_CLASS@@@Z 004148b6 f   upload_copy_class.obj
 0001:0001396c       _DdeGetData@16             0041496c f   user32:USER32.dll
 0001:00013972       _inet_addr@4               00414972 f   wsock32:WSOCK32.dll
 0001:00013978       _htons@4                   00414978 f   wsock32:WSOCK32.dll
 0001:0001397e       _WSACleanup@0              0041497e f   wsock32:WSOCK32.dll
 0001:00013984       _closesocket@4             00414984 f   wsock32:WSOCK32.dll
 0001:0001398a       _sendto@24                 0041498a f   wsock32:WSOCK32.dll
 0001:00013990       _recvfrom@24               00414990 f   wsock32:WSOCK32.dll
 0001:00013996       _gethostbyname@4           00414996 f   wsock32:WSOCK32.dll
 0001:0001399c       _gethostname@8             0041499c f   wsock32:WSOCK32.dll
 0001:000139a2       _bind@12                   004149a2 f   wsock32:WSOCK32.dll
 0001:000139a8       _htonl@4                   004149a8 f   wsock32:WSOCK32.dll
 0001:000139ae       _WSAGetLastError@0         004149ae f   wsock32:WSOCK32.dll
 0001:000139b4       _socket@12                 004149b4 f   wsock32:WSOCK32.dll
 0001:000139ba       _WSAStartup@8              004149ba f   wsock32:WSOCK32.dll
 0001:000139c0       ?destroy@WINDOW_CLASS@@QAEXXZ 004149c0 f   v5subs:wclass.obj
 0001:000139d7       ?show@WINDOW_CLASS@@QAEXH@Z 004149d7 f   v5subs:wclass.obj
 0001:000139ec       ?enable@WINDOW_CLASS@@QAEXE@Z 004149ec f   v5subs:wclass.obj
 0001:00013a07       ?send@WINDOW_CLASS@@QAEXIIJ@Z 00414a07 f   v5subs:wclass.obj
 0001:00013a24       ?send@WINDOW_CLASS@@QAEXI@Z 00414a24 f   v5subs:wclass.obj
 0001:00013a3d       ?post@WINDOW_CLASS@@QAEXIIJ@Z 00414a3d f   v5subs:wclass.obj
 0001:00013a5a       ?post@WINDOW_CLASS@@QAEXI@Z 00414a5a f   v5subs:wclass.obj
 0001:00013a73       ?getrect@WINDOW_CLASS@@QAEHAAUtagRECT@@@Z 00414a73 f   v5subs:wclass.obj
 0001:00013a93       ?get_move_rect@WINDOW_CLASS@@QAEHAAUtagRECT@@@Z 00414a93 f   v5subs:wclass.obj
 0001:00013b24       ?style@WINDOW_CLASS@@QAEJXZ 00414b24 f   v5subs:wclass.obj
 0001:00013b37       ?move@WINDOW_CLASS@@QAEXAAUtagRECT@@@Z 00414b37 f   v5subs:wclass.obj
 0001:00013b65       ?is_visible@WINDOW_CLASS@@QAEHXZ 00414b65 f   v5subs:wclass.obj
 0001:00013b77       ?is_minimized@WINDOW_CLASS@@QAEHXZ 00414b77 f   v5subs:wclass.obj
 0001:00013b89       ?refresh@WINDOW_CLASS@@QAEXXZ 00414b89 f   v5subs:wclass.obj
 0001:00013ba8       ?set_title@WINDOW_CLASS@@QAEXPAD@Z 00414ba8 f   v5subs:wclass.obj
 0001:00013bc8       ??_EWINDOW_CLASS@@UAEPAXI@Z 00414bc8 f i v5subs:wclass.obj
 0001:00013c17       ??1LISTBOX_CLASS@@QAE@XZ   00414c17 f   v5subs:listbox.obj
 0001:00013c26       ?init@LISTBOX_CLASS@@QAEEPAUHWND__@@@Z 00414c26 f   v5subs:listbox.obj
 0001:00013c86       ?init@LISTBOX_CLASS@@QAEEPAUHWND__@@H@Z 00414c86 f   v5subs:listbox.obj
 0001:00013ca3       ?empty@LISTBOX_CLASS@@QAEXXZ 00414ca3 f   v5subs:listbox.obj
 0001:00013cba       ?check_buf_size@LISTBOX_CLASS@@AAEEH@Z 00414cba f   v5subs:listbox.obj
 0001:00013cf8       ?check_buf_size@LISTBOX_CLASS@@AAEEPAD@Z 00414cf8 f   v5subs:listbox.obj
 0001:00013d11       ?check_item_size@LISTBOX_CLASS@@AAEEH@Z 00414d11 f   v5subs:listbox.obj
 0001:00013d48       ?add@LISTBOX_CLASS@@QAEHPAD@Z 00414d48 f   v5subs:listbox.obj
 0001:00013d83       ?count@LISTBOX_CLASS@@QAEHXZ 00414d83 f   v5subs:listbox.obj
 0001:00013dac       ?set_current_index@LISTBOX_CLASS@@QAEEH@Z 00414dac f   v5subs:listbox.obj
 0001:00013dd3       ?top_index@LISTBOX_CLASS@@QAEHXZ 00414dd3 f   v5subs:listbox.obj
 0001:00013df1       ?set_top_index@LISTBOX_CLASS@@QAEEH@Z 00414df1 f   v5subs:listbox.obj
 0001:00013e18       ?item_text@LISTBOX_CLASS@@QAEPADH@Z 00414e18 f   v5subs:listbox.obj
 0001:00013e60       ?selected_index@LISTBOX_CLASS@@QAEHXZ 00414e60 f   v5subs:listbox.obj
 0001:00013e8a       ?selected_text@LISTBOX_CLASS@@QAEPADXZ 00414e8a f   v5subs:listbox.obj
 0001:00013ea8       ?visible_row_count@LISTBOX_CLASS@@QAEHXZ 00414ea8 f   v5subs:listbox.obj
 0001:00013ef9       ?init_save_counts@@YAXPAUSAVE_COUNTS@@@Z 00414ef9 f   v5subs:machine.obj
 0001:00013f11       ?init@MACHINE_CLASS@@QAEXXZ 00414f11 f   v5subs:machine.obj
 0001:00013f60       ??0MACHINE_CLASS@@QAE@XZ   00414f60 f   v5subs:machine.obj
 0001:00013f93       ?read_machset_db@MACHINE_CLASS@@QAEEAAVSTRING_CLASS@@@Z 00414f93 f   v5subs:machine.obj
 0001:00014408       ?find@MACHINE_CLASS@@QAEEAAVSTRING_CLASS@@0@Z 00415408 f   v5subs:machine.obj
 0001:0001445e       ?has_hmi@MACHINE_CLASS@@QAEEXZ 0041545e f   v5subs:machine.obj
 0001:00014467       ?empty@STRING_CLASS@@QAEXXZ 00415467 f   v5subs:stringcl.obj
 0001:00014481       ?null@STRING_CLASS@@QAEXXZ 00415481 f   v5subs:stringcl.obj
 0001:00014491       ?acquire@STRING_CLASS@@QAEEPAD@Z 00415491 f   v5subs:stringcl.obj
 0001:000144c0       ?get_ascii@STRING_CLASS@@QAEEPAD@Z 004154c0 f   v5subs:stringcl.obj
 0001:00014502       ?release@STRING_CLASS@@QAEPADXZ 00415502 f   v5subs:stringcl.obj
 0001:0001450d       ?len@STRING_CLASS@@QAEJXZ  0041550d f   v5subs:stringcl.obj
 0001:0001451f       ??0STRING_CLASS@@QAE@XZ    0041551f f   v5subs:stringcl.obj
 0001:00014529       ??0STRING_CLASS@@QAE@ABV0@@Z 00415529 f   v5subs:stringcl.obj
 0001:00014542       ??1STRING_CLASS@@QAE@XZ    00415542 f   v5subs:stringcl.obj
 0001:00014547       ?next_field@STRING_CLASS@@QAE_ND@Z 00415547 f   v5subs:stringcl.obj
 0001:000145fc       ?next_field@STRING_CLASS@@QAE_NXZ 004155fc f   v5subs:stringcl.obj
 0001:00014608       ?get_text@STRING_CLASS@@QAE_NPAUHWND__@@@Z 00415608 f   v5subs:stringcl.obj
 0001:00014659       ?set_text@STRING_CLASS@@QAE_NPAUHWND__@@@Z 00415659 f   v5subs:stringcl.obj
 0001:0001467a       ?init@STRING_CLASS@@QAEEJ@Z 0041567a f   v5subs:stringcl.obj
 0001:000146ba       ?boolean_value@STRING_CLASS@@QAEEXZ 004156ba f   v5subs:stringcl.obj
 0001:000146d9       ??4STRING_CLASS@@QAEXH@Z   004156d9 f   v5subs:stringcl.obj
 0001:00014701       ??4STRING_CLASS@@QAEXI@Z   00415701 f   v5subs:stringcl.obj
 0001:00014729       ??4STRING_CLASS@@QAEXPBD@Z 00415729 f   v5subs:stringcl.obj
 0001:00014774       ??4STRING_CLASS@@QAEXABV0@@Z 00415774 f   v5subs:stringcl.obj
 0001:00014783       ??MSTRING_CLASS@@QAEEABV0@@Z 00415783 f   v5subs:stringcl.obj
 0001:000147a9       ??8STRING_CLASS@@QAEEABV0@@Z 004157a9 f   v5subs:stringcl.obj
 0001:000147d0       ??8STRING_CLASS@@QAEEPBD@Z 004157d0 f   v5subs:stringcl.obj
 0001:000147f6       ?upsize@STRING_CLASS@@QAEEJ@Z 004157f6 f   v5subs:stringcl.obj
 0001:00014845       ?cat_w_char@STRING_CLASS@@QAEXPBDD@Z 00415845 f   v5subs:stringcl.obj
 0001:0001489b       ?cat_path@STRING_CLASS@@QAEXPBD@Z 0041589b f   v5subs:stringcl.obj
 0001:0001490e       ??YSTRING_CLASS@@QAEXD@Z   0041590e f   v5subs:stringcl.obj
 0001:00014943       ??YSTRING_CLASS@@QAEXPBD@Z 00415943 f   v5subs:stringcl.obj
 0001:00014981       ??YSTRING_CLASS@@QAEXABV0@@Z 00415981 f   v5subs:stringcl.obj
 0001:00014990       ??YSTRING_CLASS@@QAEXH@Z   00415990 f   v5subs:stringcl.obj
 0001:000149c7       ??YSTRING_CLASS@@QAEXI@Z   004159c7 f   v5subs:stringcl.obj
 0001:000149fe       ?isempty@STRING_CLASS@@QAEEXZ 004159fe f   v5subs:stringcl.obj
 0001:00014a1a       ?real_value@STRING_CLASS@@QAENXZ 00415a1a f   v5subs:stringcl.obj
 0001:00014a6f       ?find@STRING_CLASS@@QAEPADD@Z 00415a6f f   v5subs:stringcl.obj
 0001:00014a93       ?find@STRING_CLASS@@QAEPADPBD@Z 00415a93 f   v5subs:stringcl.obj
 0001:00014ab1       ?contains@STRING_CLASS@@QAE_ND@Z 00415ab1 f   v5subs:stringcl.obj
 0001:00014ac2       ?uppercase@STRING_CLASS@@QAEXXZ 00415ac2 f   v5subs:stringcl.obj
 0001:00014ad1       ?contains@STRING_CLASS@@QAE_NPBD@Z 00415ad1 f   v5subs:stringcl.obj
 0001:00014ae2       ?replace@STRING_CLASS@@QAEEPBD0@Z 00415ae2 f   v5subs:stringcl.obj
 0001:00014b87       ?strip_crlf@STRING_CLASS@@QAEXXZ 00415b87 f   v5subs:stringcl.obj
 0001:00014bc5       ?init@PART_CLASS@@QAEXXZ   00415bc5 f   v5subs:part.obj
 0001:00014cb1       ??0PART_CLASS@@QAE@XZ      00415cb1 f   v5subs:part.obj
 0001:00014cdf       ??1PART_CLASS@@QAE@XZ      00415cdf f   v5subs:part.obj
 0001:00014d06       ?read_part_setup@PART_CLASS@@QAEEAAVSTRING_CLASS@@@Z 00415d06 f   v5subs:part.obj
 0001:00014d2d       ?read_ftchan_db@PART_CLASS@@QAEEAAVSTRING_CLASS@@@Z 00415d2d f   v5subs:part.obj
 0001:00014dc8       ?read_x4_divisor@PART_CLASS@@QAEEXZ 00415dc8 f   v5subs:part.obj
 0001:00014eff       ?find@PART_CLASS@@QAEEAAVSTRING_CLASS@@00@Z 00415eff f   v5subs:part.obj
 0001:0001503d       ?plunger_area@PART_CLASS@@QAENXZ 0041603d f   v5subs:part.obj
 0001:0001506d       ?update@PART_CLASS@@QAEEXZ 0041606d f   v5subs:part.obj
 0001:000153c4       ??_EANALOG_SENSOR_ENTRY@@QAEPAXI@Z 004163c4 f i v5subs:asensor.obj
 0001:0001541f       ??0ANALOG_SENSOR_ENTRY@@QAE@XZ 0041641f f   v5subs:asensor.obj
 0001:0001546f       ??1ANALOG_SENSOR_ENTRY@@QAE@XZ 0041646f f   v5subs:asensor.obj
 0001:0001549c       ?update@ANALOG_SENSOR_ENTRY@@QAEEXZ 0041649c f   v5subs:asensor.obj
 0001:0001556e       ?get@ANALOG_SENSOR_ENTRY@@QAEEPAD@Z 0041656e f   v5subs:asensor.obj
 0001:00015696       ?converted_value@ANALOG_SENSOR_ENTRY@@QAENN@Z 00416696 f   v5subs:asensor.obj
 0001:000156a3       ?converted_value@ANALOG_SENSOR_ENTRY@@QAENI@Z 004166a3 f   v5subs:asensor.obj
 0001:000156c3       ?raw_count@ANALOG_SENSOR_ENTRY@@QAENN@Z 004166c3 f   v5subs:asensor.obj
 0001:000156ef       ??0ANALOG_SENSOR@@QAE@XZ   004166ef f   v5subs:asensor.obj
 0001:000156f5       ?shutdown@ANALOG_SENSOR@@SAXXZ 004166f5 f   v5subs:asensor.obj
 0001:0001571f       ?get@ANALOG_SENSOR@@SAEXZ  0041671f f   v5subs:asensor.obj
 0001:000158cc       ??AANALOG_SENSOR@@QAEAAUANALOG_SENSOR_ENTRY@@H@Z 004168cc f   v5subs:asensor.obj
 0001:000158ef       ??0FTII_OP_STATUS_DATA@@QAE@XZ 004168ef f   v5subs:ftii_shot_data.obj
 0001:00015970       ??8FTII_OP_STATUS_DATA@@QAE_NABU0@@Z 00416970 f   v5subs:ftii_shot_data.obj
 0001:00015b11       ??4FTII_OP_STATUS_DATA@@QAEXABU0@@Z 00416b11 f   v5subs:ftii_shot_data.obj
 0001:00015c10       ??4FTII_PARAMETERS@@QAEXABU0@@Z 00416c10 f   v5subs:ftii_shot_data.obj
 0001:00015c41       ??4FTII_POSITION_DATA@@QAEXABUFTII_SAMPLE@@@Z 00416c41 f   v5subs:ftii_shot_data.obj
 0001:00015c94       ??4FTII_TIME_DATA@@QAEXABUFTII_SAMPLE@@@Z 00416c94 f   v5subs:ftii_shot_data.obj
 0001:00015cd1       ??0FTII_NET_DATA@@QAE@XZ   00416cd1 f   v5subs:ftii_shot_data.obj
 0001:00015cf2       ?clear@FTII_NET_DATA@@QAEXXZ 00416cf2 f   v5subs:ftii_shot_data.obj
 0001:00015d23       ??1FTII_NET_DATA@@QAE@XZ   00416d23 f   v5subs:ftii_shot_data.obj
 0001:00015d28       ?set_shot_time@FTII_NET_DATA@@QAEXAAU_FILETIME@@@Z 00416d28 f   v5subs:ftii_shot_data.obj
 0001:00015d3a       ?set_time_based_points@FTII_NET_DATA@@QAEXPAUFTII_SAMPLE@@H@Z 00416d3a f   v5subs:ftii_shot_data.obj
 0001:00015d69       ?set_position_based_points@FTII_NET_DATA@@QAEXPAUFTII_SAMPLE@@H@Z 00416d69 f   v5subs:ftii_shot_data.obj
 0001:00015d98       ?set_parameters@FTII_NET_DATA@@QAEXPAUFTII_PARAMETERS@@@Z 00416d98 f   v5subs:ftii_shot_data.obj
 0001:00015db1       ??0FTII_FILE_DATA@@QAE@XZ  00416db1 f   v5subs:ftii_shot_data.obj
 0001:00015e46       ?clear@FTII_FILE_DATA@@QAEXXZ 00416e46 f   v5subs:ftii_shot_data.obj
 0001:00015ea8       ??1FTII_FILE_DATA@@QAE@XZ  00416ea8 f   v5subs:ftii_shot_data.obj
 0001:00015ead       ?move@FTII_FILE_DATA@@QAEXAAV1@@Z 00416ead f   v5subs:ftii_shot_data.obj
 0001:00015f96       ??4FTII_FILE_DATA@@QAEXABVFTII_NET_DATA@@@Z 00416f96 f   v5subs:ftii_shot_data.obj
 0001:000160f3       ?put@FTII_FILE_DATA@@QAEEAAVSTRING_CLASS@@@Z 004170f3 f   v5subs:ftii_shot_data.obj
 0001:00016398       ?set_nof_extended_analogs@FTII_FILE_DATA@@QAEXH@Z 00417398 f   v5subs:ftii_shot_data.obj
 0001:00016402       ??0FTII_ARRAY_DATA@@QAE@XZ 00417402 f   v5subs:ftii_shot_data.obj
 0001:00016445       ??_GFTII_ARRAY_DATA@@UAEPAXI@Z 00417445 f i v5subs:ftii_shot_data.obj
 0001:00016445       ??_EFTII_ARRAY_DATA@@UAEPAXI@Z 00417445 f i v5subs:ftii_shot_data.obj
 0001:00016461       ?clear@FTII_ARRAY_DATA@@QAEXXZ 00417461 f   v5subs:ftii_shot_data.obj
 0001:000164fc       ??1FTII_ARRAY_DATA@@UAE@XZ 004174fc f   v5subs:ftii_shot_data.obj
 0001:00016507       ??4FTII_ARRAY_DATA@@QAEXABVFTII_FILE_DATA@@@Z 00417507 f   v5subs:ftii_shot_data.obj
 0001:00016b10       ?interpolated_timer_count@FTII_ARRAY_DATA@@QAEIN@Z 00417b10 f   v5subs:ftii_shot_data.obj
 0001:00016b97       ?interpolated_velocity@FTII_ARRAY_DATA@@QAENN@Z 00417b97 f   v5subs:ftii_shot_data.obj
 0001:00016c8b       ?velocity_between_positions@FTII_ARRAY_DATA@@QAENNN@Z 00417c8b f   v5subs:ftii_shot_data.obj
 0001:00016d0d       ?index_from_position@FTII_ARRAY_DATA@@QAEHN@Z 00417d0d f   v5subs:ftii_shot_data.obj
 0001:00016d40       ?index_from_time@FTII_ARRAY_DATA@@QAEHN@Z 00417d40 f   v5subs:ftii_shot_data.obj
 0001:00016db2       ?clear@FTII_PROFILE@@QAEXXZ 00417db2 f   v5subs:ftii_shot_data.obj
 0001:00016e29       ??_EFTII_PARAMETER_ENTRY@@QAEPAXI@Z 00417e29 f i v5subs:ftii_shot_data.obj
 0001:00016e29       ??_EFTII_MIN_MAX_DATA@@QAEPAXI@Z 00417e29 f i v5subs:ftii_shot_data.obj
 0001:00016e4e       ??0FTII_PROFILE@@QAE@XZ    00417e4e f   v5subs:ftii_shot_data.obj
 0001:00016e8e       ??_GFTII_PROFILE@@UAEPAXI@Z 00417e8e f i v5subs:ftii_shot_data.obj
 0001:00016e8e       ??_EFTII_PROFILE@@UAEPAXI@Z 00417e8e f i v5subs:ftii_shot_data.obj
 0001:00016eaa       ??1FTII_PROFILE@@UAE@XZ    00417eaa f   v5subs:ftii_shot_data.obj
 0001:00016ec1       ?curve_index@FTII_PROFILE@@QAEHH@Z 00417ec1 f   v5subs:ftii_shot_data.obj
 0001:00016eec       ?ms_between_positions@FTII_PROFILE@@QAENNN@Z 00417eec f   v5subs:ftii_shot_data.obj
 0001:00016f3e       ?interpolated_postion_from_velocity@FTII_PROFILE@@QAENHHH@Z 00417f3e f   v5subs:ftii_shot_data.obj
 0001:00016f82       ??4FTII_PROFILE@@QAEXABVFTII_FILE_DATA@@@Z 00417f82 f   v5subs:ftii_shot_data.obj
 0001:0001719f       ?ms@FTII_PROFILE@@QAENH@Z  0041819f f   v5subs:ftii_shot_data.obj
 0001:000171d0       ?cleanup@BLOCK_MESSAGE_CLASS@@QAEXXZ 004181d0 f   v5subs:msgclas.obj
 0001:00017207       ??0BLOCK_MESSAGE_CLASS@@QAE@XZ 00418207 f   v5subs:msgclas.obj
 0001:00017214       ??1BLOCK_MESSAGE_CLASS@@QAE@XZ 00418214 f   v5subs:msgclas.obj
 0001:00017225       ?load@BLOCK_MESSAGE_CLASS@@QAEEPAD@Z 00418225 f   v5subs:msgclas.obj
 0001:00017323       ?message@BLOCK_MESSAGE_CLASS@@QAEPADJ@Z 00418323 f   v5subs:msgclas.obj
 0001:0001737d       ?to_point@@YAXAAUtagPOINT@@J@Z 0041837d f   v5subs:menuctrl.obj
 0001:00017394       ?show_submenu@MENU_CONTROL_ENTRY@@QAEXXZ 00418394 f   v5subs:menuctrl.obj
 0001:00017440       ?do_left_button_up@MENU_CONTROL_ENTRY@@QAEXIJ@Z 00418440 f   v5subs:menuctrl.obj
 0001:000174f6       ?do_left_button_down@MENU_CONTROL_ENTRY@@QAEXIJ@Z 004184f6 f   v5subs:menuctrl.obj
 0001:00017636       ?do_mousemove@MENU_CONTROL_ENTRY@@QAEXPAUHWND__@@IJ@Z 00418636 f   v5subs:menuctrl.obj
 0001:000178e1       ?menu_control_proc@@YGJPAUHWND__@@IIJ@Z 004188e1 f   v5subs:menuctrl.obj
 0001:000179a4       ?sub_menu_control_proc@@YGJPAUHWND__@@IIJ@Z 004189a4 f   v5subs:menuctrl.obj
 0001:000179ed       ??0MENU_ITEM_ENTRY@@QAE@XZ 004189ed f   v5subs:menuctrl.obj
 0001:00017a3f       ??1MENU_ITEM_ENTRY@@QAE@XZ 00418a3f f   v5subs:menuctrl.obj
 0001:00017a6a       ??_EMENU_ITEM_ENTRY@@QAEPAXI@Z 00418a6a f i v5subs:menuctrl.obj
 0001:00017ac5       ?draw_rect@MENU_ITEM_ENTRY@@QAEXPAUHDC__@@@Z 00418ac5 f   v5subs:menuctrl.obj
 0001:00017b1e       ?draw@MENU_ITEM_ENTRY@@QAEXPAUHDC__@@@Z 00418b1e f   v5subs:menuctrl.obj
 0001:00017c09       ?draw_submenu_item@MENU_ITEM_ENTRY@@QAEXPAUHDC__@@I@Z 00418c09 f   v5subs:menuctrl.obj
 0001:00017cd5       ?get@MENU_ITEM_ENTRY@@QAEEPAD@Z 00418cd5 f   v5subs:menuctrl.obj
 0001:00017d8d       ??0MENU_CONTROL_ENTRY@@QAE@XZ 00418d8d f   v5subs:menuctrl.obj
 0001:00017e3f       ??1MENU_CONTROL_ENTRY@@QAE@XZ 00418e3f f   v5subs:menuctrl.obj
 0001:00017eba       ?paint_me@MENU_CONTROL_ENTRY@@QAEXPAUHWND__@@@Z 00418eba f   v5subs:menuctrl.obj
 0001:00017f5a       ?paint_submenu@MENU_CONTROL_ENTRY@@QAEXPAUHWND__@@@Z 00418f5a f   v5subs:menuctrl.obj
 0001:0001801d       ?register_window@MENU_CONTROL_ENTRY@@SAXXZ 0041901d f   v5subs:menuctrl.obj
 0001:000180bd       ?destroy_windows@MENU_CONTROL_ENTRY@@QAEXXZ 004190bd f   v5subs:menuctrl.obj
 0001:000180fd       ?create_windows@MENU_CONTROL_ENTRY@@QAEEPADPAUHWND__@@@Z 004190fd f   v5subs:menuctrl.obj
 0001:000181e7       ?find@MENU_CONTROL_ENTRY@@QAEPAVMENU_ITEM_ENTRY@@I@Z 004191e7 f   v5subs:menuctrl.obj
 0001:00018241       ?set_checkmark@MENU_CONTROL_ENTRY@@QAEEIE@Z 00419241 f   v5subs:menuctrl.obj
 0001:0001826a       ?resize@MENU_CONTROL_ENTRY@@QAEEH@Z 0041926a f   v5subs:menuctrl.obj
 0001:000182e7       ?resize@MENU_CONTROL_ENTRY@@QAEEXZ 004192e7 f   v5subs:menuctrl.obj
 0001:000182ef       ?excel_to_csv@@YAXPAD@Z    004192ef f   v5subs:menuctrl.obj
 0001:00018323       ?read@MENU_CONTROL_ENTRY@@QAEEAAVNAME_CLASS@@H@Z 00419323 f   v5subs:menuctrl.obj
 0001:0001897c       ?cleanup@STRINGTABLE_ENTRY@@QAEXXZ 0041997c f   v5subs:stringtable.obj
 0001:000189a3       ??0SETPOINT_CLASS@@QAE@XZ  004199a3 f   v5subs:stringtable.obj
 0001:000189a3       ??0STRINGTABLE_ENTRY@@QAE@XZ 004199a3 f   v5subs:stringtable.obj
 0001:000189ad       ??1STRINGTABLE_ENTRY@@QAE@XZ 004199ad f   v5subs:stringtable.obj
 0001:000189b2       ?acquire@STRINGTABLE_ENTRY@@QAEXAAV1@@Z 004199b2 f   v5subs:stringtable.obj
 0001:000189d3       ?cleanup@STRINGTABLE_CLASS@@QAEXXZ 004199d3 f   v5subs:stringtable.obj
 0001:000189f2       ??_ESTRINGTABLE_ENTRY@@QAEPAXI@Z 004199f2 f i v5subs:stringtable.obj
 0001:00018a49       ??0STRINGTABLE_CLASS@@QAE@XZ 00419a49 f   v5subs:stringtable.obj
 0001:00018a87       ??1STRINGTABLE_CLASS@@QAE@XZ 00419a87 f   v5subs:stringtable.obj
 0001:00018aa1       ?append@STRINGTABLE_CLASS@@QAE_NAAVSTRING_CLASS@@@Z 00419aa1 f   v5subs:stringtable.obj
 0001:00018d20       ?read@STRINGTABLE_CLASS@@QAE_NAAVSTRING_CLASS@@@Z 00419d20 f   v5subs:stringtable.obj
 0001:00018d37       ?find@STRINGTABLE_CLASS@@QAEPADPAD@Z 00419d37 f   v5subs:stringtable.obj
 0001:00018db9       ??0RECTANGLE_CLASS@@QAE@XZ 00419db9 f   v5subs:rectclas.obj
 0001:00018dc9       ??4RECTANGLE_CLASS@@QAEXABV0@@Z 00419dc9 f   v5subs:rectclas.obj
 0001:00018dc9       ??4RECTANGLE_CLASS@@QAEXABUtagRECT@@@Z 00419dc9 f   v5subs:rectclas.obj
 0001:00018de6       ?contains@RECTANGLE_CLASS@@QAEEABUtagPOINT@@@Z 00419de6 f   v5subs:rectclas.obj
 0001:00018e0b       ?moveto@RECTANGLE_CLASS@@QAEXJJ@Z 00419e0b f   v5subs:rectclas.obj
 0001:00018e2c       ?offset@RECTANGLE_CLASS@@QAEXJJ@Z 00419e2c f   v5subs:rectclas.obj
 0001:00018e42       ?setsize@RECTANGLE_CLASS@@QAEXJJ@Z 00419e42 f   v5subs:rectclas.obj
 0001:00018e42       ?setsize@RECTANGLE_CLASS@@QAEXUtagSIZE@@@Z 00419e42 f   v5subs:rectclas.obj
 0001:00018e58       ?draw@RECTANGLE_CLASS@@QAEXPAUHDC__@@@Z 00419e58 f   v5subs:rectclas.obj
 0001:00018e9d       ?draw@RECTANGLE_CLASS@@QAEXPAUHDC__@@K@Z 00419e9d f   v5subs:rectclas.obj
 0001:00018ee3       ?fill@RECTANGLE_CLASS@@QAEXPAUHDC__@@PAUHBRUSH__@@@Z 00419ee3 f   v5subs:rectclas.obj
 0001:00018ef5       ?fill@RECTANGLE_CLASS@@QAEXPAUHDC__@@K@Z 00419ef5 f   v5subs:rectclas.obj
 0001:00018f38       ??0FONT_CLASS@@QAE@XZ      00419f38 f   v5subs:fontclas.obj
 0001:00018f66       ??4FONT_CLASS@@QAEXABUtagLOGFONTA@@@Z 00419f66 f   v5subs:fontclas.obj
 0001:00018fc9       ??4FONT_CLASS@@QAEXABV0@@Z 00419fc9 f   v5subs:fontclas.obj
 0001:00018fef       ??8FONT_CLASS@@QAE_NABUtagLOGFONTA@@@Z 00419fef f   v5subs:fontclas.obj
 0001:00019074       ??8FONT_CLASS@@QAE_NABV0@@Z 0041a074 f   v5subs:fontclas.obj
 0001:0001909a       ?get@FONT_CLASS@@QAE_NPAD@Z 0041a09a f   v5subs:fontclas.obj
 0001:0001927e       ??0FONT_LIST_ENTRY@@QAE@XZ 0041a27e f   v5subs:fontclas.obj
 0001:00019298       ??1FONT_LIST_ENTRY@@QAE@XZ 0041a298 f   v5subs:fontclas.obj
 0001:000192b8       ??1FONT_LIST_CLASS@@QAE@XZ 0041a2b8 f   v5subs:fontclas.obj
 0001:000192d9       ?get_handle@FONT_LIST_CLASS@@QAEPAUHFONT__@@ABVFONT_CLASS@@@Z 0041a2d9 f   v5subs:fontclas.obj
 0001:00019374       ?free_handle@FONT_LIST_CLASS@@QAEXPAUHFONT__@@@Z 0041a374 f   v5subs:fontclas.obj
 0001:000193b9       ??0AUTO_BACKUP_CLASS@@QAE@XZ 0041a3b9 f   v5subs:autoback.obj
 0001:000193cb       ??1AUTO_BACKUP_CLASS@@QAE@XZ 0041a3cb f   v5subs:autoback.obj
 0001:000193d1       ?get_backup_dir@AUTO_BACKUP_CLASS@@QAEEXZ 0041a3d1 f   v5subs:autoback.obj
 0001:0001946e       ?backup_machine@AUTO_BACKUP_CLASS@@QAEEAAVSTRING_CLASS@@@Z 0041a46e f   v5subs:autoback.obj
 0001:000195a0       ?myfindchar@@YAPBDDPBD@Z   0041a5a0 f   v5subs:ftiiclas.obj
 0001:000195be       ?myfindchar@@YAPADDPAD@Z   0041a5be f   v5subs:ftiiclas.obj
 0001:000195dc       ?get@FTII_VAR@@UAE_NPBD@Z  0041a5dc f   v5subs:ftiiclas.obj
 0001:00019648       ?is_same_variable@FTII_VAR@@QAE_NPBD@Z 0041a648 f   v5subs:ftiiclas.obj
 0001:0001965f       ?append_value@FTII_VAR@@QAE_NAAVSTRING_CLASS@@@Z 0041a65f f   v5subs:ftiiclas.obj
 0001:00019731       ?makeline@FTII_VAR@@QAE_NAAVSTRING_CLASS@@@Z 0041a731 f   v5subs:ftiiclas.obj
 0001:00019776       ?put@FTII_VAR@@UAE_NAAVSTRING_CLASS@@@Z 0041a776 f   v5subs:ftiiclas.obj
 0001:00019803       ?realval@FTII_VAR@@QAENXZ  0041a803 f   v5subs:ftiiclas.obj
 0001:0001985c       ??4FTII_VAR@@UAEXN@Z       0041a85c f   v5subs:ftiiclas.obj
 0001:000198a6       ??4FTII_VAR@@UAEXPBD@Z     0041a8a6 f   v5subs:ftiiclas.obj
 0001:00019919       ?cleanup@FTII_VAR_ARRAY@@QAEXXZ 0041a919 f   v5subs:ftiiclas.obj
 0001:0001993f       ??1FTII_VAR_ARRAY@@UAE@XZ  0041a93f f   v5subs:ftiiclas.obj
 0001:00019955       ?set@FTII_VAR@@UAEXHI@Z    0041a955 f i v5subs:ftiiclas.obj
 0001:00019966       ??4FTII_VAR@@UAEXABV0@@Z   0041a966 f i v5subs:ftiiclas.obj
 0001:00019979       ??4FTII_VAR@@UAEXI@Z       0041a979 f i v5subs:ftiiclas.obj
 0001:00019979       ??4FTII_VAR@@UAEXH@Z       0041a979 f i v5subs:ftiiclas.obj
 0001:00019983       ?get_from@FTII_VAR_ARRAY@@QAE_NAAVSTRING_CLASS@@@Z 0041a983 f   v5subs:ftiiclas.obj
 0001:00019a4f       ?get@FTII_VAR_ARRAY@@QAE_NAAVSTRING_CLASS@@@Z 0041aa4f f   v5subs:ftiiclas.obj
 0001:00019b3a       ?put_into@FTII_VAR_ARRAY@@QAE_NAAVSTRING_CLASS@@@Z 0041ab3a f   v5subs:ftiiclas.obj
 0001:00019cb3       ?put@FTII_VAR_ARRAY@@UAE_NAAVSTRING_CLASS@@@Z 0041acb3 f   v5subs:ftiiclas.obj
 0001:00019d72       ??AFTII_VAR_ARRAY@@QAEAAVFTII_VAR@@H@Z 0041ad72 f   v5subs:ftiiclas.obj
 0001:00019da9       ?find@FTII_VAR_ARRAY@@QAE_NH@Z 0041ada9 f   v5subs:ftiiclas.obj
 0001:00019dec       ?find@FTII_VAR_ARRAY@@QAE_NPAD@Z 0041adec f   v5subs:ftiiclas.obj
 0001:00019e05       ?set@FTII_VAR_ARRAY@@UAEXHI@Z 0041ae05 f   v5subs:ftiiclas.obj
 0001:00019e2e       ??4FTII_VAR_ARRAY@@UAEXABVFTII_VAR@@@Z 0041ae2e f   v5subs:ftiiclas.obj
 0001:00019e40       ??4FTII_VAR_ARRAY@@UAEXI@Z 0041ae40 f   v5subs:ftiiclas.obj
 0001:00019e62       ??4FTII_VAR_ARRAY@@UAEXH@Z 0041ae62 f   v5subs:ftiiclas.obj
 0001:00019e6e       ??4FTII_VAR_ARRAY@@UAEXN@Z 0041ae6e f   v5subs:ftiiclas.obj
 0001:00019e99       ?remove@FTII_VAR_ARRAY@@QAE_NH@Z 0041ae99 f   v5subs:ftiiclas.obj
 0001:00019f1b       ?remove@FTII_VAR_ARRAY@@QAE_NXZ 0041af1b f   v5subs:ftiiclas.obj
 0001:00019f2c       ?upsize@FTII_VAR_ARRAY@@QAE_NH@Z 0041af2c f   v5subs:ftiiclas.obj
 0001:00019fe2       ??_EFTII_VAR@@UAEPAXI@Z    0041afe2 f i v5subs:ftiiclas.obj
 0001:0001a034       ??0FIFO_CLASS@@QAE@XZ      0041b034 f   v5subs:fifo.obj
 0001:0001a04d       ??1FIFO_CLASS@@QAE@XZ      0041b04d f   v5subs:fifo.obj
 0001:0001a055       ?push@FIFO_CLASS@@QAEEPAX@Z 0041b055 f   v5subs:fifo.obj
 0001:0001a0b2       ?pop@FIFO_CLASS@@QAEPAXXZ  0041b0b2 f   v5subs:fifo.obj
 0001:0001a0fa       ?peek@FIFO_CLASS@@QAEPAXXZ 0041b0fa f   v5subs:fifo.obj
 0001:0001a108       ??0TEXT_LIST_CLASS@@QAE@XZ 0041b108 f   v5subs:textlist.obj
 0001:0001a108       ??0MACHINE_NAME_LIST_CLASS@@QAE@XZ 0041b108 f   v5subs:textlist.obj
 0001:0001a118       ?empty@TEXT_LIST_CLASS@@QAEXXZ 0041b118 f   v5subs:textlist.obj
 0001:0001a143       ?next@TEXT_LIST_CLASS@@QAEEXZ 0041b143 f   v5subs:textlist.obj
 0001:0001a143       ?next@MACHINE_NAME_LIST_CLASS@@QAEEXZ 0041b143 f   v5subs:textlist.obj
 0001:0001a157       ?remove@TEXT_LIST_CLASS@@QAEEXZ 0041b157 f   v5subs:textlist.obj
 0001:0001a17a       ?append@TEXT_LIST_CLASS@@QAEEPADJ@Z 0041b17a f   v5subs:textlist.obj
 0001:0001a1e8       ??1TEXT_LIST_CLASS@@QAE@XZ 0041b1e8 f   v5subs:textlist.obj
 0001:0001a1fa       ?get_directory_list@TEXT_LIST_CLASS@@QAEXPBD@Z 0041b1fa f   v5subs:textlist.obj
 0001:0001a297       ?resource_string@@YAPADPAUHINSTANCE__@@I@Z 0041b297 f   v5subs:winsubs.obj
 0001:0001a2c5       ?desktop_client_rect@@YA?AUtagRECT@@XZ 0041b2c5 f   v5subs:winsubs.obj
 0001:0001a350       ?is_previous_instance@@YAEPAD0@Z 0041b350 f   v5subs:winsubs.obj
 0001:0001a37d       ?set_menu_view_state@@YAXAAEPAUHWND__@@I@Z 0041b37d f   v5subs:winsubs.obj
 0001:0001a3a5       ?get_text@@YAEPADPAUHWND__@@H@Z 0041b3a5 f   v5subs:winsubs.obj
 0001:0001a3cc       ?set_text@@YAEPAUHWND__@@PBD@Z 0041b3cc f   v5subs:winsubs.obj
 0001:0001a3f0       ?set_text@@YAEPAUHWND__@@HPBD@Z 0041b3f0 f   v5subs:winsubs.obj
 0001:0001a40b       ?is_checked@@YAEPAUHWND__@@H@Z 0041b40b f   v5subs:winsubs.obj
 0001:0001a421       ?is_checked@@YAEPAUHWND__@@@Z 0041b421 f   v5subs:winsubs.obj
 0001:0001a43c       ?set_checkbox@@YAXPAUHWND__@@E@Z 0041b43c f   v5subs:winsubs.obj
 0001:0001a458       ?resource_message_box@@YAHPAUHWND__@@PAUHINSTANCE__@@III@Z 0041b458 f   v5subs:winsubs.obj
 0001:0001a4b9       ?resource_message_box@@YAHPAUHINSTANCE__@@III@Z 0041b4b9 f   v5subs:winsubs.obj
 0001:0001a4d4       ?is_a_listbox@@YAEPAUHWND__@@@Z 0041b4d4 f   v5subs:winsubs.obj
 0001:0001a51c       ?character_height@@YAJPAUHDC__@@@Z 0041b51c f   v5subs:winsubs.obj
 0001:0001a534       ?average_character_width@@YAJPAUHDC__@@@Z 0041b534 f   v5subs:winsubs.obj
 0001:0001a54c       ?pixel_width@@YAJPAUHDC__@@PAD@Z 0041b54c f   v5subs:winsubs.obj
 0001:0001a570       ?free_kilobytes@@YAJPBD@Z  0041b570 f   v5subs:winsubs.obj
 0001:0001a5e1       ?is_windows_nt@@YAEXZ      0041b5e1 f   v5subs:winsubs.obj
 0001:0001a60d       ?fixed_string@@YAPADNJJ@Z  0041b60d f   v5subs:ftoasc.obj
 0001:0001a7e2       ?ftoasc@@YAXPADN@Z         0041b7e2 f   v5subs:ftoasc.obj
 0001:0001a7fa       ?unknown@@YAEPAD@Z         0041b7fa f   v5subs:misc.obj
 0001:0001a810       ?unknown_string@@YAPADXZ   0041b810 f   v5subs:misc.obj
 0001:0001a816       ?round@@YANNN@Z            0041b816 f   v5subs:misc.obj
 0001:0001a848       ?mask_from_wire@@YAII@Z    0041b848 f   v5subs:misc.obj
 0001:0001a857       ?wire_from_mask@@YAII@Z    0041b857 f   v5subs:misc.obj
 0001:0001a86c       ?ascii_double@@YAPADN@Z    0041b86c f   v5subs:ascfloat.obj
 0001:0001a888       ?ascii_float@@YAPADM@Z     0041b888 f   v5subs:ascfloat.obj
 0001:0001a899       ?cleanup_memory@FILE_CLASS@@QAEXXZ 0041b899 f   v5subs:fileclas.obj
 0001:0001a8c4       ?cleanup@FILE_CLASS@@QAEXXZ 0041b8c4 f   v5subs:fileclas.obj
 0001:0001a8f2       ??0FILE_CLASS@@QAE@XZ      0041b8f2 f   v5subs:fileclas.obj
 0001:0001a916       ?make_path@FILE_CLASS@@QAEEPAD@Z 0041b916 f   v5subs:fileclas.obj
 0001:0001a95f       ?open@FILE_CLASS@@QAEEPADK@Z 0041b95f f   v5subs:fileclas.obj
 0001:0001a9e5       ?open_for_write@FILE_CLASS@@QAEEPAD@Z 0041b9e5 f   v5subs:fileclas.obj
 0001:0001a9fe       ?open_for_write@FILE_CLASS@@QAEEAAVSTRING_CLASS@@@Z 0041b9fe f   v5subs:fileclas.obj
 0001:0001aa17       ?open_for_read@FILE_CLASS@@QAEEPAD@Z 0041ba17 f   v5subs:fileclas.obj
 0001:0001aa31       ?open_for_read@FILE_CLASS@@QAEEAAVSTRING_CLASS@@@Z 0041ba31 f   v5subs:fileclas.obj
 0001:0001aa4a       ?open_for_append@FILE_CLASS@@QAEEPAD@Z 0041ba4a f   v5subs:fileclas.obj
 0001:0001aa80       ??1FILE_CLASS@@QAE@XZ      0041ba80 f   v5subs:fileclas.obj
 0001:0001aa80       ?close@FILE_CLASS@@QAEXXZ  0041ba80 f   v5subs:fileclas.obj
 0001:0001aa85       ?setpos@FILE_CLASS@@QAEEJ@Z 0041ba85 f   v5subs:fileclas.obj
 0001:0001aac8       ?writebinary@FILE_CLASS@@QAEEPAXK@Z 0041bac8 f   v5subs:fileclas.obj
 0001:0001ab2a       ?writeline@FILE_CLASS@@QAEEPAD@Z 0041bb2a f   v5subs:fileclas.obj
 0001:0001abb7       ?writeline@FILE_CLASS@@QAEEAAVSTRING_CLASS@@@Z 0041bbb7 f   v5subs:fileclas.obj
 0001:0001abd0       ?readbinary@FILE_CLASS@@QAEKPAXK@Z 0041bbd0 f   v5subs:fileclas.obj
 0001:0001ac34       ?readline@FILE_CLASS@@QAEPADXZ 0041bc34 f   v5subs:fileclas.obj
 0001:0001ad25       ?nof_lines@FILE_CLASS@@QAEHXZ 0041bd25 f   v5subs:fileclas.obj
 0001:0001adbb       ?get_creation_time@FILE_CLASS@@QAEEPAU_FILETIME@@@Z 0041bdbb f   v5subs:fileclas.obj
 0001:0001ae18       ?convert_to_data_dir@NAME_CLASS@@QAEEXZ 0041be18 f   v5subs:nameclas.obj
 0001:0001ae5d       ?get_exe_dir_file_name@NAME_CLASS@@QAEEAAVSTRING_CLASS@@PBD@Z 0041be5d f   v5subs:nameclas.obj
 0001:0001aea0       ?get_exe_dir_file_name@NAME_CLASS@@QAEEPBD@Z 0041bea0 f   v5subs:nameclas.obj
 0001:0001aed9       ?get_stringtable_name@NAME_CLASS@@QAEEPBD@Z 0041bed9 f   v5subs:nameclas.obj
 0001:0001af2a       ?get_data_dir_file_name@NAME_CLASS@@QAEEAAVSTRING_CLASS@@PBD@Z 0041bf2a f   v5subs:nameclas.obj
 0001:0001af6d       ?get_data_dir_file_name@NAME_CLASS@@QAEEPBD@Z 0041bf6d f   v5subs:nameclas.obj
 0001:0001af8a       ?get_machine_dir_file_name@NAME_CLASS@@QAEEAAVSTRING_CLASS@@0PBD@Z 0041bf8a f   v5subs:nameclas.obj
 0001:0001afd3       ?get_part_dir_file_name@NAME_CLASS@@QAEEAAVSTRING_CLASS@@00PBD@Z 0041bfd3 f   v5subs:nameclas.obj
 0001:0001b01f       ?get_part_results_dir_file_name@NAME_CLASS@@QAEEAAVSTRING_CLASS@@00PBD@Z 0041c01f f   v5subs:nameclas.obj
 0001:0001b060       ?get_machine_results_dir_file_name@NAME_CLASS@@QAEEAAVSTRING_CLASS@@0PBD@Z 0041c060 f   v5subs:nameclas.obj
 0001:0001b09e       ?get_profile_name@NAME_CLASS@@QAEEAAVSTRING_CLASS@@00PBD1@Z 0041c09e f   v5subs:nameclas.obj
 0001:0001b0fd       ?get_profile_name@NAME_CLASS@@QAEEAAVSTRING_CLASS@@00JPBD@Z 0041c0fd f   v5subs:nameclas.obj
 0001:0001b140       ??ZTIME_CLASS@@QAEXK@Z     0041c140 f   v5subs:timeclas.obj
 0001:0001b156       ??GTIME_CLASS@@QAEJABV0@@Z 0041c156 f   v5subs:timeclas.obj
 0001:0001b163       ?get_local_time@TIME_CLASS@@QAEXXZ 0041c163 f   v5subs:timeclas.obj
 0001:0001b184       ?set@TIME_CLASS@@QAEEABU_SYSTEMTIME@@@Z 0041c184 f   v5subs:timeclas.obj
 0001:0001b258       ?set@TIME_CLASS@@QAEEABU_FILETIME@@@Z 0041c258 f   v5subs:timeclas.obj
 0001:0001b280       ?get@TIME_CLASS@@QAEEAAU_SYSTEMTIME@@@Z 0041c280 f   v5subs:timeclas.obj
 0001:0001b3b4       ?system_time@TIME_CLASS@@QAEAAU_SYSTEMTIME@@XZ 0041c3b4 f   v5subs:timeclas.obj
 0001:0001b3c4       ?file_time@TIME_CLASS@@QAEAAU_FILETIME@@XZ 0041c3c4 f   v5subs:timeclas.obj
 0001:0001b3f0       ?text@TIME_CLASS@@QAEPADXZ 0041c3f0 f   v5subs:timeclas.obj
 0001:0001b441       ?mmddyyyy@TIME_CLASS@@QAEPADXZ 0041c441 f   v5subs:timeclas.obj
 0001:0001b474       ?hhmmss@TIME_CLASS@@QAEPADXZ 0041c474 f   v5subs:timeclas.obj
 0001:0001b4a7       ??4TIME_CLASS@@QAEXPBD@Z   0041c4a7 f   v5subs:timeclas.obj
 0001:0001b503       ??0DOWN_DATA_CLASS@@QAE@XZ 0041c503 f   v5subs:evclass.obj
 0001:0001b55f       ?set@DOWN_DATA_CLASS@@QAEEPAUHDDEDATA__@@@Z 0041c55f f   v5subs:evclass.obj
 0001:0001b6fd       ?cleanup@INI_CLASS@@QAEXXZ 0041c6fd f   v5subs:iniclass.obj
 0001:0001b736       ??1INI_CLASS@@QAE@XZ       0041c736 f   v5subs:iniclass.obj
 0001:0001b73b       ?set_file@INI_CLASS@@QAEEPBD@Z 0041c73b f   v5subs:iniclass.obj
 0001:0001b77d       ?set_section@INI_CLASS@@QAEEPBD@Z 0041c77d f   v5subs:iniclass.obj
 0001:0001b7b0       ?find@INI_CLASS@@QAEEPBD0@Z 0041c7b0 f   v5subs:iniclass.obj
 0001:0001b810       ?find@INI_CLASS@@QAEEPBD@Z 0041c810 f   v5subs:iniclass.obj
 0001:0001b828       ?get_string@INI_CLASS@@QAEPADXZ 0041c828 f   v5subs:iniclass.obj
 0001:0001b835       ?get_string@INI_CLASS@@QAEPADPBD@Z 0041c835 f   v5subs:iniclass.obj
 0001:0001b85d       ?get_boolean@INI_CLASS@@QAEEXZ 0041c85d f   v5subs:iniclass.obj
 0001:0001b87c       ?get_boolean@INI_CLASS@@QAEEPBD0@Z 0041c87c f   v5subs:iniclass.obj
 0001:0001b89f       ?get_boolean@INI_CLASS@@QAEEPBD@Z 0041c89f f   v5subs:iniclass.obj
 0001:0001b8b7       ?get_int@INI_CLASS@@QAEHXZ 0041c8b7 f   v5subs:iniclass.obj
 0001:0001b8c8       ?get_int@INI_CLASS@@QAEHPBD0@Z 0041c8c8 f   v5subs:iniclass.obj
 0001:0001b8eb       ?get_int@INI_CLASS@@QAEHPBD@Z 0041c8eb f   v5subs:iniclass.obj
 0001:0001b903       ?get_ul@INI_CLASS@@QAEKXZ  0041c903 f   v5subs:iniclass.obj
 0001:0001b914       ?get_ul@INI_CLASS@@QAEKPBD@Z 0041c914 f   v5subs:iniclass.obj
 0001:0001b92b       ?put_string@INI_CLASS@@QAEEPBD00@Z 0041c92b f   v5subs:iniclass.obj
 0001:0001b96e       ?put_string@INI_CLASS@@QAEEPBD0@Z 0041c96e f   v5subs:iniclass.obj
 0001:0001b98a       ?put_boolean@INI_CLASS@@QAEEPBD0E@Z 0041c98a f   v5subs:iniclass.obj
 0001:0001b9b5       ?put_int@INI_CLASS@@QAEEPBDH@Z 0041c9b5 f   v5subs:iniclass.obj
 0001:0001b9e2       ??1GENERIC_LIST_CLASS@@QAE@XZ 0041c9e2 f   v5subs:genlist.obj
 0001:0001ba04       ?append@GENERIC_LIST_CLASS@@QAEEPAX@Z 0041ca04 f   v5subs:genlist.obj
 0001:0001ba4c       ?insert@GENERIC_LIST_CLASS@@QAEEPAX@Z 0041ca4c f   v5subs:genlist.obj
 0001:0001ba93       ?next@GENERIC_LIST_CLASS@@QAEPAXXZ 0041ca93 f   v5subs:genlist.obj
 0001:0001babd       ?find@GENERIC_LIST_CLASS@@QAEEPAX@Z 0041cabd f   v5subs:genlist.obj
 0001:0001baf2       ?rewind@GENERIC_LIST_CLASS@@QAEXXZ 0041caf2 f   v5subs:genlist.obj
 0001:0001bafb       ?remove@GENERIC_LIST_CLASS@@QAEEXZ 0041cafb f   v5subs:genlist.obj
 0001:0001bb2a       ?remove@GENERIC_LIST_CLASS@@QAEEPAX@Z 0041cb2a f   v5subs:genlist.obj
 0001:0001bb49       ?remove_all@GENERIC_LIST_CLASS@@QAEXXZ 0041cb49 f   v5subs:genlist.obj
 0001:0001bb73       ?count@GENERIC_LIST_CLASS@@QAEFXZ 0041cb73 f   v5subs:genlist.obj
 0001:0001bb81       ?units_shutdown@@YAXXZ     0041cb81 f   v5subs:units.obj
 0001:0001bb99       ?units_startup@@YAEXZ      0041cb99 f   v5subs:units.obj
 0001:0001bcf6       ?units_name@@YAPADF@Z      0041ccf6 f   v5subs:units.obj
 0001:0001bd4b       ?fix_dde_name@@YAXPAD@Z    0041cd4b f   v5subs:fix.obj
 0001:0001bd74       ?temp_message_proc@@YGJPAUHWND__@@IIJ@Z 0041cd74 f   v5subs:temp_message.obj
 0001:0001bfd7       ?register_temp_message@@YAXXZ 0041cfd7 f   v5subs:temp_message.obj
 0001:0001c03a       ?temp_message@@YAXPADH@Z   0041d03a f   v5subs:temp_message.obj
 0001:0001c0f0       ?temp_message@@YAXPAD@Z    0041d0f0 f   v5subs:temp_message.obj
 0001:0001c101       ?kill_temp_message@@YAXXZ  0041d101 f   v5subs:temp_message.obj
 0001:0001c112       ?get_drive_name@@YAEPAD@Z  0041d112 f   v5subs:exists.obj
 0001:0001c141       ?is_removable@@YAEPAD@Z    0041d141 f   v5subs:exists.obj
 0001:0001c16b       ?disk_is_in_drive@@YAEPAD@Z 0041d16b f   v5subs:exists.obj
 0001:0001c1a3       ?file_exists@@YAEPAD@Z     0041d1a3 f   v5subs:exists.obj
 0001:0001c229       ?directory_exists@@YAEPAD@Z 0041d229 f   v5subs:exists.obj
 0001:0001c24c       ?file_size@@YAJPAD@Z       0041d24c f   v5subs:exists.obj
 0001:0001c27f       ?init@PRESSURE_CONTROL_CLASS@@QAEXXZ 0041d27f f   v5subs:stpres.obj
 0001:0001c30a       ??0PRESSURE_CONTROL_CLASS@@QAE@XZ 0041d30a f   v5subs:stpres.obj
 0001:0001c367       ??0PRES_CONTROL_STEP_ENTRY@@QAE@XZ 0041d367 f i v5subs:stpres.obj
 0001:0001c383       ??1PRESSURE_CONTROL_CLASS@@QAE@XZ 0041d383 f   v5subs:stpres.obj
 0001:0001c3da       ??1PRES_CONTROL_STEP_ENTRY@@QAE@XZ 0041d3da f i v5subs:stpres.obj
 0001:0001c3f6       ?find@PRESSURE_CONTROL_CLASS@@QAEEAAVSTRING_CLASS@@00@Z 0041d3f6 f   v5subs:stpres.obj
 0001:0001c6c3       ?cleanup@SETPOINT_CLASS@@QAEXXZ 0041d6c3 f   v5subs:setpoint.obj
 0001:0001c6de       ??_ESETPOINT_ENTRY@@QAEPAXI@Z 0041d6de f i v5subs:setpoint.obj
 0001:0001c750       ??1SETPOINT_CLASS@@QAE@XZ  0041d750 f   v5subs:setpoint.obj
 0001:0001c755       ?setsize@SETPOINT_CLASS@@QAEEH@Z 0041d755 f   v5subs:setpoint.obj
 0001:0001c846       ?getfrom@SETPOINT_CLASS@@QAEHAAVSTRING_CLASS@@@Z 0041d846 f   v5subs:setpoint.obj
 0001:0001c939       ?get@SETPOINT_CLASS@@QAEHAAVSTRING_CLASS@@@Z 0041d939 f   v5subs:setpoint.obj
 0001:0001c950       ?get_one_value@SETPOINT_CLASS@@QAEEAAVSTRING_CLASS@@0H@Z 0041d950 f   v5subs:setpoint.obj
 0001:0001c9d2       ??ASETPOINT_CLASS@@QAEAAUSETPOINT_ENTRY@@H@Z 0041d9d2 f   v5subs:setpoint.obj
 0001:0001c9ee       ?put@SETPOINT_CLASS@@QAEEAAVSTRING_CLASS@@@Z 0041d9ee f   v5subs:setpoint.obj
 0001:0001cac4       ?upper_case@@YAXAAD@Z      0041dac4 f   v5subs:mem.obj
 0001:0001cae3       ?upper_case@@YAXPAD@Z      0041dae3 f   v5subs:mem.obj
 0001:0001cb09       ?ul_to_char@@YADK@Z        0041db09 f   v5subs:mem.obj
 0001:0001cb0e       ?unicode_to_char@@YAXPAD0@Z 0041db0e f   v5subs:mem.obj
 0001:0001cb2c       ?char_to_tchar@@YAXPAD0H@Z 0041db2c f   v5subs:mem.obj
 0001:0001cb55       ?fillchars@@YAXPADDF@Z     0041db55 f   v5subs:mem.obj
 0001:0001cb89       ?countchars@@YAJDPBD@Z     0041db89 f   v5subs:mem.obj
 0001:0001cba0       ?findchar@@YAPADDPADF@Z    0041dba0 f   v5subs:mem.obj
 0001:0001cba0       ?findchar@@YAPBDDPBDF@Z    0041dba0 f   v5subs:mem.obj
 0001:0001cbc7       ?findstring@@YAPADPBDPAD@Z 0041dbc7 f   v5subs:mem.obj
 0001:0001cc2d       ?findchar@@YAPBDDPBD@Z     0041dc2d f   v5subs:mem.obj
 0001:0001cc2d       ?findchar@@YAPADDPAD@Z     0041dc2d f   v5subs:mem.obj
 0001:0001cc49       ?copychars@@YAXPADPBDF@Z   0041dc49 f   v5subs:mem.obj
 0001:0001cc6a       ?charlen@@YAFPBDF@Z        0041dc6a f   v5subs:mem.obj
 0001:0001cc86       ?copyfromstr@@YAXPADPBDF@Z 0041dc86 f   v5subs:mem.obj
 0001:0001ccc7       ?compare@@YAFPBD0F@Z       0041dcc7 f   v5subs:mem.obj
 0001:0001cd28       ?strings_are_equal@@YAEPBD0F@Z 0041dd28 f   v5subs:mem.obj
 0001:0001cd44       ?strings_are_equal@@YAEPBD0@Z 0041dd44 f   v5subs:mem.obj
 0001:0001cd75       ?copystring@@YAPADPADPBD@Z 0041dd75 f   v5subs:mem.obj
 0001:0001cd9f       ?catstring@@YAPADPADPBD@Z  0041dd9f f   v5subs:mem.obj
 0001:0001cdbc       ?copystring@@YAPADPADPBDH@Z 0041ddbc f   v5subs:mem.obj
 0001:0001cdf1       ?nextstring@@YAPADPAD@Z    0041ddf1 f   v5subs:mem.obj
 0001:0001ce03       ?replace_char_with_null@@YAEPADPBD@Z 0041de03 f   v5subs:mem.obj
 0001:0001ce40       ?replace_char_with_null@@YAEPADD@Z 0041de40 f   v5subs:mem.obj
 0001:0001ce6d       ?replace_tab_with_null@@YAEPAD@Z 0041de6d f   v5subs:mem.obj
 0001:0001ce7f       ?copy_w_char@@YAPADPAD0D@Z 0041de7f f   v5subs:mem.obj
 0001:0001ce96       ?killtext@@YAXPAD@Z        0041de96 f   v5subs:mem.obj
 0001:0001cea8       ?maketext@@YAPADJ@Z        0041dea8 f   v5subs:mem.obj
 0001:0001cec1       ?maketext@@YAPADPBDJ@Z     0041dec1 f   v5subs:mem.obj
 0001:0001cef4       ?maketext@@YAPADPBD@Z      0041def4 f   v5subs:mem.obj
 0001:0001cf02       ?maketext_from_char@@YAPADPADH@Z 0041df02 f   v5subs:mem.obj
 0001:0001cf42       ?insert_char@@YAXPADD@Z    0041df42 f   v5subs:mem.obj
 0001:0001cf66       ?move_string_forward@@YAXPADH@Z 0041df66 f   v5subs:mem.obj
 0001:0001cf96       ?remove_char@@YAXPAD@Z     0041df96 f   v5subs:mem.obj
 0001:0001cfb0       ?remove_all_occurances@@YAXPADD@Z 0041dfb0 f   v5subs:mem.obj
 0001:0001cfd3       ?trim@@YAXPAD@Z            0041dfd3 f   v5subs:mem.obj
 0001:0001cffd       ?strip@@YAXPAD@Z           0041dffd f   v5subs:mem.obj
 0001:0001d052       ?add_computer@MACHINE_NAME_LIST_CLASS@@QAEEAAVSTRING_CLASS@@@Z 0041e052 f   v5subs:machname.obj
 0001:0001d1a2       ?empty@MACHINE_NAME_LIST_CLASS@@QAEXXZ 0041e1a2 f   v5subs:machname.obj
 0001:0001d1e0       ?name@MACHINE_NAME_LIST_CLASS@@QAEAAVSTRING_CLASS@@XZ 0041e1e0 f   v5subs:machname.obj
 0001:0001d1f0       ?computer_name@MACHINE_NAME_LIST_CLASS@@QAEAAVSTRING_CLASS@@XZ 0041e1f0 f   v5subs:machname.obj
 0001:0001d1fc       ??1MACHINE_NAME_LIST_CLASS@@QAE@XZ 0041e1fc f   v5subs:machname.obj
 0001:0001d262       ??0COMPUTER_CLASS@@QAE@XZ  0041e262 f   v5subs:computer.obj
 0001:0001d271       ?empty@COMPUTER_CLASS@@QAEXXZ 0041e271 f   v5subs:computer.obj
 0001:0001d2a9       ?load@COMPUTER_CLASS@@QAEEXZ 0041e2a9 f   v5subs:computer.obj
 0001:0001d3d4       ?startup@COMPUTER_CLASS@@QAEEXZ 0041e3d4 f   v5subs:computer.obj
 0001:0001d3ea       ?whoami@COMPUTER_CLASS@@QAEAAVSTRING_CLASS@@XZ 0041e3ea f   v5subs:computer.obj
 0001:0001d3f0       ?is_this_computer@COMPUTER_CLASS@@QAEEXZ 0041e3f0 f   v5subs:computer.obj
 0001:0001d40d       ?find@COMPUTER_CLASS@@QAEEPAD@Z 0041e40d f   v5subs:computer.obj
 0001:0001d43c       ?rewind@COMPUTER_CLASS@@QAEXXZ 0041e43c f   v5subs:computer.obj
 0001:0001d442       ?next@COMPUTER_CLASS@@QAEEXZ 0041e442 f   v5subs:computer.obj
 0001:0001d462       ?name@COMPUTER_CLASS@@QAEAAVSTRING_CLASS@@XZ 0041e462 f   v5subs:computer.obj
 0001:0001d472       ?add@COMPUTER_CLASS@@QAEEPAD@Z 0041e472 f   v5subs:computer.obj
 0001:0001d52a       ?is_present@COMPUTER_CLASS@@QAEEXZ 0041e52a f   v5subs:computer.obj
 0001:0001d556       ?is_hex_char@@YAED@Z       0041e556 f   v5subs:hex.obj
 0001:0001d576       ?ultohex@@YAXPADK@Z        0041e576 f   v5subs:hex.obj
 0001:0001d589       ?hextoul@@YAKPBD@Z         0041e589 f   v5subs:hex.obj
 0001:0001d5e6       ?is_real_char@@YAED@Z      0041e5e6 f   v5subs:extract.obj
 0001:0001d618       ?extdouble@@YANPBDF@Z      0041e618 f   v5subs:extract.obj
 0001:0001d662       ?extfloat@@YAMPBD@Z        0041e662 f   v5subs:extract.obj
 0001:0001d6de       ?extlong@@YAJPBDFH@Z       0041e6de f   v5subs:extract.obj
 0001:0001d72a       ?extul@@YAKPBDFH@Z         0041e72a f   v5subs:extract.obj
 0001:0001d776       ?asctoul@@YAKPBD@Z         0041e776 f   v5subs:extract.obj
 0001:0001d790       ?asctoint32@@YAJPBD@Z      0041e790 f   v5subs:extract.obj
 0001:0001d7aa       ?extlong@@YAJPBDF@Z        0041e7aa f   v5subs:extract.obj
 0001:0001d7aa       ?extshort@@YAFPBDF@Z       0041e7aa f   v5subs:extract.obj
 0001:0001d7bd       ?int32toasc@@YAXPADJJ@Z    0041e7bd f   v5subs:itoasc.obj
 0001:0001d80a       ?int32toasc@@YAPADJ@Z      0041e80a f   v5subs:itoasc.obj
 0001:0001d823       ?ultoascii@@YAXPADKK@Z     0041e823 f   v5subs:itoasc.obj
 0001:0001d860       ?ultoascii@@YAPADKK@Z      0041e860 f   v5subs:itoasc.obj
 0001:0001d87b       ?ultoascii@@YAPADK@Z       0041e87b f   v5subs:itoasc.obj
 0001:0001d889       ??0SURETRAK_PARAM_CLASS@@QAE@XZ 0041e889 f   v5subs:stparam.obj
 0001:0001d8cf       ??1RECTANGLE_CLASS@@QAE@XZ 0041e8cf f   v5subs:stparam.obj
 0001:0001d8cf       ??1SHIFT_CLASS@@QAE@XZ     0041e8cf f   v5subs:stparam.obj
 0001:0001d8cf       ??1ANALOG_SENSOR@@QAE@XZ   0041e8cf f   v5subs:stparam.obj
 0001:0001d8cf       ??1FONT_CLASS@@QAE@XZ      0041e8cf f   v5subs:stparam.obj
 0001:0001d8cf       ??1SURETRAK_PARAM_CLASS@@QAE@XZ 0041e8cf f   v5subs:stparam.obj
 0001:0001d8cf       __fpclear                  0041e8cf f   v5subs:stparam.obj
 0001:0001d8d0       ?find@SURETRAK_PARAM_CLASS@@QAEEAAVSTRING_CLASS@@0@Z 0041e8d0 f   v5subs:stparam.obj
 0001:0001d9c6       ?double_to_tchar@@YA_NPADNH@Z 0041e9c6 f   v5subs:dtotchar.obj
 0001:0001daba       ?rounded_double_to_tchar@@YA_NPADN@Z 0041eaba f   v5subs:dtotchar.obj
 0001:0001db19       ?is_numeric@@YAED@Z        0041eb19 f   v5subs:time.obj
 0001:0001db3a       ?init_systemtime_struct@@YAXAAU_SYSTEMTIME@@@Z 0041eb3a f   v5subs:time.obj
 0001:0001db4d       ?exthms@@YAEAAU_SYSTEMTIME@@PBD@Z 0041eb4d f   v5subs:time.obj
 0001:0001dbb5       ?extmdy@@YAEAAU_SYSTEMTIME@@PBD@Z 0041ebb5 f   v5subs:time.obj
 0001:0001dc23       ?alphadate@@YAEPADABU_SYSTEMTIME@@@Z 0041ec23 f   v5subs:time.obj
 0001:0001dc7a       ?alphadate@@YAPADABU_SYSTEMTIME@@@Z 0041ec7a f   v5subs:time.obj
 0001:0001dc90       ?alphatime@@YAEPADABU_SYSTEMTIME@@@Z 0041ec90 f   v5subs:time.obj
 0001:0001dce8       ?alphatime@@YAPADABU_SYSTEMTIME@@@Z 0041ece8 f   v5subs:time.obj
 0001:0001dcfe       ?is_leap_year@@YAEG@Z      0041ecfe f   v5subs:time.obj
 0001:0001dd34       ?dofyr@@YAGGGG@Z           0041ed34 f   v5subs:time.obj
 0001:0001dd7f       ?sec_since1990@@YAJAAU_SYSTEMTIME@@@Z 0041ed7f f   v5subs:time.obj
 0001:0001ddec       ?seconds_difference@@YAJAAU_SYSTEMTIME@@0@Z 0041edec f   v5subs:time.obj
 0001:0001de09       ?seconds_difference@@YAJAAU_FILETIME@@0@Z 0041ee09 f   v5subs:time.obj
 0001:0001de46       ?insalph@@YAXPADJJDJ@Z     0041ee46 f   v5subs:insalph.obj
 0001:0001de7e       ?insalph@@YAXPADNJD@Z      0041ee7e f   v5subs:insalph.obj
 0001:0001deb8       ?execute_and_wait@@YAEPAD0K@Z 0041eeb8 f   v5subs:execwait.obj
 0001:0001df38       ?execute_and_wait@@YAEPAD0@Z 0041ef38 f   v5subs:execwait.obj
 0001:0001df78       ?exe_directory@@YAPBDXZ    0041ef78 f   v5subs:gexedir.obj
 0001:0001e021       ?get_exe_directory@@YAEPAD@Z 0041f021 f   v5subs:gexedir.obj
 0001:0001e03b       ??0LIMIT_SWITCH_WIRE_CLASS@@QAE@XZ 0041f03b f   v5subs:limit_switch_class.obj
 0001:0001e058       ??1LIMIT_SWITCH_WIRE_CLASS@@QAE@XZ 0041f058 f   v5subs:limit_switch_class.obj
 0001:0001e070       ?wire_number@LIMIT_SWITCH_WIRE_CLASS@@QAEHH@Z 0041f070 f   v5subs:limit_switch_class.obj
 0001:0001e08c       ?get@LIMIT_SWITCH_WIRE_CLASS@@QAEEAAVSTRING_CLASS@@00@Z 0041f08c f   v5subs:limit_switch_class.obj
 0001:0001e1de       ?has_warning_limits@PARAMETER_ENTRY@@QAEEXZ 0041f1de f   v5subs:param.obj
 0001:0001e1ef       ?has_alarm_limits@PARAMETER_ENTRY@@QAEEXZ 0041f1ef f   v5subs:param.obj
 0001:0001e200       ?count@PARAMETER_CLASS@@QAEFXZ 0041f200 f   v5subs:param.obj
 0001:0001e21d       ?init@PARAMETER_CLASS@@QAEXF@Z 0041f21d f   v5subs:param.obj
 0001:0001e27f       ??0PARAMETER_CLASS@@QAE@XZ 0041f27f f   v5subs:param.obj
 0001:0001e2ae       ?read_param_db@PARAMETER_CLASS@@QAEEAAVSTRING_CLASS@@@Z 0041f2ae f   v5subs:param.obj
 0001:0001e413       ?find@PARAMETER_CLASS@@QAEEAAVSTRING_CLASS@@00@Z 0041f413 f   v5subs:param.obj
 0001:0001e477       ?maxint@@YAXAAHH@Z         0041f477 f   v5subs:maximize.obj
 0001:0001e486       ?minint@@YAXAAHH@Z         0041f486 f   v5subs:maximize.obj
 0001:0001e4c7       ?find_conversation@@YAPAUEVENT_ENTRY@@PAUHCONV__@@@Z 0041f4c7 f   v5subs:client.obj
 0001:0001e4f6       ?poke_data@@YAXPAD00@Z     0041f4f6 f   v5subs:client.obj
 0001:0001e5ec       ?connect_to_server@@YAPAUHCONV__@@PAD@Z 0041f5ec f   v5subs:client.obj
 0001:0001e648       ?one_hot_link@@YAXPAUHCONV__@@FI@Z 0041f648 f   v5subs:client.obj
 0001:0001e815       ?hot_links@@YAXPAUEVENT_ENTRY@@I@Z 0041f815 f   v5subs:client.obj
 0001:0001e84e       ?connect_to_server@@YAXXZ  0041f84e f   v5subs:client.obj
 0001:0001e8b5       ?dde_callback@@YGPAUHDDEDATA__@@IIPAUHCONV__@@PAUHSZ__@@1PAU1@KK@Z 0041f8b5 f   v5subs:client.obj
 0001:0001e9ba       ?register_for_event@@YAXPADFP6AX0FPAUHDDEDATA__@@@Z@Z 0041f9ba f   v5subs:client.obj
 0001:0001ea94       ??0EVENT_ENTRY@@QAE@XZ     0041fa94 f i v5subs:client.obj
 0001:0001eb2b       ?unregister_for_event@@YAXPADF@Z 0041fb2b f   v5subs:client.obj
 0001:0001ebbc       ?client_dde_startup@@YAXXZ 0041fbbc f   v5subs:client.obj
 0001:0001ec51       ?client_dde_startup@@YAXPAUHWND__@@@Z 0041fc51 f   v5subs:client.obj
 0001:0001ec5f       ?client_dde_shutdown@@YAXXZ 0041fc5f f   v5subs:client.obj
 0001:0001ed21       ?get_current_password_level@@YAXXZ 0041fd21 f   v5subs:client.obj
 0001:0001ed66       ?hourglass_cursor@@YAXXZ   0041fd66 f   v5subs:hourglas.obj
 0001:0001ed8f       ?restore_cursor@@YAXXZ     0041fd8f f   v5subs:hourglas.obj
 0001:0001edb1       ?rjust@@YAXPADFD@Z         0041fdb1 f   v5subs:rjust.obj
 0001:0001eded       ?post_error@@YAXPAD@Z      0041fded f   v5subs:dbsubs.obj
 0001:0001ee01       ?post_error@@YAXPAD0@Z     0041fe01 f   v5subs:dbsubs.obj
 0001:0001ee14       ??0DB_TABLE@@QAE@XZ        0041fe14 f   v5subs:dbsubs.obj
 0001:0001ee31       ??1DB_TABLE@@QAE@XZ        0041fe31 f   v5subs:dbsubs.obj
 0001:0001ee73       ?close@DB_TABLE@@QAEXXZ    0041fe73 f   v5subs:dbsubs.obj
 0001:0001ee90       ?initbuf@DB_TABLE@@AAEEPAPADPAFF@Z 0041fe90 f   v5subs:dbsubs.obj
 0001:0001ef19       ?open@DB_TABLE@@QAEEPADFFF@Z 0041ff19 f   v5subs:dbsubs.obj
 0001:0001f08d       ?open@DB_TABLE@@QAEEPADFF@Z 0042008d f   v5subs:dbsubs.obj
 0001:0001f0a3       ?create@DB_TABLE@@QAEEPAD@Z 004200a3 f   v5subs:dbsubs.obj
 0001:0001f102       ?ensure_existance@DB_TABLE@@QAEEAAVSTRING_CLASS@@@Z 00420102 f   v5subs:dbsubs.obj
 0001:0001f142       ?open_status@DB_TABLE@@QAEEXZ 00420142 f   v5subs:dbsubs.obj
 0001:0001f14a       ?lock_record@DB_TABLE@@QAEEXZ 0042014a f   v5subs:dbsubs.obj
 0001:0001f1a5       ?unlock_record@DB_TABLE@@QAEEXZ 004201a5 f   v5subs:dbsubs.obj
 0001:0001f1e3       ?goto_record_number@DB_TABLE@@QAEEJ@Z 004201e3 f   v5subs:dbsubs.obj
 0001:0001f25e       ?get_rec@DB_TABLE@@QAEEXZ  0042025e f   v5subs:dbsubs.obj
 0001:0001f2a6       ?nof_recs@DB_TABLE@@QAEKXZ 004202a6 f   v5subs:dbsubs.obj
 0001:0001f2cd       ?get_next_record@DB_TABLE@@QAEEE@Z 004202cd f   v5subs:dbsubs.obj
 0001:0001f31b       ?get_current_record@DB_TABLE@@QAEEE@Z 0042031b f   v5subs:dbsubs.obj
 0001:0001f360       ?compare_date@@YAFPAD0@Z   00420360 f   v5subs:dbsubs.obj
 0001:0001f390       ?compare_int32@@YAFPAD0J@Z 00420390 f   v5subs:dbsubs.obj
 0001:0001f3c6       ?compare_one_record@DB_TABLE@@AAEEPAFJJ@Z 004203c6 f   v5subs:dbsubs.obj
 0001:0001f486       ?restore_from_searchbuf@DB_TABLE@@AAEXXZ 00420486 f   v5subs:dbsubs.obj
 0001:0001f4a5       ?fill_searchbuf@DB_TABLE@@AAEEF@Z 004204a5 f   v5subs:dbsubs.obj
 0001:0001f4f4       ?goto_key_record@DB_TABLE@@AAEEFJJ@Z 004204f4 f   v5subs:dbsubs.obj
 0001:0001f60e       ?goto_first_key_record@DB_TABLE@@AAEEF@Z 0042060e f   v5subs:dbsubs.obj
 0001:0001f629       ?goto_first_equal_or_greater_record@DB_TABLE@@QAEEF@Z 00420629 f   v5subs:dbsubs.obj
 0001:0001f708       ?get_next_key_match@DB_TABLE@@QAEEFE@Z 00420708 f   v5subs:dbsubs.obj
 0001:0001f776       ?get_alpha@DB_TABLE@@QAEEPADGFG@Z 00420776 f   v5subs:dbsubs.obj
 0001:0001f7f2       ?get_alpha@DB_TABLE@@QAEEPADGF@Z 004207f2 f   v5subs:dbsubs.obj
 0001:0001f808       ?get_char@DB_TABLE@@QAEDG@Z 00420808 f   v5subs:dbsubs.obj
 0001:0001f822       ?get_date@DB_TABLE@@QAEEAAU_SYSTEMTIME@@G@Z 00420822 f   v5subs:dbsubs.obj
 0001:0001f83b       ?get_long@DB_TABLE@@QAEJG@Z 0042083b f   v5subs:dbsubs.obj
 0001:0001f878       ?get_double@DB_TABLE@@QAENG@Z 00420878 f   v5subs:dbsubs.obj
 0001:0001f8a1       ?get_time@DB_TABLE@@QAEEAAU_SYSTEMTIME@@G@Z 004208a1 f   v5subs:dbsubs.obj
 0001:0001f8ba       ?point_to_start_of_field@DB_TABLE@@AAEPADG@Z 004208ba f   v5subs:dbsubs.obj
 0001:0001f8d4       ?put_alpha@DB_TABLE@@QAEEGPBDF@Z 004208d4 f   v5subs:dbsubs.obj
 0001:0001f923       ?put_date@DB_TABLE@@QAEEGABU_SYSTEMTIME@@@Z 00420923 f   v5subs:dbsubs.obj
 0001:0001f953       ?put_double@DB_TABLE@@QAEEGNF@Z 00420953 f   v5subs:dbsubs.obj
 0001:0001f993       ?put_long@DB_TABLE@@QAEEGJF@Z 00420993 f   v5subs:dbsubs.obj
 0001:0001f9d0       ?put_time@DB_TABLE@@QAEEGAAU_SYSTEMTIME@@@Z 004209d0 f   v5subs:dbsubs.obj
 0001:0001fa00       ?write_record@DB_TABLE@@AAEEXZ 00420a00 f   v5subs:dbsubs.obj
 0001:0001fa54       ?rec_update@DB_TABLE@@QAEEXZ 00420a54 f   v5subs:dbsubs.obj
 0001:0001fa76       ?rec_append@DB_TABLE@@QAEEXZ 00420a76 f   v5subs:dbsubs.obj
 0001:0001fa9d       ?rec_insert@DB_TABLE@@QAEEXZ 00420a9d f   v5subs:dbsubs.obj
 0001:0001fb45       ?rec_delete@DB_TABLE@@QAEEJ@Z 00420b45 f   v5subs:dbsubs.obj
 0001:0001fc9d       ?shutdown_vtww_opto_control@@YAXXZ 00420c9d f   v5subs:optocontrol.obj
 0001:0001fce8       ?register_vtww_opto_control@@YAXXZ 00420ce8 f   v5subs:optocontrol.obj
 0001:0001fdd4       ?vtww_opto_proc@@YGJPAUHWND__@@IIJ@Z 00420dd4 f   v5subs:optocontrol.obj
 0001:00020221       ?get_long_ini_string@@YAPADPBD00@Z 00421221 f   v5subs:get_ini.obj
 0001:00020278       ?get_ini_string@@YAPADPBD00@Z 00421278 f   v5subs:get_ini.obj
 0001:0002029c       ?boolean_from_ini@@YAEPBD00@Z 0042129c f   v5subs:get_ini.obj
 0001:000202bc       ?int32_from_ini@@YAJPBD00@Z 004212bc f   v5subs:get_ini.obj
 0001:000202d7       ?dcurve_startup@@YAEXZ     004212d7 f   v5subs:dcurve.obj
 0001:00020412       ?dcurve_shutdown@@YAXXZ    00421412 f   v5subs:dcurve.obj
 0001:00020417       ?get_dcurve_coefficients@@YAEAAN0H@Z 00421417 f   v5subs:dcurve.obj
 0001:00020475       ?minutes_past_sunday@@YAFABU_SYSTEMTIME@@@Z 00421475 f   v5subs:shift.obj
 0001:00020491       ?dow_from_string@@YAFPAD@Z 00421491 f   v5subs:shift.obj
 0001:000204e1       ?shift_number@@YAFPAFABU_SYSTEMTIME@@@Z 004214e1 f   v5subs:shift.obj
 0001:000205ee       ?get_shift_number_and_date@@YAXPAFPAU_SYSTEMTIME@@ABU1@@Z 004215ee f   v5subs:shift.obj
 0001:0002066b       ?shifts_startup@@YAEXZ     0042166b f   v5subs:shift.obj
 0001:0002089c       ?shifts_shutdown@@YAXXZ    0042189c f   v5subs:shift.obj
 0001:000208ad       ??0SHIFT_CLASS@@QAE@XZ     004218ad f   v5subs:shift.obj
 0001:000208ad       ??0FONT_LIST_CLASS@@QAE@XZ 004218ad f   v5subs:shift.obj
 0001:000208b3       ?set_start_of_shift@SHIFT_CLASS@@QAEEABU_SYSTEMTIME@@F@Z 004218b3 f   v5subs:shift.obj
 0001:0002097d       ?read@SHIFT_CLASS@@QAEEAAVDB_TABLE@@GG@Z 0042197d f   v5subs:shift.obj
 0001:00020a08       ?cleanup@RUNLIST_CLASS@@AAEXXZ 00421a08 f   v5subs:runlist.obj
 0001:00020a25       ??_ERUNLIST_ENTRY@@QAEPAXI@Z 00421a25 f i v5subs:runlist.obj
 0001:00020a83       ??1RUNLIST_CLASS@@QAE@XZ   00421a83 f   v5subs:runlist.obj
 0001:00020a88       ??ARUNLIST_CLASS@@QAEAAURUNLIST_ENTRY@@H@Z 00421a88 f   v5subs:runlist.obj
 0001:00020aa7       ?find_part@RUNLIST_CLASS@@QAEAAVSTRING_CLASS@@I@Z 00421aa7 f   v5subs:runlist.obj
 0001:00020aea       ?get@RUNLIST_CLASS@@QAEEAAVNAME_CLASS@@@Z 00421aea f   v5subs:runlist.obj
 0001:00020c60       ?get@RUNLIST_CLASS@@QAEEAAVSTRING_CLASS@@0@Z 00421c60 f   v5subs:runlist.obj
 0001:00020ca1       ?set_current_part_name@@YAEAAVSTRING_CLASS@@00@Z 00421ca1 f   v5subs:current.obj
 0001:00020d2b       ?part_exists@@YAEAAVSTRING_CLASS@@00@Z 00421d2b f   v5subs:pexists.obj
 0001:00020d71       ?is_float_zero@@YAEM@Z     00421d71 f   v5subs:zero.obj
 0001:00020d95       ?not_float_zero@@YAEM@Z    00421d95 f   v5subs:zero.obj
 0001:00020db9       ?is_zero@@YA_NN@Z          00421db9 f   v5subs:zero.obj
 0001:00020ddd       ?not_zero@@YA_NN@Z         00421ddd f   v5subs:zero.obj
 0001:00020e01       ?make_downtime_record@@YAEAAVDB_TABLE@@AAU_SYSTEMTIME@@PAD22AAVSTRING_CLASS@@@Z 00421e01 f   v5subs:downsubs.obj
 0001:00020e90       ?make_downtime_event_string@@YAPADAAVSTRING_CLASS@@0AAU_SYSTEMTIME@@PAD22@Z 00421e90 f   v5subs:downsubs.obj
 0001:00020f92       ?category_name@@YAPADPAD@Z 00421f92 f   v5subs:downsubs.obj
 0001:00021053       ?subcategory_name@@YAPADPAD0@Z 00422053 f   v5subs:downsubs.obj
 0001:0002116d       ?cleanup@DOUBLE_ARRAY_CLASS@@QAEXXZ 0042216d f   v5subs:array.obj
 0001:00021188       ?init@DOUBLE_ARRAY_CLASS@@UAEEJ@Z 00422188 f   v5subs:array.obj
 0001:000211ce       ?init@DOUBLE_ARRAY_CLASS@@UAEEJPAN@Z 004221ce f   v5subs:array.obj
 0001:000211f2       ?move@DOUBLE_ARRAY_CLASS@@QAEXAAV1@@Z 004221f2 f   v5subs:array.obj
 0001:00021216       ??1DOUBLE_ARRAY_CLASS@@QAE@XZ 00422216 f   v5subs:array.obj
 0001:00021221       ??ADOUBLE_ARRAY_CLASS@@QAEAANJ@Z 00422221 f   v5subs:array.obj
 0001:00021240       ?down_state@DSTAT_CLASS@@QAEHXZ 00422240 f   v5subs:dstat.obj
 0001:0002130b       ?same_code@DSTAT_CLASS@@QAEEPAD0@Z 0042230b f   v5subs:dstat.obj
 0001:00021343       ?is_down@DSTAT_CLASS@@QAEEXZ 00422343 f   v5subs:dstat.obj
 0001:00021363       ?get@DSTAT_CLASS@@QAEEAAVSTRING_CLASS@@0@Z 00422363 f   v5subs:dstat.obj
 0001:00021448       ?put@DSTAT_CLASS@@QAEEAAVSTRING_CLASS@@0@Z 00422448 f   v5subs:dstat.obj
 0001:000215c6       ?calculate_ftii_parameters@@YAPANAAVFTII_PROFILE@@AAVMACHINE_CLASS@@AAVPART_CLASS@@AAVPARAMETER_CLASS@@AAVANALOG_SENSOR@@AAVFTANALOG_CLASS@@@Z 004225c6 f   v5subs:ftii_parameters.obj
 0001:0002261e       ??0PART_NAME_ENTRY@@QAE@XZ 0042361e f   v5subs:structs.obj
 0001:0002263a       ?set@PROFILE_NAME_ENTRY@@QAEXABVSTRING_CLASS@@00PBD@Z 0042363a f   v5subs:structs.obj
 0001:0002266e       ??4PROFILE_NAME_ENTRY@@QAEXABUPART_NAME_ENTRY@@@Z 0042366e f   v5subs:structs.obj
 0001:00022685       ?add@ALARM_SUMMARY_CLASS@@QAEPAUALARM_COUNTS_ENTRY@@J@Z 00423685 f   v5subs:alarmsum.obj
 0001:000226de       ?find@ALARM_SUMMARY_CLASS@@QAEPAUALARM_COUNTS_ENTRY@@J@Z 004236de f   v5subs:alarmsum.obj
 0001:00022700       ?empty@ALARM_SUMMARY_CLASS@@QAEXXZ 00423700 f   v5subs:alarmsum.obj
 0001:00022738       ??0ALARM_SUMMARY_CLASS@@QAE@XZ 00423738 f   v5subs:alarmsum.obj
 0001:00022767       ??1ALARM_SUMMARY_CLASS@@QAE@XZ 00423767 f   v5subs:alarmsum.obj
 0001:00022780       ?set_part@ALARM_SUMMARY_CLASS@@QAEXAAVSTRING_CLASS@@00@Z 00423780 f   v5subs:alarmsum.obj
 0001:000227a8       ?set_counts@ALARM_SUMMARY_CLASS@@QAEXPAMPAVPARAMETER_CLASS@@@Z 004237a8 f   v5subs:alarmsum.obj
 0001:000228b4       ?save@ALARM_SUMMARY_CLASS@@QAEXABU_SYSTEMTIME@@JEAAVSTRING_CLASS@@@Z 004238b4 f   v5subs:alarmsum.obj
 0001:00022bf2       ?save@ALARM_SUMMARY_CLASS@@QAEXABU_SYSTEMTIME@@J@Z 00423bf2 f   v5subs:alarmsum.obj
 0001:00022c38       ?load@FTANALOG_CLASS@@QAEEAAVSTRING_CLASS@@00@Z 00423c38 f   v5subs:ftanalog.obj
 0001:00022ecf       ?startup@STDDOWN_CLASS@@QAEXXZ 00423ecf f   v5subs:stddown.obj
 0001:00022feb       ?find@STDDOWN_CLASS@@QAE_NJ@Z 00423feb f   v5subs:stddown.obj
 0001:00023066       ?cat@STDDOWN_CLASS@@QAEPADXZ 00424066 f   v5subs:stddown.obj
 0001:0002307c       ?subcat@STDDOWN_CLASS@@QAEPADXZ 0042407c f   v5subs:stddown.obj
 0001:00023093       ??0PLOOKUP_CLASS@@QAE@XZ   00424093 f   v5subs:plookup.obj
 0001:000230a7       ??1PLOOKUP_CLASS@@QAE@XZ   004240a7 f   v5subs:plookup.obj
 0001:000230bb       ?init@PLOOKUP_CLASS@@QAEEAAVSTRING_CLASS@@00@Z 004240bb f   v5subs:plookup.obj
 0001:000230d7       ?get@PLOOKUP_CLASS@@QAEHXZ 004240d7 f   v5subs:plookup.obj
 0001:000230e1       ?put@PLOOKUP_CLASS@@QAEEXZ 004240e1 f   v5subs:plookup.obj
 0001:000231c8       ?set_last_shot_number@PLOOKUP_CLASS@@QAEEH@Z 004241c8 f   v5subs:plookup.obj
 0001:000231e9       ?get_last_shot_number@PLOOKUP_CLASS@@QAEHAAVSTRING_CLASS@@00@Z 004241e9 f   v5subs:plookup.obj
 0001:00023227       ?set_time@PLOOKUP_CLASS@@QAEEAAVTIME_CLASS@@@Z 00424227 f   v5subs:plookup.obj
 0001:00023298       ?get_shotsave_semaphore@@YAEAAVSTRING_CLASS@@0@Z 00424298 f   v5subs:semaphor.obj
 0001:00023321       ?free_shotsave_semaphore@@YAXXZ 00424321 f   v5subs:semaphor.obj
 0001:000233f0       ?error_message@@YAXFF@Z    004243f0 f   v5subs:error_ms.obj
 0001:0002341b       ?append_backslash_to_path@@YAXPAD@Z 0042441b f   v5subs:path.obj
 0001:00023444       ?append_filename_to_path@@YAXPADPBD@Z 00424444 f   v5subs:path.obj
 0001:0002345d       ?catpath@@YAPADPADPBD@Z    0042445d f   v5subs:path.obj
 0001:000234a3       ?remove_backslash_from_path@@YAXPAD@Z 004244a3 f   v5subs:path.obj
 0001:000234cd       ?dir_from_filename@@YAEPAD@Z 004244cd f   v5subs:path.obj
 0001:00023514       ?create_directory@@YAEPAD@Z 00424514 f   v5subs:path.obj
 0001:0002362a       ?is_empty@@YAEPBD@Z        0042462a f   v5subs:is_empty.obj
 0001:00023645       ?dups_to_vu@@YANFF@Z       00424645 f   v5subs:unitadj.obj
 0001:000236a4       ?copy_all_files@@YAEPAD00EPAUHWND__@@H@Z 004246a4 f   v5subs:callfile.obj
 0001:00023814       ?day_of_the_week@@YAHHHH@Z 00424814 f   v5subs:dow.obj
 0001:00023873       ?reverse@@YAXPAD@Z         00424873 f   v5subs:reverse.obj
 0001:00023895       ??3@YAXPAX@Z               00424895 f   LIBCMT:delete.obj
 0001:000238a0       __onexit                   004248a0 f   LIBCMT:onexit.obj
 0001:0002391e       _atexit                    0042491e f   LIBCMT:onexit.obj
 0001:00023930       ___onexitinit              00424930 f   LIBCMT:onexit.obj
 0001:0002395f       __fpmath                   0042495f f   LIBCMT:fpinit.obj
 0001:00023976       __cfltcvt_init             00424976 f   LIBCMT:fpinit.obj
 0001:000239b0       __ftol                     004249b0 f   LIBCMT:ftol.obj
 0001:000239d7       ??2@YAPAXI@Z               004249d7 f   LIBCMT:new.obj
 0001:000239f0       __alloca_probe             004249f0 f   LIBCMT:chkstk.obj
 0001:000239f0       __chkstk                   004249f0 f   LIBCMT:chkstk.obj
 0001:00023a20       _memcpy                    00424a20 f   LIBCMT:memcpy.obj
 0001:00023d55       __beginthread              00424d55 f   LIBCMT:thread.obj
 0001:00023e5f       __endthread                00424e5f f   LIBCMT:thread.obj
 0001:00023e9e       _WinMainCRTStartup         00424e9e f   LIBCMT:wincrt0.obj
 0001:00023fa6       __amsg_exit                00424fa6 f   LIBCMT:wincrt0.obj
 0001:00023ff0       _memset                    00424ff0 f   LIBCMT:memset.obj
 0001:00024050       __alldiv                   00425050 f   LIBCMT:lldiv.obj
 0001:00024100       __allmul                   00425100 f   LIBCMT:llmul.obj
 0001:00024134       _ceil                      00425134 f   LIBCMT:ceil.obj
 0001:00024203       _floor                     00425203 f   LIBCMT:floor.obj
 0001:000242d2       _strtol                    004252d2 f   LIBCMT:strtol.obj
 0001:000244ee       _strtoul                   004254ee f   LIBCMT:strtol.obj
 0001:00024505       _strtod                    00425505 f   LIBCMT:strtod.obj
 0001:000245b0       _memmove                   004255b0 f   LIBCMT:memmove.obj
 0001:000248e5       _free                      004258e5 f   LIBCMT:free.obj
 0001:000249ce       __cinit                    004259ce f   LIBCMT:crt0dat.obj
 0001:000249fb       _exit                      004259fb f   LIBCMT:crt0dat.obj
 0001:00024a0c       __exit                     00425a0c f   LIBCMT:crt0dat.obj
 0001:00024ac2       __lockexit                 00425ac2 f   LIBCMT:crt0dat.obj
 0001:00024acb       __unlockexit               00425acb f   LIBCMT:crt0dat.obj
 0001:00024aee       _realloc                   00425aee f   LIBCMT:realloc.obj
 0001:00024e1d       __msize                    00425e1d f   LIBCMT:msize.obj
 0001:00024f0b       _malloc                    00425f0b f   LIBCMT:malloc.obj
 0001:00024f1d       __nh_malloc                00425f1d f   LIBCMT:malloc.obj
 0001:00024f49       __heap_alloc               00425f49 f   LIBCMT:malloc.obj
 0001:00025045       __setdefaultprecision      00426045 f   LIBCMT:fp8.obj
 0001:00025057       __ms_p5_test_fdiv          00426057 f   LIBCMT:testfdiv.obj
 0001:00025095       __ms_p5_mp_test_fdiv       00426095 f   LIBCMT:testfdiv.obj
 0001:000250be       __forcdecpt                004260be f   LIBCMT:cvt.obj
 0001:00025118       __cropzeros                00426118 f   LIBCMT:cvt.obj
 0001:00025166       __positive                 00426166 f   LIBCMT:cvt.obj
 0001:0002517e       __fassign                  0042617e f   LIBCMT:cvt.obj
 0001:000251bc       __cftoe                    004261bc f   LIBCMT:cvt.obj
 0001:000252df       __cftof                    004262df f   LIBCMT:cvt.obj
 0001:000253db       __cftog                    004263db f   LIBCMT:cvt.obj
 0001:0002546e       __cfltcvt                  0042646e f   LIBCMT:cvt.obj
 0001:000254e4       __dosmaperr                004264e4 f   LIBCMT:dosmap.obj
 0001:00025557       __errno                    00426557 f   LIBCMT:dosmap.obj
 0001:00025560       ___doserrno                00426560 f   LIBCMT:dosmap.obj
 0001:00025569       __mtinit                   00426569 f   LIBCMT:tidtable.obj
 0001:000255bd       __initptd                  004265bd f   LIBCMT:tidtable.obj
 0001:000255d0       __getptd                   004265d0 f   LIBCMT:tidtable.obj
 0001:00025637       __freeptd                  00426637 f   LIBCMT:tidtable.obj
 0001:000256d7       _calloc                    004266d7 f   LIBCMT:calloc.obj
 0001:00025814       __XcptFilter               00426814 f   LIBCMT:winxfltr.obj
 0001:0002598c       __global_unwind2           0042698c f   LIBCMT:exsup.obj
 0001:000259ce       __local_unwind2            004269ce f   LIBCMT:exsup.obj
 0001:00025a26       __NLG_Return2              00426a26 f   LIBCMT:exsup.obj
 0001:00025a36       __abnormal_termination     00426a36 f   LIBCMT:exsup.obj
 0001:00025a59       __NLG_Notify1              00426a59 f   LIBCMT:exsup.obj
 0001:00025a62       __NLG_Notify               00426a62 f   LIBCMT:exsup.obj
 0001:00025a75       __NLG_Dispatch             00426a75 f   LIBCMT:exsup.obj
 0001:00025a84       __except_handler3          00426a84 f   LIBCMT:exsup3.obj
 0001:00025b41       __seh_longjmp_unwind@4     00426b41 f   LIBCMT:exsup3.obj
 0001:00025b5c       __wincmdln                 00426b5c f   LIBCMT:wincmdln.obj
 0001:00025bb4       __setenvp                  00426bb4 f   LIBCMT:stdenvp.obj
 0001:00025c6d       __setargv                  00426c6d f   LIBCMT:stdargv.obj
 0001:00025eba       ___crtGetEnvironmentStringsA 00426eba f   LIBCMT:a_env.obj
 0001:00025fec       __ioinit                   00426fec f   LIBCMT:ioinit.obj
 0001:000261a8       __GetLinkerVersion         004271a8 f   LIBCMT:heapinit.obj
 0001:000261d5       ___heap_select             004271d5 f   LIBCMT:heapinit.obj
 0001:0002631d       __heap_init                0042731d f   LIBCMT:heapinit.obj
 0001:0002637a       __FF_MSGBANNER             0042737a f   LIBCMT:crt0msg.obj
 0001:000263b3       __NMSG_WRITE               004273b3 f   LIBCMT:crt0msg.obj
 0001:00026506       __handle_qnan1             00427506 f   LIBCMT:fpexcept.obj
 0001:0002655a       __except1                  0042755a f   LIBCMT:fpexcept.obj
 0001:000265f2       __raise_exc                004275f2 f   LIBCMT:fpexcept.obj
 0001:000268a5       __handle_exc               004278a5 f   LIBCMT:fpexcept.obj
 0001:00026abc       __umatherr                 00427abc f   LIBCMT:fpexcept.obj
 0001:00026b44       __set_errno                00427b44 f   LIBCMT:fpexcept.obj
 0001:00026b91       __errcode                  00427b91 f   LIBCMT:fpexcept.obj
 0001:00026bbe       __frnd                     00427bbe f   LIBCMT:frnd.obj
 0001:00026bd0       __set_exp                  00427bd0 f   LIBCMT:util.obj
 0001:00026bf9       __sptype                   00427bf9 f   LIBCMT:util.obj
 0001:00026c53       __decomp                   00427c53 f   LIBCMT:util.obj
 0001:00026d14       __statfp                   00427d14 f   LIBCMT:fpctrl.obj
 0001:00026d22       __clrfp                    00427d22 f   LIBCMT:fpctrl.obj
 0001:00026d31       __ctrlfp                   00427d31 f   LIBCMT:fpctrl.obj
 0001:00026d54       __set_statfp               00427d54 f   LIBCMT:fpctrl.obj
 0001:00026daa       _toupper                   00427daa f   LIBCMT:toupper.obj
 0001:00026e19       __toupper_lk               00427e19 f   LIBCMT:toupper.obj
 0001:00026ee5       __isctype                  00427ee5 f   LIBCMT:isctype.obj
 0001:00026f5c       __fltin2                   00427f5c f   LIBCMT:cfin.obj
 0001:00026fe0       _strlen                    00427fe0 f   LIBCMT:strlen.obj
 0001:0002705b       ___sbh_heap_init           0042805b f   LIBCMT:sbheap.obj
 0001:000270a3       ___sbh_find_block          004280a3 f   LIBCMT:sbheap.obj
 0001:000270ce       ___sbh_free_block          004280ce f   LIBCMT:sbheap.obj
 0001:000273f7       ___sbh_alloc_block         004283f7 f   LIBCMT:sbheap.obj
 0001:00027700       ___sbh_alloc_new_region    00428700 f   LIBCMT:sbheap.obj
 0001:000277b1       ___sbh_alloc_new_group     004287b1 f   LIBCMT:sbheap.obj
 0001:000278ac       ___sbh_resize_block        004288ac f   LIBCMT:sbheap.obj
 0001:00027ba2       ___old_sbh_new_region      00428ba2 f   LIBCMT:sbheap.obj
 0001:00027ce6       ___old_sbh_release_region  00428ce6 f   LIBCMT:sbheap.obj
 0001:00027d3c       ___old_sbh_decommit_pages  00428d3c f   LIBCMT:sbheap.obj
 0001:00027dfe       ___old_sbh_find_block      00428dfe f   LIBCMT:sbheap.obj
 0001:00027e55       ___old_sbh_free_block      00428e55 f   LIBCMT:sbheap.obj
 0001:00027e9a       ___old_sbh_alloc_block     00428e9a f   LIBCMT:sbheap.obj
 0001:000280a2       ___old_sbh_alloc_block_from_page 004290a2 f   LIBCMT:sbheap.obj
 0001:000281c6       ___old_sbh_resize_block    004291c6 f   LIBCMT:sbheap.obj
 0001:0002826f       __mtinitlocks              0042926f f   LIBCMT:mlock.obj
 0001:00028298       __lock                     00429298 f   LIBCMT:mlock.obj
 0001:000282f9       __unlock                   004292f9 f   LIBCMT:mlock.obj
 0001:0002830e       __callnewh                 0042930e f   LIBCMT:handler.obj
 0001:00028329       __control87                00429329 f   LIBCMT:ieee87.obj
 0001:0002835e       __controlfp                0042935e f   LIBCMT:ieee87.obj
 0001:0002848f       _tolower                   0042948f f   LIBCMT:tolower.obj
 0001:000284fe       __tolower_lk               004294fe f   LIBCMT:tolower.obj
 0001:000285c9       __ZeroTail                 004295c9 f   LIBCMT:intrncvt.obj
 0001:00028612       __IncMan                   00429612 f   LIBCMT:intrncvt.obj
 0001:00028668       __RoundMan                 00429668 f   LIBCMT:intrncvt.obj
 0001:000286f4       __CopyMan                  004296f4 f   LIBCMT:intrncvt.obj
 0001:0002870f       __FillZeroMan              0042970f f   LIBCMT:intrncvt.obj
 0001:0002871b       __IsZeroMan                0042971b f   LIBCMT:intrncvt.obj
 0001:00028736       __ShrMan                   00429736 f   LIBCMT:intrncvt.obj
 0001:000287c3       __ld12cvt                  004297c3 f   LIBCMT:intrncvt.obj
 0001:0002892f       __ld12tod                  0042992f f   LIBCMT:intrncvt.obj
 0001:00028945       __ld12tof                  00429945 f   LIBCMT:intrncvt.obj
 0001:0002895b       __atodbl                   0042995b f   LIBCMT:intrncvt.obj
 0001:00028988       __atoflt                   00429988 f   LIBCMT:intrncvt.obj
 0001:000289b5       __fptostr                  004299b5 f   LIBCMT:_fptostr.obj
 0001:00028a2c       __fltout2                  00429a2c f   LIBCMT:cfout.obj
 0001:00028a88       ___dtold                   00429a88 f   LIBCMT:cfout.obj
 0001:00028b40       _strcpy                    00429b40 f   LIBCMT:strcat.obj
 0001:00028b50       _strcat                    00429b50 f   LIBCMT:strcat.obj
 0001:00028c30       __fptrap                   00429c30 f   LIBCMT:crt0fp.obj
 0001:00028c39       __ismbblead                00429c39 f   LIBCMT:ismbbyte.obj
 0001:00028c7b       __setmbcp                  00429c7b f   LIBCMT:mbctype.obj
 0001:00029053       ___initmbctable            0042a053 f   LIBCMT:mbctype.obj
 0001:00029080       _strchr                    0042a080 f   LIBCMT:strchr.obj
 0001:00029086       ___from_strstr_to_strchr   0042a086 f   LIBCMT:strchr.obj
 0001:00029140       _strstr                    0042a140 f   LIBCMT:strstr.obj
 0001:000291c0       _strncmp                   0042a1c0 f   LIBCMT:strncmp.obj
 0001:000291f8       ___crtMessageBoxA          0042a1f8 f   LIBCMT:crtmbox.obj
 0001:00029290       _strncpy                   0042a290 f   LIBCMT:strncpy.obj
 0001:0002938e       __matherr                  0042a38e f   LIBCMT:matherr.obj
 0001:00029391       ___crtLCMapStringA         0042a391 f   LIBCMT:a_map.obj
 0001:000295e0       ___crtGetStringTypeA       0042a5e0 f   LIBCMT:a_str.obj
 0001:00029729       ___strgtold12              0042a729 f   LIBCMT:strgtold.obj
 0001:00029bfa       ___addl                    0042abfa f   LIBCMT:mantold.obj
 0001:00029c1b       ___add_12                  0042ac1b f   LIBCMT:mantold.obj
 0001:00029c79       ___shl_12                  0042ac79 f   LIBCMT:mantold.obj
 0001:00029ca7       ___shr_12                  0042aca7 f   LIBCMT:mantold.obj
 0001:00029cd4       ___mtold12                 0042acd4 f   LIBCMT:mantold.obj
 0001:00029d9b       _$I10_OUTPUT               0042ad9b f   LIBCMT:x10fout.obj
 0001:0002a030       _strcmp                    0042b030 f   LIBCMT:strcmp.obj
 0001:0002a0c0       _strcspn                   0042b0c0 f   LIBCMT:strcspn.obj
 0001:0002a100       _strpbrk                   0042b100 f   LIBCMT:strpbrk.obj
 0001:0002a13a       ___ld12mul                 0042b13a f   LIBCMT:tenpow.obj
 0001:0002a35a       ___multtenpow12            0042b35a f   LIBCMT:tenpow.obj
 0001:0002a3e0       __strcmpi                  0042b3e0 f   LIBCMT:stricmp.obj
 0001:0002a3e0       __stricmp                  0042b3e0 f   LIBCMT:stricmp.obj
 0001:0002a4b0       __strnicmp                 0042b4b0 f   LIBCMT:strnicmp.obj
 0001:0002a5c0       __aulldiv                  0042b5c0 f   LIBCMT:ulldiv.obj
 0001:0002a630       __aullrem                  0042b630 f   LIBCMT:ullrem.obj
 0001:0002a6b0       _RtlUnwind@16              0042b6b0 f   kernel32:KERNEL32.dll
 0001:0002a6b6       _DdeClientTransaction@32   0042b6b6 f   user32:USER32.dll
 0001:0002a6bc       _DdeFreeStringHandle@8     0042b6bc f   user32:USER32.dll
 0001:0002a6c2       _DdeConnect@16             0042b6c2 f   user32:USER32.dll
 0001:0002a6c8       _DdeCreateStringHandleA@12 0042b6c8 f   user32:USER32.dll
 0001:0002a6ce       _DdeGetLastError@4         0042b6ce f   user32:USER32.dll
 0001:0002a6d4       _DdeCmpStringHandles@8     0042b6d4 f   user32:USER32.dll
 0001:0002a6da       _DdeDisconnect@4           0042b6da f   user32:USER32.dll
 0001:0002a6e0       _DdeInitializeA@16         0042b6e0 f   user32:USER32.dll
 0001:0002a6e6       _DdeUninitialize@4         0042b6e6 f   user32:USER32.dll
 0001:0002a6ec       _ecvt                      0042b6ec f   LIBCMT:fcvt.obj
 0001:0002a6ec       __ecvt                     0042b6ec f   LIBCMT:fcvt.obj
 0001:0002a729       __fpcvt                    0042b729 f   LIBCMT:fcvt.obj
 0002:00000000       __imp__InitCommonControls@0 0042c000     comctl32:COMCTL32.dll
 0002:00000004       \177COMCTL32_NULL_THUNK_DATA 0042c004     comctl32:COMCTL32.dll
 0002:00000008       __imp__CreatePen@12        0042c008     gdi32:GDI32.dll
 0002:0000000c       __imp__SelectObject@8      0042c00c     gdi32:GDI32.dll
 0002:00000010       __imp__MoveToEx@16         0042c010     gdi32:GDI32.dll
 0002:00000014       __imp__LineTo@12           0042c014     gdi32:GDI32.dll
 0002:00000018       __imp__DeleteObject@4      0042c018     gdi32:GDI32.dll
 0002:0000001c       __imp__SetBkColor@8        0042c01c     gdi32:GDI32.dll
 0002:00000020       __imp__CreateSolidBrush@4  0042c020     gdi32:GDI32.dll
 0002:00000024       __imp__SetBkMode@8         0042c024     gdi32:GDI32.dll
 0002:00000028       __imp__SetTextAlign@8      0042c028     gdi32:GDI32.dll
 0002:0000002c       __imp__TextOutA@20         0042c02c     gdi32:GDI32.dll
 0002:00000030       __imp__SetTextColor@8      0042c030     gdi32:GDI32.dll
 0002:00000034       __imp__GetStockObject@4    0042c034     gdi32:GDI32.dll
 0002:00000038       __imp__CreateFontIndirectA@4 0042c038     gdi32:GDI32.dll
 0002:0000003c       __imp__GetTextMetricsA@8   0042c03c     gdi32:GDI32.dll
 0002:00000040       __imp__GetTextExtentPoint32A@16 0042c040     gdi32:GDI32.dll
 0002:00000044       __imp__Ellipse@20          0042c044     gdi32:GDI32.dll
 0002:00000048       __imp__GetBkMode@4         0042c048     gdi32:GDI32.dll
 0002:0000004c       \177GDI32_NULL_THUNK_DATA  0042c04c     gdi32:GDI32.dll
 0002:00000050       __imp__GetLocalTime@4      0042c050     kernel32:KERNEL32.dll
 0002:00000054       __imp__SystemTimeToFileTime@8 0042c054     kernel32:KERNEL32.dll
 0002:00000058       __imp__lstrcmpA@8          0042c058     kernel32:KERNEL32.dll
 0002:0000005c       __imp__WriteFile@20        0042c05c     kernel32:KERNEL32.dll
 0002:00000060       __imp__CreateFileA@28      0042c060     kernel32:KERNEL32.dll
 0002:00000064       __imp__GetCommState@8      0042c064     kernel32:KERNEL32.dll
 0002:00000068       __imp__SetCommState@8      0042c068     kernel32:KERNEL32.dll
 0002:0000006c       __imp__WaitForSingleObject@8 0042c06c     kernel32:KERNEL32.dll
 0002:00000070       __imp__FileTimeToSystemTime@8 0042c070     kernel32:KERNEL32.dll
 0002:00000074       __imp__lstrcpynA@12        0042c074     kernel32:KERNEL32.dll
 0002:00000078       __imp__GetTickCount@0      0042c078     kernel32:KERNEL32.dll
 0002:0000007c       __imp__CloseHandle@4       0042c07c     kernel32:KERNEL32.dll
 0002:00000080       __imp__GetStringTypeW@16   0042c080     kernel32:KERNEL32.dll
 0002:00000084       __imp__GetStringTypeA@20   0042c084     kernel32:KERNEL32.dll
 0002:00000088       __imp__LCMapStringW@24     0042c088     kernel32:KERNEL32.dll
 0002:0000008c       __imp__LCMapStringA@24     0042c08c     kernel32:KERNEL32.dll
 0002:00000090       __imp__MultiByteToWideChar@24 0042c090     kernel32:KERNEL32.dll
 0002:00000094       __imp__LoadLibraryA@4      0042c094     kernel32:KERNEL32.dll
 0002:00000098       __imp__GetOEMCP@0          0042c098     kernel32:KERNEL32.dll
 0002:0000009c       __imp__GetACP@0            0042c09c     kernel32:KERNEL32.dll
 0002:000000a0       __imp__GetCPInfo@8         0042c0a0     kernel32:KERNEL32.dll
 0002:000000a4       __imp__VirtualAlloc@16     0042c0a4     kernel32:KERNEL32.dll
 0002:000000a8       __imp__InterlockedIncrement@4 0042c0a8     kernel32:KERNEL32.dll
 0002:000000ac       __imp__InterlockedDecrement@4 0042c0ac     kernel32:KERNEL32.dll
 0002:000000b0       __imp__RaiseException@16   0042c0b0     kernel32:KERNEL32.dll
 0002:000000b4       __imp__VirtualFree@12      0042c0b4     kernel32:KERNEL32.dll
 0002:000000b8       __imp__HeapCreate@12       0042c0b8     kernel32:KERNEL32.dll
 0002:000000bc       __imp__HeapDestroy@4       0042c0bc     kernel32:KERNEL32.dll
 0002:000000c0       __imp__GetEnvironmentVariableA@12 0042c0c0     kernel32:KERNEL32.dll
 0002:000000c4       __imp__CreateEventA@16     0042c0c4     kernel32:KERNEL32.dll
 0002:000000c8       __imp__lstrcpyA@8          0042c0c8     kernel32:KERNEL32.dll
 0002:000000cc       __imp__lstrlenA@4          0042c0cc     kernel32:KERNEL32.dll
 0002:000000d0       __imp__SetEvent@4          0042c0d0     kernel32:KERNEL32.dll
 0002:000000d4       __imp__WinExec@8           0042c0d4     kernel32:KERNEL32.dll
 0002:000000d8       __imp__DeleteFileA@4       0042c0d8     kernel32:KERNEL32.dll
 0002:000000dc       __imp__Sleep@4             0042c0dc     kernel32:KERNEL32.dll
 0002:000000e0       __imp__MoveFileA@8         0042c0e0     kernel32:KERNEL32.dll
 0002:000000e4       __imp__CreateProcessA@40   0042c0e4     kernel32:KERNEL32.dll
 0002:000000e8       __imp__GetFileType@4       0042c0e8     kernel32:KERNEL32.dll
 0002:000000ec       __imp__GetStdHandle@4      0042c0ec     kernel32:KERNEL32.dll
 0002:000000f0       __imp__SetHandleCount@4    0042c0f0     kernel32:KERNEL32.dll
 0002:000000f4       __imp__GetEnvironmentStringsW@0 0042c0f4     kernel32:KERNEL32.dll
 0002:000000f8       __imp__GetEnvironmentStrings@0 0042c0f8     kernel32:KERNEL32.dll
 0002:000000fc       __imp__WideCharToMultiByte@32 0042c0fc     kernel32:KERNEL32.dll
 0002:00000100       __imp__FreeEnvironmentStringsW@4 0042c100     kernel32:KERNEL32.dll
 0002:00000104       __imp__FreeEnvironmentStringsA@4 0042c104     kernel32:KERNEL32.dll
 0002:00000108       __imp__RtlUnwind@16        0042c108     kernel32:KERNEL32.dll
 0002:0000010c       __imp__UnhandledExceptionFilter@4 0042c10c     kernel32:KERNEL32.dll
 0002:00000110       __imp__TlsGetValue@4       0042c110     kernel32:KERNEL32.dll
 0002:00000114       __imp__SetLastError@4      0042c114     kernel32:KERNEL32.dll
 0002:00000118       __imp__TlsAlloc@0          0042c118     kernel32:KERNEL32.dll
 0002:0000011c       __imp__GetCurrentThreadId@0 0042c11c     kernel32:KERNEL32.dll
 0002:00000120       __imp__lstrcmpiA@8         0042c120     kernel32:KERNEL32.dll
 0002:00000124       __imp__lstrcatA@8          0042c124     kernel32:KERNEL32.dll
 0002:00000128       __imp__InitializeCriticalSection@4 0042c128     kernel32:KERNEL32.dll
 0002:0000012c       __imp__DeleteCriticalSection@4 0042c12c     kernel32:KERNEL32.dll
 0002:00000130       __imp__LeaveCriticalSection@4 0042c130     kernel32:KERNEL32.dll
 0002:00000134       __imp__EnterCriticalSection@4 0042c134     kernel32:KERNEL32.dll
 0002:00000138       __imp__FindClose@4         0042c138     kernel32:KERNEL32.dll
 0002:0000013c       __imp__FindNextFileA@8     0042c13c     kernel32:KERNEL32.dll
 0002:00000140       __imp__FindFirstFileA@8    0042c140     kernel32:KERNEL32.dll
 0002:00000144       __imp__GetDiskFreeSpaceA@20 0042c144     kernel32:KERNEL32.dll
 0002:00000148       __imp__GetVersionExA@4     0042c148     kernel32:KERNEL32.dll
 0002:0000014c       __imp__GetLastError@0      0042c14c     kernel32:KERNEL32.dll
 0002:00000150       __imp__SetFilePointer@16   0042c150     kernel32:KERNEL32.dll
 0002:00000154       __imp__GetFileSize@8       0042c154     kernel32:KERNEL32.dll
 0002:00000158       __imp__SetEndOfFile@4      0042c158     kernel32:KERNEL32.dll
 0002:0000015c       __imp__ReadFile@20         0042c15c     kernel32:KERNEL32.dll
 0002:00000160       __imp__GetFileTime@16      0042c160     kernel32:KERNEL32.dll
 0002:00000164       __imp__CopyFileA@12        0042c164     kernel32:KERNEL32.dll
 0002:00000168       __imp__GetPrivateProfileStringA@24 0042c168     kernel32:KERNEL32.dll
 0002:0000016c       __imp__WritePrivateProfileStringA@16 0042c16c     kernel32:KERNEL32.dll
 0002:00000170       __imp__GetDriveTypeA@4     0042c170     kernel32:KERNEL32.dll
 0002:00000174       __imp__GetFileAttributesA@4 0042c174     kernel32:KERNEL32.dll
 0002:00000178       __imp__SetErrorMode@4      0042c178     kernel32:KERNEL32.dll
 0002:0000017c       __imp__GetModuleFileNameA@12 0042c17c     kernel32:KERNEL32.dll
 0002:00000180       __imp__LockFile@20         0042c180     kernel32:KERNEL32.dll
 0002:00000184       __imp__UnlockFile@20       0042c184     kernel32:KERNEL32.dll
 0002:00000188       __imp__CreateDirectoryA@8  0042c188     kernel32:KERNEL32.dll
 0002:0000018c       __imp__ResumeThread@4      0042c18c     kernel32:KERNEL32.dll
 0002:00000190       __imp__CreateThread@24     0042c190     kernel32:KERNEL32.dll
 0002:00000194       __imp__TlsSetValue@8       0042c194     kernel32:KERNEL32.dll
 0002:00000198       __imp__ExitThread@4        0042c198     kernel32:KERNEL32.dll
 0002:0000019c       __imp__GetModuleHandleA@4  0042c19c     kernel32:KERNEL32.dll
 0002:000001a0       __imp__GetStartupInfoA@4   0042c1a0     kernel32:KERNEL32.dll
 0002:000001a4       __imp__GetCommandLineA@0   0042c1a4     kernel32:KERNEL32.dll
 0002:000001a8       __imp__GetVersion@0        0042c1a8     kernel32:KERNEL32.dll
 0002:000001ac       __imp__ExitProcess@4       0042c1ac     kernel32:KERNEL32.dll
 0002:000001b0       __imp__HeapFree@12         0042c1b0     kernel32:KERNEL32.dll
 0002:000001b4       __imp__TerminateProcess@8  0042c1b4     kernel32:KERNEL32.dll
 0002:000001b8       __imp__GetCurrentProcess@0 0042c1b8     kernel32:KERNEL32.dll
 0002:000001bc       __imp__HeapReAlloc@16      0042c1bc     kernel32:KERNEL32.dll
 0002:000001c0       __imp__HeapAlloc@12        0042c1c0     kernel32:KERNEL32.dll
 0002:000001c4       __imp__HeapSize@12         0042c1c4     kernel32:KERNEL32.dll
 0002:000001c8       __imp__GetProcAddress@8    0042c1c8     kernel32:KERNEL32.dll
 0002:000001cc       \177KERNEL32_NULL_THUNK_DATA 0042c1cc     kernel32:KERNEL32.dll
 0002:000001d0       __imp__SHAppBarMessage@8   0042c1d0     shell32:SHELL32.dll
 0002:000001d4       \177SHELL32_NULL_THUNK_DATA 0042c1d4     shell32:SHELL32.dll
 0002:000001d8       __imp__SetFocus@4          0042c1d8     user32:USER32.dll
 0002:000001dc       __imp__GetDlgItem@8        0042c1dc     user32:USER32.dll
 0002:000001e0       __imp__PostQuitMessage@4   0042c1e0     user32:USER32.dll
 0002:000001e4       __imp__DefWindowProcA@16   0042c1e4     user32:USER32.dll
 0002:000001e8       __imp__GetClientRect@8     0042c1e8     user32:USER32.dll
 0002:000001ec       __imp__CallWindowProcA@20  0042c1ec     user32:USER32.dll
 0002:000001f0       __imp__SetTimer@16         0042c1f0     user32:USER32.dll
 0002:000001f4       __imp__EndDialog@8         0042c1f4     user32:USER32.dll
 0002:000001f8       __imp__InvalidateRect@12   0042c1f8     user32:USER32.dll
 0002:000001fc       __imp__SetDlgItemTextA@12  0042c1fc     user32:USER32.dll
 0002:00000200       __imp__wsprintfA           0042c200     user32:USER32.dll
 0002:00000204       __imp__SetCursor@4         0042c204     user32:USER32.dll
 0002:00000208       __imp__DdeGetData@16       0042c208     user32:USER32.dll
 0002:0000020c       __imp__GetWindowLongA@8    0042c20c     user32:USER32.dll
 0002:00000210       __imp__GetDlgCtrlID@4      0042c210     user32:USER32.dll
 0002:00000214       __imp__IsWindowEnabled@4   0042c214     user32:USER32.dll
 0002:00000218       __imp__SetWindowPos@28     0042c218     user32:USER32.dll
 0002:0000021c       __imp__LoadAcceleratorsA@8 0042c21c     user32:USER32.dll
 0002:00000220       __imp__GetMessageA@16      0042c220     user32:USER32.dll
 0002:00000224       __imp__IsDialogMessageA@8  0042c224     user32:USER32.dll
 0002:00000228       __imp__TranslateAcceleratorA@12 0042c228     user32:USER32.dll
 0002:0000022c       __imp__TranslateMessage@4  0042c22c     user32:USER32.dll
 0002:00000230       __imp__DispatchMessageA@4  0042c230     user32:USER32.dll
 0002:00000234       __imp__LoadCursorA@8       0042c234     user32:USER32.dll
 0002:00000238       __imp__LoadIconA@8         0042c238     user32:USER32.dll
 0002:0000023c       __imp__RegisterClassA@4    0042c23c     user32:USER32.dll
 0002:00000240       __imp__UpdateWindow@4      0042c240     user32:USER32.dll
 0002:00000244       __imp__GetDesktopWindow@0  0042c244     user32:USER32.dll
 0002:00000248       __imp__SetWindowLongA@12   0042c248     user32:USER32.dll
 0002:0000024c       __imp__CreateDialogParamA@20 0042c24c     user32:USER32.dll
 0002:00000250       __imp__CloseWindow@4       0042c250     user32:USER32.dll
 0002:00000254       __imp__GetMenu@4           0042c254     user32:USER32.dll
 0002:00000258       __imp__EnableMenuItem@12   0042c258     user32:USER32.dll
 0002:0000025c       __imp__CreateWindowExA@48  0042c25c     user32:USER32.dll
 0002:00000260       __imp__SendMessageA@16     0042c260     user32:USER32.dll
 0002:00000264       __imp__GetDC@4             0042c264     user32:USER32.dll
 0002:00000268       __imp__ReleaseDC@8         0042c268     user32:USER32.dll
 0002:0000026c       __imp__KillTimer@8         0042c26c     user32:USER32.dll
 0002:00000270       __imp__DialogBoxParamA@20  0042c270     user32:USER32.dll
 0002:00000274       __imp__PostMessageA@16     0042c274     user32:USER32.dll
 0002:00000278       __imp__CheckRadioButton@16 0042c278     user32:USER32.dll
 0002:0000027c       __imp__GetFocus@0          0042c27c     user32:USER32.dll
 0002:00000280       __imp__DestroyWindow@4     0042c280     user32:USER32.dll
 0002:00000284       __imp__ShowWindow@8        0042c284     user32:USER32.dll
 0002:00000288       __imp__EnableWindow@8      0042c288     user32:USER32.dll
 0002:0000028c       __imp__MoveWindow@24       0042c28c     user32:USER32.dll
 0002:00000290       __imp__GetWindowRect@8     0042c290     user32:USER32.dll
 0002:00000294       __imp__ScreenToClient@8    0042c294     user32:USER32.dll
 0002:00000298       __imp__GetParent@4         0042c298     user32:USER32.dll
 0002:0000029c       __imp__DdeUninitialize@4   0042c29c     user32:USER32.dll
 0002:000002a0       __imp__IsWindowVisible@4   0042c2a0     user32:USER32.dll
 0002:000002a4       __imp__IsIconic@4          0042c2a4     user32:USER32.dll
 0002:000002a8       __imp__GetWindowTextLengthA@4 0042c2a8     user32:USER32.dll
 0002:000002ac       __imp__ReleaseCapture@0    0042c2ac     user32:USER32.dll
 0002:000002b0       __imp__SetCapture@4        0042c2b0     user32:USER32.dll
 0002:000002b4       __imp__ClientToScreen@8    0042c2b4     user32:USER32.dll
 0002:000002b8       __imp__EndPaint@8          0042c2b8     user32:USER32.dll
 0002:000002bc       __imp__BeginPaint@8        0042c2bc     user32:USER32.dll
 0002:000002c0       __imp__GetSystemMetrics@4  0042c2c0     user32:USER32.dll
 0002:000002c4       __imp__FillRect@12         0042c2c4     user32:USER32.dll
 0002:000002c8       __imp__CharToOemA@8        0042c2c8     user32:USER32.dll
 0002:000002cc       __imp__LoadStringA@16      0042c2cc     user32:USER32.dll
 0002:000002d0       __imp__SetForegroundWindow@4 0042c2d0     user32:USER32.dll
 0002:000002d4       __imp__FindWindowA@8       0042c2d4     user32:USER32.dll
 0002:000002d8       __imp__CheckMenuItem@12    0042c2d8     user32:USER32.dll
 0002:000002dc       __imp__IsDlgButtonChecked@8 0042c2dc     user32:USER32.dll
 0002:000002e0       __imp__GetClassNameA@12    0042c2e0     user32:USER32.dll
 0002:000002e4       __imp__GetUpdateRect@12    0042c2e4     user32:USER32.dll
 0002:000002e8       __imp__CharUpperA@4        0042c2e8     user32:USER32.dll
 0002:000002ec       __imp__IsCharAlphaNumericA@4 0042c2ec     user32:USER32.dll
 0002:000002f0       __imp__IsCharAlphaA@4      0042c2f0     user32:USER32.dll
 0002:000002f4       __imp__DdeClientTransaction@32 0042c2f4     user32:USER32.dll
 0002:000002f8       __imp__DdeFreeStringHandle@8 0042c2f8     user32:USER32.dll
 0002:000002fc       __imp__DdeConnect@16       0042c2fc     user32:USER32.dll
 0002:00000300       __imp__DdeCreateStringHandleA@12 0042c300     user32:USER32.dll
 0002:00000304       __imp__DdeGetLastError@4   0042c304     user32:USER32.dll
 0002:00000308       __imp__DdeCmpStringHandles@8 0042c308     user32:USER32.dll
 0002:0000030c       __imp__DdeDisconnect@4     0042c30c     user32:USER32.dll
 0002:00000310       __imp__DdeInitializeA@16   0042c310     user32:USER32.dll
 0002:00000314       __imp__MessageBoxA@16      0042c314     user32:USER32.dll
 0002:00000318       \177USER32_NULL_THUNK_DATA 0042c318     user32:USER32.dll
 0002:0000031c       __imp__inet_addr@4         0042c31c     wsock32:WSOCK32.dll
 0002:00000320       __imp__htons@4             0042c320     wsock32:WSOCK32.dll
 0002:00000324       __imp__WSACleanup@0        0042c324     wsock32:WSOCK32.dll
 0002:00000328       __imp__closesocket@4       0042c328     wsock32:WSOCK32.dll
 0002:0000032c       __imp__sendto@24           0042c32c     wsock32:WSOCK32.dll
 0002:00000330       __imp__recvfrom@24         0042c330     wsock32:WSOCK32.dll
 0002:00000334       __imp__gethostbyname@4     0042c334     wsock32:WSOCK32.dll
 0002:00000338       __imp__gethostname@8       0042c338     wsock32:WSOCK32.dll
 0002:0000033c       __imp__bind@12             0042c33c     wsock32:WSOCK32.dll
 0002:00000340       __imp__htonl@4             0042c340     wsock32:WSOCK32.dll
 0002:00000344       __imp__WSAGetLastError@0   0042c344     wsock32:WSOCK32.dll
 0002:00000348       __imp__socket@12           0042c348     wsock32:WSOCK32.dll
 0002:0000034c       __imp__WSAStartup@8        0042c34c     wsock32:WSOCK32.dll
 0002:00000350       \177WSOCK32_NULL_THUNK_DATA 0042c350     wsock32:WSOCK32.dll
 0002:000003b8       ??_7WINDOW_CLASS@@6B@      0042c3b8     ft2.obj
 0002:000003bc       ??_7FTII_VAR_ARRAY@@6B@    0042c3bc     ft2.obj
 0002:000003e0       __real@8@3ff38008008008008000 0042c3e0     ft2.obj
 0002:000003e8       __real@8@4001a000000000000000 0042c3e8     ft2.obj
 0002:000003f0       __real@8@4002a000000000000000 0042c3f0     ft2.obj
 0002:000003f8       __real@8@4003a000000000000000 0042c3f8     ft2.obj
 0002:00000400       __real@8@3ff8a3d70a3d70a3d800 0042c400     ft2.obj
 0002:00000408       __real@8@3ff583126e978d4fe000 0042c408     ft2.obj
 0002:00000410       __real@8@4008fa00000000000000 0042c410     ft2.obj
 0002:00000418       __real@8@4005c800000000000000 0042c418     ft2.obj
 0002:00000420       __real@8@40018000000000000000 0042c420     ft2.obj
 0002:00000428       __real@8@3ffe8000000000000000 0042c428     ft2.obj
 0002:00000430       __real@8@3ffd8000000000000000 0042c430     ft2.obj
 0002:00000438       __real@8@3ffb8000000000000000 0042c438     ft2.obj
 0002:00000490       __real@4@00000000000000000000 0042c490     board_monitor.obj
 0002:00000494       ??_7DOUBLE_ARRAY_CLASS@@6B@ 0042c494     board_monitor.obj
 0002:00000518       __real@8@4005a000000000000000 0042c518     v5subs:part.obj
 0002:00000520       __real@8@3ffec90ff97247453800 0042c520     v5subs:part.obj
 0002:00000530       __real@8@4000a000000000000000 0042c530     v5subs:asensor.obj
 0002:00000538       __real@8@4000a010624dd2f1a800 0042c538     v5subs:asensor.obj
 0002:00000540       __real@8@4001a0083126e978d800 0042c540     v5subs:asensor.obj
 0002:00000548       __real@8@00000000000000000000 0042c548     v5subs:asensor.obj
 0002:00000550       __real@8@3fff8000000000000000 0042c550     v5subs:asensor.obj
 0002:00000558       ??_7FTII_ARRAY_DATA@@6B@   0042c558     v5subs:ftii_shot_data.obj
 0002:0000055c       ??_7FTII_PROFILE@@6B@      0042c55c     v5subs:ftii_shot_data.obj
 0002:00000590       ??_7FTII_VAR@@6B@          0042c590     v5subs:ftiiclas.obj
 0002:000005c0       __real@8@bfeea7c5ac471b478800 0042c5c0     v5subs:ftoasc.obj
 0002:000005c8       __real@8@3feea7c5ac471b478800 0042c5c8     v5subs:ftoasc.obj
 0002:000005f0       __real@8@3ffbccccccccccccd000 0042c5f0     v5subs:dtotchar.obj
 0002:00000618       __real@8@bff1d1b71758e2196800 0042c618     v5subs:zero.obj
 0002:00000620       __real@8@3ff1d1b71758e2196800 0042c620     v5subs:zero.obj
 0002:00000628       __real@8@400c9c40000000000000 0042c628     v5subs:ftii_parameters.obj
 0002:000006b0       __real@8@4015800bf60000000000 0042c6b0     LIBCMT:testfdiv.obj
 0002:000006b8       __real@8@4014bffffc0000000000 0042c6b8     LIBCMT:testfdiv.obj
 0002:000006c0       ??_C@_0BK@JEGK@IsProcessorFeaturePresent?$AA@ 0042c6c0     LIBCMT:testfdiv.obj
 0002:000006dc       ??_C@_08OBID@KERNEL32?$AA@ 0042c6dc     LIBCMT:testfdiv.obj
 0002:000006e8       ??_C@_05OFLO@e?$CL000?$AA@ 0042c6e8     LIBCMT:cvt.obj
 0002:00000708       ??_C@_0BH@PHHF@__GLOBAL_HEAP_SELECTED?$AA@ 0042c708     LIBCMT:heapinit.obj
 0002:00000720       ??_C@_0BF@BBGL@__MSVCRT_HEAP_SELECT?$AA@ 0042c720     LIBCMT:heapinit.obj
 0002:00000738       ??_C@_0P@GGKG@runtime?5error?5?$AA@ 0042c738     LIBCMT:crt0msg.obj
 0002:00000748       ??_C@_02PIMC@?$AN?6?$AA@   0042c748     LIBCMT:crt0msg.obj
 0002:0000074c       ??_C@_0O@DELO@TLOSS?5error?$AN?6?$AA@ 0042c74c     LIBCMT:crt0msg.obj
 0002:0000075c       ??_C@_0N@OMLL@SING?5error?$AN?6?$AA@ 0042c75c     LIBCMT:crt0msg.obj
 0002:0000076c       ??_C@_0P@OJAK@DOMAIN?5error?$AN?6?$AA@ 0042c76c     LIBCMT:crt0msg.obj
 0002:0000077c       ??_C@_0CF@EANP@R6028?$AN?6?9?5unable?5to?5initialize?5he@ 0042c77c     LIBCMT:crt0msg.obj
 0002:000007a4       ??_C@_0DF@ECGN@R6027?$AN?6?9?5not?5enough?5space?5for?5lo@ 0042c7a4     LIBCMT:crt0msg.obj
 0002:000007dc       ??_C@_0DF@FKAC@R6026?$AN?6?9?5not?5enough?5space?5for?5st@ 0042c7dc     LIBCMT:crt0msg.obj
 0002:00000814       ??_C@_0CG@DPMN@R6025?$AN?6?9?5pure?5virtual?5function?5c@ 0042c814     LIBCMT:crt0msg.obj
 0002:0000083c       ??_C@_0DF@CKIP@R6024?$AN?6?9?5not?5enough?5space?5for?5_o@ 0042c83c     LIBCMT:crt0msg.obj
 0002:00000874       ??_C@_0CJ@GGOE@R6019?$AN?6?9?5unable?5to?5open?5console?5@ 0042c874     LIBCMT:crt0msg.obj
 0002:000008a0       ??_C@_0CB@LBOB@R6018?$AN?6?9?5unexpected?5heap?5error?$AN?6@ 0042c8a0     LIBCMT:crt0msg.obj
 0002:000008c4       ??_C@_0CN@FPEG@R6017?$AN?6?9?5unexpected?5multithread?5@ 0042c8c4     LIBCMT:crt0msg.obj
 0002:000008f4       ??_C@_0CM@OBIC@R6016?$AN?6?9?5not?5enough?5space?5for?5th@ 0042c8f4     LIBCMT:crt0msg.obj
 0002:00000920       ??_C@_0CB@HPAL@?$AN?6abnormal?5program?5termination?$AN?6@ 0042c920     LIBCMT:crt0msg.obj
 0002:00000944       ??_C@_0CM@JOOB@R6009?$AN?6?9?5not?5enough?5space?5for?5en@ 0042c944     LIBCMT:crt0msg.obj
 0002:00000970       ??_C@_0CK@OIBL@R6008?$AN?6?9?5not?5enough?5space?5for?5ar@ 0042c970     LIBCMT:crt0msg.obj
 0002:0000099c       ??_C@_0CF@LKPB@R6002?$AN?6?9?5floating?5point?5not?5load@ 0042c99c     LIBCMT:crt0msg.obj
 0002:000009c4       ??_C@_0CF@JPDF@Microsoft?5Visual?5C?$CL?$CL?5Runtime?5Lib@ 0042c9c4     LIBCMT:crt0msg.obj
 0002:000009ec       ??_C@_02JJJH@?6?6?$AA@     0042c9ec     LIBCMT:crt0msg.obj
 0002:000009f0       ??_C@_0BK@DEOK@Runtime?5Error?$CB?6?6Program?3?5?$AA@ 0042c9f0     LIBCMT:crt0msg.obj
 0002:00000a0c       ??_C@_03NAME@?4?4?4?$AA@   0042ca0c     LIBCMT:crt0msg.obj
 0002:00000a10       ??_C@_0BH@NNCD@?$DMprogram?5name?5unknown?$DO?$AA@ 0042ca10     LIBCMT:crt0msg.obj
 0002:00000a28       ??_C@_03GAFO@_yn?$AA@      0042ca28     LIBCMT:fpexcept.obj
 0002:00000a2c       ??_C@_03GNLD@_y1?$AA@      0042ca2c     LIBCMT:fpexcept.obj
 0002:00000a30       ??_C@_03MHCE@_y0?$AA@      0042ca30     LIBCMT:fpexcept.obj
 0002:00000a34       ??_C@_05PAK@frexp?$AA@     0042ca34     LIBCMT:fpexcept.obj
 0002:00000a3c       ??_C@_04JKCH@fmod?$AA@     0042ca3c     LIBCMT:fpexcept.obj
 0002:00000a44       ??_C@_06GGHF@_hypot?$AA@   0042ca44     LIBCMT:fpexcept.obj
 0002:00000a4c       ??_C@_05JNMC@_cabs?$AA@    0042ca4c     LIBCMT:fpexcept.obj
 0002:00000a54       ??_C@_05MEKH@ldexp?$AA@    0042ca54     LIBCMT:fpexcept.obj
 0002:00000a5c       ??_C@_04KAOJ@modf?$AA@     0042ca5c     LIBCMT:fpexcept.obj
 0002:00000a64       ??_C@_04EHAJ@fabs?$AA@     0042ca64     LIBCMT:fpexcept.obj
 0002:00000a6c       ??_C@_05MFBN@floor?$AA@    0042ca6c     LIBCMT:fpexcept.obj
 0002:00000a74       ??_C@_04JJMP@ceil?$AA@     0042ca74     LIBCMT:fpexcept.obj
 0002:00000a7c       ??_C@_03JLPI@tan?$AA@      0042ca7c     LIBCMT:fpexcept.obj
 0002:00000a80       ??_C@_03DLFL@cos?$AA@      0042ca80     LIBCMT:fpexcept.obj
 0002:00000a84       ??_C@_03JAMN@sin?$AA@      0042ca84     LIBCMT:fpexcept.obj
 0002:00000a88       ??_C@_04LMBE@sqrt?$AA@     0042ca88     LIBCMT:fpexcept.obj
 0002:00000a90       ??_C@_05BFPO@atan2?$AA@    0042ca90     LIBCMT:fpexcept.obj
 0002:00000a98       ??_C@_04EAGN@atan?$AA@     0042ca98     LIBCMT:fpexcept.obj
 0002:00000aa0       ??_C@_04OAMO@acos?$AA@     0042caa0     LIBCMT:fpexcept.obj
 0002:00000aa8       ??_C@_04ELFI@asin?$AA@     0042caa8     LIBCMT:fpexcept.obj
 0002:00000ab0       ??_C@_04LFAD@tanh?$AA@     0042cab0     LIBCMT:fpexcept.obj
 0002:00000ab8       ??_C@_04PFKD@cosh?$AA@     0042cab8     LIBCMT:fpexcept.obj
 0002:00000ac0       ??_C@_04NPAI@sinh?$AA@     0042cac0     LIBCMT:fpexcept.obj
 0002:00000ac8       ??_C@_05IJHH@log10?$AA@    0042cac8     LIBCMT:fpexcept.obj
 0002:00000ad0       ??_C@_03BGKD@log?$AA@      0042cad0     LIBCMT:fpexcept.obj
 0002:00000ad4       ??_C@_03EGFG@pow?$AA@      0042cad4     LIBCMT:fpexcept.obj
 0002:00000ad8       ??_C@_03CDGJ@exp?$AA@      0042cad8     LIBCMT:fpexcept.obj
 0002:00000adc       ??_C@_0BD@NJFP@GetLastActivePopup?$AA@ 0042cadc     LIBCMT:crtmbox.obj
 0002:00000af0       ??_C@_0BA@GILI@GetActiveWindow?$AA@ 0042caf0     LIBCMT:crtmbox.obj
 0002:00000b00       ??_C@_0M@PKCK@MessageBoxA?$AA@ 0042cb00     LIBCMT:crtmbox.obj
 0002:00000b0c       ??_C@_0L@HKL@user32?4dll?$AA@ 0042cb0c     LIBCMT:crtmbox.obj
 0002:00000b18       ??_C@_01A@?$AA?$AA@        0042cb18     LIBCMT:a_map.obj
 0002:00000b1c       ??_C@_13A@?$AA?$AA?$AA?$AA@ 0042cb1c     LIBCMT:a_map.obj
 0002:00000b44       ??_C@_06PAPI@1?$CDQNAN?$AA@ 0042cb44     LIBCMT:x10fout.obj
 0002:00000b4c       ??_C@_05BGNL@1?$CDINF?$AA@ 0042cb4c     LIBCMT:x10fout.obj
 0002:00000b54       ??_C@_05EDPF@1?$CDIND?$AA@ 0042cb54     LIBCMT:x10fout.obj
 0002:00000b5c       ??_C@_06LKFM@1?$CDSNAN?$AA@ 0042cb5c     LIBCMT:x10fout.obj
 0002:00000b64       ??_C@_07CJME@H?3mm?3ss?$AA@ 0042cb64     LIBCMT:strftime.obj
 0002:00000b6c       ??_C@_0BE@MHI@dddd?0?5MMMM?5dd?0?5yyyy?$AA@ 0042cb6c     LIBCMT:strftime.obj
 0002:00000b80       ??_C@_06HCAD@M?1d?1yy?$AA@ 0042cb80     LIBCMT:strftime.obj
 0002:00000b88       ??_C@_02DBLP@PM?$AA@       0042cb88     LIBCMT:strftime.obj
 0002:00000b8c       ??_C@_02ENLM@AM?$AA@       0042cb8c     LIBCMT:strftime.obj
 0002:00000b90       ??_C@_08LIDF@December?$AA@ 0042cb90     LIBCMT:strftime.obj
 0002:00000b9c       ??_C@_08NJLI@November?$AA@ 0042cb9c     LIBCMT:strftime.obj
 0002:00000ba8       ??_C@_07IAMM@October?$AA@  0042cba8     LIBCMT:strftime.obj
 0002:00000bb0       ??_C@_09MKGD@September?$AA@ 0042cbb0     LIBCMT:strftime.obj
 0002:00000bbc       ??_C@_06PADP@August?$AA@   0042cbbc     LIBCMT:strftime.obj
 0002:00000bc4       ??_C@_04PIJO@July?$AA@     0042cbc4     LIBCMT:strftime.obj
 0002:00000bcc       ??_C@_04ICFP@June?$AA@     0042cbcc     LIBCMT:strftime.obj
 0002:00000bd4       ??_C@_05JFGC@April?$AA@    0042cbd4     LIBCMT:strftime.obj
 0002:00000bdc       ??_C@_05FGPD@March?$AA@    0042cbdc     LIBCMT:strftime.obj
 0002:00000be4       ??_C@_08PGBA@February?$AA@ 0042cbe4     LIBCMT:strftime.obj
 0002:00000bf0       ??_C@_07BPKJ@January?$AA@  0042cbf0     LIBCMT:strftime.obj
 0002:00000bf8       ??_C@_03PGJO@Dec?$AA@      0042cbf8     LIBCMT:strftime.obj
 0002:00000bfc       ??_C@_03PDLM@Nov?$AA@      0042cbfc     LIBCMT:strftime.obj
 0002:00000c00       ??_C@_03BLHK@Oct?$AA@      0042cc00     LIBCMT:strftime.obj
 0002:00000c04       ??_C@_03DPFM@Sep?$AA@      0042cc04     LIBCMT:strftime.obj
 0002:00000c08       ??_C@_03CMCH@Aug?$AA@      0042cc08     LIBCMT:strftime.obj
 0002:00000c0c       ??_C@_03OBKI@Jul?$AA@      0042cc0c     LIBCMT:strftime.obj
 0002:00000c10       ??_C@_03LEIG@Jun?$AA@      0042cc10     LIBCMT:strftime.obj
 0002:00000c14       ??_C@_03MGHB@May?$AA@      0042cc14     LIBCMT:strftime.obj
 0002:00000c18       ??_C@_03MJJM@Apr?$AA@      0042cc18     LIBCMT:strftime.obj
 0002:00000c1c       ??_C@_03GNHA@Mar?$AA@      0042cc1c     LIBCMT:strftime.obj
 0002:00000c20       ??_C@_03PICE@Feb?$AA@      0042cc20     LIBCMT:strftime.obj
 0002:00000c24       ??_C@_03IEIF@Jan?$AA@      0042cc24     LIBCMT:strftime.obj
 0002:00000c28       ??_C@_08FAKH@Saturday?$AA@ 0042cc28     LIBCMT:strftime.obj
 0002:00000c34       ??_C@_06ONCK@Friday?$AA@   0042cc34     LIBCMT:strftime.obj
 0002:00000c3c       ??_C@_08CCFO@Thursday?$AA@ 0042cc3c     LIBCMT:strftime.obj
 0002:00000c48       ??_C@_09PBIN@Wednesday?$AA@ 0042cc48     LIBCMT:strftime.obj
 0002:00000c54       ??_C@_07BMBC@Tuesday?$AA@  0042cc54     LIBCMT:strftime.obj
 0002:00000c5c       ??_C@_06CHLK@Monday?$AA@   0042cc5c     LIBCMT:strftime.obj
 0002:00000c64       ??_C@_06OOEM@Sunday?$AA@   0042cc64     LIBCMT:strftime.obj
 0002:00000c6c       ??_C@_03HIKC@Thu?$AA@      0042cc6c     LIBCMT:strftime.obj
 0002:00000c70       ___dnames                  0042cc70     LIBCMT:timeset.obj
 0002:00000c88       ___mnames                  0042cc88     LIBCMT:timeset.obj
 0002:00000cb0       __IMPORT_DESCRIPTOR_KERNEL32 0042ccb0     kernel32:KERNEL32.dll
 0002:00000cc4       __IMPORT_DESCRIPTOR_USER32 0042ccc4     user32:USER32.dll
 0002:00000cd8       __IMPORT_DESCRIPTOR_GDI32  0042ccd8     gdi32:GDI32.dll
 0002:00000cec       __IMPORT_DESCRIPTOR_COMCTL32 0042ccec     comctl32:COMCTL32.dll
 0002:00000d00       __IMPORT_DESCRIPTOR_SHELL32 0042cd00     shell32:SHELL32.dll
 0002:00000d14       __IMPORT_DESCRIPTOR_WSOCK32 0042cd14     wsock32:WSOCK32.dll
 0002:00000d28       __NULL_IMPORT_DESCRIPTOR   0042cd28     kernel32:KERNEL32.dll
 0003:00000000       ___xc_a                    0042e000     LIBCMT:crt0init.obj
 0003:00000184       ___xc_z                    0042e184     LIBCMT:crt0init.obj
 0003:00000188       ___xi_a                    0042e188     LIBCMT:crt0init.obj
 0003:00000194       ___xi_z                    0042e194     LIBCMT:crt0init.obj
 0003:00000198       ___xp_a                    0042e198     LIBCMT:crt0init.obj
 0003:0000019c       ___xp_z                    0042e19c     LIBCMT:crt0init.obj
 0003:000001a0       ___xt_a                    0042e1a0     LIBCMT:crt0init.obj
 0003:000001a4       ___xt_z                    0042e1a4     LIBCMT:crt0init.obj
 0003:000001cc       ?AChar@@3DA                0042e1cc     ft2.obj
 0003:000001cd       ?BChar@@3DA                0042e1cd     ft2.obj
 0003:000001ce       ?CChar@@3DA                0042e1ce     ft2.obj
 0003:000001cf       ?DChar@@3DA                0042e1cf     ft2.obj
 0003:000001d0       ?EChar@@3DA                0042e1d0     ft2.obj
 0003:000001d1       ?FChar@@3DA                0042e1d1     ft2.obj
 0003:000001d2       ?GChar@@3DA                0042e1d2     ft2.obj
 0003:000001d3       ?HChar@@3DA                0042e1d3     ft2.obj
 0003:000001d4       ?IChar@@3DA                0042e1d4     ft2.obj
 0003:000001d5       ?JChar@@3DA                0042e1d5     ft2.obj
 0003:000001d6       ?KChar@@3DA                0042e1d6     ft2.obj
 0003:000001d7       ?LChar@@3DA                0042e1d7     ft2.obj
 0003:000001d8       ?MChar@@3DA                0042e1d8     ft2.obj
 0003:000001d9       ?NChar@@3DA                0042e1d9     ft2.obj
 0003:000001da       ?OChar@@3DA                0042e1da     ft2.obj
 0003:000001db       ?PChar@@3DA                0042e1db     ft2.obj
 0003:000001dc       ?QChar@@3DA                0042e1dc     ft2.obj
 0003:000001dd       ?RChar@@3DA                0042e1dd     ft2.obj
 0003:000001de       ?SChar@@3DA                0042e1de     ft2.obj
 0003:000001df       ?TChar@@3DA                0042e1df     ft2.obj
 0003:000001e0       ?UChar@@3DA                0042e1e0     ft2.obj
 0003:000001e1       ?VChar@@3DA                0042e1e1     ft2.obj
 0003:000001e2       ?WChar@@3DA                0042e1e2     ft2.obj
 0003:000001e3       ?XChar@@3DA                0042e1e3     ft2.obj
 0003:000001e4       ?YChar@@3DA                0042e1e4     ft2.obj
 0003:000001e5       ?ZChar@@3DA                0042e1e5     ft2.obj
 0003:000001e6       ?ACharLow@@3DA             0042e1e6     ft2.obj
 0003:000001e7       ?BCharLow@@3DA             0042e1e7     ft2.obj
 0003:000001e8       ?CCharLow@@3DA             0042e1e8     ft2.obj
 0003:000001e9       ?DCharLow@@3DA             0042e1e9     ft2.obj
 0003:000001ea       ?ECharLow@@3DA             0042e1ea     ft2.obj
 0003:000001eb       ?FCharLow@@3DA             0042e1eb     ft2.obj
 0003:000001ec       ?GCharLow@@3DA             0042e1ec     ft2.obj
 0003:000001ed       ?HCharLow@@3DA             0042e1ed     ft2.obj
 0003:000001ee       ?ICharLow@@3DA             0042e1ee     ft2.obj
 0003:000001ef       ?JCharLow@@3DA             0042e1ef     ft2.obj
 0003:000001f0       ?KCharLow@@3DA             0042e1f0     ft2.obj
 0003:000001f1       ?LCharLow@@3DA             0042e1f1     ft2.obj
 0003:000001f2       ?MCharLow@@3DA             0042e1f2     ft2.obj
 0003:000001f3       ?NCharLow@@3DA             0042e1f3     ft2.obj
 0003:000001f4       ?OCharLow@@3DA             0042e1f4     ft2.obj
 0003:000001f5       ?PCharLow@@3DA             0042e1f5     ft2.obj
 0003:000001f6       ?QCharLow@@3DA             0042e1f6     ft2.obj
 0003:000001f7       ?RCharLow@@3DA             0042e1f7     ft2.obj
 0003:000001f8       ?SCharLow@@3DA             0042e1f8     ft2.obj
 0003:000001f9       ?TCharLow@@3DA             0042e1f9     ft2.obj
 0003:000001fa       ?UCharLow@@3DA             0042e1fa     ft2.obj
 0003:000001fb       ?VCharLow@@3DA             0042e1fb     ft2.obj
 0003:000001fc       ?WCharLow@@3DA             0042e1fc     ft2.obj
 0003:000001fd       ?XCharLow@@3DA             0042e1fd     ft2.obj
 0003:000001fe       ?YCharLow@@3DA             0042e1fe     ft2.obj
 0003:000001ff       ?ZCharLow@@3DA             0042e1ff     ft2.obj
 0003:00000200       ?AsterixChar@@3DA          0042e200     ft2.obj
 0003:00000201       ?BackSlashChar@@3DA        0042e201     ft2.obj
 0003:00000202       ?ColonChar@@3DA            0042e202     ft2.obj
 0003:00000203       ?CommaChar@@3DA            0042e203     ft2.obj
 0003:00000204       ?CrChar@@3DA               0042e204     ft2.obj
 0003:00000205       ?DoubleQuoteChar@@3DA      0042e205     ft2.obj
 0003:00000206       ?EqualsChar@@3DA           0042e206     ft2.obj
 0003:00000207       ?ForwardSlashChar@@3DA     0042e207     ft2.obj
 0003:00000208       ?LeftBracketChar@@3DA      0042e208     ft2.obj
 0003:00000209       ?LeftCurlyBracket@@3DA     0042e209     ft2.obj
 0003:0000020a       ?LfChar@@3DA               0042e20a     ft2.obj
 0003:0000020b       ?MinusChar@@3DA            0042e20b     ft2.obj
 0003:0000020c       ?PercentChar@@3DA          0042e20c     ft2.obj
 0003:0000020d       ?PeriodChar@@3DA           0042e20d     ft2.obj
 0003:0000020e       ?PlusChar@@3DA             0042e20e     ft2.obj
 0003:0000020f       ?PoundChar@@3DA            0042e20f     ft2.obj
 0003:00000210       ?QuoteChar@@3DA            0042e210     ft2.obj
 0003:00000211       ?RightBracketChar@@3DA     0042e211     ft2.obj
 0003:00000212       ?RightCurlyBracket@@3DA    0042e212     ft2.obj
 0003:00000213       ?SemiColonChar@@3DA        0042e213     ft2.obj
 0003:00000214       ?SpaceChar@@3DA            0042e214     ft2.obj
 0003:00000215       ?TabChar@@3DA              0042e215     ft2.obj
 0003:00000216       ?TildaChar@@3DA            0042e216     ft2.obj
 0003:00000217       ?UnderScoreChar@@3DA       0042e217     ft2.obj
 0003:00000218       ?ZeroChar@@3DA             0042e218     ft2.obj
 0003:00000219       ?OneChar@@3DA              0042e219     ft2.obj
 0003:0000021a       ?TwoChar@@3DA              0042e21a     ft2.obj
 0003:0000021b       ?ThreeChar@@3DA            0042e21b     ft2.obj
 0003:0000021c       ?FourChar@@3DA             0042e21c     ft2.obj
 0003:0000021d       ?FiveChar@@3DA             0042e21d     ft2.obj
 0003:0000021e       ?SixChar@@3DA              0042e21e     ft2.obj
 0003:0000021f       ?SevenChar@@3DA            0042e21f     ft2.obj
 0003:00000220       ?EightChar@@3DA            0042e220     ft2.obj
 0003:00000221       ?NineChar@@3DA             0042e221     ft2.obj
 0003:00000224       ?AsterixString@@3PADA      0042e224     ft2.obj
 0003:00000228       ?CommaString@@3PADA        0042e228     ft2.obj
 0003:0000022c       ?CrLfString@@3PADA         0042e22c     ft2.obj
 0003:00000230       ?SpaceString@@3PADA        0042e230     ft2.obj
 0003:00000234       ?StarDotStar@@3PADA        0042e234     ft2.obj
 0003:00000238       ?NofRows@@3HA              0042e238     ft2.obj
 0003:0000023c       ?Char_Width@@3HA           0042e23c     ft2.obj
 0003:00000240       ?Line_Height@@3HA          0042e240     ft2.obj
 0003:00000244       ?CurrentBoardIndex@@3HA    0042e244     ft2.obj
 0003:00000248       ?RetractWireMask@@3IA      0042e248     ft2.obj
 0003:0000024c       ?NOT_CONNECTED_STATE@@3IA  0042e24c     ft2.obj
 0003:00000250       ?NOT_MONITORED_STATE@@3IA  0042e250     ft2.obj
 0003:00000254       ?CONNECTING_STATE@@3IA     0042e254     ft2.obj
 0003:00000258       ?CONNECTED_STATE@@3IA      0042e258     ft2.obj
 0003:0000025c       ?ZERO_STROKE_LENGTH_STATE@@3IA 0042e25c     ft2.obj
 0003:00000260       ?UPLOAD_WAS_ABORTED_STATE@@3IA 0042e260     ft2.obj
 0003:00000264       ?HistoryShotCount@@3HA     0042e264     ft2.obj
 0003:00000268       ?ConfigSection@@3PADA      0042e268     ft2.obj
 0003:00000270       ?CurrentValuesSection@@3PADA 0042e270     ft2.obj
 0003:00000280       ?CommonResourceFile@@3PADA 0042e280     ft2.obj
 0003:00000288       ?DisplayIniFile@@3PADA     0042e288     ft2.obj
 0003:00000294       ?FtiiIniFile@@3PADA        0042e294     ft2.obj
 0003:000002a0       ?MonallIniFile@@3PADA      0042e2a0     ft2.obj
 0003:000002ac       ?MyMenuFile@@3PADA         0042e2ac     ft2.obj
 0003:000002b4       ?MyResourceFile@@3PADA     0042e2b4     ft2.obj
 0003:000002b8       ?SureTrakIniFile@@3PADA    0042e2b8     ft2.obj
 0003:000002c8       ?TerminalMenuFile@@3PADA   0042e2c8     ft2.obj
 0003:000002d8       ?VisiTrakIniFile@@3PADA    0042e2d8     ft2.obj
 0003:000002e8       ?AlsLogFile@@3PADA         0042e2e8     ft2.obj
 0003:000002fc       ?AlsLogIsActiveKey@@3PADA  0042e2fc     ft2.obj
 0003:00000304       ?ClearAlarmsEachShotKey@@3PADA 0042e304     ft2.obj
 0003:00000318       ?ClearDownWireFromPopupKey@@3PADA 0042e318     ft2.obj
 0003:00000330       ?ClearMonitorWireOnDownKey@@3PADA 0042e330     ft2.obj
 0003:00000348       ?CurrentChannelModeKey@@3PADA 0042e348     ft2.obj
 0003:0000035c       ?CurrentLanguageKey@@3PADA 0042e35c     ft2.obj
 0003:0000036c       ?DownTimeAlarmWireKey@@3PADA 0042e36c     ft2.obj
 0003:00000380       ?ExitEnableLevelKey@@3PADA 0042e380     ft2.obj
 0003:00000390       ?FlashVersionKey@@3PADA    0042e390     ft2.obj
 0003:000003a0       ?HavePressureControlKey@@3PADA 0042e3a0     ft2.obj
 0003:000003b4       ?HaveSureTrakKey@@3PADA    0042e3b4     ft2.obj
 0003:000003c4       ?IsHiresSensorKey@@3PADA   0042e3c4     ft2.obj
 0003:000003d4       ?LogSentCommandsKey@@3PADA 0042e3d4     ft2.obj
 0003:000003e4       ?LastNKey@@3PADA           0042e3e4     ft2.obj
 0003:000003ec       ?MonitorWireKey@@3PADA     0042e3ec     ft2.obj
 0003:000003f8       ?NoUploadWireKey@@3PADA    0042e3f8     ft2.obj
 0003:00000408       ?RetractWireKey@@3PADA     0042e408     ft2.obj
 0003:00000414       ?SaveAllAlarmShotsKey@@3PADA 0042e414     ft2.obj
 0003:00000428       ?SavepartExeName@@3PADA    0042e428     ft2.obj
 0003:00000438       ?SentCommandsLogFile@@3PADA 0042e438     ft2.obj
 0003:00000458       ?ServiceToolsGrayLevelKey@@3PADA 0042e458     ft2.obj
 0003:00000470       ?SubtractTimeoutKey@@3PADA 0042e470     ft2.obj
 0003:00000480       ?TurnOffAlarmsOnDownKey@@3PADA 0042e480     ft2.obj
 0003:00000494       ?UploadRetractTimeoutKey@@3PADA 0042e494     ft2.obj
 0003:000004ac       ?UploadStartShotTimeoutKey@@3PADA 0042e4ac     ft2.obj
 0003:000004c4       ?UseNullValveOutputKey@@3PADA 0042e4c4     ft2.obj
 0003:000004d8       ?UseValveTestOutputKey@@3PADA 0042e4d8     ft2.obj
 0003:000004ec       ?StartControlPgmCmd@@3PADA 0042e4ec     ft2.obj
 0003:000004f0       ?EnableShotXmitCmd@@3PADA  0042e4f0     ft2.obj
 0003:000004f8       ?DisableShotXmitCmd@@3PADA 0042e4f8     ft2.obj
 0003:00000500       ?ShotXmitCmdLen@@3HA       0042e500     ft2.obj
 0003:00000504       ?START_OF_UPLOAD@@3PADA    0042e504     ft2.obj
 0003:00000514       ?END_OF_UPLOAD@@3PADA      0042e514     ft2.obj
 0003:00000524       ?RESET_MACHINE_CMD@@3PADA  0042e524     ft2.obj
 0003:00000534       ?CLEAR_NO_UPLOAD_FLAG_CMD@@3PADA 0042e534     ft2.obj
 0003:0000054c       ?DONT_SEND_OP_DATA_PACKETS@@3PADA 0042e54c     ft2.obj
 0003:00000554       ?SEND_OP_DATA_PACKETS@@3PADA 0042e554     ft2.obj
 0003:0000055c       ?CLEAR_CONTROL_FILE_DATE_CMD@@3PADA 0042e55c     ft2.obj
 0003:00000564       ?NormalCellColor@@3KA      0042e564     ft2.obj
 0003:00000568       ?GreenColor@@3KA           0042e568     ft2.obj
 0003:0000056c       ?OrangeColor@@3KA          0042e56c     ft2.obj
 0003:00000570       ?RedColor@@3KA             0042e570     ft2.obj
 0003:00000574       ?CurrentOpStatusIsEmpty@@3_NA 0042e574     ft2.obj
 0003:00000578       ?NofItems@@3HA             0042e578     ft2.obj
 0003:00000580       ?ItemList@@3PAUITEM_ENTRY@@A 0042e580     ft2.obj
 0003:000007b4       ?MyClassName@@3PADA        0042e7b4     ft2.obj
 0003:000007c0       ?TerminalClassName@@3PADA  0042e7c0     ft2.obj
 0003:000007cc       ?StatusClassName@@3PADA    0042e7cc     ft2.obj
 0003:000007d8       ?AccelName@@3PADA          0042e7d8     ft2.obj
 0003:00000918       ?Button@@3PAURESOURCE_TEXT_ENTRY@@A 0042e918     ft2.obj
 0003:00000da4       ??_C@_04DNDI@LS?54?$AA@    0042eda4     ft2.obj
 0003:00000dac       ??_C@_04GINN@LS?53?$AA@    0042edac     ft2.obj
 0003:00000db4       ??_C@_04MCEK@LS?52?$AA@    0042edb4     ft2.obj
 0003:00000dbc       ??_C@_04DNPD@LS?51?$AA@    0042edbc     ft2.obj
 0003:00000dc4       ??_C@_05IKEC@Fault?$AA@    0042edc4     ft2.obj
 0003:00000dcc       ??_C@_04GIBG@LS?56?$AA@    0042edcc     ft2.obj
 0003:00000dd4       ??_C@_04JHKP@LS?55?$AA@    0042edd4     ft2.obj
 0003:00000ddc       ??_C@_09FPMJ@OutBit?524?$AA@ 0042eddc     ft2.obj
 0003:00000de8       ??_C@_09KCM@OutBit?523?$AA@ 0042ede8     ft2.obj
 0003:00000df4       ??_C@_09KALL@OutBit?522?$AA@ 0042edf4     ft2.obj
 0003:00000e00       ??_C@_09FPAC@OutBit?521?$AA@ 0042ee00     ft2.obj
 0003:00000e0c       ??_C@_09PFJF@OutBit?520?$AA@ 0042ee0c     ft2.obj
 0003:00000e18       ??_C@_09DAEF@OutBit?519?$AA@ 0042ee18     ft2.obj
 0003:00000e24       ??_C@_09JKNC@OutBit?518?$AA@ 0042ee24     ft2.obj
 0003:00000e30       ??_C@_0BG@IAOD@Accumulator?5?5?5?5OUTPUT?$AA@ 0042ee30     ft2.obj
 0003:00000e48       ??_C@_0BG@CBNO@Slow?5Shot?5?5?5?5?5?5OUTPUT?$AA@ 0042ee48     ft2.obj
 0003:00000e60       ??_C@_09DEOG@MonOut?515?$AA@ 0042ee60     ft2.obj
 0003:00000e6c       ??_C@_09JOHB@MonOut?514?$AA@ 0042ee6c     ft2.obj
 0003:00000e78       ??_C@_09MLJE@MonOut?513?$AA@ 0042ee78     ft2.obj
 0003:00000e84       ??_C@_09GBAD@MonOut?512?$AA@ 0042ee84     ft2.obj
 0003:00000e90       ??_C@_09JOLK@MonOut?511?$AA@ 0042ee90     ft2.obj
 0003:00000e9c       ??_C@_09DECN@MonOut?510?$AA@ 0042ee9c     ft2.obj
 0003:00000ea8       ??_C@_08OJMK@MonOut?59?$AA@ 0042eea8     ft2.obj
 0003:00000eb4       ??_C@_08EDFN@MonOut?58?$AA@ 0042eeb4     ft2.obj
 0003:00000ec0       ??_C@_08ECAA@MonOut?57?$AA@ 0042eec0     ft2.obj
 0003:00000ecc       ??_C@_08OIJH@MonOut?56?$AA@ 0042eecc     ft2.obj
 0003:00000ed8       ??_C@_08BHCO@MonOut?55?$AA@ 0042eed8     ft2.obj
 0003:00000ee4       ??_C@_08LNLJ@MonOut?54?$AA@ 0042eee4     ft2.obj
 0003:00000ef0       ??_C@_08OIFM@MonOut?53?$AA@ 0042eef0     ft2.obj
 0003:00000efc       ??_C@_08ECML@MonOut?52?$AA@ 0042eefc     ft2.obj
 0003:00000f08       ??_C@_08LNHC@MonOut?51?$AA@ 0042ef08     ft2.obj
 0003:00000f14       ??_C@_08BHOF@MonOut?50?$AA@ 0042ef14     ft2.obj
 0003:00000f20       ??_C@_06LLKC@E?9Stop?$AA@  0042ef20     ft2.obj
 0003:00000f28       ??_C@_0O@PFJH@Bit?530?5?$CI0?931?$CJ?$AA@ 0042ef28     ft2.obj
 0003:00000f38       ??_C@_06GDIL@Intens?$AA@   0042ef38     ft2.obj
 0003:00000f40       ??_C@_09BBOF@Fill?5Test?$AA@ 0042ef40     ft2.obj
 0003:00000f4c       ??_C@_0L@GDJK@Low?5Impact?$AA@ 0042ef4c     ft2.obj
 0003:00000f58       ??_C@_06EBFK@Vac?5ON?$AA@  0042ef58     ft2.obj
 0003:00000f60       ??_C@_09MPID@OK?5for?5FS?$AA@ 0042ef60     ft2.obj
 0003:00000f6c       ??_C@_06FAKB@Bit?524?$AA@  0042ef6c     ft2.obj
 0003:00000f74       ??_C@_06FEE@Bit?523?$AA@   0042ef74     ft2.obj
 0003:00000f7c       ??_C@_07LJCO@At?5Home?$AA@ 0042ef7c     ft2.obj
 0003:00000f84       ??_C@_0M@BPKP@Manual?5Mode?$AA@ 0042ef84     ft2.obj
 0003:00000f90       ??_C@_08EGLA@Jog?5Shot?$AA@ 0042ef90     ft2.obj
 0003:00000f9c       ??_C@_07EFCF@Retract?$AA@  0042ef9c     ft2.obj
 0003:00000fa4       ??_C@_0P@EGHD@Follow?5Through?$AA@ 0042efa4     ft2.obj
 0003:00000fb4       ??_C@_0L@FNOP@Start?5Shot?$AA@ 0042efb4     ft2.obj
 0003:00000fc0       ??_C@_07OOAE@Pump?5On?$AA@ 0042efc0     ft2.obj
 0003:00000fc8       ??_C@_06HBGC@Mon?515?$AA@  0042efc8     ft2.obj
 0003:00000fd0       ??_C@_06NLPF@Mon?514?$AA@  0042efd0     ft2.obj
 0003:00000fd8       ??_C@_06IOBA@Mon?513?$AA@  0042efd8     ft2.obj
 0003:00000fe0       ??_C@_06CEIH@Mon?512?$AA@  0042efe0     ft2.obj
 0003:00000fe8       ??_C@_06NLDO@Mon?511?$AA@  0042efe8     ft2.obj
 0003:00000ff0       ??_C@_06HBKJ@Mon?510?$AA@  0042eff0     ft2.obj
 0003:00000ff8       ??_C@_05GNHH@Mon?59?$AA@   0042eff8     ft2.obj
 0003:00001000       ??_C@_05MHOA@Mon?58?$AA@   0042f000     ft2.obj
 0003:00001008       ??_C@_05MGLN@Mon?57?$AA@   0042f008     ft2.obj
 0003:00001010       ??_C@_05GMCK@Mon?56?$AA@   0042f010     ft2.obj
 0003:00001018       ??_C@_05JDJD@Mon?55?$AA@   0042f018     ft2.obj
 0003:00001020       ??_C@_05DJAE@Mon?54?$AA@   0042f020     ft2.obj
 0003:00001028       ??_C@_05GMOB@Mon?53?$AA@   0042f028     ft2.obj
 0003:00001030       ??_C@_05MGHG@Mon?52?$AA@   0042f030     ft2.obj
 0003:00001038       ??_C@_05DJMP@Mon?51?$AA@   0042f038     ft2.obj
 0003:00001040       ??_C@_05JDFI@Mon?50?$AA@   0042f040     ft2.obj
 0003:00001048       ??_C@_0BC@EDCC@NULL_ALREADY_GOOD?$AA@ 0042f048     ft2.obj
 0003:0000105c       ??_C@_0BC@IPC@AUTO_NULL_SUCCESS?$AA@ 0042f05c     ft2.obj
 0003:00001070       ??_C@_0BB@FCKK@AUTO_NULL_FAILED?$AA@ 0042f070     ft2.obj
 0003:00001084       ??_C@_0P@BGM@BEGINNING_NULL?$AA@ 0042f084     ft2.obj
 0003:00001094       ??_C@_0BB@EPMO@Retract?5End?5Time?$AA@ 0042f094     ft2.obj
 0003:000010a8       ??_C@_0N@LOK@Retract?5Time?$AA@ 0042f0a8     ft2.obj
 0003:000010b8       ??_C@_0BB@DJCG@Follow?5Thru?5Time?$AA@ 0042f0b8     ft2.obj
 0003:000010cc       ??_C@_0L@NLIN@Cycle?5Time?$AA@ 0042f0cc     ft2.obj
 0003:000010d8       ??_C@_0N@NKLE@Retract?5Wire?$AA@ 0042f0d8     ft2.obj
 0003:000010e8       ??_C@_0BB@OIHI@Follow?5Thru?5Wire?$AA@ 0042f0e8     ft2.obj
 0003:000010fc       ??_C@_0BA@CCLL@Start?5Shot?5Wire?$AA@ 0042f0fc     ft2.obj
 0003:0000110c       ??_C@_09MGIA@F10_RADIO?$AA@ 0042f10c     ft2.obj
 0003:00001118       ??_C@_08PHFE@F9_RADIO?$AA@ 0042f118     ft2.obj
 0003:00001124       ??_C@_08NJMB@F8_RADIO?$AA@ 0042f124     ft2.obj
 0003:00001130       ??_C@_08GEIE@F7_RADIO?$AA@ 0042f130     ft2.obj
 0003:0000113c       ??_C@_08EKBB@F6_RADIO?$AA@ 0042f13c     ft2.obj
 0003:00001148       ??_C@_08DJKP@F5_RADIO?$AA@ 0042f148     ft2.obj
 0003:00001154       ??_C@_08BHDK@F4_RADIO?$AA@ 0042f154     ft2.obj
 0003:00001160       ??_C@_08NONC@F3_RADIO?$AA@ 0042f160     ft2.obj
 0003:0000116c       ??_C@_08PAEH@F2_RADIO?$AA@ 0042f16c     ft2.obj
 0003:00001178       ??_C@_0BE@IJJH@LOW_PW_LEVEL_STRING?$AA@ 0042f178     ft2.obj
 0003:0000118c       ??_C@_0BG@DDGN@MONITOR_STATUS_STRING?$AA@ 0042f18c     ft2.obj
 0003:000011a4       ??_C@_0M@INJJ@PART_STRING?$AA@ 0042f1a4     ft2.obj
 0003:000011b0       ??_C@_0P@LGC@MACHINE_STRING?$AA@ 0042f1b0     ft2.obj
 0003:000011c0       ??_C@_0BC@BBCC@COM_STATUS_STRING?$AA@ 0042f1c0     ft2.obj
 0003:000011d4       ??_C@_0P@DKMA@ADDRESS_STRING?$AA@ 0042f1d4     ft2.obj
 0003:000011e4       ??_C@_0N@MHCL@BOARD_STRING?$AA@ 0042f1e4     ft2.obj
 0003:000011f4       ??_C@_0BD@FJLB@NO_RESPONSE_STRING?$AA@ 0042f1f4     ft2.obj
 0003:00001208       ??_C@_0BM@KCBE@TURN_OFF_ALL_OUTPUTS_STRING?$AA@ 0042f208     ft2.obj
 0003:00001224       ??_C@_0BL@IALG@TURN_ON_ALL_OUTPUTS_STRING?$AA@ 0042f224     ft2.obj
 0003:00001240       ??_C@_0BM@INPG@SHOTSAVE_NOT_RUNNING_STRING?$AA@ 0042f240     ft2.obj
 0003:0000125c       ??_C@_0BM@CMHM@SHUTTING_DOWN_REMOTE_STRING?$AA@ 0042f25c     ft2.obj
 0003:00001278       ??_C@_0BO@NIMN@SHUTTING_DOWN_SHOTSAVE_STRING?$AA@ 0042f278     ft2.obj
 0003:00001298       ??_C@_0BN@FCE@SHUTTING_DOWN_MONITOR_STRING?$AA@ 0042f298     ft2.obj
 0003:000012b8       ??_C@_0BB@FMCM@RESTARTED_STRING?$AA@ 0042f2b8     ft2.obj
 0003:000012cc       ??_C@_0BI@KEPJ@CONTROL_INPUT_29_STRING?$AA@ 0042f2cc     ft2.obj
 0003:000012e4       ??_C@_0BI@OMNH@CONTROL_INPUT_28_STRING?$AA@ 0042f2e4     ft2.obj
 0003:000012fc       ??_C@_0BI@FFGK@CONTROL_INPUT_27_STRING?$AA@ 0042f2fc     ft2.obj
 0003:00001314       ??_C@_0BI@BNEE@CONTROL_INPUT_26_STRING?$AA@ 0042f314     ft2.obj
 0003:0000132c       ??_C@_0BI@MFDH@CONTROL_INPUT_25_STRING?$AA@ 0042f32c     ft2.obj
 0003:00001344       ??_C@_0BI@INBJ@CONTROL_INPUT_24_STRING?$AA@ 0042f344     ft2.obj
 0003:0000135c       ??_C@_0BI@HFNA@CONTROL_INPUT_23_STRING?$AA@ 0042f35c     ft2.obj
 0003:00001374       ??_C@_0BI@DNPO@CONTROL_INPUT_22_STRING?$AA@ 0042f374     ft2.obj
 0003:0000138c       ??_C@_0BI@OFIN@CONTROL_INPUT_21_STRING?$AA@ 0042f38c     ft2.obj
 0003:000013a4       ??_C@_0BI@KNKD@CONTROL_INPUT_20_STRING?$AA@ 0042f3a4     ft2.obj
 0003:000013bc       ??_C@_0BI@OCCB@CONTROL_INPUT_19_STRING?$AA@ 0042f3bc     ft2.obj
 0003:000013d4       ??_C@_0BI@KKAP@CONTROL_INPUT_18_STRING?$AA@ 0042f3d4     ft2.obj
 0003:000013ec       ??_C@_0BG@KACP@NO_UPLOAD_FILE_STRING?$AA@ 0042f3ec     ft2.obj
 0003:00001404       ??_C@_0L@OHBM@OFF_STRING?$AA@ 0042f404     ft2.obj
 0003:00001410       ??_C@_09FHKO@ON_STRING?$AA@ 0042f410     ft2.obj
 0003:0000141c       ??_C@_0BK@PEIE@ZERO_STROKE_LENGTH_STRING?$AA@ 0042f41c     ft2.obj
 0003:00001438       ??_C@_0P@KKHF@TIMEOUT_STRING?$AA@ 0042f438     ft2.obj
 0003:00001448       ??_C@_0BD@IJDI@CYCLE_START_STRING?$AA@ 0042f448     ft2.obj
 0003:0000145c       ??_C@_0BH@KFOO@UPLOAD_COMPLETE_STRING?$AA@ 0042f45c     ft2.obj
 0003:00001474       ??_C@_0BE@FEK@BEGIN_UPLOAD_STRING?$AA@ 0042f474     ft2.obj
 0003:00001488       ??_C@_0BE@FNIK@PACKET_ERROR_STRING?$AA@ 0042f488     ft2.obj
 0003:0000149c       ??_C@_0N@JKNJ@READY_STRING?$AA@ 0042f49c     ft2.obj
 0003:000014ac       ??_C@_0BD@HJEI@SAVING_SHOT_STRING?$AA@ 0042f4ac     ft2.obj
 0003:000014c0       ??_C@_0O@EKPE@PACKET_STRING?$AA@ 0042f4c0     ft2.obj
 0003:000014d0       ??_C@_0P@NOK@MISSING_STRING?$AA@ 0042f4d0     ft2.obj
 0003:000014e0       ??_C@_0BA@LFMP@REPEATED_STRING?$AA@ 0042f4e0     ft2.obj
 0003:000014f0       ??_C@_0BD@KKAM@UPLOAD_FAIL_STRING?$AA@ 0042f4f0     ft2.obj
 0003:00001504       ??_C@_0BE@DAMJ@NAK_RECEIVED_STRING?$AA@ 0042f504     ft2.obj
 0003:00001518       ??_C@_0BB@IOHK@NEW_SETUP_STRING?$AA@ 0042f518     ft2.obj
 0003:0000152c       ??_C@_0BG@LLAN@CANT_OPEN_FILE_STRING?$AA@ 0042f52c     ft2.obj
 0003:00001544       ??_C@_0BG@GBEK@NO_WARMUP_PART_STRING?$AA@ 0042f544     ft2.obj
 0003:0000155c       ??_C@_0BF@LCBP@DISCONNECTING_STRING?$AA@ 0042f55c     ft2.obj
 0003:00001574       ??_C@_0BC@OMPE@NO_CONNECT_STRING?$AA@ 0042f574     ft2.obj
 0003:00001588       ??_C@_0BI@FIAP@NO_MASTER_ENABLE_STRING?$AA@ 0042f588     ft2.obj
 0003:000015a0       ??_C@_0BC@NFPD@CONNECTING_STRING?$AA@ 0042f5a0     ft2.obj
 0003:000015b4       ??_C@_0BF@LJHO@NOT_MONITORED_STRING?$AA@ 0042f5b4     ft2.obj
 0003:000015cc       ??_C@_0BL@MLM@UNUSABLE_NULL_LEVEL_STRING?$AA@ 0042f5cc     ft2.obj
 0003:000015e8       ??_C@_0BJ@ICMA@NULL_ALREADY_GOOD_STRING?$AA@ 0042f5e8     ft2.obj
 0003:00001604       ??_C@_0BJ@KNGF@AUTO_NULL_SUCCESS_STRING?$AA@ 0042f604     ft2.obj
 0003:00001620       ??_C@_0BG@NNHF@AUTO_NULL_FAIL_STRING?$AA@ 0042f620     ft2.obj
 0003:00001638       ??_C@_0BH@NDMB@AUTO_NULL_BEGIN_STRING?$AA@ 0042f638     ft2.obj
 0003:00001650       ??_C@_0BG@NNNI@MANUAL_NULLING_STRING?$AA@ 0042f650     ft2.obj
 0003:00001668       ??_C@_0BI@CJIM@N0_NEW_AUTO_NULL_STRING?$AA@ 0042f668     ft2.obj
 0003:00001680       ??_C@_0BI@GAFK@UNABLE_TO_COMPLY_STRING?$AA@ 0042f680     ft2.obj
 0003:00001698       ??_C@_0BH@IHCJ@SHOTSAVE_THREAD_STRING?$AA@ 0042f698     ft2.obj
 0003:000016b0       ??_C@_0BL@FHAG@SHOTSAVE_EVENT_FAIL_STRING?$AA@ 0042f6b0     ft2.obj
 0003:000016cc       ??_C@_0BK@LLID@SHOTSAVE_WAIT_FAIL_STRING?$AA@ 0042f6cc     ft2.obj
 0003:000016e8       ??_C@_0BE@NEMP@TEST_WARNING_STRING?$AA@ 0042f6e8     ft2.obj
 0003:000016fc       ??_C@_0BI@PJNE@VAC_ABORT_ZSPEED_STRING?$AA@ 0042f6fc     ft2.obj
 0003:00001714       ??_C@_0CB@CBON@MASTER_ENABLE_DROPPED_OUT_STRING@ 0042f714     ft2.obj
 0003:00001738       ??_C@_0BH@CPOJ@FILL_TEST_ABORT_STRING?$AA@ 0042f738     ft2.obj
 0003:00001750       ??_C@_0BN@MILJ@BLOCK_TIMEOUT_WARNING_STRING?$AA@ 0042f750     ft2.obj
 0003:00001770       ??_C@_0BO@NEOH@VAC_ABORT_POS_TOO_LONG_STRING?$AA@ 0042f770     ft2.obj
 0003:00001790       ??_C@_0BI@BHJD@TEST_FATAL_ERROR_STRING?$AA@ 0042f790     ft2.obj
 0003:000017a8       ??_C@_0BP@JMHB@PROGRAM_STOPPED_BY_USER_STRING?$AA@ 0042f7a8     ft2.obj
 0003:000017c8       ??_C@_0BN@OLNB@BLOCK_EXECUTION_ERROR_STRING?$AA@ 0042f7c8     ft2.obj
 0003:000017e8       ??_C@_0BF@OKIA@INVALID_BLOCK_STRING?$AA@ 0042f7e8     ft2.obj
 0003:00001800       ??_C@_0BF@DGHG@BLOCK_TIMEOUT_STRING?$AA@ 0042f800     ft2.obj
 0003:00001818       ??_C@_0BG@MAMF@STACK_OVERFLOW_STRING?$AA@ 0042f818     ft2.obj
 0003:00001830       ??_C@_0P@GMOE@UNKNOWN_STRING?$AA@ 0042f830     ft2.obj
 0003:00001840       ??_C@_0BC@PCJ@NO_PROGRAM_STRING?$AA@ 0042f840     ft2.obj
 0003:00001854       ??_C@_06CEPA@SAVING?$AA@   0042f854     ft2.obj
 0003:0000185c       ??_C@_0BH@DBB@CONTROL_WARNING_STRING?$AA@ 0042f85c     ft2.obj
 0003:00001874       ??_C@_0BF@IMHH@CONTROL_FATAL_STRING?$AA@ 0042f874     ft2.obj
 0003:0000188c       ??_C@_0BG@CPGA@CONTROL_ACTIVE_STRING?$AA@ 0042f88c     ft2.obj
 0003:000018a4       ??_C@_0BB@BNLM@CONNECTED_STRING?$AA@ 0042f8a4     ft2.obj
 0003:000018b8       ??_C@_0BF@KIGL@NOT_CONNECTED_STRING?$AA@ 0042f8b8     ft2.obj
 0003:000018d0       ??_C@_0BF@IOLP@CREATE_FAILED_STRING?$AA@ 0042f8d0     ft2.obj
 0003:000018e8       ??_C@_0BP@DCEL@BOARD_MONITOR_WAIT_FAIL_STRING?$AA@ 0042f8e8     ft2.obj
 0003:00001908       ??_C@_0BM@PJFJ@BOARD_MONITOR_THREAD_STRING?$AA@ 0042f908     ft2.obj
 0003:00001924       ??_C@_0CA@INIP@BOARD_MONITOR_EVENT_FAIL_STRING?$AA@ 0042f924     ft2.obj
 0003:00001944       ??_C@_0BG@PGBJ@NO_SHOTS_SAVED_STRING?$AA@ 0042f944     ft2.obj
 0003:0000195c       ??_C@_0BG@PFDM@LOW_DISK_SPACE_STRING?$AA@ 0042f95c     ft2.obj
 0003:00001974       ??_C@_0BM@HMHN@MONITOR_WINDOW_TITLE_STRING?$AA@ 0042f974     ft2.obj
 0003:00001990       ??_C@_0BK@MGEO@UNABLE_TO_CONTINUE_STRING?$AA@ 0042f990     ft2.obj
 0003:000019ac       ??_C@_0M@POBO@ft2help?4exe?$AA@ 0042f9ac     ft2.obj
 0003:000019b8       ??_C@_0M@IOIF@ft2help?4txt?$AA@ 0042f9b8     ft2.obj
 0003:000019c4       ??_C@_0BJ@FBHB@ftii_global_settings?4txt?$AA@ 0042f9c4     ft2.obj
 0003:000019e0       ??_C@_0BA@FHDE@C?3?2terminal?4txt?$AA@ 0042f9e0     ft2.obj
 0003:000019f0       ??_C@_0N@FAHJ@OO1?$DN00100000?$AA@ 0042f9f0     ft2.obj
 0003:00001a00       ??_C@_06GKLE@V351?$DN0?$AA@ 0042fa00     ft2.obj
 0003:00001a08       ??_C@_05DNKM@OC5?$DN1?$AA@ 0042fa08     ft2.obj
 0003:00001a10       ??_C@_05HFPG@OC1?$DN1?$AA@ 0042fa10     ft2.obj
 0003:00001a18       ??_C@_07IDOE@?4J0?4105?$AA@ 0042fa18     ft2.obj
 0003:00001a20       ??_C@_09BKGB@V392?$DN1000?$AA@ 0042fa20     ft2.obj
 0003:00001a2c       ??_C@_07GIAK@V391?$DN17?$AA@ 0042fa2c     ft2.obj
 0003:00001a34       ??_C@_08BBPP@V390?$DN750?$AA@ 0042fa34     ft2.obj
 0003:00001a40       ??_C@_0BI@JMMN@Waiting?5for?5Shutdown?4?4?4?$AA@ 0042fa40     ft2.obj
 0003:00001a58       ??_C@_0BM@JJMJ@Waiting?5for?5Control?5Halt?4?4?4?$AA@ 0042fa58     ft2.obj
 0003:00001a74       ??_C@_02OGIB@?4H?$AA@      0042fa74     ft2.obj
 0003:00001a78       ??_C@_05NEKP@?4J0?41?$AA@  0042fa78     ft2.obj
 0003:00001a80       ??_C@_05NPGB@OC1?$DN0?$AA@ 0042fa80     ft2.obj
 0003:00001a88       ??_C@_0O@NCAP@OO1?$DN?$HO00100000?$AA@ 0042fa88     ft2.obj
 0003:00001a98       ??_C@_0BK@JGME@ftii_machine_settings?4txt?$AA@ 0042fa98     ft2.obj
 0003:00001ab4       ??_C@_0BC@JAII@machine_setup?4csv?$AA@ 0042fab4     ft2.obj
 0003:00001ac8       ??_C@_09GOJN@?5?5Part?5?$DN?5?$AA@ 0042fac8     ft2.obj
 0003:00001ad4       ??_C@_0N@CODB@?5?5Machine?5?$DN?5?$AA@ 0042fad4     ft2.obj
 0003:00001ae4       ??_C@_0M@ILAD@Computer?5?$DN?5?$AA@ 0042fae4     ft2.obj
 0003:00001af0       ??_C@_05MLJH@OC6?$DN1?$AA@ 0042faf0     ft2.obj
 0003:00001af8       ??_C@_02ONEB@VF?$AA@       0042faf8     ft2.obj
 0003:00001afc       ??_C@_06DIKC@V350?$DN0?$AA@ 0042fafc     ft2.obj
 0003:00001b04       ??_C@_05IJKA@OD3?$DNV?$AA@ 0042fb04     ft2.obj
 0003:00001b0c       ??_C@_05CNIN@OD1?$DNV?$AA@ 0042fb0c     ft2.obj
 0003:00001b14       ??_C@_09EGEB@OD4?$DNV5000?$AA@ 0042fb14     ft2.obj
 0003:00001b20       ??_C@_09KBDM@OD2?$DNV5000?$AA@ 0042fb20     ft2.obj
 0003:00001b2c       ??_C@_07EMJB@ODP3?$DN96?$AA@ 0042fb2c     ft2.obj
 0003:00001b34       ??_C@_07GDF@ODP1?$DN96?$AA@ 0042fb34     ft2.obj
 0003:00001b3c       ??_C@_07OACA@ODP3?$DN41?$AA@ 0042fb3c     ft2.obj
 0003:00001b44       ??_C@_07KKIE@ODP1?$DN41?$AA@ 0042fb44     ft2.obj
 0003:00001b4c       ??_C@_07KMOL@ODP3?$DN14?$AA@ 0042fb4c     ft2.obj
 0003:00001b54       ??_C@_07OGEP@ODP1?$DN14?$AA@ 0042fb54     ft2.obj
 0003:00001b5c       ??_C@_08HBNM@ODP4?$DN127?$AA@ 0042fb5c     ft2.obj
 0003:00001b68       ??_C@_08LBAD@ODP2?$DN127?$AA@ 0042fb68     ft2.obj
 0003:00001b74       ??_C@_06MOFI@OC12?$DN1?$AA@ 0042fb74     ft2.obj
 0003:00001b7c       ??_C@_06JCPE@OC11?$DN0?$AA@ 0042fb7c     ft2.obj
 0003:00001b84       ??_C@_06MAOC@OC10?$DN0?$AA@ 0042fb84     ft2.obj
 0003:00001b8c       ??_C@_06DIGD@OC11?$DN1?$AA@ 0042fb8c     ft2.obj
 0003:00001b94       ??_C@_06GKHF@OC10?$DN1?$AA@ 0042fb94     ft2.obj
 0003:00001b9c       ??_C@_09IPKJ@OD3?$DNV5000?$AA@ 0042fb9c     ft2.obj
 0003:00001ba8       ??_C@_09NCIC@OD1?$DNV5000?$AA@ 0042fba8     ft2.obj
 0003:00001bb4       ??_C@_0L@DMHK@OD3?$DNV?95000?$AA@ 0042fbb4     ft2.obj
 0003:00001bc0       ??_C@_0L@KMCH@OD1?$DNV?95000?$AA@ 0042fbc0     ft2.obj
 0003:00001bcc       ??_C@_06GEMP@OC12?$DN0?$AA@ 0042fbcc     ft2.obj
 0003:00001bd4       ??_C@_06DDNH@ODP4?$DN0?$AA@ 0042fbd4     ft2.obj
 0003:00001bdc       ??_C@_06NPKA@ODP2?$DN0?$AA@ 0042fbdc     ft2.obj
 0003:00001be4       ??_C@_06INLG@ODP3?$DN0?$AA@ 0042fbe4     ft2.obj
 0003:00001bec       ??_C@_06CJJL@ODP1?$DN0?$AA@ 0042fbec     ft2.obj
 0003:00001bf4       ??_C@_06GLKH@OD4?$DNV0?$AA@ 0042fbf4     ft2.obj
 0003:00001bfc       ??_C@_06LEEL@OD2?$DNV0?$AA@ 0042fbfc     ft2.obj
 0003:00001c04       ??_C@_06JBBJ@OD3?$DNV0?$AA@ 0042fc04     ft2.obj
 0003:00001c0c       ??_C@_06NLLN@OD1?$DNV0?$AA@ 0042fc0c     ft2.obj
 0003:00001c14       ??_C@_03JFJK@5?40?$AA@     0042fc14     ft2.obj
 0003:00001c18       ??_C@_04KFFC@?95?40?$AA@   0042fc18     ft2.obj
 0003:00001c20       ??_C@_0BK@DAPC@DEACTIVATE_CONTROL_DIALOG?$AA@ 0042fc20     ft2.obj
 0003:00001c3c       ??_C@_0M@DHJK@MaxVelocity?$AA@ 0042fc3c     ft2.obj
 0003:00001c48       ??_C@_07CNPM@UNKNOWN?$AA@  0042fc48     ft2.obj
 0003:00001c50       ??_C@_0BE@DOPK@MinLowImpactPercent?$AA@ 0042fc50     ft2.obj
 0003:00001c64       ??_C@_0BJ@PFOF@ftii_editor_settings?4ini?$AA@ 0042fc64     ft2.obj
 0003:00001c80       ??_C@_05LHCD@?92000?$AA@   0042fc80     ft2.obj
 0003:00001c88       ??_C@_05JGBJ@?4129?5?$AA@  0042fc88     ft2.obj
 0003:00001c90       ??_C@_05EGPJ@?4075?5?$AA@  0042fc90     ft2.obj
 0003:00001c98       ??_C@_04HKPM@UD1?$DN?$AA@  0042fc98     ft2.obj
 0003:00001ca0       ??_C@_05NINF@?91000?$AA@   0042fca0     ft2.obj
 0003:00001ca8       ??_C@_05DNOA@?4022?5?$AA@  0042fca8     ft2.obj
 0003:00001cb0       ??_C@_02DDJE@60?$AA@       0042fcb0     ft2.obj
 0003:00001cb4       ??_C@_01PLJA@0?$AA@        0042fcb4     ft2.obj
 0003:00001cb8       ??_C@_02PBDP@80?$AA@       0042fcb8     ft2.obj
 0003:00001cbc       ??_C@_01MLA@P?$AA@         0042fcbc     ft2.obj
 0003:00001cc0       ??_C@_02OGHG@AC?$AA@       0042fcc0     ft2.obj
 0003:00001cc4       ??_C@_03KFLP@VA1?$AA@      0042fcc4     ft2.obj
 0003:00001cc8       ??_C@_06GPGA@_E1?434?$AA@  0042fcc8     ft2.obj
 0003:00001cd0       ??_C@_05FMLF@?4025?5?$AA@  0042fcd0     ft2.obj
 0003:00001cd8       ??_C@_0BJ@BACD@ftii_ctrl_prog_steps?4txt?$AA@ 0042fcd8     ft2.obj
 0003:00001cf4       ??_C@_0M@GPEO@VALRESP?4SAV?$AA@ 0042fcf4     ft2.obj
 0003:00001d00       ??_C@_0BF@HMEC@pkzip25?5?9add?5?9lev?$DN9?5?$AA@ 0042fd00     ft2.obj
 0003:00001d18       ??_C@_0BA@FKF@Delete?5FT2?4LOG?$DP?$AA@ 0042fd18     ft2.obj
 0003:00001d28       ??_C@_07DMBO@Confirm?$AA@  0042fd28     ft2.obj
 0003:00001d30       ??_C@_0CP@LKPK@c?3?2progra?$HO1?2accessories?2wordpad?4@ 0042fd30     ft2.obj
 0003:00001d60       ??_C@_0CL@MILI@c?3?2windows?2system32?2notepad?4exe?5@ 0042fd60     ft2.obj
 0003:00001d8c       ??_C@_0M@PGIC@CONTROL?4MSG?$AA@ 0042fd8c     ft2.obj
 0003:00001d98       ??_C@_0BA@KIMO@?$DNHigh?5Warning?5?5?$AA@ 0042fd98     ft2.obj
 0003:00001da8       ??_C@_0P@OII@?$DNLow?5Warning?5?5?$AA@ 0042fda8     ft2.obj
 0003:00001db8       ??_C@_0O@LMAN@?$DNHigh?5Alarm?5?5?$AA@ 0042fdb8     ft2.obj
 0003:00001dc8       ??_C@_0N@MNKA@?$DNLow?5Alarm?5?5?$AA@ 0042fdc8     ft2.obj
 0003:00001dd8       ??_C@_02IHLC@?5?5?$AA@     0042fdd8     ft2.obj
 0003:00001ddc       ??_C@_0P@FEIP@Limit?5Switch?5?$CD?$AA@ 0042fddc     ft2.obj
 0003:00001dec       ??_C@_0P@LKCC@Monitor?5Wire?5?5?$AA@ 0042fdec     ft2.obj
 0003:00001dfc       ??_C@_0BG@NMDI@Downtime?5Alarm?5Wire?5?5?$AA@ 0042fdfc     ft2.obj
 0003:00001e14       ??_C@_0BH@ILGB@Warning?5?$CIActive?5Low?$CJ?5?5?$AA@ 0042fe14     ft2.obj
 0003:00001e2c       ??_C@_0BK@CIAD@Valve?5Test?5in?5Operation?5?5?$AA@ 0042fe2c     ft2.obj
 0003:00001e48       ??_C@_0O@IAIM@Accumulator?5?5?$AA@ 0042fe48     ft2.obj
 0003:00001e58       ??_C@_0BD@CBIC@Slow?5Shot?5Output?5?5?$AA@ 0042fe58     ft2.obj
 0003:00001e6c       ??_C@_0BB@FNBH@tooltips_class32?$AA@ 0042fe6c     ft2.obj
 0003:00001e80       ??_C@_0O@ONI@OutputBitCtrl?$AA@ 0042fe80     ft2.obj
 0003:00001e90       ??_C@_0N@PKFG@InputBitCtrl?$AA@ 0042fe90     ft2.obj
 0003:00001ea0       ??_C@_08BFAK@?0?5Ch?52?$DN?5?$AA@ 0042fea0     ft2.obj
 0003:00001eac       ??_C@_08ODDB@?0?5Ch?51?$DN?5?$AA@ 0042feac     ft2.obj
 0003:00001eb8       ??_C@_0BD@CPGN@?0?5LVDT?5Feedback?5?$DN?5?$AA@ 0042feb8     ft2.obj
 0003:00001ecc       ??_C@_0O@KHHF@?0?5Meas?5CMD?5?$DN?5?$AA@ 0042fecc     ft2.obj
 0003:00001edc       ??_C@_0BB@JIHL@Status?5Word?51?5?$DN?5?$AA@ 0042fedc     ft2.obj
 0003:00001ef0       ??_C@_0BA@PNHO@Current?5Step?5?$DN?5?$AA@ 0042fef0     ft2.obj
 0003:00001f00       ??_C@_08MDKI@?0?5Vel?5?$DN?5?$AA@ 0042ff00     ft2.obj
 0003:00001f0c       ??_C@_06MMKP@Pos?5?$DN?5?$AA@ 0042ff0c     ft2.obj
 0003:00001f14       ??_C@_0L@MEEP@c?3?2ft2?4log?$AA@ 0042ff14     ft2.obj
 0003:00001f20       ??_C@_07JADP@O?5P?5T?5O?$AA@ 0042ff20     ft2.obj
 0003:00001f28       ??_C@_07IGAN@T?5E?5X?5T?$AA@ 0042ff28     ft2.obj
 0003:00001f30       ??_C@_03HPPN@MON?$AA@      0042ff30     ft2.obj
 0003:00001f34       ??_C@_0BE@GGEI@UPLOAD_FLASH_DIALOG?$AA@ 0042ff34     ft2.obj
 0003:00001f48       ??_C@_04OHCC@V319?$AA@     0042ff48     ft2.obj
 0003:00001f50       ??_C@_05EFHJ@?5Led?5?$AA@  0042ff50     ft2.obj
 0003:00001f58       ??_C@_0BB@LJHF@?5Control?5Module?5?$AA@ 0042ff58     ft2.obj
 0003:00001f6c       ??_C@_0BB@IMFJ@?5Monitor?5Module?5?$AA@ 0042ff6c     ft2.obj
 0003:00001f80       ??_C@_05LJNB@Wire?5?$AA@   0042ff80     ft2.obj
 0003:00001f88       ??_C@_0CB@HJLO@Shutting?5Down?5Current?5Monitor?4?4?4@ 0042ff88     ft2.obj
 0003:00001fac       ??_C@_03FOOO@CFG?$AA@      0042ffac     ft2.obj
 0003:00001fb0       ??_C@_03OAAK@ACT?$AA@      0042ffb0     ft2.obj
 0003:00001fb4       ??_C@_0CB@OAEA@Exiting?5from?5main?5dialog?5proc?4?4?4@ 0042ffb4     ft2.obj
 0003:00001fd8       ??_C@_0BH@FIGD@SHUTDOWN_STATUS_DIALOG?$AA@ 0042ffd8     ft2.obj
 0003:00001ff0       ??_C@_06KALO@?5Volts?$AA@  0042fff0     ft2.obj
 0003:00001ff8       ??_C@_03FGJK@?5?$DN?5?$AA@ 0042fff8     ft2.obj
 0003:00001ffc       ??_C@_0L@EEED@?5?5Monitor?5?$AA@ 0042fffc     ft2.obj
 0003:00002008       ??_C@_07FNBF@Control?$AA@  00430008     ft2.obj
 0003:00002010       ??_C@_04IGNI@EDIT?$AA@     00430010     ft2.obj
 0003:00002018       ??_C@_07EOKN@listbox?$AA@  00430018     ft2.obj
 0003:00002020       ??_C@_0P@NOGD@Startup?5Status?$AA@ 00430020     ft2.obj
 0003:00002030       ??_C@_02MPFL@PA?$AA@       00430030     ft2.obj
 0003:00002034       ??_C@_02FMKG@MA?$AA@       00430034     ft2.obj
 0003:00002038       ??_C@_07KNL@Startup?$AA@   00430038     ft2.obj
 0003:00002040       ??_C@_06BGJL@static?$AA@   00430040     ft2.obj
 0003:00002048       ??_C@_0BA@GNBF@192?4168?4254?4100?$AA@ 00430048     ft2.obj
 0003:00002058       ??_C@_0P@JIJL@TERMINAL_TITLE?$AA@ 00430058     ft2.obj
 0003:00002068       ??_C@_0N@GNJ@STATUS_TITLE?$AA@ 00430068     ft2.obj
 0003:00002078       ??_C@_06LPKL@button?$AA@   00430078     ft2.obj
 0003:00002080       ??_C@_0BM@FIG@Poking?5the?5monitor?5topic?4?4?4?$AA@ 00430080     ft2.obj
 0003:0000209c       ??_C@_0BO@OCJH@Turning?5monitoring?5back?5on?4?4?4?$AA@ 0043009c     ft2.obj
 0003:000020bc       ??_C@_0BC@LMOO@VALVE_TEST_DIALOG?$AA@ 004300bc     ft2.obj
 0003:000020d0       ??_C@_0BK@OBKG@TEST_ALARM_OUTPUTS_DIALOG?$AA@ 004300d0     ft2.obj
 0003:000020ec       ??_C@_0BE@PABI@CONTROL_MODS_DIALOG?$AA@ 004300ec     ft2.obj
 0003:00002100       ??_C@_0BI@ECPE@GLOBAL_PARAMETER_DIALOG?$AA@ 00430100     ft2.obj
 0003:00002118       ??_C@_0BA@CAAD@SET_NULL_DIALOG?$AA@ 00430118     ft2.obj
 0003:00002128       ??_C@_0P@OONK@SET_DAC_DIALOG?$AA@ 00430128     ft2.obj
 0003:00002138       ??_C@_0BG@EAFB@CURRENT_VALUES_DIALOG?$AA@ 00430138     ft2.obj
 0003:00002150       ??_C@_0BA@MKIG@Ftii_boards?4txt?$AA@ 00430150     ft2.obj
 0003:00002160       ??_C@_0BG@OBCG@UPLOAD_ABORTED_DIALOG?$AA@ 00430160     ft2.obj
 0003:00002178       ??_C@_0BJ@FHKM@HIRES_SENSOR_TEST_DIALOG?$AA@ 00430178     ft2.obj
 0003:00002194       ??_C@_0BD@IOFE@OUTPUT_LIST_DIALOG?$AA@ 00430194     ft2.obj
 0003:000021a8       ??_C@_0BA@JJNE@FT2_TEST_DIALOG?$AA@ 004301a8     ft2.obj
 0003:000021b8       ??_C@_09KDED@AUTO_SHOT?$AA@ 004301b8     ft2.obj
 0003:000021c4       ??_C@_0P@NBIM@PROGRAM?5START?5?$AA@ 004301c4     ft2.obj
 0003:000021d4       ??_C@_0BO@MFND@CHOOSE_MONITOR_MACHINE_DIALOG?$AA@ 004301d4     ft2.obj
 0003:0000233c       ??_C@_0BF@EMFI@Slow?5Shot?5?5?5?5?5?5INPUT?$AA@ 0043033c     board_monitor.obj
 0003:00002354       ??_C@_0BF@HBFK@Accumulator?5?5?5?5INPUT?$AA@ 00430354     board_monitor.obj
 0003:0000236c       ??_C@_0BF@MKDO@Follow?5Through?5INPUT?$AA@ 0043036c     board_monitor.obj
 0003:00002384       ??_C@_0BF@CNFG@Start?5Shot?5?5?5?5?5INPUT?$AA@ 00430384     board_monitor.obj
 0003:0000239c       ??_C@_0BF@DHEN@Retract?5?5?5?5?5?5?5?5INPUT?$AA@ 0043039c     board_monitor.obj
 0003:000023b4       ??_C@_0L@CPIF@?5at?5time?3?5?$AA@ 004303b4     board_monitor.obj
 0003:000023c0       ??_C@_0N@BIFB@DOWNTIME?4TXT?$AA@ 004303c0     board_monitor.obj
 0003:000023d0       ??_C@_02PIFG@11?$AA@       004303d0     board_monitor.obj
 0003:000023d4       ??_C@_02EEGL@00?$AA@       004303d4     board_monitor.obj
 0003:000023d8       ??_C@_02HNAB@?91?$AA@      004303d8     board_monitor.obj
 0003:000023dc       ??_C@_0BH@KGHI@ftii_part_settings?4txt?$AA@ 004303dc     board_monitor.obj
 0003:000023f4       ??_C@_02OOPM@01?$AA@       004303f4     board_monitor.obj
 0003:000023f8       ??_C@_0N@CIPI@SHOTPARM?4TXT?$AA@ 004303f8     board_monitor.obj
 0003:00002408       ??_C@_0N@CKNB@GRAPHLST?4TXT?$AA@ 00430408     board_monitor.obj
 0003:00002418       ??_C@_0N@KDIN@ALARMSUM?4TXT?$AA@ 00430418     board_monitor.obj
 0003:00002428       ??_C@_02CNFA@XX?$AA@       00430428     board_monitor.obj
 0003:0000242c       ??_C@_01FKLC@F?$AA@        0043042c     board_monitor.obj
 0003:00002430       ??_C@_04MCCK@?5?$CK?$CK?$CK?$AA@ 00430430     board_monitor.obj
 0003:00002438       ??_C@_05OGEC@?$CK?$CK?$CK?$CK?5?$AA@ 00430438     board_monitor.obj
 0003:00002440       ??_C@_0L@EMMM@?50?5Seconds?$AA@ 00430440     board_monitor.obj
 0003:0000244c       ??_C@_04FBJP@bind?$AA@     0043044c     board_monitor.obj
 0003:00002454       ??_C@_06KDPK@socket?$AA@   00430454     board_monitor.obj
 0003:0000245c       ??_C@_0L@BKPI@WSAStartup?$AA@ 0043045c     board_monitor.obj
 0003:00002468       ??_C@_0P@FDEO@WSANO_RECOVERY?$AA@ 00430468     board_monitor.obj
 0003:00002478       ??_C@_09GNPN@WSAEFAULT?$AA@ 00430478     board_monitor.obj
 0003:00002484       ??_C@_0M@JCAC@WSAEPROCLIM?$AA@ 00430484     board_monitor.obj
 0003:00002490       ??_C@_0P@DGNH@WSAEINPROGRESS?$AA@ 00430490     board_monitor.obj
 0003:000024a0       ??_C@_0BD@PKID@WSAVERNOTSUPPORTED?$AA@ 004304a0     board_monitor.obj
 0003:000024b4       ??_C@_0P@BMGD@WSASYSNOTREADY?$AA@ 004304b4     board_monitor.obj
 0003:000025d0       ??_C@_0O@ONDO@EosComXonXoff?$AA@ 004305d0     shotsave.obj
 0003:000025e0       ??_C@_09DFDE@EosComDsr?$AA@ 004305e0     shotsave.obj
 0003:000025ec       ??_C@_09EAJH@EosComCts?$AA@ 004305ec     shotsave.obj
 0003:000025f8       ??_C@_0L@MEGG@EosComStop?$AA@ 004305f8     shotsave.obj
 0003:00002604       ??_C@_0L@EDN@EosComBits?$AA@ 00430604     shotsave.obj
 0003:00002610       ??_C@_0N@JHON@EosComParity?$AA@ 00430610     shotsave.obj
 0003:00002620       ??_C@_0M@NLMB@EosComSpeed?$AA@ 00430620     shotsave.obj
 0003:0000262c       ??_C@_03FJPC@V02?$AA@      0043062c     shotsave.obj
 0003:00002630       ??_C@_03KGEL@V01?$AA@      00430630     shotsave.obj
 0003:00002634       ??_C@_04LIBJ@?4PR2?$AA@    00430634     shotsave.obj
 0003:0000263c       ??_C@_0BB@DJGI@End?5of?5Shot?5Data?$AA@ 0043063c     shotsave.obj
 0003:00002650       ??_C@_0DI@PPOK@?9?9?9?9?9?9?9?9?9?9?9?9?9?9?9?9?9?9?9?9?9?9?9?9?9?9?9?9?9?9?9?9@ 00430650     shotsave.obj
 0003:00002688       ??_C@_0BB@OMAL@Impact?5at?5time?3?5?$AA@ 00430688     shotsave.obj
 0003:0000269c       ??_C@_0DI@GEK@?9?9?9?9?9?9?9?9?9?9?9?9?9?9?9?5At?5the?5Start?5of?5@ 0043069c     shotsave.obj
 0003:000026d4       ??_C@_0BO@DIKO@Begin?5Shot?5Data?3?5Shot?5Number?5?$AA@ 004306d4     shotsave.obj
 0003:000026f4       ??_C@_01FCOA@?5?$AA@       004306f4     shotsave.obj
 0003:000026f8       ??_C@_0M@CEAD@EosComSetup?$AA@ 004306f8     shotsave.obj
 0003:00002704       ??_C@_09OAMP@EosComEol?$AA@ 00430704     shotsave.obj
 0003:00002710       ??_C@_0BC@FHEJ@EosComDelimitChar?$AA@ 00430710     shotsave.obj
 0003:00002724       ??_C@_0BA@OMFB@EosPyramidLines?$AA@ 00430724     shotsave.obj
 0003:00002734       ??_C@_0O@FCA@EosFixedWidth?$AA@ 00430734     shotsave.obj
 0003:00002744       ??_C@_0BC@CAHO@EosOnlyIfNoAlarms?$AA@ 00430744     shotsave.obj
 0003:00002758       ??_C@_0P@GKPH@EosNeedsStxEtx?$AA@ 00430758     shotsave.obj
 0003:00002768       ??_C@_01PACF@G?$AA@        00430768     shotsave.obj
 0003:0000276c       ??_C@_01FJFF@W?$AA@        0043076c     shotsave.obj
 0003:00002770       ??_C@_01PFH@A?$AA@         00430770     shotsave.obj
 0003:00002774       ??_C@_0L@NFNF@EosComPort?$AA@ 00430774     shotsave.obj
 0003:00002780       ??_C@_0BC@OCDH@DdeParamDelimiter?$AA@ 00430780     shotsave.obj
 0003:00002794       ??_C@_0BC@PALC@SaveAllAlarmShots?$AA@ 00430794     shotsave.obj
 0003:000027a8       ??_C@_0BB@LGDE@DdeParamParmList?$AA@ 004307a8     shotsave.obj
 0003:000027bc       ??_C@_0BB@BBCH@DdeParamShowShot?$AA@ 004307bc     shotsave.obj
 0003:000027d0       ??_C@_0BB@JHDN@DdeParamShowTime?$AA@ 004307d0     shotsave.obj
 0003:000027e4       ??_C@_0BB@JLPO@DdeParamShowDate?$AA@ 004307e4     shotsave.obj
 0003:000027f8       ??_C@_0BB@CPIP@DdeParamShowPart?$AA@ 004307f8     shotsave.obj
 0003:0000280c       ??_C@_0BE@NHJJ@DdeParamShowMachine?$AA@ 0043080c     shotsave.obj
 0003:00002820       ??_C@_0BA@EBFC@upload_copy?4txt?$AA@ 00430820     upload_copy_class.obj
 0003:000028b4       ??_C@_0BA@HIHB@Operator?5Number?$AA@ 004308b4     v5subs:machine.obj
 0003:000028c4       ??_C@_0BK@OPAD@Post?5Impact?5Pressure?5Type?$AA@ 004308c4     v5subs:machine.obj
 0003:000028e0       ??_C@_0BJ@CLCI@Pre?5Impact?5Pressure?5Type?$AA@ 004308e0     v5subs:machine.obj
 0003:000028fc       ??_C@_0BI@OIPO@Time?5Base?5Impact?5Points?$AA@ 004308fc     v5subs:machine.obj
 0003:00002914       ??_C@_0BM@FFEN@Position?5Base?5Impact?5Points?$AA@ 00430914     v5subs:machine.obj
 0003:00002930       ??_C@_0BK@NHBP@Differential?5Curve?5Number?$AA@ 00430930     v5subs:machine.obj
 0003:0000294c       ??_C@_0BI@GJAL@Downtime?5Timeout?5?$CISec?4?$CJ?$AA@ 0043094c     v5subs:machine.obj
 0003:00002964       ??_C@_0BJ@OCNA@Auto?5Shot?5Timeout?5?$CISec?4?$CJ?$AA@ 00430964     v5subs:machine.obj
 0003:00002980       ??_C@_0O@NJNI@Monitor?5Flags?$AA@ 00430980     v5subs:machine.obj
 0003:00002990       ??_C@_0BA@ENCF@Param?5Max?5Saved?$AA@ 00430990     v5subs:machine.obj
 0003:000029a0       ??_C@_0M@DAFA@Param?5Flags?$AA@ 004309a0     v5subs:machine.obj
 0003:000029ac       ??_C@_0BH@DNAB@Param?5Time?5Skip?5?$CISec?4?$CJ?$AA@ 004309ac     v5subs:machine.obj
 0003:000029c4       ??_C@_0BE@GLPC@Param?5Acquire?5Count?$AA@ 004309c4     v5subs:machine.obj
 0003:000029d8       ??_C@_0BB@EBFJ@Param?5Skip?5Count?$AA@ 004309d8     v5subs:machine.obj
 0003:000029ec       ??_C@_0BC@NIKN@Profile?5Max?5Saved?$AA@ 004309ec     v5subs:machine.obj
 0003:00002a00       ??_C@_0O@FLH@Profile?5Flags?$AA@ 00430a00     v5subs:machine.obj
 0003:00002a10       ??_C@_0BJ@LKML@Profile?5Time?5Skip?5?$CISec?4?$CJ?$AA@ 00430a10     v5subs:machine.obj
 0003:00002a2c       ??_C@_0BG@EFCM@Profile?5Acquire?5Count?$AA@ 00430a2c     v5subs:machine.obj
 0003:00002a44       ??_C@_0BD@NAMM@Profile?5Skip?5Count?$AA@ 00430a44     v5subs:machine.obj
 0003:00002a58       ??_C@_09EPIG@Rod?5Pitch?$AA@ 00430a58     v5subs:machine.obj
 0003:00002a64       ??_C@_0BC@OCFD@Current?5Part?5Name?$AA@ 00430a64     v5subs:machine.obj
 0003:00002a78       ??_C@_0BE@EIAO@Is?5SureTrak?5Control?$AA@ 00430a78     v5subs:machine.obj
 0003:00002a8c       ??_C@_0BO@JIGC@Mux?5Channel?5Number?5?$CIFT1?5Only?$CJ?$AA@ 00430a8c     v5subs:machine.obj
 0003:00002aac       ??_C@_0BH@DAHK@Fast?5Trak?5Board?5Number?$AA@ 00430aac     v5subs:machine.obj
 0003:00002ac4       ??_C@_0N@CMKL@Machine?5Type?$AA@ 00430ac4     v5subs:machine.obj
 0003:00002ad4       ??_C@_0N@MBMG@SEMAPHOR?4TXT?$AA@ 00430ad4     v5subs:machine.obj
 0003:00002ae4       ??_C@_09CKFN@DSTAT?4TXT?$AA@ 00430ae4     v5subs:machine.obj
 0003:00002b94       ??_C@_0BF@ECDH@Rod?5Pressure?5Channel?$AA@ 00430b94     v5subs:part.obj
 0003:00002bac       ??_C@_0BG@KPNN@Head?5Pressure?5Channel?$AA@ 00430bac     v5subs:part.obj
 0003:00002bc4       ??_C@_0BD@MBAF@Production?5Enabled?$AA@ 00430bc4     v5subs:part.obj
 0003:00002bd8       ??_C@_0BC@PHM@N?5of?5Time?5Samples?$AA@ 00430bd8     v5subs:part.obj
 0003:00002bec       ??_C@_0BD@CDDL@Ms?5per?5time?5sample?$AA@ 00430bec     v5subs:part.obj
 0003:00002c00       ??_C@_0BH@KFNH@Pres?5for?5Response?5Time?$AA@ 00430c00     v5subs:part.obj
 0003:00002c18       ??_C@_0BF@JLJA@Time?5for?5Intens?5Pres?$AA@ 00430c18     v5subs:part.obj
 0003:00002c30       ??_C@_0BB@MCCH@Plunger?5Diameter?$AA@ 00430c30     v5subs:part.obj
 0003:00002c44       ??_C@_0P@IGAI@User?5Avg?5End?54?$AA@ 00430c44     v5subs:part.obj
 0003:00002c54       ??_C@_0P@NDON@User?5Avg?5End?53?$AA@ 00430c54     v5subs:part.obj
 0003:00002c64       ??_C@_0P@HJHK@User?5Avg?5End?52?$AA@ 00430c64     v5subs:part.obj
 0003:00002c74       ??_C@_0P@IGMD@User?5Avg?5End?51?$AA@ 00430c74     v5subs:part.obj
 0003:00002c84       ??_C@_0O@KIOJ@User?5Avg?5St?54?$AA@ 00430c84     v5subs:part.obj
 0003:00002c94       ??_C@_0O@PNAM@User?5Avg?5St?53?$AA@ 00430c94     v5subs:part.obj
 0003:00002ca4       ??_C@_0O@FHJL@User?5Avg?5St?52?$AA@ 00430ca4     v5subs:part.obj
 0003:00002cb4       ??_C@_0O@KICC@User?5Avg?5St?51?$AA@ 00430cb4     v5subs:part.obj
 0003:00002cc4       ??_C@_0L@KGO@User?5Vel?54?$AA@ 00430cc4     v5subs:part.obj
 0003:00002cd0       ??_C@_0L@FPIL@User?5Vel?53?$AA@ 00430cd0     v5subs:part.obj
 0003:00002cdc       ??_C@_0L@PFBM@User?5Vel?52?$AA@ 00430cdc     v5subs:part.obj
 0003:00002ce8       ??_C@_0L@KKF@User?5Vel?51?$AA@ 00430ce8     v5subs:part.obj
 0003:00002cf4       ??_C@_0BC@COHL@Min?5CSFS?5Position?$AA@ 00430cf4     v5subs:part.obj
 0003:00002d08       ??_C@_0BH@PBCG@Velocity?5for?5Rise?5CSFS?$AA@ 00430d08     v5subs:part.obj
 0003:00002d20       ??_C@_0BG@PGNA@Min?5Velocity?5for?5CSFS?$AA@ 00430d20     v5subs:part.obj
 0003:00002d38       ??_C@_0BF@ECKE@Runner?5Fill?5Distance?$AA@ 00430d38     v5subs:part.obj
 0003:00002d50       ??_C@_0BF@NLGH@Sleeve?5Fill?5Distance?$AA@ 00430d50     v5subs:part.obj
 0003:00002d68       ??_C@_0BF@IHEP@End?5of?5Shot?5Velocity?$AA@ 00430d68     v5subs:part.obj
 0003:00002d80       ??_C@_0BD@GGPA@Time?5Delay?5Biscuit?$AA@ 00430d80     v5subs:part.obj
 0003:00002d94       ??_C@_0BC@NLED@Min?5Stroke?5Length?$AA@ 00430d94     v5subs:part.obj
 0003:00002da8       ??_C@_0BE@FKIJ@Total?5Stroke?5Length?$AA@ 00430da8     v5subs:part.obj
 0003:00002dbc       ??_C@_0P@HLBH@Pressure?5Units?$AA@ 00430dbc     v5subs:part.obj
 0003:00002dcc       ??_C@_0P@BKKN@Velocity?5Units?$AA@ 00430dcc     v5subs:part.obj
 0003:00002ddc       ??_C@_0P@OPEH@Distance?5Units?$AA@ 00430ddc     v5subs:part.obj
 0003:00002dec       ??_C@_0P@IDHP@part_setup?4csv?$AA@ 00430dec     v5subs:part.obj
 0003:00002dfc       ??_C@_0M@NBG@PSENSOR?4TXT?$AA@ 00430dfc     v5subs:part.obj
 0003:00002e08       ??_C@_0BE@JOFO@good_shot_setup?4csv?$AA@ 00430e08     v5subs:part.obj
 0003:00002e1c       ??_C@_0L@DILN@FTCHAN?4TXT?$AA@ 00430e1c     v5subs:part.obj
 0003:00002e34       ??_C@_04FFOH@10?40?$AA@    00430e34     v5subs:asensor.obj
 0003:00002e3c       ??_C@_03CLDA@2?45?$AA@     00430e3c     v5subs:asensor.obj
 0003:00002e40       ??_C@_08CLJB@Not?5Used?$AA@ 00430e40     v5subs:asensor.obj
 0003:00002e4c       ??_C@_0M@LOL@ASENSOR?4CSV?$AA@ 00430e4c     v5subs:asensor.obj
 0003:00002fac       ??_C@_07MHOM@SubMenu?$AA@  00430fac     v5subs:menuctrl.obj
 0003:00003218       ??_C@_0M@EBNM@CONTROL?4TMP?$AA@ 00431218     v5subs:ftiiclas.obj
 0003:00003230       ??_C@_07NOMM@ListBox?$AA@  00431230     v5subs:winsubs.obj
 0003:000032bc       ??_C@_05PEGG@?4stbl?$AA@   004312bc     v5subs:nameclas.obj
 0003:00003328       ??_C@_03LEEL@dec?$AA@      00431328     v5subs:timeclas.obj
 0003:0000332c       ??_C@_03LBGJ@nov?$AA@      0043132c     v5subs:timeclas.obj
 0003:00003330       ??_C@_03FJKP@oct?$AA@      00431330     v5subs:timeclas.obj
 0003:00003334       ??_C@_03HNIJ@sep?$AA@      00431334     v5subs:timeclas.obj
 0003:00003338       ??_C@_03GOPC@aug?$AA@      00431338     v5subs:timeclas.obj
 0003:0000333c       ??_C@_03KDHN@jul?$AA@      0043133c     v5subs:timeclas.obj
 0003:00003340       ??_C@_03PGFD@jun?$AA@      00431340     v5subs:timeclas.obj
 0003:00003344       ??_C@_03IEKE@may?$AA@      00431344     v5subs:timeclas.obj
 0003:00003348       ??_C@_03ILEJ@apr?$AA@      00431348     v5subs:timeclas.obj
 0003:0000334c       ??_C@_03CPKF@mar?$AA@      0043134c     v5subs:timeclas.obj
 0003:00003350       ??_C@_03LKPB@feb?$AA@      00431350     v5subs:timeclas.obj
 0003:00003354       ??_C@_03MGFA@jan?$AA@      00431354     v5subs:timeclas.obj
 0003:00003358       ??_C@_03NMFM@?$DP?$DP?$DP?$AA@ 00431358     v5subs:timeclas.obj
 0003:0000335c       ??_C@_08GJLN@UNKNOWN0?$AA@ 0043135c     v5subs:evclass.obj
 0003:00003380       ??_C@_09JHHC@UNITS?4TXT?$AA@ 00431380     v5subs:units.obj
 0003:000033c0       ??_C@_03IPNG@0?40?$AA@     004313c0     v5subs:stpres.obj
 0003:000033c4       ??_C@_02IGL@50?$AA@        004313c4     v5subs:stpres.obj
 0003:000033c8       ??_C@_03DNJI@500?$AA@      004313c8     v5subs:stpres.obj
 0003:000033cc       ??_C@_02GJPF@25?$AA@       004313cc     v5subs:stpres.obj
 0003:000033d0       ??_C@_0L@HDGG@STPRES?4DAT?$AA@ 004313d0     v5subs:stpres.obj
 0003:0000342c       ??_C@_0N@PFDP@COMPUTER?4CSV?$AA@ 0043142c     v5subs:computer.obj
 0003:00003460       ??_C@_0M@LOHC@STPARAM?4DAT?$AA@ 00431460     v5subs:stparam.obj
 0003:000034e8       ??_C@_03MPKK@Sat?$AA@      004314e8     v5subs:time.obj
 0003:000034ec       ??_C@_03FINJ@Fri?$AA@      004314ec     v5subs:time.obj
 0003:000034f0       ??_C@_03CNEH@Thr?$AA@      004314f0     v5subs:time.obj
 0003:000034f4       ??_C@_03HECK@Wed?$AA@      004314f4     v5subs:time.obj
 0003:000034f8       ??_C@_03ECCP@Tue?$AA@      004314f8     v5subs:time.obj
 0003:000034fc       ??_C@_03PIEP@Mon?$AA@      004314fc     v5subs:time.obj
 0003:00003500       ??_C@_03FHEP@Sun?$AA@      00431500     v5subs:time.obj
 0003:00003540       ??_C@_0BH@MDLI@limit_switch_wires?4dat?$AA@ 00431540     v5subs:limit_switch_class.obj
 0003:00003558       ??_C@_0M@CPCD@NOPARAMETER?$AA@ 00431558     v5subs:param.obj
 0003:00003564       ??_C@_0N@EHDA@PARMLIST?4TXT?$AA@ 00431564     v5subs:param.obj
 0003:00003588       ??_C@_0BC@OCOK@DdeConnect?5Failed?$AA@ 00431588     v5subs:client.obj
 0003:0000359c       ??_C@_08NGCF@Error?5?$DN?5?$AA@ 0043159c     v5subs:client.obj
 0003:000035a8       ??_C@_0BE@IMMB@Transaction?5type?5?$DN?5?$AA@ 004315a8     v5subs:client.obj
 0003:000035bc       ??_C@_0BD@FLEK@?0?5default_value?5?$DN?5?$AA@ 004315bc     v5subs:client.obj
 0003:000035d0       ??_C@_07DAEG@Item?5?$DN?5?$AA@ 004315d0     v5subs:client.obj
 0003:000035d8       ??_C@_0BG@IOFA@No?5Conversation?5found?$AA@ 004315d8     v5subs:client.obj
 0003:000035f0       ??_C@_0BA@KKOD@Conversation?5?$DN?5?$AA@ 004315f0     v5subs:client.obj
 0003:00003600       ??_C@_0L@POIK@dmlerr?4txt?$AA@ 00431600     v5subs:client.obj
 0003:0000360c       ??_C@_06LNLE@Dmlerr?$AA@   0043160c     v5subs:client.obj
 0003:00003614       ??_C@_0BG@BKID@DdeCreateStringHandle?$AA@ 00431614     v5subs:client.obj
 0003:0000362c       ??_C@_0O@MNGN@DdeInitialize?$AA@ 0043162c     v5subs:client.obj
 0003:0000363c       ??_C@_06DIAM@Failed?$AA@   0043163c     v5subs:client.obj
 0003:00003648       ?FileTimeoutError@@3PADA   00431648     v5subs:dbsubs.obj
 0003:0000365c       ?FileNotFoundError@@3PADA  0043165c     v5subs:dbsubs.obj
 0003:0000366c       ?PathNotFoundError@@3PADA  0043166c     v5subs:dbsubs.obj
 0003:00003680       ?SecurityAttributes@@3U_SECURITY_ATTRIBUTES@@A 00431680     v5subs:dbsubs.obj
 0003:0000368c       ??_C@_0CK@EGOB@Unable?5to?5ALLOCATE?5DB_TABLE?5reco@ 0043168c     v5subs:dbsubs.obj
 0003:000036b8       ??_C@_0BG@DIJO@Unable?5to?5lock?5record?$AA@ 004316b8     v5subs:dbsubs.obj
 0003:000036d0       ??_C@_0BH@BLHB@Can?8t?5set?5file?5pointer?$AA@ 004316d0     v5subs:dbsubs.obj
 0003:000036e8       ??_C@_05BHBB@0x?$CFlX?$AA@ 004316e8     v5subs:dbsubs.obj
 0003:00003708       ??_C@_05CNHG@Arial?$AA@    00431708     v5subs:optocontrol.obj
 0003:00003710       ??_C@_01FBAH@1?$AA@        00431710     v5subs:optocontrol.obj
 0003:00003714       ??_C@_01ECJ@3?$AA@         00431714     v5subs:optocontrol.obj
 0003:00003718       ??_C@_01KOLO@2?$AA@        00431718     v5subs:optocontrol.obj
 0003:0000371c       ??_C@_01FBMM@4?$AA@        0043171c     v5subs:optocontrol.obj
 0003:00003734       ??_C@_0L@ONLG@DCURVE?4TXT?$AA@ 00431734     v5subs:dcurve.obj
 0003:00003760       ??_C@_02PEKE@SA?$AA@       00431760     v5subs:shift.obj
 0003:00003764       ??_C@_02IEME@FR?$AA@       00431764     v5subs:shift.obj
 0003:00003768       ??_C@_02GLNO@TH?$AA@       00431768     v5subs:shift.obj
 0003:0000376c       ??_C@_02EFC@WE?$AA@        0043176c     v5subs:shift.obj
 0003:00003770       ??_C@_02JGNN@TU?$AA@       00431770     v5subs:shift.obj
 0003:00003774       ??_C@_02PHGM@MO?$AA@       00431774     v5subs:shift.obj
 0003:00003778       ??_C@_02PHII@SU?$AA@       00431778     v5subs:shift.obj
 0003:0000377c       ??_C@_09LLJN@SHIFT?4TXT?$AA@ 0043177c     v5subs:shift.obj
 0003:0000378c       ??_C@_0M@NJEO@RUNLIST?4CSV?$AA@ 0043178c     v5subs:runlist.obj
 0003:0000379c       ??_C@_0M@OLLM@DOWNCAT?4TXT?$AA@ 0043179c     v5subs:downsubs.obj
 0003:000037a8       ??_C@_0N@JAOP@DOWNSCAT?4TXT?$AA@ 004317a8     v5subs:downsubs.obj
 0003:000037b8       ??_C@_0O@IAJB@Downscatc?4txt?$AA@ 004317b8     v5subs:downsubs.obj
 0003:000037cc       ??_C@_02BBEF@02?$AA@       004317cc     v5subs:dstat.obj
 0003:000037d8       ??_C@_0BB@GKCB@EffPeakSkipCount?$AA@ 004317d8     v5subs:ftii_parameters.obj
 0003:00003804       ??_C@_0N@MJIL@FTANALOG?4TXT?$AA@ 00431804     v5subs:ftanalog.obj
 0003:00003814       ??_C@_0N@INAF@FTANALOG?4CSV?$AA@ 00431814     v5subs:ftanalog.obj
 0003:00003824       ??_C@_0M@NNOA@STDDOWN?4TXT?$AA@ 00431824     v5subs:stddown.obj
 0003:00003840       ??_C@_04OAHI@Time?$AA@     00431840     v5subs:plookup.obj
 0003:00003848       ??_C@_04OMLL@Date?$AA@     00431848     v5subs:plookup.obj
 0003:00003850       ??_C@_0BB@LGFC@Last?5Shot?5Number?$AA@ 00431850     v5subs:plookup.obj
 0003:00003864       ??_C@_0M@PJPL@plookup?4csv?$AA@ 00431864     v5subs:plookup.obj
 0003:000038a4       ??_C@_05CKBG@Error?$AA@    004318a4     v5subs:error_ms.obj
 0003:000038ac       ??_C@_0L@CLPG@VisiErrors?$AA@ 004318ac     v5subs:error_ms.obj
 0003:00003950       __fltused                  00431950     LIBCMT:fpinit.obj
 0003:00003954       __ldused                   00431954     LIBCMT:fpinit.obj
 0003:00003958       __FPinit                   00431958     LIBCMT:fpinit.obj
 0003:0000395c       __FPmtinit                 0043195c     LIBCMT:fpinit.obj
 0003:00003960       __FPmtterm                 00431960     LIBCMT:fpinit.obj
 0003:00003970       __aexit_rtn                00431970     LIBCMT:wincrt0.obj
 0003:00003974       ___app_type                00431974     LIBCMT:wincrt0.obj
 0003:00003990       __cfltcvt_tab              00431990     LIBCMT:cmiscdat.obj
 0003:00003b10       ___tlsindex                00431b10     LIBCMT:tidtable.obj
 0003:00003b18       __XcptActTab               00431b18     LIBCMT:winxfltr.obj
 0003:00003b90       __First_FPE_Indx           00431b90     LIBCMT:winxfltr.obj
 0003:00003b94       __Num_FPE                  00431b94     LIBCMT:winxfltr.obj
 0003:00003b98       __XcptActTabSize           00431b98     LIBCMT:winxfltr.obj
 0003:00003b9c       __XcptActTabCount          00431b9c     LIBCMT:winxfltr.obj
 0003:00003ba0       __NLG_Destination          00431ba0     LIBCMT:exsup.obj
 0003:00003bb0       ___badioinfo               00431bb0     LIBCMT:ioinit.obj
 0003:00003bd4       __amblksiz                 00431bd4     LIBCMT:heapinit.obj
 0003:00003d40       __d_inf                    00431d40     LIBCMT:util.obj
 0003:00003d48       __d_ind                    00431d48     LIBCMT:util.obj
 0003:00003d50       __d_max                    00431d50     LIBCMT:util.obj
 0003:00003d58       __d_min                    00431d58     LIBCMT:util.obj
 0003:00003d60       __d_mzero                  00431d60     LIBCMT:util.obj
 0003:00003d80       __pctype                   00431d80     LIBCMT:ctype.obj
 0003:00003d84       __pwctype                  00431d84     LIBCMT:ctype.obj
 0003:00003d88       __ctype                    00431d88     LIBCMT:ctype.obj
 0003:00003f8c       ___mb_cur_max              00431f8c     LIBCMT:nlsdata1.obj
 0003:00003f90       ___decimal_point           00431f90     LIBCMT:nlsdata1.obj
 0003:00003f94       ___decimal_point_length    00431f94     LIBCMT:nlsdata1.obj
 0003:00003f98       __HUGE                     00431f98     LIBCMT:huge.obj
 0003:00003fa0       ___old_small_block_heap    00431fa0     LIBCMT:sbheap.obj
 0003:00005fc4       ___old_sbh_threshold       00433fc4     LIBCMT:sbheap.obj
 0003:00005fc8       __locktable                00433fc8     LIBCMT:mlock.obj
 0003:000061c0       __matherr_flag             004341c0     LIBCMT:matherr.obj
 0003:000062d0       ___lc_time_curr            004342d0     LIBCMT:strftime.obj
 0003:000062d8       ___lc_time_c               004342d8     LIBCMT:strftime.obj
 0003:00006388       ___lconv_static_decimal    00434388     LIBCMT:lconv.obj
 0003:00006390       ___lconv_c                 00434390     LIBCMT:lconv.obj
 0003:000063c0       ___lconv                   004343c0     LIBCMT:lconv.obj
 0003:000063d0       __pow10pos                 004343d0     LIBCMT:constpow.obj
 0003:00006530       __pow10neg                 00434530     LIBCMT:constpow.obj
 0003:0000668c       __timezone                 0043468c     LIBCMT:timeset.obj
 0003:00006690       __daylight                 00434690     LIBCMT:timeset.obj
 0003:00006694       __dstbias                  00434694     LIBCMT:timeset.obj
 0003:00006718       __tzname                   00434718     LIBCMT:timeset.obj
 0003:00006740       __lpdays                   00434740     LIBCMT:days.obj
 0003:00006774       __days                     00434774     LIBCMT:days.obj
 0003:000067b0       ?MyDc@@3PAUHDC__@@A        004347b0     ft2.obj
 0003:00006a8c       ?OriEditControlProc@@3P6GJPAUHWND__@@IIJ@ZA 00434a8c     ft2.obj
 0003:00006a90       ?OutputBitControl@@3PAUBIT_CONTROL@@A 00434a90     ft2.obj
 0003:00006b38       ?InputBitControl@@3PAUBIT_CONTROL@@A 00434b38     ft2.obj
 0003:00006c90       ?GlobalParameters@@3VFTII_VAR_ARRAY@@A 00434c90     ft2.obj
 0003:00006cb0       ?UploadAbortedList@@3VTEXT_LIST_CLASS@@A 00434cb0     ft2.obj
 0003:0000ab74       ?MasterPen@@3PAUHPEN__@@A  00438b74     ft2.obj
 0003:0000ab78       ?CurrentMachineVars@@3VFTII_VAR_ARRAY@@A 00438b78     ft2.obj
 0003:0000ab98       ?FtiiAutoNull@@3VFTII_VAR_ARRAY@@A 00438b98     ft2.obj
 0003:0000abc8       ?MainWindowMoveRect@@3VRECTANGLE_CLASS@@A 00438bc8     ft2.obj
 0003:0000abd8       ?MainWindowClientRect@@3VRECTANGLE_CLASS@@A 00438bd8     ft2.obj
 0003:0000abe8       ?StringTable@@3VSTRINGTABLE_CLASS@@A 00438be8     ft2.obj
 0003:0000ac40       ?TerminalMenu@@3VMENU_CONTROL_ENTRY@@A 00438c40     ft2.obj
 0003:0000ad00       ?MainMenu@@3VMENU_CONTROL_ENTRY@@A 00438d00     ft2.obj
 0003:0000ae40       ?ManualInfoTbox@@3VWINDOW_CLASS@@A 00438e40     ft2.obj
 0003:0000ae48       ?NullStatusMessage@@3VWINDOW_CLASS@@A 00438e48     ft2.obj
 0003:0000ae50       ?OutputListDialog@@3VWINDOW_CLASS@@A 00438e50     ft2.obj
 0003:0000ae58       ?OutputListbox@@3VLISTBOX_CLASS@@A 00438e58     ft2.obj
 0003:0000ae70       ?ShutdownStatusDialog@@3VWINDOW_CLASS@@A 00438e70     ft2.obj
 0003:0000ae78       ?ShutdownStatusListbox@@3VLISTBOX_CLASS@@A 00438e78     ft2.obj
 0003:0000ae8c       ?AccelHandle@@3PAUHACCEL__@@A 00438e8c     ft2.obj
 0003:0000ae90       ?BufPtr@@3PAPAUSHOT_BUFFER_ENTRY@@A 00438e90     ft2.obj
 0003:0000aee0       ?StepMessage@@3VBLOCK_MESSAGE_CLASS@@A 00438ee0     ft2.obj
 0003:0000aef0       ?CurrentOpStatus@@3UFTII_OP_STATUS_DATA@@A 00438ef0     ft2.obj
 0003:0000af54       ?AnalogSensor@@3VANALOG_SENSOR@@A 00438f54     ft2.obj
 0003:0000af58       ?UploadFailed@@3VSTRING_CLASS@@A 00438f58     ft2.obj
 0003:0000af60       ?ZeroStrokeLength@@3VSTRING_CLASS@@A 00438f60     ft2.obj
 0003:0000af68       ?Connecting@@3VSTRING_CLASS@@A 00438f68     ft2.obj
 0003:0000af70       ?Connected@@3VSTRING_CLASS@@A 00438f70     ft2.obj
 0003:0000af78       ?NotConnected@@3VSTRING_CLASS@@A 00438f78     ft2.obj
 0003:0000af80       ?NotMonitored@@3VSTRING_CLASS@@A 00438f80     ft2.obj
 0003:0000af88       ?NoResponse@@3VSTRING_CLASS@@A 00438f88     ft2.obj
 0003:0000af90       ?NoConnectState@@3VSTRING_CLASS@@A 00438f90     ft2.obj
 0003:0000af98       ?ComputerName@@3VSTRING_CLASS@@A 00438f98     ft2.obj
 0003:0000afa0       ?CurrentPart@@3VPART_CLASS@@A 00438fa0     ft2.obj
 0003:0000b0c0       ?CurrentMachine@@3VMACHINE_CLASS@@A 004390c0     ft2.obj
 0003:0000b138       ?MainListBox@@3VLISTBOX_CLASS@@A 00439138     ft2.obj
 0003:0000b150       ?UploadAbortedDialog@@3VWINDOW_CLASS@@A 00439150     ft2.obj
 0003:0000b158       ?HiresSensorTestDialog@@3VWINDOW_CLASS@@A 00439158     ft2.obj
 0003:0000b160       ?ValveTestDialog@@3VWINDOW_CLASS@@A 00439160     ft2.obj
 0003:0000b168       ?UploadFlashDialog@@3VWINDOW_CLASS@@A 00439168     ft2.obj
 0003:0000b170       ?TestAlarmOutputsDialog@@3VWINDOW_CLASS@@A 00439170     ft2.obj
 0003:0000b178       ?TerminalWindow@@3VWINDOW_CLASS@@A 00439178     ft2.obj
 0003:0000b180       ?StatusWindow@@3VWINDOW_CLASS@@A 00439180     ft2.obj
 0003:0000b188       ?SetDacDialog@@3VWINDOW_CLASS@@A 00439188     ft2.obj
 0003:0000b190       ?SetNullDialog@@3VWINDOW_CLASS@@A 00439190     ft2.obj
 0003:0000b198       ?ControlModsDialog@@3VWINDOW_CLASS@@A 00439198     ft2.obj
 0003:0000b1a0       ?GlobalParameterDialog@@3VWINDOW_CLASS@@A 004391a0     ft2.obj
 0003:0000b1a8       ?CurrentValuesDialog@@3VWINDOW_CLASS@@A 004391a8     ft2.obj
 0003:0000b1b0       ?CurrentDacDialog@@3VWINDOW_CLASS@@A 004391b0     ft2.obj
 0003:0000b1b8       ?AutoShotDisplayWindow@@3VWINDOW_CLASS@@A 004391b8     ft2.obj
 0003:0000b1c0       ?MainWindow@@3VWINDOW_CLASS@@A 004391c0     ft2.obj
 0003:0000b1c8       ?CurrentWindow@@3VWINDOW_CLASS@@A 004391c8     ft2.obj
 0003:0000b1d0       ?MainInstance@@3PAUHINSTANCE__@@A 004391d0     ft2.obj
 0003:0000b1d4       ?NullChar@@3DA             004391d4     ft2.obj
 0003:0000b1d8       ?EmptyString@@3PADA        004391d8     ft2.obj
 0003:0000b1dc       ?MainPushButton@@3PAUCONTROL_INFO@@A 004391dc     ft2.obj
 0003:0000b1e0       ?AddressTbox@@3PAUCONTROL_INFO@@A 004391e0     ft2.obj
 0003:0000b1e4       ?ConnectedTbox@@3PAUCONTROL_INFO@@A 004391e4     ft2.obj
 0003:0000b1e8       ?MachineTbox@@3PAUCONTROL_INFO@@A 004391e8     ft2.obj
 0003:0000b1ec       ?PartTbox@@3PAUCONTROL_INFO@@A 004391ec     ft2.obj
 0003:0000b1f0       ?MonitorStatusTbox@@3PAUCONTROL_INFO@@A 004391f0     ft2.obj
 0003:0000b1f4       ?MainEbox@@3PAUHWND__@@A   004391f4     ft2.obj
 0003:0000b1f8       ?TerminalIsVisible@@3EA    004391f8     ft2.obj
 0003:0000b1f9       ?BoardMonitorIsRunning@@3_NA 004391f9     ft2.obj
 0003:0000b1fa       ?ShotSaveIsRunning@@3_NA   004391fa     ft2.obj
 0003:0000b1fb       ?ClearAlarmsEachShot@@3EA  004391fb     ft2.obj
 0003:0000b1fc       ?ClearMonitorWireOnDown@@3EA 004391fc     ft2.obj
 0003:0000b1fd       ?ClearDownWireFromPopup@@3EA 004391fd     ft2.obj
 0003:0000b1fe       ?SaveAllAlarmShots@@3EA    004391fe     ft2.obj
 0003:0000b1ff       ?SubtractTimeoutFromAutoDown@@3EA 004391ff     ft2.obj
 0003:0000b200       ?HasDigitalServoAmp@@3EA   00439200     ft2.obj
 0003:0000b201       ?NeedErrorLog@@3EA         00439201     ft2.obj
 0003:0000b202       ?IsHiresSensor@@3EA        00439202     ft2.obj
 0003:0000b203       ?IsRemoteMonitor@@3EA      00439203     ft2.obj
 0003:0000b204       ?AlsLogIsActive@@3EA       00439204     ft2.obj
 0003:0000b205       ?LoggingSentCommands@@3EA  00439205     ft2.obj
 0003:0000b206       ?TurnOffAlarmsOnDown@@3EA  00439206     ft2.obj
 0003:0000b208       ?DownTimeAlarmWire@@3HA    00439208     ft2.obj
 0003:0000b20c       ?MonitorWire@@3HA          0043920c     ft2.obj
 0003:0000b210       ?NoUploadWire@@3IA         00439210     ft2.obj
 0003:0000b214       ?NoUploadWireMask@@3IA     00439214     ft2.obj
 0003:0000b218       ?RetractWire@@3IA          00439218     ft2.obj
 0003:0000b21c       ?UploadRetractTimeout@@3IA 0043921c     ft2.obj
 0003:0000b220       ?UploadStartShotTimeout@@3IA 00439220     ft2.obj
 0003:0000b224       ?NO_FT2_CONNECT_STATE@@3IA 00439224     ft2.obj
 0003:0000b228       ?ShutdownState@@3HA        00439228     ft2.obj
 0003:0000b22c       ?CurrentAnalogValue@@3PAIA 0043922c     ft2.obj
 0003:0000b28c       ?ShotSaveEvent@@3PAXA      0043928c     ft2.obj
 0003:0000b290       ?ManualNullInProgress@@3_NA 00439290     ft2.obj
 0003:0000b294       ?Dnu@@3PAPAUHWND__@@A      00439294     ft2.obj
 0003:0000b3a0       ??_C@_00A@?$AA@            004393a0     ft2.obj
 0003:0000b5d4       ?Boards@@3PAVFTII_BOARD_ENTRY@@A 004395d4     board_monitor.obj
 0003:0000b5d8       ?NofBoards@@3HA            004395d8     board_monitor.obj
 0003:0000b660       ?SkipList@@3VGENERIC_LIST_CLASS@@A 00439660     skip.obj
 0003:0000b694       ?emptystring@STRING_CLASS@@0PADA 00439694     v5subs:stringcl.obj
 0003:0000bc80       ?Shifts@@3PAUSHIFT@@A      00439c80     v5subs:shift.obj
 0003:0000bc84       ?NofShifts@@3FA            00439c84     v5subs:shift.obj
 0003:0000bd54       ___fastflag                00439d54     LIBCMT:fpinit.obj
 0003:0000bd58       __adjust_fdiv              00439d58     LIBCMT:fpinit.obj
 0003:0000bd5c       __aenvptr                  00439d5c     LIBCMT:wincrt0.obj
 0003:0000bd60       __wenvptr                  00439d60     LIBCMT:wincrt0.obj
 0003:0000bd64       ___error_mode              00439d64     LIBCMT:wincrt0.obj
 0003:0000bd68       __umaskval                 00439d68     LIBCMT:crt0dat.obj
 0003:0000bd6c       __osver                    00439d6c     LIBCMT:crt0dat.obj
 0003:0000bd70       __winver                   00439d70     LIBCMT:crt0dat.obj
 0003:0000bd74       __winmajor                 00439d74     LIBCMT:crt0dat.obj
 0003:0000bd78       __winminor                 00439d78     LIBCMT:crt0dat.obj
 0003:0000bd7c       ___argc                    00439d7c     LIBCMT:crt0dat.obj
 0003:0000bd80       ___argv                    00439d80     LIBCMT:crt0dat.obj
 0003:0000bd84       ___wargv                   00439d84     LIBCMT:crt0dat.obj
 0003:0000bd88       __environ                  00439d88     LIBCMT:crt0dat.obj
 0003:0000bd8c       ___initenv                 00439d8c     LIBCMT:crt0dat.obj
 0003:0000bd90       __wenviron                 00439d90     LIBCMT:crt0dat.obj
 0003:0000bd94       ___winitenv                00439d94     LIBCMT:crt0dat.obj
 0003:0000bd98       __pgmptr                   00439d98     LIBCMT:crt0dat.obj
 0003:0000bd9c       __wpgmptr                  00439d9c     LIBCMT:crt0dat.obj
 0003:0000bda0       __exitflag                 00439da0     LIBCMT:crt0dat.obj
 0003:0000bda4       __C_Termination_Done       00439da4     LIBCMT:crt0dat.obj
 0003:0000bda8       __C_Exit_Done              00439da8     LIBCMT:crt0dat.obj
 0003:0000beb4       __adbgmsg                  00439eb4     LIBCMT:crt0msg.obj
 0003:0000bf20       ?_pnhHeap@@3P6AHI@ZA       00439f20     LIBCMT:handler.obj
 0003:0000bf24       __newmode                  00439f24     LIBCMT:_newmode.obj
 0003:0000bf44       ___lc_handle               00439f44     LIBCMT:nlsdata2.obj
 0003:0000bf5c       ___lc_codepage             00439f5c     LIBCMT:nlsdata2.obj
 0003:0000bf60       ___lc_collate_cp           00439f60     LIBCMT:nlsdata2.obj
 0003:0000bf80       ___lc_time_intl            00439f80     LIBCMT:inittime.obj
 0003:0000bf9c       ___lc_id                   00439f9c     LIBCMT:nlsdata3.obj
 0003:0000bfec       ___lconv_static_null       00439fec     LIBCMT:lconv.obj
 0003:0000c0c0       ___setlc_active            0043a0c0     <common>
 0003:0000c0c4       ___unguarded_readlc_active 0043a0c4     <common>
 0003:0000c0c8       ___mbcodepage              0043a0c8     <common>
 0003:0000c0d0       ___mbulinfo                0043a0d0     <common>
 0003:0000c0dc       ___ismbcodepage            0043a0dc     <common>
 0003:0000c0e0       __mbcasemap                0043a0e0     <common>
 0003:0000c1e0       __mbctype                  0043a1e0     <common>
 0003:0000c2e4       ___mblcid                  0043a2e4     <common>
 0003:0000c2e8       ___sbh_sizeHeaderList      0043a2e8     <common>
 0003:0000c2ec       ___sbh_indGroupDefer       0043a2ec     <common>
 0003:0000c2f0       ___sbh_pHeaderScan         0043a2f0     <common>
 0003:0000c2f4       ___sbh_pHeaderDefer        0043a2f4     <common>
 0003:0000c2f8       ___sbh_cntHeaderList       0043a2f8     <common>
 0003:0000c2fc       ___sbh_pHeaderList         0043a2fc     <common>
 0003:0000c300       ___sbh_threshold           0043a300     <common>
 0003:0000c304       __crtheap                  0043a304     <common>
 0003:0000c308       ___active_heap             0043a308     <common>
 0003:0000c320       ___pioinfo                 0043a320     <common>
 0003:0000c420       __nhandle                  0043a420     <common>
 0003:0000c424       ___env_initialized         0043a424     <common>
 0003:0000c428       ___mbctype_initialized     0043a428     <common>
 0003:0000c42c       ___onexitend               0043a42c     <common>
 0003:0000c430       ___onexitbegin             0043a430     <common>
 0003:0000c434       __acmdln                   0043a434     <common>

 entry point at        0001:00023e9e

 Static symbols

 0001:00013273       _$E5                       00414273 f   skip.obj
 0001:0001327d       _$E2                       0041427d f   skip.obj
 0001:0001328f       _$E4                       0041428f f   skip.obj
 0001:0001329b       _$E3                       0041429b f   skip.obj
 0001:000132be       ?reset@@YAEPAUMACH_SKIP_ENTRY@@@Z 004142be f   skip.obj
 0001:00013339       ?fill_skip_entry@@YAXPAUSKIP_ENTRY@@AAVSETPOINT_CLASS@@H@Z 00414339 f   skip.obj
 0001:0001340f       ?find@@YAPAUMACH_SKIP_ENTRY@@AAVSTRING_CLASS@@@Z 0041440f f   skip.obj
 0001:00013575       ?increment_shot_entry@@YAEPAUSKIP_ENTRY@@U_FILETIME@@@Z 00414575 f   skip.obj
 0001:000115a1       _$E3                       004125a1 f   shotsave.obj
 0001:000115a6       _$E2                       004125a6 f   shotsave.obj
 0001:000115b1       _$E8                       004125b1 f   shotsave.obj
 0001:000115bb       _$E5                       004125bb f   shotsave.obj
 0001:000115c5       _$E7                       004125c5 f   shotsave.obj
 0001:000115d1       _$E6                       004125d1 f   shotsave.obj
 0001:000115db       _$E13                      004125db f   shotsave.obj
 0001:000115e5       _$E10                      004125e5 f   shotsave.obj
 0001:000115ef       _$E12                      004125ef f   shotsave.obj
 0001:000115fb       _$E11                      004125fb f   shotsave.obj
 0001:00012076       ?write_bytes_to_serial_port@@YAEPAXK@Z 00413076 f   shotsave.obj
 0001:000120be       ?write_hex_file_to_serial_port@@YAEAAVNAME_CLASS@@@Z 004130be f   shotsave.obj
 0001:0001257f       ?make_parameter_event_string@@YAPADPAUSHOT_BUFFER_ENTRY@@@Z 0041357f f   shotsave.obj
 0001:00012741       ?write_als_log@@YAXPADAAVFTII_FILE_DATA@@@Z 00413741 f   shotsave.obj
 0001:00012b6c       ?make_line@@YAXAAVSTRING_CLASS@@INH@Z 00413b6c f   shotsave.obj
 0001:00012bbf       ?bit_state@@YAPADI@Z       00413bbf f   shotsave.obj
 0001:00012c10       ?save_this_machine@@YAXAAVSTRING_CLASS@@@Z 00413c10 f   shotsave.obj
 0001:00012ce7       ?freebuf@@YAXH@Z           00413ce7 f   shotsave.obj
 0001:00012dc5       ?startup@@YAXXZ            00413dc5 f   shotsave.obj
 0001:000130dd       ?get_dde_parameter_list@@YAXXZ 004140dd f   shotsave.obj
 0001:000131fa       ?shutdown@@YAXXZ           004141fa f   shotsave.obj
 0001:0000c624       _$E5                       0040d624 f   board_monitor.obj
 0001:0000c62e       _$E2                       0040d62e f   board_monitor.obj
 0001:0000c638       _$E4                       0040d638 f   board_monitor.obj
 0001:0000c644       _$E3                       0040d644 f   board_monitor.obj
 0001:0000c64e       _$E10                      0040d64e f   board_monitor.obj
 0001:0000c658       _$E7                       0040d658 f   board_monitor.obj
 0001:0000c662       _$E9                       0040d662 f   board_monitor.obj
 0001:0000c66e       _$E8                       0040d66e f   board_monitor.obj
 0001:0000c678       _$E15                      0040d678 f   board_monitor.obj
 0001:0000c682       _$E12                      0040d682 f   board_monitor.obj
 0001:0000c68c       _$E14                      0040d68c f   board_monitor.obj
 0001:0000c698       _$E13                      0040d698 f   board_monitor.obj
 0001:0000c6a2       _$E20                      0040d6a2 f   board_monitor.obj
 0001:0000c6ac       _$E17                      0040d6ac f   board_monitor.obj
 0001:0000c6b6       _$E19                      0040d6b6 f   board_monitor.obj
 0001:0000c6c2       _$E18                      0040d6c2 f   board_monitor.obj
 0001:0000c6cc       _$E25                      0040d6cc f   board_monitor.obj
 0001:0000c6d6       _$E22                      0040d6d6 f   board_monitor.obj
 0001:0000c6e0       _$E24                      0040d6e0 f   board_monitor.obj
 0001:0000c6ec       _$E23                      0040d6ec f   board_monitor.obj
 0001:0000c6f6       _$E30                      0040d6f6 f   board_monitor.obj
 0001:0000c700       _$E27                      0040d700 f   board_monitor.obj
 0001:0000c712       _$E29                      0040d712 f   board_monitor.obj
 0001:0000c71e       _$E28                      0040d71e f   board_monitor.obj
 0001:0000c765       ?board_index@@YAHAAUsockaddr_in@@@Z 0040d765 f   board_monitor.obj
 0001:0000c7c2       ?board_index@@YAHABVSTRING_CLASS@@@Z 0040d7c2 f   board_monitor.obj
 0001:0000c9e4       _$E34                      0040d9e4 f   board_monitor.obj
 0001:0000ccc7       ?board_index@@YAHPBVFTII_BOARD_ENTRY@@@Z 0040dcc7 f   board_monitor.obj
 0001:0000d123       ?write_als_bit_changes@@YAXII@Z 0040e123 f   board_monitor.obj
 0001:0000d2fa       ?make_line@@YAXAAVSTRING_CLASS@@IAAVTIME_CLASS@@@Z 0040e2fa f   board_monitor.obj
 0001:0000d32f       ?bit_state@@YAPADI@Z       0040e32f f   board_monitor.obj
 0001:0000d417       ?get_socket_message@@YAPAUSOCKET_MESSAGE@@XZ 0040e417 f   board_monitor.obj
 0001:0000db9c       ?update_monitor_status@@YAXPAVFTII_BOARD_ENTRY@@PAD@Z 0040eb9c f   board_monitor.obj
 0001:0000dc8c       ?send_machine_state_event_string@@YAXAAVSTRING_CLASS@@GG@Z 0040ec8c f   board_monitor.obj
 0001:0000dcf8       ?add_board_data@@YAPADPADG@Z 0040ecf8 f   board_monitor.obj
 0001:0000dd25       ?check_alarms@@YAXAAU_SYSTEMTIME@@PAVFTII_BOARD_ENTRY@@PAN@Z 0040ed25 f   board_monitor.obj
 0001:0000e568       ?encoded_file_date@@YAIAAVNAME_CLASS@@@Z 0040f568 f   board_monitor.obj
 0001:0000e5d3       ?truncate_control_file_line@@YAXPAD@Z 0040f5d3 f   board_monitor.obj
 0001:0000e60d       ?update_config_word@@YAXAAVSTRING_CLASS@@K@Z 0040f60d f   board_monitor.obj
 0001:0000e698       ?update_one_board_display@@YAXHPAD@Z 0040f698 f   board_monitor.obj
 0001:0000f506       ?do_ascii_message@@YAXHPAD@Z 00410506 f   board_monitor.obj
 0001:0000f75f       ?continue_connecting_one_board@@YAXH@Z 0041075f f   board_monitor.obj
 0001:0000f920       _$E38                      00410920 f   board_monitor.obj
 0001:0000f92a       ?check_for_cycle_start@@YA_NPAVFTII_BOARD_ENTRY@@PAD@Z 0041092a f   board_monitor.obj
 0001:0000ff07       ?ascii_strings_are_equal@@YAEPBD0H@Z 00410f07 f   board_monitor.obj
 0001:0000ff2a       ?do_ascii_message@@YAXHPAUSOCKET_MESSAGE@@@Z 00410f2a f   board_monitor.obj
 0001:000105d1       ?ascii_copystring@@YAXPADPBD@Z 004115d1 f   board_monitor.obj
 0001:000105e6       ?clean_message_stores@@YAXXZ 004115e6 f   board_monitor.obj
 0001:0001061f       ?write_sent_command@@YAXHPAD@Z 0041161f f   board_monitor.obj
 0001:000106f0       ?do_ack_message@@YAXPAUSOCKET_MESSAGE@@@Z 004116f0 f   board_monitor.obj
 0001:00010815       ?check_for_timeouts@@YAXXZ 00411815 f   board_monitor.obj
 0001:00010b88       ?send_ack@@YAXAAUsockaddr_in@@@Z 00411b88 f   board_monitor.obj
 0001:00010bb3       ?get_ack_message@@YAPAUACK_MESSAGE@@XZ 00411bb3 f   board_monitor.obj
 0001:00010c62       ?connect_to_boards@@YAXXZ  00411c62 f   board_monitor.obj
 0001:00010caa       ?connect_one_board@@YAXH@Z 00411caa f   board_monitor.obj
 0001:00010df3       _$E40                      00411df3 f   board_monitor.obj
 0001:00010dfd       ?start_socket@@YAXXZ       00411dfd f   board_monitor.obj
 0001:00010f91       ?disconnect_from_boards@@YAXXZ 00411f91 f   board_monitor.obj
 0001:00011323       ?do_newsetup@@YAXAAVSTRING_CLASS@@@Z 00412323 f   board_monitor.obj
 0001:00000000       _$E5                       00401000 f   ft2.obj
 0001:0000000a       _$E2                       0040100a f   ft2.obj
 0001:0000001c       _$E4                       0040101c f   ft2.obj
 0001:00000028       _$E3                       00401028 f   ft2.obj
 0001:00000033       _$E10                      00401033 f   ft2.obj
 0001:0000003d       _$E7                       0040103d f   ft2.obj
 0001:0000004f       _$E9                       0040104f f   ft2.obj
 0001:0000005b       _$E8                       0040105b f   ft2.obj
 0001:00000066       _$E15                      00401066 f   ft2.obj
 0001:00000070       _$E12                      00401070 f   ft2.obj
 0001:00000082       _$E14                      00401082 f   ft2.obj
 0001:0000008e       _$E13                      0040108e f   ft2.obj
 0001:00000099       _$E20                      00401099 f   ft2.obj
 0001:000000a3       _$E17                      004010a3 f   ft2.obj
 0001:000000b5       _$E19                      004010b5 f   ft2.obj
 0001:000000c1       _$E18                      004010c1 f   ft2.obj
 0001:000000cc       _$E25                      004010cc f   ft2.obj
 0001:000000d6       _$E22                      004010d6 f   ft2.obj
 0001:000000e8       _$E24                      004010e8 f   ft2.obj
 0001:000000f4       _$E23                      004010f4 f   ft2.obj
 0001:000000ff       _$E30                      004010ff f   ft2.obj
 0001:00000109       _$E27                      00401109 f   ft2.obj
 0001:0000011b       _$E29                      0040111b f   ft2.obj
 0001:00000127       _$E28                      00401127 f   ft2.obj
 0001:00000132       _$E35                      00401132 f   ft2.obj
 0001:0000013c       _$E32                      0040113c f   ft2.obj
 0001:0000014e       _$E34                      0040114e f   ft2.obj
 0001:0000015a       _$E33                      0040115a f   ft2.obj
 0001:00000165       _$E40                      00401165 f   ft2.obj
 0001:0000016f       _$E37                      0040116f f   ft2.obj
 0001:00000181       _$E39                      00401181 f   ft2.obj
 0001:0000018d       _$E38                      0040118d f   ft2.obj
 0001:00000198       _$E45                      00401198 f   ft2.obj
 0001:000001a2       _$E42                      004011a2 f   ft2.obj
 0001:000001b4       _$E44                      004011b4 f   ft2.obj
 0001:000001c0       _$E43                      004011c0 f   ft2.obj
 0001:000001cb       _$E50                      004011cb f   ft2.obj
 0001:000001d5       _$E47                      004011d5 f   ft2.obj
 0001:000001e7       _$E49                      004011e7 f   ft2.obj
 0001:000001f3       _$E48                      004011f3 f   ft2.obj
 0001:000001fe       _$E55                      004011fe f   ft2.obj
 0001:00000208       _$E52                      00401208 f   ft2.obj
 0001:0000021a       _$E54                      0040121a f   ft2.obj
 0001:00000226       _$E53                      00401226 f   ft2.obj
 0001:00000231       _$E60                      00401231 f   ft2.obj
 0001:0000023b       _$E57                      0040123b f   ft2.obj
 0001:0000024d       _$E59                      0040124d f   ft2.obj
 0001:00000259       _$E58                      00401259 f   ft2.obj
 0001:00000264       _$E65                      00401264 f   ft2.obj
 0001:0000026e       _$E62                      0040126e f   ft2.obj
 0001:00000280       _$E64                      00401280 f   ft2.obj
 0001:0000028c       _$E63                      0040128c f   ft2.obj
 0001:00000297       _$E70                      00401297 f   ft2.obj
 0001:000002a1       _$E67                      004012a1 f   ft2.obj
 0001:000002b3       _$E69                      004012b3 f   ft2.obj
 0001:000002bf       _$E68                      004012bf f   ft2.obj
 0001:000002ca       _$E75                      004012ca f   ft2.obj
 0001:000002d4       _$E72                      004012d4 f   ft2.obj
 0001:000002e6       _$E74                      004012e6 f   ft2.obj
 0001:000002f2       _$E73                      004012f2 f   ft2.obj
 0001:000002fd       _$E80                      004012fd f   ft2.obj
 0001:00000307       _$E77                      00401307 f   ft2.obj
 0001:00000319       _$E79                      00401319 f   ft2.obj
 0001:00000325       _$E78                      00401325 f   ft2.obj
 0001:00000330       _$E85                      00401330 f   ft2.obj
 0001:0000033a       _$E82                      0040133a f   ft2.obj
 0001:00000356       _$E84                      00401356 f   ft2.obj
 0001:00000362       _$E83                      00401362 f   ft2.obj
 0001:0000036c       _$E90                      0040136c f   ft2.obj
 0001:00000376       _$E87                      00401376 f   ft2.obj
 0001:00000380       _$E89                      00401380 f   ft2.obj
 0001:0000038c       _$E88                      0040138c f   ft2.obj
 0001:000003c2       _$E95                      004013c2 f   ft2.obj
 0001:000003cc       _$E92                      004013cc f   ft2.obj
 0001:000003d6       _$E94                      004013d6 f   ft2.obj
 0001:000003e2       _$E93                      004013e2 f   ft2.obj
 0001:000003ec       _$E100                     004013ec f   ft2.obj
 0001:000003f6       _$E97                      004013f6 f   ft2.obj
 0001:00000400       _$E99                      00401400 f   ft2.obj
 0001:0000040c       _$E98                      0040140c f   ft2.obj
 0001:00000416       _$E105                     00401416 f   ft2.obj
 0001:00000420       _$E102                     00401420 f   ft2.obj
 0001:0000042a       _$E104                     0040142a f   ft2.obj
 0001:00000436       _$E103                     00401436 f   ft2.obj
 0001:00000440       _$E110                     00401440 f   ft2.obj
 0001:0000044a       _$E107                     0040144a f   ft2.obj
 0001:00000454       _$E109                     00401454 f   ft2.obj
 0001:00000460       _$E108                     00401460 f   ft2.obj
 0001:0000046a       _$E115                     0040146a f   ft2.obj
 0001:00000474       _$E112                     00401474 f   ft2.obj
 0001:0000047e       _$E114                     0040147e f   ft2.obj
 0001:0000048a       _$E113                     0040148a f   ft2.obj
 0001:00000494       _$E120                     00401494 f   ft2.obj
 0001:0000049e       _$E117                     0040149e f   ft2.obj
 0001:000004a8       _$E119                     004014a8 f   ft2.obj
 0001:000004b4       _$E118                     004014b4 f   ft2.obj
 0001:000004be       _$E125                     004014be f   ft2.obj
 0001:000004c8       _$E122                     004014c8 f   ft2.obj
 0001:000004d2       _$E124                     004014d2 f   ft2.obj
 0001:000004de       _$E123                     004014de f   ft2.obj
 0001:000004e8       _$E130                     004014e8 f   ft2.obj
 0001:000004f2       _$E127                     004014f2 f   ft2.obj
 0001:000004fc       _$E129                     004014fc f   ft2.obj
 0001:00000508       _$E128                     00401508 f   ft2.obj
 0001:00000512       _$E135                     00401512 f   ft2.obj
 0001:0000051c       _$E132                     0040151c f   ft2.obj
 0001:00000526       _$E134                     00401526 f   ft2.obj
 0001:00000532       _$E133                     00401532 f   ft2.obj
 0001:0000053c       _$E140                     0040153c f   ft2.obj
 0001:00000546       _$E137                     00401546 f   ft2.obj
 0001:00000550       _$E139                     00401550 f   ft2.obj
 0001:0000055c       _$E138                     0040155c f   ft2.obj
 0001:00000566       _$E145                     00401566 f   ft2.obj
 0001:00000570       _$E142                     00401570 f   ft2.obj
 0001:0000057a       _$E144                     0040157a f   ft2.obj
 0001:00000586       _$E143                     00401586 f   ft2.obj
 0001:00000590       _$E148                     00401590 f   ft2.obj
 0001:00000595       _$E147                     00401595 f   ft2.obj
 0001:0000059f       _$E153                     0040159f f   ft2.obj
 0001:000005a9       _$E150                     004015a9 f   ft2.obj
 0001:000005b3       _$E152                     004015b3 f   ft2.obj
 0001:000005bf       _$E151                     004015bf f   ft2.obj
 0001:000005c9       _$E158                     004015c9 f   ft2.obj
 0001:000005d3       _$E155                     004015d3 f   ft2.obj
 0001:000005ef       _$E157                     004015ef f   ft2.obj
 0001:000005fb       _$E156                     004015fb f   ft2.obj
 0001:00000605       _$E163                     00401605 f   ft2.obj
 0001:0000060f       _$E160                     0040160f f   ft2.obj
 0001:00000621       _$E162                     00401621 f   ft2.obj
 0001:0000062d       _$E161                     0040162d f   ft2.obj
 0001:00000638       _$E168                     00401638 f   ft2.obj
 0001:00000642       _$E165                     00401642 f   ft2.obj
 0001:0000065e       _$E167                     0040165e f   ft2.obj
 0001:0000066a       _$E166                     0040166a f   ft2.obj
 0001:00000674       _$E173                     00401674 f   ft2.obj
 0001:0000067e       _$E170                     0040167e f   ft2.obj
 0001:00000690       _$E172                     00401690 f   ft2.obj
 0001:0000069c       _$E171                     0040169c f   ft2.obj
 0001:000006a7       _$E178                     004016a7 f   ft2.obj
 0001:000006b1       _$E175                     004016b1 f   ft2.obj
 0001:000006c3       _$E177                     004016c3 f   ft2.obj
 0001:000006cf       _$E176                     004016cf f   ft2.obj
 0001:000006da       _$E183                     004016da f   ft2.obj
 0001:000006e4       _$E180                     004016e4 f   ft2.obj
 0001:000006f6       _$E182                     004016f6 f   ft2.obj
 0001:00000702       _$E181                     00401702 f   ft2.obj
 0001:0000070d       _$E188                     0040170d f   ft2.obj
 0001:00000717       _$E185                     00401717 f   ft2.obj
 0001:00000730       _$E187                     00401730 f   ft2.obj
 0001:0000073c       _$E186                     0040173c f   ft2.obj
 0001:00000751       _$E193                     00401751 f   ft2.obj
 0001:0000075b       _$E190                     0040175b f   ft2.obj
 0001:00000774       _$E192                     00401774 f   ft2.obj
 0001:00000780       _$E191                     00401780 f   ft2.obj
 0001:00000795       _$E198                     00401795 f   ft2.obj
 0001:0000079f       _$E195                     0040179f f   ft2.obj
 0001:000007b8       _$E197                     004017b8 f   ft2.obj
 0001:000007c4       _$E196                     004017c4 f   ft2.obj
 0001:000007d9       _$E203                     004017d9 f   ft2.obj
 0001:000007e3       _$E200                     004017e3 f   ft2.obj
 0001:000007ed       _$E202                     004017ed f   ft2.obj
 0001:000007f9       _$E201                     004017f9 f   ft2.obj
 0001:00000803       _$E208                     00401803 f   ft2.obj
 0001:0000080d       _$E205                     0040180d f   ft2.obj
 0001:00000817       _$E207                     00401817 f   ft2.obj
 0001:00000823       _$E206                     00401823 f   ft2.obj
 0001:0000082d       _$E213                     0040182d f   ft2.obj
 0001:00000837       _$E210                     00401837 f   ft2.obj
 0001:00000841       _$E212                     00401841 f   ft2.obj
 0001:0000084d       _$E211                     0040184d f   ft2.obj
 0001:00000857       _$E218                     00401857 f   ft2.obj
 0001:00000861       _$E215                     00401861 f   ft2.obj
 0001:0000086b       _$E217                     0040186b f   ft2.obj
 0001:00000877       _$E216                     00401877 f   ft2.obj
 0001:00000881       _$E223                     00401881 f   ft2.obj
 0001:0000088b       _$E220                     0040188b f   ft2.obj
 0001:00000895       _$E222                     00401895 f   ft2.obj
 0001:000008a1       _$E221                     004018a1 f   ft2.obj
 0001:000008ab       _$E228                     004018ab f   ft2.obj
 0001:000008b5       _$E225                     004018b5 f   ft2.obj
 0001:000008bf       _$E227                     004018bf f   ft2.obj
 0001:000008cb       _$E226                     004018cb f   ft2.obj
 0001:000008d5       _$E233                     004018d5 f   ft2.obj
 0001:000008df       _$E230                     004018df f   ft2.obj
 0001:000008e9       _$E232                     004018e9 f   ft2.obj
 0001:000008f5       _$E231                     004018f5 f   ft2.obj
 0001:000008ff       _$E238                     004018ff f   ft2.obj
 0001:00000909       _$E235                     00401909 f   ft2.obj
 0001:0000094e       _$E237                     0040194e f   ft2.obj
 0001:0000095a       _$E236                     0040195a f   ft2.obj
 0001:00000964       _$E243                     00401964 f   ft2.obj
 0001:0000096e       _$E240                     0040196e f   ft2.obj
 0001:00000978       _$E242                     00401978 f   ft2.obj
 0001:00000984       _$E241                     00401984 f   ft2.obj
 0001:0000098e       _$E248                     0040198e f   ft2.obj
 0001:00000998       _$E245                     00401998 f   ft2.obj
 0001:000009a2       _$E247                     004019a2 f   ft2.obj
 0001:000009ae       _$E246                     004019ae f   ft2.obj
 0001:000009b8       _$E253                     004019b8 f   ft2.obj
 0001:000009c2       _$E250                     004019c2 f   ft2.obj
 0001:000009d4       _$E252                     004019d4 f   ft2.obj
 0001:000009e0       _$E251                     004019e0 f   ft2.obj
 0001:000009eb       _$E258                     004019eb f   ft2.obj
 0001:000009f5       _$E255                     004019f5 f   ft2.obj
 0001:00000a07       _$E257                     00401a07 f   ft2.obj
 0001:00000a13       _$E256                     00401a13 f   ft2.obj
 0001:00000a1e       _$E263                     00401a1e f   ft2.obj
 0001:00000a28       _$E260                     00401a28 f   ft2.obj
 0001:00000a32       _$E262                     00401a32 f   ft2.obj
 0001:00000a3e       _$E261                     00401a3e f   ft2.obj
 0001:00000a48       _$E268                     00401a48 f   ft2.obj
 0001:00000a52       _$E265                     00401a52 f   ft2.obj
 0001:00000a5c       _$E267                     00401a5c f   ft2.obj
 0001:00000a68       _$E266                     00401a68 f   ft2.obj
 0001:00000a72       _$E273                     00401a72 f   ft2.obj
 0001:00000a7c       _$E270                     00401a7c f   ft2.obj
 0001:00000a86       _$E272                     00401a86 f   ft2.obj
 0001:00000a92       _$E271                     00401a92 f   ft2.obj
 0001:00000a9c       _$E278                     00401a9c f   ft2.obj
 0001:00000aa6       _$E275                     00401aa6 f   ft2.obj
 0001:00000ab0       _$E277                     00401ab0 f   ft2.obj
 0001:00000abc       _$E276                     00401abc f   ft2.obj
 0001:00000ac6       _$E283                     00401ac6 f   ft2.obj
 0001:00000ad0       _$E280                     00401ad0 f   ft2.obj
 0001:00000ada       _$E282                     00401ada f   ft2.obj
 0001:00000ae6       _$E281                     00401ae6 f   ft2.obj
 0001:00000af0       _$E288                     00401af0 f   ft2.obj
 0001:00000afa       _$E285                     00401afa f   ft2.obj
 0001:00000b04       _$E287                     00401b04 f   ft2.obj
 0001:00000b10       _$E286                     00401b10 f   ft2.obj
 0001:00000b1a       _$E293                     00401b1a f   ft2.obj
 0001:00000b24       _$E290                     00401b24 f   ft2.obj
 0001:00000b2e       _$E292                     00401b2e f   ft2.obj
 0001:00000b3a       _$E291                     00401b3a f   ft2.obj
 0001:00000b44       _$E298                     00401b44 f   ft2.obj
 0001:00000b4e       _$E295                     00401b4e f   ft2.obj
 0001:00000b58       _$E297                     00401b58 f   ft2.obj
 0001:00000b64       _$E296                     00401b64 f   ft2.obj
 0001:00000b6e       _$E303                     00401b6e f   ft2.obj
 0001:00000b78       _$E300                     00401b78 f   ft2.obj
 0001:00000b82       _$E302                     00401b82 f   ft2.obj
 0001:00000b8e       _$E301                     00401b8e f   ft2.obj
 0001:00000b98       _$E308                     00401b98 f   ft2.obj
 0001:00000ba2       _$E305                     00401ba2 f   ft2.obj
 0001:00000bac       _$E307                     00401bac f   ft2.obj
 0001:00000bb8       _$E306                     00401bb8 f   ft2.obj
 0001:00000bc2       _$E313                     00401bc2 f   ft2.obj
 0001:00000bcc       _$E310                     00401bcc f   ft2.obj
 0001:00000bd6       _$E312                     00401bd6 f   ft2.obj
 0001:00000be2       _$E311                     00401be2 f   ft2.obj
 0001:00000bec       _$E318                     00401bec f   ft2.obj
 0001:00000bf6       _$E315                     00401bf6 f   ft2.obj
 0001:00000c00       _$E317                     00401c00 f   ft2.obj
 0001:00000c0c       _$E316                     00401c0c f   ft2.obj
 0001:00000c16       _$E323                     00401c16 f   ft2.obj
 0001:00000c20       _$E320                     00401c20 f   ft2.obj
 0001:00000c2a       _$E322                     00401c2a f   ft2.obj
 0001:00000c36       _$E321                     00401c36 f   ft2.obj
 0001:00000c40       _$E328                     00401c40 f   ft2.obj
 0001:00000c4a       _$E325                     00401c4a f   ft2.obj
 0001:00000c54       _$E327                     00401c54 f   ft2.obj
 0001:00000c60       _$E326                     00401c60 f   ft2.obj
 0001:00000c6a       _$E333                     00401c6a f   ft2.obj
 0001:00000c74       _$E330                     00401c74 f   ft2.obj
 0001:00000c7e       _$E332                     00401c7e f   ft2.obj
 0001:00000c8a       _$E331                     00401c8a f   ft2.obj
 0001:00000c94       _$E338                     00401c94 f   ft2.obj
 0001:00000c9e       _$E335                     00401c9e f   ft2.obj
 0001:00000ca8       _$E337                     00401ca8 f   ft2.obj
 0001:00000cb4       _$E336                     00401cb4 f   ft2.obj
 0001:00000cbe       _$E343                     00401cbe f   ft2.obj
 0001:00000cc8       _$E340                     00401cc8 f   ft2.obj
 0001:00000cd2       _$E342                     00401cd2 f   ft2.obj
 0001:00000cde       _$E341                     00401cde f   ft2.obj
 0001:00000ce8       _$E348                     00401ce8 f   ft2.obj
 0001:00000cf2       _$E345                     00401cf2 f   ft2.obj
 0001:00000d2d       _$E347                     00401d2d f   ft2.obj
 0001:00000d39       _$E346                     00401d39 f   ft2.obj
 0001:00000d5a       _$E353                     00401d5a f   ft2.obj
 0001:00000d64       _$E350                     00401d64 f   ft2.obj
 0001:00000d7e       _$E352                     00401d7e f   ft2.obj
 0001:00000d8a       _$E351                     00401d8a f   ft2.obj
 0001:00000dab       _$E358                     00401dab f   ft2.obj
 0001:00000db5       _$E355                     00401db5 f   ft2.obj
 0001:00000dd5       _$E357                     00401dd5 f   ft2.obj
 0001:00000de1       _$E356                     00401de1 f   ft2.obj
 0001:00001733       _$E366                     00402733 f   ft2.obj
 0001:0000173d       _$E365                     0040273d f   ft2.obj
 0001:00001a9a       ?position_ft2_test_dialog@@YAXXZ 00402a9a f   ft2.obj
 0001:00001b23       _$E369                     00402b23 f   ft2.obj
 0001:00001b2d       _$E368                     00402b2d f   ft2.obj
 0001:00001dd4       ?save_listbox@@YAXXZ       00402dd4 f   ft2.obj
 0001:00001e35       ?size_terminal@@YAXXZ      00402e35 f   ft2.obj
 0001:00001ed4       ?check_terminal_position@@YAXXZ 00402ed4 f   ft2.obj
 0001:00001f8c       ?dock_terminal@@YAXXZ      00402f8c f   ft2.obj
 0001:00002054       ?load_terminal_menu@@YAXXZ 00403054 f   ft2.obj
 0001:0000215d       ?retry_upload_to_aborted_machine@@YAXXZ 0040315d f   ft2.obj
 0001:000021af       ?send_command@@YAXPAD0_N@Z 004031af f   ft2.obj
 0001:000021eb       ?get_next_upload_aborted_machine@@YA_NXZ 004031eb f   ft2.obj
 0001:00002408       ?set_current_window@@YAXAAVWINDOW_CLASS@@@Z 00403408 f   ft2.obj
 0001:000029ec       ?load_machine_vars@@YAEXZ  004039ec f   ft2.obj
 0001:00002aca       ?hide_terminal_window@@YAXXZ 00403aca f   ft2.obj
 0001:00002b2a       ?refresh_current_machine@@YAXAAVSTRING_CLASS@@@Z 00403b2a f   ft2.obj
 0001:00002b57       ?load_current_part@@YAXXZ  00403b57 f   ft2.obj
 0001:00002bc3       ?send_command_to_current_machine@@YAXPAD_N@Z 00403bc3 f   ft2.obj
 0001:00002c64       ?scroll_listbox_to_last_entry@@YAXXZ 00403c64 f   ft2.obj
 0001:00002c97       _$E373                     00403c97 f   ft2.obj
 0001:00002ea9       ?fill_machine_listbox@@YAEPAUHWND__@@@Z 00403ea9 f   ft2.obj
 0001:000030a1       ?set_globals_from_eboxes@@YAXPAUHWND__@@@Z 004040a1 f   ft2.obj
 0001:000033e0       ?stop_hires_sensor_test@@YAXXZ 004043e0 f   ft2.obj
 0001:0000344a       ?do_hires_sensor_test_timer@@YAXPAUHWND__@@@Z 0040444a f   ft2.obj
 0001:000035c1       ?save_null_value@@YAXXZ    004045c1 f   ft2.obj
 0001:0000365c       ?position_shutdown_status_dialog@@YAXPAUHWND__@@@Z 0040465c f   ft2.obj
 0001:000037b6       ?position_button_child@@YAXAAVWINDOW_CLASS@@@Z 004047b6 f   ft2.obj
 0001:0000388a       ?send_auto_null_command@@YAXXZ 0040488a f   ft2.obj
 0001:000038b8       ?send_manual_null_command@@YAXXZ 004048b8 f   ft2.obj
 0001:0000392e       ?do_new_set_null_values@@YAXXZ 0040492e f   ft2.obj
 0001:000039cc       _$E375                     004049cc f   ft2.obj
 0001:00003bc9       ?save_machine_vars@@YAEXZ  00404bc9 f   ft2.obj
 0001:00003c80       ?send_lvdt_digital_pot_command@@YAXE@Z 00404c80 f   ft2.obj
 0001:00003d9e       ?put_byte@@YAXAAIIH@Z      00404d9e f   ft2.obj
 0001:00003e2d       ?send_test_message@@YAXH@Z 00404e2d f   ft2.obj
 0001:000041ce       ?refresh_set_dac_dialog@@YAXXZ 004051ce f   ft2.obj
 0001:000042ac       ?digital_pot_setting@@YAIH@Z 004052ac f   ft2.obj
 0001:000042de       ?show_revision_d_controls@@YAXXZ 004052de f   ft2.obj
 0001:0000433c       ?init_set_dac_dialog@@YAXXZ 0040533c f   ft2.obj
 0001:00004461       ?do_new_set_dac_values@@YAXXZ 00405461 f   ft2.obj
 0001:000047d3       _$E379                     004057d3 f   ft2.obj
 0001:000047de       _$E378                     004057de f   ft2.obj
 0001:000047e8       _$E377                     004057e8 f   ft2.obj
 0001:0000481f       ?fill_global_parameters@@YAXXZ 0040581f f   ft2.obj
 0001:00004caa       ?mv_from_percent@@YAHN@Z   00405caa f   ft2.obj
 0001:00004ccd       ?percent_from_mv@@YAPADH@Z 00405ccd f   ft2.obj
 0001:00004d56       ?save_global_parameters@@YAXXZ 00405d56 f   ft2.obj
 0001:00005165       ?mv_from_percent@@YAHAAVSTRING_CLASS@@@Z 00406165 f   ft2.obj
 0001:000051ba       ?check_for_savepart_updates@@YAXXZ 004061ba f   ft2.obj
 0001:0000561e       ?init_control_mods_dialog@@YAXXZ 0040661e f   ft2.obj
 0001:00005706       ?show_alt_step_controls@@YAXXZ 00406706 f   ft2.obj
 0001:000057a6       ?save_control_mod_changes@@YAXXZ 004067a6 f   ft2.obj
 0001:00005996       ?load_current_control_mods@@YAXXZ 00406996 f   ft2.obj
 0001:000059a0       ?load_control_mods_from_file@@YA_NXZ 004069a0 f   ft2.obj
 0001:00005c89       ?get_alt_step_from_line@@YAXPAD@Z 00406c89 f   ft2.obj
 0001:00005d7d       ?get_string_value_from_line@@YAPADPAD@Z 00406d7d f   ft2.obj
 0001:00005d9a       ?copy_mods_to_screen@@YAXXZ 00406d9a f   ft2.obj
 0001:00005f25       ?show_alt_step@@YAXXZ      00406f25 f   ft2.obj
 0001:00005f51       ?show_start_step@@YAXXZ    00406f51 f   ft2.obj
 0001:00005fbb       ?show_park_step@@YAXXZ     00406fbb f   ft2.obj
 0001:00006025       ?get_alt_step_velocity_for_ebox@@YAXAAVSTRING_CLASS@@@Z 00407025 f   ft2.obj
 0001:00006126       ?check_for_new_board@@YAXXZ 00407126 f   ft2.obj
 0001:00006170       _$E381                     00407170 f   ft2.obj
 0001:0000617a       ?do_alt_step_type_select@@YAXXZ 0040717a f   ft2.obj
 0001:000061da       ?update_park_step@@YAXXZ   004071da f   ft2.obj
 0001:00006236       ?update_start_step@@YAXXZ  00407236 f   ft2.obj
 0001:00006292       ?update_alt_step@@YAXH@Z   00407292 f   ft2.obj
 0001:0000637f       ?extract_alt_step_velocity@@YAXAAVSTRING_CLASS@@@Z 0040737f f   ft2.obj
 0001:000063e5       ?percent_to_hex@@YAPADN@Z  004073e5 f   ft2.obj
 0001:00006650       ?send_current_digital_pot_command@@YAXXZ 00407650 f   ft2.obj
 0001:00006716       ?load_master_trace@@YAXXZ  00407716 f   ft2.obj
 0001:000067e0       ?save_master_trace@@YAXXZ  004077e0 f   ft2.obj
 0001:000068b5       ?plot_oscilloscope_data@@YAXPAH@Z 004078b5 f   ft2.obj
 0001:00006ad6       ?do_new_oscilloscope_data@@YAXJ@Z 00407ad6 f   ft2.obj
 0001:00006b4b       ?refresh_valve_test_screen@@YAXXZ 00407b4b f   ft2.obj
 0001:00006ba3       ?show_valve_test_revision_d_controls@@YAXXZ 00407ba3 f   ft2.obj
 0001:00006c01       ?init_valve_test_data@@YAXXZ 00407c01 f   ft2.obj
 0001:00006f7a       ?do_opto_click@@YAXIJ@Z    00407f7a f   ft2.obj
 0001:00006fc3       ?do_new_alarm_output_values@@YAXXZ 00407fc3 f   ft2.obj
 0001:0000700c       ?init_test_alarm_optos@@YAXXZ 0040800c f   ft2.obj
 0001:000073c1       ?set_channel_5_8_labels@@YAXH@Z 004083c1 f   ft2.obj
 0001:0000780b       ?set_channel_5_8_labels@@YAXXZ 0040880b f   ft2.obj
 0001:00007818       ?refresh_current_values@@YAXXZ 00408818 f   ft2.obj
 0001:000079db       ?create_tooltips@@YAXXZ    004089db f   ft2.obj
 0001:00007e3e       ?init_current_values_dialog@@YAXXZ 00408e3e f   ft2.obj
 0001:00008284       ?do_new_current_values@@YAXXZ 00409284 f   ft2.obj
 0001:00008f01       ?write_log@@YAXPAD@Z       00409f01 f   ft2.obj
 0001:00009001       _$E363                     0040a001 f   ft2.obj
 0001:0000900b       _$E362                     0040a00b f   ft2.obj
 0001:0000900c       _$E361                     0040a00c f   ft2.obj
 0001:00009016       ?log_input_bits@@YAXXZ     0040a016 f   ft2.obj
 0001:000090af       _$E383                     0040a0af f   ft2.obj
 0001:000090b9       ?log_output_bits@@YAXXZ    0040a0b9 f   ft2.obj
 0001:0000916d       _$E385                     0040a16d f   ft2.obj
 0001:00009177       _$E391                     0040a177 f   ft2.obj
 0001:00009181       _$E390                     0040a181 f   ft2.obj
 0001:0000918b       _$E389                     0040a18b f   ft2.obj
 0001:00009196       _$E388                     0040a196 f   ft2.obj
 0001:000091a0       _$E387                     0040a1a0 f   ft2.obj
 0001:000091aa       ?send_channel_mode_command@@YAHXZ 0040a1aa f   ft2.obj
 0001:00009227       ?save_channel_mode@@YAXH@Z 0040a227 f   ft2.obj
 0001:000092a0       ?toggle_io_display@@YAXXZ  0040a2a0 f   ft2.obj
 0001:000093fe       ?send_zero_message_to_board@@YAXXZ 0040a3fe f   ft2.obj
 0001:00009423       ?do_updown@@YAXH@Z         0040a423 f   ft2.obj
 0001:000094cb       ?send_channel_mode_command@@YAXH@Z 0040a4cb f   ft2.obj
 0001:00009575       ?size_output_list_dialog@@YAXXZ 0040a575 f   ft2.obj
 0001:00009666       ?send_data_server_shot_notification@@YAXPAD0@Z 0040a666 f   ft2.obj
 0001:000096d3       _$E393                     0040a6d3 f   ft2.obj
 0001:000097a1       ?set_gray_menu_items@@YAXXZ 0040a7a1 f   ft2.obj
 0001:0000987b       ?show_buttons@@YAXXZ       0040a87b f   ft2.obj
 0001:000098da       ?load_main_menu@@YAXXZ     0040a8da f   ft2.obj
 0001:00009cdd       ?clear_current_value_copies@@YAXXZ 0040acdd f   ft2.obj
 0001:00009d0a       ?toggle_logging_sent_commands@@YAXXZ 0040ad0a f   ft2.obj
 0001:00009d8f       ?output_list_update@@YAXXZ 0040ad8f f   ft2.obj
 0001:00009fee       ?need_connected_brush@@YAPAUHBRUSH__@@PAUHWND__@@@Z 0040afee f   ft2.obj
 0001:0000a02f       ?need_monitor_brush@@YAPAUHBRUSH__@@PAUHWND__@@@Z 0040b02f f   ft2.obj
 0001:0000a0ff       ?exit_main_proc@@YAXXZ     0040b0ff f   ft2.obj
 0001:0000a6eb       ?do_new_rt_data@@YAXIJ@Z   0040b6eb f   ft2.obj
 0001:0000a7cd       ?get_ascii_rt_data@@YAXJ@Z 0040b7cd f   ft2.obj
 0001:0000aa8a       ?showbits@@YAPADPADI@Z     0040ba8a f   ft2.obj
 0001:0000ab22       ?do_config_word@@YAXPAD@Z  0040bb22 f   ft2.obj
 0001:0000ab7c       ?ultohexstring@@YAPADPADI@Z 0040bb7c f   ft2.obj
 0001:0000abd0       ?should_be_hex@@YAEPAD0@Z  0040bbd0 f   ft2.obj
 0001:0000ac79       _$E371                     0040bc79 f   ft2.obj
 0001:0000ac83       ?copy_analog@@YAXHG@Z      0040bc83 f   ft2.obj
 0001:0000ac98       ?create_controls@@YAXH@Z   0040bc98 f   ft2.obj
 0001:0000b535       ?do_new_ft2_connect_state@@YAXIJ@Z 0040c535 f   ft2.obj
 0001:0000b61b       ?show_upload_aborted_dialog@@YAXH@Z 0040c61b f   ft2.obj
 0001:0000b6da       ?remote_shutdown@@YAXXZ    0040c6da f   ft2.obj
 0001:0000b7ab       ?create_diagnostic_dialogs@@YAXXZ 0040c7ab f   ft2.obj
 0001:0000b875       ?start_null_dialog@@YAXXZ  0040c875 f   ft2.obj
 0001:0000b8aa       ?start_set_dac_dialog@@YAXXZ 0040c8aa f   ft2.obj
 0001:0000b8df       ?start_valve_test_dialog@@YAXXZ 0040c8df f   ft2.obj
 0001:0000b914       ?start_alarm_test_dialog@@YAXXZ 0040c914 f   ft2.obj
 0001:0000b949       ?send_data_server_down_notification@@YAXPAD@Z 0040c949 f   ft2.obj
 0001:0000b99c       ?position_main_window@@YAXXZ 0040c99c f   ft2.obj
 0001:0000bab1       ?nof_ft2_boards@@YAHXZ     0040cab1 f   ft2.obj
 0001:0000c0ec       ?get_history_length@@YAXXZ 0040d0ec f   ft2.obj
 0001:0000c16f       ?check_disk_free_space@@YAXXZ 0040d16f f   ft2.obj
 0001:0000c197       ?check_for_workstation@@YAXXZ 0040d197 f   ft2.obj
 0001:0000c1e8       ?load_resources@@YAXXZ     0040d1e8 f   ft2.obj
 0001:0000c4c3       ?shutdown@@YAXXZ           0040d4c3 f   ft2.obj
 0001:0002332b       ?wait_for_key@@YAXXZ       0042432b f   v5subs:error_ms.obj
 0001:00023343       ?add_string@@YAXPAD@Z      00424343 f   v5subs:error_ms.obj
 0001:00023385       ?add_err_number@@YAXPADF@Z 00424385 f   v5subs:error_ms.obj
 0001:0002326e       _$E5                       0042426e f   v5subs:semaphor.obj
 0001:00023278       _$E2                       00424278 f   v5subs:semaphor.obj
 0001:00023282       _$E4                       00424282 f   v5subs:semaphor.obj
 0001:0002328e       _$E3                       0042428e f   v5subs:semaphor.obj
 0001:00022eb6       ?comma_count@@YAHPAD@Z     00423eb6 f   v5subs:ftanalog.obj
 0001:0002124d       ?downstate@@YAHPAD0@Z      0042224d f   v5subs:dstat.obj
 0001:000209d6       _$E5                       004219d6 f   v5subs:runlist.obj
 0001:000209e0       _$E2                       004219e0 f   v5subs:runlist.obj
 0001:000209f2       _$E4                       004219f2 f   v5subs:runlist.obj
 0001:000209fe       _$E3                       004219fe f   v5subs:runlist.obj
 0001:00020536       ?shift_index@@YAFABU_SYSTEMTIME@@@Z 00421536 f   v5subs:shift.obj
 0001:000205a3       ?add_seconds_to_systemtime@@YAEAAU_SYSTEMTIME@@J@Z 004215a3 f   v5subs:shift.obj
 0001:0002064f       ?tomorrow@@YAFF@Z          0042164f f   v5subs:shift.obj
 0001:0002065d       ?yeasterday@@YAFF@Z        0042165d f   v5subs:shift.obj
 0001:000207f2       ?shift_from_rec@@YAXPAFFAAVDB_TABLE@@@Z 004217f2 f   v5subs:shift.obj
 0001:000202dc       ?reload_dcurves@@YAEXZ     004212dc f   v5subs:dcurve.obj
 0001:000203f3       ?cleanup_dcurves@@YAXXZ    004213f3 f   v5subs:dcurve.obj
 0001:0001fc73       _$E4                       00420c73 f   v5subs:optocontrol.obj
 0001:0001fc7d       _$E1                       00420c7d f   v5subs:optocontrol.obj
 0001:0001fc87       _$E3                       00420c87 f   v5subs:optocontrol.obj
 0001:0001fc93       _$E2                       00420c93 f   v5subs:optocontrol.obj
 0001:0001fd74       ?create_my_font@@YAXXZ     00420d74 f   v5subs:optocontrol.obj
 0001:0001feaf       ?paint_me@@YAXPAUHWND__@@J@Z 00420eaf f   v5subs:optocontrol.obj
 0001:0002010f       ?paint_background@@YAXPAUHWND__@@PAUHDC__@@@Z 0042110f f   v5subs:optocontrol.obj
 0001:00020145       ?send_click_message_to_parent@@YAXPAUHWND__@@J@Z 00421145 f   v5subs:optocontrol.obj
 0001:0001f7ca       ?trim_text@@YAFPADF@Z      004207ca f   v5subs:dbsubs.obj
 0001:0001f861       ?fieldlength@@YAFPBD@Z     00420861 f   v5subs:dbsubs.obj
 0001:0001f916       ?add_field_delimiter@@YAXPAD@Z 00420916 f   v5subs:dbsubs.obj
 0001:0001e495       _$E5                       0041f495 f   v5subs:client.obj
 0001:0001e49f       _$E2                       0041f49f f   v5subs:client.obj
 0001:0001e4b1       _$E4                       0041f4b1 f   v5subs:client.obj
 0001:0001e4bd       _$E3                       0041f4bd f   v5subs:client.obj
 0001:0001e5b3       ?item_index@@YAFPAD@Z      0041f5b3 f   v5subs:client.obj
 0001:0001e801       _$E9                       0041f801 f   v5subs:client.obj
 0001:0001e80b       _$E8                       0041f80b f   v5subs:client.obj
 0001:0001e984       ?item_index@@YAHPAUHSZ__@@@Z 0041f984 f   v5subs:client.obj
 0001:0001e9fd       ?find_event_topic@@YAPAUEVENT_ENTRY@@PAD@Z 0041f9fd f   v5subs:client.obj
 0001:0001ea65       ?find_existing_event_topic@@YAPAUEVENT_ENTRY@@PAD@Z 0041fa65 f   v5subs:client.obj
 0001:0001eaab       ?find_event_item@@YAPAUEVENT_ITEM_ENTRY@@PAUEVENT_ENTRY@@FP6AXPADFPAUHDDEDATA__@@@Z@Z 0041faab f   v5subs:client.obj
 0001:0001eaff       ?find_existing_event_item@@YAPAUEVENT_ITEM_ENTRY@@PAUEVENT_ENTRY@@F@Z 0041faff f   v5subs:client.obj
 0001:0001df4e       _$E5                       0041ef4e f   v5subs:gexedir.obj
 0001:0001df58       _$E2                       0041ef58 f   v5subs:gexedir.obj
 0001:0001df62       _$E4                       0041ef62 f   v5subs:gexedir.obj
 0001:0001df6e       _$E3                       0041ef6e f   v5subs:gexedir.obj
 0001:0001df9c       ?get_static_exe_directory@@YAXXZ 0041ef9c f   v5subs:gexedir.obj
 0001:0001d679       ?numberlen@@YAFPBD@Z       0041e679 f   v5subs:extract.obj
 0001:0001d20e       _$E5                       0041e20e f   v5subs:computer.obj
 0001:0001d218       _$E2                       0041e218 f   v5subs:computer.obj
 0001:0001d222       _$E4                       0041e222 f   v5subs:computer.obj
 0001:0001d22e       _$E3                       0041e22e f   v5subs:computer.obj
 0001:0001d238       _$E10                      0041e238 f   v5subs:computer.obj
 0001:0001d242       _$E7                       0041e242 f   v5subs:computer.obj
 0001:0001d24c       _$E9                       0041e24c f   v5subs:computer.obj
 0001:0001d258       _$E8                       0041e258 f   v5subs:computer.obj
 0001:0001d028       _$E5                       0041e028 f   v5subs:machname.obj
 0001:0001d032       _$E2                       0041e032 f   v5subs:machname.obj
 0001:0001d03c       _$E4                       0041e03c f   v5subs:machname.obj
 0001:0001d048       _$E3                       0041e048 f   v5subs:machname.obj
 0001:0001c685       _$E5                       0041d685 f   v5subs:setpoint.obj
 0001:0001c68f       _$E2                       0041d68f f   v5subs:setpoint.obj
 0001:0001c6a3       _$E4                       0041d6a3 f   v5subs:setpoint.obj
 0001:0001c6af       _$E3                       0041d6af f   v5subs:setpoint.obj
 0001:0001c1b5       ?file_type@@YAHPAD@Z       0041d1b5 f   v5subs:exists.obj
 0001:0001be44       ?paint_temp_message@@YAXXZ 0041ce44 f   v5subs:temp_message.obj
 0001:0001becb       ?position_temp_message@@YAXPAUHWND__@@@Z 0041cecb f   v5subs:temp_message.obj
 0001:0001bd1b       ?units_index@@YAFF@Z       0041cd1b f   v5subs:units.obj
 0001:0001ba35       ?create_entry@@YAPAUGENERIC_LIST_ENTRY@@PAX@Z 0041ca35 f   v5subs:genlist.obj
 0001:0001b223       ?leap_index@@YAHH@Z        0041c223 f   v5subs:timeclas.obj
 0001:0001b386       ?init_systemtime@@YAXAAU_SYSTEMTIME@@@Z 0041c386 f   v5subs:timeclas.obj
 0001:0001addf       _$E5                       0041bddf f   v5subs:nameclas.obj
 0001:0001ade9       _$E2                       0041bde9 f   v5subs:nameclas.obj
 0001:0001adf3       _$E4                       0041bdf3 f   v5subs:nameclas.obj
 0001:0001adff       _$E3                       0041bdff f   v5subs:nameclas.obj
 0001:0001ae09       _$E8                       0041be09 f   v5subs:nameclas.obj
 0001:0001ae0e       _$E7                       0041be0e f   v5subs:nameclas.obj
 0001:0001a6fa       ?ftoasc@@YAXPADNH@Z        0041b6fa f   v5subs:ftoasc.obj
 0001:00019615       ?variable_number@@YAHPBD@Z 0041a615 f   v5subs:ftiiclas.obj
 0001:0001921f       ?long_from_text@@YAJPBD@Z  0041a21f f   v5subs:fontclas.obj
 0001:00019270       ?goto_next_string@@YAPADPAD@Z 0041a270 f   v5subs:fontclas.obj
 0001:00018952       _$E5                       00419952 f   v5subs:stringtable.obj
 0001:0001895c       _$E2                       0041995c f   v5subs:stringtable.obj
 0001:00018966       _$E4                       00419966 f   v5subs:stringtable.obj
 0001:00018972       _$E3                       00419972 f   v5subs:stringtable.obj
 0001:00018ce6       ?strip_whitespace_from_eol@@YAXPAD@Z 00419ce6 f   v5subs:stringtable.obj
 0001:00017353       _$E5                       00418353 f   v5subs:menuctrl.obj
 0001:0001735d       _$E2                       0041835d f   v5subs:menuctrl.obj
 0001:00017367       _$E4                       00418367 f   v5subs:menuctrl.obj
 0001:00017373       _$E3                       00418373 f   v5subs:menuctrl.obj
 0001:00017982       ?do_nothing_paint_me@@YAXPAUHWND__@@@Z 00418982 f   v5subs:menuctrl.obj
 0001:00018870       ?get_current_colors@@YAXPAD@Z 00419870 f   v5subs:menuctrl.obj
 0001:00018917       ?passwordlevel@@YAHPAD@Z   00419917 f   v5subs:menuctrl.obj
 0001:0001638f       ?extract_channel_from_analog@@YAHG@Z 0041738f f   v5subs:ftii_shot_data.obj
 0001:0001539a       _$E5                       0041639a f   v5subs:asensor.obj
 0001:000153a4       _$E2                       004163a4 f   v5subs:asensor.obj
 0001:000153ae       _$E4                       004163ae f   v5subs:asensor.obj
 0001:000153ba       _$E3                       004163ba f   v5subs:asensor.obj
 0001:000156fa       ?kill_sensor_array@@YAXXZ  004166fa f   v5subs:asensor.obj
 0001:000295b5       _strncnt                   0042a5b5 f   LIBCMT:a_map.obj
 0001:00028e28       _getSystemCP               00429e28 f   LIBCMT:mbctype.obj
 0001:00028e72       _CPtoLCID                  00429e72 f   LIBCMT:mbctype.obj
 0001:00028ea5       _setSBCS                   00429ea5 f   LIBCMT:mbctype.obj
 0001:00028ece       _setSBUpLow                00429ece f   LIBCMT:mbctype.obj
 0001:00028c4a       _x_ismbbtype               00429c4a f   LIBCMT:ismbbyte.obj
 0001:00028374       __abstract_cw              00429374 f   LIBCMT:ieee87.obj
 0001:00028406       __hw_cw                    00429406 f   LIBCMT:ieee87.obj
 0001:00026b6c       __get_fname                00427b6c f   LIBCMT:fpexcept.obj
 0001:00025d06       _parse_cmdline             00426d06 f   LIBCMT:stdargv.obj
 0001:000259a4       _gu_return                 004269a4 f   LIBCMT:exsup.obj
 0001:000259ac       __unwind_handler           004269ac f   LIBCMT:exsup.obj
 0001:00025952       _xcptlookup                00426952 f   LIBCMT:winxfltr.obj
 0001:0002521d       __cftoe2                   0042621d f   LIBCMT:cvt.obj
 0001:00025334       __cftof2                   00426334 f   LIBCMT:cvt.obj
 0001:000254bf       __shift                    004264bf f   LIBCMT:cvt.obj
 0001:00024a1d       _doexit                    00425a1d f   LIBCMT:crt0dat.obj
 0001:00024ad4       __initterm                 00425ad4 f   LIBCMT:crt0dat.obj
 0001:00024620       LeadUp1                    00425620 f   LIBCMT:memmove.obj
 0001:0002464c       LeadUp2                    0042564c f   LIBCMT:memmove.obj
 0001:00024670       LeadUp3                    00425670 f   LIBCMT:memmove.obj
 0001:000246ef       UnwindUp0                  004256ef f   LIBCMT:memmove.obj
 0001:000246dc       UnwindUp1                  004256dc f   LIBCMT:memmove.obj
 0001:000246d4       UnwindUp2                  004256d4 f   LIBCMT:memmove.obj
 0001:000246cc       UnwindUp3                  004256cc f   LIBCMT:memmove.obj
 0001:000246c4       UnwindUp4                  004256c4 f   LIBCMT:memmove.obj
 0001:000246bc       UnwindUp5                  004256bc f   LIBCMT:memmove.obj
 0001:000246b4       UnwindUp6                  004256b4 f   LIBCMT:memmove.obj
 0001:000246ac       UnwindUp7                  004256ac f   LIBCMT:memmove.obj
 0001:00024708       TrailUp0                   00425708 f   LIBCMT:memmove.obj
 0001:00024710       TrailUp1                   00425710 f   LIBCMT:memmove.obj
 0001:0002471c       TrailUp2                   0042571c f   LIBCMT:memmove.obj
 0001:00024730       TrailUp3                   00425730 f   LIBCMT:memmove.obj
 0001:000247a8       LeadDown1                  004257a8 f   LIBCMT:memmove.obj
 0001:000247c8       LeadDown2                  004257c8 f   LIBCMT:memmove.obj
 0001:000247f0       LeadDown3                  004257f0 f   LIBCMT:memmove.obj
 0001:00024844       UnwindDown7                00425844 f   LIBCMT:memmove.obj
 0001:0002484c       UnwindDown6                0042584c f   LIBCMT:memmove.obj
 0001:00024854       UnwindDown5                00425854 f   LIBCMT:memmove.obj
 0001:0002485c       UnwindDown4                0042585c f   LIBCMT:memmove.obj
 0001:00024864       UnwindDown3                00425864 f   LIBCMT:memmove.obj
 0001:0002486c       UnwindDown2                0042586c f   LIBCMT:memmove.obj
 0001:00024874       UnwindDown1                00425874 f   LIBCMT:memmove.obj
 0001:00024887       UnwindDown0                00425887 f   LIBCMT:memmove.obj
 0001:000248a0       TrailDown0                 004258a0 f   LIBCMT:memmove.obj
 0001:000248a8       TrailDown1                 004258a8 f   LIBCMT:memmove.obj
 0001:000248b8       TrailDown2                 004258b8 f   LIBCMT:memmove.obj
 0001:000248cc       TrailDown3                 004258cc f   LIBCMT:memmove.obj
 0001:000242e9       _strtoxl                   004252e9 f   LIBCMT:strtol.obj
 0001:00023fcb       _fast_error_exit           00424fcb f   LIBCMT:wincrt0.obj
 0001:00023dcc       __threadstart@4            00424dcc f   LIBCMT:thread.obj
 0001:00023a90       LeadUp1                    00424a90 f   LIBCMT:memcpy.obj
 0001:00023abc       LeadUp2                    00424abc f   LIBCMT:memcpy.obj
 0001:00023ae0       LeadUp3                    00424ae0 f   LIBCMT:memcpy.obj
 0001:00023b5f       UnwindUp0                  00424b5f f   LIBCMT:memcpy.obj
 0001:00023b4c       UnwindUp1                  00424b4c f   LIBCMT:memcpy.obj
 0001:00023b44       UnwindUp2                  00424b44 f   LIBCMT:memcpy.obj
 0001:00023b3c       UnwindUp3                  00424b3c f   LIBCMT:memcpy.obj
 0001:00023b34       UnwindUp4                  00424b34 f   LIBCMT:memcpy.obj
 0001:00023b2c       UnwindUp5                  00424b2c f   LIBCMT:memcpy.obj
 0001:00023b24       UnwindUp6                  00424b24 f   LIBCMT:memcpy.obj
 0001:00023b1c       UnwindUp7                  00424b1c f   LIBCMT:memcpy.obj
 0001:00023b78       TrailUp0                   00424b78 f   LIBCMT:memcpy.obj
 0001:00023b80       TrailUp1                   00424b80 f   LIBCMT:memcpy.obj
 0001:00023b8c       TrailUp2                   00424b8c f   LIBCMT:memcpy.obj
 0001:00023ba0       TrailUp3                   00424ba0 f   LIBCMT:memcpy.obj
 0001:00023c18       LeadDown1                  00424c18 f   LIBCMT:memcpy.obj
 0001:00023c38       LeadDown2                  00424c38 f   LIBCMT:memcpy.obj
 0001:00023c60       LeadDown3                  00424c60 f   LIBCMT:memcpy.obj
 0001:00023cb4       UnwindDown7                00424cb4 f   LIBCMT:memcpy.obj
 0001:00023cbc       UnwindDown6                00424cbc f   LIBCMT:memcpy.obj
 0001:00023cc4       UnwindDown5                00424cc4 f   LIBCMT:memcpy.obj
 0001:00023ccc       UnwindDown4                00424ccc f   LIBCMT:memcpy.obj
 0001:00023cd4       UnwindDown3                00424cd4 f   LIBCMT:memcpy.obj
 0001:00023cdc       UnwindDown2                00424cdc f   LIBCMT:memcpy.obj
 0001:00023ce4       UnwindDown1                00424ce4 f   LIBCMT:memcpy.obj
 0001:00023cf7       UnwindDown0                00424cf7 f   LIBCMT:memcpy.obj
 0001:00023d10       TrailDown0                 00424d10 f   LIBCMT:memcpy.obj
 0001:00023d18       TrailDown1                 00424d18 f   LIBCMT:memcpy.obj
 0001:00023d28       TrailDown2                 00424d28 f   LIBCMT:memcpy.obj
 0001:00023d3c       TrailDown3                 00424d3c f   LIBCMT:memcpy.obj

 300 bytes saved through ICF

