 ft2

 Timestamp is 68232f47 (Tue May 13 07:38:47 2025)

 Preferred load address is 00400000

 Start         Length     Name                   Class
 0001:00000000 00000913H .text$di                CODE
 0001:00000920 0003c618H .text$mn                CODE
 0001:0003cf38 0000061cH .text$yd                CODE
 0002:00000000 00000390H .idata$5                DATA
 0002:00000390 00000004H .CRT$XCA                DATA
 0002:00000394 000001d4H .CRT$XCU                DATA
 0002:00000568 00000004H .CRT$XCZ                DATA
 0002:0000056c 00000004H .CRT$XIA                DATA
 0002:00000570 00000014H .CRT$XIC                DATA
 0002:00000584 00000004H .CRT$XIY                DATA
 0002:00000588 00000004H .CRT$XIZ                DATA
 0002:0000058c 00000004H .CRT$XPA                DATA
 0002:00000590 00000008H .CRT$XPX                DATA
 0002:00000598 00000004H .CRT$XPXA               DATA
 0002:0000059c 00000004H .CRT$XPZ                DATA
 0002:000005a0 00000004H .CRT$XTA                DATA
 0002:000005a4 00000004H .CRT$XTZ                DATA
 0002:000005b0 00007588H .rdata                  DATA
 0002:00007b38 00000294H .rdata$r                DATA
 0002:00007dd0 0000000cH .rdata$sxdata           DATA
 0002:00007ddc 00000004H .rtc$IAA                DATA
 0002:00007de0 00000004H .rtc$IZZ                DATA
 0002:00007de4 00000004H .rtc$TAA                DATA
 0002:00007de8 00000004H .rtc$TZZ                DATA
 0002:00007df0 0000036cH .xdata$x                DATA
 0002:0000815c 00000000H .edata                  DATA
 0002:0000815c 00000078H .idata$2                DATA
 0002:000081d4 00000014H .idata$3                DATA
 0002:000081e8 00000390H .idata$4                DATA
 0002:00008578 00000e24H .idata$6                DATA
 0003:00000000 00003504H .data                   DATA
 0003:00003504 00000104H .data$r                 DATA
 0003:00003620 0000a600H .bss                    DATA
 0004:00000000 00000a94H .rsrc$01                DATA
 0004:00000aa0 000062c0H .rsrc$02                DATA

  Address         Publics by Value              Rva+Base       Lib:Object

 0000:00000000       __except_list              00000000     <absolute>
 0000:00000000       ___guard_flags             00000000     <absolute>
 0000:00000000       ___guard_fids_table        00000000     <absolute>
 0000:00000000       ___guard_fids_count        00000000     <absolute>
 0000:00000003       ___safe_se_handler_count   00000003     <absolute>
 0000:00000000       ___ImageBase               00400000     <linker-defined>
 0001:00000920       ??0BIT_CONTROL@@QAE@XZ     00401920 f i ft2.obj
 0001:00000941       ??0DOWN_DATA_CLASS@@QAE@ABV0@@Z 00401941 f i ft2.obj
 0001:000009a9       ??0EXTERNAL_PARAMETER_FILE_CLASS@@QAE@XZ 004019a9 f   ft2.obj
 0001:000009c3       ??1EXTERNAL_PARAMETER_FILE_CLASS@@QAE@XZ 004019c3 f   ft2.obj
 0001:000009d7       ??1MACHINE_CLASS@@QAE@XZ   004019d7 f i ft2.obj
 0001:00000a36       ??1PARAMETER_CLASS@@QAE@XZ 00401a36 f i ft2.obj
 0001:00000a6b       ??1PARAMETER_ENTRY@@QAE@XZ 00401a6b f i ft2.obj
 0001:00000a95       ??4EXTERNAL_PARAMETER_FILE_CLASS@@QAEXABV0@@Z 00401a95 f   ft2.obj
 0001:00000abe       ??4FTII_VAR@@UAEXABV0@@Z   00401abe f i ft2.obj
 0001:00000ad1       ??4FTII_VAR@@UAEXH@Z       00401ad1 f i ft2.obj
 0001:00000ad1       ??4FTII_VAR@@UAEXI@Z       00401ad1 f i ft2.obj
 0001:00000adb       ??_EEXTERNAL_PARAMETER_FILE_CLASS@@QAEPAXI@Z 00401adb f i ft2.obj
 0001:00000b30       ??_GFTII_VAR_ARRAY@@UAEPAXI@Z 00401b30 f i ft2.obj
 0001:00000b30       ??_EFTII_VAR_ARRAY@@UAEPAXI@Z 00401b30 f i ft2.obj
 0001:00000cc7       ?alt_step_text@@YAPADXZ    00401cc7 f   ft2.obj
 0001:00000e68       ?ascii_volts_to_ft2_volts@@YAPADPAD@Z 00401e68 f   ft2.obj
 0001:00000f0c       ?begin_checking_for_external_parameter_file@@YAXPAD@Z 00401f0c f   ft2.obj
 0001:00001015       ?canexit@@YA_NXZ           00402015 f   ft2.obj
 0001:00001395       ?choose_monitor_machine_dialog_proc@@YGHPAUHWND__@@IIJ@Z 00402395 f   ft2.obj
 0001:000013ff       ?compare_variables_dialog_proc@@YGHPAUHWND__@@IIJ@Z 004023ff f   ft2.obj
 0001:000015a5       ?control_mods_dialog_proc@@YGHPAUHWND__@@IIJ@Z 004025a5 f   ft2.obj
 0001:00002870       ?current_lvdt_feedback_index@@YAHH@Z 00403870 f   ft2.obj
 0001:0000288f       ?current_measured_command_index@@YAIH@Z 0040388f f   ft2.obj
 0001:000028ae       ?current_values_dialog_proc@@YGHPAUHWND__@@IIJ@Z 004038ae f   ft2.obj
 0001:00002cc8       ?deactivate_control_dialog_proc@@YGHPAUHWND__@@IIJ@Z 00403cc8 f   ft2.obj
 0001:00002d20       ?delete_file@NAME_CLASS@@QAEEXZ 00403d20 f i ft2.obj
 0001:0000488e       ?do_new_set_null_ascii_data@@YAXJ@Z 0040588e f   ft2.obj
 0001:00004bc2       ?edit_control_proc@@YGJPAUHWND__@@IIJ@Z 00405bc2 f   ft2.obj
 0001:00004d39       ?end_upload_flash_dialog@@YAXXZ 00405d39 f   ft2.obj
 0001:00004e0d       ?fatal_error_string@@YAPADH@Z 00405e0d f   ft2.obj
 0001:00004e42       ?file_exists@NAME_CLASS@@QAEEXZ 00405e42 f i ft2.obj
 0001:0000540d       ?ft2_control_program_name@@YAPADHAAVMACHINE_CLASS@@@Z 0040640d f   ft2.obj
 0001:0000546c       ?ft2_test_dialog_proc@@YGHPAUHWND__@@IIJ@Z 0040646c f   ft2.obj
 0001:000054c4       ?ft2_volts_toascii@@YAPADPAD@Z 004064c4 f   ft2.obj
 0001:00005b1a       ?get_help@@YAXXZ           00406b1a f   ft2.obj
 0001:00005bb5       ?get_hires_sensor_test_config@@YAXPAUHWND__@@@Z 00406bb5 f   ft2.obj
 0001:00005d45       ?get_profile_ii_name@NAME_CLASS@@QAEEAAVSTRING_CLASS@@000@Z 00406d45 f i ft2.obj
 0001:00005d8f       ?global_parameter_dialog_proc@@YGHPAUHWND__@@IIJ@Z 00406d8f f   ft2.obj
 0001:00005e95       ?hires_sensor_test_dialog_proc@@YGHPAUHWND__@@IIJ@Z 00406e95 f   ft2.obj
 0001:00006089       ?init@@YAEH@Z              00407089 f   ft2.obj
 0001:00006e38       ?kill_log_file@@YAXXZ      00407e38 f   ft2.obj
 0001:00007589       ?load_one_machine_only@@YAXPAUHWND__@@@Z 00408589 f   ft2.obj
 0001:000077f4       ?log_als_file@@YAXAAVSTRING_CLASS@@@Z 004087f4 f   ft2.obj
 0001:000079b8       ?main_proc@@YGJPAUHWND__@@IIJ@Z 004089b8 f   ft2.obj
 0001:0000821c       ?need_brush@@YA_NPAUHWND__@@@Z 0040921c f   ft2.obj
 0001:00008341       ?new_downtime_callback@@YAXPADFPAUHDDEDATA__@@@Z 00409341 f   ft2.obj
 0001:0000839f       ?new_monitor_setup_callback@@YAXPADFPAUHDDEDATA__@@@Z 0040939f f   ft2.obj
 0001:0000862b       ?output_list_dialog_proc@@YGHPAUHWND__@@IIJ@Z 0040962b f   ft2.obj
 0001:00008ae8       ?password_level_callback@@YAXPADFPAUHDDEDATA__@@@Z 00409ae8 f   ft2.obj
 0001:00008c34       ?plot_min_callback@@YAXPADFPAUHDDEDATA__@@@Z 00409c34 f   ft2.obj
 0001:00008eac       ?poke_newshot_message@@YAXIJ@Z 00409eac f   ft2.obj
 0001:000092c2       ?push_log_message@@YAXPAD@Z 0040a2c2 f   ft2.obj
 0001:00009376       ?put_hires_sensor_test_config@@YAXPAUHWND__@@@Z 0040a376 f   ft2.obj
 0001:00009747       ?release_dc@WINDOW_CLASS@@QAEHPAUHDC__@@@Z 0040a747 f i ft2.obj
 0001:00009837       ?resource_message_box@@YAXII@Z 0040a837 f   ft2.obj
 0001:000098a2       ?resource_string@@YA_NAAVSTRING_CLASS@@I@Z 0040a8a2 f   ft2.obj
 0001:0000afd3       ?send_lvdt_offset_to_board@@YA_NXZ 0040bfd3 f   ft2.obj
 0001:0000b134       ?send_null_offset_to_board@@YA_NXZ 0040c134 f   ft2.obj
 0001:0000b1f5       ?send_output_bits_to_current_machine@@YAXIE@Z 0040c1f5 f   ft2.obj
 0001:0000b247       ?send_set_dac_command@@YAXH@Z 0040c247 f   ft2.obj
 0001:0000bb07       ?set_control_y@@YAXHI@Z    0040cb07 f   ft2.obj
 0001:0000c228       ?set_dac_dialog_proc@@YGHPAUHWND__@@IIJ@Z 0040d228 f   ft2.obj
 0001:0000c657       ?set_null_dialog_proc@@YGHPAUHWND__@@IIJ@Z 0040d657 f   ft2.obj
 0001:0000ce24       ?shutdown_status_dialog_proc@@YGHPAUHWND__@@IIJ@Z 0040de24 f   ft2.obj
 0001:0000d170       ?start_if_ok_to_deactivate@@YAXAAVWINDOW_CLASS@@@Z 0040e170 f   ft2.obj
 0001:0000d197       ?status_proc@@YGJPAUHWND__@@IIJ@Z 0040e197 f   ft2.obj
 0001:0000d525       ?stop_checking_for_external_parameter_file@@YAXPAD@Z 0040e525 f   ft2.obj
 0001:0000d696       ?terminal_proc@@YGJPAUHWND__@@IIJ@Z 0040e696 f   ft2.obj
 0001:0000d796       ?test_alarm_outputs_dialog_proc@@YGHPAUHWND__@@IIJ@Z 0040e796 f   ft2.obj
 0001:0000dac1       ?toggle_save_shot_name_files@@YAXXZ 0040eac1 f   ft2.obj
 0001:0000dd2e       ?update_optos@@YAXII@Z     0040ed2e f   ft2.obj
 0001:0000de40       ?upload_aborted_dialog_proc@@YGHPAUHWND__@@IIJ@Z 0040ee40 f   ft2.obj
 0001:0000df1f       ?upload_flash_dialog_proc@@YGHPAUHWND__@@IIJ@Z 0040ef1f f   ft2.obj
 0001:0000df5a       ?valve_test_dialog_proc@@YGHPAUHWND__@@IIJ@Z 0040ef5a f   ft2.obj
 0001:0000e18b       ?warning_error_string@@YAPADH@Z 0040f18b f   ft2.obj
 0001:0000e2b3       _WinMain@16                0040f2b3 f   ft2.obj
 0001:0000e4a3       ??0DSTAT_CLASS@@QAE@XZ     0040f4a3 f i board_monitor.obj
 0001:0000e4c4       ??0FTANALOG_CLASS@@QAE@XZ  0040f4c4 f i board_monitor.obj
 0001:0000e4e1       ??0FTII_BOARD_ENTRY@@QAE@XZ 0040f4e1 f   board_monitor.obj
 0001:0000e652       ??1BOARD_EXTENDED_ANALOG_ARRAY@@QAE@XZ 0040f652 f   board_monitor.obj
 0001:0000e652       ?clear@BOARD_EXTENDED_ANALOG_ARRAY@@QAEXXZ 0040f652 f   board_monitor.obj
 0001:0000e66d       ??1FTANALOG_CLASS@@QAE@XZ  0040f66d f i board_monitor.obj
 0001:0000e688       ??1FTCALC_CLASS@@QAE@XZ    0040f688 f i board_monitor.obj
 0001:0000e6c9       ??1FTII_BOARD_ENTRY@@QAE@XZ 0040f6c9 f   board_monitor.obj
 0001:0000e77e       ??ABOARD_EXTENDED_ANALOG_ARRAY@@QAEAAUBOARD_EXTENDED_ANALOG_ENTRY@@H@Z 0040f77e f   board_monitor.obj
 0001:0000e7d1       ??_EFTII_BOARD_ENTRY@@QAEPAXI@Z 0040f7d1 f i board_monitor.obj
 0001:0000e82c       ?AutoShotDisplayProc@@YGHPAUHWND__@@IIJ@Z 0040f82c f   board_monitor.obj
 0001:0000e8f1       ?add_binary_to_shotdata@FTII_BOARD_ENTRY@@QAEXXZ 0040f8f1 f   board_monitor.obj
 0001:0000e9ad       ?append_downtime_record@@YAEAAVSTRING_CLASS@@00AAU_SYSTEMTIME@@PAD2@Z 0040f9ad f   board_monitor.obj
 0001:0000ea89       ?begin_monitoring@@YA_NXZ  0040fa89 f   board_monitor.obj
 0001:0000edda       ?check_external_alarms@@YAXAAVSTRING_CLASS@@PAN@Z 0040fdda f   board_monitor.obj
 0001:0000f266       ?check_for_down@@YAXXZ     00410266 f   board_monitor.obj
 0001:0000f540       ?check_for_extended_channel_value@FTII_BOARD_ENTRY@@QAEXPAD@Z 00410540 f   board_monitor.obj
 0001:0000f815       ?check_inputs@FTII_BOARD_ENTRY@@QAEXPAD@Z 00410815 f   board_monitor.obj
 0001:0000fb68       ?cleanup@STDDOWN_CLASS@@QAEXXZ 00410b68 f i board_monitor.obj
 0001:0000fb84       ?clear_all_alarm_bits@FTII_BOARD_ENTRY@@QAEXXZ 00410b84 f   board_monitor.obj
 0001:0000fb9b       ?clearwire@FTII_BOARD_ENTRY@@QAEXH@Z 00410b9b f   board_monitor.obj
 0001:0000ff6a       ?convert_io_change_to_ascii@@YAXHPAUSOCKET_MESSAGE@@@Z 00410f6a f   board_monitor.obj
 0001:0000ffc8       ?current_board_index@@YAHXZ 00410fc8 f   board_monitor.obj
 0001:0000ffd4       ?current_board_number@@YAHXZ 00410fd4 f   board_monitor.obj
 0001:0000fff0       ?current_channel_mode@@YAHXZ 00410ff0 f   board_monitor.obj
 0001:00010019       ?current_operator@@YAPADAAVSTRING_CLASS@@0@Z 00411019 f   board_monitor.obj
 0001:000100a5       ?current_upload_file_name@@YAPADXZ 004110a5 f   board_monitor.obj
 0001:000100cf       ?current_version@@YAHXZ    004110cf f   board_monitor.obj
 0001:000100ec       ?current_version_string@@YAPADXZ 004110ec f   board_monitor.obj
 0001:000103ae       ?display_board_info@@YAXXZ 004113ae f   board_monitor.obj
 0001:00010bbd       ?get_alarm_bits@FTII_BOARD_ENTRY@@QAEXXZ 00411bbd f   board_monitor.obj
 0001:00010c65       ?get_channel_mode@@YAXHPAD@Z 00411c65 f   board_monitor.obj
 0001:00010d01       ?get_config_word@FTII_BOARD_ENTRY@@QAEXPAD@Z 00411d01 f   board_monitor.obj
 0001:00010d2a       ?get_parameter_alarm_bits@FTII_BOARD_ENTRY@@QAEIXZ 00411d2a f   board_monitor.obj
 0001:00010dd8       ?init@BOARD_EXTENDED_ANALOG_ARRAY@@QAEEH@Z 00411dd8 f   board_monitor.obj
 0001:00010e6d       ?is_suretrak_controlled@@YAEH@Z 00411e6d f   board_monitor.obj
 0001:00010e93       ?issue_downtime_event@@YAXAAVSTRING_CLASS@@00AAU_SYSTEMTIME@@PAD2@Z 00411e93 f   board_monitor.obj
 0001:00010ed1       ?load_ftii_boards@@YAHXZ   00411ed1 f   board_monitor.obj
 0001:000111c9       ?load_the_current_machine_at_this_board@@YAXAAVFTII_BOARD_ENTRY@@@Z 004121c9 f   board_monitor.obj
 0001:00011ad2       ?log_network_error@@YAXH@Z 00412ad2 f   board_monitor.obj
 0001:00011ced       ?new_data_thread@@YAXPAX@Z 00412ced f   board_monitor.obj
 0001:0001219a       ?position_auto_shot_display@@YAXXZ 0041319a f   board_monitor.obj
 0001:0001222d       ?post_new_data_message@@YAXAAVSTRING_CLASS@@@Z 0041322d f   board_monitor.obj
 0001:00012289       ?put_version_string@FTII_BOARD_ENTRY@@QAEXXZ 00413289 f   board_monitor.obj
 0001:00012315       ?read_thread@@YAXPAX@Z     00413315 f   board_monitor.obj
 0001:00012558       ?save_shot@FTII_BOARD_ENTRY@@QAEXXZ 00413558 f   board_monitor.obj
 0001:00012969       ?send_bits@FTII_BOARD_ENTRY@@QAEXI_N@Z 00413969 f   board_monitor.obj
 0001:000129e6       ?send_command@@YAXAAVSTRING_CLASS@@PAD_N@Z 004139e6 f   board_monitor.obj
 0001:00012be7       ?send_socket_message@FTII_BOARD_ENTRY@@QAE_NPAD_N@Z 00413be7 f   board_monitor.obj
 0001:00012cbe       ?send_thread@@YAXPAX@Z     00413cbe f   board_monitor.obj
 0001:00013340       ?set_connect_state@FTII_BOARD_ENTRY@@QAEXI@Z 00414340 f   board_monitor.obj
 0001:000133ca       ?set_extended_analog_bits@FTII_BOARD_ENTRY@@QAEXXZ 004143ca f   board_monitor.obj
 0001:00013514       ?setwire@FTII_BOARD_ENTRY@@QAEXH@Z 00414514 f   board_monitor.obj
 0001:00013536       ?start_of_binary_data@@YAXHPAUBINARY_HEADER@@@Z 00414536 f   board_monitor.obj
 0001:0001380e       ?stop_monitoring@@YAXXZ    0041480e f   board_monitor.obj
 0001:0001397d       ?update_downtime@@YAXVDOWN_DATA_CLASS@@@Z 0041497d f   board_monitor.obj
 0001:00013d3e       ?upload_control_file@FTII_BOARD_ENTRY@@QAE_NXZ 00414d3e f   board_monitor.obj
 0001:000146f6       ?wirebit@@YAIH@Z           004156f6 f   board_monitor.obj
 0001:000149b8       ??0PROFILE_NAME_ENTRY@@QAE@XZ 004159b8 f i shotsave.obj
 0001:000149dc       ??0SHOT_BUFFER_ENTRY@@QAE@XZ 004159dc f i shotsave.obj
 0001:00014a0b       ??1PROFILE_NAME_ENTRY@@QAE@XZ 00415a0b f i shotsave.obj
 0001:00014a2e       ??1SHOT_BUFFER_ENTRY@@QAE@XZ 00415a2e f i shotsave.obj
 0001:00014a4d       ?add_to_shotsave@@YA_N_N0AAUPART_NAME_ENTRY@@AAVFTII_FILE_DATA@@AAVDOUBLE_ARRAY_CLASS@@@Z 00415a4d f   shotsave.obj
 0001:00014b50       ?create@VDB_CLASS@@QAE_NAAVSTRING_CLASS@@@Z 00415b50 f i shotsave.obj
 0001:00014cc8       ?directory_exists@NAME_CLASS@@QAEEXZ 00415cc8 f i shotsave.obj
 0001:00014d05       ?get@WRITE_CSV_SHOT_FILE@@QAEEAAUPROFILE_NAME_ENTRY@@@Z 00415d05 f   shotsave.obj
 0001:00014f12       ?get_ini_char@@YAPADPAD0@Z 00415f12 f   shotsave.obj
 0001:00014f5b       ?has_any_limits@PARAMETER_ENTRY@@QAEEXZ 00415f5b f i shotsave.obj
 0001:00014f78       ?init_serial_port@@YAXXZ   00415f78 f   shotsave.obj
 0001:00015c60       ?nextshot@@YAEPAUSHOT_BUFFER_ENTRY@@@Z 00416c60 f   shotsave.obj
 0001:0001605d       ?put_alpha@DB_TABLE@@QAEEGAAVSTRING_CLASS@@F@Z 0041705d f i shotsave.obj
 0001:0001607f       ?save_all_shots@@YAXXZ     0041707f f   shotsave.obj
 0001:000160ba       ?save_shot@@YAXPAUSHOT_BUFFER_ENTRY@@@Z 004170ba f   shotsave.obj
 0001:00016776       ?shotsave_thread@@YAXPAX@Z 00417776 f   shotsave.obj
 0001:00016862       ?start_shotsave_thread@@YAXXZ 00417862 f   shotsave.obj
 0001:00017982       ?write_ftii_parameters@@YAEPAUSHOT_BUFFER_ENTRY@@AAU_SYSTEMTIME@@G@Z 00418982 f   shotsave.obj
 0001:000180dc       ?write_std_units_csv_file@@YAEAAVSTRING_CLASS@@PAUSHOT_BUFFER_ENTRY@@@Z 004190dc f   shotsave.obj
 0001:00018710       ?max_parameters_saved@@YAJAAVSTRING_CLASS@@@Z 00419710 f   skip.obj
 0001:00018725       ?max_profiles_saved@@YAJAAVSTRING_CLASS@@@Z 00419725 f   skip.obj
 0001:000187b7       ?skip_new_shot_notify@@YAGAAVSTRING_CLASS@@U_FILETIME@@@Z 004197b7 f   skip.obj
 0001:00018804       ?skip_reset_machine@@YAEAAVSTRING_CLASS@@@Z 00419804 f   skip.obj
 0001:0001881d       ?skip_shutdown@@YAXXZ      0041981d f   skip.obj
 0001:00018851       ?skip_startup@@YAEXZ       00419851 f   skip.obj
 0001:00018854       ??0UPLOAD_COPY_CLASS@@QAE@XZ 00419854 f   upload_copy_class.obj
 0001:0001887a       ??1UPLOAD_COPY_CLASS@@QAE@XZ 0041987a f   upload_copy_class.obj
 0001:00018897       ?init@UPLOAD_COPY_CLASS@@QAEXXZ 00419897 f   upload_copy_class.obj
 0001:000188ba       ?isnew@UPLOAD_COPY_CLASS@@QAE_NAAVSTRING_CLASS@@@Z 004198ba f   upload_copy_class.obj
 0001:00018984       ?load@UPLOAD_COPY_CLASS@@QAEIVSTRING_CLASS@@00@Z 00419984 f   upload_copy_class.obj
 0001:00018aa7       ?save@UPLOAD_COPY_CLASS@@QAEIVSTRING_CLASS@@00@Z 00419aa7 f   upload_copy_class.obj
 0001:00018be2       _DdeGetData@16             00419be2 f   user32:USER32.dll
 0001:00018be8       _bind@12                   00419be8 f   wsock32:WSOCK32.dll
 0001:00018bee       _closesocket@4             00419bee f   wsock32:WSOCK32.dll
 0001:00018bf4       _htonl@4                   00419bf4 f   wsock32:WSOCK32.dll
 0001:00018bfa       _htons@4                   00419bfa f   wsock32:WSOCK32.dll
 0001:00018c00       _inet_addr@4               00419c00 f   wsock32:WSOCK32.dll
 0001:00018c06       _recvfrom@24               00419c06 f   wsock32:WSOCK32.dll
 0001:00018c0c       _sendto@24                 00419c0c f   wsock32:WSOCK32.dll
 0001:00018c12       _socket@12                 00419c12 f   wsock32:WSOCK32.dll
 0001:00018c18       _gethostbyname@4           00419c18 f   wsock32:WSOCK32.dll
 0001:00018c1e       _gethostname@8             00419c1e f   wsock32:WSOCK32.dll
 0001:00018c24       _WSAStartup@8              00419c24 f   wsock32:WSOCK32.dll
 0001:00018c2a       _WSACleanup@0              00419c2a f   wsock32:WSOCK32.dll
 0001:00018c30       _WSAGetLastError@0         00419c30 f   wsock32:WSOCK32.dll
 0001:00018c36       ?directory_exists@@YAEPAD@Z 00419c36 f   v5subs:exists.obj
 0001:00018c59       ?disk_is_in_drive@@YAEPAD@Z 00419c59 f   v5subs:exists.obj
 0001:00018c91       ?file_exists@@YAEPAD@Z     00419c91 f   v5subs:exists.obj
 0001:00018ca3       ?file_size@@YAJPAD@Z       00419ca3 f   v5subs:exists.obj
 0001:00018d6b       ?get_drive_name@@YAEPAD@Z  00419d6b f   v5subs:exists.obj
 0001:00018d9b       ?is_removable@@YAEPAD@Z    00419d9b f   v5subs:exists.obj
 0001:00018dc5       ?ascii_double@@YAPADN@Z    00419dc5 f   v5subs:ascfloat.obj
 0001:00018de5       ?ascii_float@@YAPADM@Z     00419de5 f   v5subs:ascfloat.obj
 0001:00018dfd       ?asctoint@@YAHPBD@Z        00419dfd f   v5subs:extract.obj
 0001:00018dfd       ?asctoint32@@YAJPBD@Z      00419dfd f   v5subs:extract.obj
 0001:00018e1a       ?asctoul@@YAKPBD@Z         00419e1a f   v5subs:extract.obj
 0001:00018e37       ?extdouble@@YANPBD@Z       00419e37 f   v5subs:extract.obj
 0001:00018e4e       ?extdouble@@YANPBDF@Z      00419e4e f   v5subs:extract.obj
 0001:00018eb6       ?extfloat@@YAMPBD@Z        00419eb6 f   v5subs:extract.obj
 0001:00018edb       ?extlong@@YAJPBDFH@Z       00419edb f   v5subs:extract.obj
 0001:00018f41       ?extshort@@YAFPBDF@Z       00419f41 f   v5subs:extract.obj
 0001:00018f41       ?extlong@@YAJPBDF@Z        00419f41 f   v5subs:extract.obj
 0001:00018f54       ?extul@@YAKPBDFH@Z         00419f54 f   v5subs:extract.obj
 0001:00018fba       ?is_real_char@@YAED@Z      00419fba f   v5subs:extract.obj
 0001:0001905d       ?int32toasc@@YAPADJ@Z      0041a05d f   v5subs:itoasc.obj
 0001:00019076       ?int32toasc@@YAXPADJJ@Z    0041a076 f   v5subs:itoasc.obj
 0001:000190b7       ?int_to_ascii@@YAXPADH@Z   0041a0b7 f   v5subs:itoasc.obj
 0001:000190f1       ?ultoascii@@YAPADKK@Z      0041a0f1 f   v5subs:itoasc.obj
 0001:0001910c       ?ultoascii@@YAXPADKK@Z     0041a10c f   v5subs:itoasc.obj
 0001:0001913b       ??0STRING_CLASS@@QAE@ABV0@@Z 0041a13b f   v5subs:stringcl.obj
 0001:00019157       ??0STRING_CLASS@@QAE@PBD@Z 0041a157 f   v5subs:stringcl.obj
 0001:00019170       ??0STRING_CLASS@@QAE@XZ    0041a170 f   v5subs:stringcl.obj
 0001:0001917a       ??1STRING_CLASS@@QAE@XZ    0041a17a f   v5subs:stringcl.obj
 0001:0001917f       ??4STRING_CLASS@@QAEXABV0@@Z 0041a17f f   v5subs:stringcl.obj
 0001:0001918e       ??4STRING_CLASS@@QAEXD@Z   0041a18e f   v5subs:stringcl.obj
 0001:000191a5       ??4STRING_CLASS@@QAEXE@Z   0041a1a5 f   v5subs:stringcl.obj
 0001:000191c0       ??4STRING_CLASS@@QAEXH@Z   0041a1c0 f   v5subs:stringcl.obj
 0001:000191e8       ??4STRING_CLASS@@QAEXI@Z   0041a1e8 f   v5subs:stringcl.obj
 0001:00019210       ??4STRING_CLASS@@QAEXN@Z   0041a210 f   v5subs:stringcl.obj
 0001:0001923f       ??4STRING_CLASS@@QAEXPBD@Z 0041a23f f   v5subs:stringcl.obj
 0001:0001928a       ??8STRING_CLASS@@QAEEABV0@@Z 0041a28a f   v5subs:stringcl.obj
 0001:000192b2       ??8STRING_CLASS@@QAEEPBD@Z 0041a2b2 f   v5subs:stringcl.obj
 0001:000192d9       ??MSTRING_CLASS@@QAEEABV0@@Z 0041a2d9 f   v5subs:stringcl.obj
 0001:00019300       ??YSTRING_CLASS@@QAEXABV0@@Z 0041a300 f   v5subs:stringcl.obj
 0001:0001930f       ??YSTRING_CLASS@@QAEXD@Z   0041a30f f   v5subs:stringcl.obj
 0001:00019342       ??YSTRING_CLASS@@QAEXE@Z   0041a342 f   v5subs:stringcl.obj
 0001:0001935d       ??YSTRING_CLASS@@QAEXH@Z   0041a35d f   v5subs:stringcl.obj
 0001:00019394       ??YSTRING_CLASS@@QAEXI@Z   0041a394 f   v5subs:stringcl.obj
 0001:000193cb       ??YSTRING_CLASS@@QAEXN@Z   0041a3cb f   v5subs:stringcl.obj
 0001:00019409       ??YSTRING_CLASS@@QAEXPBD@Z 0041a409 f   v5subs:stringcl.obj
 0001:0001944a       ?acquire@STRING_CLASS@@QAEEAAV1@@Z 0041a44a f   v5subs:stringcl.obj
 0001:00019478       ?acquire@STRING_CLASS@@QAEEPAD@Z 0041a478 f   v5subs:stringcl.obj
 0001:000194a7       ?boolean_value@STRING_CLASS@@QAEEXZ 0041a4a7 f   v5subs:stringcl.obj
 0001:000194c6       ?cat_path@STRING_CLASS@@QAEXPBD@Z 0041a4c6 f   v5subs:stringcl.obj
 0001:00019532       ?cat_w_char@STRING_CLASS@@QAEXPBDD@Z 0041a532 f   v5subs:stringcl.obj
 0001:00019587       ?contains@STRING_CLASS@@QAE_ND@Z 0041a587 f   v5subs:stringcl.obj
 0001:00019598       ?contains@STRING_CLASS@@QAE_NPBD@Z 0041a598 f   v5subs:stringcl.obj
 0001:000195a9       ?empty@STRING_CLASS@@QAEXXZ 0041a5a9 f   v5subs:stringcl.obj
 0001:000195c4       ?find@STRING_CLASS@@QAEPADD@Z 0041a5c4 f   v5subs:stringcl.obj
 0001:000195ed       ?find@STRING_CLASS@@QAEPADPBD@Z 0041a5ed f   v5subs:stringcl.obj
 0001:0001960b       ?findlast@STRING_CLASS@@QAEPADPBD@Z 0041a60b f   v5subs:stringcl.obj
 0001:00019629       ?get_ascii@STRING_CLASS@@QAEEPAD@Z 0041a629 f   v5subs:stringcl.obj
 0001:00019672       ?get_substring@STRING_CLASS@@QAEEABV1@DD@Z 0041a672 f   v5subs:stringcl.obj
 0001:000196ea       ?get_text@STRING_CLASS@@QAE_NPAUHWND__@@@Z 0041a6ea f   v5subs:stringcl.obj
 0001:0001973e       ?init@STRING_CLASS@@QAEEJ@Z 0041a73e f   v5subs:stringcl.obj
 0001:00019782       ?isempty@STRING_CLASS@@QAEEXZ 0041a782 f   v5subs:stringcl.obj
 0001:0001979e       ?isnumeric@STRING_CLASS@@QAEEXZ 0041a79e f   v5subs:stringcl.obj
 0001:00019827       ?last_char@STRING_CLASS@@QAEPADXZ 0041a827 f   v5subs:stringcl.obj
 0001:0001983f       ?len@STRING_CLASS@@QAEJXZ  0041a83f f   v5subs:stringcl.obj
 0001:00019852       ?next_field@STRING_CLASS@@QAE_ND@Z 0041a852 f   v5subs:stringcl.obj
 0001:00019943       ?next_field@STRING_CLASS@@QAE_NXZ 0041a943 f   v5subs:stringcl.obj
 0001:00019951       ?null@STRING_CLASS@@QAEXXZ 0041a951 f   v5subs:stringcl.obj
 0001:00019971       ?real_value@STRING_CLASS@@QAENXZ 0041a971 f   v5subs:stringcl.obj
 0001:000199c8       ?release@STRING_CLASS@@QAEPADXZ 0041a9c8 f   v5subs:stringcl.obj
 0001:000199d3       ?remove_all_occurances@STRING_CLASS@@QAEHD@Z 0041a9d3 f   v5subs:stringcl.obj
 0001:00019a12       ?remove_leading_chars@STRING_CLASS@@QAE_NH@Z 0041aa12 f   v5subs:stringcl.obj
 0001:00019a4b       ?replace@STRING_CLASS@@QAEEDD@Z 0041aa4b f   v5subs:stringcl.obj
 0001:00019a77       ?replace@STRING_CLASS@@QAEEPBD0@Z 0041aa77 f   v5subs:stringcl.obj
 0001:00019b2c       ?replace_all@STRING_CLASS@@QAEHDD@Z 0041ab2c f   v5subs:stringcl.obj
 0001:00019b5a       ?rjust@STRING_CLASS@@QAEEJ@Z 0041ab5a f   v5subs:stringcl.obj
 0001:00019b6e       ?rjust@STRING_CLASS@@QAEEJD@Z 0041ab6e f   v5subs:stringcl.obj
 0001:00019bbd       ?set_text@STRING_CLASS@@QAE_NPAUHWND__@@@Z 0041abbd f   v5subs:stringcl.obj
 0001:00019be2       ?strip_crlf@STRING_CLASS@@QAEXXZ 0041abe2 f   v5subs:stringcl.obj
 0001:00019c25       ?uppercase@STRING_CLASS@@QAEXXZ 0041ac25 f   v5subs:stringcl.obj
 0001:00019c35       ?upsize@STRING_CLASS@@QAEEJ@Z 0041ac35 f   v5subs:stringcl.obj
 0001:00019c89       ?convert_to_data_dir@NAME_CLASS@@QAEEXZ 0041ac89 f   v5subs:nameclas.obj
 0001:00019cce       ?ensure_file_directory_existance@NAME_CLASS@@QAEEXZ 0041acce f   v5subs:nameclas.obj
 0001:00019d37       ?find_extension@NAME_CLASS@@QAEPADXZ 0041ad37 f   v5subs:nameclas.obj
 0001:00019d7d       ?get_data_dir_file_name@NAME_CLASS@@QAEEAAVSTRING_CLASS@@PBD@Z 0041ad7d f   v5subs:nameclas.obj
 0001:00019dc0       ?get_data_dir_file_name@NAME_CLASS@@QAEEPBD@Z 0041adc0 f   v5subs:nameclas.obj
 0001:00019ddd       ?get_exe_dir_file_name@NAME_CLASS@@QAEEAAVSTRING_CLASS@@PBD@Z 0041addd f   v5subs:nameclas.obj
 0001:00019e20       ?get_exe_dir_file_name@NAME_CLASS@@QAEEPBD@Z 0041ae20 f   v5subs:nameclas.obj
 0001:00019e59       ?get_machine_dir_file_name@NAME_CLASS@@QAEEAAVSTRING_CLASS@@0PBD@Z 0041ae59 f   v5subs:nameclas.obj
 0001:00019ea2       ?get_machine_results_dir_file_name@NAME_CLASS@@QAEEAAVSTRING_CLASS@@0PBD@Z 0041aea2 f   v5subs:nameclas.obj
 0001:00019ee0       ?get_part_dir_file_name@NAME_CLASS@@QAEEAAVSTRING_CLASS@@00PBD@Z 0041aee0 f   v5subs:nameclas.obj
 0001:00019f2c       ?get_part_results_dir_file_name@NAME_CLASS@@QAEEAAVSTRING_CLASS@@00PBD@Z 0041af2c f   v5subs:nameclas.obj
 0001:00019f6d       ?get_profile_name@NAME_CLASS@@QAEEAAVSTRING_CLASS@@00PBD1@Z 0041af6d f   v5subs:nameclas.obj
 0001:0001a018       ?get_static_text_parameters_csvname@NAME_CLASS@@QAEEAAVSTRING_CLASS@@00@Z 0041b018 f   v5subs:nameclas.obj
 0001:0001a031       ?moveto@NAME_CLASS@@QAEEAAVSTRING_CLASS@@@Z 0041b031 f   v5subs:nameclas.obj
 0001:0001a05e       ?remove_ending_filename@NAME_CLASS@@QAEEXZ 0041b05e f   v5subs:nameclas.obj
 0001:0001a084       ?remove_extension@NAME_CLASS@@QAEEXZ 0041b084 f   v5subs:nameclas.obj
 0001:0001a09b       ?replace_extension@NAME_CLASS@@QAEXPAD@Z 0041b09b f   v5subs:nameclas.obj
 0001:0001a0c9       ??0ANALOG_SENSOR@@QAE@XZ   0041b0c9 f   v5subs:asensor.obj
 0001:0001a0cf       ??0ANALOG_SENSOR_ENTRY@@QAE@XZ 0041b0cf f   v5subs:asensor.obj
 0001:0001a11f       ??1ANALOG_SENSOR_ENTRY@@QAE@XZ 0041b11f f   v5subs:asensor.obj
 0001:0001a14b       ??AANALOG_SENSOR@@QAEAAUANALOG_SENSOR_ENTRY@@H@Z 0041b14b f   v5subs:asensor.obj
 0001:0001a16e       ??_EANALOG_SENSOR_ENTRY@@QAEPAXI@Z 0041b16e f i v5subs:asensor.obj
 0001:0001a1c3       ?converted_value@ANALOG_SENSOR_ENTRY@@QAENI@Z 0041b1c3 f   v5subs:asensor.obj
 0001:0001a1f7       ?get@ANALOG_SENSOR@@SAEXZ  0041b1f7 f   v5subs:asensor.obj
 0001:0001a3f5       ?get@ANALOG_SENSOR_ENTRY@@QAEEPAD@Z 0041b3f5 f   v5subs:asensor.obj
 0001:0001a552       ?raw_count@ANALOG_SENSOR_ENTRY@@QAENN@Z 0041b552 f   v5subs:asensor.obj
 0001:0001a595       ?shutdown@ANALOG_SENSOR@@SAXXZ 0041b595 f   v5subs:asensor.obj
 0001:0001a59a       ?update@ANALOG_SENSOR_ENTRY@@QAEEXZ 0041b59a f   v5subs:asensor.obj
 0001:0001a688       ??0AUTO_BACKUP_CLASS@@QAE@XZ 0041b688 f   v5subs:autoback.obj
 0001:0001a69a       ??1AUTO_BACKUP_CLASS@@QAE@XZ 0041b69a f   v5subs:autoback.obj
 0001:0001a6a0       ?backup_machine@AUTO_BACKUP_CLASS@@QAEEAAVSTRING_CLASS@@@Z 0041b6a0 f   v5subs:autoback.obj
 0001:0001a7f1       ?get_backup_dir@AUTO_BACKUP_CLASS@@QAEEXZ 0041b7f1 f   v5subs:autoback.obj
 0001:0001a88f       ??0DB_TABLE@@QAE@XZ        0041b88f f   v5subs:dbsubs.obj
 0001:0001a8b6       ??1DB_TABLE@@QAE@XZ        0041b8b6 f   v5subs:dbsubs.obj
 0001:0001a922       ?close@DB_TABLE@@QAEXXZ    0041b922 f   v5subs:dbsubs.obj
 0001:0001a943       ?compare_date@@YAFPAD0@Z   0041b943 f   v5subs:dbsubs.obj
 0001:0001a979       ?compare_int32@@YAFPAD0J@Z 0041b979 f   v5subs:dbsubs.obj
 0001:0001a9ad       ?compare_one_record@DB_TABLE@@AAEEPAFJJ@Z 0041b9ad f   v5subs:dbsubs.obj
 0001:0001aa7a       ?create@DB_TABLE@@QAEEAAVSTRING_CLASS@@@Z 0041ba7a f i v5subs:dbsubs.obj
 0001:0001aa94       ?create@DB_TABLE@@QAEEPAD@Z 0041ba94 f   v5subs:dbsubs.obj
 0001:0001aaf4       ?determine_column_info@DB_TABLE@@QAEHXZ 0041baf4 f   v5subs:dbsubs.obj
 0001:0001accd       ?ensure_existance@DB_TABLE@@QAEEAAVSTRING_CLASS@@@Z 0041bccd f   v5subs:dbsubs.obj
 0001:0001ad01       ?field_length@DB_TABLE@@QAEFH@Z 0041bd01 f   v5subs:dbsubs.obj
 0001:0001ad6d       ?fill_searchbuf@DB_TABLE@@AAEEF@Z 0041bd6d f   v5subs:dbsubs.obj
 0001:0001adbb       ?get_alpha@DB_TABLE@@QAEEAAVSTRING_CLASS@@GF@Z 0041bdbb f   v5subs:dbsubs.obj
 0001:0001ae1b       ?get_alpha@DB_TABLE@@QAEEPADGF@Z 0041be1b f   v5subs:dbsubs.obj
 0001:0001ae31       ?get_alpha@DB_TABLE@@QAEEPADGFG@Z 0041be31 f   v5subs:dbsubs.obj
 0001:0001ae8a       ?get_char@DB_TABLE@@QAEDG@Z 0041be8a f   v5subs:dbsubs.obj
 0001:0001aea4       ?get_current_record@DB_TABLE@@QAEEE@Z 0041bea4 f   v5subs:dbsubs.obj
 0001:0001aeea       ?get_date@DB_TABLE@@QAEEAAU_SYSTEMTIME@@G@Z 0041beea f   v5subs:dbsubs.obj
 0001:0001af03       ?get_double@DB_TABLE@@QAENG@Z 0041bf03 f   v5subs:dbsubs.obj
 0001:0001af3f       ?get_long@DB_TABLE@@QAEJG@Z 0041bf3f f   v5subs:dbsubs.obj
 0001:0001af68       ?get_next_key_match@DB_TABLE@@QAEEFE@Z 0041bf68 f   v5subs:dbsubs.obj
 0001:0001afd5       ?get_next_record@DB_TABLE@@QAEEE@Z 0041bfd5 f   v5subs:dbsubs.obj
 0001:0001b023       ?get_rec@DB_TABLE@@QAEEXZ  0041c023 f   v5subs:dbsubs.obj
 0001:0001b06d       ?get_time@DB_TABLE@@QAEEAAU_SYSTEMTIME@@G@Z 0041c06d f   v5subs:dbsubs.obj
 0001:0001b086       ?goto_first_equal_or_greater_record@DB_TABLE@@QAEEF@Z 0041c086 f   v5subs:dbsubs.obj
 0001:0001b15f       ?goto_first_key_record@DB_TABLE@@AAEEF@Z 0041c15f f   v5subs:dbsubs.obj
 0001:0001b17a       ?goto_key_record@DB_TABLE@@AAEEFJJ@Z 0041c17a f   v5subs:dbsubs.obj
 0001:0001b2a6       ?goto_record_number@DB_TABLE@@QAEEJ@Z 0041c2a6 f   v5subs:dbsubs.obj
 0001:0001b339       ?initbuf@DB_TABLE@@AAEEPAPADPAFF@Z 0041c339 f   v5subs:dbsubs.obj
 0001:0001b3c1       ?is_alpha@DB_TABLE@@QAEEH@Z 0041c3c1 f   v5subs:dbsubs.obj
 0001:0001b3e3       ?lock_record@DB_TABLE@@QAEEXZ 0041c3e3 f   v5subs:dbsubs.obj
 0001:0001b45d       ?nof_recs@DB_TABLE@@QAEKXZ 0041c45d f   v5subs:dbsubs.obj
 0001:0001b485       ?open@DB_TABLE@@QAEEPADFF@Z 0041c485 f   v5subs:dbsubs.obj
 0001:0001b49b       ?open@DB_TABLE@@QAEEPADFFF@Z 0041c49b f   v5subs:dbsubs.obj
 0001:0001b67a       ?open_status@DB_TABLE@@QAEEXZ 0041c67a f   v5subs:dbsubs.obj
 0001:0001b682       ?point_to_start_of_field@DB_TABLE@@AAEPADG@Z 0041c682 f   v5subs:dbsubs.obj
 0001:0001b699       ?post_error@@YAXPAD0@Z     0041c699 f   v5subs:dbsubs.obj
 0001:0001b6ac       ?post_error@@YAXPAD@Z      0041c6ac f   v5subs:dbsubs.obj
 0001:0001b6c0       ?put_alpha@DB_TABLE@@QAEEGPBDF@Z 0041c6c0 f   v5subs:dbsubs.obj
 0001:0001b707       ?put_date@DB_TABLE@@QAEEGABU_SYSTEMTIME@@@Z 0041c707 f   v5subs:dbsubs.obj
 0001:0001b738       ?put_long@DB_TABLE@@QAEEGJF@Z 0041c738 f   v5subs:dbsubs.obj
 0001:0001b779       ?put_time@DB_TABLE@@QAEEGAAU_SYSTEMTIME@@@Z 0041c779 f   v5subs:dbsubs.obj
 0001:0001b7aa       ?rec_append@DB_TABLE@@QAEEXZ 0041c7aa f   v5subs:dbsubs.obj
 0001:0001b7d0       ?rec_delete@DB_TABLE@@QAEEJ@Z 0041c7d0 f   v5subs:dbsubs.obj
 0001:0001b917       ?rec_insert@DB_TABLE@@QAEEXZ 0041c917 f   v5subs:dbsubs.obj
 0001:0001b9cd       ?rec_update@DB_TABLE@@QAEEXZ 0041c9cd f   v5subs:dbsubs.obj
 0001:0001b9ee       ?restore_from_searchbuf@DB_TABLE@@AAEXXZ 0041c9ee f   v5subs:dbsubs.obj
 0001:0001ba35       ?unlock_record@DB_TABLE@@QAEEXZ 0041ca35 f   v5subs:dbsubs.obj
 0001:0001ba75       ?write_record@DB_TABLE@@AAEEXZ 0041ca75 f   v5subs:dbsubs.obj
 0001:0001bacb       ??0DOWN_DATA_CLASS@@QAE@XZ 0041cacb f   v5subs:evclass.obj
 0001:0001bb27       ?set@DOWN_DATA_CLASS@@QAEEPAUHDDEDATA__@@@Z 0041cb27 f   v5subs:evclass.obj
 0001:0001bcdf       ??0EXTERNAL_PARAMETER_SETTINGS_CLASS@@QAE@XZ 0041ccdf f   v5subs:external_parameter.obj
 0001:0001bcf1       ??1EXTERNAL_PARAMETER_SETTINGS_CLASS@@QAE@XZ 0041ccf1 f   v5subs:external_parameter.obj
 0001:0001bcf6       ?clear@EXTERNAL_PARAMETER_SETTINGS_CLASS@@QAEXXZ 0041ccf6 f   v5subs:external_parameter.obj
 0001:0001bd06       ?get@EXTERNAL_PARAMETER_SETTINGS_CLASS@@QAEEAAVSTRING_CLASS@@00@Z 0041cd06 f   v5subs:external_parameter.obj
 0001:0001be46       ??0FILE_CLASS@@QAE@XZ      0041ce46 f   v5subs:fileclas.obj
 0001:0001be6a       ?cleanup@FILE_CLASS@@QAEXXZ 0041ce6a f   v5subs:fileclas.obj
 0001:0001be98       ?cleanup_memory@FILE_CLASS@@QAEXXZ 0041ce98 f   v5subs:fileclas.obj
 0001:0001bec4       ??1FILE_CLASS@@QAE@XZ      0041cec4 f   v5subs:fileclas.obj
 0001:0001bec4       ?close@FILE_CLASS@@QAEXXZ  0041cec4 f   v5subs:fileclas.obj
 0001:0001bec9       ?get_creation_time@FILE_CLASS@@QAEEPAU_FILETIME@@@Z 0041cec9 f   v5subs:fileclas.obj
 0001:0001beed       ?get_file_size@FILE_CLASS@@QAEEAAK@Z 0041ceed f   v5subs:fileclas.obj
 0001:0001bf1a       ?make_path@FILE_CLASS@@QAEEPAD@Z 0041cf1a f   v5subs:fileclas.obj
 0001:0001bf67       ?nof_lines@FILE_CLASS@@QAEHXZ 0041cf67 f   v5subs:fileclas.obj
 0001:0001c031       ?open@FILE_CLASS@@QAEEPADK@Z 0041d031 f   v5subs:fileclas.obj
 0001:0001c0b4       ?open_for_append@FILE_CLASS@@QAEEAAVSTRING_CLASS@@@Z 0041d0b4 f   v5subs:fileclas.obj
 0001:0001c0ce       ?open_for_append@FILE_CLASS@@QAEEPAD@Z 0041d0ce f   v5subs:fileclas.obj
 0001:0001c104       ?open_for_read@FILE_CLASS@@QAEEAAVSTRING_CLASS@@@Z 0041d104 f   v5subs:fileclas.obj
 0001:0001c11e       ?open_for_read@FILE_CLASS@@QAEEPAD@Z 0041d11e f   v5subs:fileclas.obj
 0001:0001c13a       ?open_for_write@FILE_CLASS@@QAEEAAVSTRING_CLASS@@@Z 0041d13a f   v5subs:fileclas.obj
 0001:0001c154       ?open_for_write@FILE_CLASS@@QAEEPAD@Z 0041d154 f   v5subs:fileclas.obj
 0001:0001c16d       ?read_unicode_file@FILE_CLASS@@QAEEAAVSTRING_CLASS@@@Z 0041d16d f   v5subs:fileclas.obj
 0001:0001c207       ?readbinary@FILE_CLASS@@QAEKPAXK@Z 0041d207 f   v5subs:fileclas.obj
 0001:0001c26d       ?readline@FILE_CLASS@@QAEPADXZ 0041d26d f   v5subs:fileclas.obj
 0001:0001c348       ?setpos@FILE_CLASS@@QAEEJ@Z 0041d348 f   v5subs:fileclas.obj
 0001:0001c38b       ?writebinary@FILE_CLASS@@QAEEPAXK@Z 0041d38b f   v5subs:fileclas.obj
 0001:0001c3f3       ?writeline@FILE_CLASS@@QAEEAAVSTRING_CLASS@@@Z 0041d3f3 f   v5subs:fileclas.obj
 0001:0001c40d       ?writeline@FILE_CLASS@@QAEEPAD@Z 0041d40d f   v5subs:fileclas.obj
 0001:0001c4a0       ??0FIFO_CLASS@@QAE@XZ      0041d4a0 f   v5subs:fifo.obj
 0001:0001c4b9       ??1FIFO_CLASS@@QAE@XZ      0041d4b9 f   v5subs:fifo.obj
 0001:0001c4c1       ?peek@FIFO_CLASS@@QAEPAXXZ 0041d4c1 f   v5subs:fifo.obj
 0001:0001c4cf       ?pop@FIFO_CLASS@@QAEPAXXZ  0041d4cf f   v5subs:fifo.obj
 0001:0001c517       ?push@FIFO_CLASS@@QAEEPAX@Z 0041d517 f   v5subs:fifo.obj
 0001:0001c577       ??0FONT_CLASS@@QAE@XZ      0041d577 f   v5subs:fontclas.obj
 0001:0001c593       ??0SHIFT_CLASS@@QAE@XZ     0041d593 f   v5subs:shift.obj
 0001:0001c593       ??0FONT_LIST_CLASS@@QAE@XZ 0041d593 f   v5subs:fontclas.obj
 0001:0001c599       ??0FONT_LIST_ENTRY@@QAE@XZ 0041d599 f   v5subs:fontclas.obj
 0001:0001c5b3       ??1FONT_LIST_CLASS@@QAE@XZ 0041d5b3 f   v5subs:fontclas.obj
 0001:0001c5dc       ??1FONT_LIST_ENTRY@@QAE@XZ 0041d5dc f   v5subs:fontclas.obj
 0001:0001c5f4       ??4FONT_CLASS@@QAEXABUtagLOGFONTA@@@Z 0041d5f4 f   v5subs:fontclas.obj
 0001:0001c657       ??4FONT_CLASS@@QAEXABV0@@Z 0041d657 f   v5subs:fontclas.obj
 0001:0001c693       ??8FONT_CLASS@@QAE_NABUtagLOGFONTA@@@Z 0041d693 f   v5subs:fontclas.obj
 0001:0001c718       ??8FONT_CLASS@@QAE_NABV0@@Z 0041d718 f   v5subs:fontclas.obj
 0001:0001c754       ?free_handle@FONT_LIST_CLASS@@QAEXPAUHFONT__@@@Z 0041d754 f   v5subs:fontclas.obj
 0001:0001c797       ?get@FONT_CLASS@@QAE_NPAD@Z 0041d797 f   v5subs:fontclas.obj
 0001:0001c92f       ?get_handle@FONT_LIST_CLASS@@QAEPAUHFONT__@@ABVFONT_CLASS@@@Z 0041d92f f   v5subs:fontclas.obj
 0001:0001ca40       ??0COMPUTER_CLASS@@QAE@XZ  0041da40 f   v5subs:computer.obj
 0001:0001ca4b       ?add@COMPUTER_CLASS@@QAEEPAD@Z 0041da4b f   v5subs:computer.obj
 0001:0001cb02       ?empty@COMPUTER_CLASS@@QAEXXZ 0041db02 f   v5subs:computer.obj
 0001:0001cb36       ?find@COMPUTER_CLASS@@QAEEPAD@Z 0041db36 f   v5subs:computer.obj
 0001:0001cb66       ?is_present@COMPUTER_CLASS@@QAEEXZ 0041db66 f   v5subs:computer.obj
 0001:0001cb87       ?is_this_computer@COMPUTER_CLASS@@QAEEXZ 0041db87 f   v5subs:computer.obj
 0001:0001cba4       ?load@COMPUTER_CLASS@@QAEEXZ 0041dba4 f   v5subs:computer.obj
 0001:0001ccd2       ?name@COMPUTER_CLASS@@QAEAAVSTRING_CLASS@@XZ 0041dcd2 f   v5subs:computer.obj
 0001:0001cce2       ?next@COMPUTER_CLASS@@QAEEXZ 0041dce2 f   v5subs:computer.obj
 0001:0001cd04       ?rewind@COMPUTER_CLASS@@QAEXXZ 0041dd04 f   v5subs:computer.obj
 0001:0001cd0b       ?startup@COMPUTER_CLASS@@QAEEXZ 0041dd0b f   v5subs:computer.obj
 0001:0001cd20       ?whoami@COMPUTER_CLASS@@QAEAAVSTRING_CLASS@@XZ 0041dd20 f   v5subs:computer.obj
 0001:0001cd26       ??1INI_CLASS@@QAE@XZ       0041dd26 f   v5subs:iniclass.obj
 0001:0001cd2b       ?cleanup@INI_CLASS@@QAEXXZ 0041dd2b f   v5subs:iniclass.obj
 0001:0001cd66       ?find@INI_CLASS@@QAEEPBD0@Z 0041dd66 f   v5subs:iniclass.obj
 0001:0001cdc9       ?find@INI_CLASS@@QAEEPBD@Z 0041ddc9 f   v5subs:iniclass.obj
 0001:0001cde2       ?get_bool@INI_CLASS@@QAE_NPBD0@Z 0041dde2 f   v5subs:iniclass.obj
 0001:0001cde2       ?get_boolean@INI_CLASS@@QAEEPBD0@Z 0041dde2 f   v5subs:iniclass.obj
 0001:0001ce05       ?get_boolean@INI_CLASS@@QAEEPBD@Z 0041de05 f   v5subs:iniclass.obj
 0001:0001ce05       ?get_bool@INI_CLASS@@QAE_NPBD@Z 0041de05 f   v5subs:iniclass.obj
 0001:0001ce1e       ?get_boolean@INI_CLASS@@QAEEXZ 0041de1e f   v5subs:iniclass.obj
 0001:0001ce1e       ?get_bool@INI_CLASS@@QAE_NXZ 0041de1e f   v5subs:iniclass.obj
 0001:0001ce3d       ?get_int@INI_CLASS@@QAEHPBD0@Z 0041de3d f   v5subs:iniclass.obj
 0001:0001ce60       ?get_int@INI_CLASS@@QAEHPBD@Z 0041de60 f   v5subs:iniclass.obj
 0001:0001ce79       ?get_int@INI_CLASS@@QAEHXZ 0041de79 f   v5subs:iniclass.obj
 0001:0001ce8a       ?get_string@INI_CLASS@@QAEPADPBD@Z 0041de8a f   v5subs:iniclass.obj
 0001:0001ceb7       ?get_string@INI_CLASS@@QAEPADXZ 0041deb7 f   v5subs:iniclass.obj
 0001:0001cec5       ?get_ul@INI_CLASS@@QAEKPBD@Z 0041dec5 f   v5subs:iniclass.obj
 0001:0001cedc       ?get_ul@INI_CLASS@@QAEKXZ  0041dedc f   v5subs:iniclass.obj
 0001:0001ceed       ?put_boolean@INI_CLASS@@QAEEPBD0E@Z 0041deed f   v5subs:iniclass.obj
 0001:0001cf1e       ?put_int@INI_CLASS@@QAEEPBDH@Z 0041df1e f   v5subs:iniclass.obj
 0001:0001cf64       ?put_string@INI_CLASS@@QAEEPBD00@Z 0041df64 f   v5subs:iniclass.obj
 0001:0001cfa5       ?put_string@INI_CLASS@@QAEEPBD0@Z 0041dfa5 f   v5subs:iniclass.obj
 0001:0001cfc2       ?set_file@INI_CLASS@@QAEEPBD@Z 0041dfc2 f   v5subs:iniclass.obj
 0001:0001d004       ?set_section@INI_CLASS@@QAEEPBD@Z 0041e004 f   v5subs:iniclass.obj
 0001:0001d038       ??0LIMIT_SWITCH_WIRE_CLASS@@QAE@XZ 0041e038 f   v5subs:limit_switch_class.obj
 0001:0001d055       ??1LIMIT_SWITCH_WIRE_CLASS@@QAE@XZ 0041e055 f   v5subs:limit_switch_class.obj
 0001:0001d06d       ?get@LIMIT_SWITCH_WIRE_CLASS@@QAEEAAVSTRING_CLASS@@00@Z 0041e06d f   v5subs:limit_switch_class.obj
 0001:0001d1c0       ?mask@LIMIT_SWITCH_WIRE_CLASS@@QAEIH@Z 0041e1c0 f   v5subs:limit_switch_class.obj
 0001:0001d1f5       ?wire_number@LIMIT_SWITCH_WIRE_CLASS@@QAEHH@Z 0041e1f5 f   v5subs:limit_switch_class.obj
 0001:0001d20f       ??1LISTBOX_CLASS@@QAE@XZ   0041e20f f   v5subs:listbox.obj
 0001:0001d21f       ?add@LISTBOX_CLASS@@QAEHPAD@Z 0041e21f f   v5subs:listbox.obj
 0001:0001d260       ?check_buf_size@LISTBOX_CLASS@@AAEEH@Z 0041e260 f   v5subs:listbox.obj
 0001:0001d29f       ?check_buf_size@LISTBOX_CLASS@@AAEEPAD@Z 0041e29f f   v5subs:listbox.obj
 0001:0001d2b8       ?check_item_size@LISTBOX_CLASS@@AAEEH@Z 0041e2b8 f   v5subs:listbox.obj
 0001:0001d2ef       ?count@LISTBOX_CLASS@@QAEHXZ 0041e2ef f   v5subs:listbox.obj
 0001:0001d319       ?empty@LISTBOX_CLASS@@QAEXXZ 0041e319 f   v5subs:listbox.obj
 0001:0001d330       ?init@LISTBOX_CLASS@@QAEEPAUHWND__@@@Z 0041e330 f   v5subs:listbox.obj
 0001:0001d391       ?init@LISTBOX_CLASS@@QAEEPAUHWND__@@H@Z 0041e391 f   v5subs:listbox.obj
 0001:0001d3ae       ?item_text@LISTBOX_CLASS@@QAEPADH@Z 0041e3ae f   v5subs:listbox.obj
 0001:0001d3f6       ?redraw_off@LISTBOX_CLASS@@QAEXXZ 0041e3f6 f   v5subs:listbox.obj
 0001:0001d405       ?redraw_on@LISTBOX_CLASS@@QAEXXZ 0041e405 f   v5subs:listbox.obj
 0001:0001d424       ?selected_index@LISTBOX_CLASS@@QAEHXZ 0041e424 f   v5subs:listbox.obj
 0001:0001d44f       ?selected_text@LISTBOX_CLASS@@QAEPADXZ 0041e44f f   v5subs:listbox.obj
 0001:0001d46d       ?set_current_index@LISTBOX_CLASS@@QAEEH@Z 0041e46d f   v5subs:listbox.obj
 0001:0001d494       ?set_top_index@LISTBOX_CLASS@@QAEEH@Z 0041e494 f   v5subs:listbox.obj
 0001:0001d4bb       ?top_index@LISTBOX_CLASS@@QAEHXZ 0041e4bb f   v5subs:listbox.obj
 0001:0001d4da       ?visible_row_count@LISTBOX_CLASS@@QAEHXZ 0041e4da f   v5subs:listbox.obj
 0001:0001d541       ??0MULTIPART_RUNLIST_SETTINGS_CLASS@@QAE@XZ 0041e541 f   v5subs:multipart_runlist.obj
 0001:0001d557       ??0MULTIPART_RUNLIST_WIRES_CLASS@@QAE@XZ 0041e557 f   v5subs:multipart_runlist.obj
 0001:0001d56d       ??1MULTIPART_RUNLIST_SETTINGS_CLASS@@QAE@XZ 0041e56d f   v5subs:multipart_runlist.obj
 0001:0001d575       ??1MULTIPART_RUNLIST_WIRES_CLASS@@QAE@XZ 0041e575 f   v5subs:multipart_runlist.obj
 0001:0001d57d       ?bits_from_wirelist@@YAIAAVSTRING_CLASS@@@Z 0041e57d f   v5subs:multipart_runlist.obj
 0001:0001d634       ?countchars@STRING_CLASS@@QAEJD@Z 0041e634 f i v5subs:multipart_runlist.obj
 0001:0001d64f       ?get@MULTIPART_RUNLIST_SETTINGS_CLASS@@QAE_NAAVSTRING_CLASS@@0@Z 0041e64f f   v5subs:multipart_runlist.obj
 0001:0001d92d       ?get@MULTIPART_RUNLIST_WIRES_CLASS@@QAE_NAAVSTRING_CLASS@@00@Z 0041e92d f   v5subs:multipart_runlist.obj
 0001:0001dac8       ?get_multipart_runlist_wires_csvname@NAME_CLASS@@QAEEAAVSTRING_CLASS@@0V2@@Z 0041eac8 f i v5subs:multipart_runlist.obj
 0001:0001daf1       ?get_wirelist@MULTIPART_RUNLIST_SETTINGS_CLASS@@QAE_NAAVSTRING_CLASS@@H@Z 0041eaf1 f   v5subs:multipart_runlist.obj
 0001:0001dbcc       ?init@MULTIPART_RUNLIST_SETTINGS_CLASS@@QAEXXZ 0041ebcc f   v5subs:multipart_runlist.obj
 0001:0001dbd4       ?part_selection_number@MULTIPART_RUNLIST_SETTINGS_CLASS@@QAEHAAVSTRING_CLASS@@@Z 0041ebd4 f   v5subs:multipart_runlist.obj
 0001:0001dc98       ?part_to_run@MULTIPART_RUNLIST_SETTINGS_CLASS@@QAE_NAAVSTRING_CLASS@@00I@Z 0041ec98 f   v5subs:multipart_runlist.obj
 0001:0001dd62       ??0MACHINE_CLASS@@QAE@XZ   0041ed62 f   v5subs:machine.obj
 0001:0001ddc9       ?find@MACHINE_CLASS@@QAEEAAVSTRING_CLASS@@0@Z 0041edc9 f   v5subs:machine.obj
 0001:0001e01f       ?has_binary_valve@MACHINE_CLASS@@QAEEXZ 0041f01f f   v5subs:machine.obj
 0001:0001e028       ?init@MACHINE_CLASS@@QAEXXZ 0041f028 f   v5subs:machine.obj
 0001:0001e0b1       ?init_save_counts@@YAXPAUSAVE_COUNTS@@@Z 0041f0b1 f   v5subs:machine.obj
 0001:0001e0ca       ?ls_off_at_eos@MACHINE_CLASS@@QAEEXZ 0041f0ca f   v5subs:machine.obj
 0001:0001e0d1       ?read_machset_db@MACHINE_CLASS@@QAEEAAVSTRING_CLASS@@@Z 0041f0d1 f   v5subs:machine.obj
 0001:0001e669       ??1GENERIC_LIST_CLASS@@QAE@XZ 0041f669 f   v5subs:genlist.obj
 0001:0001e68b       ?append@GENERIC_LIST_CLASS@@QAEEPAX@Z 0041f68b f   v5subs:genlist.obj
 0001:0001e6c1       ?count@GENERIC_LIST_CLASS@@QAEFXZ 0041f6c1 f   v5subs:genlist.obj
 0001:0001e6cd       ?find@GENERIC_LIST_CLASS@@QAEEPAX@Z 0041f6cd f   v5subs:genlist.obj
 0001:0001e705       ?insert@GENERIC_LIST_CLASS@@QAEEPAX@Z 0041f705 f   v5subs:genlist.obj
 0001:0001e755       ?next@GENERIC_LIST_CLASS@@QAEPAXXZ 0041f755 f   v5subs:genlist.obj
 0001:0001e77f       ?remove@GENERIC_LIST_CLASS@@QAEEPAX@Z 0041f77f f   v5subs:genlist.obj
 0001:0001e79e       ?remove@GENERIC_LIST_CLASS@@QAEEXZ 0041f79e f   v5subs:genlist.obj
 0001:0001e7cd       ?remove_all@GENERIC_LIST_CLASS@@QAEXXZ 0041f7cd f   v5subs:genlist.obj
 0001:0001e7f6       ?rewind@GENERIC_LIST_CLASS@@QAEXXZ 0041f7f6 f   v5subs:genlist.obj
 0001:0001e7ff       ??1MACHINE_NAME_LIST_CLASS@@QAE@XZ 0041f7ff f   v5subs:machname.obj
 0001:0001e810       ??_GMACHINE_NAME_LIST_ENTRY@@QAEPAXI@Z 0041f810 f i v5subs:machname.obj
 0001:0001e836       ?add_computer@MACHINE_NAME_LIST_CLASS@@QAEEAAVSTRING_CLASS@@@Z 0041f836 f   v5subs:machname.obj
 0001:0001e998       ?computer_name@MACHINE_NAME_LIST_CLASS@@QAEAAVSTRING_CLASS@@XZ 0041f998 f   v5subs:machname.obj
 0001:0001e9a4       ?empty@MACHINE_NAME_LIST_CLASS@@QAEXXZ 0041f9a4 f   v5subs:machname.obj
 0001:0001e9d0       ?name@MACHINE_NAME_LIST_CLASS@@QAEAAVSTRING_CLASS@@XZ 0041f9d0 f   v5subs:machname.obj
 0001:0001e9e0       ?next@TEXT_LIST_CLASS@@QAEEXZ 0041f9e0 f   v5subs:textlist.obj
 0001:0001e9e0       ?next@MACHINE_NAME_LIST_CLASS@@QAEEXZ 0041f9e0 f   v5subs:machname.obj
 0001:0001e9f4       ??0BLOCK_MESSAGE_CLASS@@QAE@XZ 0041f9f4 f   v5subs:msgclas.obj
 0001:0001ea01       ??1BLOCK_MESSAGE_CLASS@@QAE@XZ 0041fa01 f   v5subs:msgclas.obj
 0001:0001ea11       ?cleanup@BLOCK_MESSAGE_CLASS@@QAEXXZ 0041fa11 f   v5subs:msgclas.obj
 0001:0001ea48       ?load@BLOCK_MESSAGE_CLASS@@QAEEPAD@Z 0041fa48 f   v5subs:msgclas.obj
 0001:0001eb46       ?message@BLOCK_MESSAGE_CLASS@@QAEPADJ@Z 0041fb46 f   v5subs:msgclas.obj
 0001:0001ef25       ?register_vtww_opto_control@@YAXXZ 0041ff25 f   v5subs:optocontrol.obj
 0001:0001f0a3       ?shutdown_vtww_opto_control@@YAXXZ 004200a3 f   v5subs:optocontrol.obj
 0001:0001f0ee       ?vtww_opto_proc@@YGJPAUHWND__@@IIJ@Z 004200ee f   v5subs:optocontrol.obj
 0001:0001f202       ??0MULTISTRING_CLASS@@QAE@XZ 00420202 f   v5subs:multistring.obj
 0001:0001f21a       ??1MULTISTRING_CLASS@@QAE@XZ 0042021a f   v5subs:multistring.obj
 0001:0001f22a       ??AMULTISTRING_CLASS@@QAEAAV0@H@Z 0042022a f   v5subs:multistring.obj
 0001:0001f23c       ??_ESTRING_CLASS@@QAEPAXI@Z 0042023c f i v5subs:multistring.obj
 0001:0001f28c       ?empty_array@MULTISTRING_CLASS@@QAE_NXZ 0042028c f   v5subs:multistring.obj
 0001:0001f2ae       ?find@MULTISTRING_CLASS@@QAEHAAVSTRING_CLASS@@@Z 004202ae f   v5subs:multistring.obj
 0001:0001f2de       ?goto_index@MULTISTRING_CLASS@@QAE_NH@Z 004202de f   v5subs:multistring.obj
 0001:0001f31e       ?next@MULTISTRING_CLASS@@QAE_NXZ 0042031e f   v5subs:multistring.obj
 0001:0001f35c       ?remove@MULTISTRING_CLASS@@QAE_NH@Z 0042035c f   v5subs:multistring.obj
 0001:0001f44f       ?rewind@MULTISTRING_CLASS@@QAE_NXZ 0042044f f   v5subs:multistring.obj
 0001:0001f46d       ?set_array_size@MULTISTRING_CLASS@@QAE_NH@Z 0042046d f   v5subs:multistring.obj
 0001:0001f567       ?split@MULTISTRING_CLASS@@QAE_ND@Z 00420567 f   v5subs:multistring.obj
 0001:0001f621       ??0VDB_CLASS@@QAE@XZ       00420621 f   v5subs:vdbclass.obj
 0001:0001f6b5       ??1VDB_CLASS@@QAE@XZ       004206b5 f   v5subs:vdbclass.obj
 0001:0001f6ee       ?close@VDB_CLASS@@QAEXXZ   004206ee f   v5subs:vdbclass.obj
 0001:0001f712       ?create@VDB_CLASS@@QAE_NPAD@Z 00420712 f   v5subs:vdbclass.obj
 0001:0001f771       ?ensure_existance@VDB_CLASS@@QAE_NAAVSTRING_CLASS@@@Z 00420771 f   v5subs:vdbclass.obj
 0001:0001f7a5       ?get_rec@VDB_CLASS@@QAE_NXZ 004207a5 f   v5subs:vdbclass.obj
 0001:0001f89e       ?goto_last_record@VDB_CLASS@@QAE_NXZ 0042089e f   v5subs:vdbclass.obj
 0001:0001f8ec       ?goto_next_record@VDB_CLASS@@QAEHXZ 004208ec f   v5subs:vdbclass.obj
 0001:0001f988       ?goto_prev_record@VDB_CLASS@@QAEHXZ 00420988 f   v5subs:vdbclass.obj
 0001:0001f9b6       ?goto_record_number@VDB_CLASS@@QAE_NH@Z 004209b6 f   v5subs:vdbclass.obj
 0001:0001faa3       ?goto_start_of_record@VDB_CLASS@@QAEHXZ 00420aa3 f   v5subs:vdbclass.obj
 0001:0001fbdc       ?nof_recs@VDB_CLASS@@QAEHXZ 00420bdc f   v5subs:vdbclass.obj
 0001:0001fbe3       ?open@VDB_CLASS@@QAE_NPADH@Z 00420be3 f   v5subs:vdbclass.obj
 0001:0001fd98       ?open_for_read@VDB_CLASS@@QAE_NVSTRING_CLASS@@@Z 00420d98 f   v5subs:vdbclass.obj
 0001:0001fdc1       ?open_for_rw@VDB_CLASS@@QAE_NAAVSTRING_CLASS@@@Z 00420dc1 f   v5subs:vdbclass.obj
 0001:0001fddd       ?open_for_shared_rw@VDB_CLASS@@QAE_NAAVSTRING_CLASS@@@Z 00420ddd f   v5subs:vdbclass.obj
 0001:0001fdf9       ?put_bitsetype@VDB_CLASS@@QAE_NHG@Z 00420df9 f   v5subs:vdbclass.obj
 0001:0001fe34       ?put_date@VDB_CLASS@@QAE_NHABU_SYSTEMTIME@@@Z 00420e34 f   v5subs:vdbclass.obj
 0001:0001fe66       ?put_time@VDB_CLASS@@QAE_NHAAU_SYSTEMTIME@@@Z 00420e66 f   v5subs:vdbclass.obj
 0001:0001fe98       ?rec_append@VDB_CLASS@@QAE_NXZ 00420e98 f   v5subs:vdbclass.obj
 0001:0001ff0f       ?rec_delete@VDB_CLASS@@QAE_NH@Z 00420f0f f   v5subs:vdbclass.obj
 0001:000201dd       ?set_nof_cols@VDB_CLASS@@QAE_NH@Z 004211dd f   v5subs:vdbclass.obj
 0001:00020223       ?write_record@VDB_CLASS@@QAE_NXZ 00421223 f   v5subs:vdbclass.obj
 0001:00020339       ??0STATIC_TEXT_PARAMETER_CLASS@@QAE@XZ 00421339 f   v5subs:static_text_parameter.obj
 0001:00020356       ??1STATIC_TEXT_PARAMETER_CLASS@@QAE@XZ 00421356 f   v5subs:static_text_parameter.obj
 0001:00020369       ?clear@STATIC_TEXT_PARAMETER_CLASS@@QAEXXZ 00421369 f   v5subs:static_text_parameter.obj
 0001:00020384       ?get@STATIC_TEXT_PARAMETER_CLASS@@QAEEH@Z 00421384 f   v5subs:static_text_parameter.obj
 0001:00020466       ?init@STATIC_TEXT_PARAMETER_CLASS@@QAEEAAVSTRING_CLASS@@00@Z 00421466 f   v5subs:static_text_parameter.obj
 0001:0002046b       ?put@STATIC_TEXT_PARAMETER_CLASS@@QAEEH@Z 0042146b f   v5subs:static_text_parameter.obj
 0001:0002065d       ??0PARAMETER_CLASS@@QAE@XZ 0042165d f   v5subs:param.obj
 0001:000206a4       ??0PARAMETER_ENTRY@@QAE@XZ 004216a4 f i v5subs:param.obj
 0001:000206d2       ?count@PARAMETER_CLASS@@QAEFXZ 004216d2 f   v5subs:param.obj
 0001:000206f0       ?find@PARAMETER_CLASS@@QAEEAAVSTRING_CLASS@@00@Z 004216f0 f   v5subs:param.obj
 0001:000207ae       ?has_alarm_limits@PARAMETER_ENTRY@@QAEEXZ 004217ae f   v5subs:param.obj
 0001:000207c5       ?has_warning_limits@PARAMETER_ENTRY@@QAEEXZ 004217c5 f   v5subs:param.obj
 0001:000207dc       ?init@PARAMETER_CLASS@@QAEXF@Z 004217dc f   v5subs:param.obj
 0001:0002084e       ?is_alarm@PARAMETER_ENTRY@@QAEEM@Z 0042184e f   v5subs:param.obj
 0001:000208eb       ?is_warning@PARAMETER_ENTRY@@QAEEM@Z 004218eb f   v5subs:param.obj
 0001:0002091a       ?read_param_csv@PARAMETER_CLASS@@QAEEAAVSTRING_CLASS@@@Z 0042191a f   v5subs:param.obj
 0001:00020ba4       ?read_param_db@PARAMETER_CLASS@@QAEEAAVSTRING_CLASS@@@Z 00421ba4 f   v5subs:param.obj
 0001:00020d53       ?save@PARAMETER_CLASS@@QAEEXZ 00421d53 f   v5subs:param.obj
 0001:00020f5b       ??0SETPOINT_CLASS@@QAE@XZ  00421f5b f   v5subs:setpoint.obj
 0001:00020f65       ??1SETPOINT_CLASS@@QAE@XZ  00421f65 f   v5subs:setpoint.obj
 0001:00020f6a       ??4SETPOINT_CLASS@@QAEXABV0@@Z 00421f6a f   v5subs:setpoint.obj
 0001:00020fbd       ??4SETPOINT_ENTRY@@QAEXABU0@@Z 00421fbd f   v5subs:setpoint.obj
 0001:00020fdc       ??ASETPOINT_CLASS@@QAEAAUSETPOINT_ENTRY@@H@Z 00421fdc f   v5subs:setpoint.obj
 0001:00020ff8       ??_ESETPOINT_ENTRY@@QAEPAXI@Z 00421ff8 f i v5subs:setpoint.obj
 0001:00021061       ?cleanup@SETPOINT_CLASS@@QAEXXZ 00422061 f   v5subs:setpoint.obj
 0001:0002107c       ?get@SETPOINT_CLASS@@QAEHAAVSTRING_CLASS@@@Z 0042207c f   v5subs:setpoint.obj
 0001:00021093       ?get_one_value@SETPOINT_CLASS@@QAEEAAVSTRING_CLASS@@0H@Z 00422093 f   v5subs:setpoint.obj
 0001:0002111b       ?getfrom@SETPOINT_CLASS@@QAEHAAVSTRING_CLASS@@@Z 0042211b f   v5subs:setpoint.obj
 0001:00021206       ?put@SETPOINT_CLASS@@QAEEAAVSTRING_CLASS@@@Z 00422206 f   v5subs:setpoint.obj
 0001:000212ed       ?setsize@SETPOINT_CLASS@@QAEEH@Z 004222ed f   v5subs:setpoint.obj
 0001:000213ea       ??0PART_CLASS@@QAE@XZ      004223ea f   v5subs:part.obj
 0001:00021420       ??1PART_CLASS@@QAE@XZ      00422420 f   v5subs:part.obj
 0001:0002144e       ?find@PART_CLASS@@QAEEAAVSTRING_CLASS@@00@Z 0042244e f   v5subs:part.obj
 0001:00021787       ?init@PART_CLASS@@QAEXXZ   00422787 f   v5subs:part.obj
 0001:000218ad       ?plunger_area@PART_CLASS@@QAENXZ 004228ad f   v5subs:part.obj
 0001:000218f8       ?read_ftchan_db@PART_CLASS@@QAEEAAVSTRING_CLASS@@@Z 004228f8 f   v5subs:part.obj
 0001:0002199e       ?read_part_setup@PART_CLASS@@QAEEAAVSTRING_CLASS@@@Z 0042299e f   v5subs:part.obj
 0001:000219ff       ?read_x4_divisor@PART_CLASS@@QAEEXZ 004229ff f   v5subs:part.obj
 0001:00021b40       ?update@PART_CLASS@@QAEEXZ 00422b40 f   v5subs:part.obj
 0001:00021f39       ?velocity_from_x4@PART_CLASS@@QAENN@Z 00422f39 f   v5subs:part.obj
 0001:00021f4c       ??4TIME_CLASS@@QAEXPBD@Z   00422f4c f   v5subs:timeclas.obj
 0001:00021fd6       ??GTIME_CLASS@@QAEJABV0@@Z 00422fd6 f   v5subs:timeclas.obj
 0001:00021fe3       ??ZTIME_CLASS@@QAEXK@Z     00422fe3 f   v5subs:timeclas.obj
 0001:00021ff9       ?dd@TIME_CLASS@@QAEPADXZ   00422ff9 f   v5subs:timeclas.obj
 0001:00022006       ?file_time@TIME_CLASS@@QAEAAU_FILETIME@@XZ 00423006 f   v5subs:timeclas.obj
 0001:00022048       ?get@TIME_CLASS@@QAEEAAU_SYSTEMTIME@@@Z 00423048 f   v5subs:timeclas.obj
 0001:00022143       ?get_local_time@TIME_CLASS@@QAEXXZ 00423143 f   v5subs:timeclas.obj
 0001:0002217a       ?hh@TIME_CLASS@@QAEPADXZ   0042317a f   v5subs:timeclas.obj
 0001:00022184       ?hhmmss@TIME_CLASS@@QAEPADXZ 00423184 f   v5subs:timeclas.obj
 0001:000221f1       ?jjj@TIME_CLASS@@QAEPADXZ  004231f1 f   v5subs:timeclas.obj
 0001:0002228a       ?mi@TIME_CLASS@@QAEPADXZ   0042328a f   v5subs:timeclas.obj
 0001:00022297       ?mm@TIME_CLASS@@QAEPADXZ   00423297 f   v5subs:timeclas.obj
 0001:000222a1       ?mmddyyyy@TIME_CLASS@@QAEPADXZ 004232a1 f   v5subs:timeclas.obj
 0001:000222ea       ?mmm@TIME_CLASS@@QAEPADXZ  004232ea f   v5subs:timeclas.obj
 0001:0002231f       ?set@TIME_CLASS@@QAEEABU_FILETIME@@@Z 0042331f f   v5subs:timeclas.obj
 0001:0002235e       ?set@TIME_CLASS@@QAEEABU_SYSTEMTIME@@@Z 0042335e f   v5subs:timeclas.obj
 0001:000223ff       ?set_time@TIME_CLASS@@QAEXPBD@Z 004233ff f   v5subs:timeclas.obj
 0001:00022454       ?system_time@TIME_CLASS@@QAEAAU_SYSTEMTIME@@XZ 00423454 f   v5subs:timeclas.obj
 0001:00022464       ?text@TIME_CLASS@@QAEPADXZ 00423464 f   v5subs:timeclas.obj
 0001:000224cb       ?yy@TIME_CLASS@@QAEPADXZ   004234cb f   v5subs:timeclas.obj
 0001:000224d8       ?yyyy@TIME_CLASS@@QAEPADXZ 004234d8 f   v5subs:timeclas.obj
 0001:000224e1       ??0PLOOKUP_CLASS@@QAE@XZ   004234e1 f   v5subs:plookup.obj
 0001:000224e1       ??0SHOT_NAME_RESET_CLASS@@QAE@XZ 004234e1 f   v5subs:shot_name_reset.obj
 0001:000224e1       ??0EXTERNAL_SHOT_NAME_CLASS@@QAE@XZ 004234e1 f   v5subs:shot_name.obj
 0001:000224e1       ??0SHOT_NAME_CLASS@@QAE@XZ 004234e1 f   v5subs:shot_name.obj
 0001:000224f5       ??1SHOT_NAME_RESET_CLASS@@QAE@XZ 004234f5 f   v5subs:shot_name_reset.obj
 0001:000224f5       ??1SHOT_NAME_CLASS@@QAE@XZ 004234f5 f   v5subs:shot_name.obj
 0001:000224f5       ??1PLOOKUP_CLASS@@QAE@XZ   004234f5 f   v5subs:plookup.obj
 0001:000224f5       ??1EXTERNAL_SHOT_NAME_CLASS@@QAE@XZ 004234f5 f   v5subs:shot_name.obj
 0001:00022508       ?get@PLOOKUP_CLASS@@QAEHXZ 00423508 f   v5subs:plookup.obj
 0001:0002263f       ?get_last_shot_name@PLOOKUP_CLASS@@QAEEAAVSTRING_CLASS@@000@Z 0042363f f   v5subs:plookup.obj
 0001:0002267b       ?get_last_shot_number@PLOOKUP_CLASS@@QAEHXZ 0042367b f   v5subs:plookup.obj
 0001:0002269b       ?get_time@PLOOKUP_CLASS@@QAEEAAVTIME_CLASS@@@Z 0042369b f   v5subs:plookup.obj
 0001:00022728       ?init@PLOOKUP_CLASS@@QAEEAAVSTRING_CLASS@@00@Z 00423728 f   v5subs:plookup.obj
 0001:00022744       ?put@PLOOKUP_CLASS@@QAEEXZ 00423744 f   v5subs:plookup.obj
 0001:00022862       ?set_last_shot_name@PLOOKUP_CLASS@@QAEEAAVSTRING_CLASS@@@Z 00423862 f   v5subs:plookup.obj
 0001:00022883       ?set_last_shot_number@PLOOKUP_CLASS@@QAEEH@Z 00423883 f   v5subs:plookup.obj
 0001:000228a4       ?set_time@PLOOKUP_CLASS@@QAEEAAVTIME_CLASS@@@Z 004238a4 f   v5subs:plookup.obj
 0001:000228eb       ??0RECTANGLE_CLASS@@QAE@XZ 004238eb f   v5subs:rectclas.obj
 0001:000228fb       ??4RECTANGLE_CLASS@@QAEXABV0@@Z 004238fb f   v5subs:rectclas.obj
 0001:00022918       ?contains@RECTANGLE_CLASS@@QAEEABUtagPOINT@@@Z 00423918 f   v5subs:rectclas.obj
 0001:0002293d       ?draw@RECTANGLE_CLASS@@QAEXPAUHDC__@@@Z 0042393d f   v5subs:rectclas.obj
 0001:00022982       ?draw@RECTANGLE_CLASS@@QAEXPAUHDC__@@K@Z 00423982 f   v5subs:rectclas.obj
 0001:000229c7       ?fill@RECTANGLE_CLASS@@QAEXPAUHDC__@@K@Z 004239c7 f   v5subs:rectclas.obj
 0001:00022a09       ?fill@RECTANGLE_CLASS@@QAEXPAUHDC__@@PAUHBRUSH__@@@Z 00423a09 f   v5subs:rectclas.obj
 0001:00022a1b       ?moveto@RECTANGLE_CLASS@@QAEXJJ@Z 00423a1b f   v5subs:rectclas.obj
 0001:00022a3c       ?offset@RECTANGLE_CLASS@@QAEXJJ@Z 00423a3c f   v5subs:rectclas.obj
 0001:00022a52       ?setsize@RECTANGLE_CLASS@@QAEXJJ@Z 00423a52 f   v5subs:rectclas.obj
 0001:00022a52       ?setsize@RECTANGLE_CLASS@@QAEXUtagSIZE@@@Z 00423a52 f   v5subs:rectclas.obj
 0001:00022a68       ??0SURETRAK_PARAM_CLASS@@QAE@XZ 00423a68 f   v5subs:stparam.obj
 0001:00022aae       ??1SOURCE_DATA@@QAE@XZ     00423aae f   v5subs:ftcalc.obj
 0001:00022aae       ??1ANALOG_SENSOR@@QAE@XZ   00423aae f   v5subs:asensor.obj
 0001:00022aae       ??1SURETRAK_PARAM_CLASS@@QAE@XZ 00423aae f   v5subs:stparam.obj
 0001:00022aae       ??1SHIFT_CLASS@@QAE@XZ     00423aae f   v5subs:shift.obj
 0001:00022aae       ??1FONT_CLASS@@QAE@XZ      00423aae f   v5subs:fontclas.obj
 0001:00022aae       ??1RECTANGLE_CLASS@@QAE@XZ 00423aae f   v5subs:rectclas.obj
 0001:00022aaf       ?find@SURETRAK_PARAM_CLASS@@QAEEAAVSTRING_CLASS@@0@Z 00423aaf f   v5subs:stparam.obj
 0001:00022ba5       ??0STRINGTABLE_CLASS@@QAE@XZ 00423ba5 f   v5subs:stringtable.obj
 0001:00022bbd       ??1STRINGTABLE_CLASS@@QAE@XZ 00423bbd f   v5subs:stringtable.obj
 0001:00022be7       ?append@STRINGTABLE_CLASS@@QAE_NAAVSTRING_CLASS@@PAD@Z 00423be7 f   v5subs:stringtable.obj
 0001:00022bf9       ?find@STRINGTABLE_CLASS@@QAE_NAAVSTRING_CLASS@@PAD@Z 00423bf9 f   v5subs:stringtable.obj
 0001:00022c0b       ?find@STRINGTABLE_CLASS@@QAE_NAAVSTRING_CLASS@@PAD_N@Z 00423c0b f   v5subs:stringtable.obj
 0001:00022cb9       ?set_language@STRINGTABLE_CLASS@@QAEXAAVSTRING_CLASS@@@Z 00423cb9 f   v5subs:stringtable.obj
 0001:00022da0       ??0PART_NAME_ENTRY@@QAE@XZ 00423da0 f   v5subs:structs.obj
 0001:00022dbc       ??4PART_NAME_ENTRY@@QAEXABU0@@Z 00423dbc f   v5subs:structs.obj
 0001:00022de7       ??4PROFILE_NAME_ENTRY@@QAEXABUPART_NAME_ENTRY@@@Z 00423de7 f   v5subs:structs.obj
 0001:00022dfe       ?set@PROFILE_NAME_ENTRY@@QAEXABVSTRING_CLASS@@00PBD@Z 00423dfe f   v5subs:structs.obj
 0001:00022e32       ??0PRESSURE_CONTROL_CLASS@@QAE@XZ 00423e32 f   v5subs:stpres.obj
 0001:00022e97       ??0PRES_CONTROL_STEP_ENTRY@@QAE@XZ 00423e97 f i v5subs:stpres.obj
 0001:00022eb3       ??1PRESSURE_CONTROL_CLASS@@QAE@XZ 00423eb3 f   v5subs:stpres.obj
 0001:00022f11       ??1PRES_CONTROL_STEP_ENTRY@@QAE@XZ 00423f11 f i v5subs:stpres.obj
 0001:00022f2c       ?find@PRESSURE_CONTROL_CLASS@@QAEEAAVSTRING_CLASS@@00@Z 00423f2c f   v5subs:stpres.obj
 0001:000231cc       ?init@PRESSURE_CONTROL_CLASS@@QAEXXZ 004241cc f   v5subs:stpres.obj
 0001:00023257       ?boolean_from_ini@@YAEPBD00@Z 00424257 f   v5subs:get_ini.obj
 0001:00023277       ?get_ini_string@@YAPADPBD00@Z 00424277 f   v5subs:get_ini.obj
 0001:0002329b       ?get_long_ini_string@@YAPADPBD00@Z 0042429b f   v5subs:get_ini.obj
 0001:0002330f       ?int32_from_ini@@YAJPBD00@Z 0042430f f   v5subs:get_ini.obj
 0001:0002332a       ?catstring@@YAPADPADPBD@Z  0042432a f   v5subs:mem.obj
 0001:00023347       ?char_to_tchar@@YAXPAD0H@Z 00424347 f   v5subs:mem.obj
 0001:00023381       ?charlen@@YAFPBDF@Z        00424381 f   v5subs:mem.obj
 0001:000233a4       ?compare@@YAFPBD0F@Z       004243a4 f   v5subs:mem.obj
 0001:00023408       ?copy_w_char@@YAPADPAD0D@Z 00424408 f   v5subs:mem.obj
 0001:0002341f       ?copychars@@YAXPADPBDF@Z   0042441f f   v5subs:mem.obj
 0001:00023441       ?copyfromstr@@YAXPADPBDF@Z 00424441 f   v5subs:mem.obj
 0001:00023481       ?copystring@@YAPADPADPBD@Z 00424481 f   v5subs:mem.obj
 0001:000234ba       ?copystring@@YAPADPADPBDH@Z 004244ba f   v5subs:mem.obj
 0001:000234ff       ?countchars@@YAJDPBD@Z     004244ff f   v5subs:mem.obj
 0001:00023520       ?fillchars@@YAXPADDF@Z     00424520 f   v5subs:mem.obj
 0001:0002353f       ?find_last_string@@YAPADPBDPAD@Z 0042453f f   v5subs:mem.obj
 0001:000235d9       ?findchar@@YAPADDPADF@Z    004245d9 f   v5subs:mem.obj
 0001:00023604       ?findchar@@YAPADDPAD@Z     00424604 f   v5subs:mem.obj
 0001:00023604       ?findchar@@YAPBDDPBD@Z     00424604 f   v5subs:mem.obj
 0001:00023620       ?findstring@@YAPADPBDPAD@Z 00424620 f   v5subs:mem.obj
 0001:0002368f       ?insert_char@@YAXPADD@Z    0042468f f   v5subs:mem.obj
 0001:000236b3       ?killtext@@YAXPAD@Z        004246b3 f   v5subs:mem.obj
 0001:000236bf       ?maketext@@YAPADJ@Z        004246bf f   v5subs:mem.obj
 0001:000236d8       ?maketext@@YAPADPBD@Z      004246d8 f   v5subs:mem.obj
 0001:000236e6       ?maketext@@YAPADPBDJ@Z     004246e6 f   v5subs:mem.obj
 0001:00023719       ?maketext_from_char@@YAPADPADH@Z 00424719 f   v5subs:mem.obj
 0001:00023759       ?move_string_forward@@YAXPADH@Z 00424759 f   v5subs:mem.obj
 0001:00023789       ?nextstring@@YAPADPAD@Z    00424789 f   v5subs:mem.obj
 0001:0002379a       ?remove_char@@YAXPAD@Z     0042479a f   v5subs:mem.obj
 0001:000237b5       ?replace_char_with_null@@YAEPADD@Z 004247b5 f   v5subs:mem.obj
 0001:000237e2       ?replace_char_with_null@@YAEPADPBD@Z 004247e2 f   v5subs:mem.obj
 0001:00023820       ?replace_tab_with_null@@YAEPAD@Z 00424820 f   v5subs:mem.obj
 0001:00023834       ?start_chars_are_equal@@YA_NPBD0@Z 00424834 f   v5subs:mem.obj
 0001:0002385f       ?strings_are_equal@@YAEPBD0@Z 0042485f f   v5subs:mem.obj
 0001:00023894       ?strings_are_equal@@YAEPBD0F@Z 00424894 f   v5subs:mem.obj
 0001:000238b0       ?strip@@YAXPAD@Z           004248b0 f   v5subs:mem.obj
 0001:000238dd       ?tchar_to_int@@YAHD@Z      004248dd f   v5subs:mem.obj
 0001:000238f2       ?trim@@YAXPAD@Z            004248f2 f   v5subs:mem.obj
 0001:00023920       ?ul_to_char@@YADK@Z        00424920 f   v5subs:mem.obj
 0001:00023925       ?unicode_to_char@@YAXPAD0@Z 00424925 f   v5subs:mem.obj
 0001:0002394e       ?upper_case@@YAXAAD@Z      0042494e f   v5subs:mem.obj
 0001:0002396f       ?upper_case@@YAXPAD@Z      0042496f f   v5subs:mem.obj
 0001:00023998       ?utoi@@YAHI@Z              00424998 f   v5subs:mem.obj
 0001:0002399d       ?wchar_to_char@@YAXPADPA_WH@Z 0042499d f   v5subs:mem.obj
 0001:000239c7       ??0EVENT_ENTRY@@QAE@XZ     004249c7 f i v5subs:client.obj
 0001:000239de       ??_GEVENT_ENTRY@@QAEPAXI@Z 004249de f i v5subs:client.obj
 0001:00023a04       ?client_dde_shutdown@@YAXXZ 00424a04 f   v5subs:client.obj
 0001:00023ac0       ?client_dde_startup@@YAXPAUHWND__@@@Z 00424ac0 f   v5subs:client.obj
 0001:00023ace       ?client_dde_startup@@YAXXZ 00424ace f   v5subs:client.obj
 0001:00023b62       ?connect_to_server@@YAPAUHCONV__@@PAD@Z 00424b62 f   v5subs:client.obj
 0001:00023bc5       ?connect_to_server@@YAXXZ  00424bc5 f   v5subs:client.obj
 0001:00023c2d       ?dde_callback@@YGPAUHDDEDATA__@@IIPAUHCONV__@@PAUHSZ__@@1PAU1@KK@Z 00424c2d f   v5subs:client.obj
 0001:00023d2b       ?find_conversation@@YAPAUEVENT_ENTRY@@PAUHCONV__@@@Z 00424d2b f   v5subs:client.obj
 0001:00023dc6       ?get_current_password_level@@YAXXZ 00424dc6 f   v5subs:client.obj
 0001:00023e0b       ?hot_links@@YAXPAUEVENT_ENTRY@@I@Z 00424e0b f   v5subs:client.obj
 0001:00023e44       ?one_hot_link@@YAXPAUHCONV__@@FI@Z 00424e44 f   v5subs:client.obj
 0001:00023eab       ?poke_data@@YAXPAD00@Z     00424eab f   v5subs:client.obj
 0001:00023f9f       ?register_for_event@@YAXPADFP6AX0FPAUHDDEDATA__@@@Z@Z 00424f9f f   v5subs:client.obj
 0001:00024072       ?unregister_for_event@@YAXPADF@Z 00425072 f   v5subs:client.obj
 0001:00024116       ?dcurve_shutdown@@YAXXZ    00425116 f   v5subs:dcurve.obj
 0001:0002411b       ?dcurve_startup@@YAEXZ     0042511b f   v5subs:dcurve.obj
 0001:00024120       ?get_dcurve_coefficients@@YAEAAN0H@Z 00425120 f   v5subs:dcurve.obj
 0001:000242ba       ?execute_and_wait@@YAEPAD0@Z 004252ba f   v5subs:execwait.obj
 0001:000242d0       ?execute_and_wait@@YAEPAD0K@Z 004252d0 f   v5subs:execwait.obj
 0001:0002434b       ?copy_unicode_to_char@@YAXPADPA_W@Z 0042534b f   v5subs:gexedir.obj
 0001:00024369       ?exe_directory@@YAPBDXZ    00425369 f   v5subs:gexedir.obj
 0001:0002438f       ?get_exe_directory@@YAEPAD@Z 0042538f f   v5subs:gexedir.obj
 0001:0002445f       ?free_shotsave_semaphore@@YAXXZ 0042545f f   v5subs:semaphor.obj
 0001:00024469       ?get_shotsave_semaphore@@YAEAAVSTRING_CLASS@@0@Z 00425469 f   v5subs:semaphor.obj
 0001:000244f5       ?fix_dde_name@@YAXPAD@Z    004254f5 f   v5subs:fix.obj
 0001:00024525       ?fixed_string@@YAPADNJJ@Z  00425525 f   v5subs:ftoasc.obj
 0001:00024648       ?position_string@@YAPADN@Z 00425648 f   v5subs:ftoasc.obj
 0001:00024773       ?average_character_width@@YAJPAUHDC__@@@Z 00425773 f   v5subs:winsubs.obj
 0001:000247a2       ?character_height@@YAJPAUHDC__@@@Z 004257a2 f   v5subs:winsubs.obj
 0001:000247d1       ?free_megabytes@@YAJPBD@Z  004257d1 f   v5subs:winsubs.obj
 0001:00024819       ?get_text@@YAEPADPAUHWND__@@H@Z 00425819 f   v5subs:winsubs.obj
 0001:00024840       ?is_a_listbox@@YAEPAUHWND__@@@Z 00425840 f   v5subs:winsubs.obj
 0001:000248aa       ?is_checked@@YAEPAUHWND__@@@Z 004258aa f   v5subs:winsubs.obj
 0001:000248c5       ?is_checked@@YAEPAUHWND__@@H@Z 004258c5 f   v5subs:winsubs.obj
 0001:000248db       ?is_previous_instance@@YAEPAD0@Z 004258db f   v5subs:winsubs.obj
 0001:00024908       ?pixel_width@@YAJPAUHDC__@@PAD@Z 00425908 f   v5subs:winsubs.obj
 0001:0002492e       ?resource_message_box@@YAHPAUHINSTANCE__@@III@Z 0042592e f   v5subs:winsubs.obj
 0001:00024949       ?resource_message_box@@YAHPAUHWND__@@PAUHINSTANCE__@@III@Z 00425949 f   v5subs:winsubs.obj
 0001:000249e2       ?resource_string@@YAPADPAUHINSTANCE__@@I@Z 004259e2 f   v5subs:winsubs.obj
 0001:00024a10       ?set_checkbox@@YAXPAUHWND__@@E@Z 00425a10 f   v5subs:winsubs.obj
 0001:00024a2c       ?set_listbox_tabs_from_title_positions@@YAXPAUHWND__@@IPAHH@Z 00425a2c f   v5subs:winsubs.obj
 0001:00024b44       ?set_menu_view_state@@YAXAAEPAUHWND__@@I@Z 00425b44 f   v5subs:winsubs.obj
 0001:00024b6c       ?set_text@@YAEPAUHWND__@@HPBD@Z 00425b6c f   v5subs:winsubs.obj
 0001:00024b87       ?set_text@@YAEPAUHWND__@@PBD@Z 00425b87 f   v5subs:winsubs.obj
 0001:00024bb0       ?hextoul@@YAKPBD@Z         00425bb0 f   v5subs:hex.obj
 0001:00024c22       ?is_hex_char@@YAED@Z       00425c22 f   v5subs:hex.obj
 0001:00024c3c       ?ultohex@@YAPADK@Z         00425c3c f   v5subs:hex.obj
 0001:00024c4e       ?ultohex@@YAXPADK@Z        00425c4e f   v5subs:hex.obj
 0001:00024c61       ?insalph@@YAXPADJJDJ@Z     00425c61 f   v5subs:insalph.obj
 0001:00024cb2       ?alphadate@@YAEPADABU_SYSTEMTIME@@@Z 00425cb2 f   v5subs:time.obj
 0001:00024d0a       ?alphadate@@YAPADABU_SYSTEMTIME@@@Z 00425d0a f   v5subs:time.obj
 0001:00024d20       ?alphatime@@YAEPADABU_SYSTEMTIME@@@Z 00425d20 f   v5subs:time.obj
 0001:00024d79       ?alphatime@@YAPADABU_SYSTEMTIME@@@Z 00425d79 f   v5subs:time.obj
 0001:00024d8f       ?compare_file_times@@YAHAAU_FILETIME@@0@Z 00425d8f f   v5subs:time.obj
 0001:00024dd0       ?dofyr@@YAGABU_SYSTEMTIME@@@Z 00425dd0 f   v5subs:time.obj
 0001:00024deb       ?dofyr@@YAGGGG@Z           00425deb f   v5subs:time.obj
 0001:00024e3b       ?exthms@@YAEAAU_SYSTEMTIME@@PBD@Z 00425e3b f   v5subs:time.obj
 0001:00024e9d       ?extmdy@@YAEAAU_SYSTEMTIME@@PBD@Z 00425e9d f   v5subs:time.obj
 0001:00024f0d       ?init_systemtime_struct@@YAXAAU_SYSTEMTIME@@@Z 00425f0d f   v5subs:time.obj
 0001:00024f21       ?is_leap_year@@YAEG@Z      00425f21 f   v5subs:time.obj
 0001:00024f5b       ?is_numeric@@YAED@Z        00425f5b f   v5subs:time.obj
 0001:00024f7c       ?sec_since1990@@YAJAAU_SYSTEMTIME@@@Z 00425f7c f   v5subs:time.obj
 0001:00024fed       ?seconds_difference@@YAJAAU_FILETIME@@0@Z 00425fed f   v5subs:time.obj
 0001:0002504d       ?maxint@@YAXAAHH@Z         0042604d f   v5subs:maximize.obj
 0001:0002505c       ?minint@@YAXAAHH@Z         0042605c f   v5subs:maximize.obj
 0001:0002506b       ?rjust@@YAXPADFD@Z         0042606b f   v5subs:rjust.obj
 0001:000250ae       ?ascii_to_bool@@YA_NPAD@Z  004260ae f   v5subs:misc.obj
 0001:000250ca       ?mask_from_wire@@YAII@Z    004260ca f   v5subs:misc.obj
 0001:000250d9       ?round@@YANNN@Z            004260d9 f   v5subs:misc.obj
 0001:0002511d       ?unknown@@YAEPAD@Z         0042611d f   v5subs:misc.obj
 0001:00025133       ?unknown_string@@YAPADXZ   00426133 f   v5subs:misc.obj
 0001:00025139       ?wire_from_mask@@YAII@Z    00426139 f   v5subs:misc.obj
 0001:0002514e       ?double_to_tchar@@YA_NPADNH@Z 0042614e f   v5subs:dtotchar.obj
 0001:00025255       ?rounded_double_to_tchar@@YA_NPADN@Z 00426255 f   v5subs:dtotchar.obj
 0001:00025303       ?dow_from_string@@YAFPAD@Z 00426303 f   v5subs:shift.obj
 0001:00025352       ?get_shift_number_and_date@@YAXPAFPAU_SYSTEMTIME@@ABU1@@Z 00426352 f   v5subs:shift.obj
 0001:000253c2       ?minutes_past_sunday@@YAFABU_SYSTEMTIME@@@Z 004263c2 f   v5subs:shift.obj
 0001:000253dd       ?read@SHIFT_CLASS@@QAEEAAVDB_TABLE@@GG@Z 004263dd f   v5subs:shift.obj
 0001:0002544a       ?set_start_of_shift@SHIFT_CLASS@@QAEEABU_SYSTEMTIME@@F@Z 0042644a f   v5subs:shift.obj
 0001:0002566c       ?shift_number@@YAFPAFABU_SYSTEMTIME@@@Z 0042666c f   v5subs:shift.obj
 0001:000256c1       ?shifts_shutdown@@YAXXZ    004266c1 f   v5subs:shift.obj
 0001:000256d2       ?shifts_startup@@YAEXZ     004266d2 f   v5subs:shift.obj
 0001:000258b7       ?units_name@@YAPADF@Z      004268b7 f   v5subs:units.obj
 0001:000258de       ?units_shutdown@@YAXXZ     004268de f   v5subs:units.obj
 0001:000258f6       ?units_startup@@YAEXZ      004268f6 f   v5subs:units.obj
 0001:00025a47       ?hourglass_cursor@@YAXXZ   00426a47 f   v5subs:hourglas.obj
 0001:00025a74       ?restore_cursor@@YAXXZ     00426a74 f   v5subs:hourglas.obj
 0001:00025a97       ?center_temp_message@@YAXXZ 00426a97 f   v5subs:temp_message.obj
 0001:00025a9f       ?kill_temp_message@@YAXXZ  00426a9f f   v5subs:temp_message.obj
 0001:00025c71       ?register_temp_message@@YAXXZ 00426c71 f   v5subs:temp_message.obj
 0001:00025cd7       ?temp_message@@YAXPAD@Z    00426cd7 f   v5subs:temp_message.obj
 0001:00025ce8       ?temp_message@@YAXPADH@Z   00426ce8 f   v5subs:temp_message.obj
 0001:00025d9e       ?temp_message_proc@@YGJPAUHWND__@@IIJ@Z 00426d9e f   v5subs:temp_message.obj
 0001:00025e65       ??0TEXT_LIST_CLASS@@QAE@XZ 00426e65 f   v5subs:textlist.obj
 0001:00025e65       ??0MACHINE_NAME_LIST_CLASS@@QAE@XZ 00426e65 f   v5subs:machname.obj
 0001:00025e75       ??1TEXT_LIST_CLASS@@QAE@XZ 00426e75 f   v5subs:textlist.obj
 0001:00025e86       ?append@TEXT_LIST_CLASS@@QAEEPADJ@Z 00426e86 f   v5subs:textlist.obj
 0001:00025ef4       ?empty@TEXT_LIST_CLASS@@QAEXXZ 00426ef4 f   v5subs:textlist.obj
 0001:00025f1e       ?get_directory_list@TEXT_LIST_CLASS@@QAEXPBD@Z 00426f1e f   v5subs:textlist.obj
 0001:00025fd2       ?remove@TEXT_LIST_CLASS@@QAEEXZ 00426fd2 f   v5subs:textlist.obj
 0001:00025ff5       ??_EWINDOW_CLASS@@UAEPAXI@Z 00426ff5 f i v5subs:wclass.obj
 0001:00026043       ?destroy@WINDOW_CLASS@@QAEXXZ 00427043 f   v5subs:wclass.obj
 0001:0002605b       ?enable@WINDOW_CLASS@@QAEXE@Z 0042705b f   v5subs:wclass.obj
 0001:0002605b       ?enable@WINDOW_CLASS@@QAEX_N@Z 0042705b f   v5subs:wclass.obj
 0001:00026077       ?get_move_rect@WINDOW_CLASS@@QAEHAAUtagRECT@@@Z 00427077 f   v5subs:wclass.obj
 0001:0002610b       ?getrect@WINDOW_CLASS@@QAEHAAUtagRECT@@@Z 0042710b f   v5subs:wclass.obj
 0001:0002612c       ?is_minimized@WINDOW_CLASS@@QAEHXZ 0042712c f   v5subs:wclass.obj
 0001:0002613f       ?is_visible@WINDOW_CLASS@@QAEHXZ 0042713f f   v5subs:wclass.obj
 0001:00026152       ?move@WINDOW_CLASS@@QAEXAAUtagRECT@@@Z 00427152 f   v5subs:wclass.obj
 0001:0002617b       ?post@WINDOW_CLASS@@QAEXI@Z 0042717b f   v5subs:wclass.obj
 0001:00026195       ?post@WINDOW_CLASS@@QAEXIIJ@Z 00427195 f   v5subs:wclass.obj
 0001:000261b3       ?refresh@WINDOW_CLASS@@QAEXXZ 004271b3 f   v5subs:wclass.obj
 0001:000261d2       ?send@WINDOW_CLASS@@QAEXI@Z 004271d2 f   v5subs:wclass.obj
 0001:000261ec       ?send@WINDOW_CLASS@@QAEXIIJ@Z 004271ec f   v5subs:wclass.obj
 0001:0002620a       ?set_title@WINDOW_CLASS@@QAEXPAD@Z 0042720a f   v5subs:wclass.obj
 0001:0002622b       ?show@WINDOW_CLASS@@QAEXH@Z 0042722b f   v5subs:wclass.obj
 0001:00026241       ?style@WINDOW_CLASS@@QAEJXZ 00427241 f   v5subs:wclass.obj
 0001:00026254       ??0MENU_CONTROL_ENTRY@@QAE@XZ 00427254 f   v5subs:menuctrl.obj
 0001:00026305       ??0MENU_ITEM_ENTRY@@QAE@XZ 00427305 f   v5subs:menuctrl.obj
 0001:00026355       ??1MENU_CONTROL_ENTRY@@QAE@XZ 00427355 f   v5subs:menuctrl.obj
 0001:000263cf       ??1MENU_ITEM_ENTRY@@QAE@XZ 004273cf f   v5subs:menuctrl.obj
 0001:000263f9       ??_EMENU_ITEM_ENTRY@@QAEPAXI@Z 004273f9 f i v5subs:menuctrl.obj
 0001:0002644e       ?create_windows@MENU_CONTROL_ENTRY@@QAEEPADPAUHWND__@@@Z 0042744e f   v5subs:menuctrl.obj
 0001:0002655f       ?destroy_windows@MENU_CONTROL_ENTRY@@QAEXXZ 0042755f f   v5subs:menuctrl.obj
 0001:0002659f       ?do_left_button_down@MENU_CONTROL_ENTRY@@QAEXIJ@Z 0042759f f   v5subs:menuctrl.obj
 0001:000266c0       ?do_left_button_up@MENU_CONTROL_ENTRY@@QAEXIJ@Z 004276c0 f   v5subs:menuctrl.obj
 0001:00026770       ?do_mousemove@MENU_CONTROL_ENTRY@@QAEXPAUHWND__@@IJ@Z 00427770 f   v5subs:menuctrl.obj
 0001:00026a8e       ?draw@MENU_ITEM_ENTRY@@QAEXPAUHDC__@@@Z 00427a8e f   v5subs:menuctrl.obj
 0001:00026b78       ?draw_rect@MENU_ITEM_ENTRY@@QAEXPAUHDC__@@@Z 00427b78 f   v5subs:menuctrl.obj
 0001:00026be9       ?draw_submenu_item@MENU_ITEM_ENTRY@@QAEXPAUHDC__@@I@Z 00427be9 f   v5subs:menuctrl.obj
 0001:00026caa       ?excel_to_csv@@YAXPAD@Z    00427caa f   v5subs:menuctrl.obj
 0001:00026cde       ?find@MENU_CONTROL_ENTRY@@QAEPAVMENU_ITEM_ENTRY@@I@Z 00427cde f   v5subs:menuctrl.obj
 0001:00026d37       ?get@MENU_ITEM_ENTRY@@QAEEPAD@Z 00427d37 f   v5subs:menuctrl.obj
 0001:00026e95       ?menu_control_proc@@YGJPAUHWND__@@IIJ@Z 00427e95 f   v5subs:menuctrl.obj
 0001:00026f43       ?paint_me@MENU_CONTROL_ENTRY@@QAEXPAUHWND__@@@Z 00427f43 f   v5subs:menuctrl.obj
 0001:00026ffe       ?paint_submenu@MENU_CONTROL_ENTRY@@QAEXPAUHWND__@@@Z 00427ffe f   v5subs:menuctrl.obj
 0001:000270df       ?read@MENU_CONTROL_ENTRY@@QAEEAAVNAME_CLASS@@H@Z 004280df f   v5subs:menuctrl.obj
 0001:0002771e       ?register_window@MENU_CONTROL_ENTRY@@SAXXZ 0042871e f   v5subs:menuctrl.obj
 0001:000277d1       ?resize@MENU_CONTROL_ENTRY@@QAEEH@Z 004287d1 f   v5subs:menuctrl.obj
 0001:00027865       ?resize@MENU_CONTROL_ENTRY@@QAEEXZ 00428865 f   v5subs:menuctrl.obj
 0001:0002786d       ?set_checkmark@MENU_CONTROL_ENTRY@@QAEEIE@Z 0042886d f   v5subs:menuctrl.obj
 0001:00027896       ?show_submenu@MENU_CONTROL_ENTRY@@QAEXXZ 00428896 f   v5subs:menuctrl.obj
 0001:00027954       ?sub_menu_control_proc@@YGJPAUHWND__@@IIJ@Z 00428954 f   v5subs:menuctrl.obj
 0001:00027991       ?set_setup_strings@@YAXPAUHWND__@@PAURESOURCE_TEXT_ENTRY@@HPAIHPAD@Z 00428991 f   v5subs:statics.obj
 0001:00027a96       ?set_statics_font@@YAXAAVWINDOW_CLASS@@@Z 00428a96 f   v5subs:statics.obj
 0001:00027ab3       ?statics_shutdown@@YAXXZ   00428ab3 f   v5subs:statics.obj
 0001:00027ad0       ?statics_startup@@YAXXZ    00428ad0 f   v5subs:statics.obj
 0001:00027ae5       ??1FTII_VAR_ARRAY@@UAE@XZ  00428ae5 f   v5subs:ftiiclas.obj
 0001:00027afb       ??4FTII_VAR@@UAEXN@Z       00428afb f   v5subs:ftiiclas.obj
 0001:00027b51       ??4FTII_VAR@@UAEXPBD@Z     00428b51 f   v5subs:ftiiclas.obj
 0001:00027bc5       ??4FTII_VAR_ARRAY@@UAEXABVFTII_VAR@@@Z 00428bc5 f   v5subs:ftiiclas.obj
 0001:00027bd7       ??4FTII_VAR_ARRAY@@UAEXH@Z 00428bd7 f   v5subs:ftiiclas.obj
 0001:00027bdc       ??4FTII_VAR_ARRAY@@UAEXI@Z 00428bdc f   v5subs:ftiiclas.obj
 0001:00027bfd       ??4FTII_VAR_ARRAY@@UAEXN@Z 00428bfd f   v5subs:ftiiclas.obj
 0001:00027c29       ??AFTII_VAR_ARRAY@@QAEAAVFTII_VAR@@H@Z 00428c29 f   v5subs:ftiiclas.obj
 0001:00027c5d       ??_EFTII_VAR@@UAEPAXI@Z    00428c5d f i v5subs:ftiiclas.obj
 0001:00027cad       ?append_value@FTII_VAR@@QAE_NAAVSTRING_CLASS@@@Z 00428cad f   v5subs:ftiiclas.obj
 0001:00027d80       ?cleanup@FTII_VAR_ARRAY@@QAEXXZ 00428d80 f   v5subs:ftiiclas.obj
 0001:00027db3       ?find@FTII_VAR_ARRAY@@QAE_NH@Z 00428db3 f   v5subs:ftiiclas.obj
 0001:00027df4       ?find@FTII_VAR_ARRAY@@QAE_NPAD@Z 00428df4 f   v5subs:ftiiclas.obj
 0001:00027e0d       ?get@FTII_VAR@@UAE_NPBD@Z  00428e0d f   v5subs:ftiiclas.obj
 0001:00027e48       ?get@FTII_VAR_ARRAY@@QAE_NAAVSTRING_CLASS@@@Z 00428e48 f   v5subs:ftiiclas.obj
 0001:00027f39       ?get_from@FTII_VAR_ARRAY@@QAE_NAAVSTRING_CLASS@@@Z 00428f39 f   v5subs:ftiiclas.obj
 0001:00028020       ?makeline@FTII_VAR@@QAE_NAAVSTRING_CLASS@@@Z 00429020 f   v5subs:ftiiclas.obj
 0001:0002806c       ?myfindchar@@YAPADDPAD@Z   0042906c f   v5subs:ftiiclas.obj
 0001:0002806c       ?myfindchar@@YAPBDDPBD@Z   0042906c f   v5subs:ftiiclas.obj
 0001:00028094       ?put@FTII_VAR@@UAE_NAAVSTRING_CLASS@@@Z 00429094 f   v5subs:ftiiclas.obj
 0001:00028132       ?put@FTII_VAR_ARRAY@@UAE_NAAVSTRING_CLASS@@@Z 00429132 f   v5subs:ftiiclas.obj
 0001:00028213       ?put_into@FTII_VAR_ARRAY@@QAE_NAAVSTRING_CLASS@@@Z 00429213 f   v5subs:ftiiclas.obj
 0001:000283c1       ?realval@FTII_VAR@@QAENXZ  004293c1 f   v5subs:ftiiclas.obj
 0001:00028436       ?remove@FTII_VAR_ARRAY@@QAE_NH@Z 00429436 f   v5subs:ftiiclas.obj
 0001:000284a6       ?remove@FTII_VAR_ARRAY@@QAE_NXZ 004294a6 f   v5subs:ftiiclas.obj
 0001:000284b8       ?set@FTII_VAR@@UAE_NHI@Z   004294b8 f   v5subs:ftiiclas.obj
 0001:000284d6       ?set@FTII_VAR@@UAE_NHN@Z   004294d6 f   v5subs:ftiiclas.obj
 0001:0002853d       ?set@FTII_VAR_ARRAY@@UAE_NHI@Z 0042953d f   v5subs:ftiiclas.obj
 0001:00028570       ?update@FTII_VAR_ARRAY@@QAE_NAAVFTII_VAR@@@Z 00429570 f   v5subs:ftiiclas.obj
 0001:00028582       ?update@FTII_VAR_ARRAY@@QAE_NHI@Z 00429582 f   v5subs:ftiiclas.obj
 0001:000285e6       ?upsize@FTII_VAR_ARRAY@@QAE_NH@Z 004295e6 f   v5subs:ftiiclas.obj
 0001:000286f0       ??0FTII_ARRAY_DATA@@QAE@XZ 004296f0 f   v5subs:ftii_shot_data.obj
 0001:00028733       ??0FTII_FILE_DATA@@QAE@XZ  00429733 f   v5subs:ftii_shot_data.obj
 0001:000287d4       ??0FTII_NET_DATA@@QAE@XZ   004297d4 f   v5subs:ftii_shot_data.obj
 0001:000287f5       ??0FTII_OP_STATUS_DATA@@QAE@XZ 004297f5 f   v5subs:ftii_shot_data.obj
 0001:00028846       ??0FTII_PROFILE@@QAE@XZ    00429846 f   v5subs:ftii_shot_data.obj
 0001:00028892       ??1FTII_FILE_DATA@@QAE@XZ  00429892 f   v5subs:ftii_shot_data.obj
 0001:00028897       ??1FTII_NET_DATA@@QAE@XZ   00429897 f   v5subs:ftii_shot_data.obj
 0001:0002889c       ??1FTII_PROFILE@@UAE@XZ    0042989c f   v5subs:ftii_shot_data.obj
 0001:000288b8       ??4FTII_ARRAY_DATA@@QAEXABVFTII_FILE_DATA@@@Z 004298b8 f   v5subs:ftii_shot_data.obj
 0001:0002904e       ??4FTII_FILE_DATA@@QAEXABVFTII_NET_DATA@@@Z 0042a04e f   v5subs:ftii_shot_data.obj
 0001:000291e3       ??4FTII_OP_STATUS_DATA@@QAEXABU0@@Z 0042a1e3 f   v5subs:ftii_shot_data.obj
 0001:000292e2       ??4FTII_PARAMETERS@@QAEXABU0@@Z 0042a2e2 f   v5subs:ftii_shot_data.obj
 0001:00029314       ??4FTII_POSITION_DATA@@QAEXABUFTII_SAMPLE@@@Z 0042a314 f   v5subs:ftii_shot_data.obj
 0001:00029365       ??4FTII_PROFILE@@QAEXABVFTII_FILE_DATA@@@Z 0042a365 f   v5subs:ftii_shot_data.obj
 0001:000296b4       ??4FTII_TIME_DATA@@QAEXABUFTII_SAMPLE@@@Z 0042a6b4 f   v5subs:ftii_shot_data.obj
 0001:000296ef       ??8FTII_OP_STATUS_DATA@@QAE_NABU0@@Z 0042a6ef f   v5subs:ftii_shot_data.obj
 0001:00029890       ??_EFTII_ARRAY_DATA@@UAEPAXI@Z 0042a890 f i v5subs:ftii_shot_data.obj
 0001:00029890       ??_GFTII_ARRAY_DATA@@UAEPAXI@Z 0042a890 f i v5subs:ftii_shot_data.obj
 0001:000298b2       ??_GFTII_PROFILE@@UAEPAXI@Z 0042a8b2 f i v5subs:ftii_shot_data.obj
 0001:000298b2       ??_EFTII_PROFILE@@UAEPAXI@Z 0042a8b2 f i v5subs:ftii_shot_data.obj
 0001:000298ce       ?clear@FTII_ARRAY_DATA@@QAEXXZ 0042a8ce f   v5subs:ftii_shot_data.obj
 0001:00029968       ?clear@FTII_FILE_DATA@@QAEXXZ 0042a968 f   v5subs:ftii_shot_data.obj
 0001:000299df       ?clear@FTII_NET_DATA@@QAEXXZ 0042a9df f   v5subs:ftii_shot_data.obj
 0001:00029a10       ?clear@FTII_PROFILE@@QAEXXZ 0042aa10 f   v5subs:ftii_shot_data.obj
 0001:00029aa1       ?get@FTII_FILE_DATA@@QAEEAAVSTRING_CLASS@@@Z 0042aaa1 f   v5subs:ftii_shot_data.obj
 0001:00029dda       ?index_from_position@FTII_ARRAY_DATA@@QAEHN@Z 0042adda f   v5subs:ftii_shot_data.obj
 0001:00029e21       ?index_from_time@FTII_ARRAY_DATA@@QAEHN@Z 0042ae21 f   v5subs:ftii_shot_data.obj
 0001:00029ea3       ?interpolated_ms@FTII_PROFILE@@QAENN@Z 0042aea3 f   v5subs:ftii_shot_data.obj
 0001:00029efe       ?interpolated_postion_from_velocity@FTII_PROFILE@@QAENHHH@Z 0042aefe f   v5subs:ftii_shot_data.obj
 0001:00029f61       ?interpolated_timer_count@FTII_ARRAY_DATA@@QAEIN@Z 0042af61 f   v5subs:ftii_shot_data.obj
 0001:0002a000       ?interpolated_velocity@FTII_ARRAY_DATA@@QAENN@Z 0042b000 f   v5subs:ftii_shot_data.obj
 0001:0002a155       ?max_average_velocity@FTII_ARRAY_DATA@@QAENAAHHHHN@Z 0042b155 f   v5subs:ftii_shot_data.obj
 0001:0002a266       ?move@FTII_FILE_DATA@@QAEXAAV1@@Z 0042b266 f   v5subs:ftii_shot_data.obj
 0001:0002a36d       ?ms@FTII_PROFILE@@QAENH@Z  0042b36d f   v5subs:ftii_shot_data.obj
 0001:0002a3c0       ?ms_between_positions@FTII_PROFILE@@QAENNN@Z 0042b3c0 f   v5subs:ftii_shot_data.obj
 0001:0002a43e       ?put@FTII_FILE_DATA@@QAEEAAVSTRING_CLASS@@@Z 0042b43e f   v5subs:ftii_shot_data.obj
 0001:0002a760       ?read@TEXT_PARAMETER_ENTRY@@QAEEAAVFILE_CLASS@@@Z 0042b760 f   v5subs:ftii_shot_data.obj
 0001:0002a7ba       ?resize_text_parameters@FTII_FILE_DATA@@QAEEHE@Z 0042b7ba f   v5subs:ftii_shot_data.obj
 0001:0002a909       ?set_nof_extended_analogs@FTII_FILE_DATA@@QAEXH@Z 0042b909 f   v5subs:ftii_shot_data.obj
 0001:0002a97b       ?set_parameters@FTII_NET_DATA@@QAEXPAUFTII_PARAMETERS@@@Z 0042b97b f   v5subs:ftii_shot_data.obj
 0001:0002a994       ?set_position_based_points@FTII_NET_DATA@@QAEXPAUFTII_SAMPLE@@H@Z 0042b994 f   v5subs:ftii_shot_data.obj
 0001:0002a9c4       ?set_shot_time@FTII_NET_DATA@@QAEXAAU_FILETIME@@@Z 0042b9c4 f   v5subs:ftii_shot_data.obj
 0001:0002a9d6       ?set_time_based_points@FTII_NET_DATA@@QAEXPAUFTII_SAMPLE@@H@Z 0042b9d6 f   v5subs:ftii_shot_data.obj
 0001:0002aa06       ?velocity_between_positions@FTII_ARRAY_DATA@@QAENNN@Z 0042ba06 f   v5subs:ftii_shot_data.obj
 0001:0002aac0       ?write@TEXT_PARAMETER_ENTRY@@QAEEAAVFILE_CLASS@@@Z 0042bac0 f   v5subs:ftii_shot_data.obj
 0001:0002ab14       ??0ALARM_SUMMARY_CLASS@@QAE@XZ 0042bb14 f   v5subs:alarmsum.obj
 0001:0002ab41       ??1ALARM_SUMMARY_CLASS@@QAE@XZ 0042bb41 f   v5subs:alarmsum.obj
 0001:0002ab59       ?add@ALARM_SUMMARY_CLASS@@QAEPAUALARM_COUNTS_ENTRY@@J@Z 0042bb59 f   v5subs:alarmsum.obj
 0001:0002abb2       ?empty@ALARM_SUMMARY_CLASS@@QAEXXZ 0042bbb2 f   v5subs:alarmsum.obj
 0001:0002abe9       ?find@ALARM_SUMMARY_CLASS@@QAEPAUALARM_COUNTS_ENTRY@@J@Z 0042bbe9 f   v5subs:alarmsum.obj
 0001:0002ac18       ?save@ALARM_SUMMARY_CLASS@@QAEXABU_SYSTEMTIME@@J@Z 0042bc18 f   v5subs:alarmsum.obj
 0001:0002ac60       ?save@ALARM_SUMMARY_CLASS@@QAEXABU_SYSTEMTIME@@JEAAVSTRING_CLASS@@@Z 0042bc60 f   v5subs:alarmsum.obj
 0001:0002afa6       ?set_counts@ALARM_SUMMARY_CLASS@@QAEXPANPAVPARAMETER_CLASS@@@Z 0042bfa6 f   v5subs:alarmsum.obj
 0001:0002b0b2       ?set@PART_NAME_ENTRY@@QAEXAAVSTRING_CLASS@@00@Z 0042c0b2 f   board_monitor.obj
 0001:0002b0b2       ?set_part@ALARM_SUMMARY_CLASS@@QAEXAAVSTRING_CLASS@@00@Z 0042c0b2 f   v5subs:alarmsum.obj
 0001:0002b0da       ??1DOUBLE_ARRAY_CLASS@@QAE@XZ 0042c0da f   v5subs:array.obj
 0001:0002b0e5       ??1INT_ARRAY_CLASS@@QAE@XZ 0042c0e5 f   v5subs:array.obj
 0001:0002b0ea       ??ADOUBLE_ARRAY_CLASS@@QAEAANJ@Z 0042c0ea f   v5subs:array.obj
 0001:0002b109       ??AINT_ARRAY_CLASS@@QAEAAHH@Z 0042c109 f   v5subs:array.obj
 0001:0002b180       ?cleanup@DOUBLE_ARRAY_CLASS@@QAEXXZ 0042c180 f   v5subs:array.obj
 0001:0002b19c       ?cleanup@INT_ARRAY_CLASS@@QAEXXZ 0042c19c f   v5subs:array.obj
 0001:0002b1b5       ?init@DOUBLE_ARRAY_CLASS@@UAEEJ@Z 0042c1b5 f   v5subs:array.obj
 0001:0002b209       ?init@DOUBLE_ARRAY_CLASS@@UAEEJPAN@Z 0042c209 f   v5subs:array.obj
 0001:0002b22d       ?move@DOUBLE_ARRAY_CLASS@@QAEXAAV1@@Z 0042c22d f   v5subs:array.obj
 0001:0002b251       ?down_state@DSTAT_CLASS@@QAEHXZ 0042c251 f   v5subs:dstat.obj
 0001:0002b31d       ?get@DSTAT_CLASS@@QAEEAAVSTRING_CLASS@@0@Z 0042c31d f   v5subs:dstat.obj
 0001:0002b426       ?is_down@DSTAT_CLASS@@QAEEXZ 0042c426 f   v5subs:dstat.obj
 0001:0002b446       ?put@DSTAT_CLASS@@QAEEAAVSTRING_CLASS@@0@Z 0042c446 f   v5subs:dstat.obj
 0001:0002b604       ?same_code@DSTAT_CLASS@@QAEEPAD0@Z 0042c604 f   v5subs:dstat.obj
 0001:0002b63c       ??0FTANALOG_ENTRY@@QAE@XZ  0042c63c f   v5subs:ftanalog.obj
 0001:0002b676       ??1FTANALOG_ENTRY@@QAE@XZ  0042c676 f   v5subs:ftanalog.obj
 0001:0002b797       ?load@FTANALOG_CLASS@@QAEEAAVSTRING_CLASS@@00@Z 0042c797 f   v5subs:ftanalog.obj
 0001:0002bb94       ??0FTCALC_CLASS@@QAE@XZ    0042cb94 f   v5subs:ftcalc.obj
 0001:0002bbdb       ??0SOURCE_DATA@@QAE@XZ     0042cbdb f   v5subs:ftcalc.obj
 0001:0002bbed       ??4SOURCE_DATA@@QAEXABV0@@Z 0042cbed f   v5subs:ftcalc.obj
 0001:0002bc16       ?cleanup@FTCALC_CLASS@@QAEXXZ 0042cc16 f   v5subs:ftcalc.obj
 0001:0002bc2d       ?clear_source_data@FTCALC_CLASS@@QAEXXZ 0042cc2d f   v5subs:ftcalc.obj
 0001:0002bc4d       ?load@FTCALC_CLASS@@QAEEAAVSTRING_CLASS@@00@Z 0042cc4d f   v5subs:ftcalc.obj
 0001:0002bd69       ?set@SOURCE_DATA@@QAEXNNN@Z 0042cd69 f   v5subs:ftcalc.obj
 0001:0002bd90       ?value@FTCALC_CLASS@@QAENAAVSTRING_CLASS@@PANAAVPART_CLASS@@@Z 0042cd90 f   v5subs:ftcalc.obj
 0001:0002c199       ?value@FTCALC_CLASS@@QAENHPANAAVPART_CLASS@@@Z 0042d199 f   v5subs:ftcalc.obj
 0001:0002c1d3       ??1RUNLIST_CLASS@@QAE@XZ   0042d1d3 f   v5subs:runlist.obj
 0001:0002c1d8       ??ARUNLIST_CLASS@@QAEAAURUNLIST_ENTRY@@H@Z 0042d1d8 f   v5subs:runlist.obj
 0001:0002c1f4       ??_ETEXT_PARAMETER_ENTRY@@QAEPAXI@Z 0042d1f4 f i v5subs:ftii_shot_data.obj
 0001:0002c1f4       ??_ERUNLIST_ENTRY@@QAEPAXI@Z 0042d1f4 f i v5subs:runlist.obj
 0001:0002c24d       ?cleanup@RUNLIST_CLASS@@AAEXXZ 0042d24d f   v5subs:runlist.obj
 0001:0002c26a       ?find_part@RUNLIST_CLASS@@QAEAAVSTRING_CLASS@@I@Z 0042d26a f   v5subs:runlist.obj
 0001:0002c2ae       ?get@RUNLIST_CLASS@@QAEEAAVNAME_CLASS@@@Z 0042d2ae f   v5subs:runlist.obj
 0001:0002c428       ?get@RUNLIST_CLASS@@QAEEAAVSTRING_CLASS@@0@Z 0042d428 f   v5subs:runlist.obj
 0001:0002c4c1       ?command@EXTERNAL_SHOT_NAME_CLASS@@QAEAAVSTRING_CLASS@@XZ 0042d4c1 f   v5subs:shot_name.obj
 0001:0002c4c9       ?file@EXTERNAL_SHOT_NAME_CLASS@@QAEAAVSTRING_CLASS@@XZ 0042d4c9 f   v5subs:shot_name.obj
 0001:0002c4d1       ?get@EXTERNAL_SHOT_NAME_CLASS@@QAEHAAVSTRING_CLASS@@00@Z 0042d4d1 f   v5subs:shot_name.obj
 0001:0002c500       ?get@EXTERNAL_SHOT_NAME_CLASS@@QAEHXZ 0042d500 f   v5subs:shot_name.obj
 0001:0002c733       ?get@SHOT_NAME_CLASS@@QAEHXZ 0042d733 f   v5subs:shot_name.obj
 0001:0002c750       ?get_shot_name_template@SHOT_NAME_CLASS@@QAEEAAVSTRING_CLASS@@@Z 0042d750 f   v5subs:shot_name.obj
 0001:0002c770       ?have_command@EXTERNAL_SHOT_NAME_CLASS@@QAEEXZ 0042d770 f   v5subs:shot_name.obj
 0001:0002c7d5       ?init@SHOT_NAME_CLASS@@QAEEAAVSTRING_CLASS@@00@Z 0042d7d5 f   v5subs:shot_name.obj
 0001:0002c7f1       ?is_enabled@EXTERNAL_SHOT_NAME_CLASS@@QAEEXZ 0042d7f1 f   v5subs:shot_name.obj
 0001:0002c808       ?set_defaults@EXTERNAL_SHOT_NAME_CLASS@@QAEXXZ 0042d808 f   v5subs:shot_name.obj
 0001:0002c8b4       ?set_defaults@SHOT_NAME_CLASS@@QAEXXZ 0042d8b4 f   v5subs:shot_name.obj
 0001:0002c960       ?shot_name@@YAEAAVSTRING_CLASS@@000H@Z 0042d960 f   v5subs:shot_name.obj
 0001:0002c9e7       ?shot_name@@YAEAAVSTRING_CLASS@@AAUPART_NAME_ENTRY@@H@Z 0042d9e7 f   v5subs:shot_name.obj
 0001:0002ca10       ?shot_name@@YAEAAVSTRING_CLASS@@AAUPART_NAME_ENTRY@@HAAVTIME_CLASS@@@Z 0042da10 f   v5subs:shot_name.obj
 0001:0002cfc7       ?shot_name_length@@YAHAAUPROFILE_NAME_ENTRY@@@Z 0042dfc7 f   v5subs:shot_name.obj
 0001:0002cfdd       ?shot_name_length@@YAHAAVSTRING_CLASS@@00@Z 0042dfdd f   v5subs:shot_name.obj
 0001:0002d01e       ?shot_name_length@SHOT_NAME_CLASS@@QAEHXZ 0042e01e f   v5subs:shot_name.obj
 0001:0002d044       ?shot_number_from_shot_name@@YAHAAVSTRING_CLASS@@H@Z 0042e044 f   v5subs:shot_name.obj
 0001:0002d0c3       ?shot_number_length@SHOT_NAME_CLASS@@QAEHXZ 0042e0c3 f   v5subs:shot_name.obj
 0001:0002d11c       ?cat@STDDOWN_CLASS@@QAEPADXZ 0042e11c f   v5subs:stddown.obj
 0001:0002d12e       ?find@STDDOWN_CLASS@@QAE_NJ@Z 0042e12e f   v5subs:stddown.obj
 0001:0002d1c6       ?startup@STDDOWN_CLASS@@QAEXXZ 0042e1c6 f   v5subs:stddown.obj
 0001:0002d303       ?subcat@STDDOWN_CLASS@@QAEPADXZ 0042e303 f   v5subs:stddown.obj
 0001:0002d319       ?part_exists@@YAEAAVSTRING_CLASS@@00@Z 0042e319 f   v5subs:pexists.obj
 0001:0002d362       ?category_name@@YAPADPAD@Z 0042e362 f   v5subs:downsubs.obj
 0001:0002d423       ?make_downtime_event_string@@YAPADAAVSTRING_CLASS@@0AAU_SYSTEMTIME@@PAD22@Z 0042e423 f   v5subs:downsubs.obj
 0001:0002d539       ?make_downtime_record@@YAEAAVDB_TABLE@@AAU_SYSTEMTIME@@PAD22AAVSTRING_CLASS@@@Z 0042e539 f   v5subs:downsubs.obj
 0001:0002d5ee       ?subcategory_name@@YAPADPAD0@Z 0042e5ee f   v5subs:downsubs.obj
 0001:0002d719       ?double_are_equal@@YA_NNN@Z 0042e719 f   v5subs:zero.obj
 0001:0002d734       ?is_float_zero@@YAEM@Z     0042e734 f   v5subs:zero.obj
 0001:0002d764       ?is_zero@@YA_NN@Z          0042e764 f   v5subs:zero.obj
 0001:0002d788       ?not_float_zero@@YAEM@Z    0042e788 f   v5subs:zero.obj
 0001:0002d7b8       ?not_zero@@YA_NN@Z         0042e7b8 f   v5subs:zero.obj
 0001:0002d7db       ?set_current_part_name@@YAEAAVSTRING_CLASS@@00@Z 0042e7db f   v5subs:current.obj
 0001:0002d868       ?upsize_table_w_shot_name@@YAEAAVNAME_CLASS@@H@Z 0042e868 f   v5subs:dbupsize.obj
 0001:0002da7a       ?calculate_ftii_parameters@@YAPANAAVFTII_PROFILE@@AAVMACHINE_CLASS@@AAVPART_CLASS@@AAVPARAMETER_CLASS@@AAVANALOG_SENSOR@@AAVFTANALOG_CLASS@@AAVFTCALC_CLASS@@@Z 0042ea7a f   v5subs:ftii_parameters.obj
 0001:0002fa6d       ?append_backslash_to_path@@YAXPAD@Z 00430a6d f   v5subs:path.obj
 0001:0002fa96       ?append_filename_to_path@@YAXPADPBD@Z 00430a96 f   v5subs:path.obj
 0001:0002faaf       ?catpath@@YAPADPADPBD@Z    00430aaf f   v5subs:path.obj
 0001:0002faf3       ?create_directory@@YAEPAD@Z 00430af3 f   v5subs:path.obj
 0001:0002fc05       ?dir_from_filename@@YAEPAD@Z 00430c05 f   v5subs:path.obj
 0001:0002fc54       ?remove_backslash_from_path@@YAXPAD@Z 00430c54 f   v5subs:path.obj
 0001:0002fc7e       ?get@SHOT_NAME_RESET_CLASS@@QAEHXZ 00430c7e f   v5subs:shot_name_reset.obj
 0001:0002fc9b       ?init@SHOT_NAME_RESET_CLASS@@QAEEAAVSTRING_CLASS@@00@Z 00430c9b f   v5subs:shot_name_reset.obj
 0001:0002fcb7       ?is_enabled@SHOT_NAME_RESET_CLASS@@QAEEXZ 00430cb7 f   v5subs:shot_name_reset.obj
 0001:0002fcce       ?purge_on_reset@SHOT_NAME_RESET_CLASS@@QAEEXZ 00430cce f   v5subs:shot_name_reset.obj
 0001:0002fce5       ?reset_time@SHOT_NAME_RESET_CLASS@@QAEAAVSTRING_CLASS@@XZ 00430ce5 f   v5subs:shot_name_reset.obj
 0001:0002fcf9       ?set_defaults@SHOT_NAME_RESET_CLASS@@QAEXXZ 00430cf9 f   v5subs:shot_name_reset.obj
 0001:0002fda5       ?dynamic_file_name@@YAPADAAVTIME_CLASS@@AAUPART_NAME_ENTRY@@PBD@Z 00430da5 f   v5subs:dynamic_file_name.obj
 0001:00030050       ?purge_shot_data@@YAXAAVSTRING_CLASS@@00@Z 00431050 f   v5subs:purge.obj
 0001:0003010b       ?add@WORKER_LIST_CLASS@@QAEEPAD00@Z 0043110b f   v5subs:workclas.obj
 0001:00030191       ?cleanup@WORKER_LIST_CLASS@@QAEXXZ 00431191 f   v5subs:workclas.obj
 0001:000301ae       ?find@WORKER_LIST_CLASS@@QAEEPAD@Z 004311ae f   v5subs:workclas.obj
 0001:000301e0       ?first_name@WORKER_LIST_CLASS@@QAEPADXZ 004311e0 f   v5subs:workclas.obj
 0001:000301f1       ?full_name@WORKER_LIST_CLASS@@QAEPADXZ 004311f1 f   v5subs:workclas.obj
 0001:00030236       ?last_name@WORKER_LIST_CLASS@@QAEPADXZ 00431236 f   v5subs:workclas.obj
 0001:00030247       ?load@WORKER_LIST_CLASS@@QAEEXZ 00431247 f   v5subs:workclas.obj
 0001:000303d4       ?error_message@@YAXFF@Z    004313d4 f   v5subs:error_ms.obj
 0001:00030417       ?reverse@@YAXPAD@Z         00431417 f   v5subs:reverse.obj
 0001:0003043a       ?is_empty@@YAEPBD@Z        0043143a f   v5subs:is_empty.obj
 0001:00030456       ?copy_all_files@@YAEPAD00EPAUHWND__@@H@Z 00431456 f   v5subs:callfile.obj
 0001:00030477       ?copy_all_files@@YAEPAD00EPAUHWND__@@H_N@Z 00431477 f   v5subs:callfile.obj
 0001:000306c4       ?get_partlist@@YAEAAVTEXT_LIST_CLASS@@AAVSTRING_CLASS@@1@Z 004316c4 f   v5subs:partlist.obj
 0001:00030773       ??0WIRE_CLASS@@QAE@XZ      00431773 f   v5subs:wire_class.obj
 0001:000307e4       ??0WIRE_NAME_ENTRY@@QAE@XZ 004317e4 f   v5subs:wire_class.obj
 0001:00030804       ??1WIRE_CLASS@@QAE@XZ      00431804 f   v5subs:wire_class.obj
 0001:0003081f       ??1PART_NAME_ENTRY@@QAE@XZ 0043181f f   ft2.obj
 0001:0003081f       ??1WIRE_NAME_ENTRY@@QAE@XZ 0043181f f   v5subs:wire_class.obj
 0001:0003083a       ?wirebit@WIRE_CLASS@@QAEIH@Z 0043183a f   v5subs:wire_class.obj
 0001:0003084f       ?dups_to_vu@@YANFF@Z       0043184f f   v5subs:unitadj.obj
 0001:000308c6       ?day_of_the_week@@YAHHHH@Z 004318c6 f   v5subs:dow.obj
 0001:00030921       ?empty_directory@@YAEPAD0@Z 00431921 f   v5subs:killdir.obj
 0001:00030a0c       ?kill_directory@@YAEPAD@Z  00431a0c f   v5subs:killdir.obj
 0001:00030a71       ??0bad_alloc@std@@QAE@ABV01@@Z 00431a71 f i LIBCMT:new.obj
 0001:00030a8c       ??1bad_alloc@std@@UAE@XZ   00431a8c f i LIBCMT:new.obj
 0001:00030a97       ??2@YAPAXI@Z               00431a97 f   LIBCMT:new.obj
 0001:00030ae8       ??_Gbad_alloc@std@@UAEPAXI@Z 00431ae8 f i LIBCMT:new.obj
 0001:00030ae8       ??_Ebad_alloc@std@@UAEPAXI@Z 00431ae8 f i LIBCMT:new.obj
 0001:00030b0d       ??3@YAXPAX@Z               00431b0d f   LIBCMT:delete.obj
 0001:00030b12       ___onexitinit              00431b12 f   LIBCMT:onexit.obj
 0001:00030b41       __onexit                   00431b41 f   LIBCMT:onexit.obj
 0001:00030c3d       _atexit                    00431c3d f   LIBCMT:onexit.obj
 0001:00030c52       @__security_check_cookie@4 00431c52 f   LIBCMT:secchk.obj
 0001:00030c70       __alloca_probe             00431c70 f   LIBCMT:chkstk.obj
 0001:00030c70       __chkstk                   00431c70 f   LIBCMT:chkstk.obj
 0001:00030ca0       _memset                    00431ca0 f   LIBCMT:memset.obj
 0001:00030d30       ??1type_info@@UAE@XZ       00431d30 f   LIBCMT:typinfo.obj
 0001:00030d3e       ??_Gtype_info@@UAEPAXI@Z   00431d3e f i LIBCMT:typinfo.obj
 0001:00030d3e       ??_Etype_info@@UAEPAXI@Z   00431d3e f i LIBCMT:typinfo.obj
 0001:00030d5d       __fpmath                   00431d5d f   LIBCMT:fpinit.obj
 0001:00030d74       __cfltcvt_init             00431d74 f   LIBCMT:fpinit.obj
 0001:00030de0       _memcpy                    00431de0 f   LIBCMT:memcpy.obj
 0001:00031424       ___doserrno                00432424 f   LIBCMT:dosmap.obj
 0001:00031437       __dosmaperr                00432437 f   LIBCMT:dosmap.obj
 0001:00031458       __errno                    00432458 f   LIBCMT:dosmap.obj
 0001:0003146b       __get_errno_from_oserr     0043246b f   LIBCMT:dosmap.obj
 0001:000314ac       __beginthread              004324ac f   LIBCMT:thread.obj
 0001:0003158c       __endthread                0043258c f   LIBCMT:thread.obj
 0001:0003160e       ___raise_securityfailure   0043260e f   LIBCMT:gs_report.obj
 0001:0003164b       ___report_gsfailure        0043264b f   LIBCMT:gs_report.obj
 0001:00031746       ___report_rangecheckfailure 00432746 f   LIBCMT:gs_report.obj
 0001:00031752       ___report_securityfailure  00432752 f   LIBCMT:gs_report.obj
 0001:00031822       ??_U@YAPAXI@Z              00432822 f   LIBCMT:new2.obj
 0001:0003182b       ??_V@YAXPAX@Z              0043282b f   LIBCMT:delete2.obj
 0001:00031830       _WinMainCRTStartup         00432830 f   LIBCMT:wincrt0.obj
 0001:000319b1       ??0_LocaleUpdate@@QAE@PAUlocaleinfo_struct@@@Z 004329b1 f i LIBCMT:strtod.obj
 0001:00031a39       __strtod_l                 00432a39 f   LIBCMT:strtod.obj
 0001:00031b50       _strtod                    00432b50 f   LIBCMT:strtod.obj
 0001:00031d8b       _strtol                    00432d8b f   LIBCMT:strtol.obj
 0001:00031db5       _strtoul                   00432db5 f   LIBCMT:strtol.obj
 0001:00031de0       _floor                     00432de0 f   LIBCMT:floor_pentium4.obj
 0001:00031e20       __floor_pentium4           00432e20 f   LIBCMT:floor_pentium4.obj
 0001:00031f10       __aulldiv                  00432f10 f   LIBCMT:ulldiv.obj
 0001:00031f80       _memmove                   00432f80 f   LIBCMT:memmove.obj
 0001:000325d0       __ftol2_sse                004335d0 f   LIBCMT:ftol2.obj
 0001:000325d9       __ftol2_pentium4           004335d9 f   LIBCMT:ftol2.obj
 0001:000325ec       __ftol2_sse_excpt          004335ec f   LIBCMT:ftol2.obj
 0001:00032606       __ftol2                    00433606 f   LIBCMT:ftol2.obj
 0001:00032680       __ftoui3                   00433680 f   LIBCMT:ftol3.obj
 0001:0003268f       __ftoul3                   0043368f f   LIBCMT:ftol3.obj
 0001:0003269e       __ftol3                    0043369e f   LIBCMT:ftol3.obj
 0001:000326ab       __ftol3_NaN                004336ab f   LIBCMT:ftol3.obj
 0001:000326c3       __ftol3_work               004336c3 f   LIBCMT:ftol3.obj
 0001:00032749       __ftol3_common             00433749 f   LIBCMT:ftol3.obj
 0001:0003280b       __ftol3_arg_error          0043380b f   LIBCMT:ftol3.obj
 0001:0003281d       __ftol3_except             0043381d f   LIBCMT:ftol3.obj
 0001:00032861       __dtoui3                   00433861 f   LIBCMT:ftol3.obj
 0001:00032870       __dtoul3                   00433870 f   LIBCMT:ftol3.obj
 0001:0003287f       __dtol3                    0043387f f   LIBCMT:ftol3.obj
 0001:0003288c       __dtol3_NaN                0043388c f   LIBCMT:ftol3.obj
 0001:000328a9       __dtol3_work               004338a9 f   LIBCMT:ftol3.obj
 0001:0003298e       __ultod3                   0043398e f   LIBCMT:ftol3.obj
 0001:00032a1f       __ltod3                    00433a1f f   LIBCMT:ftol3.obj
 0001:00032a50       __CIsqrt                   00433a50 f   LIBCMT:sqrt.obj
 0001:00032a64       _sqrt                      00433a64     LIBCMT:sqrt.obj
 0001:00032b10       _ceil                      00433b10 f   LIBCMT:ceil_pentium4.obj
 0001:00032b50       __ceil_pentium4            00433b50 f   LIBCMT:ceil_pentium4.obj
 0001:00032c30       __alldiv                   00433c30 f   LIBCMT:lldiv.obj
 0001:00032ce0       __allmul                   00433ce0 f   LIBCMT:llmul.obj
 0001:00032d14       _malloc                    00433d14 f   LIBCMT:malloc.obj
 0001:00032da6       ??0exception@std@@QAE@ABQBDH@Z 00433da6 f   LIBCMT:stdexcpt.obj
 0001:00032dc1       ??0exception@std@@QAE@ABV01@@Z 00433dc1 f   LIBCMT:stdexcpt.obj
 0001:00032de4       ??1exception@std@@UAE@XZ   00433de4 f   LIBCMT:stdexcpt.obj
 0001:00032def       ??4exception@std@@QAEAAV01@ABV01@@Z 00433def f   LIBCMT:stdexcpt.obj
 0001:00032e22       ??_Eexception@std@@UAEPAXI@Z 00433e22 f i LIBCMT:stdexcpt.obj
 0001:00032e22       ??_Gexception@std@@UAEPAXI@Z 00433e22 f i LIBCMT:stdexcpt.obj
 0001:00032e47       ?_Copy_str@exception@std@@AAEXPBD@Z 00433e47 f   LIBCMT:stdexcpt.obj
 0001:00032e85       ?_Tidy@exception@std@@AAEXXZ 00433e85 f   LIBCMT:stdexcpt.obj
 0001:00032ea1       ?what@exception@std@@UBEPBDXZ 00433ea1 f   LIBCMT:stdexcpt.obj
 0001:00032eae       __callnewh                 00433eae f   LIBCMT:handler.obj
 0001:00032ed4       __initp_heap_handler       00433ed4 f   LIBCMT:handler.obj
 0001:00032ee1       __CxxThrowException@8      00433ee1 f   LIBCMT:throw.obj
 0001:00032f44       _free                      00433f44 f   LIBCMT:free.obj
 0001:00032f7c       ___crtCorExitProcess       00433f7c f   LIBCMT:crt0dat.obj
 0001:00032fb0       ___crtExitProcess          00433fb0 f   LIBCMT:crt0dat.obj
 0001:00032fc6       __amsg_exit                00433fc6 f   LIBCMT:crt0dat.obj
 0001:00032fe2       __c_exit                   00433fe2 f   LIBCMT:crt0dat.obj
 0001:00032ff1       __cexit                    00433ff1 f   LIBCMT:crt0dat.obj
 0001:00033000       __cinit                    00434000 f   LIBCMT:crt0dat.obj
 0001:00033084       __exit                     00434084 f   LIBCMT:crt0dat.obj
 0001:00033098       __init_pointers            00434098 f   LIBCMT:crt0dat.obj
 0001:00033106       __initterm_e               00434106 f   LIBCMT:crt0dat.obj
 0001:00033128       __lockexit                 00434128 f   LIBCMT:crt0dat.obj
 0001:00033131       __unlockexit               00434131 f   LIBCMT:crt0dat.obj
 0001:00033269       _exit                      00434269 f   LIBCMT:crt0dat.obj
 0001:0003327d       __msize                    0043427d f   LIBCMT:msize.obj
 0001:000332ae       __calloc_crt               004342ae f   LIBCMT:crtheap.obj
 0001:000332f6       __malloc_crt               004342f6 f   LIBCMT:crtheap.obj
 0001:0003333d       __realloc_crt              0043433d f   LIBCMT:crtheap.obj
 0001:00033390       __SEH_prolog4              00434390 f   LIBCMT:sehprolg4.obj
 0001:000333d5       __SEH_epilog4              004343d5 f   LIBCMT:sehprolg4.obj
 0001:000333f0       __except_handler4          004343f0 f   LIBCMT:chandler4.obj
 0001:00033584       __VEC_memset               00434584 f   LIBCMT:p4_memset.obj
 0001:0003364c       ___isa_available_init      0043464c f   LIBCMT:cpu_disp.obj
 0001:000337d0       _strcmp                    004347d0 f   LIBCMT:strcmp.obj
 0001:0003385c       ?_Type_info_dtor@type_info@@CAXPAV1@@Z 0043485c f   LIBCMT:typname.obj
 0001:000338cd       __cfltcvt                  004348cd f   LIBCMT:cvt.obj
 0001:000338ee       __cfltcvt_l                004348ee f   LIBCMT:cvt.obj
 0001:00033974       __cftoa_l                  00434974 f   LIBCMT:cvt.obj
 0001:00033cd0       __cftoe                    00434cd0 f   LIBCMT:cvt.obj
 0001:00033e3f       __cftoe_l                  00434e3f f   LIBCMT:cvt.obj
 0001:00033ff9       __cftof_l                  00434ff9 f   LIBCMT:cvt.obj
 0001:000340ba       __cftog_l                  004350ba f   LIBCMT:cvt.obj
 0001:000341b9       __cropzeros                004351b9 f   LIBCMT:cvt.obj
 0001:000341ca       __cropzeros_l              004351ca f   LIBCMT:cvt.obj
 0001:0003424a       __fassign                  0043524a f   LIBCMT:cvt.obj
 0001:00034262       __fassign_l                00435262 f   LIBCMT:cvt.obj
 0001:000342a4       __forcdecpt                004352a4 f   LIBCMT:cvt.obj
 0001:000342b5       __forcdecpt_l              004352b5 f   LIBCMT:cvt.obj
 0001:00034329       __positive                 00435329 f   LIBCMT:cvt.obj
 0001:0003436b       __setdefaultprecision      0043536b f   LIBCMT:fp8.obj
 0001:00034392       __initp_misc_cfltcvt_tab   00435392 f   LIBCMT:cmiscdat.obj
 0001:000343b1       __call_reportfault         004353b1 f   LIBCMT:invarg.obj
 0001:000344d6       __initp_misc_invarg        004354d6 f   LIBCMT:invarg.obj
 0001:000344e3       __invalid_parameter        004354e3 f   LIBCMT:invarg.obj
 0001:0003450e       __invalid_parameter_noinfo 0043550e f   LIBCMT:invarg.obj
 0001:0003451e       __invoke_watson            0043551e f   LIBCMT:invarg.obj
 0001:00034549       ___get_flsindex            00435549 f   LIBCMT:tidtable.obj
 0001:0003454f       __freefls@4                0043554f f   LIBCMT:tidtable.obj
 0001:00034684       __freeptd                  00435684 f   LIBCMT:tidtable.obj
 0001:000346ba       __getptd                   004356ba f   LIBCMT:tidtable.obj
 0001:000346d2       __getptd_noexit            004356d2 f   LIBCMT:tidtable.obj
 0001:00034741       __initptd                  00435741 f   LIBCMT:tidtable.obj
 0001:000347f4       __mtinit                   004357f4 f   LIBCMT:tidtable.obj
 0001:0003486a       __mtterm                   0043586a f   LIBCMT:tidtable.obj
 0001:00034887       __XcptFilter               00435887 f   LIBCMT:winxfltr.obj
 0001:000349e2       ___crtFlsAlloc             004359e2 f   LIBCMT:winapisupp.obj
 0001:00034a00       ___crtFlsFree              00435a00 f   LIBCMT:winapisupp.obj
 0001:00034a1f       ___crtFlsGetValue          00435a1f f   LIBCMT:winapisupp.obj
 0001:00034a3e       ___crtFlsSetValue          00435a3e f   LIBCMT:winapisupp.obj
 0001:00034a60       ___crtGetShowWindowMode    00435a60 f   LIBCMT:winapisupp.obj
 0001:00034a83       ___crtInitializeCriticalSectionEx 00435a83 f   LIBCMT:winapisupp.obj
 0001:00034ab1       ___crtIsPackagedApp        00435ab1 f   LIBCMT:winapisupp.obj
 0001:00034af1       ___crtLoadWinApiPointers   00435af1 f   LIBCMT:winapisupp.obj
 0001:00034d7c       ___crtSetUnhandledExceptionFilter 00435d7c f   LIBCMT:winapisupp.obj
 0001:00034d8a       ___crtSleep                00435d8a f   LIBCMT:winapisupp.obj
 0001:00034d98       ___crtTerminateProcess     00435d98 f   LIBCMT:winapisupp.obj
 0001:00034dad       ___crtUnhandledException   00435dad f   LIBCMT:winapisupp.obj
 0001:00034dc3       __crt_debugger_hook        00435dc3 f   LIBCMT:dbghook.obj
 0001:00034dcb       ?__CxxUnhandledExceptionFilter@@YGJPAU_EXCEPTION_POINTERS@@@Z 00435dcb f   LIBCMT:unhandld.obj
 0001:00034e0c       ___CxxSetUnhandledExceptionFilter 00435e0c f   LIBCMT:unhandld.obj
 0001:00034e1a       __heap_init                00435e1a f   LIBCMT:heapinit.obj
 0001:00034e2f       __ioinit                   00435e2f f   LIBCMT:ioinit.obj
 0001:000350e3       __setargv                  004360e3 f   LIBCMT:stdargv.obj
 0001:00035312       __setenvp                  00436312 f   LIBCMT:stdenvp.obj
 0001:000353f3       __FF_MSGBANNER             004363f3 f   LIBCMT:crt0msg.obj
 0001:0003542c       __GET_RTERRMSG             0043642c f   LIBCMT:crt0msg.obj
 0001:00035450       __NMSG_WRITE               00436450 f   LIBCMT:crt0msg.obj
 0001:0003560d       ___set_app_type            0043660d f   LIBCMT:errmode.obj
 0001:0003561a       __set_error_mode           0043661a f   LIBCMT:errmode.obj
 0001:0003565a       ___security_init_cookie    0043665a f   LIBCMT:gs_support.obj
 0001:000356f6       __RTC_Initialize           004366f6 f   LIBCMT:initsect.obj
 0001:00035716       __RTC_Terminate            00436716 f   LIBCMT:initsect.obj
 0001:00035736       ___crtGetEnvironmentStringsA 00436736 f   LIBCMT:a_env.obj
 0001:000357c3       __wincmdln                 004367c3 f   LIBCMT:wincmdln.obj
 0001:00035822       __fltin2                   00436822 f   LIBCMT:cfin.obj
 0001:000358c9       ___addlocaleref            004368c9 f   LIBCMT:localref.obj
 0001:0003595e       ___freetlocinfo            0043695e f   LIBCMT:localref.obj
 0001:00035ab8       ___removelocaleref         00436ab8 f   LIBCMT:localref.obj
 0001:00035b58       ___updatetlocinfo          00436b58 f   LIBCMT:localref.obj
 0001:00035bd8       __updatetlocinfoEx_nolock  00436bd8 f   LIBCMT:localref.obj
 0001:00035c23       ___initmbctable            00436c23 f   LIBCMT:mbctype.obj
 0001:00035eda       ___updatetmbcinfo          00436eda f   LIBCMT:mbctype.obj
 0001:00035f80       __setmbcp                  00436f80 f   LIBCMT:mbctype.obj
 0001:00036128       __setmbcp_nolock           00437128 f   LIBCMT:mbctype.obj
 0001:00036313       __isctype_l                00437313 f   LIBCMT:isctype.obj
 0001:000363d0       __locterm                  004373d0 f   LIBCMT:wsetloca.obj
 0001:00036422       __fptostr                  00437422 f   LIBCMT:_fptostr.obj
 0001:000364d2       ___dtold                   004374d2 f   LIBCMT:cfout.obj
 0001:0003659a       __fltout2                  0043759a f   LIBCMT:cfout.obj
 0001:00036628       ___libm_error_support      00437628 f   LIBCMT:libm_error.obj
 0001:00036910       __sse2_mathfcns_init       00437910 f   LIBCMT:mathfcns.obj
 0001:0003691f       __floor_default            0043791f f   LIBCMT:floor.obj
 0001:000369f6       __errcode                  004379f6 f   LIBCMT:fpexcept.obj
 0001:00036a28       __except1                  00437a28 f   LIBCMT:fpexcept.obj
 0001:00036af0       __handle_exc               00437af0 f   LIBCMT:fpexcept.obj
 0001:00036cce       __handle_qnan1             00437cce f   LIBCMT:fpexcept.obj
 0001:00036d1e       __raise_exc                00437d1e f   LIBCMT:fpexcept.obj
 0001:00036d3f       __raise_exc_ex             00437d3f f   LIBCMT:fpexcept.obj
 0001:00037024       __set_errno_from_matherr   00438024 f   LIBCMT:fpexcept.obj
 0001:00037051       __umatherr                 00438051 f   LIBCMT:fpexcept.obj
 0001:00037100       __trandisp1                00438100 f   LIBCMT:87disp.obj
 0001:00037167       __trandisp2                00438167 f   LIBCMT:87disp.obj
 0001:000371f3       __rttospopde               004381f3     LIBCMT:87disp.obj
 0001:000371f8       __rttospop                 004381f8     LIBCMT:87disp.obj
 0001:000371fa       __rtnospop                 004381fa     LIBCMT:87disp.obj
 0001:000371fc       __rttosnpop                004381fc     LIBCMT:87disp.obj
 0001:000371fd       __rtnospopde               004381fd     LIBCMT:87disp.obj
 0001:00037204       __rtzeropop                00438204     LIBCMT:87disp.obj
 0001:00037206       __rtzeronpop               00438206     LIBCMT:87disp.obj
 0001:0003720b       __rtonepop                 0043820b     LIBCMT:87disp.obj
 0001:0003720d       __rtonenpop                0043820d     LIBCMT:87disp.obj
 0001:00037212       __tosnan1                  00438212     LIBCMT:87disp.obj
 0001:0003723d       __nosnan2                  0043823d     LIBCMT:87disp.obj
 0001:0003723f       __tosnan2                  0043823f     LIBCMT:87disp.obj
 0001:00037267       __nan2                     00438267     LIBCMT:87disp.obj
 0001:000372a6       __rtindfpop                004382a6     LIBCMT:87disp.obj
 0001:000372a8       __rtindfnpop               004382a8     LIBCMT:87disp.obj
 0001:000372b9       __rttosnpopde              004382b9     LIBCMT:87disp.obj
 0001:000372c3       __rtchsifneg               004382c3     LIBCMT:87disp.obj
 0001:000372d0       __startTwoArgErrorHandling 004382d0 f   LIBCMT:genexcep.obj
 0001:000372e7       __startOneArgErrorHandling 004382e7 f   LIBCMT:genexcep.obj
 0001:00037330       __twoToTOS                 00438330 f   LIBCMT:common.obj
 0001:00037345       __load_CW                  00438345 f   LIBCMT:common.obj
 0001:0003735c       __convertTOStoQNaN         0043835c f   LIBCMT:common.obj
 0001:00037375       __fload_withFB             00438375 f   LIBCMT:common.obj
 0001:000373b8       __checkTOS_withFB          004383b8 f   LIBCMT:common.obj
 0001:000373ce       __fast_exit                004383ce f   LIBCMT:common.obj
 0001:000373db       __math_exit                004383db f   LIBCMT:common.obj
 0001:00037405       __check_overflow_exit      00438405 f   LIBCMT:common.obj
 0001:00037419       __check_range_exit         00438419 f   LIBCMT:common.obj
 0001:000374bc       __ceil_default             004384bc f   LIBCMT:ceil.obj
 0001:00037593       __decomp                   00438593 f   LIBCMT:util.obj
 0001:00037665       __set_exp                  00438665 f   LIBCMT:util.obj
 0001:00037694       __sptype                   00438694 f   LIBCMT:util.obj
 0001:000376ef       ___set_fpsr_sse2           004386ef f   LIBCMT:fpctrl.obj
 0001:00037765       __clrfp                    00438765 f   LIBCMT:fpctrl.obj
 0001:00037776       __ctrlfp                   00438776 f   LIBCMT:fpctrl.obj
 0001:000377a1       __set_statfp               004387a1 f   LIBCMT:fpctrl.obj
 0001:000377f9       __statfp                   004387f9 f   LIBCMT:fpctrl.obj
 0001:00037809       _strcpy_s                  00438809 f   LIBCMT:strcpy_s.obj
 0001:00037860       _strlen                    00438860 f   LIBCMT:strlen.obj
 0001:000378eb       __lock                     004388eb f   LIBCMT:mlock.obj
 0001:0003791f       __mtdeletelocks            0043891f f   LIBCMT:mlock.obj
 0001:00037973       __mtinitlocknum            00438973 f   LIBCMT:mlock.obj
 0001:00037a1c       __mtinitlocks              00438a1c f   LIBCMT:mlock.obj
 0001:00037a55       __unlock                   00438a55 f   LIBCMT:mlock.obj
 0001:00037a70       __FindPESection            00438a70 f   LIBCMT:pesect.obj
 0001:00037ac0       __IsNonwritableInCurrentImage 00438ac0 f   LIBCMT:pesect.obj
 0001:00037b80       __ValidateImageBase        00438b80 f   LIBCMT:pesect.obj
 0001:00037bb1       ?terminate@@YAXXZ          00438bb1 f   LIBCMT:hooks.obj
 0001:00037be5       __initp_eh_hooks           00438be5 f   LIBCMT:hooks.obj
 0001:00037bf6       __initp_misc_purevirt      00438bf6 f   LIBCMT:inithelp.obj
 0001:00037c03       ___get_sigabrt             00438c03 f   LIBCMT:winsig.obj
 0001:00037c10       __initp_misc_winsig        00438c10 f   LIBCMT:winsig.obj
 0001:00037c2c       _raise                     00438c2c f   LIBCMT:winsig.obj
 0001:00037e21       __initp_misc_rand_s        00438e21 f   LIBCMT:rand_s.obj
 0001:00037e2e       _realloc                   00438e2e f   LIBCMT:realloc.obj
 0001:00037ed9       __calloc_impl              00438ed9 f   LIBCMT:calloc_impl.obj
 0001:00037f60       __local_unwind4            00438f60 f   LIBCMT:exsup4.obj
 0001:00038036       __seh_longjmp_unwind4@4    00439036 f   LIBCMT:exsup4.obj
 0001:00038052       @_EH4_CallFilterFunc@8     00439052 f   LIBCMT:exsup4.obj
 0001:00038069       @_EH4_TransferToHandler@8  00439069 f   LIBCMT:exsup4.obj
 0001:00038082       @_EH4_GlobalUnwind2@8      00439082 f   LIBCMT:exsup4.obj
 0001:0003809b       @_EH4_LocalUnwind@16       0043909b f   LIBCMT:exsup4.obj
 0001:000380b2       __isdigit_l                004390b2 f i LIBCMT:_ctype.obj
 0001:00038104       _isdigit                   00439104 f i LIBCMT:_ctype.obj
 0001:0003812f       __tolower_l                0043912f f   LIBCMT:tolower.obj
 0001:00038272       _tolower                   00439272 f   LIBCMT:tolower.obj
 0001:000382a0       _strrchr                   004392a0 f   LIBCMT:strrchr.obj
 0001:000383d7       ___crt_atoflt_l            004393d7 f   LIBCMT:atodbl.obj
 0001:0003847b       __atodbl_l                 0043947b f   LIBCMT:atodbl.obj
 0001:00038509       __atoflt_l                 00439509 f   LIBCMT:atodbl.obj
 0001:00038530       __alldvrm                  00439530 f   LIBCMT:lldvrm.obj
 0001:00038610       __aullshr                  00439610 f   LIBCMT:ullshr.obj
 0001:0003862f       __controlfp_s              0043962f f   LIBCMT:contrlfp.obj
 0001:0003868c       __fptrap                   0043968c f   LIBCMT:crt0fp.obj
 0001:00038695       ___initstdio               00439695 f   LIBCMT:_file.obj
 0001:00038708       ___endstdio                00439708 f   LIBCMT:_file.obj
 0001:0003872f       __lock_file                0043972f f   LIBCMT:_file.obj
 0001:0003876e       __lock_file2               0043976e f   LIBCMT:_file.obj
 0001:0003879e       __unlock_file              0043979e f   LIBCMT:_file.obj
 0001:000387d8       __unlock_file2             004397d8 f   LIBCMT:_file.obj
 0001:0003885f       __ismbblead                0043985f f   LIBCMT:ismbbyte.obj
 0001:00038875       _wcscat_s                  00439875 f   LIBCMT:wcscat_s.obj
 0001:000388e1       _wcscpy_s                  004398e1 f   LIBCMT:wcscpy_s.obj
 0001:0003893d       _wcslen                    0043993d f   LIBCMT:wcslen.obj
 0001:00038956       _wcsncpy_s                 00439956 f   LIBCMT:wcsncpy_s.obj
 0001:00038a14       ___crtMessageBoxW          00439a14 f   LIBCMT:crtmboxw.obj
 0001:00038bfa       __ld12tod                  00439bfa f   LIBCMT:intrncvt.obj
 0001:0003916c       __ld12tof                  0043a16c f   LIBCMT:intrncvt.obj
 0001:000396de       ___strgtold12_l            0043a6de f   LIBCMT:strgtold.obj
 0001:00039e86       ___free_lconv_mon          0043ae86 f   LIBCMT:initmon.obj
 0001:00039f82       ___free_lconv_num          0043af82 f   LIBCMT:initnum.obj
 0001:00039fe9       ___free_lc_time            0043afe9 f   LIBCMT:inittime.obj
 0001:0003a56d       ___crtLCMapStringA         0043b56d f   LIBCMT:a_map.obj
 0001:0003a5b3       __freea                    0043b5b3 f i LIBCMT:a_map.obj
 0001:0003a6c9       ___crtGetStringTypeA       0043b6c9 f   LIBCMT:a_str.obj
 0001:0003a709       __isleadbyte_l             0043b709 f i LIBCMT:_wctype.obj
 0001:0003a743       _isleadbyte                0043b743 f i LIBCMT:_wctype.obj
 0001:0003a754       _GetTableIndexFromLocaleName 0043b754 f   LIBCMT:winapinls.obj
 0001:0003a7a2       ___crtDownlevelLocaleNameToLCID 0043b7a2 f   LIBCMT:winapinls.obj
 0001:0003a7cc       ___crtLCMapStringEx        0043b7cc f   LIBCMT:winapinls.obj
 0001:0003a818       ___wcsnicmp_ascii          0043b818 f   LIBCMT:winapinls.obj
 0001:0003a886       _$I10_OUTPUT               0043b886 f   LIBCMT:x10fout.obj
 0001:0003b25a       __matherr                  0043c25a f   LIBCMT:matherr.obj
 0001:0003b25d       __frnd                     0043c25d f   LIBCMT:frnd.obj
 0001:0003b271       __87except                 0043c271 f   LIBCMT:87except.obj
 0001:0003b37a       _abort                     0043c37a f   LIBCMT:abort.obj
 0001:0003b3bd       __fileno                   0043c3bd f   LIBCMT:fileno.obj
 0001:0003b3e1       __isatty                   0043c3e1 f   LIBCMT:isatty.obj
 0001:0003b435       __fflush_nolock            0043c435 f   LIBCMT:fflush.obj
 0001:0003b47b       __flush                    0043c47b f   LIBCMT:fflush.obj
 0001:0003b4df       __flushall                 0043c4df f   LIBCMT:fflush.obj
 0001:0003b5d0       __global_unwind2           0043c5d0 f   LIBCMT:exsup.obj
 0001:0003b635       __local_unwind2            0043c635 f   LIBCMT:exsup.obj
 0001:0003b6b9       __abnormal_termination     0043c6b9 f   LIBCMT:exsup.obj
 0001:0003b6dc       __NLG_Notify1              0043c6dc f   LIBCMT:exsup.obj
 0001:0003b6e5       __NLG_Notify               0043c6e5 f   LIBCMT:exsup.obj
 0001:0003b6fc       __NLG_Dispatch             0043c6fc     LIBCMT:exsup.obj
 0001:0003b6fc       __NLG_Dispatch2            0043c6fc     LIBCMT:exsup.obj
 0001:0003b704       __NLG_Call                 0043c704 f   LIBCMT:exsup.obj
 0001:0003b706       __NLG_Return2              0043c706     LIBCMT:exsup.obj
 0001:0003b710       __aulldvrm                 0043c710 f   LIBCMT:ulldvrm.obj
 0001:0003b84e       __control87                0043c84e f i LIBCMT:ieee87.obj
 0001:0003bbe7       __fcloseall                0043cbe7 f   LIBCMT:closeall.obj
 0001:0003bc84       ___mtold12                 0043cc84 f   LIBCMT:mantold.obj
 0001:0003be70       __alloca_probe_16          0043ce70 f   LIBCMT:alloca16.obj
 0001:0003be86       __alloca_probe_8           0043ce86     LIBCMT:alloca16.obj
 0001:0003be9c       __commit                   0043ce9c f   LIBCMT:commit.obj
 0001:0003bf86       __write                    0043cf86 f   LIBCMT:write.obj
 0001:0003c075       __write_nolock             0043d075 f   LIBCMT:write.obj
 0001:0003c8da       __fclose_nolock            0043d8da f   LIBCMT:fclose.obj
 0001:0003c946       _fclose                    0043d946 f   LIBCMT:fclose.obj
 0001:0003c9bd       ___lock_fhandle            0043d9bd f   LIBCMT:osfinfo.obj
 0001:0003ca4b       __free_osfhnd              0043da4b f   LIBCMT:osfinfo.obj
 0001:0003cad1       __get_osfhandle            0043dad1 f   LIBCMT:osfinfo.obj
 0001:0003cb38       __unlock_fhandle           0043db38 f   LIBCMT:osfinfo.obj
 0001:0003cb5e       __lseeki64_nolock          0043db5e f   LIBCMT:lseeki64.obj
 0001:0003cbd1       __mbtowc_l                 0043dbd1 f   LIBCMT:mbtowc.obj
 0001:0003ccc6       _mbtowc                    0043dcc6 f   LIBCMT:mbtowc.obj
 0001:0003ccde       __putwch_nolock            0043dcde f   LIBCMT:putwch.obj
 0001:0003cd21       __close                    0043dd21 f   LIBCMT:close.obj
 0001:0003cdfc       __close_nolock             0043ddfc f   LIBCMT:close.obj
 0001:0003ce96       __freebuf                  0043de96 f   LIBCMT:_freebuf.obj
 0001:0003cec6       ___termconout              0043dec6 f   LIBCMT:initcon.obj
 0001:0003cedd       ___initconout              0043dedd f   LIBCMT:initcon.obj
 0001:0003cefc       _IsProcessorFeaturePresent@4 0043defc f   kernel32:KERNEL32.dll
 0001:0003cf02       _RtlUnwind@16              0043df02 f   kernel32:KERNEL32.dll
 0001:0003cf08       _DdeInitializeA@16         0043df08 f   user32:USER32.dll
 0001:0003cf0e       _DdeUninitialize@4         0043df0e f   user32:USER32.dll
 0001:0003cf14       _DdeConnect@16             0043df14 f   user32:USER32.dll
 0001:0003cf1a       _DdeDisconnect@4           0043df1a f   user32:USER32.dll
 0001:0003cf20       _DdeClientTransaction@32   0043df20 f   user32:USER32.dll
 0001:0003cf26       _DdeCreateStringHandleA@12 0043df26 f   user32:USER32.dll
 0001:0003cf2c       _DdeFreeStringHandle@8     0043df2c f   user32:USER32.dll
 0001:0003cf32       _DdeCmpStringHandles@8     0043df32 f   user32:USER32.dll
 0002:00000000       __imp__InitCommonControls@0 0043f000     comctl32:COMCTL32.dll
 0002:00000004       \177COMCTL32_NULL_THUNK_DATA 0043f004     comctl32:COMCTL32.dll
 0002:00000008       __imp__SetBkColor@8        0043f008     gdi32:GDI32.dll
 0002:0000000c       __imp__SelectObject@8      0043f00c     gdi32:GDI32.dll
 0002:00000010       __imp__LineTo@12           0043f010     gdi32:GDI32.dll
 0002:00000014       __imp__DeleteObject@4      0043f014     gdi32:GDI32.dll
 0002:00000018       __imp__CreateSolidBrush@4  0043f018     gdi32:GDI32.dll
 0002:0000001c       __imp__CreatePen@12        0043f01c     gdi32:GDI32.dll
 0002:00000020       __imp__GetStockObject@4    0043f020     gdi32:GDI32.dll
 0002:00000024       __imp__MoveToEx@16         0043f024     gdi32:GDI32.dll
 0002:00000028       __imp__GetBkMode@4         0043f028     gdi32:GDI32.dll
 0002:0000002c       __imp__SetBkMode@8         0043f02c     gdi32:GDI32.dll
 0002:00000030       __imp__SetTextColor@8      0043f030     gdi32:GDI32.dll
 0002:00000034       __imp__SetTextAlign@8      0043f034     gdi32:GDI32.dll
 0002:00000038       __imp__TextOutA@20         0043f038     gdi32:GDI32.dll
 0002:0000003c       __imp__GetTextExtentPoint32A@16 0043f03c     gdi32:GDI32.dll
 0002:00000040       __imp__GetTextMetricsA@8   0043f040     gdi32:GDI32.dll
 0002:00000044       __imp__Ellipse@20          0043f044     gdi32:GDI32.dll
 0002:00000048       __imp__CreateFontIndirectA@4 0043f048     gdi32:GDI32.dll
 0002:0000004c       \177GDI32_NULL_THUNK_DATA  0043f04c     gdi32:GDI32.dll
 0002:00000050       __imp__SystemTimeToFileTime@8 0043f050     kernel32:KERNEL32.dll
 0002:00000054       __imp__GetLocalTime@4      0043f054     kernel32:KERNEL32.dll
 0002:00000058       __imp__lstrcmpA@8          0043f058     kernel32:KERNEL32.dll
 0002:0000005c       __imp__SetCommState@8      0043f05c     kernel32:KERNEL32.dll
 0002:00000060       __imp__GetCommState@8      0043f060     kernel32:KERNEL32.dll
 0002:00000064       __imp__WriteFile@20        0043f064     kernel32:KERNEL32.dll
 0002:00000068       __imp__CreateFileA@28      0043f068     kernel32:KERNEL32.dll
 0002:0000006c       __imp__FileTimeToSystemTime@8 0043f06c     kernel32:KERNEL32.dll
 0002:00000070       __imp__lstrcpynA@12        0043f070     kernel32:KERNEL32.dll
 0002:00000074       __imp__GetTickCount@0      0043f074     kernel32:KERNEL32.dll
 0002:00000078       __imp__WaitForSingleObject@8 0043f078     kernel32:KERNEL32.dll
 0002:0000007c       __imp__ResetEvent@4        0043f07c     kernel32:KERNEL32.dll
 0002:00000080       __imp__MoveFileA@8         0043f080     kernel32:KERNEL32.dll
 0002:00000084       __imp__GetFileAttributesA@4 0043f084     kernel32:KERNEL32.dll
 0002:00000088       __imp__lstrlenA@4          0043f088     kernel32:KERNEL32.dll
 0002:0000008c       __imp__WriteConsoleW@20    0043f08c     kernel32:KERNEL32.dll
 0002:00000090       __imp__SetFilePointerEx@20 0043f090     kernel32:KERNEL32.dll
 0002:00000094       __imp__SetStdHandle@8      0043f094     kernel32:KERNEL32.dll
 0002:00000098       __imp__GetConsoleMode@8    0043f098     kernel32:KERNEL32.dll
 0002:0000009c       __imp__GetConsoleCP@0      0043f09c     kernel32:KERNEL32.dll
 0002:000000a0       __imp__FlushFileBuffers@4  0043f0a0     kernel32:KERNEL32.dll
 0002:000000a4       __imp__LCMapStringW@24     0043f0a4     kernel32:KERNEL32.dll
 0002:000000a8       __imp__GetStringTypeW@16   0043f0a8     kernel32:KERNEL32.dll
 0002:000000ac       __imp__OutputDebugStringW@4 0043f0ac     kernel32:KERNEL32.dll
 0002:000000b0       __imp__RtlUnwind@16        0043f0b0     kernel32:KERNEL32.dll
 0002:000000b4       __imp__HeapReAlloc@16      0043f0b4     kernel32:KERNEL32.dll
 0002:000000b8       __imp__LoadLibraryExW@12   0043f0b8     kernel32:KERNEL32.dll
 0002:000000bc       __imp__GetCPInfo@8         0043f0bc     kernel32:KERNEL32.dll
 0002:000000c0       __imp__GetOEMCP@0          0043f0c0     kernel32:KERNEL32.dll
 0002:000000c4       __imp__GetACP@0            0043f0c4     kernel32:KERNEL32.dll
 0002:000000c8       __imp__IsValidCodePage@4   0043f0c8     kernel32:KERNEL32.dll
 0002:000000cc       __imp__FreeEnvironmentStringsW@4 0043f0cc     kernel32:KERNEL32.dll
 0002:000000d0       __imp__lstrcpyA@8          0043f0d0     kernel32:KERNEL32.dll
 0002:000000d4       __imp__WinExec@8           0043f0d4     kernel32:KERNEL32.dll
 0002:000000d8       __imp__CreateProcessA@40   0043f0d8     kernel32:KERNEL32.dll
 0002:000000dc       __imp__Sleep@4             0043f0dc     kernel32:KERNEL32.dll
 0002:000000e0       __imp__CreateEventA@16     0043f0e0     kernel32:KERNEL32.dll
 0002:000000e4       __imp__SetEvent@4          0043f0e4     kernel32:KERNEL32.dll
 0002:000000e8       __imp__CloseHandle@4       0043f0e8     kernel32:KERNEL32.dll
 0002:000000ec       __imp__CreateFileW@28      0043f0ec     kernel32:KERNEL32.dll
 0002:000000f0       __imp__SetFileAttributesA@8 0043f0f0     kernel32:KERNEL32.dll
 0002:000000f4       __imp__DeleteFileA@4       0043f0f4     kernel32:KERNEL32.dll
 0002:000000f8       __imp__GetEnvironmentStringsW@0 0043f0f8     kernel32:KERNEL32.dll
 0002:000000fc       __imp__GetSystemTimeAsFileTime@4 0043f0fc     kernel32:KERNEL32.dll
 0002:00000100       __imp__GetCurrentProcessId@0 0043f100     kernel32:KERNEL32.dll
 0002:00000104       __imp__QueryPerformanceCounter@4 0043f104     kernel32:KERNEL32.dll
 0002:00000108       __imp__GetModuleFileNameW@12 0043f108     kernel32:KERNEL32.dll
 0002:0000010c       __imp__GetModuleFileNameA@12 0043f10c     kernel32:KERNEL32.dll
 0002:00000110       __imp__GetFileType@4       0043f110     kernel32:KERNEL32.dll
 0002:00000114       __imp__GetStdHandle@4      0043f114     kernel32:KERNEL32.dll
 0002:00000118       __imp__GetProcessHeap@0    0043f118     kernel32:KERNEL32.dll
 0002:0000011c       __imp__GetModuleHandleW@4  0043f11c     kernel32:KERNEL32.dll
 0002:00000120       __imp__GetStartupInfoW@4   0043f120     kernel32:KERNEL32.dll
 0002:00000124       __imp__TlsFree@4           0043f124     kernel32:KERNEL32.dll
 0002:00000128       __imp__TlsSetValue@8       0043f128     kernel32:KERNEL32.dll
 0002:0000012c       __imp__FindClose@4         0043f12c     kernel32:KERNEL32.dll
 0002:00000130       __imp__FindFirstFileA@8    0043f130     kernel32:KERNEL32.dll
 0002:00000134       __imp__GetDriveTypeA@4     0043f134     kernel32:KERNEL32.dll
 0002:00000138       __imp__SetErrorMode@4      0043f138     kernel32:KERNEL32.dll
 0002:0000013c       __imp__lstrcmpiA@8         0043f13c     kernel32:KERNEL32.dll
 0002:00000140       __imp__lstrcatA@8          0043f140     kernel32:KERNEL32.dll
 0002:00000144       __imp__CopyFileA@12        0043f144     kernel32:KERNEL32.dll
 0002:00000148       __imp__GetFileSize@8       0043f148     kernel32:KERNEL32.dll
 0002:0000014c       __imp__LockFile@20         0043f14c     kernel32:KERNEL32.dll
 0002:00000150       __imp__ReadFile@20         0043f150     kernel32:KERNEL32.dll
 0002:00000154       __imp__SetEndOfFile@4      0043f154     kernel32:KERNEL32.dll
 0002:00000158       __imp__SetFilePointer@16   0043f158     kernel32:KERNEL32.dll
 0002:0000015c       __imp__UnlockFile@20       0043f15c     kernel32:KERNEL32.dll
 0002:00000160       __imp__GetLastError@0      0043f160     kernel32:KERNEL32.dll
 0002:00000164       __imp__GetFileTime@16      0043f164     kernel32:KERNEL32.dll
 0002:00000168       __imp__InitializeCriticalSection@4 0043f168     kernel32:KERNEL32.dll
 0002:0000016c       __imp__EnterCriticalSection@4 0043f16c     kernel32:KERNEL32.dll
 0002:00000170       __imp__LeaveCriticalSection@4 0043f170     kernel32:KERNEL32.dll
 0002:00000174       __imp__DeleteCriticalSection@4 0043f174     kernel32:KERNEL32.dll
 0002:00000178       __imp__GetPrivateProfileStringA@24 0043f178     kernel32:KERNEL32.dll
 0002:0000017c       __imp__WritePrivateProfileStringA@16 0043f17c     kernel32:KERNEL32.dll
 0002:00000180       __imp__GetCommandLineW@0   0043f180     kernel32:KERNEL32.dll
 0002:00000184       __imp__LocalFree@4         0043f184     kernel32:KERNEL32.dll
 0002:00000188       __imp__GetDiskFreeSpaceExA@16 0043f188     kernel32:KERNEL32.dll
 0002:0000018c       __imp__FindNextFileA@8     0043f18c     kernel32:KERNEL32.dll
 0002:00000190       __imp__CreateDirectoryA@8  0043f190     kernel32:KERNEL32.dll
 0002:00000194       __imp__RemoveDirectoryA@4  0043f194     kernel32:KERNEL32.dll
 0002:00000198       __imp__EncodePointer@4     0043f198     kernel32:KERNEL32.dll
 0002:0000019c       __imp__DecodePointer@4     0043f19c     kernel32:KERNEL32.dll
 0002:000001a0       __imp__CreateThread@24     0043f1a0     kernel32:KERNEL32.dll
 0002:000001a4       __imp__ExitThread@4        0043f1a4     kernel32:KERNEL32.dll
 0002:000001a8       __imp__ResumeThread@4      0043f1a8     kernel32:KERNEL32.dll
 0002:000001ac       __imp__IsDebuggerPresent@0 0043f1ac     kernel32:KERNEL32.dll
 0002:000001b0       __imp__IsProcessorFeaturePresent@4 0043f1b0     kernel32:KERNEL32.dll
 0002:000001b4       __imp__GetCommandLineA@0   0043f1b4     kernel32:KERNEL32.dll
 0002:000001b8       __imp__HeapAlloc@12        0043f1b8     kernel32:KERNEL32.dll
 0002:000001bc       __imp__RaiseException@16   0043f1bc     kernel32:KERNEL32.dll
 0002:000001c0       __imp__HeapFree@12         0043f1c0     kernel32:KERNEL32.dll
 0002:000001c4       __imp__ExitProcess@4       0043f1c4     kernel32:KERNEL32.dll
 0002:000001c8       __imp__GetModuleHandleExW@12 0043f1c8     kernel32:KERNEL32.dll
 0002:000001cc       __imp__GetProcAddress@8    0043f1cc     kernel32:KERNEL32.dll
 0002:000001d0       __imp__MultiByteToWideChar@24 0043f1d0     kernel32:KERNEL32.dll
 0002:000001d4       __imp__WideCharToMultiByte@32 0043f1d4     kernel32:KERNEL32.dll
 0002:000001d8       __imp__HeapSize@12         0043f1d8     kernel32:KERNEL32.dll
 0002:000001dc       __imp__SetLastError@4      0043f1dc     kernel32:KERNEL32.dll
 0002:000001e0       __imp__GetCurrentThreadId@0 0043f1e0     kernel32:KERNEL32.dll
 0002:000001e4       __imp__UnhandledExceptionFilter@4 0043f1e4     kernel32:KERNEL32.dll
 0002:000001e8       __imp__SetUnhandledExceptionFilter@4 0043f1e8     kernel32:KERNEL32.dll
 0002:000001ec       __imp__InitializeCriticalSectionAndSpinCount@8 0043f1ec     kernel32:KERNEL32.dll
 0002:000001f0       __imp__GetCurrentProcess@0 0043f1f0     kernel32:KERNEL32.dll
 0002:000001f4       __imp__TerminateProcess@8  0043f1f4     kernel32:KERNEL32.dll
 0002:000001f8       __imp__TlsAlloc@0          0043f1f8     kernel32:KERNEL32.dll
 0002:000001fc       __imp__TlsGetValue@4       0043f1fc     kernel32:KERNEL32.dll
 0002:00000200       \177KERNEL32_NULL_THUNK_DATA 0043f200     kernel32:KERNEL32.dll
 0002:00000204       __imp__CommandLineToArgvW@8 0043f204     shell32:SHELL32.dll
 0002:00000208       \177SHELL32_NULL_THUNK_DATA 0043f208     shell32:SHELL32.dll
 0002:0000020c       __imp__GetMessageA@16      0043f20c     user32:USER32.dll
 0002:00000210       __imp__TranslateMessage@4  0043f210     user32:USER32.dll
 0002:00000214       __imp__DispatchMessageA@4  0043f214     user32:USER32.dll
 0002:00000218       __imp__SendMessageA@16     0043f218     user32:USER32.dll
 0002:0000021c       __imp__PostMessageA@16     0043f21c     user32:USER32.dll
 0002:00000220       __imp__DefWindowProcA@16   0043f220     user32:USER32.dll
 0002:00000224       __imp__PostQuitMessage@4   0043f224     user32:USER32.dll
 0002:00000228       __imp__CallWindowProcA@20  0043f228     user32:USER32.dll
 0002:0000022c       __imp__RegisterClassA@4    0043f22c     user32:USER32.dll
 0002:00000230       __imp__CreateWindowExA@48  0043f230     user32:USER32.dll
 0002:00000234       __imp__CloseWindow@4       0043f234     user32:USER32.dll
 0002:00000238       __imp__CreateDialogParamA@20 0043f238     user32:USER32.dll
 0002:0000023c       __imp__GetDesktopWindow@0  0043f23c     user32:USER32.dll
 0002:00000240       __imp__IsWindowEnabled@4   0043f240     user32:USER32.dll
 0002:00000244       __imp__GetDlgCtrlID@4      0043f244     user32:USER32.dll
 0002:00000248       __imp__SetWindowPos@28     0043f248     user32:USER32.dll
 0002:0000024c       __imp__DdeGetData@16       0043f24c     user32:USER32.dll
 0002:00000250       __imp__SystemParametersInfoA@16 0043f250     user32:USER32.dll
 0002:00000254       __imp__IsDialogMessageA@8  0043f254     user32:USER32.dll
 0002:00000258       __imp__LoadIconA@8         0043f258     user32:USER32.dll
 0002:0000025c       __imp__LoadCursorA@8       0043f25c     user32:USER32.dll
 0002:00000260       __imp__SetWindowLongA@12   0043f260     user32:USER32.dll
 0002:00000264       __imp__MessageBoxA@16      0043f264     user32:USER32.dll
 0002:00000268       __imp__GetClientRect@8     0043f268     user32:USER32.dll
 0002:0000026c       __imp__InvalidateRect@12   0043f26c     user32:USER32.dll
 0002:00000270       __imp__ReleaseDC@8         0043f270     user32:USER32.dll
 0002:00000274       __imp__GetDC@4             0043f274     user32:USER32.dll
 0002:00000278       __imp__UpdateWindow@4      0043f278     user32:USER32.dll
 0002:0000027c       __imp__EnableMenuItem@12   0043f27c     user32:USER32.dll
 0002:00000280       __imp__GetMenu@4           0043f280     user32:USER32.dll
 0002:00000284       __imp__TranslateAcceleratorA@12 0043f284     user32:USER32.dll
 0002:00000288       __imp__LoadAcceleratorsA@8 0043f288     user32:USER32.dll
 0002:0000028c       __imp__KillTimer@8         0043f28c     user32:USER32.dll
 0002:00000290       __imp__SetTimer@16         0043f290     user32:USER32.dll
 0002:00000294       __imp__GetFocus@0          0043f294     user32:USER32.dll
 0002:00000298       __imp__SetFocus@4          0043f298     user32:USER32.dll
 0002:0000029c       __imp__CheckRadioButton@16 0043f29c     user32:USER32.dll
 0002:000002a0       __imp__GetDlgItem@8        0043f2a0     user32:USER32.dll
 0002:000002a4       __imp__EndDialog@8         0043f2a4     user32:USER32.dll
 0002:000002a8       __imp__CharToOemA@8        0043f2a8     user32:USER32.dll
 0002:000002ac       __imp__GetWindowTextLengthA@4 0043f2ac     user32:USER32.dll
 0002:000002b0       __imp__wsprintfA           0043f2b0     user32:USER32.dll
 0002:000002b4       __imp__IsWindowVisible@4   0043f2b4     user32:USER32.dll
 0002:000002b8       __imp__GetWindowRect@8     0043f2b8     user32:USER32.dll
 0002:000002bc       __imp__GetWindowLongA@8    0043f2bc     user32:USER32.dll
 0002:000002c0       __imp__GetParent@4         0043f2c0     user32:USER32.dll
 0002:000002c4       __imp__MapDialogRect@8     0043f2c4     user32:USER32.dll
 0002:000002c8       __imp__BeginPaint@8        0043f2c8     user32:USER32.dll
 0002:000002cc       __imp__EndPaint@8          0043f2cc     user32:USER32.dll
 0002:000002d0       __imp__FillRect@12         0043f2d0     user32:USER32.dll
 0002:000002d4       __imp__CharUpperA@4        0043f2d4     user32:USER32.dll
 0002:000002d8       __imp__DdeInitializeA@16   0043f2d8     user32:USER32.dll
 0002:000002dc       __imp__DdeUninitialize@4   0043f2dc     user32:USER32.dll
 0002:000002e0       __imp__DdeConnect@16       0043f2e0     user32:USER32.dll
 0002:000002e4       __imp__DdeDisconnect@4     0043f2e4     user32:USER32.dll
 0002:000002e8       __imp__DdeClientTransaction@32 0043f2e8     user32:USER32.dll
 0002:000002ec       __imp__DdeCreateStringHandleA@12 0043f2ec     user32:USER32.dll
 0002:000002f0       __imp__DdeFreeStringHandle@8 0043f2f0     user32:USER32.dll
 0002:000002f4       __imp__DdeCmpStringHandles@8 0043f2f4     user32:USER32.dll
 0002:000002f8       __imp__LoadStringA@16      0043f2f8     user32:USER32.dll
 0002:000002fc       __imp__ShowWindow@8        0043f2fc     user32:USER32.dll
 0002:00000300       __imp__MoveWindow@24       0043f300     user32:USER32.dll
 0002:00000304       __imp__IsDlgButtonChecked@8 0043f304     user32:USER32.dll
 0002:00000308       __imp__SendDlgItemMessageA@20 0043f308     user32:USER32.dll
 0002:0000030c       __imp__CheckMenuItem@12    0043f30c     user32:USER32.dll
 0002:00000310       __imp__SetForegroundWindow@4 0043f310     user32:USER32.dll
 0002:00000314       __imp__FindWindowA@8       0043f314     user32:USER32.dll
 0002:00000318       __imp__GetClassNameA@12    0043f318     user32:USER32.dll
 0002:0000031c       __imp__IsCharAlphaA@4      0043f31c     user32:USER32.dll
 0002:00000320       __imp__IsCharAlphaNumericA@4 0043f320     user32:USER32.dll
 0002:00000324       __imp__SetCursor@4         0043f324     user32:USER32.dll
 0002:00000328       __imp__DestroyWindow@4     0043f328     user32:USER32.dll
 0002:0000032c       __imp__GetUpdateRect@12    0043f32c     user32:USER32.dll
 0002:00000330       __imp__IsIconic@4          0043f330     user32:USER32.dll
 0002:00000334       __imp__EnableWindow@8      0043f334     user32:USER32.dll
 0002:00000338       __imp__ScreenToClient@8    0043f338     user32:USER32.dll
 0002:0000033c       __imp__SetCapture@4        0043f33c     user32:USER32.dll
 0002:00000340       __imp__ReleaseCapture@0    0043f340     user32:USER32.dll
 0002:00000344       __imp__GetSystemMetrics@4  0043f344     user32:USER32.dll
 0002:00000348       __imp__ClientToScreen@8    0043f348     user32:USER32.dll
 0002:0000034c       __imp__SetDlgItemTextA@12  0043f34c     user32:USER32.dll
 0002:00000350       __imp__DialogBoxParamA@20  0043f350     user32:USER32.dll
 0002:00000354       \177USER32_NULL_THUNK_DATA 0043f354     user32:USER32.dll
 0002:00000358       __imp__bind@12             0043f358     wsock32:WSOCK32.dll
 0002:0000035c       __imp__closesocket@4       0043f35c     wsock32:WSOCK32.dll
 0002:00000360       __imp__htonl@4             0043f360     wsock32:WSOCK32.dll
 0002:00000364       __imp__htons@4             0043f364     wsock32:WSOCK32.dll
 0002:00000368       __imp__inet_addr@4         0043f368     wsock32:WSOCK32.dll
 0002:0000036c       __imp__recvfrom@24         0043f36c     wsock32:WSOCK32.dll
 0002:00000370       __imp__sendto@24           0043f370     wsock32:WSOCK32.dll
 0002:00000374       __imp__socket@12           0043f374     wsock32:WSOCK32.dll
 0002:00000378       __imp__gethostbyname@4     0043f378     wsock32:WSOCK32.dll
 0002:0000037c       __imp__gethostname@8       0043f37c     wsock32:WSOCK32.dll
 0002:00000380       __imp__WSAStartup@8        0043f380     wsock32:WSOCK32.dll
 0002:00000384       __imp__WSACleanup@0        0043f384     wsock32:WSOCK32.dll
 0002:00000388       __imp__WSAGetLastError@0   0043f388     wsock32:WSOCK32.dll
 0002:0000038c       \177WSOCK32_NULL_THUNK_DATA 0043f38c     wsock32:WSOCK32.dll
 0002:00000390       ___xc_a                    0043f390     LIBCMT:crt0init.obj
 0002:00000568       ___xc_z                    0043f568     LIBCMT:crt0init.obj
 0002:0000056c       ___xi_a                    0043f56c     LIBCMT:crt0init.obj
 0002:00000588       ___xi_z                    0043f588     LIBCMT:crt0init.obj
 0002:0000058c       ___xp_a                    0043f58c     LIBCMT:crt0init.obj
 0002:0000059c       ___xp_z                    0043f59c     LIBCMT:crt0init.obj
 0002:000005a0       ___xt_a                    0043f5a0     LIBCMT:crt0init.obj
 0002:000005a4       ___xt_z                    0043f5a4     LIBCMT:crt0init.obj
 0002:000005b0       ??_C@_08JOACKOGI@F2_RADIO?$AA@ 0043f5b0     ft2.obj
 0002:000005bc       ??_C@_08FCKIKOPG@F3_RADIO?$AA@ 0043f5bc     ft2.obj
 0002:000005c8       ??_C@_08FIGNKHOP@F4_RADIO?$AA@ 0043f5c8     ft2.obj
 0002:000005d4       ??_C@_08JEMHKHHB@F5_RADIO?$AA@ 0043f5d4     ft2.obj
 0002:000005e0       ??_C@_08BKEIKAJC@F6_RADIO?$AA@ 0043f5e0     ft2.obj
 0002:000005ec       ??_C@_08NGOCKAAM@F7_RADIO?$AA@ 0043f5ec     ft2.obj
 0002:000005f8       ??_C@_08PMCLCKA@F8_RADIO?$AA@ 0043f5f8     ft2.obj
 0002:00000604       ??_C@_08MDGILCDO@F9_RADIO?$AA@ 0043f604     ft2.obj
 0002:00000610       ??_C@_09NOMCAMDG@F10_RADIO?$AA@ 0043f610     ft2.obj
 0002:00000664       ??_C@_0M@DCDNPFEC@CONTROL?4MSG?$AA@ 0043f664     ft2.obj
 0002:00000670       ??_C@_0BA@OENNMNIH@ftii_boards?4txt?$AA@ 0043f670     ft2.obj
 0002:00000680       ??_C@_0BJ@BHJCMMBN@ftii_ctrl_prog_steps?4txt?$AA@ 0043f680     ft2.obj
 0002:0000069c       ??_C@_0BJ@ODAJNKFO@ftii_editor_settings?4ini?$AA@ 0043f69c     ft2.obj
 0002:000006b8       ??_C@_0BJ@FCFIGOKK@ftii_global_settings?4txt?$AA@ 0043f6b8     ft2.obj
 0002:000006d4       ??_C@_0BK@ONGPLMIH@ftii_machine_settings?4txt?$AA@ 0043f6d4     ft2.obj
 0002:000006f0       ??_C@_0BC@IGICNJIO@machine_setup?4csv?$AA@ 0043f6f0     ft2.obj
 0002:00000704       ??_C@_0N@GCEJIGHD@SHOTPARM?4CSV?$AA@ 0043f704     ft2.obj
 0002:00000714       ??_C@_0M@NNLGJFNF@VALRESP?4SAV?$AA@ 0043f714     ft2.obj
 0002:00000720       ??_C@_04OGJDIIK@?4PR2?$AA@ 0043f720     ft2.obj
 0002:0000072c       ??_7WINDOW_CLASS@@6B@      0043f72c     ft2.obj
 0002:00000734       ??_7FTII_VAR@@6B@          0043f734     ft2.obj
 0002:00000760       ??_7FTII_VAR_ARRAY@@6B@    0043f760     ft2.obj
 0002:00000788       ??_C@_0BK@JIAPIBOO@UNABLE_TO_CONTINUE_STRING?$AA@ 0043f788     ft2.obj
 0002:000007a4       ??_C@_0BM@PBENDPAN@MONITOR_WINDOW_TITLE_STRING?$AA@ 0043f7a4     ft2.obj
 0002:000007c0       ??_C@_0BG@PGFHPJLI@LOW_DISK_SPACE_STRING?$AA@ 0043f7c0     ft2.obj
 0002:000007d8       ??_C@_0BG@GCNPIHIN@NO_SHOTS_SAVED_STRING?$AA@ 0043f7d8     ft2.obj
 0002:000007f0       ??_C@_0CA@BOPDHHEN@BOARD_MONITOR_EVENT_FAIL_STRING?$AA@ 0043f7f0     ft2.obj
 0002:00000810       ??_C@_0BM@FEKAFLOA@BOARD_MONITOR_THREAD_STRING?$AA@ 0043f810     ft2.obj
 0002:0000082c       ??_C@_0BP@MBLJONOD@BOARD_MONITOR_WAIT_FAIL_STRING?$AA@ 0043f82c     ft2.obj
 0002:0000084c       ??_C@_0BF@IEECDOLF@CREATE_FAILED_STRING?$AA@ 0043f84c     ft2.obj
 0002:00000864       ??_C@_0BF@LKCBEKFP@NOT_CONNECTED_STRING?$AA@ 0043f864     ft2.obj
 0002:0000087c       ??_C@_0BB@IJPALNMP@CONNECTED_STRING?$AA@ 0043f87c     ft2.obj
 0002:00000890       ??_C@_0BG@NIBEJHLI@CONTROL_ACTIVE_STRING?$AA@ 0043f890     ft2.obj
 0002:000008a8       ??_C@_0BF@KBHOFJJK@CONTROL_FATAL_STRING?$AA@ 0043f8a8     ft2.obj
 0002:000008c0       ??_C@_0BH@DKEAAJED@CONTROL_WARNING_STRING?$AA@ 0043f8c0     ft2.obj
 0002:000008d8       ??_C@_06CANJFOLG@SAVING?$AA@ 0043f8d8     ft2.obj
 0002:000008e0       ??_C@_0BC@GGGJBMFJ@NO_PROGRAM_STRING?$AA@ 0043f8e0     ft2.obj
 0002:000008f4       ??_C@_0P@PMPJEMAO@UNKNOWN_STRING?$AA@ 0043f8f4     ft2.obj
 0002:00000904       ??_C@_0BG@GHIHBFEF@STACK_OVERFLOW_STRING?$AA@ 0043f904     ft2.obj
 0002:0000091c       ??_C@_0BF@FMHMEAGO@BLOCK_TIMEOUT_STRING?$AA@ 0043f91c     ft2.obj
 0002:00000934       ??_C@_0BF@KMKNCACM@INVALID_BLOCK_STRING?$AA@ 0043f934     ft2.obj
 0002:0000094c       ??_C@_0BN@CHEJIGDH@BLOCK_EXECUTION_ERROR_STRING?$AA@ 0043f94c     ft2.obj
 0002:0000096c       ??_C@_0BP@NBEKDMJH@PROGRAM_STOPPED_BY_USER_STRING?$AA@ 0043f96c     ft2.obj
 0002:0000098c       ??_C@_0BI@GFJHLFMO@TEST_FATAL_ERROR_STRING?$AA@ 0043f98c     ft2.obj
 0002:000009a4       ??_C@_0BO@NALGKLEG@VAC_ABORT_POS_TOO_LONG_STRING?$AA@ 0043f9a4     ft2.obj
 0002:000009c4       ??_C@_0BN@BLJGAMFP@BLOCK_TIMEOUT_WARNING_STRING?$AA@ 0043f9c4     ft2.obj
 0002:000009e4       ??_C@_0BH@JIHFNNKD@FILL_TEST_ABORT_STRING?$AA@ 0043f9e4     ft2.obj
 0002:000009fc       ??_C@_0CB@OHKDLIGG@MASTER_ENABLE_DROPPED_OUT_STRING@ 0043f9fc     ft2.obj
 0002:00000a20       ??_C@_0BI@BPIKLEJG@VAC_ABORT_ZSPEED_STRING?$AA@ 0043fa20     ft2.obj
 0002:00000a38       ??_C@_0BE@JPIHKPPB@TEST_WARNING_STRING?$AA@ 0043fa38     ft2.obj
 0002:00000a4c       ??_C@_0BK@FHPCKNPE@SHOTSAVE_WAIT_FAIL_STRING?$AA@ 0043fa4c     ft2.obj
 0002:00000a68       ??_C@_0BL@JNLGLJMK@SHOTSAVE_EVENT_FAIL_STRING?$AA@ 0043fa68     ft2.obj
 0002:00000a84       ??_C@_0BH@FAFJGJBO@SHOTSAVE_THREAD_STRING?$AA@ 0043fa84     ft2.obj
 0002:00000a9c       ??_C@_0BI@DPCADGKG@UNABLE_TO_COMPLY_STRING?$AA@ 0043fa9c     ft2.obj
 0002:00000ab4       ??_C@_0BI@LKIBIMHA@N0_NEW_AUTO_NULL_STRING?$AA@ 0043fab4     ft2.obj
 0002:00000acc       ??_C@_0BG@PKLHGHDP@MANUAL_NULLING_STRING?$AA@ 0043facc     ft2.obj
 0002:00000ae4       ??_C@_0BH@DOAGDAGO@AUTO_NULL_BEGIN_STRING?$AA@ 0043fae4     ft2.obj
 0002:00000afc       ??_C@_0BG@NBBPLPFO@AUTO_NULL_FAIL_STRING?$AA@ 0043fafc     ft2.obj
 0002:00000b14       ??_C@_0BJ@JBLJKHGK@AUTO_NULL_SUCCESS_STRING?$AA@ 0043fb14     ft2.obj
 0002:00000b30       ??_C@_0BJ@KFODEHKM@NULL_ALREADY_GOOD_STRING?$AA@ 0043fb30     ft2.obj
 0002:00000b4c       ??_C@_0BL@ODDHPLCH@UNUSABLE_NULL_LEVEL_STRING?$AA@ 0043fb4c     ft2.obj
 0002:00000b68       ??_C@_0BF@BKOGOAJE@NOT_MONITORED_STRING?$AA@ 0043fb68     ft2.obj
 0002:00000b80       ??_C@_0BC@HPCNHJEA@CONNECTING_STRING?$AA@ 0043fb80     ft2.obj
 0002:00000b94       ??_C@_0BI@FJMJPHMI@NO_MASTER_ENABLE_STRING?$AA@ 0043fb94     ft2.obj
 0002:00000bac       ??_C@_0BC@CBFKLDBD@NO_CONNECT_STRING?$AA@ 0043fbac     ft2.obj
 0002:00000bc0       ??_C@_0BF@IPHCCGKF@DISCONNECTING_STRING?$AA@ 0043fbc0     ft2.obj
 0002:00000bd8       ??_C@_0BG@NKBBOJGJ@NO_WARMUP_PART_STRING?$AA@ 0043fbd8     ft2.obj
 0002:00000bf0       ??_C@_0BG@DCJOJCHJ@CANT_OPEN_FILE_STRING?$AA@ 0043fbf0     ft2.obj
 0002:00000c08       ??_C@_0BB@ILANLPLJ@NEW_SETUP_STRING?$AA@ 0043fc08     ft2.obj
 0002:00000c1c       ??_C@_0BE@IALFJBO@NAK_RECEIVED_STRING?$AA@ 0043fc1c     ft2.obj
 0002:00000c30       ??_C@_0BD@EGHKEENN@UPLOAD_FAIL_STRING?$AA@ 0043fc30     ft2.obj
 0002:00000c44       ??_C@_0BA@NCPDBEBN@REPEATED_STRING?$AA@ 0043fc44     ft2.obj
 0002:00000c54       ??_C@_0P@PBMBPKJJ@MISSING_STRING?$AA@ 0043fc54     ft2.obj
 0002:00000c64       ??_C@_0O@OEDKIIAL@PACKET_STRING?$AA@ 0043fc64     ft2.obj
 0002:00000c74       ??_C@_0BD@LBKCFIPG@SAVING_SHOT_STRING?$AA@ 0043fc74     ft2.obj
 0002:00000c88       ??_C@_0N@HCMMHMK@READY_STRING?$AA@ 0043fc88     ft2.obj
 0002:00000c98       ??_C@_0BE@CNJGBHKN@PACKET_ERROR_STRING?$AA@ 0043fc98     ft2.obj
 0002:00000cac       ??_C@_0BE@IPAKHOFA@BEGIN_UPLOAD_STRING?$AA@ 0043fcac     ft2.obj
 0002:00000cc0       ??_C@_0BH@OEPBDNGH@UPLOAD_COMPLETE_STRING?$AA@ 0043fcc0     ft2.obj
 0002:00000cd8       ??_C@_0M@OMCBOINC@CYCLE_START?$AA@ 0043fcd8     ft2.obj
 0002:00000ce4       ??_C@_0P@MMKDFOCH@TIMEOUT_STRING?$AA@ 0043fce4     ft2.obj
 0002:00000cf4       ??_C@_0BK@NIBFOECM@ZERO_STROKE_LENGTH_STRING?$AA@ 0043fcf4     ft2.obj
 0002:00000d10       ??_C@_09NEDLJIE@ON_STRING?$AA@ 0043fd10     ft2.obj
 0002:00000d1c       ??_C@_0L@IHDDAEOF@OFF_STRING?$AA@ 0043fd1c     ft2.obj
 0002:00000d28       ??_C@_0BG@NELLEGIC@NO_UPLOAD_FILE_STRING?$AA@ 0043fd28     ft2.obj
 0002:00000d40       ??_C@_0BI@IPKHNMEP@CONTROL_INPUT_18_STRING?$AA@ 0043fd40     ft2.obj
 0002:00000d58       ??_C@_0BI@JINMMIAM@CONTROL_INPUT_19_STRING?$AA@ 0043fd58     ft2.obj
 0002:00000d70       ??_C@_0BI@NPEIMFFE@CONTROL_INPUT_20_STRING?$AA@ 0043fd70     ft2.obj
 0002:00000d88       ??_C@_0BI@MIDDNBBH@CONTROL_INPUT_21_STRING?$AA@ 0043fd88     ft2.obj
 0002:00000da0       ??_C@_0BI@PBLOONNC@CONTROL_INPUT_22_STRING?$AA@ 0043fda0     ft2.obj
 0002:00000db8       ??_C@_0BI@OGMFPJJB@CONTROL_INPUT_23_STRING?$AA@ 0043fdb8     ft2.obj
 0002:00000dd0       ??_C@_0BI@ICKEJEFI@CONTROL_INPUT_24_STRING?$AA@ 0043fdd0     ft2.obj
 0002:00000de8       ??_C@_0BI@JFNPIABL@CONTROL_INPUT_25_STRING?$AA@ 0043fde8     ft2.obj
 0002:00000e00       ??_C@_0BI@KMFCLMNO@CONTROL_INPUT_26_STRING?$AA@ 0043fe00     ft2.obj
 0002:00000e18       ??_C@_0BI@LLCJKIJN@CONTROL_INPUT_27_STRING?$AA@ 0043fe18     ft2.obj
 0002:00000e30       ??_C@_0BI@GEJAGHEM@CONTROL_INPUT_28_STRING?$AA@ 0043fe30     ft2.obj
 0002:00000e48       ??_C@_0BI@HDOLHDAP@CONTROL_INPUT_29_STRING?$AA@ 0043fe48     ft2.obj
 0002:00000e60       ??_C@_0BB@LGFJJFGM@RESTARTED_STRING?$AA@ 0043fe60     ft2.obj
 0002:00000e74       ??_C@_0BN@KNMOGJNN@SHUTTING_DOWN_MONITOR_STRING?$AA@ 0043fe74     ft2.obj
 0002:00000e94       ??_C@_0BO@KDPLJOFK@SHUTTING_DOWN_SHOTSAVE_STRING?$AA@ 0043fe94     ft2.obj
 0002:00000eb4       ??_C@_0BM@NMFAPECH@SHUTTING_DOWN_REMOTE_STRING?$AA@ 0043feb4     ft2.obj
 0002:00000ed0       ??_C@_0BM@GKCLHJGF@SHOTSAVE_NOT_RUNNING_STRING?$AA@ 0043fed0     ft2.obj
 0002:00000eec       ??_C@_0BL@OGLPNMKC@TURN_ON_ALL_OUTPUTS_STRING?$AA@ 0043feec     ft2.obj
 0002:00000f08       ??_C@_0BM@EBAJNCLJ@TURN_OFF_ALL_OUTPUTS_STRING?$AA@ 0043ff08     ft2.obj
 0002:00000f24       ??_C@_0BD@LALIONGC@NO_RESPONSE_STRING?$AA@ 0043ff24     ft2.obj
 0002:00000f38       ??_C@_0N@COCDNNPI@BOARD_STRING?$AA@ 0043ff38     ft2.obj
 0002:00000f48       ??_C@_0P@HIHJEECJ@ADDRESS_STRING?$AA@ 0043ff48     ft2.obj
 0002:00000f58       ??_C@_0BC@CDMDCEAP@COM_STATUS_STRING?$AA@ 0043ff58     ft2.obj
 0002:00000f6c       ??_C@_0P@CFODCDAB@MACHINE_STRING?$AA@ 0043ff6c     ft2.obj
 0002:00000f7c       ??_C@_0M@FFBPEJAJ@PART_STRING?$AA@ 0043ff7c     ft2.obj
 0002:00000f88       ??_C@_0BG@HEIKPPCG@MONITOR_STATUS_STRING?$AA@ 0043ff88     ft2.obj
 0002:00000fa0       ??_C@_0BE@HKKGFPJL@LOW_PW_LEVEL_STRING?$AA@ 0043ffa0     ft2.obj
 0002:00000fb4       ??_C@_0BJ@PDGCBNI@INVALID_SHOT_NAME_STRING?$AA@ 0043ffb4     ft2.obj
 0002:00000fd0       ??_C@_07DFGIDBBA@Control?$AA@ 0043ffd0     ft2.obj
 0002:00000fd8       ??_C@_0L@CCDLMELP@?5?5Monitor?5?$AA@ 0043ffd8     ft2.obj
 0002:00000fe4       ??_C@_0M@NCCBAGIL@ft2help?4txt?$AA@ 0043ffe4     ft2.obj
 0002:00000ff0       ??_C@_0M@GJFNBFGB@ft2help?4exe?$AA@ 0043fff0     ft2.obj
 0002:00000ffc       ??_C@_0L@JHNOENLI@c?3?2ft2?4log?$AA@ 0043fffc     ft2.obj
 0002:00001008       ??_C@_0BA@BGAEDHJP@C?3?2terminal?4txt?$AA@ 00440008     ft2.obj
 0002:00001018       ??_C@_0O@CMNDOBFK@OO1?$DN?$HO00100000?$AA@ 00440018     ft2.obj
 0002:00001028       ??_C@_05BEACBLII@OC1?$DN0?$AA@ 00440028     ft2.obj
 0002:00001030       ??_C@_05GFHNOOAL@?4J0?41?$AA@ 00440030     ft2.obj
 0002:00001038       ??_C@_0BM@CPPPCOPO@Waiting?5for?5Control?5Halt?4?4?4?$AA@ 00440038     ft2.obj
 0002:00001054       ??_C@_0BI@MGMLDFDM@Waiting?5for?5Shutdown?4?4?4?$AA@ 00440054     ft2.obj
 0002:0000106c       ??_C@_05ICHLLNJO@OC5?$DN1?$AA@ 0044006c     ft2.obj
 0002:00001074       ??_C@_06HCNLGBAN@V351?$DN0?$AA@ 00440074     ft2.obj
 0002:0000107c       ??_C@_08ODNGMNLI@V390?$DN750?$AA@ 0044007c     ft2.obj
 0002:00001088       ??_C@_07JIMEKNKE@V391?$DN17?$AA@ 00440088     ft2.obj
 0002:00001090       ??_C@_09DFBOMPDL@V392?$DN1000?$AA@ 00440090     ft2.obj
 0002:0000109c       ??_C@_07CCBMFEOP@?4J0?4105?$AA@ 0044009c     ft2.obj
 0002:000010a4       ??_C@_05NBJCKMJ@OC1?$DN1?$AA@ 004400a4     ft2.obj
 0002:000010ac       ??_C@_0N@FHNNOBJG@OO1?$DN00100000?$AA@ 004400ac     ft2.obj
 0002:000010bc       ??_C@_03MHLONNLM@?5?$DN?5?$AA@ 004400bc     ft2.obj
 0002:000010d8       ??_C@_06EKIBLAGJ@?5Volts?$AA@ 004400d8     ft2.obj
 0002:000010e0       ??_C@_06HFKPFKMP@button?$AA@ 004400e0     ft2.obj
 0002:000010e8       ??_C@_0N@JIGDCNCG@STATUS_TITLE?$AA@ 004400e8     ft2.obj
 0002:000010f8       ??_C@_0P@BDOELOPI@TERMINAL_TITLE?$AA@ 004400f8     ft2.obj
 0002:00001108       ??_C@_0BA@OEJGDHHP@192?4168?4254?4100?$AA@ 00440108     ft2.obj
 0002:00001118       ??_C@_06GGHJAEBN@static?$AA@ 00440118     ft2.obj
 0002:00001120       ??_C@_07IALBKLFN@Startup?$AA@ 00440120     ft2.obj
 0002:00001128       ??_C@_02JBJOEGDK@MA?$AA@   00440128     ft2.obj
 0002:0000112c       ??_C@_02IFGAHGBJ@PA?$AA@   0044012c     ft2.obj
 0002:00001130       ??_C@_0P@JMPIMJNG@Startup?5Status?$AA@ 00440130     ft2.obj
 0002:00001140       ??_C@_07LHBBOFFP@listbox?$AA@ 00440140     ft2.obj
 0002:00001148       ??_C@_04BMCEDOKO@EDIT?$AA@ 00440148     ft2.obj
 0002:00001150       ??_C@_09EHNEPMML@OK_STRING?$AA@ 00440150     ft2.obj
 0002:0000115c       ??_C@_06JHILMIHF@CANCEL?$AA@ 0044015c     ft2.obj
 0002:00001164       ??_C@_0BC@KFALKHKA@PREV_UPLOAD_ABORT?$AA@ 00440164     ft2.obj
 0002:00001178       ??_C@_0M@OAEOPBOJ@OK_TO_RETRY?$AA@ 00440178     ft2.obj
 0002:00001184       ??_C@_0BF@LEAJOMJD@MACHINE_INTRO_STRING?$AA@ 00440184     ft2.obj
 0002:0000119c       ??_C@_0BE@DPPOPPGK@CONNECTION_RESTORED?$AA@ 0044019c     ft2.obj
 0002:000011b0       ??_C@_0BB@HKOHPAJO@tooltips_class32?$AA@ 004401b0     ft2.obj
 0002:000011c4       ??_C@_09BJOFHAOP@SLOW_SHOT?$AA@ 004401c4     ft2.obj
 0002:000011d0       ??_C@_0M@EEFGMCGH@ACCUMULATOR?$AA@ 004401d0     ft2.obj
 0002:000011dc       ??_C@_0BK@IHIGHIAD@Valve?5Test?5in?5Operation?5?5?$AA@ 004401dc     ft2.obj
 0002:000011f8       ??_C@_0BH@COPIELJO@Warning?5?$CIActive?5Low?$CJ?5?5?$AA@ 004401f8     ft2.obj
 0002:00001210       ??_C@_0BG@PCGCJKAF@Downtime?5Alarm?5Wire?5?5?$AA@ 00440210     ft2.obj
 0002:00001228       ??_C@_0P@CHOAOGDP@Monitor?5Wire?5?5?$AA@ 00440228     ft2.obj
 0002:00001238       ??_C@_0P@LNBINANL@Limit?5Switch?5?$CD?$AA@ 00440238     ft2.obj
 0002:00001248       ??_C@_09EDOGEHLP@LOW_ALARM?$AA@ 00440248     ft2.obj
 0002:00001254       ??_C@_0L@FPAKCMFE@HIGH_ALARM?$AA@ 00440254     ft2.obj
 0002:00001260       ??_C@_0M@DKOKJICH@LOW_WARNING?$AA@ 00440260     ft2.obj
 0002:0000126c       ??_C@_0N@FNAABGDM@HIGH_WARNING?$AA@ 0044026c     ft2.obj
 0002:0000127c       ??_C@_0BB@DGEELJI@WISH_TO_CONTINUE?$AA@ 0044027c     ft2.obj
 0002:00001290       ??_C@_0BD@FNJEJDAA@DEACTIVATE_CONTROL?$AA@ 00440290     ft2.obj
 0002:000012a4       ??_C@_0BO@JFMHNALL@Turning?5monitoring?5back?5on?4?4?4?$AA@ 004402a4     ft2.obj
 0002:000012c4       ??_C@_0BM@PIMKBHAK@Poking?5the?5monitor?5topic?4?4?4?$AA@ 004402c4     ft2.obj
 0002:000012e0       ??_C@_03KCPJAIHF@MON?$AA@  004402e0     ft2.obj
 0002:000012e4       ??_C@_0BC@MDJPAIHK@CHOOSE_MONITOR_MA?$AA@ 004402e4     ft2.obj
 0002:000012f8       ??_C@_0BB@EGFEHKLC@BEGIN_MONITORING?$AA@ 004402f8     ft2.obj
 0002:0000130c       ??_C@_0BE@IJILJCOM@CHOOSE_MON_MA_TITLE?$AA@ 0044030c     ft2.obj
 0002:00001320       ??_C@_0BA@DEGFDAFP@Start?5Shot?5Wire?$AA@ 00440320     ft2.obj
 0002:00001330       ??_C@_0BB@KGMIMNJA@Follow?5Thru?5Wire?$AA@ 00440330     ft2.obj
 0002:00001344       ??_C@_0N@BMPOBPLE@Retract?5Wire?$AA@ 00440344     ft2.obj
 0002:00001354       ??_C@_0L@DODOOHFN@Cycle?5Time?$AA@ 00440354     ft2.obj
 0002:00001360       ??_C@_0BB@PGBCFDAN@Follow?5Thru?5Time?$AA@ 00440360     ft2.obj
 0002:00001374       ??_C@_0N@EMCEIBCJ@Retract?5Time?$AA@ 00440374     ft2.obj
 0002:00001384       ??_C@_0BB@BLAEOKCK@Retract?5End?5Time?$AA@ 00440384     ft2.obj
 0002:00001398       ??_C@_05JAMOBCHA@OC6?$DN1?$AA@ 00440398     ft2.obj
 0002:000013a0       ??_C@_06MKGHAGGI@V350?$DN0?$AA@ 004403a0     ft2.obj
 0002:000013a8       ??_C@_02MOKMJMGM@VF?$AA@   004403a8     ft2.obj
 0002:000013ac       ??_C@_0P@OKDMEJED@BEGINNING_NULL?$AA@ 004403ac     ft2.obj
 0002:000013bc       ??_C@_0BB@GOFPHFH@AUTO_NULL_FAILED?$AA@ 004403bc     ft2.obj
 0002:000013d0       ??_C@_0BC@PJPHKJOH@AUTO_NULL_SUCCESS?$AA@ 004403d0     ft2.obj
 0002:000013e4       ??_C@_0BC@BGNPJBBL@NULL_ALREADY_GOOD?$AA@ 004403e4     ft2.obj
 0002:000013f8       ??_C@_0BB@FHDMGNKP@SET_NULL_VOLTAGE?$AA@ 004403f8     ft2.obj
 0002:0000140c       ??_C@_0N@KJHHKIEL@NULL_VOLTAGE?$AA@ 0044040c     ft2.obj
 0002:0000141c       ??_C@_09PFGDNALF@AUTO_NULL?$AA@ 0044041c     ft2.obj
 0002:00001428       ??_C@_0M@CAIOHAMC@MANUAL_NULL?$AA@ 00440428     ft2.obj
 0002:00001434       ??_C@_0BE@OGIGBJCP@MANUAL_INSTRUCTIONS?$AA@ 00440434     ft2.obj
 0002:00001448       ??_C@_05JFIFALLJ@OD1?$DNV?$AA@ 00440448     ft2.obj
 0002:00001450       ??_C@_05DPIMMDDC@OD3?$DNV?$AA@ 00440450     ft2.obj
 0002:00001458       ??_C@_06GNGOLINA@OD1?$DNV0?$AA@ 00440458     ft2.obj
 0002:00001460       ??_C@_06BHKOOLLA@OD3?$DNV0?$AA@ 00440460     ft2.obj
 0002:00001468       ??_C@_06CKMOMCAA@OD2?$DNV0?$AA@ 00440468     ft2.obj
 0002:00001470       ??_C@_06KFIODHKA@OD4?$DNV0?$AA@ 00440470     ft2.obj
 0002:00001478       ??_C@_06MHGIHNFE@ODP1?$DN0?$AA@ 00440478     ft2.obj
 0002:00001480       ??_C@_06GNGBLFNP@ODP3?$DN0?$AA@ 00440480     ft2.obj
 0002:00001488       ??_C@_06NFNNNCLK@ODP2?$DN0?$AA@ 00440488     ft2.obj
 0002:00001490       ??_C@_06PALGINGG@ODP4?$DN0?$AA@ 00440490     ft2.obj
 0002:00001498       ??_C@_06GMIKLMPP@OC12?$DN0?$AA@ 00440498     ft2.obj
 0002:000014a0       ??_C@_0L@PIOLEAIM@OD1?$DNV?95000?$AA@ 004404a0     ft2.obj
 0002:000014ac       ??_C@_0L@NGBNGIAK@OD3?$DNV?95000?$AA@ 004404ac     ft2.obj
 0002:000014b8       ??_C@_09MIHJPJAA@OD1?$DNV5000?$AA@ 004404b8     ft2.obj
 0002:000014c4       ??_C@_09IKFMPOHN@OD3?$DNV5000?$AA@ 004404c4     ft2.obj
 0002:000014d0       ??_C@_06NPJIEFDF@OC10?$DN1?$AA@ 004404d0     ft2.obj
 0002:000014d8       ??_C@_06GHCECCFA@OC11?$DN1?$AA@ 004404d8     ft2.obj
 0002:000014e0       ??_C@_06MGIDHEHE@OC10?$DN0?$AA@ 004404e0     ft2.obj
 0002:000014e8       ??_C@_06HODPBDBB@OC11?$DN0?$AA@ 004404e8     ft2.obj
 0002:000014f0       ??_C@_06HFJBINLO@OC12?$DN1?$AA@ 004404f0     ft2.obj
 0002:000014f8       ??_C@_08HJKDNGLI@ODP2?$DN127?$AA@ 004404f8     ft2.obj
 0002:00001504       ??_C@_08KPPKDFKF@ODP4?$DN127?$AA@ 00440504     ft2.obj
 0002:00001510       ??_C@_07NGCJGEFA@ODP1?$DN14?$AA@ 00440510     ft2.obj
 0002:00001518       ??_C@_07KMOJDHDA@ODP3?$DN14?$AA@ 00440518     ft2.obj
 0002:00001520       ??_C@_07KNJFFCPO@ODP1?$DN41?$AA@ 00440520     ft2.obj
 0002:00001528       ??_C@_07NHFFABJO@ODP3?$DN41?$AA@ 00440528     ft2.obj
 0002:00001530       ??_C@_07OKAMFHGK@ODP1?$DN96?$AA@ 00440530     ft2.obj
 0002:00001538       ??_C@_07JAMMAEAK@ODP3?$DN96?$AA@ 00440538     ft2.obj
 0002:00001540       ??_C@_09EGPGPOOD@OD2?$DNV5000?$AA@ 00440540     ft2.obj
 0002:0000154c       ??_C@_09IAJJPHGE@OD4?$DNV5000?$AA@ 0044054c     ft2.obj
 0002:00001558       ??_C@_0P@KMNCGAJN@OFFSET_VOLTAGE?$AA@ 00440558     ft2.obj
 0002:00001568       ??_C@_0O@GIHIOLJN@SEND_TO_BOARD?$AA@ 00440568     ft2.obj
 0002:00001578       ??_C@_07MEGBKIMN@SET_DAC?$AA@ 00440578     ft2.obj
 0002:00001580       ??_C@_07FBJAHANB@COMMAND?$AA@ 00440580     ft2.obj
 0002:00001588       ??_C@_05GFKIBFFA@VOLTS?$AA@ 00440588     ft2.obj
 0002:00001590       ??_C@_0O@HBLPMCCC@LVDT_FEEDBACK?$AA@ 00440590     ft2.obj
 0002:000015a0       ??_C@_0N@JGMDJLM@PLUS_5_VOLTS?$AA@ 004405a0     ft2.obj
 0002:000015b0       ??_C@_0O@POEJLDPO@MINUS_5_VOLTS?$AA@ 004405b0     ft2.obj
 0002:000015c0       ??_C@_08OAIFPMEH@MEAS_CMD?$AA@ 004405c0     ft2.obj
 0002:000015cc       ??_C@_0P@CLDJHBM@OFFSET_V_RANGE?$AA@ 004405cc     ft2.obj
 0002:000015dc       ??_C@_05EAOKHKPA@AMP_1?$AA@ 004405dc     ft2.obj
 0002:000015e4       ??_C@_05GLMHCJDD@AMP_2?$AA@ 004405e4     ft2.obj
 0002:000015ec       ??_C@_04JCMBDHCH@SPAN?$AA@ 004405ec     ft2.obj
 0002:000015f4       ??_C@_0L@ELJGPKLF@SPAN_RANGE?$AA@ 004405f4     ft2.obj
 0002:00001600       ??_C@_08GBOOHFLD@RAW_LVDT?$AA@ 00440600     ft2.obj
 0002:0000160c       ??_C@_03PENLHFGJ@5?40?$AA@ 0044060c     ft2.obj
 0002:00001610       ??_C@_04CKOMLGNN@?95?40?$AA@ 00440610     ft2.obj
 0002:00001618       ??_C@_0BK@OCKJFMKF@DEACTIVATE_CONTROL_DIALOG?$AA@ 00440618     ft2.obj
 0002:00001634       ??_C@_0BE@EPIPBGFC@MinLowImpactPercent?$AA@ 00440634     ft2.obj
 0002:00001648       ??_C@_0M@EHGMLJAA@MaxVelocity?$AA@ 00440648     ft2.obj
 0002:00001654       ??_C@_07NFANNNEC@UNKNOWN?$AA@ 00440654     ft2.obj
 0002:0000165c       ??_C@_0O@OBEIGADM@NULL_DAC_COMP?$AA@ 0044065c     ft2.obj
 0002:0000166c       ??_C@_0O@KPNFJLCP@LVDT_DAC_COMP?$AA@ 0044066c     ft2.obj
 0002:0000167c       ??_C@_0O@FPLGMGMH@JOG_VALVE_SET?$AA@ 0044067c     ft2.obj
 0002:0000168c       ??_C@_0BC@EFHHNCJE@RETRACT_VALVE_SET?$AA@ 0044068c     ft2.obj
 0002:000016a0       ??_C@_0M@IEFGNCJD@DITHER_FREQ?$AA@ 004406a0     ft2.obj
 0002:000016ac       ??_C@_0M@NLINEEMN@DITHER_AMPL?$AA@ 004406ac     ft2.obj
 0002:000016b8       ??_C@_0N@OOOEOBAM@FT_VALVE_SET?$AA@ 004406b8     ft2.obj
 0002:000016c8       ??_C@_0P@JMCPEODL@ZERO_SPEED_POS?$AA@ 004406c8     ft2.obj
 0002:000016d8       ??_C@_06EDIOBGKI@MIN_LI?$AA@ 004406d8     ft2.obj
 0002:000016e0       ??_C@_07FEFMEELL@MAX_VEL?$AA@ 004406e0     ft2.obj
 0002:000016e8       ??_C@_08LANKHIJL@PC_AXIS2?$AA@ 004406e8     ft2.obj
 0002:000016f4       ??_C@_0N@LIELKMLA@SAVE_CHANGES?$AA@ 004406f4     ft2.obj
 0002:00001704       ??_C@_0BA@GDKHEOKJ@REVERT_TO_SAVED?$AA@ 00440704     ft2.obj
 0002:00001714       ??_C@_0BF@DJDBMHMK@No?5Differences?5Found?$AA@ 00440714     ft2.obj
 0002:0000172c       ??_C@_02LHMJECBM@V0?$AA@   0044072c     ft2.obj
 0002:00001730       ??_C@_01GBGANLPD@0?$AA@    00440730     ft2.obj
 0002:00001734       ??_C@_0BC@LMPAAKAI@variable_list?4csv?$AA@ 00440734     ft2.obj
 0002:00001748       ??_C@_0L@IHBHPBD@NUM_STRING?$AA@ 00440748     ft2.obj
 0002:00001754       ??_C@_05BHBEIPOB@LIST1?$AA@ 00440754     ft2.obj
 0002:0000175c       ??_C@_05DMDJNMCC@LIST2?$AA@ 0044075c     ft2.obj
 0002:00001764       ??_C@_0M@FBMBBIBH@DESCRIPTION?$AA@ 00440764     ft2.obj
 0002:00001770       ??_C@_0M@GFMENJHJ@GETTING_VAR?$AA@ 00440770     ft2.obj
 0002:0000177c       ??_C@_09KJMOHIMH@GET_LIST1?$AA@ 0044077c     ft2.obj
 0002:00001788       ??_C@_09ICODCLAE@GET_LIST2?$AA@ 00440788     ft2.obj
 0002:00001794       ??_C@_08HMMELLNJ@SHOW_DIF?$AA@ 00440794     ft2.obj
 0002:000017a0       ??_C@_09JFEIFGEB@SAVE_VARS?$AA@ 004407a0     ft2.obj
 0002:000017ac       ??_C@_0N@PHKIEPFL@RESTORE_VARS?$AA@ 004407ac     ft2.obj
 0002:000017bc       ??_C@_05DPLMLBGP@?4025?5?$AA@ 004407bc     ft2.obj
 0002:000017c4       ??_C@_06KJDAMDAF@_E1?434?$AA@ 004407c4     ft2.obj
 0002:000017cc       ??_C@_03IHNIJANI@VA1?$AA@  004407cc     ft2.obj
 0002:000017d0       ??_C@_02KKLCNNNM@AC?$AA@   004407d0     ft2.obj
 0002:000017d4       ??_C@_01EJNLAFE@P?$AA@     004407d4     ft2.obj
 0002:000017d8       ??_C@_02PFIAKEDG@80?$AA@   004407d8     ft2.obj
 0002:000017dc       ??_C@_02PPBOIJDM@60?$AA@   004407dc     ft2.obj
 0002:000017e0       ??_C@_05DKPDKHOK@?4022?5?$AA@ 004407e0     ft2.obj
 0002:000017e8       ??_C@_05GCEIPCEA@?91000?$AA@ 004407e8     ft2.obj
 0002:000017f0       ??_C@_04JCBJEACK@UD1?$DN?$AA@ 004407f0     ft2.obj
 0002:000017f8       ??_C@_05IGCEBFN@?4075?5?$AA@ 004407f8     ft2.obj
 0002:00001800       ??_C@_05LMGGBLL@?4129?5?$AA@ 00440800     ft2.obj
 0002:00001808       ??_C@_05CFOIIIJA@?92000?$AA@ 00440808     ft2.obj
 0002:00001810       ??_C@_0BC@JHLDGMII@VALVE_START_VOLTS?$AA@ 00440810     ft2.obj
 0002:00001824       ??_C@_08NMKCMCIB@GEN_STEP?$AA@ 00440824     ft2.obj
 0002:00001830       ??_C@_0N@NDECPBEA@VOLTS_PROMPT?$AA@ 00440830     ft2.obj
 0002:00001840       ??_C@_0N@PGNECABG@PARK_VOLTAGE?$AA@ 00440840     ft2.obj
 0002:00001850       ??_C@_0O@HHAEJIPK@ALT_STEP_DESC?$AA@ 00440850     ft2.obj
 0002:00001860       ??_C@_0M@OGIGFKLP@NORMAL_STEP?$AA@ 00440860     ft2.obj
 0002:0000186c       ??_C@_08HDFJGDKA@ALT_STEP?$AA@ 0044086c     ft2.obj
 0002:00001878       ??_C@_03IFBIOKJE@SSV?$AA@  00440878     ft2.obj
 0002:0000187c       ??_C@_05DGFGBNPN@ACCEL?$AA@ 0044087c     ft2.obj
 0002:00001884       ??_C@_0L@IBCFBHGJ@ACC_ON_POS?$AA@ 00440884     ft2.obj
 0002:00001890       ??_C@_0O@LPEMJGHK@SAV_AS_MASTER?$AA@ 00440890     ft2.obj
 0002:000018a0       ??_C@_0L@PCANDAO@VERT_VOLTS?$AA@ 004408a0     ft2.obj
 0002:000018ac       ??_C@_0L@OEHLBGPJ@VALVE_TEST?$AA@ 004408ac     ft2.obj
 0002:000018b8       ??_C@_0N@OHHOJHPM@DIG_POT_GAIN?$AA@ 004408b8     ft2.obj
 0002:000018c8       ??_C@_0N@MIOLBNGI@InputBitCtrl?$AA@ 004408c8     ft2.obj
 0002:000018d8       ??_C@_0O@HKOFDAGD@OutputBitCtrl?$AA@ 004408d8     ft2.obj
 0002:000018e8       ??_C@_05NKGLFHFB@Mon?50?$AA@ 004408e8     ft2.obj
 0002:000018f0       ??_C@_05MDHAGGBA@Mon?51?$AA@ 004408f0     ft2.obj
 0002:000018f8       ??_C@_05OIFNDFND@Mon?52?$AA@ 004408f8     ft2.obj
 0002:00001900       ??_C@_05PBEGAEJC@Mon?53?$AA@ 00440900     ft2.obj
 0002:00001908       ??_C@_05LOAHJCFF@Mon?54?$AA@ 00440908     ft2.obj
 0002:00001910       ??_C@_05KHBMKDBE@Mon?55?$AA@ 00440910     ft2.obj
 0002:00001918       ??_C@_05IMDBPANH@Mon?56?$AA@ 00440918     ft2.obj
 0002:00001920       ??_C@_05JFCKMBJG@Mon?57?$AA@ 00440920     ft2.obj
 0002:00001928       ??_C@_05BCLCNNFJ@Mon?58?$AA@ 00440928     ft2.obj
 0002:00001930       ??_C@_05LKJOMBI@Mon?59?$AA@ 00440930     ft2.obj
 0002:00001938       ??_C@_06MCDCFGPB@Mon?510?$AA@ 00440938     ft2.obj
 0002:00001940       ??_C@_06NLCJGHLA@Mon?511?$AA@ 00440940     ft2.obj
 0002:00001948       ??_C@_06PAAEDEHD@Mon?512?$AA@ 00440948     ft2.obj
 0002:00001950       ??_C@_06OJBPAFDC@Mon?513?$AA@ 00440950     ft2.obj
 0002:00001958       ??_C@_06KGFOJDPF@Mon?514?$AA@ 00440958     ft2.obj
 0002:00001960       ??_C@_06LPEFKCLE@Mon?515?$AA@ 00440960     ft2.obj
 0002:00001968       ??_C@_07BMJJPDHN@Pump?5On?$AA@ 00440968     ft2.obj
 0002:00001970       ??_C@_0L@LJJJHIMI@Start?5Shot?$AA@ 00440970     ft2.obj
 0002:0000197c       ??_C@_0P@HONNILJE@Follow?5Through?$AA@ 0044097c     ft2.obj
 0002:0000198c       ??_C@_07MFKJBCPK@Retract?$AA@ 0044098c     ft2.obj
 0002:00001994       ??_C@_08JLMFPNJK@Jog?5Shot?$AA@ 00440994     ft2.obj
 0002:000019a0       ??_C@_0M@NCPHABO@Manual?5Mode?$AA@ 004409a0     ft2.obj
 0002:000019ac       ??_C@_07DDCCCAKH@At?5Home?$AA@ 004409ac     ft2.obj
 0002:000019b4       ??_C@_06OBBIKHLM@Bit?523?$AA@ 004409b4     ft2.obj
 0002:000019bc       ??_C@_06KOFJDBHL@Bit?524?$AA@ 004409bc     ft2.obj
 0002:000019c4       ??_C@_09BBABDAM@OK?5for?5FS?$AA@ 004409c4     ft2.obj
 0002:000019d0       ??_C@_06IKKCCKCG@Vac?5ON?$AA@ 004409d0     ft2.obj
 0002:000019d8       ??_C@_0L@BLABMDIA@Low?5Impact?$AA@ 004409d8     ft2.obj
 0002:000019e4       ??_C@_09GPGAEFAD@Fill?5Test?$AA@ 004409e4     ft2.obj
 0002:000019f0       ??_C@_06MHAPPDCA@Intens?$AA@ 004409f0     ft2.obj
 0002:000019f8       ??_C@_0O@LAKOBHNB@Bit?530?5?$CI0?931?$CJ?$AA@ 004409f8     ft2.obj
 0002:00001a08       ??_C@_06DIMIBLIM@E?9Stop?$AA@ 00440a08     ft2.obj
 0002:00001a10       ??_C@_08CIADBKHA@MonOut?50?$AA@ 00440a10     ft2.obj
 0002:00001a1c       ??_C@_08DBBICLDB@MonOut?51?$AA@ 00440a1c     ft2.obj
 0002:00001a28       ??_C@_08BKDFHIPC@MonOut?52?$AA@ 00440a28     ft2.obj
 0002:00001a34       ??_C@_08DCOEJLD@MonOut?53?$AA@ 00440a34     ft2.obj
 0002:00001a40       ??_C@_08EMGPNPHE@MonOut?54?$AA@ 00440a40     ft2.obj
 0002:00001a4c       ??_C@_08FFHEOODF@MonOut?55?$AA@ 00440a4c     ft2.obj
 0002:00001a58       ??_C@_08HOFJLNPG@MonOut?56?$AA@ 00440a58     ft2.obj
 0002:00001a64       ??_C@_08GHECIMLH@MonOut?57?$AA@ 00440a64     ft2.obj
 0002:00001a70       ??_C@_08OANKJAHI@MonOut?58?$AA@ 00440a70     ft2.obj
 0002:00001a7c       ??_C@_08PJMBKBDJ@MonOut?59?$AA@ 00440a7c     ft2.obj
 0002:00001a88       ??_C@_09IOKJCOOC@MonOut?510?$AA@ 00440a88     ft2.obj
 0002:00001a94       ??_C@_09JHLCBPKD@MonOut?511?$AA@ 00440a94     ft2.obj
 0002:00001aa0       ??_C@_09LMJPEMGA@MonOut?512?$AA@ 00440aa0     ft2.obj
 0002:00001aac       ??_C@_09KFIEHNCB@MonOut?513?$AA@ 00440aac     ft2.obj
 0002:00001ab8       ??_C@_09OKMFOLOG@MonOut?514?$AA@ 00440ab8     ft2.obj
 0002:00001ac4       ??_C@_09PDNONKKH@MonOut?515?$AA@ 00440ac4     ft2.obj
 0002:00001ad0       ??_C@_0BG@JGIFIACA@Slow?5Shot?5?5?5?5?5?5OUTPUT?$AA@ 00440ad0     ft2.obj
 0002:00001ae8       ??_C@_0BG@EJPLFJFD@Accumulator?5?5?5?5OUTPUT?$AA@ 00440ae8     ft2.obj
 0002:00001b00       ??_C@_09IDNDDCPL@OutBit?518?$AA@ 00440b00     ft2.obj
 0002:00001b0c       ??_C@_09JKMIADLK@OutBit?519?$AA@ 00440b0c     ft2.obj
 0002:00001b18       ??_C@_09EJEMAGKK@OutBit?520?$AA@ 00440b18     ft2.obj
 0002:00001b24       ??_C@_09FAFHDHOL@OutBit?521?$AA@ 00440b24     ft2.obj
 0002:00001b30       ??_C@_09HLHKGECI@OutBit?522?$AA@ 00440b30     ft2.obj
 0002:00001b3c       ??_C@_09GCGBFFGJ@OutBit?523?$AA@ 00440b3c     ft2.obj
 0002:00001b48       ??_C@_09CNCAMDKO@OutBit?524?$AA@ 00440b48     ft2.obj
 0002:00001b54       ??_C@_04OHBKJJLA@LS?55?$AA@ 00440b54     ft2.obj
 0002:00001b5c       ??_C@_04MMDHMKHD@LS?56?$AA@ 00440b5c     ft2.obj
 0002:00001b64       ??_C@_05GFBBDHMI@Fault?$AA@ 00440b64     ft2.obj
 0002:00001b6c       ??_C@_04IDHGFMLE@LS?51?$AA@ 00440b6c     ft2.obj
 0002:00001b74       ??_C@_04KIFLAPHH@LS?52?$AA@ 00440b74     ft2.obj
 0002:00001b7c       ??_C@_04LBEADODG@LS?53?$AA@ 00440b7c     ft2.obj
 0002:00001b84       ??_C@_04POABKIPB@LS?54?$AA@ 00440b84     ft2.obj
 0002:00001b8c       ??_C@_06BPJDBDPJ@Pos?5?$DN?5?$AA@ 00440b8c     ft2.obj
 0002:00001b94       ??_C@_08NJLONNMH@?0?5Vel?5?$DN?5?$AA@ 00440b94     ft2.obj
 0002:00001ba0       ??_C@_0BA@EEOAKOKB@Current?5Step?5?$DN?5?$AA@ 00440ba0     ft2.obj
 0002:00001bb0       ??_C@_0BB@JFCJKDMA@Status?5Word?51?5?$DN?5?$AA@ 00440bb0     ft2.obj
 0002:00001bc4       ??_C@_0O@IJMKCPNE@?0?5Meas?5CMD?5?$DN?5?$AA@ 00440bc4     ft2.obj
 0002:00001bd4       ??_C@_0BD@COCAEEAN@?0?5LVDT?5Feedback?5?$DN?5?$AA@ 00440bd4     ft2.obj
 0002:00001be8       ??_C@_08CFGAPIMC@?0?5Ch?51?$DN?5?$AA@ 00440be8     ft2.obj
 0002:00001bf4       ??_C@_08DHNFFHCM@?0?5Ch?52?$DN?5?$AA@ 00440bf4     ft2.obj
 0002:00001c00       ??_C@_09NMBKICKP@VERT_TEXT?$AA@ 00440c00     ft2.obj
 0002:00001c0c       ??_C@_09MMBLBGP@VERT_OPTO?$AA@ 00440c0c     ft2.obj
 0002:00001c18       ??_C@_0BF@PAPPEAPE@pkzip25?5?9add?5?9lev?$DN9?5?$AA@ 00440c18     ft2.obj
 0002:00001c30       ??_C@_0L@NAKCOLML@ALARM_TEST?$AA@ 00440c30     ft2.obj
 0002:00001c3c       ??_C@_0M@GKGCDPAD@MON_OUTPUTS?$AA@ 00440c3c     ft2.obj
 0002:00001c48       ??_C@_0M@KHBHPKP@CTL_OUTPUTS?$AA@ 00440c48     ft2.obj
 0002:00001c54       ??_C@_06KKEHBCCM@0_TO_3?$AA@ 00440c54     ft2.obj
 0002:00001c5c       ??_C@_06DKGEPDDL@4_TO_7?$AA@ 00440c5c     ft2.obj
 0002:00001c64       ??_C@_07CEEOODJI@8_TO_11?$AA@ 00440c64     ft2.obj
 0002:00001c6c       ??_C@_08GLIDCFAC@12_TO_15?$AA@ 00440c6c     ft2.obj
 0002:00001c78       ??_C@_0BA@NCDLLOFJ@CLICK_TO_TOGGLE?$AA@ 00440c78     ft2.obj
 0002:00001c88       ??_C@_0BA@GMGAMLFO@VELOCITY_STRING?$AA@ 00440c88     ft2.obj
 0002:00001c98       ??_C@_0BA@KHFCNJDP@POSITION_STRING?$AA@ 00440c98     ft2.obj
 0002:00001ca8       ??_C@_0M@KAKDLKIE@CHAN_STRING?$AA@ 00440ca8     ft2.obj
 0002:00001cb4       ??_C@_07LBPKJACP@MAX_POS?$AA@ 00440cb4     ft2.obj
 0002:00001cbc       ??_C@_04PPGNNOJD@ZERO?$AA@ 00440cbc     ft2.obj
 0002:00001cc4       ??_C@_08GEJEEDMM@SAVE_TSL?$AA@ 00440cc4     ft2.obj
 0002:00001cd0       ??_C@_0L@LFHBNABJ@START_SHOT?$AA@ 00440cd0     ft2.obj
 0002:00001cdc       ??_C@_0M@HCDECGNI@FOLLOW_THRU?$AA@ 00440cdc     ft2.obj
 0002:00001ce8       ??_C@_07MBICMMCI@RETRACT?$AA@ 00440ce8     ft2.obj
 0002:00001cf0       ??_C@_08FKIBNEDI@JOG_SHOT?$AA@ 00440cf0     ft2.obj
 0002:00001cfc       ??_C@_0M@IHFLFHBI@MANUAL_MODE?$AA@ 00440cfc     ft2.obj
 0002:00001d08       ??_C@_07LBAGLFD@AT_HOME?$AA@ 00440d08     ft2.obj
 0002:00001d10       ??_C@_0L@PIKHEFJJ@OK_FOR_VAC?$AA@ 00440d10     ft2.obj
 0002:00001d1c       ??_C@_06HPJDLANO@VAC_ON?$AA@ 00440d1c     ft2.obj
 0002:00001d24       ??_C@_0L@GIELCGIB@LOW_IMPACT?$AA@ 00440d24     ft2.obj
 0002:00001d30       ??_C@_09CMNFOOAC@FILL_TEST?$AA@ 00440d30     ft2.obj
 0002:00001d3c       ??_C@_03KHNOFADN@LS1?$AA@  00440d3c     ft2.obj
 0002:00001d40       ??_C@_03IMPDADPO@LS2?$AA@  00440d40     ft2.obj
 0002:00001d44       ??_C@_03JFOIDCLP@LS3?$AA@  00440d44     ft2.obj
 0002:00001d48       ??_C@_03NKKJKEHI@LS4?$AA@  00440d48     ft2.obj
 0002:00001d4c       ??_C@_03MDLCJFDJ@LS5?$AA@  00440d4c     ft2.obj
 0002:00001d50       ??_C@_03OIJPMGPK@LS6?$AA@  00440d50     ft2.obj
 0002:00001d54       ??_C@_08FNILFEBM@CUR_STEP?$AA@ 00440d54     ft2.obj
 0002:00001d60       ??_C@_0BB@EJAPJMMG@SHOT_IN_PROGRESS?$AA@ 00440d60     ft2.obj
 0002:00001d74       ??_C@_0O@LJKNKCPM@SHOT_COMPLETE?$AA@ 00440d74     ft2.obj
 0002:00001d84       ??_C@_0L@PDPJPPAP@ZERO_SPEED?$AA@ 00440d84     ft2.obj
 0002:00001d90       ??_C@_0BD@DNBKFEDK@FOLLOWING_OVERFLOW?$AA@ 00440d90     ft2.obj
 0002:00001da4       ??_C@_06LILBMDJH@INPUTS?$AA@ 00440da4     ft2.obj
 0002:00001dac       ??_C@_07LCHBMEIG@OUTPUTS?$AA@ 00440dac     ft2.obj
 0002:00001db4       ??_C@_09GPHDGEIK@CTL_STATE?$AA@ 00440db4     ft2.obj
 0002:00001dc0       ??_C@_0M@FBNCDHMK@WAITING_FOR?$AA@ 00440dc0     ft2.obj
 0002:00001dcc       ??_C@_08OEBFFHLH@PRES_CTL?$AA@ 00440dcc     ft2.obj
 0002:00001dd8       ??_C@_09JGDICIBN@BIN_VALVE?$AA@ 00440dd8     ft2.obj
 0002:00001de4       ??_C@_04OLDJKBIG@VIEW?$AA@ 00440de4     ft2.obj
 0002:00001dec       ??_C@_03OAFAKAKL@DEL?$AA@  00440dec     ft2.obj
 0002:00001df0       ??_C@_03LPPLCEDO@ZIP?$AA@  00440df0     ft2.obj
 0002:00001df4       ??_C@_09CIIHEHHN@EVENT_LOG?$AA@ 00440df4     ft2.obj
 0002:00001e00       ??_C@_0M@LAGLLONB@UPLOAD_FILE?$AA@ 00440e00     ft2.obj
 0002:00001e0c       ??_C@_0CL@EFJDFFLI@c?3?2windows?2system32?2notepad?4exe?5@ 00440e0c     ft2.obj
 0002:00001e38       ??_C@_07KFLFCEAO@Confirm?$AA@ 00440e38     ft2.obj
 0002:00001e40       ??_C@_0BA@GJBFBKAB@Delete?5FT2?4LOG?$DP?$AA@ 00440e40     ft2.obj
 0002:00001e50       ??_C@_0BG@PDAAAHMH@CURRENT_VALUES_DIALOG?$AA@ 00440e50     ft2.obj
 0002:00001e68       ??_C@_0P@GBECCEID@SET_DAC_DIALOG?$AA@ 00440e68     ft2.obj
 0002:00001e78       ??_C@_0BA@BDNFMHFK@SET_NULL_DIALOG?$AA@ 00440e78     ft2.obj
 0002:00001e88       ??_C@_0BI@DNAIBHDK@GLOBAL_PARAMETER_DIALOG?$AA@ 00440e88     ft2.obj
 0002:00001ea0       ??_C@_0BJ@FGOGELAC@COMPARE_VARIABLES_DIALOG?$AA@ 00440ea0     ft2.obj
 0002:00001ebc       ??_C@_0BE@DJCHHECB@CONTROL_MODS_DIALOG?$AA@ 00440ebc     ft2.obj
 0002:00001ed0       ??_C@_0BK@JKDEIGJH@TEST_ALARM_OUTPUTS_DIALOG?$AA@ 00440ed0     ft2.obj
 0002:00001eec       ??_C@_0BC@JHMMPHNK@VALVE_TEST_DIALOG?$AA@ 00440eec     ft2.obj
 0002:00001f00       ??_C@_0M@CAPPBHPB@WIRE_STRING?$AA@ 00440f00     ft2.obj
 0002:00001f0c       ??_C@_0P@OKNNLOPI@MONITOR_MODULE?$AA@ 00440f0c     ft2.obj
 0002:00001f1c       ??_C@_0P@BJKOBJDP@CONTROL_MODULE?$AA@ 00440f1c     ft2.obj
 0002:00001f2c       ??_C@_03ONDNACEM@LED?$AA@  00440f2c     ft2.obj
 0002:00001f30       ??_C@_0BE@EPJCEPKM@DOWNTIME_ALARM_WIRE?$AA@ 00440f30     ft2.obj
 0002:00001f44       ??_C@_0N@LGMELJNP@MONITOR_WIRE?$AA@ 00440f44     ft2.obj
 0002:00001f54       ??_C@_0N@POPLAKOC@LIMIT_SWITCH?$AA@ 00440f54     ft2.obj
 0002:00001f64       ??_C@_0BG@FOMEKGIB@THIRTY_SECOND_TIMEOUT?$AA@ 00440f64     ft2.obj
 0002:00001f7c       ??_C@_0O@FPAEOKAB@ST2_PGM_ABORT?$AA@ 00440f7c     ft2.obj
 0002:00001f8c       ??_C@_0BD@MGDPKOFA@SHOT_SAVE_COMPLETE?$AA@ 00440f8c     ft2.obj
 0002:00001fa0       ??_C@_0N@DJEFCDAP@WARNING_SHOT?$AA@ 00440fa0     ft2.obj
 0002:00001fb0       ??_C@_0L@IFNELFBC@ALARM_SHOT?$AA@ 00440fb0     ft2.obj
 0002:00001fbc       ??_C@_09FIBLOLOL@GOOD_SHOT?$AA@ 00440fbc     ft2.obj
 0002:00001fc8       ??_C@_0BC@FPOEDAFP@OUTPUT_LIST_TITLE?$AA@ 00440fc8     ft2.obj
 0002:00001fdc       ??_C@_04EHDNGHNL@V319?$AA@ 00440fdc     ft2.obj
 0002:00001fe4       ??_C@_0BE@LAHOLBLC@UPLOAD_FLASH_DIALOG?$AA@ 00440fe4     ft2.obj
 0002:00001ff8       ??_C@_03FBBILEHC@ACT?$AA@  00440ff8     ft2.obj
 0002:00001ffc       ??_C@_03JMDFPPIA@CFG?$AA@  00440ffc     ft2.obj
 0002:00002000       ??_C@_02GDDGGLGE@F8?$AA@   00441000     ft2.obj
 0002:00002004       ??_C@_0CB@KMGCBJMF@Shutting?5Down?5Current?5Monitor?4?4?4@ 00441004     ft2.obj
 0002:00002028       ??_C@_0BH@PCKAGKFB@SHUTDOWN_STATUS_DIALOG?$AA@ 00441028     ft2.obj
 0002:00002040       ??_C@_0CB@MEAJBBOH@Exiting?5from?5main?5dialog?5proc?4?4?4@ 00441040     ft2.obj
 0002:00002064       ??_C@_0BO@COLFGAIE@CHOOSE_MONITOR_MACHINE_DIALOG?$AA@ 00441064     ft2.obj
 0002:00002084       ??_C@_0L@FLDPEFFD@CMD_STRING?$AA@ 00441084     ft2.obj
 0002:00002090       ??_C@_04ODPMFAJI@LVDT?$AA@ 00441090     ft2.obj
 0002:00002098       ??_C@_0M@NPIJIBLL@MEAS_STRING?$AA@ 00441098     ft2.obj
 0002:000020a4       ??_C@_0P@EGFDCOFD@PROGRAM?5START?5?$AA@ 004410a4     ft2.obj
 0002:000020b4       ??_C@_0O@DJCBALLO@SAVING_STRING?$AA@ 004410b4     ft2.obj
 0002:000020c4       ??_C@_09EPDNCKME@AUTO_SHOT?$AA@ 004410c4     ft2.obj
 0002:000020d0       ??_C@_0BA@IPEJFPLA@FT2_TEST_DIALOG?$AA@ 004410d0     ft2.obj
 0002:000020e0       ??_C@_0BD@IGPKHAHN@OUTPUT_LIST_DIALOG?$AA@ 004410e0     ft2.obj
 0002:000020f4       ??_C@_0BJ@FIIAAHAI@HIRES_SENSOR_TEST_DIALOG?$AA@ 004410f4     ft2.obj
 0002:00002110       ??_C@_0BG@NLMCAONB@UPLOAD_ABORTED_DIALOG?$AA@ 00441110     ft2.obj
 0002:00002128       __real@3f50624dd2f1a9fc    00441128     ft2.obj
 0002:00002130       __real@3fb0000000000000    00441130     ft2.obj
 0002:00002138       __real@3fd0000000000000    00441138     ft2.obj
 0002:00002140       __real@3fe0000000000000    00441140     ft2.obj
 0002:00002148       __real@3ff0000000000000    00441148     ft2.obj
 0002:00002150       __real@4010000000000000    00441150     ft2.obj
 0002:00002158       __real@4014000000000000    00441158     ft2.obj
 0002:00002160       __real@4024000000000000    00441160     ft2.obj
 0002:00002168       __real@4034000000000000    00441168     ft2.obj
 0002:00002170       __real@4059000000000000    00441170     ft2.obj
 0002:00002178       __real@408f400000000000    00441178     ft2.obj
 0002:00002180       __real@40affe0000000000    00441180     ft2.obj
 0002:00002190       __xmm@41f00000000000000000000000000000 00441190     ft2.obj
 0002:000021b4       ??_C@_0N@LPGHLKGH@ALARMSUM?4TXT?$AA@ 004411b4     board_monitor.obj
 0002:000021c4       ??_C@_0N@PLHNDNGH@DOWNTIME?4TXT?$AA@ 004411c4     board_monitor.obj
 0002:000021d4       ??_C@_0BH@CAIOJADE@ftii_part_settings?4txt?$AA@ 004411d4     board_monitor.obj
 0002:000021ec       ??_C@_0N@FGFLILME@GRAPHLST?4TXT?$AA@ 004411ec     board_monitor.obj
 0002:000021fc       ??_C@_0BG@PIGDHLMK@IMPACT_PARAM_FILE?4CSV?$AA@ 004411fc     board_monitor.obj
 0002:00002214       ??_C@_0BM@HHHAAGMK@machine_ctrl_prog_steps?4txt?$AA@ 00441214     board_monitor.obj
 0002:00002234       ??_7DOUBLE_ARRAY_CLASS@@6B@ 00441234     board_monitor.obj
 0002:0000223c       ??_C@_02PGHGPEOM@?91?$AA@  0044123c     board_monitor.obj
 0002:00002240       ??_C@_0L@JOAGAEIG@?5at?5time?3?5?$AA@ 00441240     board_monitor.obj
 0002:0000224c       ??_C@_0BF@HPKNHGGA@Retract?5?5?5?5?5?5?5?5INPUT?$AA@ 0044124c     board_monitor.obj
 0002:00002264       ??_C@_0BF@GIPDBJHK@Start?5Shot?5?5?5?5?5INPUT?$AA@ 00441264     board_monitor.obj
 0002:0000227c       ??_C@_0BF@LFBEAOHB@Follow?5Through?5INPUT?$AA@ 0044127c     board_monitor.obj
 0002:00002294       ??_C@_0BF@KPMDKKHI@Accumulator?5?5?5?5INPUT?$AA@ 00441294     board_monitor.obj
 0002:000022ac       ??_C@_0BF@LBPFBKNE@Slow?5Shot?5?5?5?5?5?5INPUT?$AA@ 004412ac     board_monitor.obj
 0002:000022c4       ??_C@_0BK@PAIBLNAB@NO_MULTIPART_RUNLIST_PART?$AA@ 004412c4     board_monitor.obj
 0002:000022e0       ??_C@_02PLJDPFIO@00?$AA@   004412e0     board_monitor.obj
 0002:000022e4       ??_C@_02ODEKKOPI@11?$AA@   004412e4     board_monitor.obj
 0002:000022e8       ??_C@_0BJ@JLFDADOE@UPDATING_GRAPHLST_STRING?$AA@ 004412e8     board_monitor.obj
 0002:00002304       ??_C@_02OCIIMEMP@01?$AA@   00441304     board_monitor.obj
 0002:00002350       ??_C@_02BAHDIOLJ@XX?$AA@   00441350     board_monitor.obj
 0002:00002354       ??_C@_0BH@BNEIGFLP@Nak?5Received?5on?5Board?5?$AA@ 00441354     board_monitor.obj
 0002:0000236c       ??_C@_0P@GHFMCOPA@?5Not?5Connected?$AA@ 0044136c     board_monitor.obj
 0002:0000237c       ??_C@_0BB@PKAJLFMK@?5Connection?5Lost?$AA@ 0044137c     board_monitor.obj
 0002:00002390       ??_C@_0CE@MDMIEHJF@Board?5returns?5after?5connection?5l@ 00441390     board_monitor.obj
 0002:000023b4       ??_C@_05MKKOHGH@?$CK?$CK?$CK?$CK?5?$AA@ 004413b4     board_monitor.obj
 0002:000023bc       ??_C@_04GNCCGHKC@?5?$CK?$CK?$CK?$AA@ 004413bc     board_monitor.obj
 0002:000023c4       ??_C@_0L@PPPGACKJ@?50?5Seconds?$AA@ 004413c4     board_monitor.obj
 0002:000023d0       ??_C@_0L@IGIFNHIB@WSABASEERR?$AA@ 004413d0     board_monitor.obj
 0002:000023dc       ??_C@_08KEJFHKFF@WSAEINTR?$AA@ 004413dc     board_monitor.obj
 0002:000023e8       ??_C@_08LJKOCPDH@WSAEBADF?$AA@ 004413e8     board_monitor.obj
 0002:000023f4       ??_C@_09EKFHKCJJ@WSAEACCES?$AA@ 004413f4     board_monitor.obj
 0002:00002400       ??_C@_09BIHAGEEK@WSAEFAULT?$AA@ 00441400     board_monitor.obj
 0002:0000240c       ??_C@_09PDAAOFKK@WSAEINVAL?$AA@ 0044140c     board_monitor.obj
 0002:00002418       ??_C@_09IJIBIDKO@WSAEMFILE?$AA@ 00441418     board_monitor.obj
 0002:00002424       ??_C@_0P@BLDHJENA@WSAEWOULDBLOCK?$AA@ 00441424     board_monitor.obj
 0002:00002434       ??_C@_0P@FHEJEBJC@WSAEINPROGRESS?$AA@ 00441434     board_monitor.obj
 0002:00002444       ??_C@_0M@EAGDEEAC@WSAEALREADY?$AA@ 00441444     board_monitor.obj
 0002:00002450       ??_C@_0M@MDGNMGJ@WSAENOTSOCK?$AA@ 00441450     board_monitor.obj
 0002:0000245c       ??_C@_0BA@BLGPIJAD@WSAEDESTADDRREQ?$AA@ 0044145c     board_monitor.obj
 0002:0000246c       ??_C@_0M@PJKLHKI@WSAEMSGSIZE?$AA@ 0044146c     board_monitor.obj
 0002:00002478       ??_C@_0O@HCKGAENP@WSAEPROTOTYPE?$AA@ 00441478     board_monitor.obj
 0002:00002488       ??_C@_0P@KODINEND@WSAENOPROTOOPT?$AA@ 00441488     board_monitor.obj
 0002:00002498       ??_C@_0BD@EDJBJFH@WSAEPROTONOSUPPORT?$AA@ 00441498     board_monitor.obj
 0002:000024ac       ??_C@_0BD@KNONLHOA@WSAESOCKTNOSUPPORT?$AA@ 004414ac     board_monitor.obj
 0002:000024c0       ??_C@_0O@IFNEEJHC@WSAEOPNOTSUPP?$AA@ 004414c0     board_monitor.obj
 0002:000024d0       ??_C@_0BA@KKILJDEG@WSAEPFNOSUPPORT?$AA@ 004414d0     board_monitor.obj
 0002:000024e0       ??_C@_0BA@DNDGDCNF@WSAEAFNOSUPPORT?$AA@ 004414e0     board_monitor.obj
 0002:000024f0       ??_C@_0O@OPDDJBEB@WSAEADDRINUSE?$AA@ 004414f0     board_monitor.obj
 0002:00002500       ??_C@_0BB@MBBPJMGK@WSAEADDRNOTAVAIL?$AA@ 00441500     board_monitor.obj
 0002:00002514       ??_C@_0M@BMNODHFM@WSAENETDOWN?$AA@ 00441514     board_monitor.obj
 0002:00002520       ??_C@_0P@MMGFNLEA@WSAENETUNREACH?$AA@ 00441520     board_monitor.obj
 0002:00002530       ??_C@_0N@KABONKCJ@WSAENETRESET?$AA@ 00441530     board_monitor.obj
 0002:00002540       ??_C@_0BA@HNCPIGIO@WSAECONNABORTED?$AA@ 00441540     board_monitor.obj
 0002:00002550       ??_C@_0O@CIPFFFJE@WSAECONNRESET?$AA@ 00441550     board_monitor.obj
 0002:00002560       ??_C@_0L@OOBBNNPD@WSAENOBUFS?$AA@ 00441560     board_monitor.obj
 0002:0000256c       ??_C@_0L@KMBJICHC@WSAEISCONN?$AA@ 0044156c     board_monitor.obj
 0002:00002578       ??_C@_0M@BJHJCMPN@WSAENOTCONN?$AA@ 00441578     board_monitor.obj
 0002:00002584       ??_C@_0N@JOJKMOCF@WSAESHUTDOWN?$AA@ 00441584     board_monitor.obj
 0002:00002594       ??_C@_0BA@COKPFEMB@WSAETOOMANYREFS?$AA@ 00441594     board_monitor.obj
 0002:000025a4       ??_C@_0N@BJEDIOFA@WSAETIMEDOUT?$AA@ 004415a4     board_monitor.obj
 0002:000025b4       ??_C@_0BA@ECEEDLKJ@WSAECONNREFUSED?$AA@ 004415b4     board_monitor.obj
 0002:000025c4       ??_C@_08PGIMLMFD@WSAELOOP?$AA@ 004415c4     board_monitor.obj
 0002:000025d0       ??_C@_0BA@PCKIJCGI@WSAENAMETOOLONG?$AA@ 004415d0     board_monitor.obj
 0002:000025e0       ??_C@_0N@NJBKCOKK@WSAEHOSTDOWN?$AA@ 004415e0     board_monitor.obj
 0002:000025f0       ??_C@_0BA@HKCFHLFG@WSAEHOSTUNREACH?$AA@ 004415f0     board_monitor.obj
 0002:00002600       ??_C@_0N@KFICKHOH@WSAENOTEMPTY?$AA@ 00441600     board_monitor.obj
 0002:00002610       ??_C@_0M@CDIHOKBK@WSAEPROCLIM?$AA@ 00441610     board_monitor.obj
 0002:0000261c       ??_C@_09IOPCJPLP@WSAEUSERS?$AA@ 0044161c     board_monitor.obj
 0002:00002628       ??_C@_09DHBOOMJK@WSAEDQUOT?$AA@ 00441628     board_monitor.obj
 0002:00002634       ??_C@_09GPMJAMEI@WSAESTALE?$AA@ 00441634     board_monitor.obj
 0002:00002640       ??_C@_0L@FBDKOKMM@WSAEREMOTE?$AA@ 00441640     board_monitor.obj
 0002:0000264c       ??_C@_0L@EEHHIAEC@WSAEDISCON?$AA@ 0044164c     board_monitor.obj
 0002:00002658       ??_C@_0P@OPLBIJOG@?5Socket?5Error?5?$AA@ 00441658     board_monitor.obj
 0002:00002668       ??_C@_0P@MDJAKAKC@WSASYSNOTREADY?$AA@ 00441668     board_monitor.obj
 0002:00002678       ??_C@_0BD@PKACBPOA@WSAVERNOTSUPPORTED?$AA@ 00441678     board_monitor.obj
 0002:0000268c       ??_C@_0P@HLNEBJNJ@WSANO_RECOVERY?$AA@ 0044168c     board_monitor.obj
 0002:0000269c       ??_C@_0L@EEFLCHHA@WSAStartup?$AA@ 0044169c     board_monitor.obj
 0002:000026a8       ??_C@_06HBELJPBO@socket?$AA@ 004416a8     board_monitor.obj
 0002:000026b0       ??_C@_04NPNJNMMP@bind?$AA@ 004416b0     board_monitor.obj
 0002:000026b8       __real@00000000            004416b8     board_monitor.obj
 0002:000026bc       ??_C@_0BH@NPGNOIOI@save_csv_with_shot?4csv?$AA@ 004416bc     shotsave.obj
 0002:000026d4       ??_C@_0BE@JAEJFALN@DdeParamShowMachine?$AA@ 004416d4     shotsave.obj
 0002:000026e8       ??_C@_0BB@IJGMPPKN@DdeParamShowPart?$AA@ 004416e8     shotsave.obj
 0002:000026fc       ??_C@_0BB@ELFIJBEN@DdeParamShowDate?$AA@ 004416fc     shotsave.obj
 0002:00002710       ??_C@_0BB@PNPLLGNP@DdeParamShowTime?$AA@ 00441710     shotsave.obj
 0002:00002724       ??_C@_0BB@KHDKPKNE@DdeParamShowShot?$AA@ 00441724     shotsave.obj
 0002:00002738       ??_C@_0BB@GKIMDMOL@DdeParamParmList?$AA@ 00441738     shotsave.obj
 0002:0000274c       ??_C@_0M@MGLADPCK@EosComSpeed?$AA@ 0044174c     shotsave.obj
 0002:00002758       ??_C@_0N@FINCCHKP@EosComParity?$AA@ 00441758     shotsave.obj
 0002:00002768       ??_C@_0L@IHNEOHMM@EosComBits?$AA@ 00441768     shotsave.obj
 0002:00002774       ??_C@_0L@EDHJMJOO@EosComStop?$AA@ 00441774     shotsave.obj
 0002:00002780       ??_C@_09PGELPPJG@EosComCts?$AA@ 00441780     shotsave.obj
 0002:0000278c       ??_C@_09HHMIOAOL@EosComDsr?$AA@ 0044178c     shotsave.obj
 0002:00002798       ??_C@_0O@IOHLKHJC@EosComXonXoff?$AA@ 00441798     shotsave.obj
 0002:000027a8       ??_C@_0BC@OAAGPBM@SaveAllAlarmShots?$AA@ 004417a8     shotsave.obj
 0002:000027bc       ??_C@_0BC@IIKPPMEB@DdeParamDelimiter?$AA@ 004417bc     shotsave.obj
 0002:000027d0       ??_C@_0L@PDFDJGIH@EosComPort?$AA@ 004417d0     shotsave.obj
 0002:000027dc       ??_C@_0P@JOBCNCEM@EosMachineName?$AA@ 004417dc     shotsave.obj
 0002:000027ec       ??_C@_01FHEEJDEE@A?$AA@    004417ec     shotsave.obj
 0002:000027f0       ??_C@_01ELNMCGJD@W?$AA@    004417f0     shotsave.obj
 0002:000027f4       ??_C@_01BBODEMC@G?$AA@     004417f4     shotsave.obj
 0002:000027f8       ??_C@_0P@LDJAEJIO@EosNeedsStxEtx?$AA@ 004417f8     shotsave.obj
 0002:00002808       ??_C@_0BC@KDJBDEBD@EosOnlyIfNoAlarms?$AA@ 00441808     shotsave.obj
 0002:0000281c       ??_C@_0O@OBLOHEDN@EosFixedWidth?$AA@ 0044181c     shotsave.obj
 0002:0000282c       ??_C@_0BA@IPOHEOLO@EosPyramidLines?$AA@ 0044182c     shotsave.obj
 0002:0000283c       ??_C@_0BC@JEBJADJH@EosComDelimitChar?$AA@ 0044183c     shotsave.obj
 0002:00002850       ??_C@_09OAJOCEF@EosComEol?$AA@ 00441850     shotsave.obj
 0002:0000285c       ??_C@_09PHJJOIHI@shot_name?$AA@ 0044185c     shotsave.obj
 0002:00002868       ??_C@_09IBOIKCKA@count?4txt?$AA@ 00441868     shotsave.obj
 0002:00002874       ??_C@_02KNHHLGMN@sn?$AA@   00441874     shotsave.obj
 0002:00002878       ??_C@_04LCMACLFG@?4txt?$AA@ 00441878     shotsave.obj
 0002:00002880       ??_C@_0BI@GPJANPEE@Could?5not?5open?5shotparm?$AA@ 00441880     shotsave.obj
 0002:00002898       ??_C@_0BG@DMOOALEI@write_ftii_parameters?$AA@ 00441898     shotsave.obj
 0002:000028b0       ??_C@_04EBGNMJBD@?4csv?$AA@ 004418b0     shotsave.obj
 0002:000028b8       ??_C@_03HLLJOCDO@1?40?$AA@ 004418b8     shotsave.obj
 0002:000028bc       ??_C@_03NCOLJCLP@V01?$AA@  004418bc     shotsave.obj
 0002:000028c0       ??_C@_03PJMGMBHM@V02?$AA@  004418c0     shotsave.obj
 0002:000028c4       ??_C@_01CLKCMJKC@?5?$AA@   004418c4     shotsave.obj
 0002:000028c8       ??_C@_0BO@LKDDBJIO@Begin?5Shot?5Data?3?5Shot?5Number?5?$AA@ 004418c8     shotsave.obj
 0002:000028e8       ??_C@_0DI@OOHGLIHE@?9?9?9?9?9?9?9?9?9?9?9?9?9?9?9?5At?5the?5Start?5of?5@ 004418e8     shotsave.obj
 0002:00002920       ??_C@_0BB@LDGONCMI@Impact?5at?5time?3?5?$AA@ 00441920     shotsave.obj
 0002:00002934       ??_C@_0DI@OEOOCEKA@?9?9?9?9?9?9?9?9?9?9?9?9?9?9?9?9?9?9?9?9?9?9?9?9?9?9?9?9?9?9?9?9@ 00441934     shotsave.obj
 0002:0000296c       ??_C@_0BB@EJECEEHB@End?5of?5Shot?5Data?$AA@ 0044196c     shotsave.obj
 0002:00002980       ??_C@_0BA@ELDIJBNE@Pos?1Time?0Count?0?$AA@ 00441980     shotsave.obj
 0002:00002990       ??_C@_0BD@MHFMGEKL@?0Hex?5Bits?0Hex?5Bits?$AA@ 00441990     shotsave.obj
 0002:000029a4       ??_C@_02FFDDGDPD@P?0?$AA@  004419a4     shotsave.obj
 0002:000029a8       ??_C@_02FCDKMLCP@T?0?$AA@  004419a8     shotsave.obj
 0002:000029ac       ??_C@_0BA@DBEKJJO@upload_copy?4txt?$AA@ 004419ac     upload_copy_class.obj
 0002:000029bc       ??_C@_04LELNNDEG@?5?$CL?9?4?$AA@ 004419bc     v5subs:stringcl.obj
 0002:000029c4       ??_C@_0L@FPFMPDDA@0123456789?$AA@ 004419c4     v5subs:stringcl.obj
 0002:000029d0       ??_C@_0BL@LKMBOCCN@STATIC_TEXT_PARAMETERS?4CSV?$AA@ 004419d0     v5subs:nameclas.obj
 0002:000029f8       ??_C@_0M@PNJEDJJP@ASENSOR?4CSV?$AA@ 004419f8     v5subs:asensor.obj
 0002:00002a04       ??_C@_08NPBCJIHM@Not?5Used?$AA@ 00441a04     v5subs:asensor.obj
 0002:00002a10       __real@0000000000000000    00441a10     v5subs:asensor.obj
 0002:00002a18       __real@4004000000000000    00441a18     v5subs:asensor.obj
 0002:00002a20       __real@4004020c49ba5e35    00441a20     v5subs:asensor.obj
 0002:00002a28       __real@4014010624dd2f1b    00441a28     v5subs:asensor.obj
 0002:00002a30       __xmm@3ff00000000000004024000000000000 00441a30     v5subs:asensor.obj
 0002:00002a44       ??_C@_0CK@JBOPMLIC@Unable?5to?5ALLOCATE?5DB_TABLE?5reco@ 00441a44     v5subs:dbsubs.obj
 0002:00002a70       ??_C@_0BG@NCMFCBIM@determine_column_info?$AA@ 00441a70     v5subs:dbsubs.obj
 0002:00002a88       ??_C@_0BH@ICEGKPMC@Can?8t?5set?5file?5pointer?$AA@ 00441a88     v5subs:dbsubs.obj
 0002:00002aa0       ??_C@_0BG@CPBDHLID@Unable?5to?5lock?5record?$AA@ 00441aa0     v5subs:dbsubs.obj
 0002:00002ab8       ??_C@_05CHKGEIOL@0x?$CFlX?$AA@ 00441ab8     v5subs:dbsubs.obj
 0002:00002ac0       ??_C@_08EHEBBLJC@UNKNOWN0?$AA@ 00441ac0     v5subs:evclass.obj
 0002:00002acc       ??_C@_0CA@JKINJOAF@EXTERNAL_PARAMETER_SETTINGS?4CSV?$AA@ 00441acc     v5subs:external_parameter.obj
 0002:00002aec       ??_C@_09BKKLLFMO@File?5Name?$AA@ 00441aec     v5subs:external_parameter.obj
 0002:00002af8       ??_C@_06CKGENIKG@Enable?$AA@ 00441af8     v5subs:external_parameter.obj
 0002:00002b00       ??_C@_0N@NNGELIJD@COMPUTER?4CSV?$AA@ 00441b00     v5subs:computer.obj
 0002:00002b10       ??_C@_0BH@LLGMPKPC@limit_switch_wires?4dat?$AA@ 00441b10     v5subs:limit_switch_class.obj
 0002:00002b88       ??_C@_0BM@DAFMABGJ@multipart_runlist_setup?4csv?$AA@ 00441b88     v5subs:multipart_runlist.obj
 0002:00002ba4       ??_C@_0BM@PIKGLFOA@multipart_runlist_wires?4csv?$AA@ 00441ba4     v5subs:multipart_runlist.obj
 0002:00002bd8       ??_C@_0N@MOIHEONP@Machine?5Type?$AA@ 00441bd8     v5subs:machine.obj
 0002:00002be8       ??_C@_0BH@NNBMAMNI@Fast?5Trak?5Board?5Number?$AA@ 00441be8     v5subs:machine.obj
 0002:00002c00       ??_C@_0BO@HNEENHKI@Mux?5Channel?5Number?5?$CIFT1?5Only?$CJ?$AA@ 00441c00     v5subs:machine.obj
 0002:00002c20       ??_C@_0BE@DFPNJCJC@Is?5SureTrak?5Control?$AA@ 00441c20     v5subs:machine.obj
 0002:00002c34       ??_C@_0BC@MMHMIFGN@Current?5Part?5Name?$AA@ 00441c34     v5subs:machine.obj
 0002:00002c48       ??_C@_09CCBGKGIC@Rod?5Pitch?$AA@ 00441c48     v5subs:machine.obj
 0002:00002c54       ??_C@_0BD@GNBMCJIF@Profile?5Skip?5Count?$AA@ 00441c54     v5subs:machine.obj
 0002:00002c68       ??_C@_0BG@FDBEJOGA@Profile?5Acquire?5Count?$AA@ 00441c68     v5subs:machine.obj
 0002:00002c80       ??_C@_0BJ@FLJCNELE@Profile?5Time?5Skip?5?$CISec?4?$CJ?$AA@ 00441c80     v5subs:machine.obj
 0002:00002c9c       ??_C@_0O@LOIAPFOK@Profile?5Flags?$AA@ 00441c9c     v5subs:machine.obj
 0002:00002cac       ??_C@_0BC@FEEHGIBD@Profile?5Max?5Saved?$AA@ 00441cac     v5subs:machine.obj
 0002:00002cc0       ??_C@_0BB@JJOLMDBO@Param?5Skip?5Count?$AA@ 00441cc0     v5subs:machine.obj
 0002:00002cd4       ??_C@_0BE@CFBKLFFM@Param?5Acquire?5Count?$AA@ 00441cd4     v5subs:machine.obj
 0002:00002ce8       ??_C@_0BH@OHCLBIFI@Param?5Time?5Skip?5?$CISec?4?$CJ?$AA@ 00441ce8     v5subs:machine.obj
 0002:00002d00       ??_C@_0M@FLCPHCBL@Param?5Flags?$AA@ 00441d00     v5subs:machine.obj
 0002:00002d0c       ??_C@_0BA@HHBIKCAF@Param?5Max?5Saved?$AA@ 00441d0c     v5subs:machine.obj
 0002:00002d1c       ??_C@_0O@JBNMJHP@Monitor?5Flags?$AA@ 00441d1c     v5subs:machine.obj
 0002:00002d2c       ??_C@_0BJ@GBHCCOIB@Auto?5Shot?5Timeout?5?$CISec?4?$CJ?$AA@ 00441d2c     v5subs:machine.obj
 0002:00002d48       ??_C@_0BI@MMIPJLJD@Downtime?5Timeout?5?$CISec?4?$CJ?$AA@ 00441d48     v5subs:machine.obj
 0002:00002d60       ??_C@_0BK@OPEBGBCN@Differential?5Curve?5Number?$AA@ 00441d60     v5subs:machine.obj
 0002:00002d7c       ??_C@_0BM@ICLBHBOG@Position?5Base?5Impact?5Points?$AA@ 00441d7c     v5subs:machine.obj
 0002:00002d98       ??_C@_0BI@MGNODMON@Time?5Base?5Impact?5Points?$AA@ 00441d98     v5subs:machine.obj
 0002:00002db0       ??_C@_0BJ@LBLJABBN@Pre?5Impact?5Pressure?5Type?$AA@ 00441db0     v5subs:machine.obj
 0002:00002dcc       ??_C@_0BK@IIFEICOJ@Post?5Impact?5Pressure?5Type?$AA@ 00441dcc     v5subs:machine.obj
 0002:00002de8       ??_C@_0BA@HBNKAMDO@Operator?5Number?$AA@ 00441de8     v5subs:machine.obj
 0002:00002df8       ??_C@_0BD@CPILCMOD@Quadrature?5Divisor?$AA@ 00441df8     v5subs:machine.obj
 0002:00002e0c       ??_C@_0BI@CNKGMGOJ@Binary?5Valve?5Pulse?5Time?$AA@ 00441e0c     v5subs:machine.obj
 0002:00002e24       ??_C@_0BJ@ENEMHPJH@Binary?5Valve?5Devent?5Time?$AA@ 00441e24     v5subs:machine.obj
 0002:00002e40       ??_C@_0BI@HNHMFIHE@Binary?5Valve?5Pulse?5Wire?$AA@ 00441e40     v5subs:machine.obj
 0002:00002e58       ??_C@_0BN@OGBGKKMD@Valve?5Setting?5after?5Jog?5Shot?$AA@ 00441e58     v5subs:machine.obj
 0002:00002e78       ??_C@_0BJ@KLJNILDG@default_hmi_settings?4csv?$AA@ 00441e78     v5subs:machine.obj
 0002:00002e94       ??_C@_09OCBCGKDI@DSTAT?4TXT?$AA@ 00441e94     v5subs:machine.obj
 0002:00002ea0       ??_C@_0N@HNGGMANO@SEMAPHOR?4TXT?$AA@ 00441ea0     v5subs:machine.obj
 0002:00002eb0       ??_C@_02NPBNBJHG@?42?$AA@  00441eb0     v5subs:machine.obj
 0002:00002eb4       ??_C@_02LHFGLHCH@27?$AA@   00441eb4     v5subs:machine.obj
 0002:00002eb8       ??_C@_0BA@OBGBLKPH@control_all?4txt?$AA@ 00441eb8     v5subs:machine.obj
 0002:00002ec8       ??_C@_03GNABGMEE@100?$AA@  00441ec8     v5subs:machine.obj
 0002:00002ed0       __real@412e848000000000    00441ed0     v5subs:machine.obj
 0002:00002ed8       ??_C@_05MPFIAJAP@Arial?$AA@ 00441ed8     v5subs:optocontrol.obj
 0002:00002ee0       ??_C@_01FAMBOPH@4?$AA@     00441ee0     v5subs:optocontrol.obj
 0002:00002ee4       ??_C@_01FDFGLJHB@2?$AA@    00441ee4     v5subs:optocontrol.obj
 0002:00002ee8       ??_C@_01EKENIIDA@3?$AA@    00441ee8     v5subs:optocontrol.obj
 0002:00002eec       ??_C@_01HIHLOKLC@1?$AA@    00441eec     v5subs:optocontrol.obj
 0002:00002ef4       ??_C@_04MBLKECLF@?4TMP?$AA@ 00441ef4     v5subs:static_text_parameter.obj
 0002:00002efc       ??_C@_0N@OHEMABPF@PARMLIST?4CSV?$AA@ 00441efc     v5subs:param.obj
 0002:00002f0c       ??_C@_0N@BEOBODLA@PARMLIST?4TXT?$AA@ 00441f0c     v5subs:param.obj
 0002:00002f1c       ??_C@_0M@ECMINKO@NOPARAMETER?$AA@ 00441f1c     v5subs:param.obj
 0002:00002f28       ??_C@_0BL@DJGKNCPL@Part?5Setup?3?5Unable?5to?5save?$AA@ 00441f28     v5subs:param.obj
 0002:00002f44       ??_C@_0L@FGNFKGAO@FTCHAN?4TXT?$AA@ 00441f44     v5subs:part.obj
 0002:00002f50       ??_C@_0BE@OCONGGMH@good_shot_setup?4csv?$AA@ 00441f50     v5subs:part.obj
 0002:00002f64       ??_C@_0P@MHFCEEOL@part_setup?4csv?$AA@ 00441f64     v5subs:part.obj
 0002:00002f74       ??_C@_0M@JJIEHKEJ@PSENSOR?4TXT?$AA@ 00441f74     v5subs:part.obj
 0002:00002f80       ??_C@_0BA@GCNGCBPE@shot_events?4csv?$AA@ 00441f80     v5subs:part.obj
 0002:00002f90       __real@3fe921ff2e48e8a7    00441f90     v5subs:part.obj
 0002:00002f98       __real@4054000000000000    00441f98     v5subs:part.obj
 0002:00002fa0       ??_C@_03BBKEAIF@?$DP?$DP?$DP?$AA@ 00441fa0     v5subs:timeclas.obj
 0002:00002fa4       ??_C@_03DIELNALK@jan?$AA@  00441fa4     v5subs:timeclas.obj
 0002:00002fa8       ??_C@_03NJCBIINC@feb?$AA@  00441fa8     v5subs:timeclas.obj
 0002:00002fac       ??_C@_03EDOLLFFO@mar?$AA@  00441fac     v5subs:timeclas.obj
 0002:00002fb0       ??_C@_03BENJMDKB@apr?$AA@  00441fb0     v5subs:timeclas.obj
 0002:00002fb4       ??_C@_03KABPGMJF@may?$AA@  00441fb4     v5subs:timeclas.obj
 0002:00002fb8       ??_C@_03CDGENLBG@jun?$AA@  00441fb8     v5subs:timeclas.obj
 0002:00002fbc       ??_C@_03BBFCLJJE@jul?$AA@  00441fbc     v5subs:timeclas.obj
 0002:00002fc0       ??_C@_03CFKHOHFO@aug?$AA@  00441fc0     v5subs:timeclas.obj
 0002:00002fc4       ??_C@_03MGBCFPKM@sep?$AA@  00441fc4     v5subs:timeclas.obj
 0002:00002fc8       ??_C@_03LMDMAODN@oct?$AA@  00441fc8     v5subs:timeclas.obj
 0002:00002fcc       ??_C@_03DPKMPCLO@nov?$AA@  00441fcc     v5subs:timeclas.obj
 0002:00002fd0       ??_C@_03GKDDHBBI@dec?$AA@  00441fd0     v5subs:timeclas.obj
 0002:00002fd4       ??_C@_0P@IPBKIJPJ@Last?5Shot?5Name?$AA@ 00441fd4     v5subs:plookup.obj
 0002:00002fe4       ??_C@_0BB@HJPIEOB@Last?5Shot?5Number?$AA@ 00441fe4     v5subs:plookup.obj
 0002:00002ff8       ??_C@_04FMEGDJGD@Date?$AA@ 00441ff8     v5subs:plookup.obj
 0002:00003000       ??_C@_04OKOFBOPB@Time?$AA@ 00442000     v5subs:plookup.obj
 0002:00003008       ??_C@_0O@JJPJHNJ@Update?5Status?$AA@ 00442008     v5subs:plookup.obj
 0002:00003018       ??_C@_0M@BJNLCCEC@plookup?4csv?$AA@ 00442018     v5subs:plookup.obj
 0002:00003054       ??_C@_0M@PEOEDMKK@STPARAM?4DAT?$AA@ 00442054     v5subs:stparam.obj
 0002:00003060       ??_C@_07NAIMCPPE@ENGLISH?$AA@ 00442060     v5subs:stringtable.obj
 0002:00003068       ??_C@_09BMHMPIHG@resources?$AA@ 00442068     v5subs:stringtable.obj
 0002:00003074       ??_C@_05KLKPKMCL@?4stbl?$AA@ 00442074     v5subs:stringtable.obj
 0002:0000307c       ??_C@_0L@PJKLGHOG@STPRES?4DAT?$AA@ 0044207c     v5subs:stpres.obj
 0002:00003088       ??_C@_02IFGANFKF@25?$AA@   00442088     v5subs:stpres.obj
 0002:0000308c       ??_C@_03OCGDPLBD@500?$AA@  0044208c     v5subs:stpres.obj
 0002:00003090       ??_C@_02PNFIDHGF@50?$AA@   00442090     v5subs:stpres.obj
 0002:00003094       ??_C@_03MDAFIFFL@0?40?$AA@ 00442094     v5subs:stpres.obj
 0002:0000309c       ??_C@_0BC@FPMLOHHC@DdeConnect?5Failed?$AA@ 0044209c     v5subs:client.obj
 0002:000030b0       ??_C@_0O@DEJNGLFG@DdeInitialize?$AA@ 004420b0     v5subs:client.obj
 0002:000030c0       ??_C@_06CMLPEGNC@Failed?$AA@ 004420c0     v5subs:client.obj
 0002:000030c8       ??_C@_0BG@CLMLOLAK@DdeCreateStringHandle?$AA@ 004420c8     v5subs:client.obj
 0002:000030e0       ??_C@_0L@DBNEMBMF@DCURVE?4TXT?$AA@ 004420e0     v5subs:dcurve.obj
 0002:000030f8       __real@3f40624dd2f1a9fc    004420f8     v5subs:ftoasc.obj
 0002:00003100       __real@3f747ae147ae147b    00442100     v5subs:ftoasc.obj
 0002:00003108       __real@3fa999999999999a    00442108     v5subs:ftoasc.obj
 0002:00003110       __xmm@80000000000000008000000000000000 00442110     v5subs:ftoasc.obj
 0002:00003128       ??_C@_07OOFFCIDH@ListBox?$AA@ 00442128     v5subs:winsubs.obj
 0002:00003148       ??_C@_03KOEHGMDN@Sun?$AA@  00442148     v5subs:time.obj
 0002:0000314c       ??_C@_03PDAGKDH@Mon?$AA@   0044214c     v5subs:time.obj
 0002:00003150       ??_C@_03NAGEINEP@Tue?$AA@  00442150     v5subs:time.obj
 0002:00003154       ??_C@_03MHOMLAJA@Wed?$AA@  00442154     v5subs:time.obj
 0002:00003158       ??_C@_03MBBJDJPK@Thr?$AA@  00442158     v5subs:time.obj
 0002:0000315c       ??_C@_03IDIOELNC@Fri?$AA@  0044215c     v5subs:time.obj
 0002:00003160       ??_C@_03FEFJNEK@Sat?$AA@   00442160     v5subs:time.obj
 0002:00003168       ??_C@_02KJIIBPBF@SU?$AA@   00442168     v5subs:shift.obj
 0002:0000316c       ??_C@_02PBNGLLE@MO?$AA@    0044216c     v5subs:shift.obj
 0002:00003170       ??_C@_02KMMHAJJA@TU?$AA@   00442170     v5subs:shift.obj
 0002:00003174       ??_C@_02OEEDKFJI@WE?$AA@   00442174     v5subs:shift.obj
 0002:00003178       ??_C@_02FDKLGFIM@TH?$AA@   00442178     v5subs:shift.obj
 0002:0000317c       ??_C@_02PMCEOIEJ@FR?$AA@   0044217c     v5subs:shift.obj
 0002:00003180       ??_C@_02IHCGMIEA@SA?$AA@   00442180     v5subs:shift.obj
 0002:00003184       ??_C@_09CLOMDGHB@SHIFT?4TXT?$AA@ 00442184     v5subs:shift.obj
 0002:00003190       ??_C@_09LIKMICOD@UNITS?4TXT?$AA@ 00442190     v5subs:units.obj
 0002:0000319c       ??_C@_07GICHFDO@SubMenu?$AA@ 0044219c     v5subs:menuctrl.obj
 0002:000031a4       ??_C@_0M@MBHOHLL@CONTROL?4TMP?$AA@ 004421a4     v5subs:ftiiclas.obj
 0002:000031b4       ??_7FTII_ARRAY_DATA@@6B@   004421b4     v5subs:ftii_shot_data.obj
 0002:000031bc       ??_7FTII_PROFILE@@6B@      004421bc     v5subs:ftii_shot_data.obj
 0002:000031c0       ??_C@_01IHBHIGKO@?0?$AA@   004421c0     v5subs:ftii_shot_data.obj
 0002:000031c8       __real@4000000000000000    004421c8     v5subs:ftii_shot_data.obj
 0002:000031d0       ??_C@_02MJKFJHAM@02?$AA@   004421d0     v5subs:dstat.obj
 0002:000031d4       ??_C@_0N@NEAIHGCO@FTANALOG?4TXT?$AA@ 004421d4     v5subs:ftanalog.obj
 0002:000031e4       ??_C@_0N@CHKFJEGL@FTANALOG?4CSV?$AA@ 004421e4     v5subs:ftanalog.obj
 0002:000031f4       ??_C@_03IFPDDAOD@MSL?$AA@  004421f4     v5subs:ftanalog.obj
 0002:000031f8       ??_C@_0L@GHHOCNHO@FTCALC?4CSV?$AA@ 004421f8     v5subs:ftcalc.obj
 0002:00003208       __real@400921f9f01b866e    00442208     v5subs:ftcalc.obj
 0002:00003210       ??_C@_0M@CDONCHOF@RUNLIST?4CSV?$AA@ 00442210     v5subs:runlist.obj
 0002:0000321c       ??_C@_07NOCIGAPP@Pattern?$AA@ 0044221c     v5subs:shot_name.obj
 0002:00003224       ??_C@_0N@OPAEGLLJ@Field?5Length?$AA@ 00442224     v5subs:shot_name.obj
 0002:00003234       ??_C@_04HMIIHGGM@Path?$AA@ 00442234     v5subs:shot_name.obj
 0002:0000323c       ??_C@_01DHDKHMHF@6?$AA@    0044223c     v5subs:shot_name.obj
 0002:00003240       ??_C@_04HECCEINH@?$HLs6?$HN?$AA@ 00442240     v5subs:shot_name.obj
 0002:00003245       ??_C@_00CNPNBAHC@?$AA@     00442245     v5subs:shot_name.obj
 0002:00003248       ??_C@_07FFLLKOAD@Command?$AA@ 00442248     v5subs:shot_name.obj
 0002:00003250       ??_C@_01NANMIPIL@N?$AA@    00442250     v5subs:shot_name.obj
 0002:000032d0       ??_C@_0BM@MBHPIDAJ@EXTERNAL_SHOT_NAME_FILE?4CSV?$AA@ 004422d0     v5subs:shot_name.obj
 0002:000032ec       ??_C@_0O@KMEKOIFH@SHOT_NAME?4CSV?$AA@ 004422ec     v5subs:shot_name.obj
 0002:000032fc       ??_C@_04OHJIHAFH@None?$AA@ 004422fc     v5subs:shot_name.obj
 0002:00003304       ??_C@_08FILMBNBE@NOT?9USED?$AA@ 00442304     v5subs:shot_name.obj
 0002:00003310       ??_C@_0M@LGPMGILH@STDDOWN?4TXT?$AA@ 00442310     v5subs:stddown.obj
 0002:0000331c       ??_C@_0M@OLPAACHI@DOWNCAT?4TXT?$AA@ 0044231c     v5subs:downsubs.obj
 0002:00003328       ??_C@_0N@BPGPHCM@DOWNSCAT?4TXT?$AA@ 00442328     v5subs:downsubs.obj
 0002:00003338       ??_C@_0O@HECJKNFL@Downscatc?4txt?$AA@ 00442338     v5subs:downsubs.obj
 0002:00003358       __real@3eb0c6f7a0b5ed8d    00442358     v5subs:zero.obj
 0002:00003360       __real@3f1a36e2eb1c432d    00442360     v5subs:zero.obj
 0002:00003368       __real@beb0c6f7a0b5ed8d    00442368     v5subs:zero.obj
 0002:00003370       __real@bf1a36e2eb1c432d    00442370     v5subs:zero.obj
 0002:00003378       ??_C@_0N@PCLFBILF@TEMPGLST?4TXT?$AA@ 00442378     v5subs:dbupsize.obj
 0002:00003388       ??_C@_0BB@JLFLKCC@EffPeakSkipCount?$AA@ 00442388     v5subs:ftii_parameters.obj
 0002:0000339c       ??_C@_0P@EHGDBMKJ@Purge?5On?5Reset?$AA@ 0044239c     v5subs:shot_name_reset.obj
 0002:000033ac       ??_C@_05IPNNCKNB@00?300?$AA@ 004423ac     v5subs:shot_name_reset.obj
 0002:000033b4       ??_C@_0BE@LJHJOGME@SHOT_NAME_RESET?4CSV?$AA@ 004423b4     v5subs:shot_name_reset.obj
 0002:000033cc       ??_C@_02EOPBOLLC@dd?$AA@   004423cc     v5subs:dynamic_file_name.obj
 0002:000033d0       ??_C@_03IHKLECKE@mmm?$AA@  004423d0     v5subs:dynamic_file_name.obj
 0002:000033d4       ??_C@_02JAOCGLHE@mm?$AA@   004423d4     v5subs:dynamic_file_name.obj
 0002:000033d8       ??_C@_02OLFOFNNK@hh?$AA@   004423d8     v5subs:dynamic_file_name.obj
 0002:000033dc       ??_C@_02PEIOKOHA@mi?$AA@   004423dc     v5subs:dynamic_file_name.obj
 0002:000033e0       ??_C@_01GOHFPIOK@m?$AA@    004423e0     v5subs:dynamic_file_name.obj
 0002:000033e4       ??_C@_01JBBJJEPG@p?$AA@    004423e4     v5subs:dynamic_file_name.obj
 0002:000033e8       ??_C@_01PAPGNFGE@c?$AA@    004423e8     v5subs:dynamic_file_name.obj
 0002:000033ec       ??_C@_04HOPFPECK@yyyy?$AA@ 004423ec     v5subs:dynamic_file_name.obj
 0002:000033f4       ??_C@_02KFGDLHIN@yy?$AA@   004423f4     v5subs:dynamic_file_name.obj
 0002:000033f8       ??_C@_01LKDEMHDF@s?$AA@    004423f8     v5subs:dynamic_file_name.obj
 0002:000033fc       ??_C@_02HHFHKOHM@?$DP?$DP?$AA@ 004423fc     v5subs:dynamic_file_name.obj
 0002:00003400       ??_C@_0N@CBJFOMOL@OPERATOR?4TXT?$AA@ 00442400     v5subs:workclas.obj
 0002:00003410       ??_C@_05NAOIJFC@Error?$AA@ 00442410     v5subs:error_ms.obj
 0002:00003418       ??_C@_0L@MMOCAGKL@VisiErrors?$AA@ 00442418     v5subs:error_ms.obj
 0002:00003424       ??_C@_01NEMOKFLO@?$DN?$AA@ 00442424     v5subs:error_ms.obj
 0002:00003428       ??_C@_01BMBHCPLG@5?$AA@    00442428     v5subs:wire_class.obj
 0002:0000342c       ??_C@_01COCBENDE@7?$AA@    0044242c     v5subs:wire_class.obj
 0002:00003430       ??_C@_01KJLJFBPL@8?$AA@    00442430     v5subs:wire_class.obj
 0002:00003434       ??_C@_01LAKCGALK@9?$AA@    00442434     v5subs:wire_class.obj
 0002:00003438       ??_C@_02PKFBJPLJ@10?$AA@   00442438     v5subs:wire_class.obj
 0002:0000343c       ??_C@_02MIGHPNDL@12?$AA@   0044243c     v5subs:wire_class.obj
 0002:00003440       ??_C@_02NBHMMMHK@13?$AA@   00442440     v5subs:wire_class.obj
 0002:00003444       ??_C@_02JODNFKLN@14?$AA@   00442444     v5subs:wire_class.obj
 0002:00003448       ??_C@_02IHCGGLPM@15?$AA@   00442448     v5subs:wire_class.obj
 0002:0000344c       ??_C@_02KMALDIDP@16?$AA@   0044244c     v5subs:wire_class.obj
 0002:00003450       ??_C@_02LFBAAJHO@17?$AA@   00442450     v5subs:wire_class.obj
 0002:00003454       ??_C@_03OMBNCFLO@61B?$AA@  00442454     v5subs:wire_class.obj
 0002:00003458       ??_C@_03OCAOHEAG@69B?$AA@  00442458     v5subs:wire_class.obj
 0002:0000345c       ??_C@_02DCIIBFLB@18?$AA@   0044245c     v5subs:wire_class.obj
 0002:00003460       ??_C@_03MHDAHGHN@61A?$AA@  00442460     v5subs:wire_class.obj
 0002:00003464       ??_C@_03MJCDCHMF@69A?$AA@  00442464     v5subs:wire_class.obj
 0002:00003468       ??_C@_02CLJDCEPA@19?$AA@   00442468     v5subs:wire_class.obj
 0002:0000346c       ??_C@_03ONNPEPIJ@60B?$AA@  0044246c     v5subs:wire_class.obj
 0002:00003470       ??_C@_03ODMMBODB@68B?$AA@  00442470     v5subs:wire_class.obj
 0002:00003474       ??_C@_02PIBHCBOA@20?$AA@   00442474     v5subs:wire_class.obj
 0002:00003478       ??_C@_03MGPCBMEK@60A?$AA@  00442478     v5subs:wire_class.obj
 0002:0000347c       ??_C@_03MIOBENPC@68A?$AA@  0044247c     v5subs:wire_class.obj
 0002:00003480       ??_C@_02OBAMBAKB@21?$AA@   00442480     v5subs:wire_class.obj
 0002:00003484       ??_C@_03PALLNLOI@59B?$AA@  00442484     v5subs:wire_class.obj
 0002:00003488       ??_C@_03OIJAFJAM@67B?$AA@  00442488     v5subs:wire_class.obj
 0002:0000348c       ??_C@_02MKCBEDGC@22?$AA@   0044248c     v5subs:wire_class.obj
 0002:00003490       ??_C@_03NLJGIICL@59A?$AA@  00442490     v5subs:wire_class.obj
 0002:00003494       ??_C@_03MDLNAKMP@67A?$AA@  00442494     v5subs:wire_class.obj
 0002:00003498       ??_C@_02NDDKHCCD@23?$AA@   00442498     v5subs:wire_class.obj
 0002:0000349c       ??_C@_03PBHJLBNP@58B?$AA@  0044249c     v5subs:wire_class.obj
 0002:000034a0       ??_C@_03OJFCDDDL@66B?$AA@  004424a0     v5subs:wire_class.obj
 0002:000034a4       ??_C@_02JMHLOEOE@24?$AA@   004424a4     v5subs:wire_class.obj
 0002:000034a8       ??_C@_03NKFEOCBM@58A?$AA@  004424a8     v5subs:wire_class.obj
 0002:000034ac       ??_C@_03MCHPGAPI@66A?$AA@  004424ac     v5subs:wire_class.obj
 0002:000034b0       ??_C@_03PKCFPGOC@57B?$AA@  004424b0     v5subs:wire_class.obj
 0002:000034b4       ??_C@_03OLBEINGC@65B?$AA@  004424b4     v5subs:wire_class.obj
 0002:000034b8       ??_C@_02KOENIGGG@26?$AA@   004424b8     v5subs:wire_class.obj
 0002:000034bc       ??_C@_03NBAIKFCB@57A?$AA@  004424bc     v5subs:wire_class.obj
 0002:000034c0       ??_C@_03MADJNOKB@65A?$AA@  004424c0     v5subs:wire_class.obj
 0002:000034c4       ??_C@_03PLOHJMNF@56B?$AA@  004424c4     v5subs:wire_class.obj
 0002:000034c8       ??_C@_03OKNGOHFF@64B?$AA@  004424c8     v5subs:wire_class.obj
 0002:000034cc       ??_C@_02DAMOKLOI@28?$AA@   004424cc     v5subs:wire_class.obj
 0002:000034d0       ??_C@_03NAMKMPBG@56A?$AA@  004424d0     v5subs:wire_class.obj
 0002:000034d4       ??_C@_03MBPLLEJG@64A?$AA@  004424d4     v5subs:wire_class.obj
 0002:000034d8       ??_C@_02CJNFJKKJ@29?$AA@   004424d8     v5subs:wire_class.obj
 0002:000034dc       ??_C@_03PJKBCCIM@55B?$AA@  004424dc     v5subs:wire_class.obj
 0002:000034e0       ??_C@_03OPJJPBNA@63B?$AA@  004424e0     v5subs:wire_class.obj
 0002:000034e4       ??_C@_02PJNFELNH@30?$AA@   004424e4     v5subs:wire_class.obj
 0002:000034e8       ??_C@_03NCIMHBEP@55A?$AA@  004424e8     v5subs:wire_class.obj
 0002:000034ec       ??_C@_03MELEKCBD@63A?$AA@  004424ec     v5subs:wire_class.obj
 0002:000034f0       ??_C@_02OAMOHKJG@31?$AA@   004424f0     v5subs:wire_class.obj
 0002:000034f4       ??_C@_03PIGDEILL@54B?$AA@  004424f4     v5subs:wire_class.obj
 0002:000034f8       ??_C@_03OOFLJLOH@62B?$AA@  004424f8     v5subs:wire_class.obj
 0002:000034fc       ??_C@_02MLODCJFF@32?$AA@   004424fc     v5subs:wire_class.obj
 0002:00003500       ??_C@_03NDEOBLHI@54A?$AA@  00442500     v5subs:wire_class.obj
 0002:00003504       ??_C@_03MFHGMICE@62A?$AA@  00442504     v5subs:wire_class.obj
 0002:0000350c       ??_7bad_alloc@std@@6B@     0044250c     LIBCMT:new.obj
 0002:00003514       ??_C@_0P@GHFPNOJB@bad?5allocation?$AA@ 00442514     LIBCMT:new.obj
 0002:00003528       ??_7type_info@@6B@         00442528     LIBCMT:typinfo.obj
 0002:0000352c       __FPinit                   0044252c     LIBCMT:fpinit.obj
 0002:0000366c       ??_7exception@std@@6B@     0044266c     LIBCMT:stdexcpt.obj
 0002:00003674       ??_C@_0BC@EOODALEL@Unknown?5exception?$AA@ 00442674     LIBCMT:stdexcpt.obj
 0002:000036a8       ??_C@_1BI@BGOHAHKC@?$AAm?$AAs?$AAc?$AAo?$AAr?$AAe?$AAe?$AA?4?$AAd?$AAl?$AAl?$AA?$AA@ 004426a8     LIBCMT:crt0dat.obj
 0002:000036c0       ??_C@_0P@MIGLKIOC@CorExitProcess?$AA@ 004426c0     LIBCMT:crt0dat.obj
 0002:000036d0       ??_C@_05KLBDPFGC@e?$CL000?$AA@ 004426d0     LIBCMT:cvt.obj
 0002:000036d8       __XcptActTab               004426d8     LIBCMT:winxfltr.obj
 0002:00003768       __XcptActTabCount          00442768     LIBCMT:winxfltr.obj
 0002:0000376c       __XcptActTabSize           0044276c     LIBCMT:winxfltr.obj
 0002:00003770       __First_FPE_Indx           00442770     LIBCMT:winxfltr.obj
 0002:00003774       __Num_FPE                  00442774     LIBCMT:winxfltr.obj
 0002:00003778       ??_C@_1BK@MGMFAEKH@?$AAk?$AAe?$AAr?$AAn?$AAe?$AAl?$AA3?$AA2?$AA?4?$AAd?$AAl?$AAl?$AA?$AA@ 00442778     LIBCMT:winapisupp.obj
 0002:00003794       ??_C@_08KNHFBNJ@FlsAlloc?$AA@ 00442794     LIBCMT:winapisupp.obj
 0002:000037a0       ??_C@_07PEJMOBNF@FlsFree?$AA@ 004427a0     LIBCMT:winapisupp.obj
 0002:000037a8       ??_C@_0M@GDNOONDI@FlsGetValue?$AA@ 004427a8     LIBCMT:winapisupp.obj
 0002:000037b4       ??_C@_0M@JCPCPOEF@FlsSetValue?$AA@ 004427b4     LIBCMT:winapisupp.obj
 0002:000037c0       ??_C@_0BM@HCFOFFN@InitializeCriticalSectionEx?$AA@ 004427c0     LIBCMT:winapisupp.obj
 0002:000037dc       ??_C@_0P@DLHPPCNH@CreateEventExW?$AA@ 004427dc     LIBCMT:winapisupp.obj
 0002:000037ec       ??_C@_0BD@KIEEOEEH@CreateSemaphoreExW?$AA@ 004427ec     LIBCMT:winapisupp.obj
 0002:00003800       ??_C@_0BI@BKLFFAPO@SetThreadStackGuarantee?$AA@ 00442800     LIBCMT:winapisupp.obj
 0002:00003818       ??_C@_0BG@OGFAJCKC@CreateThreadpoolTimer?$AA@ 00442818     LIBCMT:winapisupp.obj
 0002:00003830       ??_C@_0BD@LPLEMMDI@SetThreadpoolTimer?$AA@ 00442830     LIBCMT:winapisupp.obj
 0002:00003844       ??_C@_0CA@FMNJENH@WaitForThreadpoolTimerCallbacks?$AA@ 00442844     LIBCMT:winapisupp.obj
 0002:00003864       ??_C@_0BF@DCFCCNOC@CloseThreadpoolTimer?$AA@ 00442864     LIBCMT:winapisupp.obj
 0002:0000387c       ??_C@_0BF@FLABGKKM@CreateThreadpoolWait?$AA@ 0044287c     LIBCMT:winapisupp.obj
 0002:00003894       ??_C@_0BC@MGCOHNA@SetThreadpoolWait?$AA@ 00442894     LIBCMT:winapisupp.obj
 0002:000038a8       ??_C@_0BE@OCIOMIMP@CloseThreadpoolWait?$AA@ 004428a8     LIBCMT:winapisupp.obj
 0002:000038bc       ??_C@_0BJ@LKGHFHBO@FlushProcessWriteBuffers?$AA@ 004428bc     LIBCMT:winapisupp.obj
 0002:000038d8       ??_C@_0BP@KALKKPMO@FreeLibraryWhenCallbackReturns?$AA@ 004428d8     LIBCMT:winapisupp.obj
 0002:000038f8       ??_C@_0BK@DFNBACLA@GetCurrentProcessorNumber?$AA@ 004428f8     LIBCMT:winapisupp.obj
 0002:00003914       ??_C@_0BP@KHGALBC@GetLogicalProcessorInformation?$AA@ 00442914     LIBCMT:winapisupp.obj
 0002:00003934       ??_C@_0BE@FKKLLFLM@CreateSymbolicLinkW?$AA@ 00442934     LIBCMT:winapisupp.obj
 0002:00003948       ??_C@_0BJ@OHNKDLIJ@SetDefaultDllDirectories?$AA@ 00442948     LIBCMT:winapisupp.obj
 0002:00003964       ??_C@_0BE@LJANKFHF@EnumSystemLocalesEx?$AA@ 00442964     LIBCMT:winapisupp.obj
 0002:00003978       ??_C@_0BA@IHGNDAEB@CompareStringEx?$AA@ 00442978     LIBCMT:winapisupp.obj
 0002:00003988       ??_C@_0BA@EPCJIIPD@GetDateFormatEx?$AA@ 00442988     LIBCMT:winapisupp.obj
 0002:00003998       ??_C@_0BA@ONOKGCMP@GetLocaleInfoEx?$AA@ 00442998     LIBCMT:winapisupp.obj
 0002:000039a8       ??_C@_0BA@CIJJKCJJ@GetTimeFormatEx?$AA@ 004429a8     LIBCMT:winapisupp.obj
 0002:000039b8       ??_C@_0BJ@PBCCBIPI@GetUserDefaultLocaleName?$AA@ 004429b8     LIBCMT:winapisupp.obj
 0002:000039d4       ??_C@_0BC@CELBKLLA@IsValidLocaleName?$AA@ 004429d4     LIBCMT:winapisupp.obj
 0002:000039e8       ??_C@_0O@KKBNKAPF@LCMapStringEx?$AA@ 004429e8     LIBCMT:winapisupp.obj
 0002:000039f8       ??_C@_0BE@JOGNEJCI@GetCurrentPackageId?$AA@ 004429f8     LIBCMT:winapisupp.obj
 0002:00003a0c       ??_C@_0P@CDHHOHKP@GetTickCount64?$AA@ 00442a0c     LIBCMT:winapisupp.obj
 0002:00003a1c       ??_C@_0BO@KPCLFDJJ@GetFileInformationByHandleExW?$AA@ 00442a1c     LIBCMT:winapisupp.obj
 0002:00003a3c       ??_C@_0BM@MHIDLABK@SetFileInformationByHandleW?$AA@ 00442a3c     LIBCMT:winapisupp.obj
 0002:00003b10       ??_C@_1FK@PGACCAFB@?$AAR?$AA6?$AA0?$AA0?$AA2?$AA?$AN?$AA?6?$AA?9?$AA?5?$AAf?$AAl?$AAo?$AAa?$AAt?$AAi?$AAn?$AAg?$AA?5?$AAp?$AAo?$AAi?$AAn?$AAt?$AA?5?$AAs?$AAu?$AAp?$AAp?$AAo?$AAr?$AAt?$AA?5@ 00442b10     LIBCMT:crt0msg.obj
 0002:00003b70       ??_C@_1FE@LLNEDJMD@?$AAR?$AA6?$AA0?$AA0?$AA8?$AA?$AN?$AA?6?$AA?9?$AA?5?$AAn?$AAo?$AAt?$AA?5?$AAe?$AAn?$AAo?$AAu?$AAg?$AAh?$AA?5?$AAs?$AAp?$AAa?$AAc?$AAe?$AA?5?$AAf?$AAo?$AAr?$AA?5?$AAa?$AAr@ 00442b70     LIBCMT:crt0msg.obj
 0002:00003bc8       ??_C@_1FI@HONFMGBI@?$AAR?$AA6?$AA0?$AA0?$AA9?$AA?$AN?$AA?6?$AA?9?$AA?5?$AAn?$AAo?$AAt?$AA?5?$AAe?$AAn?$AAo?$AAu?$AAg?$AAh?$AA?5?$AAs?$AAp?$AAa?$AAc?$AAe?$AA?5?$AAf?$AAo?$AAr?$AA?5?$AAe?$AAn@ 00442bc8     LIBCMT:crt0msg.obj
 0002:00003c20       ??_C@_1EG@BEHAGFJD@?$AAR?$AA6?$AA0?$AA1?$AA0?$AA?$AN?$AA?6?$AA?9?$AA?5?$AAa?$AAb?$AAo?$AAr?$AAt?$AA?$CI?$AA?$CJ?$AA?5?$AAh?$AAa?$AAs?$AA?5?$AAb?$AAe?$AAe?$AAn?$AA?5?$AAc?$AAa?$AAl?$AAl?$AAe?$AAd@ 00442c20     LIBCMT:crt0msg.obj
 0002:00003c68       ??_C@_1FI@LOGNIKDM@?$AAR?$AA6?$AA0?$AA1?$AA6?$AA?$AN?$AA?6?$AA?9?$AA?5?$AAn?$AAo?$AAt?$AA?5?$AAe?$AAn?$AAo?$AAu?$AAg?$AAh?$AA?5?$AAs?$AAp?$AAa?$AAc?$AAe?$AA?5?$AAf?$AAo?$AAr?$AA?5?$AAt?$AAh@ 00442c68     LIBCMT:crt0msg.obj
 0002:00003cc0       ??_C@_1FK@BEOGODMC@?$AAR?$AA6?$AA0?$AA1?$AA7?$AA?$AN?$AA?6?$AA?9?$AA?5?$AAu?$AAn?$AAe?$AAx?$AAp?$AAe?$AAc?$AAt?$AAe?$AAd?$AA?5?$AAm?$AAu?$AAl?$AAt?$AAi?$AAt?$AAh?$AAr?$AAe?$AAa?$AAd?$AA?5@ 00442cc0     LIBCMT:crt0msg.obj
 0002:00003d20       ??_C@_1EC@JIBHAOPH@?$AAR?$AA6?$AA0?$AA1?$AA8?$AA?$AN?$AA?6?$AA?9?$AA?5?$AAu?$AAn?$AAe?$AAx?$AAp?$AAe?$AAc?$AAt?$AAe?$AAd?$AA?5?$AAh?$AAe?$AAa?$AAp?$AA?5?$AAe?$AAr?$AAr?$AAo?$AAr?$AA?$AN?$AA?6@ 00442d20     LIBCMT:crt0msg.obj
 0002:00003d68       ??_C@_1FC@ECHBIFBC@?$AAR?$AA6?$AA0?$AA1?$AA9?$AA?$AN?$AA?6?$AA?9?$AA?5?$AAu?$AAn?$AAa?$AAb?$AAl?$AAe?$AA?5?$AAt?$AAo?$AA?5?$AAo?$AAp?$AAe?$AAn?$AA?5?$AAc?$AAo?$AAn?$AAs?$AAo?$AAl?$AAe?$AA?5@ 00442d68     LIBCMT:crt0msg.obj
 0002:00003dc0       ??_C@_1GK@FHCKBEFA@?$AAR?$AA6?$AA0?$AA2?$AA4?$AA?$AN?$AA?6?$AA?9?$AA?5?$AAn?$AAo?$AAt?$AA?5?$AAe?$AAn?$AAo?$AAu?$AAg?$AAh?$AA?5?$AAs?$AAp?$AAa?$AAc?$AAe?$AA?5?$AAf?$AAo?$AAr?$AA?5?$AA_?$AAo@ 00442dc0     LIBCMT:crt0msg.obj
 0002:00003e30       ??_C@_1EM@MAADIHMB@?$AAR?$AA6?$AA0?$AA2?$AA5?$AA?$AN?$AA?6?$AA?9?$AA?5?$AAp?$AAu?$AAr?$AAe?$AA?5?$AAv?$AAi?$AAr?$AAt?$AAu?$AAa?$AAl?$AA?5?$AAf?$AAu?$AAn?$AAc?$AAt?$AAi?$AAo?$AAn?$AA?5?$AAc@ 00442e30     LIBCMT:crt0msg.obj
 0002:00003e80       ??_C@_1GK@MCAAGJMO@?$AAR?$AA6?$AA0?$AA2?$AA6?$AA?$AN?$AA?6?$AA?9?$AA?5?$AAn?$AAo?$AAt?$AA?5?$AAe?$AAn?$AAo?$AAu?$AAg?$AAh?$AA?5?$AAs?$AAp?$AAa?$AAc?$AAe?$AA?5?$AAf?$AAo?$AAr?$AA?5?$AAs?$AAt@ 00442e80     LIBCMT:crt0msg.obj
 0002:00003ef0       ??_C@_1GK@MFGOKLAG@?$AAR?$AA6?$AA0?$AA2?$AA7?$AA?$AN?$AA?6?$AA?9?$AA?5?$AAn?$AAo?$AAt?$AA?5?$AAe?$AAn?$AAo?$AAu?$AAg?$AAh?$AA?5?$AAs?$AAp?$AAa?$AAc?$AAe?$AA?5?$AAf?$AAo?$AAr?$AA?5?$AAl?$AAo@ 00442ef0     LIBCMT:crt0msg.obj
 0002:00003f60       ??_C@_1EK@HHFLMAOL@?$AAR?$AA6?$AA0?$AA2?$AA8?$AA?$AN?$AA?6?$AA?9?$AA?5?$AAu?$AAn?$AAa?$AAb?$AAl?$AAe?$AA?5?$AAt?$AAo?$AA?5?$AAi?$AAn?$AAi?$AAt?$AAi?$AAa?$AAl?$AAi?$AAz?$AAe?$AA?5?$AAh?$AAe@ 00442f60     LIBCMT:crt0msg.obj
 0002:00003fac       ??_C@_1DO@BMFCDCD@?$AAR?$AA6?$AA0?$AA3?$AA0?$AA?$AN?$AA?6?$AA?9?$AA?5?$AAC?$AAR?$AAT?$AA?5?$AAn?$AAo?$AAt?$AA?5?$AAi?$AAn?$AAi?$AAt?$AAi?$AAa?$AAl?$AAi?$AAz?$AAe?$AAd?$AA?$AN?$AA?6?$AA?$AA@ 00442fac     LIBCMT:crt0msg.obj
 0002:00003ff0       ??_C@_1MG@ENCOOIDF@?$AAR?$AA6?$AA0?$AA3?$AA1?$AA?$AN?$AA?6?$AA?9?$AA?5?$AAA?$AAt?$AAt?$AAe?$AAm?$AAp?$AAt?$AA?5?$AAt?$AAo?$AA?5?$AAi?$AAn?$AAi?$AAt?$AAi?$AAa?$AAl?$AAi?$AAz?$AAe?$AA?5?$AAt@ 00442ff0     LIBCMT:crt0msg.obj
 0002:000040b8       ??_C@_1GG@GOPILAJP@?$AAR?$AA6?$AA0?$AA3?$AA2?$AA?$AN?$AA?6?$AA?9?$AA?5?$AAn?$AAo?$AAt?$AA?5?$AAe?$AAn?$AAo?$AAu?$AAg?$AAh?$AA?5?$AAs?$AAp?$AAa?$AAc?$AAe?$AA?5?$AAf?$AAo?$AAr?$AA?5?$AAl?$AAo@ 004430b8     LIBCMT:crt0msg.obj
 0002:00004120       ??_C@_1BOO@KGEDBGAJ@?$AAR?$AA6?$AA0?$AA3?$AA3?$AA?$AN?$AA?6?$AA?9?$AA?5?$AAA?$AAt?$AAt?$AAe?$AAm?$AAp?$AAt?$AA?5?$AAt?$AAo?$AA?5?$AAu?$AAs?$AAe?$AA?5?$AAM?$AAS?$AAI?$AAL?$AA?5?$AAc?$AAo?$AAd@ 00443120     LIBCMT:crt0msg.obj
 0002:00004310       ??_C@_1GG@MKFPEKFO@?$AAR?$AA6?$AA0?$AA3?$AA4?$AA?$AN?$AA?6?$AA?9?$AA?5?$AAi?$AAn?$AAc?$AAo?$AAn?$AAs?$AAi?$AAs?$AAt?$AAe?$AAn?$AAt?$AA?5?$AAo?$AAn?$AAe?$AAx?$AAi?$AAt?$AA?5?$AAb?$AAe?$AAg@ 00443310     LIBCMT:crt0msg.obj
 0002:00004378       ??_C@_1BO@BFCDCGC@?$AAD?$AAO?$AAM?$AAA?$AAI?$AAN?$AA?5?$AAe?$AAr?$AAr?$AAo?$AAr?$AA?$AN?$AA?6?$AA?$AA@ 00443378     LIBCMT:crt0msg.obj
 0002:00004398       ??_C@_1BK@KMOMNAAI@?$AAS?$AAI?$AAN?$AAG?$AA?5?$AAe?$AAr?$AAr?$AAo?$AAr?$AA?$AN?$AA?6?$AA?$AA@ 00443398     LIBCMT:crt0msg.obj
 0002:000043b4       ??_C@_1BM@JBBEPPHI@?$AAT?$AAL?$AAO?$AAS?$AAS?$AA?5?$AAe?$AAr?$AAr?$AAo?$AAr?$AA?$AN?$AA?6?$AA?$AA@ 004433b4     LIBCMT:crt0msg.obj
 0002:000043d0       ??_C@_15JNBOKNOG@?$AA?$AN?$AA?6?$AA?$AA@ 004433d0     LIBCMT:crt0msg.obj
 0002:000043d8       ??_C@_1BO@BKOMIGKJ@?$AAr?$AAu?$AAn?$AAt?$AAi?$AAm?$AAe?$AA?5?$AAe?$AAr?$AAr?$AAo?$AAr?$AA?5?$AA?$AA@ 004433d8     LIBCMT:crt0msg.obj
 0002:000043f8       ??_C@_1DE@JNGNBFGO@?$AAR?$AAu?$AAn?$AAt?$AAi?$AAm?$AAe?$AA?5?$AAE?$AAr?$AAr?$AAo?$AAr?$AA?$CB?$AA?6?$AA?6?$AAP?$AAr?$AAo?$AAg?$AAr?$AAa?$AAm?$AA?3?$AA?5?$AA?$AA@ 004433f8     LIBCMT:crt0msg.obj
 0002:0000442c       ??_C@_1CO@EAEJAADC@?$AA?$DM?$AAp?$AAr?$AAo?$AAg?$AAr?$AAa?$AAm?$AA?5?$AAn?$AAa?$AAm?$AAe?$AA?5?$AAu?$AAn?$AAk?$AAn?$AAo?$AAw?$AAn?$AA?$DO?$AA?$AA@ 0044342c     LIBCMT:crt0msg.obj
 0002:0000445c       ??_C@_17LGKOMLJ@?$AA?4?$AA?4?$AA?4?$AA?$AA@ 0044345c     LIBCMT:crt0msg.obj
 0002:00004464       ??_C@_15IABLJNFO@?$AA?6?$AA?6?$AA?$AA@ 00443464     LIBCMT:crt0msg.obj
 0002:00004470       ??_C@_1EK@MBDPDCGA@?$AAM?$AAi?$AAc?$AAr?$AAo?$AAs?$AAo?$AAf?$AAt?$AA?5?$AAV?$AAi?$AAs?$AAu?$AAa?$AAl?$AA?5?$AAC?$AA?$CL?$AA?$CL?$AA?5?$AAR?$AAu?$AAn?$AAt?$AAi?$AAm?$AAe?$AA?5?$AAL?$AAi?$AAb@ 00443470     LIBCMT:crt0msg.obj
 0002:000044cc       ??_C@_1M@HPNHIDJI@?$AAj?$AAa?$AA?9?$AAJ?$AAP?$AA?$AA@ 004434cc     LIBCMT:mbctype.obj
 0002:000044d8       ??_C@_1M@BIBDDEMK@?$AAz?$AAh?$AA?9?$AAC?$AAN?$AA?$AA@ 004434d8     LIBCMT:mbctype.obj
 0002:000044e4       ??_C@_1M@JLOOOEGK@?$AAk?$AAo?$AA?9?$AAK?$AAR?$AA?$AA@ 004434e4     LIBCMT:mbctype.obj
 0002:000044f0       ??_C@_1M@CLNBBOPM@?$AAz?$AAh?$AA?9?$AAT?$AAW?$AA?$AA@ 004434f0     LIBCMT:mbctype.obj
 0002:000044fc       ??_C@_03IOFIKPDN@Thu?$AA@  004434fc     LIBCMT:nlsdata.obj
 0002:00004500       ??_C@_06OOPIFAJ@Sunday?$AA@ 00443500     LIBCMT:nlsdata.obj
 0002:00004508       ??_C@_06JLEDEDGH@Monday?$AA@ 00443508     LIBCMT:nlsdata.obj
 0002:00004510       ??_C@_07BAAGCFCM@Tuesday?$AA@ 00443510     LIBCMT:nlsdata.obj
 0002:00004518       ??_C@_09DLIGFAKA@Wednesday?$AA@ 00443518     LIBCMT:nlsdata.obj
 0002:00004524       ??_C@_08HACCIKIA@Thursday?$AA@ 00443524     LIBCMT:nlsdata.obj
 0002:00004530       ??_C@_06JECMNKMI@Friday?$AA@ 00443530     LIBCMT:nlsdata.obj
 0002:00004538       ??_C@_08INBOOONO@Saturday?$AA@ 00443538     LIBCMT:nlsdata.obj
 0002:00004544       ??_C@_03JIHJHPIE@Jan?$AA@  00443544     LIBCMT:nlsdata.obj
 0002:00004548       ??_C@_03HJBDCHOM@Feb?$AA@  00443548     LIBCMT:nlsdata.obj
 0002:0000454c       ??_C@_03ODNJBKGA@Mar?$AA@  0044354c     LIBCMT:nlsdata.obj
 0002:00004550       ??_C@_03LEOLGMJP@Apr?$AA@  00443550     LIBCMT:nlsdata.obj
 0002:00004554       ??_C@_03CNMDKL@May?$AA@    00443554     LIBCMT:nlsdata.obj
 0002:00004558       ??_C@_03IDFGHECI@Jun?$AA@  00443558     LIBCMT:nlsdata.obj
 0002:0000455c       ??_C@_03LBGABGKK@Jul?$AA@  0044355c     LIBCMT:nlsdata.obj
 0002:00004560       ??_C@_03IFJFEIGA@Aug?$AA@  00443560     LIBCMT:nlsdata.obj
 0002:00004564       ??_C@_03GGCAPAJC@Sep?$AA@  00443564     LIBCMT:nlsdata.obj
 0002:00004568       ??_C@_03BMAOKBAD@Oct?$AA@  00443568     LIBCMT:nlsdata.obj
 0002:0000456c       ??_C@_03JPJOFNIA@Nov?$AA@  0044356c     LIBCMT:nlsdata.obj
 0002:00004570       ??_C@_03MKABNOCG@Dec?$AA@  00443570     LIBCMT:nlsdata.obj
 0002:00004574       ??_C@_07CGJPFGJA@January?$AA@ 00443574     LIBCMT:nlsdata.obj
 0002:0000457c       ??_C@_08GNJGEPFN@February?$AA@ 0044357c     LIBCMT:nlsdata.obj
 0002:00004588       ??_C@_05HPCKOFNC@March?$AA@ 00443588     LIBCMT:nlsdata.obj
 0002:00004590       ??_C@_05DMJDNLEJ@April?$AA@ 00443590     LIBCMT:nlsdata.obj
 0002:00004598       ??_C@_04CNLMGBGM@June?$AA@ 00443598     LIBCMT:nlsdata.obj
 0002:000045a0       ??_C@_04MIEPOIFP@July?$AA@ 004435a0     LIBCMT:nlsdata.obj
 0002:000045a8       ??_C@_06LBBHFDDG@August?$AA@ 004435a8     LIBCMT:nlsdata.obj
 0002:000045b0       ??_C@_09BHHEALKD@September?$AA@ 004435b0     LIBCMT:nlsdata.obj
 0002:000045bc       ??_C@_07JJNFCEND@October?$AA@ 004435bc     LIBCMT:nlsdata.obj
 0002:000045c4       ??_C@_08HCHEGEOA@November?$AA@ 004435c4     LIBCMT:nlsdata.obj
 0002:000045d0       ??_C@_08EDHMEBNP@December?$AA@ 004435d0     LIBCMT:nlsdata.obj
 0002:000045dc       ??_C@_02DEDBPAFC@AM?$AA@   004435dc     LIBCMT:nlsdata.obj
 0002:000045e0       ??_C@_02CJNFDJBF@PM?$AA@   004435e0     LIBCMT:nlsdata.obj
 0002:000045e4       ??_C@_08BPBNCDIB@MM?1dd?1yy?$AA@ 004435e4     LIBCMT:nlsdata.obj
 0002:000045f0       ??_C@_0BE@CKGJFCPC@dddd?0?5MMMM?5dd?0?5yyyy?$AA@ 004435f0     LIBCMT:nlsdata.obj
 0002:00004604       ??_C@_08JCCMCCIL@HH?3mm?3ss?$AA@ 00443604     LIBCMT:nlsdata.obj
 0002:00004610       ??_C@_17MBGCMIPB@?$AAS?$AAu?$AAn?$AA?$AA@ 00443610     LIBCMT:nlsdata.obj
 0002:00004618       ??_C@_17KBOMKBF@?$AAM?$AAo?$AAn?$AA?$AA@ 00443618     LIBCMT:nlsdata.obj
 0002:00004620       ??_C@_17BMKGEGOJ@?$AAT?$AAu?$AAe?$AA?$AA@ 00443620     LIBCMT:nlsdata.obj
 0002:00004628       ??_C@_17CJEDCEPE@?$AAW?$AAe?$AAd?$AA?$AA@ 00443628     LIBCMT:nlsdata.obj
 0002:00004630       ??_C@_17PDPHAADD@?$AAT?$AAh?$AAu?$AA?$AA@ 00443630     LIBCMT:nlsdata.obj
 0002:00004638       ??_C@_17HFOLPPLP@?$AAF?$AAr?$AAi?$AA?$AA@ 00443638     LIBCMT:nlsdata.obj
 0002:00004640       ??_C@_17GGIBDPIH@?$AAS?$AAa?$AAt?$AA?$AA@ 00443640     LIBCMT:nlsdata.obj
 0002:00004648       ??_C@_1O@IHNHDHPB@?$AAS?$AAu?$AAn?$AAd?$AAa?$AAy?$AA?$AA@ 00443648     LIBCMT:nlsdata.obj
 0002:00004658       ??_C@_1O@MMNBFLIA@?$AAM?$AAo?$AAn?$AAd?$AAa?$AAy?$AA?$AA@ 00443658     LIBCMT:nlsdata.obj
 0002:00004668       ??_C@_1BA@ENFBFFEK@?$AAT?$AAu?$AAe?$AAs?$AAd?$AAa?$AAy?$AA?$AA@ 00443668     LIBCMT:nlsdata.obj
 0002:00004678       ??_C@_1BE@EBOGMDOH@?$AAW?$AAe?$AAd?$AAn?$AAe?$AAs?$AAd?$AAa?$AAy?$AA?$AA@ 00443678     LIBCMT:nlsdata.obj
 0002:0000468c       ??_C@_1BC@HHMNLIHE@?$AAT?$AAh?$AAu?$AAr?$AAs?$AAd?$AAa?$AAy?$AA?$AA@ 0044368c     LIBCMT:nlsdata.obj
 0002:000046a0       ??_C@_1O@PDICJHAG@?$AAF?$AAr?$AAi?$AAd?$AAa?$AAy?$AA?$AA@ 004436a0     LIBCMT:nlsdata.obj
 0002:000046b0       ??_C@_1BC@ENMNNPAJ@?$AAS?$AAa?$AAt?$AAu?$AAr?$AAd?$AAa?$AAy?$AA?$AA@ 004436b0     LIBCMT:nlsdata.obj
 0002:000046c4       ??_C@_17DKNBKCHM@?$AAJ?$AAa?$AAn?$AA?$AA@ 004436c4     LIBCMT:nlsdata.obj
 0002:000046cc       ??_C@_17LMDJEKJN@?$AAF?$AAe?$AAb?$AA?$AA@ 004436cc     LIBCMT:nlsdata.obj
 0002:000046d4       ??_C@_17CKNLEDEC@?$AAM?$AAa?$AAr?$AA?$AA@ 004436d4     LIBCMT:nlsdata.obj
 0002:000046dc       ??_C@_17LFPOIHDD@?$AAA?$AAp?$AAr?$AA?$AA@ 004436dc     LIBCMT:nlsdata.obj
 0002:000046e4       ??_C@_17PNNKMEED@?$AAM?$AAa?$AAy?$AA?$AA@ 004436e4     LIBCMT:nlsdata.obj
 0002:000046ec       ??_C@_17KCJGOCPB@?$AAJ?$AAu?$AAn?$AA?$AA@ 004436ec     LIBCMT:nlsdata.obj
 0002:000046f4       ??_C@_17IJPCKHK@?$AAJ?$AAu?$AAl?$AA?$AA@ 004436f4     LIBCMT:nlsdata.obj
 0002:000046fc       ??_C@_17ICPELBCN@?$AAA?$AAu?$AAg?$AA?$AA@ 004436fc     LIBCMT:nlsdata.obj
 0002:00004704       ??_C@_17HCHCOKMG@?$AAS?$AAe?$AAp?$AA?$AA@ 00443704     LIBCMT:nlsdata.obj
 0002:0000470c       ??_C@_17FNLKOI@?$AAO?$AAc?$AAt?$AA?$AA@ 0044370c     LIBCMT:nlsdata.obj
 0002:00004714       ??_C@_17BBDMLCIG@?$AAN?$AAo?$AAv?$AA?$AA@ 00443714     LIBCMT:nlsdata.obj
 0002:0000471c       ??_C@_17EGKACKIF@?$AAD?$AAe?$AAc?$AA?$AA@ 0044371c     LIBCMT:nlsdata.obj
 0002:00004724       ??_C@_1BA@EFMEIEBA@?$AAJ?$AAa?$AAn?$AAu?$AAa?$AAr?$AAy?$AA?$AA@ 00443724     LIBCMT:nlsdata.obj
 0002:00004734       ??_C@_1BC@JGDDFFAM@?$AAF?$AAe?$AAb?$AAr?$AAu?$AAa?$AAr?$AAy?$AA?$AA@ 00443734     LIBCMT:nlsdata.obj
 0002:00004748       ??_C@_1M@IKEENEDF@?$AAM?$AAa?$AAr?$AAc?$AAh?$AA?$AA@ 00443748     LIBCMT:nlsdata.obj
 0002:00004754       ??_C@_1M@GJNLMHFD@?$AAA?$AAp?$AAr?$AAi?$AAl?$AA?$AA@ 00443754     LIBCMT:nlsdata.obj
 0002:00004760       ??_C@_19EPFLPGAP@?$AAJ?$AAu?$AAn?$AAe?$AA?$AA@ 00443760     LIBCMT:nlsdata.obj
 0002:0000476c       ??_C@_19BIFMLPCD@?$AAJ?$AAu?$AAl?$AAy?$AA?$AA@ 0044376c     LIBCMT:nlsdata.obj
 0002:00004778       ??_C@_1O@PAHLKOAC@?$AAA?$AAu?$AAg?$AAu?$AAs?$AAt?$AA?$AA@ 00443778     LIBCMT:nlsdata.obj
 0002:00004788       ??_C@_1BE@DKAAMBJL@?$AAS?$AAe?$AAp?$AAt?$AAe?$AAm?$AAb?$AAe?$AAr?$AA?$AA@ 00443788     LIBCMT:nlsdata.obj
 0002:0000479c       ??_C@_1BA@EPANDLNG@?$AAO?$AAc?$AAt?$AAo?$AAb?$AAe?$AAr?$AA?$AA@ 0044379c     LIBCMT:nlsdata.obj
 0002:000047ac       ??_C@_1BC@BGLIFPF@?$AAN?$AAo?$AAv?$AAe?$AAm?$AAb?$AAe?$AAr?$AA?$AA@ 004437ac     LIBCMT:nlsdata.obj
 0002:000047c0       ??_C@_1BC@FEMKIFH@?$AAD?$AAe?$AAc?$AAe?$AAm?$AAb?$AAe?$AAr?$AA?$AA@ 004437c0     LIBCMT:nlsdata.obj
 0002:000047d4       ??_C@_15ODEHAHHF@?$AAA?$AAM?$AA?$AA@ 004437d4     LIBCMT:nlsdata.obj
 0002:000047dc       ??_C@_15CLMNNGEL@?$AAP?$AAM?$AA?$AA@ 004437dc     LIBCMT:nlsdata.obj
 0002:000047e4       ??_C@_1BC@IEBCMHCM@?$AAM?$AAM?$AA?1?$AAd?$AAd?$AA?1?$AAy?$AAy?$AA?$AA@ 004437e4     LIBCMT:nlsdata.obj
 0002:000047f8       ??_C@_1CI@KNAKOEBC@?$AAd?$AAd?$AAd?$AAd?$AA?0?$AA?5?$AAM?$AAM?$AAM?$AAM?$AA?5?$AAd?$AAd?$AA?0?$AA?5?$AAy?$AAy?$AAy?$AAy?$AA?$AA@ 004437f8     LIBCMT:nlsdata.obj
 0002:00004820       ??_C@_1BC@GDGBMEMK@?$AAH?$AAH?$AA?3?$AAm?$AAm?$AA?3?$AAs?$AAs?$AA?$AA@ 00443820     LIBCMT:nlsdata.obj
 0002:00004834       ??_C@_1M@BMHNFIME@?$AAe?$AAn?$AA?9?$AAU?$AAS?$AA?$AA@ 00443834     LIBCMT:nlsdata.obj
 0002:00004928       ??_C@_03MGHMBJCF@log?$AA@  00443928     LIBCMT:libm_error.obj
 0002:0000492c       ??_C@_05HGHHAHAP@log10?$AA@ 0044392c     LIBCMT:libm_error.obj
 0002:00004934       ??_C@_03KHJOGHMM@exp?$AA@  00443934     LIBCMT:libm_error.obj
 0002:00004938       ??_C@_03JGHBODFD@pow?$AA@  00443938     LIBCMT:libm_error.obj
 0002:0000493c       ??_C@_04FIHNOPOL@asin?$AA@ 0044393c     LIBCMT:libm_error.obj
 0002:00004944       ??_C@_04PDIFKINK@acos?$AA@ 00443944     LIBCMT:libm_error.obj
 0002:0000494c       ??_C@_05EOHGHCHD@exp10?$AA@ 0044394c     LIBCMT:libm_error.obj
 0002:00004954       ??_C@_04MLLJIGOK@atan?$AA@ 00443954     LIBCMT:libm_error.obj
 0002:0000495c       ??_C@_04GFPJNGEK@ceil?$AA@ 0044395c     LIBCMT:libm_error.obj
 0002:00004964       ??_C@_05PBJFFIGL@floor?$AA@ 00443964     LIBCMT:libm_error.obj
 0002:0000496c       ??_C@_04EHEDPDJG@modf?$AA@ 0044396c     LIBCMT:libm_error.obj
 0002:00004974       ??_C@_03BLEJJJBH@sin?$AA@  00443974     LIBCMT:libm_error.obj
 0002:00004978       ??_C@_03LALBNOCG@cos?$AA@  00443978     LIBCMT:libm_error.obj
 0002:0000497c       ??_C@_03IIINPABG@tan?$AA@  0044397c     LIBCMT:libm_error.obj
 0002:00004980       ??_C@_04EIAKFFMI@sqrt?$AA@ 00443980     LIBCMT:libm_error.obj
 0002:00004988       ??_C@_04COOMCNPB@sinh?$AA@ 00443988     LIBCMT:fpexcept.obj
 0002:00004990       ??_C@_04HPJJNFIM@cosh?$AA@ 00443990     LIBCMT:fpexcept.obj
 0002:00004998       ??_C@_04FJHINJAO@tanh?$AA@ 00443998     LIBCMT:fpexcept.obj
 0002:000049a0       ??_C@_05KNGEOGJB@atan2?$AA@ 004439a0     LIBCMT:fpexcept.obj
 0002:000049a8       ??_C@_04ODHECPBC@fabs?$AA@ 004439a8     LIBCMT:fpexcept.obj
 0002:000049b0       ??_C@_05CEJMAHNP@ldexp?$AA@ 004439b0     LIBCMT:fpexcept.obj
 0002:000049b8       ??_C@_05KBKMEMPO@_cabs?$AA@ 004439b8     LIBCMT:fpexcept.obj
 0002:000049c0       ??_C@_06MEIMCGCF@_hypot?$AA@ 004439c0     LIBCMT:fpexcept.obj
 0002:000049c8       ??_C@_04KEPJIHGP@fmod?$AA@ 004439c8     LIBCMT:fpexcept.obj
 0002:000049d0       ??_C@_05GKKHEGJL@frexp?$AA@ 004439d0     LIBCMT:fpexcept.obj
 0002:000049d8       ??_C@_03MJLDFKDL@_y0?$AA@  004439d8     LIBCMT:fpexcept.obj
 0002:000049dc       ??_C@_03NAKIGLHK@_y1?$AA@  004439dc     LIBCMT:fpexcept.obj
 0002:000049e0       ??_C@_03ONILCKOB@_yn?$AA@  004439e0     LIBCMT:fpexcept.obj
 0002:000049e4       ??_C@_05JGDBENOH@_logb?$AA@ 004439e4     LIBCMT:fpexcept.obj
 0002:000049ec       ??_C@_0L@KDOEJCKC@_nextafter?$AA@ 004439ec     LIBCMT:fpexcept.obj
 0002:00004a00       __indefinite               00443a00     LIBCMT:87disp.obj
 0002:00004a0a       __piby2                    00443a0a     LIBCMT:87disp.obj
 0002:00004a38       __DEFAULT_CW_in_mem        00443a38     LIBCMT:common.obj
 0002:00004a3a       __pi_by_2_to_61            00443a3a     LIBCMT:common.obj
 0002:00004c04       ??_C@_08EHJDFFNH@__based?$CI?$AA@ 00443c04     LIBCMT:undname.obj
 0002:00004c10       ??_C@_07KOLFKCDI@__cdecl?$AA@ 00443c10     LIBCMT:undname.obj
 0002:00004c18       ??_C@_08GHMPAG@__pascal?$AA@ 00443c18     LIBCMT:undname.obj
 0002:00004c24       ??_C@_09IFJBGAPI@__stdcall?$AA@ 00443c24     LIBCMT:undname.obj
 0002:00004c30       ??_C@_0L@NPHFGOKO@__thiscall?$AA@ 00443c30     LIBCMT:undname.obj
 0002:00004c3c       ??_C@_0L@JMKHOMEK@__fastcall?$AA@ 00443c3c     LIBCMT:undname.obj
 0002:00004c48       ??_C@_0N@BCKKPABJ@__vectorcall?$AA@ 00443c48     LIBCMT:undname.obj
 0002:00004c58       ??_C@_09HIJEGCPM@__clrcall?$AA@ 00443c58     LIBCMT:undname.obj
 0002:00004c64       ??_C@_06GHPCKEAG@__eabi?$AA@ 00443c64     LIBCMT:undname.obj
 0002:00004c6c       ??_C@_07JOMMBBKO@__ptr64?$AA@ 00443c6c     LIBCMT:undname.obj
 0002:00004c74       ??_C@_0L@PILCLIHE@__restrict?$AA@ 00443c74     LIBCMT:undname.obj
 0002:00004c80       ??_C@_0M@GFIIJFMG@__unaligned?$AA@ 00443c80     LIBCMT:undname.obj
 0002:00004c8c       ??_C@_09DHDLOLLB@restrict?$CI?$AA@ 00443c8c     LIBCMT:undname.obj
 0002:00004c98       ??_C@_04NIHEBCM@?5new?$AA@ 00443c98     LIBCMT:undname.obj
 0002:00004ca0       ??_C@_07FPCDHGMM@?5delete?$AA@ 00443ca0     LIBCMT:undname.obj
 0002:00004ca8       ??_C@_02GPIOPFAK@?$DO?$DO?$AA@ 00443ca8     LIBCMT:undname.obj
 0002:00004cac       ??_C@_02FODMEDOG@?$DM?$DM?$AA@ 00443cac     LIBCMT:undname.obj
 0002:00004cb0       ??_C@_01DCLJPIOD@?$CB?$AA@ 00443cb0     LIBCMT:undname.obj
 0002:00004cb4       ??_C@_02EGOFBIJA@?$DN?$DN?$AA@ 00443cb4     LIBCMT:undname.obj
 0002:00004cb8       ??_C@_02FDNJECIE@?$CB?$DN?$AA@ 00443cb8     LIBCMT:undname.obj
 0002:00004cbc       ??_C@_02GPECMEKF@?$FL?$FN?$AA@ 00443cbc     LIBCMT:undname.obj
 0002:00004cc0       ??_C@_08LHJFAFGD@operator?$AA@ 00443cc0     LIBCMT:undname.obj
 0002:00004ccc       ??_C@_02HBOOOICD@?9?$DO?$AA@ 00443ccc     LIBCMT:undname.obj
 0002:00004cd0       ??_C@_01NBENCBCI@?$CK?$AA@ 00443cd0     LIBCMT:undname.obj
 0002:00004cd4       ??_C@_02ECNGHCIF@?$CL?$CL?$AA@ 00443cd4     LIBCMT:undname.obj
 0002:00004cd8       ??_C@_02BAABKJLB@?9?9?$AA@ 00443cd8     LIBCMT:undname.obj
 0002:00004cdc       ??_C@_01JOAMLHOP@?9?$AA@   00443cdc     LIBCMT:undname.obj
 0002:00004ce0       ??_C@_01MIFGBAGJ@?$CL?$AA@ 00443ce0     LIBCMT:undname.obj
 0002:00004ce4       ??_C@_01HNPIGOCE@?$CG?$AA@ 00443ce4     LIBCMT:undname.obj
 0002:00004ce8       ??_C@_03MNHNFDLC@?9?$DO?$CK?$AA@ 00443ce8     LIBCMT:undname.obj
 0002:00004cec       ??_C@_01KMDKNFGN@?1?$AA@   00443cec     LIBCMT:undname.obj
 0002:00004cf0       ??_C@_01FGNFDNOH@?$CF?$AA@ 00443cf0     LIBCMT:undname.obj
 0002:00004cf4       ??_C@_01MNNFJEPP@?$DM?$AA@ 00443cf4     LIBCMT:undname.obj
 0002:00004cf8       ??_C@_02EHCHHCKH@?$DM?$DN?$AA@ 00443cf8     LIBCMT:undname.obj
 0002:00004cfc       ??_C@_01PPODPGHN@?$DO?$AA@ 00443cfc     LIBCMT:undname.obj
 0002:00004d00       ??_C@_02EEKDKGMJ@?$DO?$DN?$AA@ 00443d00     LIBCMT:undname.obj
 0002:00004d04       ??_C@_02HCKGKOFO@?$CI?$CJ?$AA@ 00443d04     LIBCMT:undname.obj
 0002:00004d08       ??_C@_01PJKLJHI@?$HO?$AA@  00443d08     LIBCMT:undname.obj
 0002:00004d0c       ??_C@_01JKBOJNNK@?$FO?$AA@ 00443d0c     LIBCMT:undname.obj
 0002:00004d10       ??_C@_01DNKMNLPK@?$HM?$AA@ 00443d10     LIBCMT:undname.obj
 0002:00004d14       ??_C@_02PPKAJPJL@?$CG?$CG?$AA@ 00443d14     LIBCMT:undname.obj
 0002:00004d18       ??_C@_02NONPIBCD@?$HM?$HM?$AA@ 00443d18     LIBCMT:undname.obj
 0002:00004d1c       ??_C@_02FPIMKNGF@?$CK?$DN?$AA@ 00443d1c     LIBCMT:undname.obj
 0002:00004d20       ??_C@_02FOEOMHFC@?$CL?$DN?$AA@ 00443d20     LIBCMT:undname.obj
 0002:00004d24       ??_C@_02FKMDLLOA@?9?$DN?$AA@ 00443d24     LIBCMT:undname.obj
 0002:00004d28       ??_C@_02FJEHGPIO@?1?$DN?$AA@ 00443d28     LIBCMT:undname.obj
 0002:00004d2c       ??_C@_02FENAOKFI@?$CF?$DN?$AA@ 00443d2c     LIBCMT:undname.obj
 0002:00004d30       ??_C@_03IKFCCPFF@?$DO?$DO?$DN?$AA@ 00443d30     LIBCMT:undname.obj
 0002:00004d34       ??_C@_03CDNPDDLA@?$DM?$DM?$DN?$AA@ 00443d34     LIBCMT:undname.obj
 0002:00004d38       ??_C@_02FGJGFEAB@?$CG?$DN?$AA@ 00443d38     LIBCMT:undname.obj
 0002:00004d3c       ??_C@_02DHLNPPGH@?$HM?$DN?$AA@ 00443d3c     LIBCMT:undname.obj
 0002:00004d40       ??_C@_02MHEGNOJ@?$FO?$DN?$AA@ 00443d40     LIBCMT:undname.obj
 0002:00004d44       ??_C@_09IFPLHPGF@?$GAvftable?8?$AA@ 00443d44     LIBCMT:undname.obj
 0002:00004d50       ??_C@_09BLBHBJP@?$GAvbtable?8?$AA@ 00443d50     LIBCMT:undname.obj
 0002:00004d5c       ??_C@_07FEEIOKP@?$GAvcall?8?$AA@ 00443d5c     LIBCMT:undname.obj
 0002:00004d64       ??_C@_08LLFFHHDJ@?$GAtypeof?8?$AA@ 00443d64     LIBCMT:undname.obj
 0002:00004d70       ??_C@_0BF@KDPPACIK@?$GAlocal?5static?5guard?8?$AA@ 00443d70     LIBCMT:undname.obj
 0002:00004d88       ??_C@_08OBABFOLI@?$GAstring?8?$AA@ 00443d88     LIBCMT:undname.obj
 0002:00004d94       ??_C@_0BD@JDLKDPAB@?$GAvbase?5destructor?8?$AA@ 00443d94     LIBCMT:undname.obj
 0002:00004da8       ??_C@_0BN@DEGPLNFK@?$GAvector?5deleting?5destructor?8?$AA@ 00443da8     LIBCMT:undname.obj
 0002:00004dc8       ??_C@_0BO@OBMKPJIG@?$GAdefault?5constructor?5closure?8?$AA@ 00443dc8     LIBCMT:undname.obj
 0002:00004de8       ??_C@_0BN@IMDCHIKM@?$GAscalar?5deleting?5destructor?8?$AA@ 00443de8     LIBCMT:undname.obj
 0002:00004e08       ??_C@_0BO@PFGOCPJJ@?$GAvector?5constructor?5iterator?8?$AA@ 00443e08     LIBCMT:undname.obj
 0002:00004e28       ??_C@_0BN@LFPFMEDL@?$GAvector?5destructor?5iterator?8?$AA@ 00443e28     LIBCMT:undname.obj
 0002:00004e48       ??_C@_0CE@IKBNEHA@?$GAvector?5vbase?5constructor?5iterat@ 00443e48     LIBCMT:undname.obj
 0002:00004e6c       ??_C@_0BL@NILFHHPC@?$GAvirtual?5displacement?5map?8?$AA@ 00443e6c     LIBCMT:undname.obj
 0002:00004e88       ??_C@_0CB@JONCMFFK@?$GAeh?5vector?5constructor?5iterator?8@ 00443e88     LIBCMT:undname.obj
 0002:00004eac       ??_C@_0CA@GCEOPDGL@?$GAeh?5vector?5destructor?5iterator?8?$AA@ 00443eac     LIBCMT:undname.obj
 0002:00004ecc       ??_C@_0CH@OOJPLCPH@?$GAeh?5vector?5vbase?5constructor?5ite@ 00443ecc     LIBCMT:undname.obj
 0002:00004ef4       ??_C@_0BL@LLKPOHJI@?$GAcopy?5constructor?5closure?8?$AA@ 00443ef4     LIBCMT:undname.obj
 0002:00004f10       ??_C@_0BA@KBCDOMBN@?$GAudt?5returning?8?$AA@ 00443f10     LIBCMT:undname.obj
 0002:00004f20       ??_C@_03KLGMFNMG@?$GAEH?$AA@ 00443f20     LIBCMT:undname.obj
 0002:00004f24       ??_C@_05KHLCHHI@?$GARTTI?$AA@ 00443f24     LIBCMT:undname.obj
 0002:00004f2c       ??_C@_0BA@KKLDJDLB@?$GAlocal?5vftable?8?$AA@ 00443f2c     LIBCMT:undname.obj
 0002:00004f3c       ??_C@_0CE@IIHCMGGL@?$GAlocal?5vftable?5constructor?5closu@ 00443f3c     LIBCMT:undname.obj
 0002:00004f60       ??_C@_06FHBGPFGH@?5new?$FL?$FN?$AA@ 00443f60     LIBCMT:undname.obj
 0002:00004f68       ??_C@_09LBNFPBCA@?5delete?$FL?$FN?$AA@ 00443f68     LIBCMT:undname.obj
 0002:00004f74       ??_C@_0P@HJKNJFNN@?$GAomni?5callsig?8?$AA@ 00443f74     LIBCMT:undname.obj
 0002:00004f84       ??_C@_0BL@CNOONJFP@?$GAplacement?5delete?5closure?8?$AA@ 00443f84     LIBCMT:undname.obj
 0002:00004fa0       ??_C@_0BN@CKNJLHMB@?$GAplacement?5delete?$FL?$FN?5closure?8?$AA@ 00443fa0     LIBCMT:undname.obj
 0002:00004fc0       ??_C@_0CG@CFDHKGGD@?$GAmanaged?5vector?5constructor?5iter@ 00443fc0     LIBCMT:undname.obj
 0002:00004fe8       ??_C@_0CF@IMGKMJNO@?$GAmanaged?5vector?5destructor?5itera@ 00443fe8     LIBCMT:undname.obj
 0002:00005010       ??_C@_0CG@HLDDJMAG@?$GAeh?5vector?5copy?5constructor?5iter@ 00444010     LIBCMT:undname.obj
 0002:00005038       ??_C@_0CM@FCBBDIGB@?$GAeh?5vector?5vbase?5copy?5constructo@ 00444038     LIBCMT:undname.obj
 0002:00005064       ??_C@_0BL@CLIPGLGB@?$GAdynamic?5initializer?5for?5?8?$AA@ 00444064     LIBCMT:undname.obj
 0002:00005080       ??_C@_0CB@PDBIFEP@?$GAdynamic?5atexit?5destructor?5for?5?8@ 00444080     LIBCMT:undname.obj
 0002:000050a4       ??_C@_0CD@CGAJBKEJ@?$GAvector?5copy?5constructor?5iterato@ 004440a4     LIBCMT:undname.obj
 0002:000050c8       ??_C@_0CJ@GJELGAMM@?$GAvector?5vbase?5copy?5constructor?5i@ 004440c8     LIBCMT:undname.obj
 0002:000050f4       ??_C@_0CL@FGIJHLCE@?$GAmanaged?5vector?5copy?5constructor@ 004440f4     LIBCMT:undname.obj
 0002:00005120       ??_C@_0BM@PMGGMLDN@?$GAlocal?5static?5thread?5guard?8?$AA@ 00444120     LIBCMT:undname.obj
 0002:0000513c       ??_C@_0BC@DAFEJGAK@?5Type?5Descriptor?8?$AA@ 0044413c     LIBCMT:undname.obj
 0002:00005150       ??_C@_0BM@LDKODKLH@?5Base?5Class?5Descriptor?5at?5?$CI?$AA@ 00444150     LIBCMT:undname.obj
 0002:0000516c       ??_C@_0BD@LGICGFMM@?5Base?5Class?5Array?8?$AA@ 0044416c     LIBCMT:undname.obj
 0002:00005180       ??_C@_0BN@MECKDCOJ@?5Class?5Hierarchy?5Descriptor?8?$AA@ 00444180     LIBCMT:undname.obj
 0002:000051a0       ??_C@_0BK@CFCOFLF@?5Complete?5Object?5Locator?8?$AA@ 004441a0     LIBCMT:undname.obj
 0002:000051bc       ??_C@_1BG@GOEBHBDC@?$AAU?$AAS?$AAE?$AAR?$AA3?$AA2?$AA?4?$AAD?$AAL?$AAL?$AA?$AA@ 004441bc     LIBCMT:crtmboxw.obj
 0002:000051d4       ??_C@_0M@DLDCCGNP@MessageBoxW?$AA@ 004441d4     LIBCMT:crtmboxw.obj
 0002:000051e0       ??_C@_0BA@HNOPNCHB@GetActiveWindow?$AA@ 004441e0     LIBCMT:crtmboxw.obj
 0002:000051f0       ??_C@_0BD@HHGDFDBJ@GetLastActivePopup?$AA@ 004441f0     LIBCMT:crtmboxw.obj
 0002:00005204       ??_C@_0BK@DEKFELLI@GetUserObjectInformationW?$AA@ 00444204     LIBCMT:crtmboxw.obj
 0002:00005220       ??_C@_0BI@DFKBFLJE@GetProcessWindowStation?$AA@ 00444220     LIBCMT:crtmboxw.obj
 0002:00005238       ___newctype                00444238     LIBCMT:ctype.obj
 0002:00005538       __wctype                   00444538     LIBCMT:ctype.obj
 0002:00005740       ___newclmap                00444740     LIBCMT:ctype.obj
 0002:000058c0       ___newcumap                004448c0     LIBCMT:ctype.obj
 0002:00005a40       ??_C@_15PJPFLCCM@?$AAu?$AAk?$AA?$AA@ 00444a40     LIBCMT:getqloc.obj
 0002:00005a48       ___rg_language_count       00444a48     LIBCMT:getqloc.obj
 0002:00005a4c       ___rg_country_count        00444a4c     LIBCMT:getqloc.obj
 0002:00005a50       _LcidToLocaleNameTable     00444a50     LIBCMT:winapinls.obj
 0002:00006170       _LocaleNameToIndexTable    00445170     LIBCMT:winapinls.obj
 0002:00006890       ??_C@_15EMKDOKLE@?$AAa?$AAr?$AA?$AA@ 00445890     LIBCMT:winapinls.obj
 0002:00006898       ??_C@_15KNPADPLH@?$AAb?$AAg?$AA?$AA@ 00445898     LIBCMT:winapinls.obj
 0002:000068a0       ??_C@_15EDMHLDMO@?$AAc?$AAa?$AA?$AA@ 004458a0     LIBCMT:winapinls.obj
 0002:000068a8       ??_C@_1O@BPEAJADD@?$AAz?$AAh?$AA?9?$AAC?$AAH?$AAS?$AA?$AA@ 004458a8     LIBCMT:winapinls.obj
 0002:000068b8       ??_C@_15LJNHCMNK@?$AAc?$AAs?$AA?$AA@ 004458b8     LIBCMT:winapinls.obj
 0002:000068c0       ??_C@_15FOMCIDHG@?$AAd?$AAa?$AA?$AA@ 004458c0     LIBCMT:winapinls.obj
 0002:000068c8       ??_C@_15NBKABECB@?$AAd?$AAe?$AA?$AA@ 004458c8     LIBCMT:winapinls.obj
 0002:000068d0       ??_C@_15GHPEIIAO@?$AAe?$AAl?$AA?$AA@ 004458d0     LIBCMT:winapinls.obj
 0002:000068d8       ??_C@_15MNPNEAIF@?$AAe?$AAn?$AA?$AA@ 004458d8     LIBCMT:winapinls.obj
 0002:000068e0       ??_C@_15GPIOMPMH@?$AAe?$AAs?$AA?$AA@ 004458e0     LIBCMT:winapinls.obj
 0002:000068e8       ??_C@_15NGLOAKJC@?$AAf?$AAi?$AA?$AA@ 004458e8     LIBCMT:winapinls.obj
 0002:000068f0       ??_C@_15FBKGNKAM@?$AAf?$AAr?$AA?$AA@ 004458f0     LIBCMT:winapinls.obj
 0002:000068f8       ??_C@_15KGGCNEFK@?$AAh?$AAe?$AA?$AA@ 004458f8     LIBCMT:winapinls.obj
 0002:00006900       ??_C@_15PGHLIDMF@?$AAh?$AAu?$AA?$AA@ 00445900     LIBCMT:winapinls.obj
 0002:00006908       ??_C@_15BIEMAPLM@?$AAi?$AAs?$AA?$AA@ 00445908     LIBCMT:winapinls.obj
 0002:00006910       ??_C@_15IFJLDHAF@?$AAi?$AAt?$AA?$AA@ 00445910     LIBCMT:winapinls.obj
 0002:00006918       ??_C@_15GEMIOCAG@?$AAj?$AAa?$AA?$AA@ 00445918     LIBCMT:winapinls.obj
 0002:00006920       ??_C@_15EPELEGJA@?$AAk?$AAo?$AA?$AA@ 00445920     LIBCMT:winapinls.obj
 0002:00006928       ??_C@_15NDDHIMN@?$AAn?$AAl?$AA?$AA@ 00445928     LIBCMT:winapinls.obj
 0002:00006930       ??_C@_15BPIGNHCD@?$AAn?$AAo?$AA?$AA@ 00445930     LIBCMT:winapinls.obj
 0002:00006938       ??_C@_15DEOPBLCG@?$AAp?$AAl?$AA?$AA@ 00445938     LIBCMT:winapinls.obj
 0002:00006940       ??_C@_15KBECGEFG@?$AAp?$AAt?$AA?$AA@ 00445940     LIBCMT:winapinls.obj
 0002:00006948       ??_C@_15GLJCBFMD@?$AAr?$AAo?$AA?$AA@ 00445948     LIBCMT:winapinls.obj
 0002:00006950       ??_C@_15FEDGKCDI@?$AAr?$AAu?$AA?$AA@ 00445950     LIBCMT:winapinls.obj
 0002:00006958       ??_C@_15GLKMLLHM@?$AAh?$AAr?$AA?$AA@ 00445958     LIBCMT:winapinls.obj
 0002:00006960       ??_C@_15CPKMFBDB@?$AAs?$AAk?$AA?$AA@ 00445960     LIBCMT:winapinls.obj
 0002:00006968       ??_C@_15BAAIOGMK@?$AAs?$AAq?$AA?$AA@ 00445968     LIBCMT:winapinls.obj
 0002:00006970       ??_C@_15INNPNOHD@?$AAs?$AAv?$AA?$AA@ 00445970     LIBCMT:winapinls.obj
 0002:00006978       ??_C@_15CABMMOGH@?$AAt?$AAh?$AA?$AA@ 00445978     LIBCMT:winapinls.obj
 0002:00006980       ??_C@_15BPLIHJJM@?$AAt?$AAr?$AA?$AA@ 00445980     LIBCMT:winapinls.obj
 0002:00006988       ??_C@_15NEOEKKDJ@?$AAu?$AAr?$AA?$AA@ 00445988     LIBCMT:winapinls.obj
 0002:00006990       ??_C@_15NFICGAJK@?$AAi?$AAd?$AA?$AA@ 00445990     LIBCMT:winapinls.obj
 0002:00006998       ??_C@_15HPJPHDM@?$AAb?$AAe?$AA?$AA@ 00445998     LIBCMT:winapinls.obj
 0002:000069a0       ??_C@_15LCHLGJII@?$AAs?$AAl?$AA?$AA@ 004459a0     LIBCMT:winapinls.obj
 0002:000069a8       ??_C@_15PCFJPHHO@?$AAe?$AAt?$AA?$AA@ 004459a8     LIBCMT:winapinls.obj
 0002:000069b0       ??_C@_15HPFPGODN@?$AAl?$AAv?$AA?$AA@ 004459b0     LIBCMT:winapinls.obj
 0002:000069b8       ??_C@_15NFFGKGLG@?$AAl?$AAt?$AA?$AA@ 004459b8     LIBCMT:winapinls.obj
 0002:000069c0       ??_C@_15BDAKCCHN@?$AAf?$AAa?$AA?$AA@ 004459c0     LIBCMT:winapinls.obj
 0002:000069c8       ??_C@_15NFGIAIAJ@?$AAv?$AAi?$AA?$AA@ 004459c8     LIBCMT:winapinls.obj
 0002:000069d0       ??_C@_15LMKNDMHN@?$AAh?$AAy?$AA?$AA@ 004459d0     LIBCMT:winapinls.obj
 0002:000069d8       ??_C@_15IJBHMCFL@?$AAa?$AAz?$AA?$AA@ 004459d8     LIBCMT:winapinls.obj
 0002:000069e0       ??_C@_15EKOFJABL@?$AAe?$AAu?$AA?$AA@ 004459e0     LIBCMT:winapinls.obj
 0002:000069e8       ??_C@_15BGHADCNK@?$AAm?$AAk?$AA?$AA@ 004459e8     LIBCMT:winapinls.obj
 0002:000069f0       ??_C@_15JDNICKHM@?$AAa?$AAf?$AA?$AA@ 004459f0     LIBCMT:winapinls.obj
 0002:000069f8       ??_C@_15KPJEDBKD@?$AAk?$AAa?$AA?$AA@ 004459f8     LIBCMT:winapinls.obj
 0002:00006a00       ??_C@_15PDNFFFEO@?$AAf?$AAo?$AA?$AA@ 00445a00     LIBCMT:winapinls.obj
 0002:00006a08       ??_C@_15OMLEGLOC@?$AAh?$AAi?$AA?$AA@ 00445a08     LIBCMT:winapinls.obj
 0002:00006a10       ??_C@_15IDNNENKK@?$AAm?$AAs?$AA?$AA@ 00445a10     LIBCMT:winapinls.obj
 0002:00006a18       ??_C@_15MACJNBMH@?$AAk?$AAk?$AA?$AA@ 00445a18     LIBCMT:winapinls.obj
 0002:00006a20       ??_C@_15DKDJEOND@?$AAk?$AAy?$AA?$AA@ 00445a20     LIBCMT:winapinls.obj
 0002:00006a28       ??_C@_15DFGDLJBG@?$AAs?$AAw?$AA?$AA@ 00445a28     LIBCMT:winapinls.obj
 0002:00006a30       ??_C@_15BBFAICNG@?$AAu?$AAz?$AA?$AA@ 00445a30     LIBCMT:winapinls.obj
 0002:00006a38       ??_C@_15DKNDCGEA@?$AAt?$AAt?$AA?$AA@ 00445a38     LIBCMT:winapinls.obj
 0002:00006a40       ??_C@_15MGIFMDPL@?$AAp?$AAa?$AA?$AA@ 00445a40     LIBCMT:winapinls.obj
 0002:00006a48       ??_C@_15HCNDBBA@?$AAg?$AAu?$AA?$AA@ 00445a48     LIBCMT:winapinls.obj
 0002:00006a50       ??_C@_15FNBEIBON@?$AAt?$AAa?$AA?$AA@ 00445a50     LIBCMT:winapinls.obj
 0002:00006a58       ??_C@_15NCHGBGLK@?$AAt?$AAe?$AA?$AA@ 00445a58     LIBCMT:winapinls.obj
 0002:00006a60       ??_C@_15PHPHCBPF@?$AAk?$AAn?$AA?$AA@ 00445a60     LIBCMT:winapinls.obj
 0002:00006a68       ??_C@_15DLGBCKMP@?$AAm?$AAr?$AA?$AA@ 00445a68     LIBCMT:winapinls.obj
 0002:00006a70       ??_C@_15EABBLBFF@?$AAs?$AAa?$AA?$AA@ 00445a70     LIBCMT:winapinls.obj
 0002:00006a78       ??_C@_15CBKOMCOI@?$AAm?$AAn?$AA?$AA@ 00445a78     LIBCMT:winapinls.obj
 0002:00006a80       ??_C@_15CKDMCJAF@?$AAg?$AAl?$AA?$AA@ 00445a80     LIBCMT:winapinls.obj
 0002:00006a88       ??_C@_17CNJFBPG@?$AAk?$AAo?$AAk?$AA?$AA@ 00445a88     LIBCMT:winapinls.obj
 0002:00006a90       ??_C@_17FFBJICPL@?$AAs?$AAy?$AAr?$AA?$AA@ 00445a90     LIBCMT:winapinls.obj
 0002:00006a98       ??_C@_17KPNDCPAF@?$AAd?$AAi?$AAv?$AA?$AA@ 00445a98     LIBCMT:winapinls.obj
 0002:00006aa0       ??_C@_11LOCGONAA@?$AA?$AA@ 00445aa0     LIBCMT:winapinls.obj
 0002:00006aa4       ??_C@_1M@OKAHONE@?$AAa?$AAr?$AA?9?$AAS?$AAA?$AA?$AA@ 00445aa4     LIBCMT:winapinls.obj
 0002:00006ab0       ??_C@_1M@FFFIGIGK@?$AAb?$AAg?$AA?9?$AAB?$AAG?$AA?$AA@ 00445ab0     LIBCMT:winapinls.obj
 0002:00006abc       ??_C@_1M@BJNKEDC@?$AAc?$AAa?$AA?9?$AAE?$AAS?$AA?$AA@ 00445abc     LIBCMT:winapinls.obj
 0002:00006ac8       ??_C@_1M@IJJHFJHA@?$AAc?$AAs?$AA?9?$AAC?$AAZ?$AA?$AA@ 00445ac8     LIBCMT:winapinls.obj
 0002:00006ad4       ??_C@_1M@CLPEOBGI@?$AAd?$AAa?$AA?9?$AAD?$AAK?$AA?$AA@ 00445ad4     LIBCMT:winapinls.obj
 0002:00006ae0       ??_C@_1M@MCMADGCB@?$AAd?$AAe?$AA?9?$AAD?$AAE?$AA?$AA@ 00445ae0     LIBCMT:winapinls.obj
 0002:00006aec       ??_C@_1M@OOCKEMAM@?$AAe?$AAl?$AA?9?$AAG?$AAR?$AA?$AA@ 00445aec     LIBCMT:winapinls.obj
 0002:00006af8       ??_C@_1M@DDNJFGID@?$AAf?$AAi?$AA?9?$AAF?$AAI?$AA?$AA@ 00445af8     LIBCMT:winapinls.obj
 0002:00006b04       ??_C@_1M@GLIPPMAC@?$AAf?$AAr?$AA?9?$AAF?$AAR?$AA?$AA@ 00445b04     LIBCMT:winapinls.obj
 0002:00006b10       ??_C@_1M@GFMCHPE@?$AAh?$AAe?$AA?9?$AAI?$AAL?$AA?$AA@ 00445b10     LIBCMT:winapinls.obj
 0002:00006b1c       ??_C@_1M@MHLPGNKM@?$AAh?$AAu?$AA?9?$AAH?$AAU?$AA?$AA@ 00445b1c     LIBCMT:winapinls.obj
 0002:00006b28       ??_C@_1M@LPDDNNPN@?$AAi?$AAs?$AA?9?$AAI?$AAS?$AA?$AA@ 00445b28     LIBCMT:winapinls.obj
 0002:00006b34       ??_C@_1M@MADIPODN@?$AAi?$AAt?$AA?9?$AAI?$AAT?$AA?$AA@ 00445b34     LIBCMT:winapinls.obj
 0002:00006b40       ??_C@_1M@IHBJJGG@?$AAn?$AAl?$AA?9?$AAN?$AAL?$AA?$AA@ 00445b40     LIBCMT:winapinls.obj
 0002:00006b4c       ??_C@_1M@EANAGDL@?$AAn?$AAb?$AA?9?$AAN?$AAO?$AA?$AA@ 00445b4c     LIBCMT:winapinls.obj
 0002:00006b58       ??_C@_1M@NEIEMEGP@?$AAp?$AAl?$AA?9?$AAP?$AAL?$AA?$AA@ 00445b58     LIBCMT:winapinls.obj
 0002:00006b64       ??_C@_1M@BOCFIGEP@?$AAp?$AAt?$AA?9?$AAB?$AAR?$AA?$AA@ 00445b64     LIBCMT:winapinls.obj
 0002:00006b70       ??_C@_1M@IMPFOPBG@?$AAr?$AAo?$AA?9?$AAR?$AAO?$AA?$AA@ 00445b70     LIBCMT:winapinls.obj
 0002:00006b7c       ??_C@_1M@IDNNEJMM@?$AAr?$AAu?$AA?9?$AAR?$AAU?$AA?$AA@ 00445b7c     LIBCMT:winapinls.obj
 0002:00006b88       ??_C@_1M@LILEEOGM@?$AAh?$AAr?$AA?9?$AAH?$AAR?$AA?$AA@ 00445b88     LIBCMT:winapinls.obj
 0002:00006b94       ??_C@_1M@FKIFEHPB@?$AAs?$AAk?$AA?9?$AAS?$AAK?$AA?$AA@ 00445b94     LIBCMT:winapinls.obj
 0002:00006ba0       ??_C@_1M@LJMAMNPJ@?$AAs?$AAq?$AA?9?$AAA?$AAL?$AA?$AA@ 00445ba0     LIBCMT:winapinls.obj
 0002:00006bac       ??_C@_1M@GIAKDKJK@?$AAs?$AAv?$AA?9?$AAS?$AAE?$AA?$AA@ 00445bac     LIBCMT:winapinls.obj
 0002:00006bb8       ??_C@_1M@MKJKIKCL@?$AAt?$AAh?$AA?9?$AAT?$AAH?$AA?$AA@ 00445bb8     LIBCMT:winapinls.obj
 0002:00006bc4       ??_C@_1M@MFLCCMPB@?$AAt?$AAr?$AA?9?$AAT?$AAR?$AA?$AA@ 00445bc4     LIBCMT:winapinls.obj
 0002:00006bd0       ??_C@_1M@OIJHDKJN@?$AAu?$AAr?$AA?9?$AAP?$AAK?$AA?$AA@ 00445bd0     LIBCMT:winapinls.obj
 0002:00006bdc       ??_C@_1M@LHIPCIEK@?$AAi?$AAd?$AA?9?$AAI?$AAD?$AA?$AA@ 00445bdc     LIBCMT:winapinls.obj
 0002:00006be8       ??_C@_1M@MFMOBGI@?$AAu?$AAk?$AA?9?$AAU?$AAA?$AA?$AA@ 00445be8     LIBCMT:winapinls.obj
 0002:00006bf4       ??_C@_1M@OBGLJIPL@?$AAb?$AAe?$AA?9?$AAB?$AAY?$AA?$AA@ 00445bf4     LIBCMT:winapinls.obj
 0002:00006c00       ??_C@_1M@BCFAJEAD@?$AAs?$AAl?$AA?9?$AAS?$AAI?$AA?$AA@ 00445c00     LIBCMT:winapinls.obj
 0002:00006c0c       ??_C@_1M@FKFFEDDN@?$AAe?$AAt?$AA?9?$AAE?$AAE?$AA?$AA@ 00445c0c     LIBCMT:winapinls.obj
 0002:00006c18       ??_C@_1M@KGKKAACI@?$AAl?$AAv?$AA?9?$AAL?$AAV?$AA?$AA@ 00445c18     LIBCMT:winapinls.obj
 0002:00006c24       ??_C@_1M@IFGBIJO@?$AAl?$AAt?$AA?9?$AAL?$AAT?$AA?$AA@ 00445c24     LIBCMT:winapinls.obj
 0002:00006c30       ??_C@_1M@FGEAHEDM@?$AAf?$AAa?$AA?9?$AAI?$AAR?$AA?$AA@ 00445c30     LIBCMT:winapinls.obj
 0002:00006c3c       ??_C@_1M@KBMAIBFN@?$AAv?$AAi?$AA?9?$AAV?$AAN?$AA?$AA@ 00445c3c     LIBCMT:winapinls.obj
 0002:00006c48       ??_C@_1M@GPCBKDJK@?$AAh?$AAy?$AA?9?$AAA?$AAM?$AA?$AA@ 00445c48     LIBCMT:winapinls.obj
 0002:00006c54       ??_C@_1BG@BECMDDJB@?$AAa?$AAz?$AA?9?$AAA?$AAZ?$AA?9?$AAL?$AAa?$AAt?$AAn?$AA?$AA@ 00445c54     LIBCMT:winapinls.obj
 0002:00006c6c       ??_C@_1M@MAOFCAEA@?$AAe?$AAu?$AA?9?$AAE?$AAS?$AA?$AA@ 00445c6c     LIBCMT:winapinls.obj
 0002:00006c78       ??_C@_1M@IGHABKPI@?$AAm?$AAk?$AA?9?$AAM?$AAK?$AA?$AA@ 00445c78     LIBCMT:winapinls.obj
 0002:00006c84       ??_C@_1M@IAIGNEJG@?$AAt?$AAn?$AA?9?$AAZ?$AAA?$AA?$AA@ 00445c84     LIBCMT:winapinls.obj
 0002:00006c90       ??_C@_1M@IIJCOJFA@?$AAx?$AAh?$AA?9?$AAZ?$AAA?$AA?$AA@ 00445c90     LIBCMT:winapinls.obj
 0002:00006c9c       ??_C@_1M@LGPJHNJH@?$AAz?$AAu?$AA?9?$AAZ?$AAA?$AA?$AA@ 00445c9c     LIBCMT:winapinls.obj
 0002:00006ca8       ??_C@_1M@HOKAOIO@?$AAa?$AAf?$AA?9?$AAZ?$AAA?$AA?$AA@ 00445ca8     LIBCMT:winapinls.obj
 0002:00006cb4       ??_C@_1M@DPCLHLIE@?$AAk?$AAa?$AA?9?$AAG?$AAE?$AA?$AA@ 00445cb4     LIBCMT:winapinls.obj
 0002:00006cc0       ??_C@_1M@BLKMHJBI@?$AAf?$AAo?$AA?9?$AAF?$AAO?$AA?$AA@ 00445cc0     LIBCMT:winapinls.obj
 0002:00006ccc       ??_C@_1M@LGGJAPPB@?$AAh?$AAi?$AA?9?$AAI?$AAN?$AA?$AA@ 00445ccc     LIBCMT:winapinls.obj
 0002:00006cd8       ??_C@_1M@FIKPIHFE@?$AAm?$AAt?$AA?9?$AAM?$AAT?$AA?$AA@ 00445cd8     LIBCMT:winapinls.obj
 0002:00006ce4       ??_C@_1M@HEGGPBFA@?$AAs?$AAe?$AA?9?$AAN?$AAO?$AA?$AA@ 00445ce4     LIBCMT:winapinls.obj
 0002:00006cf0       ??_C@_1M@EIBJEEPA@?$AAm?$AAs?$AA?9?$AAM?$AAY?$AA?$AA@ 00445cf0     LIBCMT:winapinls.obj
 0002:00006cfc       ??_C@_1M@FHLBGMPP@?$AAk?$AAk?$AA?9?$AAK?$AAZ?$AA?$AA@ 00445cfc     LIBCMT:winapinls.obj
 0002:00006d08       ??_C@_1M@NGJJLCGI@?$AAk?$AAy?$AA?9?$AAK?$AAG?$AA?$AA@ 00445d08     LIBCMT:winapinls.obj
 0002:00006d14       ??_C@_1M@GIENNBFC@?$AAs?$AAw?$AA?9?$AAK?$AAE?$AA?$AA@ 00445d14     LIBCMT:winapinls.obj
 0002:00006d20       ??_C@_1BG@NDGMJIMJ@?$AAu?$AAz?$AA?9?$AAU?$AAZ?$AA?9?$AAL?$AAa?$AAt?$AAn?$AA?$AA@ 00445d20     LIBCMT:winapinls.obj
 0002:00006d38       ??_C@_1M@IDCCIHBC@?$AAt?$AAt?$AA?9?$AAR?$AAU?$AA?$AA@ 00445d38     LIBCMT:winapinls.obj
 0002:00006d44       ??_C@_1M@LOICPMOJ@?$AAb?$AAn?$AA?9?$AAI?$AAN?$AA?$AA@ 00445d44     LIBCMT:winapinls.obj
 0002:00006d50       ??_C@_1M@KPKKNEAH@?$AAp?$AAa?$AA?9?$AAI?$AAN?$AA?$AA@ 00445d50     LIBCMT:winapinls.obj
 0002:00006d5c       ??_C@_1M@PJGPPBOG@?$AAg?$AAu?$AA?9?$AAI?$AAN?$AA?$AA@ 00445d5c     LIBCMT:winapinls.obj
 0002:00006d68       ??_C@_1M@KMKMOPHI@?$AAt?$AAa?$AA?9?$AAI?$AAN?$AA?$AA@ 00445d68     LIBCMT:winapinls.obj
 0002:00006d74       ??_C@_1M@KFEHEPAC@?$AAt?$AAe?$AA?9?$AAI?$AAN?$AA?$AA@ 00445d74     LIBCMT:winapinls.obj
 0002:00006d80       ??_C@_1M@CDCLMGHI@?$AAk?$AAn?$AA?9?$AAI?$AAN?$AA?$AA@ 00445d80     LIBCMT:winapinls.obj
 0002:00006d8c       ??_C@_1M@MIODLDKF@?$AAm?$AAl?$AA?9?$AAI?$AAN?$AA?$AA@ 00445d8c     LIBCMT:winapinls.obj
 0002:00006d98       ??_C@_1M@PBIEACPO@?$AAm?$AAr?$AA?9?$AAI?$AAN?$AA?$AA@ 00445d98     LIBCMT:winapinls.obj
 0002:00006da4       ??_C@_1M@NIDEAGPH@?$AAs?$AAa?$AA?9?$AAI?$AAN?$AA?$AA@ 00445da4     LIBCMT:winapinls.obj
 0002:00006db0       ??_C@_1M@FHIHCBIO@?$AAm?$AAn?$AA?9?$AAM?$AAN?$AA?$AA@ 00445db0     LIBCMT:winapinls.obj
 0002:00006dbc       ??_C@_1M@JAIJPENP@?$AAc?$AAy?$AA?9?$AAG?$AAB?$AA?$AA@ 00445dbc     LIBCMT:winapinls.obj
 0002:00006dc8       ??_C@_1M@PHGFBEPN@?$AAg?$AAl?$AA?9?$AAE?$AAS?$AA?$AA@ 00445dc8     LIBCMT:winapinls.obj
 0002:00006dd4       ??_C@_1O@KPIPDNCP@?$AAk?$AAo?$AAk?$AA?9?$AAI?$AAN?$AA?$AA@ 00445dd4     LIBCMT:winapinls.obj
 0002:00006de4       ??_C@_1O@KNHJLDJA@?$AAs?$AAy?$AAr?$AA?9?$AAS?$AAY?$AA?$AA@ 00445de4     LIBCMT:winapinls.obj
 0002:00006df4       ??_C@_1O@MKEKBLAH@?$AAd?$AAi?$AAv?$AA?9?$AAM?$AAV?$AA?$AA@ 00445df4     LIBCMT:winapinls.obj
 0002:00006e04       ??_C@_1O@OHDCKDDF@?$AAq?$AAu?$AAz?$AA?9?$AAB?$AAO?$AA?$AA@ 00445e04     LIBCMT:winapinls.obj
 0002:00006e14       ??_C@_1M@LEPJNLFD@?$AAn?$AAs?$AA?9?$AAZ?$AAA?$AA?$AA@ 00445e14     LIBCMT:winapinls.obj
 0002:00006e20       ??_C@_1M@OMLEIIJB@?$AAm?$AAi?$AA?9?$AAN?$AAZ?$AA?$AA@ 00445e20     LIBCMT:winapinls.obj
 0002:00006e2c       ??_C@_1M@PMPEAILG@?$AAa?$AAr?$AA?9?$AAI?$AAQ?$AA?$AA@ 00445e2c     LIBCMT:winapinls.obj
 0002:00006e38       ??_C@_1M@CNKPNOEE@?$AAd?$AAe?$AA?9?$AAC?$AAH?$AA?$AA@ 00445e38     LIBCMT:winapinls.obj
 0002:00006e44       ??_C@_1M@LKMGMLKO@?$AAe?$AAn?$AA?9?$AAG?$AAB?$AA?$AA@ 00445e44     LIBCMT:winapinls.obj
 0002:00006e50       ??_C@_1M@PGKJFFGL@?$AAe?$AAs?$AA?9?$AAM?$AAX?$AA?$AA@ 00445e50     LIBCMT:winapinls.obj
 0002:00006e5c       ??_C@_1M@DNNANBDC@?$AAf?$AAr?$AA?9?$AAB?$AAE?$AA?$AA@ 00445e5c     LIBCMT:winapinls.obj
 0002:00006e68       ??_C@_1M@HLGMDFHM@?$AAi?$AAt?$AA?9?$AAC?$AAH?$AA?$AA@ 00445e68     LIBCMT:winapinls.obj
 0002:00006e74       ??_C@_1M@CLLBGJH@?$AAn?$AAl?$AA?9?$AAB?$AAE?$AA?$AA@ 00445e74     LIBCMT:winapinls.obj
 0002:00006e80       ??_C@_1M@BODBOGLF@?$AAn?$AAn?$AA?9?$AAN?$AAO?$AA?$AA@ 00445e80     LIBCMT:winapinls.obj
 0002:00006e8c       ??_C@_1M@HFFAHKAD@?$AAp?$AAt?$AA?9?$AAP?$AAT?$AA?$AA@ 00445e8c     LIBCMT:winapinls.obj
 0002:00006e98       ??_C@_1BG@LNOAKHIE@?$AAs?$AAr?$AA?9?$AAS?$AAP?$AA?9?$AAL?$AAa?$AAt?$AAn?$AA?$AA@ 00445e98     LIBCMT:winapinls.obj
 0002:00006eb0       ??_C@_1M@HBMHBGAK@?$AAs?$AAv?$AA?9?$AAF?$AAI?$AA?$AA@ 00445eb0     LIBCMT:winapinls.obj
 0002:00006ebc       ??_C@_1BG@DGCJGJBE@?$AAa?$AAz?$AA?9?$AAA?$AAZ?$AA?9?$AAC?$AAy?$AAr?$AAl?$AA?$AA@ 00445ebc     LIBCMT:winapinls.obj
 0002:00006ed4       ??_C@_1M@KEJDAAHB@?$AAs?$AAe?$AA?9?$AAS?$AAE?$AA?$AA@ 00445ed4     LIBCMT:winapinls.obj
 0002:00006ee0       ??_C@_1M@HEIBJJAD@?$AAm?$AAs?$AA?9?$AAB?$AAN?$AA?$AA@ 00445ee0     LIBCMT:winapinls.obj
 0002:00006eec       ??_C@_1BG@PBGJMCEM@?$AAu?$AAz?$AA?9?$AAU?$AAZ?$AA?9?$AAC?$AAy?$AAr?$AAl?$AA?$AA@ 00445eec     LIBCMT:winapinls.obj
 0002:00006f04       ??_C@_1O@LAOBCMDF@?$AAq?$AAu?$AAz?$AA?9?$AAE?$AAC?$AA?$AA@ 00445f04     LIBCMT:winapinls.obj
 0002:00006f14       ??_C@_1M@POEEMAIO@?$AAa?$AAr?$AA?9?$AAE?$AAG?$AA?$AA@ 00445f14     LIBCMT:winapinls.obj
 0002:00006f20       ??_C@_1M@EFAKDEDL@?$AAz?$AAh?$AA?9?$AAH?$AAK?$AA?$AA@ 00445f20     LIBCMT:winapinls.obj
 0002:00006f2c       ??_C@_1M@HKKIJHGI@?$AAd?$AAe?$AA?9?$AAA?$AAT?$AA?$AA@ 00445f2c     LIBCMT:winapinls.obj
 0002:00006f38       ??_C@_1M@KBFBEHJF@?$AAe?$AAn?$AA?9?$AAA?$AAU?$AA?$AA@ 00445f38     LIBCMT:winapinls.obj
 0002:00006f44       ??_C@_1M@MNPLFAAH@?$AAe?$AAs?$AA?9?$AAE?$AAS?$AA?$AA@ 00445f44     LIBCMT:winapinls.obj
 0002:00006f50       ??_C@_1M@HJOOJFMA@?$AAf?$AAr?$AA?9?$AAC?$AAA?$AA?$AA@ 00445f50     LIBCMT:winapinls.obj
 0002:00006f5c       ??_C@_1BG@JPOFPNAB@?$AAs?$AAr?$AA?9?$AAS?$AAP?$AA?9?$AAC?$AAy?$AAr?$AAl?$AA?$AA@ 00445f5c     LIBCMT:winapinls.obj
 0002:00006f74       ??_C@_1M@LNFOCMOB@?$AAs?$AAe?$AA?9?$AAF?$AAI?$AA?$AA@ 00445f74     LIBCMT:winapinls.obj
 0002:00006f80       ??_C@_1O@MGJBOAMB@?$AAq?$AAu?$AAz?$AA?9?$AAP?$AAE?$AA?$AA@ 00445f80     LIBCMT:winapinls.obj
 0002:00006f90       ??_C@_1M@GJINLBOK@?$AAa?$AAr?$AA?9?$AAL?$AAY?$AA?$AA@ 00445f90     LIBCMT:winapinls.obj
 0002:00006f9c       ??_C@_1M@GGMNHJNL@?$AAz?$AAh?$AA?9?$AAS?$AAG?$AA?$AA@ 00445f9c     LIBCMT:winapinls.obj
 0002:00006fa8       ??_C@_1M@HOIKODND@?$AAd?$AAe?$AA?9?$AAL?$AAU?$AA?$AA@ 00445fa8     LIBCMT:winapinls.obj
 0002:00006fb4       ??_C@_1M@DDOCCGFG@?$AAe?$AAn?$AA?9?$AAC?$AAA?$AA?$AA@ 00445fb4     LIBCMT:winapinls.obj
 0002:00006fc0       ??_C@_1M@BNOEMJLF@?$AAe?$AAs?$AA?9?$AAG?$AAT?$AA?$AA@ 00445fc0     LIBCMT:winapinls.obj
 0002:00006fcc       ??_C@_1M@EOGNKEK@?$AAf?$AAr?$AA?9?$AAC?$AAH?$AA?$AA@ 00445fcc     LIBCMT:winapinls.obj
 0002:00006fd8       ??_C@_1M@FLIDJFHL@?$AAh?$AAr?$AA?9?$AAB?$AAA?$AA?$AA@ 00445fd8     LIBCMT:winapinls.obj
 0002:00006fe4       ??_C@_1O@FMCELNAJ@?$AAs?$AAm?$AAj?$AA?9?$AAN?$AAO?$AA?$AA@ 00445fe4     LIBCMT:winapinls.obj
 0002:00006ff4       ??_C@_1M@JHGLJMGJ@?$AAa?$AAr?$AA?9?$AAD?$AAZ?$AA?$AA@ 00445ff4     LIBCMT:winapinls.obj
 0002:00007000       ??_C@_1M@JKKFDCNP@?$AAz?$AAh?$AA?9?$AAM?$AAO?$AA?$AA@ 00446000     LIBCMT:winapinls.obj
 0002:0000700c       ??_C@_1M@GEEFALPE@?$AAd?$AAe?$AA?9?$AAL?$AAI?$AA?$AA@ 0044600c     LIBCMT:winapinls.obj
 0002:00007018       ??_C@_1M@IGEOFBG@?$AAe?$AAn?$AA?9?$AAN?$AAZ?$AA?$AA@ 00446018     LIBCMT:winapinls.obj
 0002:00007024       ??_C@_1M@KDBONEHP@?$AAe?$AAs?$AA?9?$AAC?$AAR?$AA?$AA@ 00446024     LIBCMT:winapinls.obj
 0002:00007030       ??_C@_1M@FHMDOHNN@?$AAf?$AAr?$AA?9?$AAL?$AAU?$AA?$AA@ 00446030     LIBCMT:winapinls.obj
 0002:0000703c       ??_C@_1BG@NFKKMAFG@?$AAb?$AAs?$AA?9?$AAB?$AAA?$AA?9?$AAL?$AAa?$AAt?$AAn?$AA?$AA@ 0044603c     LIBCMT:winapinls.obj
 0002:00007054       ??_C@_1O@IMNBEMCI@?$AAs?$AAm?$AAj?$AA?9?$AAS?$AAE?$AA?$AA@ 00446054     LIBCMT:winapinls.obj
 0002:00007064       ??_C@_1M@DHHMBNDP@?$AAa?$AAr?$AA?9?$AAM?$AAA?$AA?$AA@ 00446064     LIBCMT:winapinls.obj
 0002:00007070       ??_C@_1M@BNBLJCGH@?$AAe?$AAn?$AA?9?$AAI?$AAE?$AA?$AA@ 00446070     LIBCMT:winapinls.obj
 0002:0000707c       ??_C@_1M@GEPAFMDL@?$AAe?$AAs?$AA?9?$AAP?$AAA?$AA?$AA@ 0044607c     LIBCMT:winapinls.obj
 0002:00007088       ??_C@_1M@OJONDMDL@?$AAf?$AAr?$AA?9?$AAM?$AAC?$AA?$AA@ 00446088     LIBCMT:winapinls.obj
 0002:00007094       ??_C@_1BG@OBCNFJB@?$AAs?$AAr?$AA?9?$AAB?$AAA?$AA?9?$AAL?$AAa?$AAt?$AAn?$AA?$AA@ 00446094     LIBCMT:winapinls.obj
 0002:000070ac       ??_C@_1O@KEMEEGPO@?$AAs?$AAm?$AAa?$AA?9?$AAN?$AAO?$AA?$AA@ 004460ac     LIBCMT:winapinls.obj
 0002:000070bc       ??_C@_1M@ELMGFODK@?$AAa?$AAr?$AA?9?$AAT?$AAN?$AA?$AA@ 004460bc     LIBCMT:winapinls.obj
 0002:000070c8       ??_C@_1M@BHDLHFAF@?$AAe?$AAn?$AA?9?$AAZ?$AAA?$AA?$AA@ 004460c8     LIBCMT:winapinls.obj
 0002:000070d4       ??_C@_1M@BMGIGLIF@?$AAe?$AAs?$AA?9?$AAD?$AAO?$AA?$AA@ 004460d4     LIBCMT:winapinls.obj
 0002:000070e0       ??_C@_1BG@CMBHIPBE@?$AAs?$AAr?$AA?9?$AAB?$AAA?$AA?9?$AAC?$AAy?$AAr?$AAl?$AA?$AA@ 004460e0     LIBCMT:winapinls.obj
 0002:000070f8       ??_C@_1O@HEDBLHNP@?$AAs?$AAm?$AAa?$AA?9?$AAS?$AAE?$AA?$AA@ 004460f8     LIBCMT:winapinls.obj
 0002:00007108       ??_C@_1M@DAGCADIM@?$AAa?$AAr?$AA?9?$AAO?$AAM?$AA?$AA@ 00446108     LIBCMT:winapinls.obj
 0002:00007114       ??_C@_1M@FODLMICG@?$AAe?$AAn?$AA?9?$AAJ?$AAM?$AA?$AA@ 00446114     LIBCMT:winapinls.obj
 0002:00007120       ??_C@_1M@DNMLCIHB@?$AAe?$AAs?$AA?9?$AAV?$AAE?$AA?$AA@ 00446120     LIBCMT:winapinls.obj
 0002:0000712c       ??_C@_1O@EOKHMKJK@?$AAs?$AAm?$AAs?$AA?9?$AAF?$AAI?$AA?$AA@ 0044612c     LIBCMT:winapinls.obj
 0002:0000713c       ??_C@_1M@CAFJMKOF@?$AAa?$AAr?$AA?9?$AAY?$AAE?$AA?$AA@ 0044613c     LIBCMT:winapinls.obj
 0002:00007148       ??_C@_1M@CBFHIJLI@?$AAe?$AAn?$AA?9?$AAC?$AAB?$AA?$AA@ 00446148     LIBCMT:winapinls.obj
 0002:00007154       ??_C@_1M@BGNFLDN@?$AAe?$AAs?$AA?9?$AAC?$AAO?$AA?$AA@ 00446154     LIBCMT:winapinls.obj
 0002:00007160       ??_C@_1O@JMPHMAMC@?$AAs?$AAm?$AAn?$AA?9?$AAF?$AAI?$AA?$AA@ 00446160     LIBCMT:winapinls.obj
 0002:00007170       ??_C@_1M@JLANABKE@?$AAa?$AAr?$AA?9?$AAS?$AAY?$AA?$AA@ 00446170     LIBCMT:winapinls.obj
 0002:0000717c       ??_C@_1M@HPKGCFGN@?$AAe?$AAn?$AA?9?$AAB?$AAZ?$AA?$AA@ 0044617c     LIBCMT:winapinls.obj
 0002:00007188       ??_C@_1M@OLJCMLGM@?$AAe?$AAs?$AA?9?$AAP?$AAE?$AA?$AA@ 00446188     LIBCMT:winapinls.obj
 0002:00007194       ??_C@_1M@MKKGFKLE@?$AAa?$AAr?$AA?9?$AAJ?$AAO?$AA?$AA@ 00446194     LIBCMT:winapinls.obj
 0002:000071a0       ??_C@_1M@EKPGLDNI@?$AAe?$AAn?$AA?9?$AAT?$AAT?$AA?$AA@ 004461a0     LIBCMT:winapinls.obj
 0002:000071ac       ??_C@_1M@OONGHFHE@?$AAe?$AAs?$AA?9?$AAA?$AAR?$AA?$AA@ 004461ac     LIBCMT:winapinls.obj
 0002:000071b8       ??_C@_1M@OOJFGBHE@?$AAa?$AAr?$AA?9?$AAL?$AAB?$AA?$AA@ 004461b8     LIBCMT:winapinls.obj
 0002:000071c4       ??_C@_1M@GCEJHNEG@?$AAe?$AAn?$AA?9?$AAZ?$AAW?$AA?$AA@ 004461c4     LIBCMT:winapinls.obj
 0002:000071d0       ??_C@_1M@JNOCAHJI@?$AAe?$AAs?$AA?9?$AAE?$AAC?$AA?$AA@ 004461d0     LIBCMT:winapinls.obj
 0002:000071dc       ??_C@_1M@JEFHPGGB@?$AAa?$AAr?$AA?9?$AAK?$AAW?$AA?$AA@ 004461dc     LIBCMT:winapinls.obj
 0002:000071e8       ??_C@_1M@MLKIBJOJ@?$AAe?$AAn?$AA?9?$AAP?$AAH?$AA?$AA@ 004461e8     LIBCMT:winapinls.obj
 0002:000071f4       ??_C@_1M@BDNIPEND@?$AAe?$AAs?$AA?9?$AAC?$AAL?$AA?$AA@ 004461f4     LIBCMT:winapinls.obj
 0002:00007200       ??_C@_1M@MPNMEKBD@?$AAa?$AAr?$AA?9?$AAA?$AAE?$AA?$AA@ 00446200     LIBCMT:winapinls.obj
 0002:0000720c       ??_C@_1M@KBJALCPI@?$AAe?$AAs?$AA?9?$AAU?$AAY?$AA?$AA@ 0044620c     LIBCMT:winapinls.obj
 0002:00007218       ??_C@_1M@LLCCOAGA@?$AAa?$AAr?$AA?9?$AAB?$AAH?$AA?$AA@ 00446218     LIBCMT:winapinls.obj
 0002:00007224       ??_C@_1M@PBFNCDEL@?$AAe?$AAs?$AA?9?$AAP?$AAY?$AA?$AA@ 00446224     LIBCMT:winapinls.obj
 0002:00007230       ??_C@_1M@EDGINPNP@?$AAa?$AAr?$AA?9?$AAQ?$AAA?$AA?$AA@ 00446230     LIBCMT:winapinls.obj
 0002:0000723c       ??_C@_1M@MKDBIIJI@?$AAe?$AAs?$AA?9?$AAB?$AAO?$AA?$AA@ 0044623c     LIBCMT:winapinls.obj
 0002:00007248       ??_C@_1M@CPKKEBLD@?$AAe?$AAs?$AA?9?$AAS?$AAV?$AA?$AA@ 00446248     LIBCMT:winapinls.obj
 0002:00007254       ??_C@_1M@NDBGMMJL@?$AAe?$AAs?$AA?9?$AAH?$AAN?$AA?$AA@ 00446254     LIBCMT:winapinls.obj
 0002:00007260       ??_C@_1M@JIJIBHDP@?$AAe?$AAs?$AA?9?$AAN?$AAI?$AA?$AA@ 00446260     LIBCMT:winapinls.obj
 0002:0000726c       ??_C@_1M@CGFMKEEK@?$AAe?$AAs?$AA?9?$AAP?$AAR?$AA?$AA@ 0044626c     LIBCMT:winapinls.obj
 0002:00007278       ??_C@_1O@ICJHKIIK@?$AAz?$AAh?$AA?9?$AAC?$AAH?$AAT?$AA?$AA@ 00446278     LIBCMT:winapinls.obj
 0002:00007288       ??_C@_15CLNEJCE@?$AAs?$AAr?$AA?$AA@ 00446288     LIBCMT:winapinls.obj
 0002:00007290       ??_C@_1M@KAHEKEIG@?$AAa?$AAf?$AA?9?$AAz?$AAa?$AA?$AA@ 00446290     LIBCMT:winapinls.obj
 0002:0000729c       ??_C@_1M@GIECOABL@?$AAa?$AAr?$AA?9?$AAa?$AAe?$AA?$AA@ 0044629c     LIBCMT:winapinls.obj
 0002:000072a8       ??_C@_1M@BMLMEKGI@?$AAa?$AAr?$AA?9?$AAb?$AAh?$AA?$AA@ 004462a8     LIBCMT:winapinls.obj
 0002:000072b4       ??_C@_1M@DAPFDGGB@?$AAa?$AAr?$AA?9?$AAd?$AAz?$AA?$AA@ 004462b4     LIBCMT:winapinls.obj
 0002:000072c0       ??_C@_1M@FJNKGKIG@?$AAa?$AAr?$AA?9?$AAe?$AAg?$AA?$AA@ 004462c0     LIBCMT:winapinls.obj
 0002:000072cc       ??_C@_1M@FLGKKCLO@?$AAa?$AAr?$AA?9?$AAi?$AAq?$AA?$AA@ 004462cc     LIBCMT:winapinls.obj
 0002:000072d8       ??_C@_1M@GNDIPALM@?$AAa?$AAr?$AA?9?$AAj?$AAo?$AA?$AA@ 004462d8     LIBCMT:winapinls.obj
 0002:000072e4       ??_C@_1M@DDMJFMGJ@?$AAa?$AAr?$AA?9?$AAk?$AAw?$AA?$AA@ 004462e4     LIBCMT:winapinls.obj
 0002:000072f0       ??_C@_1M@EJALMLHM@?$AAa?$AAr?$AA?9?$AAl?$AAb?$AA?$AA@ 004462f0     LIBCMT:winapinls.obj
 0002:000072fc       ??_C@_1M@MOBDBLOC@?$AAa?$AAr?$AA?9?$AAl?$AAy?$AA?$AA@ 004462fc     LIBCMT:winapinls.obj
 0002:00007308       ??_C@_1M@JAOCLHDH@?$AAa?$AAr?$AA?9?$AAm?$AAa?$AA?$AA@ 00446308     LIBCMT:winapinls.obj
 0002:00007314       ??_C@_1M@JHPMKJIE@?$AAa?$AAr?$AA?9?$AAo?$AAm?$AA?$AA@ 00446314     LIBCMT:winapinls.obj
 0002:00007320       ??_C@_1M@OEPGHFNH@?$AAa?$AAr?$AA?9?$AAq?$AAa?$AA?$AA@ 00446320     LIBCMT:winapinls.obj
 0002:0000732c       ??_C@_1M@KJDONENM@?$AAa?$AAr?$AA?9?$AAs?$AAa?$AA?$AA@ 0044632c     LIBCMT:winapinls.obj
 0002:00007338       ??_C@_1M@DMJDKLKM@?$AAa?$AAr?$AA?9?$AAs?$AAy?$AA?$AA@ 00446338     LIBCMT:winapinls.obj
 0002:00007344       ??_C@_1M@OMFIPEDC@?$AAa?$AAr?$AA?9?$AAt?$AAn?$AA?$AA@ 00446344     LIBCMT:winapinls.obj
 0002:00007350       ??_C@_1M@IHMHGAON@?$AAa?$AAr?$AA?9?$AAy?$AAe?$AA?$AA@ 00446350     LIBCMT:winapinls.obj
 0002:0000735c       ??_C@_1BG@KDCPGJGB@?$AAa?$AAz?$AA?9?$AAa?$AAz?$AA?9?$AAc?$AAy?$AAr?$AAl?$AA?$AA@ 0044635c     LIBCMT:winapinls.obj
 0002:00007374       ??_C@_1BG@IBCKDDOE@?$AAa?$AAz?$AA?9?$AAa?$AAz?$AA?9?$AAl?$AAa?$AAt?$AAn?$AA?$AA@ 00446374     LIBCMT:winapinls.obj
 0002:0000738c       ??_C@_1M@EGPFDCPD@?$AAb?$AAe?$AA?9?$AAb?$AAy?$AA?$AA@ 0044638c     LIBCMT:winapinls.obj
 0002:00007398       ??_C@_1M@PCMGMCGC@?$AAb?$AAg?$AA?9?$AAb?$AAg?$AA?$AA@ 00446398     LIBCMT:winapinls.obj
 0002:000073a4       ??_C@_1M@BJBMFGOB@?$AAb?$AAn?$AA?9?$AAi?$AAn?$AA?$AA@ 004463a4     LIBCMT:winapinls.obj
 0002:000073b0       ??_C@_1BG@EAKMMACD@?$AAb?$AAs?$AA?9?$AAb?$AAa?$AA?9?$AAl?$AAa?$AAt?$AAn?$AA?$AA@ 004463b0     LIBCMT:winapinls.obj
 0002:000073c8       ??_C@_1M@KGADAODK@?$AAc?$AAa?$AA?9?$AAe?$AAs?$AA?$AA@ 004463c8     LIBCMT:winapinls.obj
 0002:000073d4       ??_C@_1M@COAJPDHI@?$AAc?$AAs?$AA?9?$AAc?$AAz?$AA?$AA@ 004463d4     LIBCMT:winapinls.obj
 0002:000073e0       ??_C@_1M@DHBHFONH@?$AAc?$AAy?$AA?9?$AAg?$AAb?$AA?$AA@ 004463e0     LIBCMT:winapinls.obj
 0002:000073ec       ??_C@_1M@IMGKELGA@?$AAd?$AAa?$AA?9?$AAd?$AAk?$AA?$AA@ 004463ec     LIBCMT:winapinls.obj
 0002:000073f8       ??_C@_1M@NNDGDNGA@?$AAd?$AAe?$AA?9?$AAa?$AAt?$AA?$AA@ 004463f8     LIBCMT:winapinls.obj
 0002:00007404       ??_C@_1M@IKDBHEEM@?$AAd?$AAe?$AA?9?$AAc?$AAh?$AA?$AA@ 00446404     LIBCMT:winapinls.obj
 0002:00007410       ??_C@_1M@GFFOJMCJ@?$AAd?$AAe?$AA?9?$AAd?$AAe?$AA?$AA@ 00446410     LIBCMT:winapinls.obj
 0002:0000741c       ??_C@_1M@MDNLKBPM@?$AAd?$AAe?$AA?9?$AAl?$AAi?$AA?$AA@ 0044641c     LIBCMT:winapinls.obj
 0002:00007428       ??_C@_1M@NJBEEJNL@?$AAd?$AAe?$AA?9?$AAl?$AAu?$AA?$AA@ 00446428     LIBCMT:winapinls.obj
 0002:00007434       ??_C@_1O@GNNELBAP@?$AAd?$AAi?$AAv?$AA?9?$AAm?$AAv?$AA?$AA@ 00446434     LIBCMT:winapinls.obj
 0002:00007444       ??_C@_1M@EJLEOGAE@?$AAe?$AAl?$AA?9?$AAg?$AAr?$AA?$AA@ 00446444     LIBCMT:winapinls.obj
 0002:00007450       ??_C@_1M@GMPONJN@?$AAe?$AAn?$AA?9?$AAa?$AAu?$AA?$AA@ 00446450     LIBCMT:winapinls.obj
 0002:0000745c       ??_C@_1M@NIDIIPGF@?$AAe?$AAn?$AA?9?$AAb?$AAz?$AA?$AA@ 0044645c     LIBCMT:winapinls.obj
 0002:00007468       ??_C@_1M@JEHMIMFO@?$AAe?$AAn?$AA?9?$AAc?$AAa?$AA?$AA@ 00446468     LIBCMT:winapinls.obj
 0002:00007474       ??_C@_1M@IGMJCDLA@?$AAe?$AAn?$AA?9?$AAc?$AAb?$AA?$AA@ 00446474     LIBCMT:winapinls.obj
 0002:00007480       ??_C@_1M@BNFIGBKG@?$AAe?$AAn?$AA?9?$AAg?$AAb?$AA?$AA@ 00446480     LIBCMT:winapinls.obj
 0002:0000748c       ??_C@_1M@LKIFDIGP@?$AAe?$AAn?$AA?9?$AAi?$AAe?$AA?$AA@ 0044648c     LIBCMT:winapinls.obj
 0002:00007498       ??_C@_1M@PJKFGCCO@?$AAe?$AAn?$AA?9?$AAj?$AAm?$AA?$AA@ 00446498     LIBCMT:winapinls.obj
 0002:000074a4       ??_C@_1M@KPPKEPBO@?$AAe?$AAn?$AA?9?$AAn?$AAz?$AA?$AA@ 004464a4     LIBCMT:winapinls.obj
 0002:000074b0       ??_C@_1M@GMDGLDOB@?$AAe?$AAn?$AA?9?$AAp?$AAh?$AA?$AA@ 004464b0     LIBCMT:winapinls.obj
 0002:000074bc       ??_C@_1M@ONGIBJNA@?$AAe?$AAn?$AA?9?$AAt?$AAt?$AA?$AA@ 004464bc     LIBCMT:winapinls.obj
 0002:000074c8       ??_C@_1M@LLODPCMM@?$AAe?$AAn?$AA?9?$AAu?$AAs?$AA?$AA@ 004464c8     LIBCMT:winapinls.obj
 0002:000074d4       ??_C@_1M@LAKFNPAN@?$AAe?$AAn?$AA?9?$AAz?$AAa?$AA?$AA@ 004464d4     LIBCMT:winapinls.obj
 0002:000074e0       ??_C@_1M@MFNHNHEO@?$AAe?$AAn?$AA?9?$AAz?$AAw?$AA?$AA@ 004464e0     LIBCMT:winapinls.obj
 0002:000074ec       ??_C@_1M@EJEINPHM@?$AAe?$AAs?$AA?9?$AAa?$AAr?$AA?$AA@ 004464ec     LIBCMT:winapinls.obj
 0002:000074f8       ??_C@_1M@GNKPCCJA@?$AAe?$AAs?$AA?9?$AAb?$AAo?$AA?$AA@ 004464f8     LIBCMT:winapinls.obj
 0002:00007504       ??_C@_1M@LEEGFONL@?$AAe?$AAs?$AA?9?$AAc?$AAl?$AA?$AA@ 00446504     LIBCMT:winapinls.obj
 0002:00007510       ??_C@_1M@KGPDPBDF@?$AAe?$AAs?$AA?9?$AAc?$AAo?$AA?$AA@ 00446510     LIBCMT:winapinls.obj
 0002:0000751c       ??_C@_1M@EIAHOHH@?$AAe?$AAs?$AA?9?$AAc?$AAr?$AA?$AA@ 0044651c     LIBCMT:winapinls.obj
 0002:00007528       ??_C@_1M@LLPGMBIN@?$AAe?$AAs?$AA?9?$AAd?$AAo?$AA?$AA@ 00446528     LIBCMT:winapinls.obj
 0002:00007534       ??_C@_1M@DKHMKNJA@?$AAe?$AAs?$AA?9?$AAe?$AAc?$AA?$AA@ 00446534     LIBCMT:winapinls.obj
 0002:00007540       ??_C@_1M@GKGFPKAP@?$AAe?$AAs?$AA?9?$AAe?$AAs?$AA?$AA@ 00446540     LIBCMT:winapinls.obj
 0002:0000754c       ??_C@_1M@LKHKGDLN@?$AAe?$AAs?$AA?9?$AAg?$AAt?$AA?$AA@ 0044654c     LIBCMT:winapinls.obj
 0002:00007558       ??_C@_1M@HEIIGGJD@?$AAe?$AAs?$AA?9?$AAh?$AAn?$AA?$AA@ 00446558     LIBCMT:winapinls.obj
 0002:00007564       ??_C@_1M@FBDHPPGD@?$AAe?$AAs?$AA?9?$AAm?$AAx?$AA?$AA@ 00446564     LIBCMT:winapinls.obj
 0002:00007570       ??_C@_1M@DPAGLNDH@?$AAe?$AAs?$AA?9?$AAn?$AAi?$AA?$AA@ 00446570     LIBCMT:winapinls.obj
 0002:0000757c       ??_C@_1M@MDGOPGDD@?$AAe?$AAs?$AA?9?$AAp?$AAa?$AA?$AA@ 0044657c     LIBCMT:winapinls.obj
 0002:00007588       ??_C@_1M@EMAMGBGE@?$AAe?$AAs?$AA?9?$AAp?$AAe?$AA?$AA@ 00446588     LIBCMT:winapinls.obj
 0002:00007594       ??_C@_1M@IBMCAOEC@?$AAe?$AAs?$AA?9?$AAp?$AAr?$AA?$AA@ 00446594     LIBCMT:winapinls.obj
 0002:000075a0       ??_C@_1M@FGMDIJED@?$AAe?$AAs?$AA?9?$AAp?$AAy?$AA?$AA@ 004465a0     LIBCMT:winapinls.obj
 0002:000075ac       ??_C@_1M@IIDEOLLL@?$AAe?$AAs?$AA?9?$AAs?$AAv?$AA?$AA@ 004465ac     LIBCMT:winapinls.obj
 0002:000075b8       ??_C@_1M@GAOBIPA@?$AAe?$AAs?$AA?9?$AAu?$AAy?$AA?$AA@ 004465b8     LIBCMT:winapinls.obj
 0002:000075c4       ??_C@_1M@JKFFICHJ@?$AAe?$AAs?$AA?9?$AAv?$AAe?$AA?$AA@ 004465c4     LIBCMT:winapinls.obj
 0002:000075d0       ??_C@_1M@PNMLOJDF@?$AAe?$AAt?$AA?9?$AAe?$AAe?$AA?$AA@ 004465d0     LIBCMT:winapinls.obj
 0002:000075dc       ??_C@_1M@GHHLIKEI@?$AAe?$AAu?$AA?9?$AAe?$AAs?$AA?$AA@ 004465dc     LIBCMT:winapinls.obj
 0002:000075e8       ??_C@_1M@PBNONODE@?$AAf?$AAa?$AA?9?$AAi?$AAr?$AA?$AA@ 004465e8     LIBCMT:winapinls.obj
 0002:000075f4       ??_C@_1M@JEEHPMIL@?$AAf?$AAi?$AA?9?$AAf?$AAi?$AA?$AA@ 004465f4     LIBCMT:winapinls.obj
 0002:00007600       ??_C@_1M@LMDCNDBA@?$AAf?$AAo?$AA?9?$AAf?$AAo?$AA?$AA@ 00446600     LIBCMT:winapinls.obj
 0002:0000760c       ??_C@_1M@JKEOHLDK@?$AAf?$AAr?$AA?9?$AAb?$AAe?$AA?$AA@ 0044660c     LIBCMT:winapinls.obj
 0002:00007618       ??_C@_1M@NOHADPMI@?$AAf?$AAr?$AA?9?$AAc?$AAa?$AA?$AA@ 00446618     LIBCMT:winapinls.obj
 0002:00007624       ??_C@_1M@KDHIHAEC@?$AAf?$AAr?$AA?9?$AAc?$AAh?$AA?$AA@ 00446624     LIBCMT:winapinls.obj
 0002:00007630       ??_C@_1M@MMBBFGAK@?$AAf?$AAr?$AA?9?$AAf?$AAr?$AA?$AA@ 00446630     LIBCMT:winapinls.obj
 0002:0000763c       ??_C@_1M@PAFNENNF@?$AAf?$AAr?$AA?9?$AAl?$AAu?$AA?$AA@ 0044663c     LIBCMT:winapinls.obj
 0002:00007648       ??_C@_1M@EOHDJGDD@?$AAf?$AAr?$AA?9?$AAm?$AAc?$AA?$AA@ 00446648     LIBCMT:winapinls.obj
 0002:00007654       ??_C@_1M@FAPLLOPF@?$AAg?$AAl?$AA?9?$AAe?$AAs?$AA?$AA@ 00446654     LIBCMT:winapinls.obj
 0002:00007660       ??_C@_1M@FOPBFLOO@?$AAg?$AAu?$AA?9?$AAi?$AAn?$AA?$AA@ 00446660     LIBCMT:winapinls.obj
 0002:0000766c       ??_C@_1M@KBMCINPM@?$AAh?$AAe?$AA?9?$AAi?$AAl?$AA?$AA@ 0044666c     LIBCMT:winapinls.obj
 0002:00007678       ??_C@_1M@BBPHKFPJ@?$AAh?$AAi?$AA?9?$AAi?$AAn?$AA?$AA@ 00446678     LIBCMT:winapinls.obj
 0002:00007684       ??_C@_1M@PMBNDPHD@?$AAh?$AAr?$AA?9?$AAb?$AAa?$AA?$AA@ 00446684     LIBCMT:winapinls.obj
 0002:00007690       ??_C@_1M@BPCKOEGE@?$AAh?$AAr?$AA?9?$AAh?$AAr?$AA?$AA@ 00446690     LIBCMT:winapinls.obj
 0002:0000769c       ??_C@_1M@GACBMHKE@?$AAh?$AAu?$AA?9?$AAh?$AAu?$AA?$AA@ 0044669c     LIBCMT:winapinls.obj
 0002:000076a8       ??_C@_1M@MILPAJJC@?$AAh?$AAy?$AA?9?$AAa?$AAm?$AA?$AA@ 004466a8     LIBCMT:winapinls.obj
 0002:000076b4       ??_C@_1M@BABBICEC@?$AAi?$AAd?$AA?9?$AAi?$AAd?$AA?$AA@ 004466b4     LIBCMT:winapinls.obj
 0002:000076c0       ??_C@_1M@BIKNHHPF@?$AAi?$AAs?$AA?9?$AAi?$AAs?$AA?$AA@ 004466c0     LIBCMT:winapinls.obj
 0002:000076cc       ??_C@_1M@NMPCJPHE@?$AAi?$AAt?$AA?9?$AAc?$AAh?$AA?$AA@ 004466cc     LIBCMT:winapinls.obj
 0002:000076d8       ??_C@_1M@GHKGFEDF@?$AAi?$AAt?$AA?9?$AAi?$AAt?$AA?$AA@ 004466d8     LIBCMT:winapinls.obj
 0002:000076e4       ??_C@_1M@NIEJCJJA@?$AAj?$AAa?$AA?9?$AAj?$AAp?$AA?$AA@ 004466e4     LIBCMT:winapinls.obj
 0002:000076f0       ??_C@_1M@JILFNBIM@?$AAk?$AAa?$AA?9?$AAg?$AAe?$AA?$AA@ 004466f0     LIBCMT:winapinls.obj
 0002:000076fc       ??_C@_1M@PACPMGPH@?$AAk?$AAk?$AA?9?$AAk?$AAz?$AA?$AA@ 004466fc     LIBCMT:winapinls.obj
 0002:00007708       ??_C@_1M@IELFGMHA@?$AAk?$AAn?$AA?9?$AAi?$AAn?$AA?$AA@ 00446708     LIBCMT:winapinls.obj
 0002:00007714       ??_C@_1O@IBBJHCH@?$AAk?$AAo?$AAk?$AA?9?$AAi?$AAn?$AA?$AA@ 00446714     LIBCMT:winapinls.obj
 0002:00007724       ??_C@_1M@DMHAEOGC@?$AAk?$AAo?$AA?9?$AAk?$AAr?$AA?$AA@ 00446724     LIBCMT:winapinls.obj
 0002:00007730       ??_C@_1M@HBAHBIGA@?$AAk?$AAy?$AA?9?$AAk?$AAg?$AA?$AA@ 00446730     LIBCMT:winapinls.obj
 0002:0000773c       ??_C@_1M@KPMILCJG@?$AAl?$AAt?$AA?9?$AAl?$AAt?$AA?$AA@ 0044673c     LIBCMT:winapinls.obj
 0002:00007748       ??_C@_1M@BDEKKCA@?$AAl?$AAv?$AA?9?$AAl?$AAv?$AA?$AA@ 00446748     LIBCMT:winapinls.obj
 0002:00007754       ??_C@_1M@ELCKCCJJ@?$AAm?$AAi?$AA?9?$AAn?$AAz?$AA?$AA@ 00446754     LIBCMT:winapinls.obj
 0002:00007760       ??_C@_1M@CBOOLAPA@?$AAm?$AAk?$AA?9?$AAm?$AAk?$AA?$AA@ 00446760     LIBCMT:winapinls.obj
 0002:0000776c       ??_C@_1M@GPHNBJKN@?$AAm?$AAl?$AA?9?$AAi?$AAn?$AA?$AA@ 0044676c     LIBCMT:winapinls.obj
 0002:00007778       ??_C@_1M@PABJILIG@?$AAm?$AAn?$AA?9?$AAm?$AAn?$AA?$AA@ 00446778     LIBCMT:winapinls.obj
 0002:00007784       ??_C@_1M@FGBKKIPG@?$AAm?$AAr?$AA?9?$AAi?$AAn?$AA?$AA@ 00446784     LIBCMT:winapinls.obj
 0002:00007790       ??_C@_1M@NDBPDDAL@?$AAm?$AAs?$AA?9?$AAb?$AAn?$AA?$AA@ 00446790     LIBCMT:winapinls.obj
 0002:0000779c       ??_C@_1M@OPIHOOPI@?$AAm?$AAs?$AA?9?$AAm?$AAy?$AA?$AA@ 0044679c     LIBCMT:winapinls.obj
 0002:000077a8       ??_C@_1M@PPDBCNFM@?$AAm?$AAt?$AA?9?$AAm?$AAt?$AA?$AA@ 004467a8     LIBCMT:winapinls.obj
 0002:000077b4       ??_C@_1M@KDJDKMDD@?$AAn?$AAb?$AA?9?$AAn?$AAo?$AA?$AA@ 004467b4     LIBCMT:winapinls.obj
 0002:000077c0       ??_C@_1M@KFCFLMJP@?$AAn?$AAl?$AA?9?$AAb?$AAe?$AA?$AA@ 004467c0     LIBCMT:winapinls.obj
 0002:000077cc       ??_C@_1M@KPOPDDGO@?$AAn?$AAl?$AA?9?$AAn?$AAl?$AA?$AA@ 004467cc     LIBCMT:winapinls.obj
 0002:000077d8       ??_C@_1M@LJKPEMLN@?$AAn?$AAn?$AA?9?$AAn?$AAo?$AA?$AA@ 004467d8     LIBCMT:winapinls.obj
 0002:000077e4       ??_C@_1M@BDGHHBFL@?$AAn?$AAs?$AA?9?$AAz?$AAa?$AA?$AA@ 004467e4     LIBCMT:winapinls.obj
 0002:000077f0       ??_C@_1M@IDEHOAP@?$AAp?$AAa?$AA?9?$AAi?$AAn?$AA?$AA@ 004467f0     LIBCMT:winapinls.obj
 0002:000077fc       ??_C@_1M@HDBKGOGH@?$AAp?$AAl?$AA?9?$AAp?$AAl?$AA?$AA@ 004467fc     LIBCMT:winapinls.obj
 0002:00007808       ??_C@_1M@LJLLCMEH@?$AAp?$AAt?$AA?9?$AAb?$AAr?$AA?$AA@ 00446808     LIBCMT:winapinls.obj
 0002:00007814       ??_C@_1M@NCMONAAL@?$AAp?$AAt?$AA?9?$AAp?$AAt?$AA?$AA@ 00446814     LIBCMT:winapinls.obj
 0002:00007820       ??_C@_1O@EAKMAJDN@?$AAq?$AAu?$AAz?$AA?9?$AAb?$AAo?$AA?$AA@ 00446820     LIBCMT:winapinls.obj
 0002:00007830       ??_C@_1O@BHHPIGDN@?$AAq?$AAu?$AAz?$AA?9?$AAe?$AAc?$AA?$AA@ 00446830     LIBCMT:winapinls.obj
 0002:00007840       ??_C@_1O@GBAPEKMJ@?$AAq?$AAu?$AAz?$AA?9?$AAp?$AAe?$AA?$AA@ 00446840     LIBCMT:winapinls.obj
 0002:00007850       ??_C@_1M@CLGLEFBO@?$AAr?$AAo?$AA?9?$AAr?$AAo?$AA?$AA@ 00446850     LIBCMT:winapinls.obj
 0002:0000785c       ??_C@_1M@CEEDODME@?$AAr?$AAu?$AA?9?$AAr?$AAu?$AA?$AA@ 0044685c     LIBCMT:winapinls.obj
 0002:00007868       ??_C@_1M@HPKKKMPP@?$AAs?$AAa?$AA?9?$AAi?$AAn?$AA?$AA@ 00446868     LIBCMT:winapinls.obj
 0002:00007874       ??_C@_1M@BKMAIGOJ@?$AAs?$AAe?$AA?9?$AAf?$AAi?$AA?$AA@ 00446874     LIBCMT:winapinls.obj
 0002:00007880       ??_C@_1M@NDPIFLFI@?$AAs?$AAe?$AA?9?$AAn?$AAo?$AA?$AA@ 00446880     LIBCMT:winapinls.obj
 0002:0000788c       ??_C@_1M@DANKKHJ@?$AAs?$AAe?$AA?9?$AAs?$AAe?$AA?$AA@ 0044688c     LIBCMT:winapinls.obj
 0002:00007898       ??_C@_1M@PNBLONPJ@?$AAs?$AAk?$AA?9?$AAs?$AAk?$AA?$AA@ 00446898     LIBCMT:winapinls.obj
 0002:000078a4       ??_C@_1M@LFMODOAL@?$AAs?$AAl?$AA?9?$AAs?$AAi?$AA?$AA@ 004468a4     LIBCMT:winapinls.obj
 0002:000078b0       ??_C@_1O@DFKOMPG@?$AAs?$AAm?$AAa?$AA?9?$AAn?$AAo?$AA?$AA@ 004468b0     LIBCMT:winapinls.obj
 0002:000078c0       ??_C@_1O@NDKPBNNH@?$AAs?$AAm?$AAa?$AA?9?$AAs?$AAe?$AA?$AA@ 004468c0     LIBCMT:winapinls.obj
 0002:000078d0       ??_C@_1O@PLLKBHAB@?$AAs?$AAm?$AAj?$AA?9?$AAn?$AAo?$AA?$AA@ 004468d0     LIBCMT:winapinls.obj
 0002:000078e0       ??_C@_1O@CLEPOGCA@?$AAs?$AAm?$AAj?$AA?9?$AAs?$AAe?$AA?$AA@ 004468e0     LIBCMT:winapinls.obj
 0002:000078f0       ??_C@_1O@DLGJGKMK@?$AAs?$AAm?$AAn?$AA?9?$AAf?$AAi?$AA?$AA@ 004468f0     LIBCMT:winapinls.obj
 0002:00007900       ??_C@_1O@OJDJGAJC@?$AAs?$AAm?$AAs?$AA?9?$AAf?$AAi?$AA?$AA@ 00446900     LIBCMT:winapinls.obj
 0002:00007910       ??_C@_1M@BOFOGHPB@?$AAs?$AAq?$AA?9?$AAa?$AAl?$AA?$AA@ 00446910     LIBCMT:winapinls.obj
 0002:0000791c       ??_C@_1BG@LJBBIPGB@?$AAs?$AAr?$AA?9?$AAb?$AAa?$AA?9?$AAc?$AAy?$AAr?$AAl?$AA?$AA@ 0044691c     LIBCMT:winapinls.obj
 0002:00007934       ??_C@_1BG@JLBENFOE@?$AAs?$AAr?$AA?9?$AAb?$AAa?$AA?9?$AAl?$AAa?$AAt?$AAn?$AA?$AA@ 00446934     LIBCMT:winapinls.obj
 0002:0000794c       ??_C@_1BG@KODPNHE@?$AAs?$AAr?$AA?9?$AAs?$AAp?$AA?9?$AAc?$AAy?$AAr?$AAl?$AA?$AA@ 0044694c     LIBCMT:winapinls.obj
 0002:00007964       ??_C@_1BG@CIOGKHPB@?$AAs?$AAr?$AA?9?$AAs?$AAp?$AA?9?$AAl?$AAa?$AAt?$AAn?$AA?$AA@ 00446964     LIBCMT:winapinls.obj
 0002:0000797c       ??_C@_1M@NGFJLMAC@?$AAs?$AAv?$AA?9?$AAf?$AAi?$AA?$AA@ 0044697c     LIBCMT:winapinls.obj
 0002:00007988       ??_C@_1M@MPJEJAJC@?$AAs?$AAv?$AA?9?$AAs?$AAe?$AA?$AA@ 00446988     LIBCMT:winapinls.obj
 0002:00007994       ??_C@_1M@MPNDHLFK@?$AAs?$AAw?$AA?9?$AAk?$AAe?$AA?$AA@ 00446994     LIBCMT:winapinls.obj
 0002:000079a0       ??_C@_1O@KOHBJJI@?$AAs?$AAy?$AAr?$AA?9?$AAs?$AAy?$AA?$AA@ 004469a0     LIBCMT:winapinls.obj
 0002:000079b0       ??_C@_1M@LDCEFHA@?$AAt?$AAa?$AA?9?$AAi?$AAn?$AA?$AA@ 004469b0     LIBCMT:winapinls.obj
 0002:000079bc       ??_C@_1M@CNJOFAK@?$AAt?$AAe?$AA?9?$AAi?$AAn?$AA?$AA@ 004469bc     LIBCMT:winapinls.obj
 0002:000079c8       ??_C@_1M@GNAECACD@?$AAt?$AAh?$AA?9?$AAt?$AAh?$AA?$AA@ 004469c8     LIBCMT:winapinls.obj
 0002:000079d4       ??_C@_1M@CHBIHOJO@?$AAt?$AAn?$AA?9?$AAz?$AAa?$AA?$AA@ 004469d4     LIBCMT:winapinls.obj
 0002:000079e0       ??_C@_1M@GCCMIGPJ@?$AAt?$AAr?$AA?9?$AAt?$AAr?$AA?$AA@ 004469e0     LIBCMT:winapinls.obj
 0002:000079ec       ??_C@_1M@CELMCNBK@?$AAt?$AAt?$AA?9?$AAr?$AAu?$AA?$AA@ 004469ec     LIBCMT:winapinls.obj
 0002:000079f8       ??_C@_1M@KLMCELGA@?$AAu?$AAk?$AA?9?$AAu?$AAa?$AA?$AA@ 004469f8     LIBCMT:winapinls.obj
 0002:00007a04       ??_C@_1M@EPAJJAJF@?$AAu?$AAr?$AA?9?$AAp?$AAk?$AA?$AA@ 00446a04     LIBCMT:winapinls.obj
 0002:00007a10       ??_C@_1BG@GEGPMCDJ@?$AAu?$AAz?$AA?9?$AAu?$AAz?$AA?9?$AAc?$AAy?$AAr?$AAl?$AA?$AA@ 00446a10     LIBCMT:winapinls.obj
 0002:00007a28       ??_C@_1BG@EGGKJILM@?$AAu?$AAz?$AA?9?$AAu?$AAz?$AA?9?$AAl?$AAa?$AAt?$AAn?$AA?$AA@ 00446a28     LIBCMT:winapinls.obj
 0002:00007a40       ??_C@_1M@GFOCLFF@?$AAv?$AAi?$AA?9?$AAv?$AAn?$AA?$AA@ 00446a40     LIBCMT:winapinls.obj
 0002:00007a4c       ??_C@_1M@CPAMEDFI@?$AAx?$AAh?$AA?9?$AAz?$AAa?$AA?$AA@ 00446a4c     LIBCMT:winapinls.obj
 0002:00007a58       ??_C@_1O@EBKIFIGN@?$AAz?$AAh?$AA?9?$AAc?$AAh?$AAs?$AA?$AA@ 00446a58     LIBCMT:winapinls.obj
 0002:00007a68       ??_C@_1O@NMHPGANE@?$AAz?$AAh?$AA?9?$AAc?$AAh?$AAt?$AA?$AA@ 00446a68     LIBCMT:winapinls.obj
 0002:00007a78       ??_C@_1M@LPINJOMC@?$AAz?$AAh?$AA?9?$AAc?$AAn?$AA?$AA@ 00446a78     LIBCMT:winapinls.obj
 0002:00007a84       ??_C@_1M@OCJEJODD@?$AAz?$AAh?$AA?9?$AAh?$AAk?$AA?$AA@ 00446a84     LIBCMT:winapinls.obj
 0002:00007a90       ??_C@_1M@DNDLJINH@?$AAz?$AAh?$AA?9?$AAm?$AAo?$AA?$AA@ 00446a90     LIBCMT:winapinls.obj
 0002:00007a9c       ??_C@_1M@MBFDNDND@?$AAz?$AAh?$AA?9?$AAs?$AAg?$AA?$AA@ 00446a9c     LIBCMT:winapinls.obj
 0002:00007aa8       ??_C@_1M@IMEPLEPE@?$AAz?$AAh?$AA?9?$AAt?$AAw?$AA?$AA@ 00446aa8     LIBCMT:winapinls.obj
 0002:00007ab4       ??_C@_1M@BBGHNHJP@?$AAz?$AAu?$AA?9?$AAz?$AAa?$AA?$AA@ 00446ab4     LIBCMT:winapinls.obj
 0002:00007ac0       ??_C@_06PGGFOGJG@1?$CDSNAN?$AA@ 00446ac0     LIBCMT:x10fout.obj
 0002:00007ac8       ??_C@_05PHHOCPM@1?$CDIND?$AA@ 00446ac8     LIBCMT:x10fout.obj
 0002:00007ad0       ??_C@_05DNEBIAHO@1?$CDINF?$AA@ 00446ad0     LIBCMT:x10fout.obj
 0002:00007ad8       ??_C@_06IMKFLFPG@1?$CDQNAN?$AA@ 00446ad8     LIBCMT:x10fout.obj
 0002:00007ae0       ??_C@_1BA@BALFACEM@?$AAC?$AAO?$AAN?$AAO?$AAU?$AAT?$AA$?$AA?$AA@ 00446ae0     LIBCMT:initcon.obj
 0002:00007af0       __load_config_used         00446af0     LIBCMT:loadcfg.obj
 0002:00007b38       ??_R4WINDOW_CLASS@@6B@     00446b38     ft2.obj
 0002:00007b4c       ??_R3WINDOW_CLASS@@8       00446b4c     ft2.obj
 0002:00007b5c       ??_R2WINDOW_CLASS@@8       00446b5c     ft2.obj
 0002:00007b64       ??_R1A@?0A@EA@WINDOW_CLASS@@8 00446b64     ft2.obj
 0002:00007b80       ??_R4FTII_VAR@@6B@         00446b80     ft2.obj
 0002:00007b94       ??_R3FTII_VAR@@8           00446b94     ft2.obj
 0002:00007ba4       ??_R2FTII_VAR@@8           00446ba4     ft2.obj
 0002:00007bac       ??_R1A@?0A@EA@FTII_VAR@@8  00446bac     ft2.obj
 0002:00007bc8       ??_R4FTII_VAR_ARRAY@@6B@   00446bc8     ft2.obj
 0002:00007bdc       ??_R3FTII_VAR_ARRAY@@8     00446bdc     ft2.obj
 0002:00007bec       ??_R2FTII_VAR_ARRAY@@8     00446bec     ft2.obj
 0002:00007bf8       ??_R1A@?0A@EA@FTII_VAR_ARRAY@@8 00446bf8     ft2.obj
 0002:00007c14       ??_R4DOUBLE_ARRAY_CLASS@@6B@ 00446c14     board_monitor.obj
 0002:00007c28       ??_R3DOUBLE_ARRAY_CLASS@@8 00446c28     board_monitor.obj
 0002:00007c38       ??_R2DOUBLE_ARRAY_CLASS@@8 00446c38     board_monitor.obj
 0002:00007c40       ??_R1A@?0A@EA@DOUBLE_ARRAY_CLASS@@8 00446c40     board_monitor.obj
 0002:00007c5c       ??_R4FTII_ARRAY_DATA@@6B@  00446c5c     v5subs:ftii_shot_data.obj
 0002:00007c70       ??_R3FTII_ARRAY_DATA@@8    00446c70     v5subs:ftii_shot_data.obj
 0002:00007c80       ??_R2FTII_ARRAY_DATA@@8    00446c80     v5subs:ftii_shot_data.obj
 0002:00007c88       ??_R1A@?0A@EA@FTII_ARRAY_DATA@@8 00446c88     v5subs:ftii_shot_data.obj
 0002:00007ca4       ??_R4FTII_PROFILE@@6B@     00446ca4     v5subs:ftii_shot_data.obj
 0002:00007cb8       ??_R3FTII_PROFILE@@8       00446cb8     v5subs:ftii_shot_data.obj
 0002:00007cc8       ??_R2FTII_PROFILE@@8       00446cc8     v5subs:ftii_shot_data.obj
 0002:00007cd4       ??_R1A@?0A@EA@FTII_PROFILE@@8 00446cd4     v5subs:ftii_shot_data.obj
 0002:00007cf0       ??_R1A@?0A@EA@exception@std@@8 00446cf0     LIBCMT:new.obj
 0002:00007d0c       ??_R3exception@std@@8      00446d0c     LIBCMT:new.obj
 0002:00007d1c       ??_R2exception@std@@8      00446d1c     LIBCMT:new.obj
 0002:00007d24       ??_R4bad_alloc@std@@6B@    00446d24     LIBCMT:new.obj
 0002:00007d38       ??_R3bad_alloc@std@@8      00446d38     LIBCMT:new.obj
 0002:00007d48       ??_R2bad_alloc@std@@8      00446d48     LIBCMT:new.obj
 0002:00007d54       ??_R1A@?0A@EA@bad_alloc@std@@8 00446d54     LIBCMT:new.obj
 0002:00007d70       ??_R4type_info@@6B@        00446d70     LIBCMT:typinfo.obj
 0002:00007d84       ??_R3type_info@@8          00446d84     LIBCMT:typinfo.obj
 0002:00007d94       ??_R2type_info@@8          00446d94     LIBCMT:typinfo.obj
 0002:00007d9c       ??_R1A@?0A@EA@type_info@@8 00446d9c     LIBCMT:typinfo.obj
 0002:00007db8       ??_R4exception@std@@6B@    00446db8     LIBCMT:stdexcpt.obj
 0002:00007dd0       ___safe_se_handler_table   00446dd0     <linker-defined>
 0002:00007ddc       ___rtc_iaa                 00446ddc     LIBCMT:initsect.obj
 0002:00007de0       ___rtc_izz                 00446de0     LIBCMT:initsect.obj
 0002:00007de4       ___rtc_taa                 00446de4     LIBCMT:initsect.obj
 0002:00007de8       ___rtc_tzz                 00446de8     LIBCMT:initsect.obj
 0002:00007df0       __TI2?AVbad_alloc@std@@    00446df0     LIBCMT:new.obj
 0002:00007e00       __CTA2?AVbad_alloc@std@@   00446e00     LIBCMT:new.obj
 0002:00007e0c       __CT??_R0?AVbad_alloc@std@@@8??0bad_alloc@std@@QAE@ABV01@@Z12 00446e0c     LIBCMT:new.obj
 0002:00007e28       __CT??_R0?AVexception@std@@@8??0exception@std@@QAE@ABV01@@Z12 00446e28     LIBCMT:new.obj
 0002:0000815c       __IMPORT_DESCRIPTOR_KERNEL32 0044715c     kernel32:KERNEL32.dll
 0002:00008170       __IMPORT_DESCRIPTOR_USER32 00447170     user32:USER32.dll
 0002:00008184       __IMPORT_DESCRIPTOR_GDI32  00447184     gdi32:GDI32.dll
 0002:00008198       __IMPORT_DESCRIPTOR_COMCTL32 00447198     comctl32:COMCTL32.dll
 0002:000081ac       __IMPORT_DESCRIPTOR_WSOCK32 004471ac     wsock32:WSOCK32.dll
 0002:000081c0       __IMPORT_DESCRIPTOR_SHELL32 004471c0     shell32:SHELL32.dll
 0002:000081d4       __NULL_IMPORT_DESCRIPTOR   004471d4     kernel32:KERNEL32.dll
 0003:0000001c       ?NOT_CONNECTED_STATE@@3IA  0044901c     ft2.obj
 0003:00000020       ?NOT_MONITORED_STATE@@3IA  00449020     ft2.obj
 0003:00000024       ?CONNECTING_STATE@@3IA     00449024     ft2.obj
 0003:00000028       ?CONNECTED_STATE@@3IA      00449028     ft2.obj
 0003:0000002c       ?ZERO_STROKE_LENGTH_STATE@@3IA 0044902c     ft2.obj
 0003:00000030       ?UPLOAD_WAS_ABORTED_STATE@@3IA 00449030     ft2.obj
 0003:00000034       ?HistoryShotCount@@3HA     00449034     ft2.obj
 0003:00000038       ?ConfigSection@@3PADA      00449038     ft2.obj
 0003:0000003f       ?CurrentOpStatusIsEmpty@@3_NA 0044903f     ft2.obj
 0003:00000040       ?CurrentValuesSection@@3PADA 00449040     ft2.obj
 0003:00000050       ?CommonResourceFile@@3PADA 00449050     ft2.obj
 0003:00000057       ?AChar@@3DA                00449057     ft2.obj
 0003:00000058       ?DisplayIniFile@@3PADA     00449058     ft2.obj
 0003:00000064       ?EditPartResourceFile@@3PADA 00449064     ft2.obj
 0003:0000006d       ?BChar@@3DA                0044906d     ft2.obj
 0003:0000006e       ?CChar@@3DA                0044906e     ft2.obj
 0003:0000006f       ?DChar@@3DA                0044906f     ft2.obj
 0003:00000070       ?FtiiIniFile@@3PADA        00449070     ft2.obj
 0003:00000079       ?EChar@@3DA                00449079     ft2.obj
 0003:0000007a       ?FChar@@3DA                0044907a     ft2.obj
 0003:0000007b       ?GChar@@3DA                0044907b     ft2.obj
 0003:0000007c       ?MonallIniFile@@3PADA      0044907c     ft2.obj
 0003:00000087       ?HChar@@3DA                00449087     ft2.obj
 0003:00000088       ?MyMenuFile@@3PADA         00449088     ft2.obj
 0003:00000090       ?MyResourceFile@@3PADA     00449090     ft2.obj
 0003:00000094       ?SureTrakIniFile@@3PADA    00449094     ft2.obj
 0003:000000a1       ?IChar@@3DA                004490a1     ft2.obj
 0003:000000a2       ?JChar@@3DA                004490a2     ft2.obj
 0003:000000a3       ?KChar@@3DA                004490a3     ft2.obj
 0003:000000a4       ?TerminalMenuFile@@3PADA   004490a4     ft2.obj
 0003:000000b4       ?VisiTrakIniFile@@3PADA    004490b4     ft2.obj
 0003:000000c1       ?LChar@@3DA                004490c1     ft2.obj
 0003:000000c2       ?MChar@@3DA                004490c2     ft2.obj
 0003:000000c3       ?NChar@@3DA                004490c3     ft2.obj
 0003:000000c4       ?AlsLogFile@@3PADA         004490c4     ft2.obj
 0003:000000d7       ?OChar@@3DA                004490d7     ft2.obj
 0003:000000d8       ?AlsLogIsActiveKey@@3PADA  004490d8     ft2.obj
 0003:000000df       ?PChar@@3DA                004490df     ft2.obj
 0003:000000e0       ?ClearAlarmsEachShotKey@@3PADA 004490e0     ft2.obj
 0003:000000f4       ?ClearDownWireFromPopupKey@@3PADA 004490f4     ft2.obj
 0003:0000010b       ?QChar@@3DA                0044910b     ft2.obj
 0003:0000010c       ?ClearMonitorWireOnDownKey@@3PADA 0044910c     ft2.obj
 0003:00000123       ?RChar@@3DA                00449123     ft2.obj
 0003:00000124       ?CurrentChannelModeKey@@3PADA 00449124     ft2.obj
 0003:00000137       ?SChar@@3DA                00449137     ft2.obj
 0003:00000138       ?CurrentLanguageKey@@3PADA 00449138     ft2.obj
 0003:00000148       ?DownTimeAlarmWireKey@@3PADA 00449148     ft2.obj
 0003:0000015a       ?TChar@@3DA                0044915a     ft2.obj
 0003:0000015b       ?UChar@@3DA                0044915b     ft2.obj
 0003:0000015c       ?ExitEnableLevelKey@@3PADA 0044915c     ft2.obj
 0003:0000016c       ?FlashVersionKey@@3PADA    0044916c     ft2.obj
 0003:00000179       ?VChar@@3DA                00449179     ft2.obj
 0003:0000017a       ?WChar@@3DA                0044917a     ft2.obj
 0003:0000017b       ?XChar@@3DA                0044917b     ft2.obj
 0003:0000017c       ?Ft2F10LevelKey@@3PADA     0044917c     ft2.obj
 0003:00000188       ?Ft2F2LevelKey@@3PADA      00449188     ft2.obj
 0003:00000193       ?YChar@@3DA                00449193     ft2.obj
 0003:00000194       ?Ft2F3LevelKey@@3PADA      00449194     ft2.obj
 0003:0000019f       ?ZChar@@3DA                0044919f     ft2.obj
 0003:000001a0       ?Ft2F4LevelKey@@3PADA      004491a0     ft2.obj
 0003:000001ab       ?ACharLow@@3DA             004491ab     ft2.obj
 0003:000001ac       ?Ft2F5LevelKey@@3PADA      004491ac     ft2.obj
 0003:000001b7       ?BCharLow@@3DA             004491b7     ft2.obj
 0003:000001b8       ?Ft2F6LevelKey@@3PADA      004491b8     ft2.obj
 0003:000001c3       ?CCharLow@@3DA             004491c3     ft2.obj
 0003:000001c4       ?Ft2F7LevelKey@@3PADA      004491c4     ft2.obj
 0003:000001cf       ?DCharLow@@3DA             004491cf     ft2.obj
 0003:000001d0       ?Ft2F8LevelKey@@3PADA      004491d0     ft2.obj
 0003:000001db       ?ECharLow@@3DA             004491db     ft2.obj
 0003:000001dc       ?Ft2F9LevelKey@@3PADA      004491dc     ft2.obj
 0003:000001e7       ?FCharLow@@3DA             004491e7     ft2.obj
 0003:000001e8       ?Ft2StartScreenKey@@3PADA  004491e8     ft2.obj
 0003:000001f7       ?GCharLow@@3DA             004491f7     ft2.obj
 0003:000001f8       ?HavePressureControlKey@@3PADA 004491f8     ft2.obj
 0003:0000020c       ?HaveSureTrakKey@@3PADA    0044920c     ft2.obj
 0003:00000219       ?HCharLow@@3DA             00449219     ft2.obj
 0003:0000021a       ?ICharLow@@3DA             0044921a     ft2.obj
 0003:0000021b       ?JCharLow@@3DA             0044921b     ft2.obj
 0003:0000021c       ?IsHiresSensorKey@@3PADA   0044921c     ft2.obj
 0003:0000022a       ?KCharLow@@3DA             0044922a     ft2.obj
 0003:0000022b       ?LCharLow@@3DA             0044922b     ft2.obj
 0003:0000022c       ?LogSentCommandsKey@@3PADA 0044922c     ft2.obj
 0003:0000023c       ?LastNKey@@3PADA           0044923c     ft2.obj
 0003:00000242       ?MCharLow@@3DA             00449242     ft2.obj
 0003:00000243       ?NCharLow@@3DA             00449243     ft2.obj
 0003:00000244       ?MonitorWireKey@@3PADA     00449244     ft2.obj
 0003:00000250       ?NetworkLogFileKey@@3PADA  00449250     ft2.obj
 0003:0000025f       ?OCharLow@@3DA             0044925f     ft2.obj
 0003:00000260       ?NetworkLogFileEnabledKey@@3PADA 00449260     ft2.obj
 0003:00000276       ?PCharLow@@3DA             00449276     ft2.obj
 0003:00000277       ?QCharLow@@3DA             00449277     ft2.obj
 0003:00000278       ?NoUploadWireKey@@3PADA    00449278     ft2.obj
 0003:00000285       ?RCharLow@@3DA             00449285     ft2.obj
 0003:00000286       ?SCharLow@@3DA             00449286     ft2.obj
 0003:00000287       ?TCharLow@@3DA             00449287     ft2.obj
 0003:00000288       ?RetractWireKey@@3PADA     00449288     ft2.obj
 0003:00000294       ?SaveAllAlarmShotsKey@@3PADA 00449294     ft2.obj
 0003:000002a6       ?UCharLow@@3DA             004492a6     ft2.obj
 0003:000002a7       ?VCharLow@@3DA             004492a7     ft2.obj
 0003:000002a8       ?SavepartExeName@@3PADA    004492a8     ft2.obj
 0003:000002b5       ?WCharLow@@3DA             004492b5     ft2.obj
 0003:000002b6       ?XCharLow@@3DA             004492b6     ft2.obj
 0003:000002b7       ?YCharLow@@3DA             004492b7     ft2.obj
 0003:000002b8       ?SentCommandsLogFile@@3PADA 004492b8     ft2.obj
 0003:000002d6       ?ZCharLow@@3DA             004492d6     ft2.obj
 0003:000002d7       ?AsterixChar@@3DA          004492d7     ft2.obj
 0003:000002d8       ?ServiceToolsGrayLevelKey@@3PADA 004492d8     ft2.obj
 0003:000002ee       ?BackSlashChar@@3DA        004492ee     ft2.obj
 0003:000002ef       ?CaretChar@@3DA            004492ef     ft2.obj
 0003:000002f0       ?SubtractTimeoutKey@@3PADA 004492f0     ft2.obj
 0003:00000300       ?TurnOffAlarmsOnDownKey@@3PADA 00449300     ft2.obj
 0003:00000314       ?UploadRetractTimeoutKey@@3PADA 00449314     ft2.obj
 0003:00000329       ?CloseParen@@3DA           00449329     ft2.obj
 0003:0000032a       ?ColonChar@@3DA            0044932a     ft2.obj
 0003:0000032b       ?CommaChar@@3DA            0044932b     ft2.obj
 0003:0000032c       ?UploadStartShotTimeoutKey@@3PADA 0044932c     ft2.obj
 0003:00000343       ?CrChar@@3DA               00449343     ft2.obj
 0003:00000344       ?UseNullValveOutputKey@@3PADA 00449344     ft2.obj
 0003:00000357       ?DoubleQuoteChar@@3DA      00449357     ft2.obj
 0003:00000358       ?UseValveTestOutputKey@@3PADA 00449358     ft2.obj
 0003:0000036b       ?EqualsChar@@3DA           0044936b     ft2.obj
 0003:0000036c       ?StartControlPgmCmd@@3PADA 0044936c     ft2.obj
 0003:0000036f       ?EtxChar@@3DA              0044936f     ft2.obj
 0003:00000370       ?EnableShotXmitCmd@@3PADA  00449370     ft2.obj
 0003:00000376       ?ForwardSlashChar@@3DA     00449376     ft2.obj
 0003:00000377       ?LeftBracketChar@@3DA      00449377     ft2.obj
 0003:00000378       ?DisableShotXmitCmd@@3PADA 00449378     ft2.obj
 0003:0000037e       ?LeftCurlyBracket@@3DA     0044937e     ft2.obj
 0003:0000037f       ?LeftParen@@3DA            0044937f     ft2.obj
 0003:00000380       ?ShotXmitCmdLen@@3HA       00449380     ft2.obj
 0003:00000384       ?ShotSaveCompleteMessage@@3PADA 00449384     ft2.obj
 0003:00000395       ?LfChar@@3DA               00449395     ft2.obj
 0003:00000396       ?MinusChar@@3DA            00449396     ft2.obj
 0003:00000397       ?OpenParen@@3DA            00449397     ft2.obj
 0003:00000398       ?ShotSaveCompleteMessageLen@@3HA 00449398     ft2.obj
 0003:0000039c       ?START_OF_UPLOAD@@3PADA    0044939c     ft2.obj
 0003:000003ac       ?END_OF_UPLOAD@@3PADA      004493ac     ft2.obj
 0003:000003ba       ?PercentChar@@3DA          004493ba     ft2.obj
 0003:000003bb       ?PeriodChar@@3DA           004493bb     ft2.obj
 0003:000003bc       ?RESET_MACHINE_CMD@@3PADA  004493bc     ft2.obj
 0003:000003ca       ?PlusChar@@3DA             004493ca     ft2.obj
 0003:000003cb       ?PoundChar@@3DA            004493cb     ft2.obj
 0003:000003cc       ?CLEAR_NO_UPLOAD_FLAG_CMD@@3PADA 004493cc     ft2.obj
 0003:000003e1       ?QuoteChar@@3DA            004493e1     ft2.obj
 0003:000003e2       ?RightBracketChar@@3DA     004493e2     ft2.obj
 0003:000003e3       ?RightCurlyBracket@@3DA    004493e3     ft2.obj
 0003:000003e4       ?DONT_SEND_OP_DATA_PACKETS@@3PADA 004493e4     ft2.obj
 0003:000003ea       ?RightParen@@3DA           004493ea     ft2.obj
 0003:000003eb       ?SemiColonChar@@3DA        004493eb     ft2.obj
 0003:000003ec       ?SEND_OP_DATA_PACKETS@@3PADA 004493ec     ft2.obj
 0003:000003f2       ?SpaceChar@@3DA            004493f2     ft2.obj
 0003:000003f3       ?TabChar@@3DA              004493f3     ft2.obj
 0003:000003f4       ?CLEAR_CONTROL_FILE_DATE_CMD@@3PADA 004493f4     ft2.obj
 0003:000003fb       ?TildaChar@@3DA            004493fb     ft2.obj
 0003:000003fc       ?NormalCellColor@@3KA      004493fc     ft2.obj
 0003:00000400       ?GreenColor@@3KA           00449400     ft2.obj
 0003:00000404       ?OrangeColor@@3KA          00449404     ft2.obj
 0003:00000408       ?RedColor@@3KA             00449408     ft2.obj
 0003:0000040c       ?NofItems@@3HA             0044940c     ft2.obj
 0003:00000410       ?ItemList@@3PAUITEM_ENTRY@@A 00449410     ft2.obj
 0003:00000644       ?MyClassName@@3PADA        00449644     ft2.obj
 0003:0000064d       ?UnderScoreChar@@3DA       0044964d     ft2.obj
 0003:0000064e       ?ZeroChar@@3DA             0044964e     ft2.obj
 0003:0000064f       ?OneChar@@3DA              0044964f     ft2.obj
 0003:00000650       ?TerminalClassName@@3PADA  00449650     ft2.obj
 0003:0000065c       ?StatusClassName@@3PADA    0044965c     ft2.obj
 0003:00000666       ?TwoChar@@3DA              00449666     ft2.obj
 0003:00000667       ?ThreeChar@@3DA            00449667     ft2.obj
 0003:00000668       ?AccelName@@3PADA          00449668     ft2.obj
 0003:00000671       ?FourChar@@3DA             00449671     ft2.obj
 0003:00000672       ?FiveChar@@3DA             00449672     ft2.obj
 0003:00000673       ?SixChar@@3DA              00449673     ft2.obj
 0003:00000679       ?SevenChar@@3DA            00449679     ft2.obj
 0003:0000067a       ?StxChar@@3DA              0044967a     ft2.obj
 0003:0000067b       ?EightChar@@3DA            0044967b     ft2.obj
 0003:00000682       ?NineChar@@3DA             00449682     ft2.obj
 0003:000007c0       ?Button@@3PAURESOURCE_TEXT_ENTRY@@A 004497c0     ft2.obj
 0003:00000854       ?AsterixString@@3PADA      00449854     ft2.obj
 0003:00000858       ?CommaString@@3PADA        00449858     ft2.obj
 0003:0000085c       ?CrLfString@@3PADA         0044985c     ft2.obj
 0003:00000860       ?SpaceString@@3PADA        00449860     ft2.obj
 0003:00000864       ?StarDotStar@@3PADA        00449864     ft2.obj
 0003:00000868       ?ZeroPointZero@@3PADA      00449868     ft2.obj
 0003:0000086c       ?NofRows@@3HA              0044986c     ft2.obj
 0003:00000880       ?Char_Width@@3HA           00449880     ft2.obj
 0003:00000884       ?Line_Height@@3HA          00449884     ft2.obj
 0003:00000888       ?CurrentBoardIndex@@3HA    00449888     ft2.obj
 0003:0000088c       ?RetractWireMask@@3IA      0044988c     ft2.obj
 0003:00000890       ?CurrentWindow@@3VWINDOW_CLASS@@A 00449890     ft2.obj
 0003:00000898       ?MainWindow@@3VWINDOW_CLASS@@A 00449898     ft2.obj
 0003:000008a0       ?AutoShotDisplayWindow@@3VWINDOW_CLASS@@A 004498a0     ft2.obj
 0003:000008a8       ?CompareVariablesDialog@@3VWINDOW_CLASS@@A 004498a8     ft2.obj
 0003:000008b0       ?CurrentDacDialog@@3VWINDOW_CLASS@@A 004498b0     ft2.obj
 0003:000008b8       ?CurrentValuesDialog@@3VWINDOW_CLASS@@A 004498b8     ft2.obj
 0003:000008c0       ?GlobalParameterDialog@@3VWINDOW_CLASS@@A 004498c0     ft2.obj
 0003:000008c8       ?ControlModsDialog@@3VWINDOW_CLASS@@A 004498c8     ft2.obj
 0003:000008d0       ?SetNullDialog@@3VWINDOW_CLASS@@A 004498d0     ft2.obj
 0003:000008d8       ?SetDacDialog@@3VWINDOW_CLASS@@A 004498d8     ft2.obj
 0003:000008e0       ?StatusWindow@@3VWINDOW_CLASS@@A 004498e0     ft2.obj
 0003:000008e8       ?TerminalWindow@@3VWINDOW_CLASS@@A 004498e8     ft2.obj
 0003:000008f0       ?TestAlarmOutputsDialog@@3VWINDOW_CLASS@@A 004498f0     ft2.obj
 0003:000008f8       ?UploadFlashDialog@@3VWINDOW_CLASS@@A 004498f8     ft2.obj
 0003:00000900       ?ValveTestDialog@@3VWINDOW_CLASS@@A 00449900     ft2.obj
 0003:00000908       ?HiresSensorTestDialog@@3VWINDOW_CLASS@@A 00449908     ft2.obj
 0003:00000910       ?UploadAbortedDialog@@3VWINDOW_CLASS@@A 00449910     ft2.obj
 0003:00000918       ?ShutdownStatusDialog@@3VWINDOW_CLASS@@A 00449918     ft2.obj
 0003:00000920       ?OutputListDialog@@3VWINDOW_CLASS@@A 00449920     ft2.obj
 0003:00000928       ?NullStatusMessage@@3VWINDOW_CLASS@@A 00449928     ft2.obj
 0003:00000930       ?ManualInfoTbox@@3VWINDOW_CLASS@@A 00449930     ft2.obj
 0003:00000938       ?FtiiAutoNull@@3VFTII_VAR_ARRAY@@A 00449938     ft2.obj
 0003:00000954       ?CurrentMachineVars@@3VFTII_VAR_ARRAY@@A 00449954     ft2.obj
 0003:00000998       ?GlobalParameters@@3VFTII_VAR_ARRAY@@A 00449998     ft2.obj
 0003:000018d0       ?FileTimeoutError@@3PADA   0044a8d0     v5subs:dbsubs.obj
 0003:000018e4       ?FileNotFoundError@@3PADA  0044a8e4     v5subs:dbsubs.obj
 0003:000018f4       ?PathNotFoundError@@3PADA  0044a8f4     v5subs:dbsubs.obj
 0003:00001f78       ?PATTERN_INDEX@@3PBDB      0044af78     v5subs:shot_name.obj
 0003:00001f7c       ?FIELD_LENGTH_INDEX@@3PBDB 0044af7c     v5subs:shot_name.obj
 0003:00002094       ?ResultsString@@3PADA      0044b094     v5subs:partlist.obj
 0003:00002330       ___security_cookie         0044b330     LIBCMT:gs_cookie.obj
 0003:00002334       ___security_cookie_complement 0044b334     LIBCMT:gs_cookie.obj
 0003:00002338       __fltused                  0044b338     LIBCMT:fpinit.obj
 0003:0000233c       __ldused                   0044b33c     LIBCMT:fpinit.obj
 0003:000024c0       ___isa_enabled             0044b4c0     LIBCMT:cpu_disp.obj
 0003:000024d0       __cfltcvt_tab              0044b4d0     LIBCMT:cmiscdat.obj
 0003:000024f8       ___flsindex                0044b4f8     LIBCMT:tidtable.obj
 0003:00002500       ___badioinfo               0044b500     LIBCMT:ioinit.obj
 0003:00002540       __mbctype                  0044b540     LIBCMT:mbctype.obj
 0003:00002648       __mbcasemap                0044b648     LIBCMT:mbctype.obj
 0003:00002748       ___initialmbcinfo          0044b748     LIBCMT:mbctype.obj
 0003:0000296c       ___ptmbcinfo               0044b96c     LIBCMT:mbctype.obj
 0003:00002a60       ___mb_cur_max              0044ba60     LIBCMT:nlsdata.obj
 0003:00002a64       ___wclocalestr             0044ba64     LIBCMT:nlsdata.obj
 0003:00002a68       ___lc_time_c               0044ba68     LIBCMT:nlsdata.obj
 0003:00002bcc       ___ptlocinfo               0044bbcc     LIBCMT:nlsdata.obj
 0003:00002bd0       ___initiallocinfo          0044bbd0     LIBCMT:nlsdata.obj
 0003:00002c88       ___initiallocalestructinfo 0044bc88     LIBCMT:nlsdata.obj
 0003:00002c90       ___globallocalestatus      0044bc90     LIBCMT:glstatus.obj
 0003:00002ca0       __HUGE                     0044bca0     LIBCMT:huge.obj
 0003:00002da8       __d_inf                    0044bda8     LIBCMT:util.obj
 0003:00002db0       __d_ind                    0044bdb0     LIBCMT:util.obj
 0003:00002db8       __d_max                    0044bdb8     LIBCMT:util.obj
 0003:00002dc0       __d_min                    0044bdc0     LIBCMT:util.obj
 0003:00002dc8       __d_mzero                  0044bdc8     LIBCMT:util.obj
 0003:00002f10       __iob                      0044bf10     LIBCMT:_file.obj
 0003:000031c0       ___lconv                   0044c1c0     LIBCMT:lconv.obj
 0003:000031c4       ___lconv_static_decimal    0044c1c4     LIBCMT:lconv.obj
 0003:000031c8       ___lconv_c                 0044c1c8     LIBCMT:lconv.obj
 0003:00003218       ___lconv_static_W_decimal  0044c218     LIBCMT:lconv.obj
 0003:0000321c       __pctype                   0044c21c     LIBCMT:ctype.obj
 0003:00003220       __pwctype                  0044c220     LIBCMT:ctype.obj
 0003:00003224       __matherr_flag             0044c224     LIBCMT:matherr.obj
 0003:00003228       ___abort_behavior          0044c228     LIBCMT:abort.obj
 0003:00003230       __NLG_Destination          0044c230     LIBCMT:exsup.obj
 0003:00003240       __pow10pos                 0044c240     LIBCMT:constpow.obj
 0003:000033a0       __pow10neg                 0044c3a0     LIBCMT:constpow.obj
 0003:00003500       __confh                    0044c500     LIBCMT:initcon.obj
 0003:00003504       ??_R0?AVWINDOW_CLASS@@@8   0044c504     ft2.obj
 0003:00003520       ??_R0?AVFTII_VAR@@@8       0044c520     ft2.obj
 0003:00003538       ??_R0?AVFTII_VAR_ARRAY@@@8 0044c538     ft2.obj
 0003:00003558       ??_R0?AVDOUBLE_ARRAY_CLASS@@@8 0044c558     board_monitor.obj
 0003:0000357c       ??_R0?AVFTII_ARRAY_DATA@@@8 0044c57c     v5subs:ftii_shot_data.obj
 0003:0000359c       ??_R0?AVFTII_PROFILE@@@8   0044c59c     v5subs:ftii_shot_data.obj
 0003:000035b8       ??_R0?AVbad_alloc@std@@@8  0044c5b8     LIBCMT:new.obj
 0003:000035d4       ??_R0?AVexception@std@@@8  0044c5d4     LIBCMT:new.obj
 0003:000035f0       ??_R0?AVtype_info@@@8      0044c5f0     LIBCMT:typinfo.obj
 0003:00003620       ?NetworkLogFileEnabled@@3EA 0044c620     ft2.obj
 0003:00003621       ?SaveShotNameFiles@@3EA    0044c621     ft2.obj
 0003:00003622       ?ManualNullInProgress@@3_NA 0044c622     ft2.obj
 0003:00003624       ?UploadRetractTimeout@@3IA 0044c624     ft2.obj
 0003:00003628       ?UploadStartShotTimeout@@3IA 0044c628     ft2.obj
 0003:0000362c       ?NO_FT2_CONNECT_STATE@@3IA 0044c62c     ft2.obj
 0003:00003630       ?ShutdownState@@3HA        0044c630     ft2.obj
 0003:00003634       ?ShotSaveEvent@@3PAXA      0044c634     ft2.obj
 0003:00003638       ?CurrentAnalogValue@@3PAIA 0044c638     ft2.obj
 0003:00003698       ?BufPtr@@3PAPAUSHOT_BUFFER_ENTRY@@A 0044c698     ft2.obj
 0003:000036e8       ?AccelHandle@@3PAUHACCEL__@@A 0044c6e8     ft2.obj
 0003:000036ec       ?Dnu@@3PAPAUHWND__@@A      0044c6ec     ft2.obj
 0003:000036f4       ?MasterPen@@3PAUHPEN__@@A  0044c6f4     ft2.obj
 0003:00003708       ?MyDc@@3PAUHDC__@@A        0044c708     ft2.obj
 0003:000037e1       ?NullChar@@3DA             0044c7e1     ft2.obj
 0003:000037e6       ?EmptyString@@3PADA        0044c7e6     ft2.obj
 0003:000037e7       ?TerminalIsVisible@@3EA    0044c7e7     ft2.obj
 0003:000037e8       ?MainInstance@@3PAUHINSTANCE__@@A 0044c7e8     ft2.obj
 0003:000037ec       ?Epf@@3PAVEXTERNAL_PARAMETER_FILE_CLASS@@A 0044c7ec     ft2.obj
 0003:000037f0       ?NofEpf@@3HA               0044c7f0     ft2.obj
 0003:000037fc       ?OriEditControlProc@@3P6GJPAUHWND__@@IIJ@ZA 0044c7fc     ft2.obj
 0003:00003800       ?MainPushButton@@3PAUCONTROL_INFO@@A 0044c800     ft2.obj
 0003:00003804       ?AddressTbox@@3PAUCONTROL_INFO@@A 0044c804     ft2.obj
 0003:00003808       ?ConnectedTbox@@3PAUCONTROL_INFO@@A 0044c808     ft2.obj
 0003:0000380c       ?MachineTbox@@3PAUCONTROL_INFO@@A 0044c80c     ft2.obj
 0003:00003810       ?PartTbox@@3PAUCONTROL_INFO@@A 0044c810     ft2.obj
 0003:00003814       ?MonitorStatusTbox@@3PAUCONTROL_INFO@@A 0044c814     ft2.obj
 0003:00003818       ?MainEbox@@3PAUHWND__@@A   0044c818     ft2.obj
 0003:0000381c       ?CurrentValuesCommStatusTb@@3PAUHWND__@@A 0044c81c     ft2.obj
 0003:00003820       ?CurrentValuesMonitorStatusTb@@3PAUHWND__@@A 0044c820     ft2.obj
 0003:00003824       ?BoardMonitorIsRunning@@3_NA 0044c824     ft2.obj
 0003:00003825       ?ShotSaveIsRunning@@3_NA   0044c825     ft2.obj
 0003:00003826       ?ClearAlarmsEachShot@@3EA  0044c826     ft2.obj
 0003:00003827       ?ClearMonitorWireOnDown@@3EA 0044c827     ft2.obj
 0003:00003828       ?ClearDownWireFromPopup@@3EA 0044c828     ft2.obj
 0003:00003829       ?SaveAllAlarmShots@@3EA    0044c829     ft2.obj
 0003:0000382a       ?SubtractTimeoutFromAutoDown@@3EA 0044c82a     ft2.obj
 0003:0000382b       ?HasDigitalServoAmp@@3EA   0044c82b     ft2.obj
 0003:0000382c       ?NeedErrorLog@@3EA         0044c82c     ft2.obj
 0003:0000382d       ?IsHiresSensor@@3EA        0044c82d     ft2.obj
 0003:0000382e       ?IsRemoteMonitor@@3EA      0044c82e     ft2.obj
 0003:0000382f       ?AlsLogIsActive@@3EA       0044c82f     ft2.obj
 0003:00003830       ?LoggingSentCommands@@3EA  0044c830     ft2.obj
 0003:00003831       ?TurnOffAlarmsOnDown@@3EA  0044c831     ft2.obj
 0003:00003834       ?DownTimeAlarmWire@@3HA    0044c834     ft2.obj
 0003:00003838       ?MonitorWire@@3HA          0044c838     ft2.obj
 0003:0000383c       ?NoUploadWire@@3IA         0044c83c     ft2.obj
 0003:00003840       ?NoUploadWireMask@@3IA     0044c840     ft2.obj
 0003:00003844       ?RetractWire@@3IA          0044c844     ft2.obj
 0003:00003848       ?MainListBox@@3VLISTBOX_CLASS@@A 0044c848     ft2.obj
 0003:00003860       ?CurrentMachine@@3VMACHINE_CLASS@@A 0044c860     ft2.obj
 0003:00003908       ?CurrentPart@@3VPART_CLASS@@A 0044c908     ft2.obj
 0003:00003a58       ?CycleStartString@@3VSTRING_CLASS@@A 0044ca58     ft2.obj
 0003:00003a60       ?ComputerName@@3VSTRING_CLASS@@A 0044ca60     ft2.obj
 0003:00003a68       ?Connected@@3VSTRING_CLASS@@A 0044ca68     ft2.obj
 0003:00003a70       ?Connecting@@3VSTRING_CLASS@@A 0044ca70     ft2.obj
 0003:00003a78       ?NoConnectState@@3VSTRING_CLASS@@A 0044ca78     ft2.obj
 0003:00003a80       ?NoResponse@@3VSTRING_CLASS@@A 0044ca80     ft2.obj
 0003:00003a88       ?NotConnected@@3VSTRING_CLASS@@A 0044ca88     ft2.obj
 0003:00003a90       ?NotMonitored@@3VSTRING_CLASS@@A 0044ca90     ft2.obj
 0003:00003a98       ?UploadFailed@@3VSTRING_CLASS@@A 0044ca98     ft2.obj
 0003:00003aa0       ?SavingString@@3VSTRING_CLASS@@A 0044caa0     ft2.obj
 0003:00003aa8       ?ZeroStrokeLength@@3VSTRING_CLASS@@A 0044caa8     ft2.obj
 0003:00003ab0       ?NetworkLogFile@@3VSTRING_CLASS@@A 0044cab0     ft2.obj
 0003:00003ab8       ?AnalogSensor@@3VANALOG_SENSOR@@A 0044cab8     ft2.obj
 0003:00003abc       ?StepMessage@@3VBLOCK_MESSAGE_CLASS@@A 0044cabc     ft2.obj
 0003:00003ac8       ?CurrentOpStatus@@3UFTII_OP_STATUS_DATA@@A 0044cac8     ft2.obj
 0003:00003b2c       ?ShutdownStatusListbox@@3VLISTBOX_CLASS@@A 0044cb2c     ft2.obj
 0003:00003b40       ?OutputListbox@@3VLISTBOX_CLASS@@A 0044cb40     ft2.obj
 0003:00003b94       ?FontList@@3VFONT_LIST_CLASS@@A 0044cb94     ft2.obj
 0003:00003bd8       ?MainMenu@@3VMENU_CONTROL_ENTRY@@A 0044cbd8     ft2.obj
 0003:00003c98       ?TerminalMenu@@3VMENU_CONTROL_ENTRY@@A 0044cc98     ft2.obj
 0003:00003d58       ?StringTable@@3VSTRINGTABLE_CLASS@@A 0044cd58     ft2.obj
 0003:00003da0       ?MainWindowClientRect@@3VRECTANGLE_CLASS@@A 0044cda0     ft2.obj
 0003:00003db0       ?MainWindowMoveRect@@3VRECTANGLE_CLASS@@A 0044cdb0     ft2.obj
 0003:00006e38       ?UploadAbortedList@@3VTEXT_LIST_CLASS@@A 0044fe38     ft2.obj
 0003:00006ec0       ?InputBitControl@@3PAUBIT_CONTROL@@A 0044fec0     ft2.obj
 0003:00006fe0       ?OutputBitControl@@3PAUBIT_CONTROL@@A 0044ffe0     ft2.obj
 0003:0000b1cc       ?Boards@@3PAVFTII_BOARD_ENTRY@@A 004541cc     board_monitor.obj
 0003:0000b1d0       ?NofBoards@@3HA            004541d0     board_monitor.obj
 0003:0000b334       ?Worker@@3VWORKER_LIST_CLASS@@A 00454334     shotsave.obj
 0003:0000b3c4       ?SkipList@@3VGENERIC_LIST_CLASS@@A 004543c4     skip.obj
 0003:0000b3d4       ___@@_PchSym_@00@UhlfixvhUevihrlmIUvnkgbUuivvUvnkgbOlyq@6B73A80F87A14A31 004543d4     empty.obj
 0003:0000b42f       ?emptystring@STRING_CLASS@@0PADA 0045442f     v5subs:stringcl.obj
 0003:0000bb54       ?Shifts@@3PAUSHIFT@@A      00454b54     v5subs:shift.obj
 0003:0000bb58       ?NofShifts@@3FA            00454b58     v5subs:shift.obj
 0003:0000bd7c       ___fastflag                00454d7c     LIBCMT:fpinit.obj
 0003:0000c0a0       __aenvptr                  004550a0     LIBCMT:wincrt0.obj
 0003:0000c0a4       __wenvptr                  004550a4     LIBCMT:wincrt0.obj
 0003:0000c0a8       ?_pnhHeap@@3P6AHI@ZA       004550a8     LIBCMT:handler.obj
 0003:0000c0ac       __C_Exit_Done              004550ac     LIBCMT:crt0dat.obj
 0003:0000c0b0       ___argc                    004550b0     LIBCMT:crt0dat.obj
 0003:0000c0b4       ___argv                    004550b4     LIBCMT:crt0dat.obj
 0003:0000c0b8       ___wargv                   004550b8     LIBCMT:crt0dat.obj
 0003:0000c0bc       __environ                  004550bc     LIBCMT:crt0dat.obj
 0003:0000c0c0       __wenviron                 004550c0     LIBCMT:crt0dat.obj
 0003:0000c0c4       __pgmptr                   004550c4     LIBCMT:crt0dat.obj
 0003:0000c0c8       __wpgmptr                  004550c8     LIBCMT:crt0dat.obj
 0003:0000c0cc       __umaskval                 004550cc     LIBCMT:crt0dat.obj
 0003:0000c0d0       __exitflag                 004550d0     LIBCMT:crt0dat.obj
 0003:0000c0d4       __C_Termination_Done       004550d4     LIBCMT:crt0dat.obj
 0003:0000c0d8       ___winitenv                004550d8     LIBCMT:crt0dat.obj
 0003:0000c0dc       ___initenv                 004550dc     LIBCMT:crt0dat.obj
 0003:0000c0e0       __maxwait                  004550e0     LIBCMT:crtheap.obj
 0003:0000c0e4       ___isa_available           004550e4     LIBCMT:cpu_disp.obj
 0003:0000c0e8       ___favor                   004550e8     LIBCMT:cpu_disp.obj
 0003:0000c0f4       ___pInvalidArgHandler      004550f4     LIBCMT:invarg.obj
 0003:0000c0f8       __crtheap                  004550f8     LIBCMT:heapinit.obj
 0003:0000c100       ___pioinfo                 00455100     LIBCMT:ioinit.obj
 0003:0000c308       ___app_type                00455308     LIBCMT:crt0msg.obj
 0003:0000c938       ___error_mode              00455938     LIBCMT:errmode.obj
 0003:0000c93c       ___mbcodepage              0045593c     LIBCMT:mbctype.obj
 0003:0000c940       ___ismbcodepage            00455940     LIBCMT:mbctype.obj
 0003:0000c944       ___mbulinfo                00455944     LIBCMT:mbctype.obj
 0003:0000c950       ___mblocalename            00455950     LIBCMT:mbctype.obj
 0003:0000c958       ___locale_changed          00455958     LIBCMT:wsetloca.obj
 0003:0000c960       __newmode                  00455960     LIBCMT:_newmode.obj
 0003:0000cab8       ?__pInconsistency@@3P6AXXZA 00455ab8     LIBCMT:hooks.obj
 0003:0000cabc       ___pPurecall               00455abc     LIBCMT:inithelp.obj
 0003:0000cad8       __stdbuf                   00455ad8     LIBCMT:_sftbuf.obj
 0003:0000cae0       ?pArgList@UnDecorator@@0PAVReplicator@@A 00455ae0     LIBCMT:undname.obj
 0003:0000cae4       ?pZNameList@UnDecorator@@0PAVReplicator@@A 00455ae4     LIBCMT:undname.obj
 0003:0000cae8       ?pTemplateArgList@UnDecorator@@0PAVReplicator@@A 00455ae8     LIBCMT:undname.obj
 0003:0000caec       ?gName@UnDecorator@@0PBDB  00455aec     LIBCMT:undname.obj
 0003:0000caf0       ?name@UnDecorator@@0PBDB   00455af0     LIBCMT:undname.obj
 0003:0000caf4       ?outputString@UnDecorator@@0PADA 00455af4     LIBCMT:undname.obj
 0003:0000caf8       ?maxStringLength@UnDecorator@@0HA 00455af8     LIBCMT:undname.obj
 0003:0000cafc       ?disableFlags@UnDecorator@@0KA 00455afc     LIBCMT:undname.obj
 0003:0000cb00       ?fExplicitTemplateParams@UnDecorator@@0_NA 00455b00     LIBCMT:undname.obj
 0003:0000cb01       ?fGetTemplateArgumentList@UnDecorator@@0_NA 00455b01     LIBCMT:undname.obj
 0003:0000cb04       ?m_pGetParameter@UnDecorator@@0P6APADJ@ZA 00455b04     LIBCMT:undname.obj
 0003:0000cb1c       __outputformat             00455b1c     LIBCMT:outputformat.obj
 0003:0000cb20       __cflush                   00455b20     LIBCMT:_file.obj
 0003:0000cb38       ___lconv_static_null       00455b38     LIBCMT:lconv.obj
 0003:0000cb3c       ___lconv_static_W_null     00455b3c     LIBCMT:lconv.obj
 0003:0000cb60       __bufin                    00455b60     <common>
 0003:0000db60       ___piob                    00456b60     <common>
 0003:0000db64       __nstream                  00456b64     <common>
 0003:0000db68       ___use_sse2_mathfcns       00456b68     <common>
 0003:0000db6c       __pmatherr                 00456b6c     <common>
 0003:0000db70       __nhandle                  00456b70     <common>
 0003:0000db74       __debugger_hook_dummy      00456b74     <common>
 0003:0000db80       _encodedKERNEL32Functions  00456b80     <common>
 0003:0000dc04       __pDestructExceptionObject 00456c04     <common>
 0003:0000dc08       ___dyn_tls_init_callback   00456c08     <common>
 0003:0000dc0c       ___onexitend               00456c0c     <common>
 0003:0000dc10       ___onexitbegin             00456c10     <common>
 0003:0000dc14       ___mbctype_initialized     00456c14     <common>
 0003:0000dc18       ___env_initialized         00456c18     <common>
 0003:0000dc1c       __acmdln                   00456c1c     <common>

 entry point at        0001:00031830

 Static symbols

 0002:fffc1000       .idata$6                   00400000     comdlg32:COMDLG32.dll
 0001:00000000       ??__EAltStepAcc@@YAXXZ     00401000 f   ft2.obj
 0001:00000016       ??__EAltStepAccPrefix@@YAXXZ 00401016 f   ft2.obj
 0001:0000002c       ??__EAltStepEnd@@YAXXZ     0040102c f   ft2.obj
 0001:00000042       ??__EAltStepNum@@YAXXZ     00401042 f   ft2.obj
 0001:00000058       ??__EAltStepPos@@YAXXZ     00401058 f   ft2.obj
 0001:0000006e       ??__EAltStepPosPrefix@@YAXXZ 0040106e f   ft2.obj
 0001:00000084       ??__EAltStepVel@@YAXXZ     00401084 f   ft2.obj
 0001:0000009a       ??__EAltStepVelPrefix@@YAXXZ 0040109a f   ft2.obj
 0001:000000b0       ??__EAnalogSensor@@YAXXZ   004010b0 f   ft2.obj
 0001:000000c6       ??__EAutoBack@@YAXXZ       004010c6 f   ft2.obj
 0001:000000dc       ??__EAutoShotDisplayWindow@@YAXXZ 004010dc f   ft2.obj
 0001:000000e8       ??__EBoardVariable@@YAXXZ  004010e8 f   ft2.obj
 0001:0000010f       ??__EBoardVariableDescription@@YAXXZ 0040110f f   ft2.obj
 0001:00000136       ??__ECVCurrentVariableTb@@YAXXZ 00401136 f   ft2.obj
 0001:00000142       ??__ECVGettingTb@@YAXXZ    00401142 f   ft2.obj
 0001:0000014e       ??__ECVLb@@YAXXZ           0040114e f   ft2.obj
 0001:0000015a       ??__ECVofTb@@YAXXZ         0040115a f   ft2.obj
 0001:00000166       ??__ECmdString@@YAXXZ      00401166 f   ft2.obj
 0001:0000017c       ??__ECompareVariablesDialog@@YAXXZ 0040117c f   ft2.obj
 0001:00000188       ??__EComputerName@@YAXXZ   00401188 f   ft2.obj
 0001:0000019e       ??__EConnected@@YAXXZ      0040119e f   ft2.obj
 0001:000001b4       ??__EConnecting@@YAXXZ     004011b4 f   ft2.obj
 0001:000001ca       ??__EControlModsDialog@@YAXXZ 004011ca f   ft2.obj
 0001:000001d6       ??__ECurrentDacDialog@@YAXXZ 004011d6 f   ft2.obj
 0001:000001e2       ??__ECurrentMachine@@YAXXZ 004011e2 f   ft2.obj
 0001:000001f8       ??__ECurrentMachineVars@@YAXXZ 004011f8 f   ft2.obj
 0001:00000204       ??__ECurrentOpStatus@@YAXXZ 00401204 f   ft2.obj
 0001:0000020e       ??__ECurrentPart@@YAXXZ    0040120e f   ft2.obj
 0001:00000224       ??__ECurrentValuesDialog@@YAXXZ 00401224 f   ft2.obj
 0001:00000230       ??__ECurrentWindow@@YAXXZ  00401230 f   ft2.obj
 0001:0000023c       ??__ECycleStartString@@YAXXZ 0040123c f   ft2.obj
 0001:00000252       ??__EErrorLog@@YAXXZ       00401252 f   ft2.obj
 0001:00000268       ??__EExternalParameterFifo@@YAXXZ 00401268 f   ft2.obj
 0001:0000027e       ??__EFontList@@YAXXZ       0040127e f   ft2.obj
 0001:00000294       ??__EFt2TestDialog@@YAXXZ  00401294 f   ft2.obj
 0001:000002a0       ??__EFtiiAutoNull@@YAXXZ   004012a0 f   ft2.obj
 0001:000002ac       ??__EGlobalParameterDialog@@YAXXZ 004012ac f   ft2.obj
 0001:000002b8       ??__EGlobalParameters@@YAXXZ 004012b8 f   ft2.obj
 0001:000002c4       ??__EHiresSensorTestDialog@@YAXXZ 004012c4 f   ft2.obj
 0001:000002d0       ??__EInputBitControl@@YAXXZ 004012d0 f   ft2.obj
 0001:000002f5       ??__EInputOpto@@YAXXZ      004012f5 f   ft2.obj
 0001:00000319       ??__ELvdtString@@YAXXZ     00401319 f   ft2.obj
 0001:0000032f       ??__EMainListBox@@YAXXZ    0040132f f   ft2.obj
 0001:0000033b       ??__EMainMenu@@YAXXZ       0040133b f   ft2.obj
 0001:00000351       ??__EMainWindow@@YAXXZ     00401351 f   ft2.obj
 0001:0000035d       ??__EMainWindowClientRect@@YAXXZ 0040135d f   ft2.obj
 0001:00000373       ??__EMainWindowMoveRect@@YAXXZ 00401373 f   ft2.obj
 0001:00000389       ??__EManualInfoTbox@@YAXXZ 00401389 f   ft2.obj
 0001:00000395       ??__EMeasString@@YAXXZ     00401395 f   ft2.obj
 0001:000003ab       ??__EMonitorStatusControl@@YAXXZ 004013ab f   ft2.obj
 0001:000003d6       ??__ENetworkLogFile@@YAXXZ 004013d6 f   ft2.obj
 0001:000003ec       ??__ENoConnectState@@YAXXZ 004013ec f   ft2.obj
 0001:00000402       ??__ENoResponse@@YAXXZ     00401402 f   ft2.obj
 0001:00000418       ??__ENotConnected@@YAXXZ   00401418 f   ft2.obj
 0001:0000042e       ??__ENotMonitored@@YAXXZ   0040142e f   ft2.obj
 0001:00000444       ??__ENullStatusMessage@@YAXXZ 00401444 f   ft2.obj
 0001:00000450       ??__EOutputBitControl@@YAXXZ 00401450 f   ft2.obj
 0001:00000475       ??__EOutputListDialog@@YAXXZ 00401475 f   ft2.obj
 0001:00000481       ??__EOutputListbox@@YAXXZ  00401481 f   ft2.obj
 0001:0000048d       ??__EOutputOpto@@YAXXZ     0040148d f   ft2.obj
 0001:000004b1       ??__EParkStep2Num@@YAXXZ   004014b1 f   ft2.obj
 0001:000004c7       ??__EParkStepNum@@YAXXZ    004014c7 f   ft2.obj
 0001:000004dd       ??__EParkStepVolts@@YAXXZ  004014dd f   ft2.obj
 0001:000004f3       ??__EParkStepVoltsPrefix@@YAXXZ 004014f3 f   ft2.obj
 0001:00000509       ??__EResumeDialog@@YAXXZ   00401509 f   ft2.obj
 0001:00000515       ??__ESavingString@@YAXXZ   00401515 f   ft2.obj
 0001:0000052b       ??__ESetDacDialog@@YAXXZ   0040152b f   ft2.obj
 0001:00000537       ??__ESetNullDialog@@YAXXZ  00401537 f   ft2.obj
 0001:00000543       ??__EShutdownStatusDialog@@YAXXZ 00401543 f   ft2.obj
 0001:0000054f       ??__EShutdownStatusListbox@@YAXXZ 0040154f f   ft2.obj
 0001:0000055b       ??__EStartScreen@@YAXXZ    0040155b f   ft2.obj
 0001:00000571       ??__EStartStepNum@@YAXXZ   00401571 f   ft2.obj
 0001:00000587       ??__EStartStepVolts@@YAXXZ 00401587 f   ft2.obj
 0001:0000059d       ??__EStartStepVoltsPrefix@@YAXXZ 0040159d f   ft2.obj
 0001:000005b3       ??__EStatusWindow@@YAXXZ   004015b3 f   ft2.obj
 0001:000005bf       ??__EStepMessage@@YAXXZ    004015bf f   ft2.obj
 0001:000005d5       ??__EStringTable@@YAXXZ    004015d5 f   ft2.obj
 0001:000005eb       ??__ETerminalMenu@@YAXXZ   004015eb f   ft2.obj
 0001:00000601       ??__ETerminalWindow@@YAXXZ 00401601 f   ft2.obj
 0001:0000060d       ??__ETestAlarmOpto@@YAXXZ  0040160d f   ft2.obj
 0001:00000631       ??__ETestAlarmOutputsDialog@@YAXXZ 00401631 f   ft2.obj
 0001:0000063d       ??__EUploadAbortedDialog@@YAXXZ 0040163d f   ft2.obj
 0001:00000649       ??__EUploadAbortedList@@YAXXZ 00401649 f   ft2.obj
 0001:0000065f       ??__EUploadFailed@@YAXXZ   0040165f f   ft2.obj
 0001:00000675       ??__EUploadFlashDialog@@YAXXZ 00401675 f   ft2.obj
 0001:00000681       ??__EValveTestDialog@@YAXXZ 00401681 f   ft2.obj
 0001:0000068d       ??__EWireString@@YAXXZ     0040168d f   ft2.obj
 0001:000006a3       ??__EZeroStrokeLength@@YAXXZ 004016a3 f   ft2.obj
 0001:000006b9       ??__EAckList@@YAXXZ        004016b9 f   board_monitor.obj
 0001:000006cf       ??__EAckMessageStore@@YAXXZ 004016cf f   board_monitor.obj
 0001:000006e5       ??__ENewData@@YAXXZ        004016e5 f   board_monitor.obj
 0001:000006fb       ??__EReceivedAcks@@YAXXZ   004016fb f   board_monitor.obj
 0001:00000711       ??__ESocketMessageStore@@YAXXZ 00401711 f   board_monitor.obj
 0001:00000727       ??__EStdDown@@YAXXZ        00401727 f   board_monitor.obj
 0001:00000733       ??__EEosEndFile@@YAXXZ     00401733 f   shotsave.obj
 0001:00000749       ??__EEosPyramidLines@@YAXXZ 00401749 f   shotsave.obj
 0001:00000754       ??__EEosStartFile@@YAXXZ   00401754 f   shotsave.obj
 0001:0000076a       ??__EWorker@@YAXXZ         0040176a f   shotsave.obj
 0001:00000776       ??__ESkipList@@YAXXZ       00401776 f   skip.obj
 0001:00000782       ??__EEmptyString@@YAXXZ    00401782 f   v5subs:nameclas.obj
 0001:00000798       ??__EMyComputer@@YAXXZ     00401798 f   v5subs:nameclas.obj
 0001:000007a2       ??__EEmptySensor@@YAXXZ    004017a2 f   v5subs:asensor.obj
 0001:000007b8       ??__EMyComputer@@YAXXZ     004017b8 f   v5subs:computer.obj
 0001:000007ce       ??__ENoComputer@@YAXXZ     004017ce f   v5subs:computer.obj
 0001:000007e4       ??__EEmptyString@@YAXXZ    004017e4 f   v5subs:machname.obj
 0001:000007fa       ??__EFontList@@YAXXZ       004017fa f   v5subs:optocontrol.obj
 0001:00000810       ??__Eempty_entry@@YAXXZ    00401810 f   v5subs:setpoint.obj
 0001:00000830       ??__EBaseDir@@YAXXZ        00401830 f   v5subs:stringtable.obj
 0001:00000846       ??__EDefaultLanguage@@YAXXZ 00401846 f   v5subs:stringtable.obj
 0001:00000861       ??__EFontList@@YAXXZ       00401861 f   v5subs:stringtable.obj
 0001:00000877       ??__EResources@@YAXXZ      00401877 f   v5subs:stringtable.obj
 0001:00000892       ??__EEventList@@YAXXZ      00401892 f   v5subs:client.obj
 0001:0000089e       ??__EExeDirectory@@YAXXZ   0040189e f   v5subs:gexedir.obj
 0001:000008b4       ??__ET@@YAXXZ              004018b4 f   v5subs:semaphor.obj
 0001:000008ca       ??__EFontList@@YAXXZ       004018ca f   v5subs:menuctrl.obj
 0001:000008e0       ??__EEmpty@@YAXXZ          004018e0 f   v5subs:runlist.obj
 0001:000008fd       ??__EMyEmptyString@@YAXXZ  004018fd f   v5subs:shot_name_reset.obj
 0001:00000b4c       ?add_board_variable_to_list@@YAXPAD@Z 00401b4c f   ft2.obj
 0001:00000c80       ?add_wire_description@@YAXAAVSTRING_CLASS@@PADHI@Z 00401c80 f   ft2.obj
 0001:00000d7e       ?ascii_0_to_5_volts@@YAPADI@Z 00401d7e f   ft2.obj
 0001:00000dba       ?ascii_dac_volts@@YAPADI@Z 00401dba f   ft2.obj
 0001:00000dfe       ?ascii_dac_volts_3@@YAPADI@Z 00401dfe f   ft2.obj
 0001:00001093       ?check_disk_free_space@@YAXXZ 00402093 f   ft2.obj
 0001:000010cc       ?check_for_new_board@@YAXXZ 004020cc f   ft2.obj
 0001:0000111e       ?check_for_savepart_updates@@YAXXZ 0040211e f   ft2.obj
 0001:00001274       ?check_for_workstation@@YAXXZ 00402274 f   ft2.obj
 0001:000012c7       ?check_terminal_position@@YAXXZ 004022c7 f   ft2.obj
 0001:000016e9       ?copy_mods_to_screen@@YAXXZ 004026e9 f   ft2.obj
 0001:00001892       ?create_controls@@YAXH@Z   00402892 f   ft2.obj
 0001:000021e0       ?create_diagnostic_dialogs@@YAXXZ 004031e0 f   ft2.obj
 0001:000022c3       ?create_tooltips@@YAXXZ    004032c3 f   ft2.obj
 0001:00002d3a       ?digital_pot_setting@@YAIH@Z 00403d3a f   ft2.obj
 0001:00002d6a       ?do_alt_step_type_select@@YAXXZ 00403d6a f   ft2.obj
 0001:00002dca       ?do_config_word@@YAXPAD@Z  00403dca f   ft2.obj
 0001:00002e3c       ?do_external_parameter_timer@@YAXXZ 00403e3c f   ft2.obj
 0001:0000351f       ?do_hires_sensor_test_timer@@YAXPAUHWND__@@@Z 0040451f f   ft2.obj
 0001:00003612       ?do_new_alarm_output_values@@YAXXZ 00404612 f   ft2.obj
 0001:0000365b       ?do_new_current_values@@YAXXZ 0040465b f   ft2.obj
 0001:0000429c       ?do_new_ft2_connect_state@@YAXIJ@Z 0040529c f   ft2.obj
 0001:000043db       ?do_new_oscilloscope_data@@YAXJ@Z 004053db f   ft2.obj
 0001:00004445       ?do_new_rt_data@@YAXIJ@Z   00405445 f   ft2.obj
 0001:00004526       ?do_new_set_dac_values@@YAXXZ 00405526 f   ft2.obj
 0001:00004941       ?do_new_set_null_values@@YAXXZ 00405941 f   ft2.obj
 0001:000049e1       ?do_opto_click@@YAXIJ@Z    004059e1 f   ft2.obj
 0001:00004a31       ?do_updown@@YAXH@Z         00405a31 f   ft2.obj
 0001:00004ae4       ?dock_terminal@@YAXXZ      00405ae4 f   ft2.obj
 0001:00004d53       ?exit_main_proc@@YAXXZ     00405d53 f   ft2.obj
 0001:00004d98       ?extract_alt_step_velocity@@YAXAAVSTRING_CLASS@@@Z 00405d98 f   ft2.obj
 0001:00004e57       ?fill_global_parameters@@YAXXZ 00405e57 f   ft2.obj
 0001:00005308       ?fill_machine_listbox@@YAEPAUHWND__@@@Z 00406308 f   ft2.obj
 0001:0000553c       ?get_alt_step_from_line@@YAXPAD@Z 0040653c f   ft2.obj
 0001:0000564a       ?get_alt_step_velocity_for_ebox@@YAXAAVSTRING_CLASS@@@Z 0040664a f   ft2.obj
 0001:0000577a       ?get_ascii_rt_data@@YAXJ@Z 0040677a f   ft2.obj
 0001:00005a48       ?get_board_variable_descriptions@@YAXXZ 00406a48 f   ft2.obj
 0001:00005c73       ?get_history_length@@YAXXZ 00406c73 f   ft2.obj
 0001:00005cf7       ?get_next_upload_aborted_machine@@YA_NXZ 00406cf7 f   ft2.obj
 0001:00005d70       ?get_string_value_from_line@@YAPADPAD@Z 00406d70 f   ft2.obj
 0001:00005e1f       ?hide_terminal_window@@YAXXZ 00406e1f f   ft2.obj
 0001:00005fe6       ?id_enabled@@YAEH@Z        00406fe6 f   ft2.obj
 0001:0000671b       ?init_control_mods_dialog@@YAXXZ 0040771b f   ft2.obj
 0001:00006803       ?init_current_values_dialog@@YAXXZ 00407803 f   ft2.obj
 0001:00006c64       ?init_set_dac_dialog@@YAXXZ 00407c64 f   ft2.obj
 0001:00006d92       ?init_valve_test_data@@YAXXZ 00407d92 f   ft2.obj
 0001:00006f4e       ?load_control_mods_from_file@@YA_NXZ 00407f4e f   ft2.obj
 0001:00007260       ?load_current_part@@YAXXZ  00408260 f   ft2.obj
 0001:000072f0       ?load_limit_switch_wires_for_realtime_output_display@@YAXXZ 004082f0 f   ft2.obj
 0001:0000739b       ?load_machine_vars@@YAEXZ  0040839b f   ft2.obj
 0001:00007478       ?load_main_menu@@YAXXZ     00408478 f   ft2.obj
 0001:000074bd       ?load_master_trace@@YAXXZ  004084bd f   ft2.obj
 0001:000076c9       ?load_resources@@YAXXZ     004086c9 f   ft2.obj
 0001:00007798       ?load_terminal_menu@@YAXXZ 00408798 f   ft2.obj
 0001:00007876       ?log_input_bits@@YAXXZ     00408876 f   ft2.obj
 0001:00007910       ?log_output_bits@@YAXXZ    00408910 f   ft2.obj
 0001:0000814c       $LN193                     0040914c     ft2.obj
 0001:00008170       ?mv_from_percent@@YAHAAVSTRING_CLASS@@@Z 00409170 f   ft2.obj
 0001:000081e4       ?mv_from_percent@@YAHN@Z   004091e4 f   ft2.obj
 0001:0000825f       ?need_monitor_brush@@YAPAUHBRUSH__@@PAUHWND__@@@Z 0040925f f   ft2.obj
 0001:000085a8       ?nof_ft2_boards@@YAHXZ     004095a8 f   ft2.obj
 0001:00008691       ?output_list_update@@YAXXZ 00409691 f   ft2.obj
 0001:00008bbf       ?percent_from_mv@@YAPADH@Z 00409bbf f   ft2.obj
 0001:00008be0       ?percent_to_hex@@YAPADN@Z  00409be0 f   ft2.obj
 0001:00008c53       ?plot_oscilloscope_data@@YAXPAH@Z 00409c53 f   ft2.obj
 0001:00008fa7       ?position_button_child@@YAXAAVWINDOW_CLASS@@@Z 00409fa7 f   ft2.obj
 0001:00009093       ?position_ft2_test_dialog@@YAXXZ 0040a093 f   ft2.obj
 0001:00009134       ?position_main_window@@YAXXZ 0040a134 f   ft2.obj
 0001:0000922f       ?position_shutdown_status_dialog@@YAXPAUHWND__@@@Z 0040a22f f   ft2.obj
 0001:00009346       ?put_byte@@YAXAAIIH@Z      0040a346 f   ft2.obj
 0001:00009416       ?refresh_current_machine@@YAXAAVSTRING_CLASS@@@Z 0040a416 f   ft2.obj
 0001:00009444       ?refresh_current_values@@YAXXZ 0040a444 f   ft2.obj
 0001:00009601       ?refresh_set_dac_dialog@@YAXXZ 0040a601 f   ft2.obj
 0001:000096ec       ?refresh_valve_test_screen@@YAXXZ 0040a6ec f   ft2.obj
 0001:00009761       ?remote_shutdown@@YAXXZ    0040a761 f   ft2.obj
 0001:00009f7a       ?restore_saved_board_variables@@YAEXZ 0040af7a f   ft2.obj
 0001:0000a0a9       ?retry_upload_to_aborted_machine@@YAXXZ 0040b0a9 f   ft2.obj
 0001:0000a0fe       ?save_board_variables@@YAXXZ 0040b0fe f   ft2.obj
 0001:0000a1be       ?save_channel_mode@@YAXH@Z 0040b1be f   ft2.obj
 0001:0000a238       ?save_control_mod_changes@@YAXXZ 0040b238 f   ft2.obj
 0001:0000a440       ?save_global_parameters@@YAXXZ 0040b440 f   ft2.obj
 0001:0000a87e       ?save_listbox@@YAXXZ       0040b87e f   ft2.obj
 0001:0000a8e1       ?save_machine_vars@@YAEXZ  0040b8e1 f   ft2.obj
 0001:0000a98d       ?save_master_trace@@YAXXZ  0040b98d f   ft2.obj
 0001:0000aa65       ?save_null_value@@YAXXZ    0040ba65 f   ft2.obj
 0001:0000aaf1       ?scroll_listbox_to_last_entry@@YAXXZ 0040baf1 f   ft2.obj
 0001:0000ab20       ?send_auto_null_command@@YAXXZ 0040bb20 f   ft2.obj
 0001:0000ab77       ?send_channel_mode_command@@YAHXZ 0040bb77 f   ft2.obj
 0001:0000abf4       ?send_channel_mode_command@@YAXH@Z 0040bbf4 f   ft2.obj
 0001:0000ac45       ?send_command@@YAXPAD0_N@Z 0040bc45 f   ft2.obj
 0001:0000ac83       ?send_command_to_current_machine@@YAXPAD_N@Z 0040bc83 f   ft2.obj
 0001:0000ad27       ?send_current_digital_pot_command@@YAXXZ 0040bd27 f   ft2.obj
 0001:0000adf0       ?send_data_server_down_notification@@YAXPAD@Z 0040bdf0 f   ft2.obj
 0001:0000ae47       ?send_data_server_shot_notification@@YAXPAD0@Z 0040be47 f   ft2.obj
 0001:0000aeb6       ?send_lvdt_digital_pot_command@@YAXE@Z 0040beb6 f   ft2.obj
 0001:0000b094       ?send_manual_null_command@@YAXXZ 0040c094 f   ft2.obj
 0001:0000b468       ?send_test_message@@YAXH@Z 0040c468 f   ft2.obj
 0001:0000b614       $LN23                      0040c614     ft2.obj
 0001:0000b64c       ?set_channel_5_8_labels@@YAXH@Z 0040c64c f   ft2.obj
 0001:0000bb84       ?set_current_window@@YAXAAVWINDOW_CLASS@@@Z 0040cb84 f   ft2.obj
 0001:0000c3f3       ?set_globals_from_eboxes@@YAXPAUHWND__@@@Z 0040d3f3 f   ft2.obj
 0001:0000c565       ?set_gray_menu_items@@YAXXZ 0040d565 f   ft2.obj
 0001:0000c753       ?set_output_list_setup_strings@@YAXPAUHWND__@@@Z 0040d753 f   ft2.obj
 0001:0000c7b5       ?should_be_hex@@YAEPAD0@Z  0040d7b5 f   ft2.obj
 0001:0000c85d       ?show_alt_step@@YAXXZ      0040d85d f   ft2.obj
 0001:0000c889       ?show_alt_step_controls@@YAXXZ 0040d889 f   ft2.obj
 0001:0000c936       ?show_buttons@@YAXXZ       0040d936 f   ft2.obj
 0001:0000c989       ?show_park_step@@YAXXZ     0040d989 f   ft2.obj
 0001:0000c9f5       ?show_revision_d_controls@@YAXXZ 0040d9f5 f   ft2.obj
 0001:0000ca80       ?show_start_step@@YAXXZ    0040da80 f   ft2.obj
 0001:0000caec       ?show_upload_aborted_dialog@@YAXH@Z 0040daec f   ft2.obj
 0001:0000cbaf       ?show_valve_test_revision_d_controls@@YAXXZ 0040dbaf f   ft2.obj
 0001:0000cc0c       ?showbits@@YAPADPADI@Z     0040dc0c f   ft2.obj
 0001:0000cca1       ?shutdown@@YAXXZ           0040dca1 f   ft2.obj
 0001:0000ce66       ?size_opto_button@@YAXXZ   0040de66 f   ft2.obj
 0001:0000cfc6       ?size_output_list_dialog@@YAXXZ 0040dfc6 f   ft2.obj
 0001:0000d02d       ?size_terminal@@YAXXZ      0040e02d f   ft2.obj
 0001:0000d0e2       ?start_acquiring_all_board_variables@@YAEH@Z 0040e0e2 f   ft2.obj
 0001:0000d62b       ?stop_hires_sensor_test@@YAXXZ 0040e62b f   ft2.obj
 0001:0000d8b2       ?toggle_io_display@@YAXXZ  0040e8b2 f   ft2.obj
 0001:0000da35       ?toggle_logging_sent_commands@@YAXXZ 0040ea35 f   ft2.obj
 0001:0000dae1       ?ultohexstring@@YAPADPADI@Z 0040eae1 f   ft2.obj
 0001:0000db3b       ?update_alt_step@@YAXH@Z   0040eb3b f   ft2.obj
 0001:0000dc06       ?update_current_variables_listbox@@YAXXZ 0040ec06 f   ft2.obj
 0001:0000dd82       ?update_park_step@@YAXXZ   0040ed82 f   ft2.obj
 0001:0000dde1       ?update_start_step@@YAXXZ  0040ede1 f   ft2.obj
 0001:0000e1c0       ?write_log@@YAXPAD@Z       0040f1c0 f   ft2.obj
 0001:0000e97e       ?add_board_data@@YAPADPADG@Z 0040f97e f   board_monitor.obj
 0001:0000ea64       ?ascii_strings_are_equal@@YAEPBD0H@Z 0040fa64 f   board_monitor.obj
 0001:0000eb09       ?board_index@@YAHAAUsockaddr_in@@@Z 0040fb09 f   board_monitor.obj
 0001:0000eb3e       ?board_index@@YAHABVSTRING_CLASS@@@Z 0040fb3e f   board_monitor.obj
 0001:0000eb80       ?board_index@@YAHPBVFTII_BOARD_ENTRY@@@Z 0040fb80 f   board_monitor.obj
 0001:0000eba2       ?check_alarms@@YAXPAVFTII_BOARD_ENTRY@@PAN@Z 0040fba2 f   board_monitor.obj
 0001:0000efce       ?check_for_cycle_start@@YA_NPAVFTII_BOARD_ENTRY@@PAD@Z 0040ffce f   board_monitor.obj
 0001:0000f5bd       ?check_for_timeouts@@YAXXZ 004105bd f   board_monitor.obj
 0001:0000fad1       ?check_one_alarm@@YAXAA_NAAIMMFMM@Z 00410ad1 f   board_monitor.obj
 0001:0000fbbf       ?connect_one_board@@YAXH@Z 00410bbf f   board_monitor.obj
 0001:0000fcea       ?connect_to_boards@@YAXXZ  00410cea f   board_monitor.obj
 0001:0000fd33       ?continue_connecting_one_board@@YAXH@Z 00410d33 f   board_monitor.obj
 0001:00010116       ?disconnect_from_boards@@YAXXZ 00411116 f   board_monitor.obj
 0001:000103d1       ?do_ack_message@@YAXPAUSOCKET_MESSAGE@@@Z 004113d1 f   board_monitor.obj
 0001:00010560       ?do_ascii_message@@YAXHPAD@Z 00411560 f   board_monitor.obj
 0001:0001097d       ?do_ascii_message@@YAXHPAUSOCKET_MESSAGE@@@Z 0041197d f   board_monitor.obj
 0001:000109d5       ?do_newsetup@@YAXAAVSTRING_CLASS@@@Z 004119d5 f   board_monitor.obj
 0001:00010db5       ?get_socket_message@@YAPAUSOCKET_MESSAGE@@XZ 00411db5 f   board_monitor.obj
 0001:00011b98       ?log_network_error_string@@YAXAAVSTRING_CLASS@@@Z 00412b98 f   board_monitor.obj
 0001:00011bb1       ?log_network_error_string@@YAXPAD@Z 00412bb1 f   board_monitor.obj
 0001:00011c2d       ?make_line@@YAXAAVSTRING_CLASS@@IAAVTIME_CLASS@@@Z 00412c2d f   board_monitor.obj
 0001:00011c6a       ?needs_impact_parameter_file@@YA_NAAVPART_CLASS@@@Z 00412c6a f   board_monitor.obj
 0001:000124a2       ?save_alarm_summary_counts@@YAXPAVFTII_BOARD_ENTRY@@PAN@Z 004134a2 f   board_monitor.obj
 0001:00012916       ?send_ack@@YAXAAUsockaddr_in@@@Z 00413916 f   board_monitor.obj
 0001:00012b79       ?send_machine_state_event_string@@YAXAAVSTRING_CLASS@@GG@Z 00413b79 f   board_monitor.obj
 0001:0001366c       ?start_socket@@YAXXZ       0041466c f   board_monitor.obj
 0001:00013827       ?truncate_control_file_line@@YAXPAD@Z 00414827 f   board_monitor.obj
 0001:00013870       ?update_config_word@@YAXAAVSTRING_CLASS@@K@Z 00414870 f   board_monitor.obj
 0001:000138f5       ?update_config_word@@YAXAAVSTRING_CLASS@@KK@Z 004148f5 f   board_monitor.obj
 0001:00013a66       ?update_monitor_status@@YAXPAVFTII_BOARD_ENTRY@@PAD@Z 00414a66 f   board_monitor.obj
 0001:00013b81       ?update_one_board_display@@YAXHPAD@Z 00414b81 f   board_monitor.obj
 0001:00013c8c       ?update_pc_digital_pot_gain@@YAXAAVSTRING_CLASS@@AAVPRESSURE_CONTROL_CLASS@@@Z 00414c8c f   board_monitor.obj
 0001:00014709       ?write_als_bit_changes@@YAXII@Z 00415709 f   board_monitor.obj
 0001:000148e0       ?write_sent_command@@YAXHPAD@Z 004158e0 f   board_monitor.obj
 0001:00014ac8       ?convert_control_chars@@YAXPAD@Z 00415ac8 f   shotsave.obj
 0001:00014b6a       ?delete_shot_name_file@@YAXAAVNAME_CLASS@@AAUPROFILE_NAME_ENTRY@@@Z 00415b6a f   shotsave.obj
 0001:00014cdd       ?freebuf@@YAXH@Z           00415cdd f   shotsave.obj
 0001:00014dc8       ?get_dde_parameter_list@@YAXXZ 00415dc8 f   shotsave.obj
 0001:00015201       ?make_line@@YAXAAVSTRING_CLASS@@INH@Z 00416201 f   shotsave.obj
 0001:00015278       ?make_output_line@@YAPADPAUSHOT_BUFFER_ENTRY@@PADAAVPARAMETER_CLASS@@@Z 00416278 f   shotsave.obj
 0001:00015a7b       ?make_parameter_event_string@@YAPADPAUSHOT_BUFFER_ENTRY@@@Z 00416a7b f   shotsave.obj
 0001:00016611       ?save_this_machine@@YAXAAVSTRING_CLASS@@@Z 00417611 f   shotsave.obj
 0001:000166dc       ?shot_name_from_file_is_good@@YA_NAAVSTRING_CLASS@@AAVSHOT_NAME_CLASS@@@Z 004176dc f   shotsave.obj
 0001:000167f5       ?shutdown@@YAXXZ           004177f5 f   shotsave.obj
 0001:0001688f       ?startup@@YAXXZ            0041788f f   shotsave.obj
 0001:00016d45       ?write_als_log@@YAXPADAAVFTII_FILE_DATA@@@Z 00417d45 f   shotsave.obj
 0001:000171d4       ?write_bytes_to_serial_port@@YAEPAXK@Z 004181d4 f   shotsave.obj
 0001:0001721e       ?write_eos_param_file@@YAXPAUSHOT_BUFFER_ENTRY@@AAVPARAMETER_CLASS@@@Z 0041821e f   shotsave.obj
 0001:00017ba6       ?write_hex_file_to_serial_port@@YAEAAVNAME_CLASS@@@Z 00418ba6 f   shotsave.obj
 0001:00017d08       ?write_output_file@@YAXPAUSHOT_BUFFER_ENTRY@@AAVPARAMETER_CLASS@@@Z 00418d08 f   shotsave.obj
 0001:00017e4d       ?write_serial_port_info@@YAXPAUSHOT_BUFFER_ENTRY@@AAVPARAMETER_CLASS@@@Z 00418e4d f   shotsave.obj
 0001:00018489       ?fill_skip_entry@@YAXPAUSKIP_ENTRY@@AAVSETPOINT_CLASS@@H@Z 00419489 f   skip.obj
 0001:0001857e       ?find@@YAPAUMACH_SKIP_ENTRY@@AAVSTRING_CLASS@@@Z 0041957e f   skip.obj
 0001:00018672       ?increment_shot_entry@@YAEPAUSKIP_ENTRY@@U_FILETIME@@@Z 00419672 f   skip.obj
 0001:0001873a       ?reset@@YAEPAUMACH_SKIP_ENTRY@@@Z 0041973a f   skip.obj
 0001:00018cec       ?file_type@@YAHPAD@Z       00419cec f   v5subs:exists.obj
 0001:00018fec       ?numberlen@@YAFPBD@Z       00419fec f   v5subs:extract.obj
 0001:0001a52e       ?kill_sensor_array@@YAXXZ  0041b52e f   v5subs:asensor.obj
 0001:0001ad4c       ?fieldlength@@YAFPBD@Z     0041bd4c f   v5subs:dbsubs.obj
 0001:0001ba0d       ?trim_text@@YAFPADF@Z      0041ca0d f   v5subs:dbsubs.obj
 0001:0001c9ca       ?goto_next_string@@YAPADPAD@Z 0041d9ca f   v5subs:fontclas.obj
 0001:0001c9d8       ?long_from_text@@YAJPBD@Z  0041d9d8 f   v5subs:fontclas.obj
 0001:0001de2b       ?get_binary_valve_settings_from_control_all@@YAXAAVMACHINE_CLASS@@@Z 0041ee2b f   v5subs:machine.obj
 0001:0001eb81       ?create_my_font@@YAXXZ     0041fb81 f   v5subs:optocontrol.obj
 0001:0001ebee       ?paint_me@@YAXPAUHWND__@@J@Z 0041fbee f   v5subs:optocontrol.obj
 0001:0001efb4       ?send_click_message_to_parent@@YAXPAUHWND__@@J@Z 0041ffb4 f   v5subs:optocontrol.obj
 0001:0002087d       ?is_out@@YAEMMM@Z          0042187d f   v5subs:param.obj
 0001:000221cd       ?init_systemtime@@YAXAAU_SYSTEMTIME@@@Z 004231cd f   v5subs:timeclas.obj
 0001:00022252       ?leap_index@@YAHH@Z        00423252 f   v5subs:timeclas.obj
 0001:00023d5c       ?find_existing_event_item@@YAPAUEVENT_ITEM_ENTRY@@PAUEVENT_ENTRY@@F@Z 00424d5c f   v5subs:client.obj
 0001:00023d95       ?find_existing_event_topic@@YAPAUEVENT_ENTRY@@PAD@Z 00424d95 f   v5subs:client.obj
 0001:000240f7       ?cleanup_dcurves@@YAXXZ    004250f7 f   v5subs:dcurve.obj
 0001:00024185       ?reload_dcurves@@YAEXZ     00425185 f   v5subs:dcurve.obj
 0001:000243a9       ?get_static_exe_directory@@YAXXZ 004253a9 f   v5subs:gexedir.obj
 0001:000252b7       ?add_seconds_to_systemtime@@YAEAAU_SYSTEMTIME@@J@Z 004262b7 f   v5subs:shift.obj
 0001:00025536       ?shift_from_rec@@YAXPAFFAAVDB_TABLE@@@Z 00426536 f   v5subs:shift.obj
 0001:000255f7       ?shift_index@@YAFABU_SYSTEMTIME@@@Z 004265f7 f   v5subs:shift.obj
 0001:00025884       ?units_index@@YAFF@Z       00426884 f   v5subs:units.obj
 0001:00025ab0       ?paint_temp_message@@YAXXZ 00426ab0 f   v5subs:temp_message.obj
 0001:00025b4d       ?position_temp_message@@YAXPAUHWND__@@@Z 00426b4d f   v5subs:temp_message.obj
 0001:00026a55       ?do_nothing_paint_me@@YAXPAUHWND__@@@Z 00427a55 f   v5subs:menuctrl.obj
 0001:00026de4       ?get_current_colors@@YAXPAD@Z 00427de4 f   v5subs:menuctrl.obj
 0001:000286bb       ?variable_number@@YAHPBD@Z 004296bb f   v5subs:ftiiclas.obj
 0001:0002b25e       ?downstate@@YAHPAD0@Z      0042c25e f   v5subs:dstat.obj
 0001:0002b69a       ?get_ft_target_list@@YA_NPA_NAAVSTRING_CLASS@@11@Z 0042c69a f   v5subs:ftanalog.obj
 0001:0002c46b       ?append_check_digit@@YAEAAVSTRING_CLASS@@@Z 0042d46b f   v5subs:shot_name.obj
 0001:0002f750       ?get_position@@YANPANHNAAVSTRING_CLASS@@@Z 00430750 f   v5subs:ftii_parameters.obj
 0001:0002f7bc       ?set_source_data@@YAXPAVSOURCE_DATA@@HHAAVFTII_PROFILE@@AAVPART_CLASS@@@Z 004307bc f   v5subs:ftii_parameters.obj
 0001:0002f857       ?set_source_data@@YAXPAVSOURCE_DATA@@HNAAVFTII_PROFILE@@AAVPART_CLASS@@@Z 00430857 f   v5subs:ftii_parameters.obj
 0001:0003030a       ?add_err_number@@YAXPADF@Z 0043130a f   v5subs:error_ms.obj
 0001:0003038c       ?add_string@@YAXPAD@Z      0043138c f   v5subs:error_ms.obj
 0001:000303ff       ?wait_for_key@@YAXXZ       004313ff f   v5subs:error_ms.obj
 0001:00030b85       __onexit_nolock            00431b85 f   LIBCMT:onexit.obj
 0001:00030c70       $$000000                   00431c70     LIBCMT:chkstk.obj
 0001:00030ca0       $$000000                   00431ca0     LIBCMT:memset.obj
 0001:00030de0       $$000000                   00431de0     LIBCMT:memcpy.obj
 0001:00031030       LeadUpVec                  00432030     LIBCMT:memcpy.obj
 0001:000310ac       UnwindUpVec                004320ac     LIBCMT:memcpy.obj
 0001:00031118       TrailUpVec                 00432118     LIBCMT:memcpy.obj
 0001:000311bc       LeadDownVec                004321bc     LIBCMT:memcpy.obj
 0001:00031248       UnwindDownVec              00432248     LIBCMT:memcpy.obj
 0001:000312b4       TrailDownVec               004322b4     LIBCMT:memcpy.obj
 0001:0003154b       __callthreadstart          0043254b f   LIBCMT:thread.obj
 0001:000315b7       __threadstart@4            004325b7 f   LIBCMT:thread.obj
 0001:0003183a       ___tmainCRTStartup         0043283a f   LIBCMT:wincrt0.obj
 0001:0003198a       _fast_error_exit           0043298a f   LIBCMT:wincrt0.obj
 0001:00031b65       ?strtoxl@@YAKPAUlocaleinfo_struct@@PBDPAPBDHH@Z 00432b65 f   LIBCMT:strtol.obj
 0001:00031de0       $$000000                   00432de0     LIBCMT:floor_pentium4.obj
 0001:00031f10       $$000000                   00432f10     LIBCMT:ulldiv.obj
 0001:00031f80       $$000000                   00432f80     LIBCMT:memmove.obj
 0001:000321d0       LeadUpVec                  004331d0     LIBCMT:memmove.obj
 0001:0003224c       UnwindUpVec                0043324c     LIBCMT:memmove.obj
 0001:000322b8       TrailUpVec                 004332b8     LIBCMT:memmove.obj
 0001:0003235c       LeadDownVec                0043335c     LIBCMT:memmove.obj
 0001:000323e8       UnwindDownVec              004333e8     LIBCMT:memmove.obj
 0001:00032454       TrailDownVec               00433454     LIBCMT:memmove.obj
 0001:000325d0       $$000000                   004335d0     LIBCMT:ftol2.obj
 0001:00032680       $$000000                   00433680     LIBCMT:ftol3.obj
 0001:00032a50       $$000000                   00433a50     LIBCMT:sqrt.obj
 0001:00032b10       $$000000                   00433b10     LIBCMT:ceil_pentium4.obj
 0001:00032c30       $$000000                   00433c30     LIBCMT:lldiv.obj
 0001:00032ce0       $$000000                   00433ce0     LIBCMT:llmul.obj
 0001:000330d0       __initterm                 004340d0 f   LIBCMT:crt0dat.obj
 0001:0003313a       _doexit                    0043413a f   LIBCMT:crt0dat.obj
 0001:00033390       $$000000                   00434390     LIBCMT:sehprolg4.obj
 0001:000337d0       $$000000                   004347d0     LIBCMT:strcmp.obj
 0001:00033cee       __cftoe2_l                 00434cee f   LIBCMT:cvt.obj
 0001:00033f0d       __cftof2_l                 00434f0d f   LIBCMT:cvt.obj
 0001:00034343       __shift                    00435343 f   LIBCMT:cvt.obj
 0001:00035196       _parse_cmdline             00436196 f   LIBCMT:stdargv.obj
 0001:00035c41       ?CPtoLocaleName@@YAPB_WH@Z 00436c41 f   LIBCMT:mbctype.obj
 0001:00035c7b       ?getSystemCP@@YAHH@Z       00436c7b f   LIBCMT:mbctype.obj
 0001:00035ce9       ?setSBCS@@YAXPAUthreadmbcinfostruct@@@Z 00436ce9 f   LIBCMT:mbctype.obj
 0001:00035d48       ?setSBUpLow@@YAXPAUthreadmbcinfostruct@@@Z 00436d48 f   LIBCMT:mbctype.obj
 0001:000368d8       $LN79                      004378d8     LIBCMT:libm_error.obj
 0001:00037100       $$000000                   00438100     LIBCMT:87disp.obj
 0001:000372d0       $$000000                   004382d0     LIBCMT:genexcep.obj
 0001:00037330       $$000000                   00438330     LIBCMT:common.obj
 0001:00037860       $$000000                   00438860     LIBCMT:strlen.obj
 0001:00037de7       _siglookup                 00438de7 f   LIBCMT:winsig.obj
 0001:00037f60       $$000000                   00438f60     LIBCMT:exsup4.obj
 0001:00037ff0       __unwind_handler4          00438ff0 f   LIBCMT:exsup4.obj
 0001:000382a0       $$000000                   004392a0     LIBCMT:strrchr.obj
 0001:00038530       $$000000                   00439530     LIBCMT:lldvrm.obj
 0001:00038610       $$000000                   00439610     LIBCMT:ullshr.obj
 0001:00038805       ?x_ismbbtype_l@@YAHPAUlocaleinfo_struct@@IHH@Z 00439805 f   LIBCMT:ismbbyte.obj
 0001:00039e56       $LN333                     0043ae56     LIBCMT:strgtold.obj
 0001:0003a369       ?__crtLCMapStringA_stat@@YAHPAUlocaleinfo_struct@@PB_WKPBDHPADHHH@Z 0043b369 f   LIBCMT:a_map.obj
 0001:0003a5d1       ?__crtGetStringTypeA_stat@@YAHPAUlocaleinfo_struct@@KPBDHPAGHH@Z 0043b5d1 f   LIBCMT:a_str.obj
 0001:0003b4e8       _flsall                    0043c4e8 f   LIBCMT:fflush.obj
 0001:0003b5d0       $$000000                   0043c5d0     LIBCMT:exsup.obj
 0001:0003b5f0       __unwind_handler           0043c5f0 f   LIBCMT:exsup.obj
 0001:0003b710       $$000000                   0043c710     LIBCMT:ulldvrm.obj
 0001:0003b7a5       ___hw_cw_sse2              0043c7a5 f   LIBCMT:ieee87.obj
 0001:0003bb50       __hw_cw                    0043cb50 f   LIBCMT:ieee87.obj
 0001:0003be70       $$000000                   0043ce70     LIBCMT:alloca16.obj
 0001:0003cf38       ??__FAltStepAcc@@YAXXZ     0043df38 f   ft2.obj
 0001:0003cf42       ??__FAltStepAccPrefix@@YAXXZ 0043df42 f   ft2.obj
 0001:0003cf4c       ??__FAltStepEnd@@YAXXZ     0043df4c f   ft2.obj
 0001:0003cf56       ??__FAltStepNum@@YAXXZ     0043df56 f   ft2.obj
 0001:0003cf60       ??__FAltStepPos@@YAXXZ     0043df60 f   ft2.obj
 0001:0003cf6a       ??__FAltStepPosPrefix@@YAXXZ 0043df6a f   ft2.obj
 0001:0003cf74       ??__FAltStepVel@@YAXXZ     0043df74 f   ft2.obj
 0001:0003cf7e       ??__FAltStepVelPrefix@@YAXXZ 0043df7e f   ft2.obj
 0001:0003cf88       ??__FAnalogSensor@@YAXXZ   0043df88 f   ft2.obj
 0001:0003cf92       ??__FAutoBack@@YAXXZ       0043df92 f   ft2.obj
 0001:0003cf9c       ??__FAutoShotDisplayWindow@@YAXXZ 0043df9c f   ft2.obj
 0001:0003cfa7       ??__FBoardVariable@@YAXXZ  0043dfa7 f   ft2.obj
 0001:0003cfc3       ??__FBoardVariableDescription@@YAXXZ 0043dfc3 f   ft2.obj
 0001:0003cfdf       ??__FCVCurrentVariableTb@@YAXXZ 0043dfdf f   ft2.obj
 0001:0003cfea       ??__FCVGettingTb@@YAXXZ    0043dfea f   ft2.obj
 0001:0003cff5       ??__FCVLb@@YAXXZ           0043dff5 f   ft2.obj
 0001:0003cfff       ??__FCVofTb@@YAXXZ         0043dfff f   ft2.obj
 0001:0003d00a       ??__FCmdString@@YAXXZ      0043e00a f   ft2.obj
 0001:0003d014       ??__FCompareVariablesDialog@@YAXXZ 0043e014 f   ft2.obj
 0001:0003d01f       ??__FComputerName@@YAXXZ   0043e01f f   ft2.obj
 0001:0003d029       ??__FConnected@@YAXXZ      0043e029 f   ft2.obj
 0001:0003d033       ??__FConnecting@@YAXXZ     0043e033 f   ft2.obj
 0001:0003d03d       ??__FControlModsDialog@@YAXXZ 0043e03d f   ft2.obj
 0001:0003d048       ??__FCurrentDacDialog@@YAXXZ 0043e048 f   ft2.obj
 0001:0003d053       ??__FCurrentMachine@@YAXXZ 0043e053 f   ft2.obj
 0001:0003d05d       ??__FCurrentMachineVars@@YAXXZ 0043e05d f   ft2.obj
 0001:0003d067       ??__FCurrentPart@@YAXXZ    0043e067 f   ft2.obj
 0001:0003d071       ??__FCurrentValuesDialog@@YAXXZ 0043e071 f   ft2.obj
 0001:0003d07c       ??__FCurrentWindow@@YAXXZ  0043e07c f   ft2.obj
 0001:0003d087       ??__FCycleStartString@@YAXXZ 0043e087 f   ft2.obj
 0001:0003d091       ??__FErrorLog@@YAXXZ       0043e091 f   ft2.obj
 0001:0003d09b       ??__FExternalParameterFifo@@YAXXZ 0043e09b f   ft2.obj
 0001:0003d0a5       ??__FFontList@@YAXXZ       0043e0a5 f   ft2.obj
 0001:0003d0af       ??__FFt2TestDialog@@YAXXZ  0043e0af f   ft2.obj
 0001:0003d0ba       ??__FFtiiAutoNull@@YAXXZ   0043e0ba f   ft2.obj
 0001:0003d0c4       ??__FGlobalParameterDialog@@YAXXZ 0043e0c4 f   ft2.obj
 0001:0003d0cf       ??__FGlobalParameters@@YAXXZ 0043e0cf f   ft2.obj
 0001:0003d0d9       ??__FHiresSensorTestDialog@@YAXXZ 0043e0d9 f   ft2.obj
 0001:0003d0e4       ??__FInputBitControl@@YAXXZ 0043e0e4 f   ft2.obj
 0001:0003d105       ??__FInputOpto@@YAXXZ      0043e105 f   ft2.obj
 0001:0003d11a       ??__FLvdtString@@YAXXZ     0043e11a f   ft2.obj
 0001:0003d124       ??__FMainListBox@@YAXXZ    0043e124 f   ft2.obj
 0001:0003d12e       ??__FMainMenu@@YAXXZ       0043e12e f   ft2.obj
 0001:0003d138       ??__FMainWindow@@YAXXZ     0043e138 f   ft2.obj
 0001:0003d143       ??__FMainWindowClientRect@@YAXXZ 0043e143 f   ft2.obj
 0001:0003d14d       ??__FMainWindowMoveRect@@YAXXZ 0043e14d f   ft2.obj
 0001:0003d157       ??__FManualInfoTbox@@YAXXZ 0043e157 f   ft2.obj
 0001:0003d162       ??__FMeasString@@YAXXZ     0043e162 f   ft2.obj
 0001:0003d16c       ??__FMonitorStatusControl@@YAXXZ 0043e16c f   ft2.obj
 0001:0003d181       ??__FNetworkLogFile@@YAXXZ 0043e181 f   ft2.obj
 0001:0003d18b       ??__FNoConnectState@@YAXXZ 0043e18b f   ft2.obj
 0001:0003d195       ??__FNoResponse@@YAXXZ     0043e195 f   ft2.obj
 0001:0003d19f       ??__FNotConnected@@YAXXZ   0043e19f f   ft2.obj
 0001:0003d1a9       ??__FNotMonitored@@YAXXZ   0043e1a9 f   ft2.obj
 0001:0003d1b3       ??__FNullStatusMessage@@YAXXZ 0043e1b3 f   ft2.obj
 0001:0003d1be       ??__FOutputBitControl@@YAXXZ 0043e1be f   ft2.obj
 0001:0003d1df       ??__FOutputListDialog@@YAXXZ 0043e1df f   ft2.obj
 0001:0003d1ea       ??__FOutputListbox@@YAXXZ  0043e1ea f   ft2.obj
 0001:0003d1f4       ??__FOutputOpto@@YAXXZ     0043e1f4 f   ft2.obj
 0001:0003d209       ??__FParkStep2Num@@YAXXZ   0043e209 f   ft2.obj
 0001:0003d213       ??__FParkStepNum@@YAXXZ    0043e213 f   ft2.obj
 0001:0003d21d       ??__FParkStepVolts@@YAXXZ  0043e21d f   ft2.obj
 0001:0003d227       ??__FParkStepVoltsPrefix@@YAXXZ 0043e227 f   ft2.obj
 0001:0003d231       ??__FResumeDialog@@YAXXZ   0043e231 f   ft2.obj
 0001:0003d23c       ??__FSavingString@@YAXXZ   0043e23c f   ft2.obj
 0001:0003d246       ??__FSetDacDialog@@YAXXZ   0043e246 f   ft2.obj
 0001:0003d251       ??__FSetNullDialog@@YAXXZ  0043e251 f   ft2.obj
 0001:0003d25c       ??__FShutdownStatusDialog@@YAXXZ 0043e25c f   ft2.obj
 0001:0003d267       ??__FShutdownStatusListbox@@YAXXZ 0043e267 f   ft2.obj
 0001:0003d271       ??__FStartScreen@@YAXXZ    0043e271 f   ft2.obj
 0001:0003d27b       ??__FStartStepNum@@YAXXZ   0043e27b f   ft2.obj
 0001:0003d285       ??__FStartStepVolts@@YAXXZ 0043e285 f   ft2.obj
 0001:0003d28f       ??__FStartStepVoltsPrefix@@YAXXZ 0043e28f f   ft2.obj
 0001:0003d299       ??__FStatusWindow@@YAXXZ   0043e299 f   ft2.obj
 0001:0003d2a4       ??__FStepMessage@@YAXXZ    0043e2a4 f   ft2.obj
 0001:0003d2ae       ??__FStringTable@@YAXXZ    0043e2ae f   ft2.obj
 0001:0003d2b8       ??__FTerminalMenu@@YAXXZ   0043e2b8 f   ft2.obj
 0001:0003d2c2       ??__FTerminalWindow@@YAXXZ 0043e2c2 f   ft2.obj
 0001:0003d2cd       ??__FTestAlarmOpto@@YAXXZ  0043e2cd f   ft2.obj
 0001:0003d2e2       ??__FTestAlarmOutputsDialog@@YAXXZ 0043e2e2 f   ft2.obj
 0001:0003d2ed       ??__FUploadAbortedDialog@@YAXXZ 0043e2ed f   ft2.obj
 0001:0003d2f8       ??__FUploadAbortedList@@YAXXZ 0043e2f8 f   ft2.obj
 0001:0003d302       ??__FUploadFailed@@YAXXZ   0043e302 f   ft2.obj
 0001:0003d30c       ??__FUploadFlashDialog@@YAXXZ 0043e30c f   ft2.obj
 0001:0003d317       ??__FValveTestDialog@@YAXXZ 0043e317 f   ft2.obj
 0001:0003d322       ??__FWireString@@YAXXZ     0043e322 f   ft2.obj
 0001:0003d32c       ??__FZeroStrokeLength@@YAXXZ 0043e32c f   ft2.obj
 0001:0003d336       ??__Ff@?1??write_log@@YAXPAD@Z@YAXXZ 0043e336 f   ft2.obj
 0001:0003d340       ??__Flastcommand@?1??edit_control_proc@@YGJPAUHWND__@@IIJ@Z@YAXXZ 0043e340 f   ft2.obj
 0001:0003d34a       ??__Flogs@?1??do_new_current_values@@YAXXZ@YAXXZ 0043e34a f   ft2.obj
 0001:0003d354       ??__Fmy_machine@?1??check_for_new_board@@YAXXZ@YAXXZ 0043e354 f   ft2.obj
 0001:0003d35e       ??__Fns@?1??do_new_current_values@@YAXXZ@YAXXZ 0043e35e f   ft2.obj
 0001:0003d368       ??__Fns@?1??do_new_set_dac_values@@YAXXZ@YAXXZ 0043e368 f   ft2.obj
 0001:0003d372       ??__Fns@?1??do_new_set_null_values@@YAXXZ@YAXXZ 0043e372 f   ft2.obj
 0001:0003d37c       ??__Fos@?1??do_new_current_values@@YAXXZ@YAXXZ 0043e37c f   ft2.obj
 0001:0003d386       ??__Fos@?1??do_new_set_dac_values@@YAXXZ@YAXXZ 0043e386 f   ft2.obj
 0001:0003d390       ??__Fs1@?1??main_proc@@YGJPAUHWND__@@IIJ@Z@YAXXZ 0043e390 f   ft2.obj
 0001:0003d39a       ??__Fs@?1??current_values_dialog_proc@@YGHPAUHWND__@@IIJ@Z@YAXXZ 0043e39a f   ft2.obj
 0001:0003d3a4       ??__Fs@?1??do_new_current_values@@YAXXZ@YAXXZ 0043e3a4 f   ft2.obj
 0001:0003d3ae       ??__Fs@?1??edit_control_proc@@YGJPAUHWND__@@IIJ@Z@YAXXZ 0043e3ae f   ft2.obj
 0001:0003d3b8       ??__Fs@?1??log_input_bits@@YAXXZ@YAXXZ 0043e3b8 f   ft2.obj
 0001:0003d3c2       ??__Fs@?1??log_output_bits@@YAXXZ@YAXXZ 0043e3c2 f   ft2.obj
 0001:0003d3cc       ??__Fs@?1??push_log_message@@YAXPAD@Z@YAXXZ 0043e3cc f   ft2.obj
 0001:0003d3d6       ??__Fs@?1??send_command_to_current_machine@@YAXPAD_N@Z@YAXXZ 0043e3d6 f   ft2.obj
 0001:0003d3e0       ??__Fs@?1??send_data_server_shot_notification@@YAXPAD0@Z@YAXXZ 0043e3e0 f   ft2.obj
 0001:0003d3ea       ??__Fs@?1??test_alarm_outputs_dialog_proc@@YGHPAUHWND__@@IIJ@Z@YAXXZ 0043e3ea f   ft2.obj
 0001:0003d3f4       ??__Fs@?1??write_log@@YAXPAD@Z@YAXXZ 0043e3f4 f   ft2.obj
 0001:0003d3fe       ??__Fsc@?1??get_ascii_rt_data@@YAXJ@Z@YAXXZ 0043e3fe f   ft2.obj
 0001:0003d408       ??__Fwc@?1??do_new_current_values@@YAXXZ@YAXXZ 0043e408 f   ft2.obj
 0001:0003d413       ??__Fwc@?1??do_new_set_dac_values@@YAXXZ@YAXXZ 0043e413 f   ft2.obj
 0001:0003d41e       ??__FAckList@@YAXXZ        0043e41e f   board_monitor.obj
 0001:0003d428       ??__FAckMessageStore@@YAXXZ 0043e428 f   board_monitor.obj
 0001:0003d432       ??__FNewData@@YAXXZ        0043e432 f   board_monitor.obj
 0001:0003d43c       ??__FReceivedAcks@@YAXXZ   0043e43c f   board_monitor.obj
 0001:0003d446       ??__FSocketMessageStore@@YAXXZ 0043e446 f   board_monitor.obj
 0001:0003d450       ??__FStdDown@@YAXXZ        0043e450 f   board_monitor.obj
 0001:0003d45a       ??__Fs@?1??continue_connecting_one_board@@YAXH@Z@YAXXZ 0043e45a f   board_monitor.obj
 0001:0003d464       ??__FAnalogSensor@?1??write_std_units_csv_file@@YAEAAVSTRING_CLASS@@PAUSHOT_BUFFER_ENTRY@@@Z@YAXXZ 0043e464 f   shotsave.obj
 0001:0003d46e       ??__FEosEndFile@@YAXXZ     0043e46e f   shotsave.obj
 0001:0003d478       ??__FEosStartFile@@YAXXZ   0043e478 f   shotsave.obj
 0001:0003d482       ??__FWorker@@YAXXZ         0043e482 f   shotsave.obj
 0001:0003d48c       ??__FSkipList@@YAXXZ       0043e48c f   skip.obj
 0001:0003d496       ??__FEmptyString@@YAXXZ    0043e496 f   v5subs:nameclas.obj
 0001:0003d4a0       ??__FEmptySensor@@YAXXZ    0043e4a0 f   v5subs:asensor.obj
 0001:0003d4aa       ??__FMyComputer@@YAXXZ     0043e4aa f   v5subs:computer.obj
 0001:0003d4b4       ??__FNoComputer@@YAXXZ     0043e4b4 f   v5subs:computer.obj
 0001:0003d4be       ??__FEmptyString@@YAXXZ    0043e4be f   v5subs:machname.obj
 0001:0003d4c8       ??__FFontList@@YAXXZ       0043e4c8 f   v5subs:optocontrol.obj
 0001:0003d4d2       ??__Fempty_entry@@YAXXZ    0043e4d2 f   v5subs:setpoint.obj
 0001:0003d4e6       ??__FBaseDir@@YAXXZ        0043e4e6 f   v5subs:stringtable.obj
 0001:0003d4f0       ??__FDefaultLanguage@@YAXXZ 0043e4f0 f   v5subs:stringtable.obj
 0001:0003d4fa       ??__FFontList@@YAXXZ       0043e4fa f   v5subs:stringtable.obj
 0001:0003d504       ??__FResources@@YAXXZ      0043e504 f   v5subs:stringtable.obj
 0001:0003d50e       ??__FEventList@@YAXXZ      0043e50e f   v5subs:client.obj
 0001:0003d518       ??__Fs@?1??one_hot_link@@YAXPAUHCONV__@@FI@Z@YAXXZ 0043e518 f   v5subs:client.obj
 0001:0003d522       ??__FExeDirectory@@YAXXZ   0043e522 f   v5subs:gexedir.obj
 0001:0003d52c       ??__FT@@YAXXZ              0043e52c f   v5subs:semaphor.obj
 0001:0003d536       ??__FFontList@@YAXXZ       0043e536 f   v5subs:menuctrl.obj
 0001:0003d540       ??__FEmpty@@YAXXZ          0043e540 f   v5subs:runlist.obj
 0001:0003d54a       ??__FMyEmptyString@@YAXXZ  0043e54a f   v5subs:shot_name_reset.obj
 0002:00000394       _CurrentWindow$initializer$ 0043f394     ft2.obj
 0002:00000398       _MainWindow$initializer$   0043f398     ft2.obj
 0002:0000039c       _AutoShotDisplayWindow$initializer$ 0043f39c     ft2.obj
 0002:000003a0       _CompareVariablesDialog$initializer$ 0043f3a0     ft2.obj
 0002:000003a4       _CurrentDacDialog$initializer$ 0043f3a4     ft2.obj
 0002:000003a8       _CurrentValuesDialog$initializer$ 0043f3a8     ft2.obj
 0002:000003ac       _GlobalParameterDialog$initializer$ 0043f3ac     ft2.obj
 0002:000003b0       _ControlModsDialog$initializer$ 0043f3b0     ft2.obj
 0002:000003b4       _SetNullDialog$initializer$ 0043f3b4     ft2.obj
 0002:000003b8       _SetDacDialog$initializer$ 0043f3b8     ft2.obj
 0002:000003bc       _StatusWindow$initializer$ 0043f3bc     ft2.obj
 0002:000003c0       _TerminalWindow$initializer$ 0043f3c0     ft2.obj
 0002:000003c4       _TestAlarmOutputsDialog$initializer$ 0043f3c4     ft2.obj
 0002:000003c8       _UploadFlashDialog$initializer$ 0043f3c8     ft2.obj
 0002:000003cc       _ValveTestDialog$initializer$ 0043f3cc     ft2.obj
 0002:000003d0       _HiresSensorTestDialog$initializer$ 0043f3d0     ft2.obj
 0002:000003d4       _UploadAbortedDialog$initializer$ 0043f3d4     ft2.obj
 0002:000003d8       _MainListBox$initializer$  0043f3d8     ft2.obj
 0002:000003dc       _CurrentMachine$initializer$ 0043f3dc     ft2.obj
 0002:000003e0       _CurrentPart$initializer$  0043f3e0     ft2.obj
 0002:000003e4       _CycleStartString$initializer$ 0043f3e4     ft2.obj
 0002:000003e8       _ComputerName$initializer$ 0043f3e8     ft2.obj
 0002:000003ec       _Connected$initializer$    0043f3ec     ft2.obj
 0002:000003f0       _Connecting$initializer$   0043f3f0     ft2.obj
 0002:000003f4       _NoConnectState$initializer$ 0043f3f4     ft2.obj
 0002:000003f8       _NoResponse$initializer$   0043f3f8     ft2.obj
 0002:000003fc       _NotConnected$initializer$ 0043f3fc     ft2.obj
 0002:00000400       _NotMonitored$initializer$ 0043f400     ft2.obj
 0002:00000404       _UploadFailed$initializer$ 0043f404     ft2.obj
 0002:00000408       _SavingString$initializer$ 0043f408     ft2.obj
 0002:0000040c       _ZeroStrokeLength$initializer$ 0043f40c     ft2.obj
 0002:00000410       _NetworkLogFile$initializer$ 0043f410     ft2.obj
 0002:00000414       _AnalogSensor$initializer$ 0043f414     ft2.obj
 0002:00000418       _CurrentOpStatus$initializer$ 0043f418     ft2.obj
 0002:0000041c       _StepMessage$initializer$  0043f41c     ft2.obj
 0002:00000420       _ShutdownStatusListbox$initializer$ 0043f420     ft2.obj
 0002:00000424       _ShutdownStatusDialog$initializer$ 0043f424     ft2.obj
 0002:00000428       _OutputListbox$initializer$ 0043f428     ft2.obj
 0002:0000042c       _OutputListDialog$initializer$ 0043f42c     ft2.obj
 0002:00000430       _NullStatusMessage$initializer$ 0043f430     ft2.obj
 0002:00000434       _ManualInfoTbox$initializer$ 0043f434     ft2.obj
 0002:00000438       _InputOpto$initializer$    0043f438     ft2.obj
 0002:0000043c       _OutputOpto$initializer$   0043f43c     ft2.obj
 0002:00000440       _TestAlarmOpto$initializer$ 0043f440     ft2.obj
 0002:00000444       _MainMenu$initializer$     0043f444     ft2.obj
 0002:00000448       _TerminalMenu$initializer$ 0043f448     ft2.obj
 0002:0000044c       _FontList$initializer$     0043f44c     ft2.obj
 0002:00000450       _StringTable$initializer$  0043f450     ft2.obj
 0002:00000454       _MainWindowClientRect$initializer$ 0043f454     ft2.obj
 0002:00000458       _MainWindowMoveRect$initializer$ 0043f458     ft2.obj
 0002:0000045c       _WireString$initializer$   0043f45c     ft2.obj
 0002:00000460       _StartScreen$initializer$  0043f460     ft2.obj
 0002:00000464       _AutoBack$initializer$     0043f464     ft2.obj
 0002:00000468       _FtiiAutoNull$initializer$ 0043f468     ft2.obj
 0002:0000046c       _CurrentMachineVars$initializer$ 0043f46c     ft2.obj
 0002:00000470       _ErrorLog$initializer$     0043f470     ft2.obj
 0002:00000474       _ExternalParameterFifo$initializer$ 0043f474     ft2.obj
 0002:00000478       _BoardVariable$initializer$ 0043f478     ft2.obj
 0002:0000047c       _BoardVariableDescription$initializer$ 0043f47c     ft2.obj
 0002:00000480       _CVLb$initializer$         0043f480     ft2.obj
 0002:00000484       _CVGettingTb$initializer$  0043f484     ft2.obj
 0002:00000488       _CVCurrentVariableTb$initializer$ 0043f488     ft2.obj
 0002:0000048c       _CVofTb$initializer$       0043f48c     ft2.obj
 0002:00000490       _ResumeDialog$initializer$ 0043f490     ft2.obj
 0002:00000494       _Ft2TestDialog$initializer$ 0043f494     ft2.obj
 0002:00000498       _UploadAbortedList$initializer$ 0043f498     ft2.obj
 0002:0000049c       _GlobalParameters$initializer$ 0043f49c     ft2.obj
 0002:000004a0       _AltStepNum$initializer$   0043f4a0     ft2.obj
 0002:000004a4       _AltStepEnd$initializer$   0043f4a4     ft2.obj
 0002:000004a8       _AltStepVel$initializer$   0043f4a8     ft2.obj
 0002:000004ac       _AltStepAcc$initializer$   0043f4ac     ft2.obj
 0002:000004b0       _AltStepPos$initializer$   0043f4b0     ft2.obj
 0002:000004b4       _AltStepVelPrefix$initializer$ 0043f4b4     ft2.obj
 0002:000004b8       _AltStepAccPrefix$initializer$ 0043f4b8     ft2.obj
 0002:000004bc       _AltStepPosPrefix$initializer$ 0043f4bc     ft2.obj
 0002:000004c0       _ParkStepNum$initializer$  0043f4c0     ft2.obj
 0002:000004c4       _ParkStep2Num$initializer$ 0043f4c4     ft2.obj
 0002:000004c8       _ParkStepVolts$initializer$ 0043f4c8     ft2.obj
 0002:000004cc       _ParkStepVoltsPrefix$initializer$ 0043f4cc     ft2.obj
 0002:000004d0       _StartStepNum$initializer$ 0043f4d0     ft2.obj
 0002:000004d4       _StartStepVolts$initializer$ 0043f4d4     ft2.obj
 0002:000004d8       _StartStepVoltsPrefix$initializer$ 0043f4d8     ft2.obj
 0002:000004dc       _InputBitControl$initializer$ 0043f4dc     ft2.obj
 0002:000004e0       _CmdString$initializer$    0043f4e0     ft2.obj
 0002:000004e4       _LvdtString$initializer$   0043f4e4     ft2.obj
 0002:000004e8       _MeasString$initializer$   0043f4e8     ft2.obj
 0002:000004ec       _OutputBitControl$initializer$ 0043f4ec     ft2.obj
 0002:000004f0       _MonitorStatusControl$initializer$ 0043f4f0     ft2.obj
 0002:000004f4       _ReceivedAcks$initializer$ 0043f4f4     board_monitor.obj
 0002:000004f8       _AckList$initializer$      0043f4f8     board_monitor.obj
 0002:000004fc       _NewData$initializer$      0043f4fc     board_monitor.obj
 0002:00000500       _SocketMessageStore$initializer$ 0043f500     board_monitor.obj
 0002:00000504       _AckMessageStore$initializer$ 0043f504     board_monitor.obj
 0002:00000508       _StdDown$initializer$      0043f508     board_monitor.obj
 0002:0000050c       _EosPyramidLines$initializer$ 0043f50c     shotsave.obj
 0002:00000510       _EosEndFile$initializer$   0043f510     shotsave.obj
 0002:00000514       _EosStartFile$initializer$ 0043f514     shotsave.obj
 0002:00000518       _Worker$initializer$       0043f518     shotsave.obj
 0002:0000051c       _SkipList$initializer$     0043f51c     skip.obj
 0002:00000520       _EmptyString$initializer$  0043f520     v5subs:nameclas.obj
 0002:00000524       _MyComputer$initializer$   0043f524     v5subs:nameclas.obj
 0002:00000528       _EmptySensor$initializer$  0043f528     v5subs:asensor.obj
 0002:0000052c       _MyComputer$initializer$   0043f52c     v5subs:computer.obj
 0002:00000530       _NoComputer$initializer$   0043f530     v5subs:computer.obj
 0002:00000534       _EmptyString$initializer$  0043f534     v5subs:machname.obj
 0002:00000538       _FontList$initializer$     0043f538     v5subs:optocontrol.obj
 0002:0000053c       _empty_entry$initializer$  0043f53c     v5subs:setpoint.obj
 0002:00000540       _BaseDir$initializer$      0043f540     v5subs:stringtable.obj
 0002:00000544       _DefaultLanguage$initializer$ 0043f544     v5subs:stringtable.obj
 0002:00000548       _FontList$initializer$     0043f548     v5subs:stringtable.obj
 0002:0000054c       _Resources$initializer$    0043f54c     v5subs:stringtable.obj
 0002:00000550       _EventList$initializer$    0043f550     v5subs:client.obj
 0002:00000554       _ExeDirectory$initializer$ 0043f554     v5subs:gexedir.obj
 0002:00000558       _T$initializer$            0043f558     v5subs:semaphor.obj
 0002:0000055c       _FontList$initializer$     0043f55c     v5subs:menuctrl.obj
 0002:00000560       _Empty$initializer$        0043f560     v5subs:runlist.obj
 0002:00000564       _MyEmptyString$initializer$ 0043f564     v5subs:shot_name_reset.obj
 0002:00000570       _pinit                     0043f570     LIBCMT:onexit.obj
 0002:00000574       _pinit                     0043f574     LIBCMT:cpu_disp.obj
 0002:00000578       _pinit                     0043f578     LIBCMT:mbctype.obj
 0002:0000057c       _pinit                     0043f57c     LIBCMT:mathfcns.obj
 0002:00000580       _pinit                     0043f580     LIBCMT:_file.obj
 0002:00000584       _pinit                     0043f584     LIBCMT:wincrt0.obj
 0002:00000590       _pterm                     0043f590     LIBCMT:wsetloca.obj
 0002:00000594       _pterm                     0043f594     LIBCMT:initcon.obj
 0002:00000598       _pterm                     0043f598     LIBCMT:_file.obj
 0002:0000061c       _InputBitControlId         0043f61c     ft2.obj
 0002:00000644       _OutputBitControlId        0043f644     ft2.obj
 0002:000010c0       ?analog_response@?1??get_ascii_rt_data@@YAXJ@Z@4QBDB 004400c0     ft2.obj
 0002:000010c8       ?null_response@?1??get_ascii_rt_data@@YAXJ@Z@4QBDB 004400c8     ft2.obj
 0002:000010d0       ?osw1_response@?1??get_ascii_rt_data@@YAXJ@Z@4QBDB 004400d0     ft2.obj
 0002:000021a0       _CrString                  004411a0     board_monitor.obj
 0002:000021a4       _ConfigSetString           004411a4     board_monitor.obj
 0002:000021ac       _INPUT_BITS_RESPONSE       004411ac     board_monitor.obj
 0002:00002308       ?ANALOG_RESPONSE@?1??do_ascii_message@@YAXHPAD@Z@4QBDB 00441308     board_monitor.obj
 0002:00002310       ?TIMER_FREQ_RESPONSE@?1??do_ascii_message@@YAXHPAD@Z@4QBDB 00441310     board_monitor.obj
 0002:00002318       ?AT_HOME_RESPONSE@?1??do_ascii_message@@YAXHPAD@Z@4QBDB 00441318     board_monitor.obj
 0002:00002324       ?POS_AT_IMPACT_RESPONSE@?1??do_ascii_message@@YAXHPAD@Z@4QBDB 00441324     board_monitor.obj
 0002:00002330       ?VERSION_RESPONSE@?1??do_ascii_message@@YAXHPAD@Z@4QBDB 00441330     board_monitor.obj
 0002:0000233c       ?VERSION_RESPONSE2@?1??do_ascii_message@@YAXHPAD@Z@4QBDB 0044133c     board_monitor.obj
 0002:00002348       ?FATAL_OR_WARNING_RESPONSE@?1??do_ascii_message@@YAXHPAD@Z@4QBDB 00441348     board_monitor.obj
 0002:000029f0       _MAX_RAW_COUNTS            004419f0     v5subs:asensor.obj
 0002:00002a40       _RECORD_DELIMITER_STRING   00441a40     v5subs:dbsubs.obj
 0002:00002a43       _EmptyString               00441a43     v5subs:dbsubs.obj
 0002:00002b28       _ResetCmd                  00441b28     v5subs:listbox.obj
 0002:00002b30       _AddCmd                    00441b30     v5subs:listbox.obj
 0002:00002b38       _DeleteCmd                 00441b38     v5subs:listbox.obj
 0002:00002b40       _GetCurSelCmd              00441b40     v5subs:listbox.obj
 0002:00002b48       _SetCurSelCmd              00441b48     v5subs:listbox.obj
 0002:00002b50       _FindStringCmd             00441b50     v5subs:listbox.obj
 0002:00002b58       _FindPrefixCmd             00441b58     v5subs:listbox.obj
 0002:00002b60       _GetCountCmd               00441b60     v5subs:listbox.obj
 0002:00002b68       _GetTextCmd                00441b68     v5subs:listbox.obj
 0002:00002b70       _GetTextLenCmd             00441b70     v5subs:listbox.obj
 0002:00002b78       _InsertCmd                 00441b78     v5subs:listbox.obj
 0002:00002b80       _CmdError                  00441b80     v5subs:listbox.obj
 0002:00002bc0       _ConfigSection             00441bc0     v5subs:machine.obj
 0002:00002bc8       _FlashVersionKey           00441bc8     v5subs:machine.obj
 0002:00002ef0       _RECORD_DELIMITER_STRING   00441ef0     v5subs:vdbclass.obj
 0002:00003024       _Cursors                   00442024     v5subs:rectclas.obj
 0002:00003098       _CrLf                      00442098     v5subs:client.obj
 0002:000030ec       _PeriodString              004420ec     v5subs:ftoasc.obj
 0002:000030f0       _ZeroPointZero             004420f0     v5subs:ftoasc.obj
 0002:00003120       _UnknownString             00442120     v5subs:winsubs.obj
 0002:00003130       ?s@?1??is_hex_char@@YAED@Z@4QBDB 00442130     v5subs:hex.obj
 0002:00003164       _ZeroPointZero             00442164     v5subs:dtotchar.obj
 0002:00003254       _CheckDigitTag             00442254     v5subs:shot_name.obj
 0002:00003264       _HondaYearTag              00442264     v5subs:shot_name.obj
 0002:0000326c       _YearTag                   0044226c     v5subs:shot_name.obj
 0002:00003274       _ShiftYearTag              00442274     v5subs:shot_name.obj
 0002:0000327c       _ShiftHondaYearTag         0044227c     v5subs:shot_name.obj
 0002:00003284       _HexMonthTag               00442284     v5subs:shot_name.obj
 0002:0000328c       _MonthTag                  0044228c     v5subs:shot_name.obj
 0002:00003294       _ShiftHexMonthTag          00442294     v5subs:shot_name.obj
 0002:0000329c       _ShiftMonthTag             0044229c     v5subs:shot_name.obj
 0002:000032a4       _DayTag                    004422a4     v5subs:shot_name.obj
 0002:000032ac       _ShiftDayTag               004422ac     v5subs:shot_name.obj
 0002:000032b4       _ShiftTag                  004422b4     v5subs:shot_name.obj
 0002:000032bc       _JulianTag                 004422bc     v5subs:shot_name.obj
 0002:000032c0       _ShiftJulianTag            004422c0     v5subs:shot_name.obj
 0002:000032c8       _HoursTag                  004422c8     v5subs:shot_name.obj
 0002:00003348       _MinPosDouble              00442348     v5subs:zero.obj
 0002:00003350       _MinNegDouble              00442350     v5subs:zero.obj
 0002:000033c8       _ShiftTag                  004423c8     v5subs:dynamic_file_name.obj
 0002:00003530       _GS_ExceptionPointers      00442530     LIBCMT:gs_report.obj
 0002:00003540       _One                       00442540     LIBCMT:floor_pentium4.obj
 0002:00003550       _Bns                       00442550     LIBCMT:floor_pentium4.obj
 0002:00003560       _NegOne                    00442560     LIBCMT:floor_pentium4.obj
 0002:00003570       _NegZero                   00442570     LIBCMT:floor_pentium4.obj
 0002:00003580       _S                         00442580     LIBCMT:floor_pentium4.obj
 0002:00003590       _Int32ToUInt32             00442590     LIBCMT:ftol3.obj
 0002:000035a0       _MantissaMask              004425a0     LIBCMT:ftol3.obj
 0002:000035a8       _IntegerBit                004425a8     LIBCMT:ftol3.obj
 0002:000035b0       _SignBit64                 004425b0     LIBCMT:ftol3.obj
 0002:000035b8       _MinFP64                   004425b8     LIBCMT:ftol3.obj
 0002:000035c0       _MinInt64                  004425c0     LIBCMT:ftol3.obj
 0002:000035c8       _MaxInt64                  004425c8     LIBCMT:ftol3.obj
 0002:000035d0       _MaxUInt64                 004425d0     LIBCMT:ftol3.obj
 0002:000035d8       _MaxFP32                   004425d8     LIBCMT:ftol3.obj
 0002:000035e0       _MinFP32                   004425e0     LIBCMT:ftol3.obj
 0002:000035e8       _MinSubInexact             004425e8     LIBCMT:ftol3.obj
 0002:000035f0       _FpExcptTable              004425f0     LIBCMT:ftol3.obj
 0002:00003600       _i1075                     00442600     LIBCMT:ftol3.obj
 0002:00003604       _i1087                     00442604     LIBCMT:ftol3.obj
 0002:00003608       _x0800                     00442608     LIBCMT:ftol3.obj
 0002:0000360c       _x17FF                     0044260c     LIBCMT:ftol3.obj
 0002:00003610       _CWMask                    00442610     LIBCMT:ftol3.obj
 0002:00003620       _One                       00442620     LIBCMT:ceil_pentium4.obj
 0002:00003630       _Bns                       00442630     LIBCMT:ceil_pentium4.obj
 0002:00003640       _Zero                      00442640     LIBCMT:ceil_pentium4.obj
 0002:00003650       _S                         00442650     LIBCMT:ceil_pentium4.obj
 0002:00003660       _NegZero                   00442660     LIBCMT:ceil_pentium4.obj
 0002:00003688       ?ExceptionTemplate@?1??_CxxThrowException@@9@8@4UEHExceptionRecord@@B 00442688     LIBCMT:throw.obj
 0002:00003a58       _rterrs                    00442a58     LIBCMT:crt0msg.obj
 0002:000044bc       __mb_locale_names          004434bc     LIBCMT:mbctype.obj
 0002:00004840       __first_127char            00443840     LIBCMT:wsetloca.obj
 0002:000048c0       _INF                       004438c0     LIBCMT:libm_error.obj
 0002:000048d0       _BIG                       004438d0     LIBCMT:libm_error.obj
 0002:000048e0       _ZERO                      004438e0     LIBCMT:libm_error.obj
 0002:000048f0       _INF_32                    004438f0     LIBCMT:libm_error.obj
 0002:000048f8       _NAN_32                    004438f8     LIBCMT:libm_error.obj
 0002:00004900       _ZERO_32                   00443900     LIBCMT:libm_error.obj
 0002:00004908       _libm_largef               00443908     LIBCMT:libm_error.obj
 0002:00004910       _libm_smallf               00443910     LIBCMT:libm_error.obj
 0002:00004918       _libm_small                00443918     LIBCMT:libm_error.obj
 0002:00004a14       One                        00443a14     LIBCMT:87disp.obj
 0002:00004a1c       XAMtoTagTab                00443a1c     LIBCMT:87disp.obj
 0002:00004a30       One                        00443a30     LIBCMT:common.obj
 0002:00004a44       DblMax                     00443a44     LIBCMT:common.obj
 0002:00004a4c       DblMin                     00443a4c     LIBCMT:common.obj
 0002:00004a54       IeeeAdjO                   00443a54     LIBCMT:common.obj
 0002:00004a5c       IeeeAdjU                   00443a5c     LIBCMT:common.obj
 0002:00004a64       _infinity                  00443a64     LIBCMT:common.obj
 0002:00004a6c       _zero                      00443a6c     LIBCMT:common.obj
 0002:00004a78       _tokenTable                00443a78     LIBCMT:undname.obj
 0002:00004ab0       _nameTable                 00443ab0     LIBCMT:undname.obj
 0002:00004bf0       _rttiTable                 00443bf0     LIBCMT:undname.obj
 0002:00007e48       __sehtable$__onexit        00446e48     LIBCMT:onexit.obj
 0002:00007e68       __sehtable$__callthreadstart 00446e68     LIBCMT:thread.obj
 0002:00007e88       __sehtable$___tmainCRTStartup 00446e88     LIBCMT:wincrt0.obj
 0002:00007ea8       __sehtable$_doexit         00446ea8     LIBCMT:crt0dat.obj
 0002:00007ec8       __sehtable$?_Type_info_dtor@type_info@@CAXPAV1@@Z 00446ec8     LIBCMT:typname.obj
 0002:00007ee8       __sehtable$__freefls@4     00446ee8     LIBCMT:tidtable.obj
 0002:00007f10       __sehtable$__initptd       00446f10     LIBCMT:tidtable.obj
 0002:00007f38       __sehtable$__ioinit        00446f38     LIBCMT:ioinit.obj
 0002:00007f58       __sehtable$___updatetlocinfo 00446f58     LIBCMT:localref.obj
 0002:00007f78       __sehtable$___updatetmbcinfo 00446f78     LIBCMT:mbctype.obj
 0002:00007f98       __sehtable$__setmbcp       00446f98     LIBCMT:mbctype.obj
 0002:00007fb8       __sehtable$__locterm       00446fb8     LIBCMT:wsetloca.obj
 0002:00007fd8       __sehtable$___set_fpsr_sse2 00446fd8     LIBCMT:fpctrl.obj
 0002:00007ff8       __sehtable$__mtinitlocknum 00446ff8     LIBCMT:mlock.obj
 0002:00008018       __sehtable$__IsNonwritableInCurrentImage 00447018     LIBCMT:pesect.obj
 0002:00008038       __sehtable$?terminate@@YAXXZ 00447038     LIBCMT:hooks.obj
 0002:00008058       __sehtable$_raise          00447058     LIBCMT:winsig.obj
 0002:00008078       __sehtable$_flsall         00447078     LIBCMT:fflush.obj
 0002:000080a0       __sehtable$__fcloseall     004470a0     LIBCMT:closeall.obj
 0002:000080c0       __sehtable$__commit        004470c0     LIBCMT:commit.obj
 0002:000080e0       __sehtable$__write         004470e0     LIBCMT:write.obj
 0002:00008100       __sehtable$_fclose         00447100     LIBCMT:fclose.obj
 0002:00008120       __sehtable$___lock_fhandle 00447120     LIBCMT:osfinfo.obj
 0002:00008140       __sehtable$__close         00447140     LIBCMT:close.obj
 0002:000086ea       .idata$6                   004476ea     kernel32:KERNEL32.dll
 0002:00008984       .idata$6                   00447984     user32:USER32.dll
 0002:000089f4       .idata$6                   004479f4     gdi32:GDI32.dll
 0002:000089fe       .idata$6                   004479fe     comctl32:COMCTL32.dll
 0002:00008a0c       .idata$6                   00447a0c     wsock32:WSOCK32.dll
 0002:00009390       .idata$6                   00448390     shell32:SHELL32.dll
 0003:00000000       _CHANNEL_MODE_1            00449000     ft2.obj
 0003:00000004       _CHANNEL_MODE_2            00449004     ft2.obj
 0003:00000008       _CHANNEL_MODE_3            00449008     ft2.obj
 0003:0000000c       _CHANNEL_MODE_4            0044900c     ft2.obj
 0003:00000010       _CHANNEL_MODE_5            00449010     ft2.obj
 0003:00000014       _CHANNEL_MODE_6            00449014     ft2.obj
 0003:00000018       _CHANNEL_MODE_7            00449018     ft2.obj
 0003:0000004e       _NeedToRefreshAnalogs      0044904e     ft2.obj
 0003:0000004f       _NeedRefresh               0044904f     ft2.obj
 0003:00000674       _OffString                 00449674     ft2.obj
 0003:0000067c       _OnString                  0044967c     ft2.obj
 0003:00000680       _PoundString               00449680     ft2.obj
 0003:00000684       _ResetString               00449684     ft2.obj
 0003:0000068c       _TString                   0044968c     ft2.obj
 0003:00000690       _TwoSpacesString           00449690     ft2.obj
 0003:00000694       _SpacePoundString          00449694     ft2.obj
 0003:00000698       _ZeroString                00449698     ft2.obj
 0003:0000069c       _DotTxt                    0044969c     ft2.obj
 0003:000006a4       _DotMsg                    004496a4     ft2.obj
 0003:000006ac       _ChannelModeSetString      004496ac     ft2.obj
 0003:000006b4       _ConfigWordMsg             004496b4     ft2.obj
 0003:000006bc       _ConfigWord2Msg            004496bc     ft2.obj
 0003:000006c4       _ConfigWordMsgLen          004496c4     ft2.obj
 0003:000006c8       _OpenValve_1_Loop          004496c8     ft2.obj
 0003:000006d0       _CloseValve_1_Loop         004496d0     ft2.obj
 0003:000006d8       _OpenValve_2_Loop          004496d8     ft2.obj
 0003:000006e0       _CloseValve_2_Loop         004496e0     ft2.obj
 0003:000006e8       _ClearControlFileDate      004496e8     ft2.obj
 0003:000006f0       _HaltString                004496f0     ft2.obj
 0003:000006f4       _ZeroPositionCmd           004496f4     ft2.obj
 0003:000006fc       _CycleString               004496fc     ft2.obj
 0003:00000704       _CycleStringLen            00449704     ft2.obj
 0003:00000708       _FatalString               00449708     ft2.obj
 0003:00000710       _FatalStringLen            00449710     ft2.obj
 0003:00000714       _MainMenuWindowName        00449714     ft2.obj
 0003:00000720       _TerminalMenuWindowName    00449720     ft2.obj
 0003:00000730       _WarningString             00449730     ft2.obj
 0003:00000738       _WarningStringLen          00449738     ft2.obj
 0003:0000073c       _NoFileString              0044973c     ft2.obj
 0003:0000074c       _NoFileStringLen           0044974c     ft2.obj
 0003:00000750       _ArialFontName             00449750     ft2.obj
 0003:00000758       _MyFont                    00449758     ft2.obj
 0003:0000075c       _ValveMasterMax            0044975c     ft2.obj
 0003:00000760       _ValveTestMax              00449760     ft2.obj
 0003:00000764       _CVListFileName            00449764     ft2.obj
 0003:00000780       _HiresSensorConfigFile     00449780     ft2.obj
 0003:000007a0       _HIRES_SENSOR_FOLLOW_THRU_WIRE_INDEX 004497a0     ft2.obj
 0003:000007a4       _HIRES_SENSOR_RETRACT_WIRE_INDEX 004497a4     ft2.obj
 0003:000007a8       _HIRES_SENSOR_CYCLE_TIME_INDEX 004497a8     ft2.obj
 0003:000007ac       _HIRES_SENSOR_FOLLOW_THRU_TIME_INDEX 004497ac     ft2.obj
 0003:000007b0       _HIRES_SENSOR_RETRACT_TIME_INDEX 004497b0     ft2.obj
 0003:000007b4       _HIRES_SENSOR_RETRACT_END_TIME_INDEX 004497b4     ft2.obj
 0003:000007b8       _HIRES_SENSOR_SETPOINT_COUNT 004497b8     ft2.obj
 0003:000007bc       _CurrentHiresSensorPeriod  004497bc     ft2.obj
 0003:00000808       _LVDT_DAC_INDEX            00449808     ft2.obj
 0003:0000080c       _JOG_SHOT_VALVE_INDEX      0044980c     ft2.obj
 0003:00000810       _FT_VALVE_INDEX            00449810     ft2.obj
 0003:00000814       _RETRACT_VALVE_INDEX       00449814     ft2.obj
 0003:00000818       _ZERO_SPEED_CHECK_INDEX    00449818     ft2.obj
 0003:0000081c       _VC_DITHER_FREQ_INDEX      0044981c     ft2.obj
 0003:00000820       _VC_DITHER_AMPL_INDEX      00449820     ft2.obj
 0003:00000824       _PC_DITHER_FREQ_INDEX      00449824     ft2.obj
 0003:00000828       _PC_DITHER_AMPL_INDEX      00449828     ft2.obj
 0003:0000082c       _NULL_DAC_2_INDEX          0044982c     ft2.obj
 0003:00000830       _LVDT_DAC_2_INDEX          00449830     ft2.obj
 0003:00000834       _NormalStep                00449834     ft2.obj
 0003:0000083c       _SLOW_SHOT_OUTPUT_MASK     0044983c     ft2.obj
 0003:00000840       _ACCUMULATOR_OUTPUT_MASK   00449840     ft2.obj
 0003:00000844       _MANUAL_MODE_MASK          00449844     ft2.obj
 0003:00000848       _MachineVars               00449848     ft2.obj
 0003:00000870       _Lindex                    00449870     ft2.obj
 0003:00000874       _CurrentChannelMode        00449874     ft2.obj
 0003:00000878       _CurrentFlashVersion       00449878     ft2.obj
 0003:0000087c       _MainEboxHeight            0044987c     ft2.obj
 0003:00000970       _CVGettingTb               00449970     ft2.obj
 0003:00000978       _CVCurrentVariableTb       00449978     ft2.obj
 0003:00000980       _CVofTb                    00449980     ft2.obj
 0003:00000988       _ResumeDialog              00449988     ft2.obj
 0003:00000990       _Ft2TestDialog             00449990     ft2.obj
 0003:000009b4       ?s@?1??get_help@@YAXXZ@4PADA 004499b4     ft2.obj
 0003:000009c8       ?info@?1??get_help@@YAXXZ@4U_STARTUPINFOA@@A 004499c8     ft2.obj
 0003:00000a0c       ?id@?1??fatal_error_string@@YAPADH@Z@4PAIA 00449a0c     ft2.obj
 0003:00000a24       ?fatal_error_number@?1??fatal_error_string@@YAPADH@Z@4PAHA 00449a24     ft2.obj
 0003:00000a3c       ?id@?1??warning_error_string@@YAPADH@Z@4PAIA 00449a3c     ft2.obj
 0003:00000a54       ?warning_number@?1??warning_error_string@@YAPADH@Z@4PAHA 00449a54     ft2.obj
 0003:00000a6c       ?mask@?1??put_byte@@YAXAAIIH@Z@4PAIA 00449a6c     ft2.obj
 0003:00000a7c       ?control4c@?1??ft2_control_program_name@@YAPADHAAVMACHINE_CLASS@@@Z@4PADA 00449a7c     ft2.obj
 0003:00000a8c       ?control4m@?1??ft2_control_program_name@@YAPADHAAVMACHINE_CLASS@@@Z@4PADA 00449a8c     ft2.obj
 0003:00000a9c       ?control5c@?1??ft2_control_program_name@@YAPADHAAVMACHINE_CLASS@@@Z@4PADA 00449a9c     ft2.obj
 0003:00000aac       ?control5m@?1??ft2_control_program_name@@YAPADHAAVMACHINE_CLASS@@@Z@4PADA 00449aac     ft2.obj
 0003:00000abc       ?control5e@?1??ft2_control_program_name@@YAPADHAAVMACHINE_CLASS@@@Z@4PADA 00449abc     ft2.obj
 0003:00000acc       ?control5p@?1??ft2_control_program_name@@YAPADHAAVMACHINE_CLASS@@@Z@4PADA 00449acc     ft2.obj
 0003:00000adc       ?controlall@?1??ft2_control_program_name@@YAPADHAAVMACHINE_CLASS@@@Z@4PADA 00449adc     ft2.obj
 0003:00000aec       ?firstime@?1??set_current_window@@YAXAAVWINDOW_CLASS@@@Z@4_NA 00449aec     ft2.obj
 0003:00000af0       ?buf@?1??percent_to_hex@@YAPADN@Z@4PADA 00449af0     ft2.obj
 0003:00000afc       ?equalspad@?1??should_be_hex@@YAEPAD0@Z@4PADA 00449afc     ft2.obj
 0003:00000b00       ?pluspad@?1??should_be_hex@@YAEPAD0@Z@4PADA 00449b00     ft2.obj
 0003:00000b04       ?ColWidth@?1??create_controls@@YAXH@Z@4PAHA 00449b04     ft2.obj
 0003:00000b1c       ?rsn@?1??set_upload_aborted_setup_strings@@YAXPAUHWND__@@@Z@4PAURESOURCE_TEXT_ENTRY@@A 00449b1c     ft2.obj
 0003:00000b44       ?box@?1??set_upload_aborted_setup_strings@@YAXPAUHWND__@@@Z@4PAIA 00449b44     ft2.obj
 0003:00000b48       ?default_text@?1??create_tooltips@@YAXXZ@4PADA 00449b48     ft2.obj
 0003:00000b50       ?NullMessage@?1??send_command_to_current_machine@@YAXPAD_N@Z@4PADA 00449b50     ft2.obj
 0003:00000b58       ?rsn@?1??set_deactivate_setup_strings@@YAXPAUHWND__@@@Z@4PAURESOURCE_TEXT_ENTRY@@A 00449b58     ft2.obj
 0003:00000b70       ?rsn@?1??set_choose_monitor_setup_strings@@YAXPAUHWND__@@@Z@4PAURESOURCE_TEXT_ENTRY@@A 00449b70     ft2.obj
 0003:00000b88       ?box@?1??set_choose_monitor_setup_strings@@YAXPAUHWND__@@@Z@4PAIA 00449b88     ft2.obj
 0003:00000b8c       ?OnString@?1??send_output_bits_to_current_machine@@YAXIE@Z@4PADA 00449b8c     ft2.obj
 0003:00000b94       ?OffString@?1??send_output_bits_to_current_machine@@YAXIE@Z@4PADA 00449b94     ft2.obj
 0003:00000b9c       ?Description@?1??put_hires_sensor_test_config@@YAXPAUHWND__@@@Z@4PAPADA 00449b9c     ft2.obj
 0003:00000bb8       ?firstime@?1??do_new_set_null_values@@YAXXZ@4_NA 00449bb8     ft2.obj
 0003:00000bbc       ?response@?1??do_new_set_null_ascii_data@@YAXJ@Z@4PAUMY_ENTRY@?1??1@YAXJ@Z@A 00449bbc     ft2.obj
 0003:00000bdc       ?rsn@?1??set_null_setup_strings@@YAXPAUHWND__@@@Z@4PAURESOURCE_TEXT_ENTRY@@A 00449bdc     ft2.obj
 0003:00000c04       ?box@?1??set_null_setup_strings@@YAXPAUHWND__@@@Z@4PAIA 00449c04     ft2.obj
 0003:00000c08       ?id@?1??show_revision_d_controls@@YAXXZ@4PAIA 00449c08     ft2.obj
 0003:00000c2c       ?accel@?1??init_set_dac_dialog@@YAXXZ@4U_UDACCEL@@A 00449c2c     ft2.obj
 0003:00000c34       ?firstime@?1??do_new_set_dac_values@@YAXXZ@4_NA 00449c34     ft2.obj
 0003:00000c38       ?amp_1_cmd@?1??send_lvdt_digital_pot_command@@YAXE@Z@4PADA 00449c38     ft2.obj
 0003:00000c40       ?amp_2_cmd@?1??send_lvdt_digital_pot_command@@YAXE@Z@4PADA 00449c40     ft2.obj
 0003:00000c48       ?amp_1_cmd@?1??send_set_dac_command@@YAXH@Z@4PADA 00449c48     ft2.obj
 0003:00000c50       ?amp_2_cmd@?1??send_set_dac_command@@YAXH@Z@4PADA 00449c50     ft2.obj
 0003:00000c58       ?rsn@?1??set_dac_setup_strings@@YAXPAUHWND__@@@Z@4PAURESOURCE_TEXT_ENTRY@@A 00449c58     ft2.obj
 0003:00000cd0       ?box@?1??set_dac_setup_strings@@YAXPAUHWND__@@@Z@4PAIA 00449cd0     ft2.obj
 0003:00000cd8       ?vars@?1??fill_global_parameters@@YAXXZ@4PAHA 00449cd8     ft2.obj
 0003:00000d08       ?rsn@?1??set_global_parameter_setup_strings@@YAXPAUHWND__@@@Z@4PAURESOURCE_TEXT_ENTRY@@A 00449d08     ft2.obj
 0003:00000d90       ?rsn@?1??set_compare_variables_setup_strings@@YAXPAUHWND__@@@Z@4PAURESOURCE_TEXT_ENTRY@@A 00449d90     ft2.obj
 0003:00000de0       ?box@?1??set_compare_variables_setup_strings@@YAXPAUHWND__@@@Z@4PAIA 00449de0     ft2.obj
 0003:00000dec       ?zerostring@?1??get_string_value_from_line@@YAPADPAD@Z@4PADA 00449dec     ft2.obj
 0003:00000df0       ?rsn@?1??set_control_mods_setup_strings@@YAXPAUHWND__@@@Z@4PAURESOURCE_TEXT_ENTRY@@A 00449df0     ft2.obj
 0003:00000e70       ?amp_1_cmd@?1??send_current_digital_pot_command@@YAXXZ@4PADA 00449e70     ft2.obj
 0003:00000e78       ?id@?1??show_valve_test_revision_d_controls@@YAXXZ@4PAIA 00449e78     ft2.obj
 0003:00000e84       ?accel@?1??init_valve_test_data@@YAXXZ@4U_UDACCEL@@A 00449e84     ft2.obj
 0003:00000e8c       ?rsn@?1??set_valve_test_setup_strings@@YAXPAUHWND__@@@Z@4PAURESOURCE_TEXT_ENTRY@@A 00449e8c     ft2.obj
 0003:00000eb0       ?instring@?1??log_input_bits@@YAXXZ@4PAPADA 00449eb0     ft2.obj
 0003:00000f30       ?outstring@?1??log_output_bits@@YAXXZ@4PAPADA 00449f30     ft2.obj
 0003:00000fb0       ?logfile@?1??kill_log_file@@YAXXZ@4PADA 00449fb0     ft2.obj
 0003:00000fbc       ?tempfile@?1??kill_log_file@@YAXXZ@4PADA 00449fbc     ft2.obj
 0003:00000fcc       ?zipfile@?1??kill_log_file@@YAXXZ@4PADA 00449fcc     ft2.obj
 0003:00000fd8       ?rsn@?1??set_test_alarm_setup_strings@@YAXPAUHWND__@@@Z@4PAURESOURCE_TEXT_ENTRY@@A 00449fd8     ft2.obj
 0003:00001040       ?rsn@?1??set_current_values_setup_strings@@YAXPAUHWND__@@@Z@4PAURESOURCE_TEXT_ENTRY@@A 0044a040     ft2.obj
 0003:000011b8       ?box@?1??set_current_values_setup_strings@@YAXPAUHWND__@@@Z@4PAIA 0044a1b8     ft2.obj
 0003:000011e8       ?firstime@?1??current_values_dialog_proc@@YGHPAUHWND__@@IIJ@Z@4EA 0044a1e8     ft2.obj
 0003:000011f0       ?ButtonLevel@?1??id_enabled@@YAEH@Z@4PAUBUTTON_ENABLE_ENTRY@?1??1@YAEH@Z@A 0044a1f0     ft2.obj
 0003:00001238       ?id@?1??show_buttons@@YAXXZ@4PAIA 0044a238     ft2.obj
 0003:0000125c       ?ns@?1??send_data_server_shot_notification@@YAXPAD0@Z@4PADA 0044a25c     ft2.obj
 0003:00001264       ?s@?1??send_data_server_down_notification@@YAXPAD@Z@4PADA 0044a264     ft2.obj
 0003:00001268       ?firstime@?1??do_external_parameter_timer@@YAXXZ@4EA 0044a268     ft2.obj
 0003:0000126c       _CHANNEL_MODE_1            0044a26c     board_monitor.obj
 0003:00001270       _CHANNEL_MODE_2            0044a270     board_monitor.obj
 0003:00001274       _CHANNEL_MODE_3            0044a274     board_monitor.obj
 0003:00001278       _ALS_BITS                  0044a278     board_monitor.obj
 0003:0000127c       _CHANNEL_MODE_4            0044a27c     board_monitor.obj
 0003:00001280       _FOLLOW_THROUGH_MASK       0044a280     board_monitor.obj
 0003:00001284       _CHANNEL_MODE_5            0044a284     board_monitor.obj
 0003:00001288       _START_SHOT_MASK           0044a288     board_monitor.obj
 0003:0000128c       _CHANNEL_MODE_6            0044a28c     board_monitor.obj
 0003:00001290       _RETRACT_MASK              0044a290     board_monitor.obj
 0003:00001294       _CHANNEL_MODE_7            0044a294     board_monitor.obj
 0003:00001298       _ACCUMULATOR_MASK          0044a298     board_monitor.obj
 0003:0000129c       _SLOW_SHOT_MASK            0044a29c     board_monitor.obj
 0003:000012a0       _MySocket                  0044a2a0     board_monitor.obj
 0003:000012a4       _ControlFileDateString     0044a2a4     board_monitor.obj
 0003:000012ac       _ControlStatusString       0044a2ac     board_monitor.obj
 0003:000012b4       _FlashVariablesString      0044a2b4     board_monitor.obj
 0003:000012b8       _GoString                  0044a2b8     board_monitor.obj
 0003:000012bc       _IsControlSetString        0044a2bc     board_monitor.obj
 0003:000012c4       _DigitalPotGainSetString   0044a2c4     board_monitor.obj
 0003:000012cc       _GetAllAnalogInputs        0044a2cc     board_monitor.obj
 0003:000012d4       _GetControlFileDateString  0044a2d4     board_monitor.obj
 0003:000012dc       _GetControlStatusString    0044a2dc     board_monitor.obj
 0003:000012e4       _GetMonitorStatusString    0044a2e4     board_monitor.obj
 0003:000012ec       _GetMSLString              0044a2ec     board_monitor.obj
 0003:000012f4       _GetTimerFrequencyString   0044a2f4     board_monitor.obj
 0003:000012fc       _GetInputBitsString        0044a2fc     board_monitor.obj
 0003:00001304       _GetUploadCopyDateString   0044a304     board_monitor.obj
 0003:0000130c       _GetVersionString          0044a30c     board_monitor.obj
 0003:00001310       _MonitorStatusString       0044a310     board_monitor.obj
 0003:00001318       _ConfigWord2SetString      0044a318     board_monitor.obj
 0003:00001320       _TimeoutString             0044a320     board_monitor.obj
 0003:00001328       _UploadCopyDateString      0044a328     board_monitor.obj
 0003:00001330       _PrinceCharOffset          0044a330     board_monitor.obj
 0003:00001334       _RetctlCharOffset          0044a334     board_monitor.obj
 0003:00001338       _NString                   0044a338     board_monitor.obj
 0003:0000133c       _YString                   0044a33c     board_monitor.obj
 0003:00001340       _ChannelModeSetString      0044a340     board_monitor.obj
 0003:00001348       _OpDataPacketString        0044a348     board_monitor.obj
 0003:00001350       _ChannelModeSetStringLen   0044a350     board_monitor.obj
 0003:00001354       _VarLineStart              0044a354     board_monitor.obj
 0003:00001358       _OldStVarLineStart         0044a358     board_monitor.obj
 0003:0000135c       _ShutdownMessage           0044a35c     board_monitor.obj
 0003:00001368       _ShutdownMessageLen        0044a368     board_monitor.obj
 0003:0000136c       ?On@?1??bit_state@@YAPADI@Z@4PADA 0044a36c     board_monitor.obj
 0003:00001374       ?Off@?1??bit_state@@YAPADI@Z@4PADA 0044a374     board_monitor.obj
 0003:0000137c       ?getanalog@?1??check_inputs@FTII_BOARD_ENTRY@@QAEXPAD@Z@4PADA 0044a37c     board_monitor.obj
 0003:00001384       ?OnString@?1??send_bits@FTII_BOARD_ENTRY@@QAEXI_N@Z@4PADA 0044a384     board_monitor.obj
 0003:0000138c       ?OffString@?1??send_bits@FTII_BOARD_ENTRY@@QAEXI_N@Z@4PADA 0044a38c     board_monitor.obj
 0003:00001394       ?POS_AT_IMPACT_DISABLE@?1??continue_connecting_one_board@@YAXH@Z@4PADA 0044a394     board_monitor.obj
 0003:0000139c       ?POS_AT_IMPACT_ENABLE@?1??continue_connecting_one_board@@YAXH@Z@4PADA 0044a39c     board_monitor.obj
 0003:000013a4       ?set_input_bitmask_string@?1??continue_connecting_one_board@@YAXH@Z@4PADA 0044a3a4     board_monitor.obj
 0003:000013ac       ?CYCLE_START@?1??check_for_cycle_start@@YA_NPAVFTII_BOARD_ENTRY@@PAD@Z@4PADA 0044a3ac     board_monitor.obj
 0003:000013b8       ?TIMEOUT@?1??check_for_cycle_start@@YA_NPAVFTII_BOARD_ENTRY@@PAD@Z@4PADA 0044a3b8     board_monitor.obj
 0003:000013c0       ?lfchar@?1??do_ascii_message@@YAXHPAUSOCKET_MESSAGE@@@Z@4DA 0044a3c0     board_monitor.obj
 0003:000013c8       ?se@?1??log_network_error@@YAXH@Z@4PAUSOCKET_ERROR_ENTRY@?1??1@YAXH@Z@A 0044a3c8     board_monitor.obj
 0003:00001530       _HaveDelimitChar           0044a530     shotsave.obj
 0003:00001531       _DelimitChar               0044a531     shotsave.obj
 0003:00001532       _ShowMachine               0044a532     shotsave.obj
 0003:00001533       _ShowPart                  0044a533     shotsave.obj
 0003:00001534       _EtxBuf                    0044a534     shotsave.obj
 0003:00001536       _ShowDate                  0044a536     shotsave.obj
 0003:00001537       _ShowTime                  0044a537     shotsave.obj
 0003:00001538       _StxBuf                    0044a538     shotsave.obj
 0003:0000153a       _ShowShot                  0044a53a     shotsave.obj
 0003:0000153b       _EosComDelimitChar         0044a53b     shotsave.obj
 0003:0000153c       _EosAsciiToSerialKey       0044a53c     shotsave.obj
 0003:0000154d       _EosKillOutputFile         0044a54d     shotsave.obj
 0003:00001550       _EosComSetupKey            0044a550     shotsave.obj
 0003:0000155c       _EosEndFileKey             0044a55c     shotsave.obj
 0003:00001568       _EosHaveAlarmParameterKey  0044a568     shotsave.obj
 0003:00001580       _EosHaveGoodParameterKey   0044a580     shotsave.obj
 0003:00001598       _EosHaveWarningParameterKey 0044a598     shotsave.obj
 0003:000015b0       _EosHaveAlarmShotKey       0044a5b0     shotsave.obj
 0003:000015c4       _EosHaveGoodShotKey        0044a5c4     shotsave.obj
 0003:000015d4       _EosHaveWarningShotKey     0044a5d4     shotsave.obj
 0003:000015e8       _EosKillOutputFileKey      0044a5e8     shotsave.obj
 0003:000015fc       _EosMachineNameKey         0044a5fc     shotsave.obj
 0003:0000160c       _EosOutputFileKey          0044a60c     shotsave.obj
 0003:0000161c       _EosOutputFileSetupKey     0044a61c     shotsave.obj
 0003:00001630       _EosStartFileKey           0044a630     shotsave.obj
 0003:00001640       _EosParamFileDirKey        0044a640     shotsave.obj
 0003:00001650       _EosParamFileNameKey       0044a650     shotsave.obj
 0003:00001664       _EosParamFileSetupKey      0044a664     shotsave.obj
 0003:00001678       _EosParamFileInfoSetupKey  0044a678     shotsave.obj
 0003:00001690       _WRITE_PARAM_TIMEOUT       0044a690     shotsave.obj
 0003:00001694       _EosComEol                 0044a694     shotsave.obj
 0003:00001698       ?sbe@?1??init_serial_port@@YAXXZ@4PAUSTOP_BIT_ENTRY@?1??1@YAXXZ@A 0044a698     shotsave.obj
 0003:000016b0       ?pe@?1??init_serial_port@@YAXXZ@4PAUPARITY_ENTRY@?1??1@YAXXZ@A 0044a6b0     shotsave.obj
 0003:000016e4       ?check_digit_tag@?1??shot_name_from_file_is_good@@YA_NAAVSTRING_CLASS@@AAVSHOT_NAME_CLASS@@@Z@4PADA 0044a6e4     shotsave.obj
 0003:000016f4       ?param_number_tag@?1??write_eos_param_file@@YAXPAUSHOT_BUFFER_ENTRY@@AAVPARAMETER_CLASS@@@Z@4PADA 0044a6f4     shotsave.obj
 0003:00001704       ?param_name_tag@?1??write_eos_param_file@@YAXPAUSHOT_BUFFER_ENTRY@@AAVPARAMETER_CLASS@@@Z@4PADA 0044a704     shotsave.obj
 0003:00001714       ?param_value_tag@?1??write_eos_param_file@@YAXPAUSHOT_BUFFER_ENTRY@@AAVPARAMETER_CLASS@@@Z@4PADA 0044a714     shotsave.obj
 0003:00001724       ?param_units_tag@?1??write_eos_param_file@@YAXPAUSHOT_BUFFER_ENTRY@@AAVPARAMETER_CLASS@@@Z@4PADA 0044a724     shotsave.obj
 0003:00001734       ?param_high_alarm_tag@?1??write_eos_param_file@@YAXPAUSHOT_BUFFER_ENTRY@@AAVPARAMETER_CLASS@@@Z@4PADA 0044a734     shotsave.obj
 0003:00001748       ?param_low_alarm_tag@?1??write_eos_param_file@@YAXPAUSHOT_BUFFER_ENTRY@@AAVPARAMETER_CLASS@@@Z@4PADA 0044a748     shotsave.obj
 0003:0000175c       ?param_high_warning_tag@?1??write_eos_param_file@@YAXPAUSHOT_BUFFER_ENTRY@@AAVPARAMETER_CLASS@@@Z@4PADA 0044a75c     shotsave.obj
 0003:00001774       ?param_low_warning_tag@?1??write_eos_param_file@@YAXPAUSHOT_BUFFER_ENTRY@@AAVPARAMETER_CLASS@@@Z@4PADA 0044a774     shotsave.obj
 0003:00001788       ?param_goodness_tag@?1??write_eos_param_file@@YAXPAUSHOT_BUFFER_ENTRY@@AAVPARAMETER_CLASS@@@Z@4PADA 0044a788     shotsave.obj
 0003:0000179c       ?part_name_tag@?1??write_eos_param_file@@YAXPAUSHOT_BUFFER_ENTRY@@AAVPARAMETER_CLASS@@@Z@4PADA 0044a79c     shotsave.obj
 0003:000017a8       ?shot_name_tag@?1??write_eos_param_file@@YAXPAUSHOT_BUFFER_ENTRY@@AAVPARAMETER_CLASS@@@Z@4PADA 0044a7a8     shotsave.obj
 0003:000017b4       ?shot_date_tag@?1??write_eos_param_file@@YAXPAUSHOT_BUFFER_ENTRY@@AAVPARAMETER_CLASS@@@Z@4PADA 0044a7b4     shotsave.obj
 0003:000017c0       ?shot_time_tag@?1??write_eos_param_file@@YAXPAUSHOT_BUFFER_ENTRY@@AAVPARAMETER_CLASS@@@Z@4PADA 0044a7c0     shotsave.obj
 0003:000017cc       ?On@?1??bit_state@@YAPADI@Z@4PADA 0044a7cc     shotsave.obj
 0003:000017d0       ?Off@?1??bit_state@@YAPADI@Z@4PADA 0044a7d0     shotsave.obj
 0003:000017d8       ?slow_shot_output_mask@?1??write_als_log@@YAXPADAAVFTII_FILE_DATA@@@Z@4IA 0044a7d8     shotsave.obj
 0003:000017dc       ?accumulator_output_mask@?1??write_als_log@@YAXPADAAVFTII_FILE_DATA@@@Z@4IA 0044a7dc     shotsave.obj
 0003:000017e0       ?retract_mask@?1??write_als_log@@YAXPADAAVFTII_FILE_DATA@@@Z@4IA 0044a7e0     shotsave.obj
 0003:000017e4       ?follow_through_mask@?1??write_als_log@@YAXPADAAVFTII_FILE_DATA@@@Z@4IA 0044a7e4     shotsave.obj
 0003:000017e8       ?start_shot_mask@?1??write_als_log@@YAXPADAAVFTII_FILE_DATA@@@Z@4IA 0044a7e8     shotsave.obj
 0003:000017ec       ?accumulator_mask@?1??write_als_log@@YAXPADAAVFTII_FILE_DATA@@@Z@4IA 0044a7ec     shotsave.obj
 0003:000017f0       ?slow_shot_mask@?1??write_als_log@@YAXPADAAVFTII_FILE_DATA@@@Z@4IA 0044a7f0     shotsave.obj
 0003:000017f4       ?firstime@?1??write_std_units_csv_file@@YAEAAVSTRING_CLASS@@PAUSHOT_BUFFER_ENTRY@@@Z@4EA 0044a7f4     shotsave.obj
 0003:000017f8       ?title@?1??write_std_units_csv_file@@YAEAAVSTRING_CLASS@@PAUSHOT_BUFFER_ENTRY@@@Z@4PADA 0044a7f8     shotsave.obj
 0003:0000183d       ?have_enough_disk_space@?1??save_shot@@YAXPAUSHOT_BUFFER_ENTRY@@@Z@4EA 0044a83d     shotsave.obj
 0003:0000183e       _MinusChar                 0044a83e     v5subs:extract.obj
 0003:0000183f       _PlusChar                  0044a83f     v5subs:extract.obj
 0003:00001840       _DotChar                   0044a840     v5subs:extract.obj
 0003:00001841       _SpaceChar                 0044a841     v5subs:extract.obj
 0003:00001842       _ZeroChar                  0044a842     v5subs:extract.obj
 0003:00001843       _NineChar                  0044a843     v5subs:extract.obj
 0003:00001844       _BackSlashChar             0044a844     v5subs:stringcl.obj
 0003:00001845       _CommaChar                 0044a845     v5subs:stringcl.obj
 0003:00001846       _CrChar                    0044a846     v5subs:stringcl.obj
 0003:00001847       _DoubleQuoteChar           0044a847     v5subs:stringcl.obj
 0003:00001848       _LfChar                    0044a848     v5subs:stringcl.obj
 0003:00001849       _OneChar                   0044a849     v5subs:stringcl.obj
 0003:0000184a       _SpaceChar                 0044a84a     v5subs:stringcl.obj
 0003:0000184b       _ZeroChar                  0044a84b     v5subs:stringcl.obj
 0003:0000184c       _BackSlashString           0044a84c     v5subs:stringcl.obj
 0003:00001850       _FalseString               0044a850     v5subs:stringcl.obj
 0003:00001854       _TrueString                0044a854     v5subs:stringcl.obj
 0003:00001858       _BackSlashChar             0044a858     v5subs:nameclas.obj
 0003:00001859       _ForwardSlashChar          0044a859     v5subs:nameclas.obj
 0003:0000185a       _PeriodChar                0044a85a     v5subs:nameclas.obj
 0003:0000185b       _SpaceChar                 0044a85b     v5subs:nameclas.obj
 0003:0000185c       _ZeroChar                  0044a85c     v5subs:nameclas.obj
 0003:00001860       _Data                      0044a860     v5subs:nameclas.obj
 0003:00001868       _Display                   0044a868     v5subs:nameclas.obj
 0003:00001870       _Exes                      0044a870     v5subs:nameclas.obj
 0003:00001878       _Results                   0044a878     v5subs:nameclas.obj
 0003:00001880       _VisiTrakIniFile           0044a880     v5subs:nameclas.obj
 0003:00001890       _ConfigSection             0044a890     v5subs:nameclas.obj
 0003:00001898       _ThisComputerKey           0044a898     v5subs:nameclas.obj
 0003:000018a8       _AutoBackupDirKey          0044a8a8     v5subs:autoback.obj
 0003:000018b8       _BackupSection             0044a8b8     v5subs:autoback.obj
 0003:000018c0       _VisitrakIniFile           0044a8c0     v5subs:autoback.obj
 0003:00001904       _SecurityAttributes        0044a904     v5subs:dbsubs.obj
 0003:00001910       _FILE_SIZE_ERROR           0044a910     v5subs:fileclas.obj
 0003:00001914       _CrChar                    0044a914     v5subs:fileclas.obj
 0003:00001915       _LfChar                    0044a915     v5subs:fileclas.obj
 0003:00001918       _CrLf                      0044a918     v5subs:fileclas.obj
 0003:0000191c       _Data                      0044a91c     v5subs:computer.obj
 0003:00001921       _BackSlashChar             0044a921     v5subs:computer.obj
 0003:00001922       _CommaChar                 0044a922     v5subs:computer.obj
 0003:00001924       _Exes                      0044a924     v5subs:computer.obj
 0003:0000192c       _VisiTrakIniFile           0044a92c     v5subs:computer.obj
 0003:0000193c       _ConfigSection             0044a93c     v5subs:computer.obj
 0003:00001944       _ThisComputerKey           0044a944     v5subs:computer.obj
 0003:00001954       _CommaString               0044a954     v5subs:computer.obj
 0003:00001958       _LeftBracket               0044a958     v5subs:iniclass.obj
 0003:00001959       _RightBracket              0044a959     v5subs:iniclass.obj
 0003:0000195a       _NChar                     0044a95a     v5subs:iniclass.obj
 0003:0000195b       _YChar                     0044a95b     v5subs:iniclass.obj
 0003:0000195c       _LowerYChar                0044a95c     v5subs:iniclass.obj
 0003:00001960       _UnknownString             0044a960     v5subs:iniclass.obj
 0003:00001968       _UnknownLen                0044a968     v5subs:iniclass.obj
 0003:0000196c       ?checkedchar@?1??put_boolean@INI_CLASS@@QAEEPBD0E@Z@4PADA 0044a96c     v5subs:iniclass.obj
 0003:00001970       _CHANNEL_MODE_1            0044a970     v5subs:limit_switch_class.obj
 0003:00001974       _CHANNEL_MODE_2            0044a974     v5subs:limit_switch_class.obj
 0003:00001978       _CHANNEL_MODE_3            0044a978     v5subs:limit_switch_class.obj
 0003:0000197c       _CHANNEL_MODE_4            0044a97c     v5subs:limit_switch_class.obj
 0003:00001980       _CHANNEL_MODE_5            0044a980     v5subs:limit_switch_class.obj
 0003:00001984       _CHANNEL_MODE_6            0044a984     v5subs:limit_switch_class.obj
 0003:00001988       _CHANNEL_MODE_7            0044a988     v5subs:limit_switch_class.obj
 0003:0000198c       ?maskvn@?1??get@LIMIT_SWITCH_WIRE_CLASS@@QAEEAAVSTRING_CLASS@@00@Z@4PAHA 0044a98c     v5subs:limit_switch_class.obj
 0003:000019a4       _ConfigSection             0044a9a4     v5subs:multipart_runlist.obj
 0003:000019ac       _EnabledString             0044a9ac     v5subs:multipart_runlist.obj
 0003:000019b4       _InputWiresString          0044a9b4     v5subs:multipart_runlist.obj
 0003:000019c0       _PartSelectionNumberString 0044a9c0     v5subs:multipart_runlist.obj
 0003:000019d8       _VisiTrakIniFile           0044a9d8     v5subs:multipart_runlist.obj
 0003:000019e8       _ZeroString                0044a9e8     v5subs:multipart_runlist.obj
 0003:000019ec       ?HaveMultipartRunlistKey@?1??get@MULTIPART_RUNLIST_SETTINGS_CLASS@@QAE_NAAVSTRING_CLASS@@0@Z@4PADA 0044a9ec     v5subs:multipart_runlist.obj
 0003:00001a04       ?MultipartBaseWireKey@?1??get@MULTIPART_RUNLIST_SETTINGS_CLASS@@QAE_NAAVSTRING_CLASS@@0@Z@4PADA 0044aa04     v5subs:multipart_runlist.obj
 0003:00001a0c       ?MultipartSetupSection@?1??get@MULTIPART_RUNLIST_SETTINGS_CLASS@@QAE_NAAVSTRING_CLASS@@0@Z@4PADA 0044aa0c     v5subs:multipart_runlist.obj
 0003:00001a18       _Description               0044aa18     v5subs:machine.obj
 0003:00001a90       _NofDescriptions           0044aa90     v5subs:machine.obj
 0003:00001a94       ?DEVENT_TIME_INTRO@?1??get_binary_valve_settings_from_control_all@@YAXAAVMACHINE_CLASS@@@Z@4PADA 0044aa94     v5subs:machine.obj
 0003:00001a9c       ?PULSE_TIME_INTRO@?1??get_binary_valve_settings_from_control_all@@YAXAAVMACHINE_CLASS@@@Z@4PADA 0044aa9c     v5subs:machine.obj
 0003:00001aa4       ?PULSE_WIRE_INTRO@?1??get_binary_valve_settings_from_control_all@@YAXAAVMACHINE_CLASS@@@Z@4PADA 0044aaa4     v5subs:machine.obj
 0003:00001aac       ?inifile@?1??read_machset_db@MACHINE_CLASS@@QAEEAAVSTRING_CLASS@@@Z@4PADA 0044aaac     v5subs:machine.obj
 0003:00001ac8       _ResultsString             0044aac8     v5subs:machname.obj
 0003:00001ad0       _FontHandle                0044aad0     v5subs:optocontrol.obj
 0003:00001ad4       _IChar                     0044aad4     v5subs:optocontrol.obj
 0003:00001ad8       _VtwwOptoClassName         0044aad8     v5subs:optocontrol.obj
 0003:00001ae6       ?firstime@?1??register_vtww_opto_control@@YAXXZ@4_NA 0044aae6     v5subs:optocontrol.obj
 0003:00001ae8       _SecurityAttributes        0044aae8     v5subs:vdbclass.obj
 0003:00001af4       _CommaChar                 0044aaf4     v5subs:param.obj
 0003:00001af5       _PChar                     0044aaf5     v5subs:param.obj
 0003:00001af6       _PCharLow                  0044aaf6     v5subs:param.obj
 0003:00001af8       _CommaChar                 0044aaf8     v5subs:setpoint.obj
 0003:00001afc       _CommaString               0044aafc     v5subs:setpoint.obj
 0003:00001b00       _YChar                     0044ab00     v5subs:part.obj
 0003:00001b04       _BackSlashString           0044ab04     v5subs:part.obj
 0003:00001b08       _CommaString               0044ab08     v5subs:part.obj
 0003:00001b0c       _DaysPerMonth              0044ab0c     v5subs:timeclas.obj
 0003:00001b3c       _MonthAbreviation          0044ab3c     v5subs:timeclas.obj
 0003:00001b70       _Description               0044ab70     v5subs:plookup.obj
 0003:00001b84       _AChar                     0044ab84     v5subs:plookup.obj
 0003:00001b85       _SpaceChar                 0044ab85     v5subs:plookup.obj
 0003:00001b86       _ZChar                     0044ab86     v5subs:plookup.obj
 0003:00001b87       _ZeroChar                  0044ab87     v5subs:plookup.obj
 0003:00001b88       _DefaultFontDef            0044ab88     v5subs:stringtable.obj
 0003:00001bb0       ?FONT_FILE_NAME@?1??set_language@STRINGTABLE_CLASS@@QAEXAAVSTRING_CLASS@@@Z@4PADA 0044abb0     v5subs:stringtable.obj
 0003:00001bbc       _FtAnalogCurveType         0044abbc     v5subs:structs.obj
 0003:00001bcc       _IS_GOOSE_STRING           0044abcc     v5subs:stpres.obj
 0003:00001bd2       _NChar                     0044abd2     v5subs:stpres.obj
 0003:00001bd3       _PercentChar               0044abd3     v5subs:stpres.obj
 0003:00001bd4       _IS_OPEN_STRING            0044abd4     v5subs:stpres.obj
 0003:00001bd9       _YChar                     0044abd9     v5subs:stpres.obj
 0003:00001bdc       _YChar                     0044abdc     v5subs:get_ini.obj
 0003:00001bdd       _NChar                     0044abdd     v5subs:get_ini.obj
 0003:00001be0       _UnknownString             0044abe0     v5subs:get_ini.obj
 0003:00001be8       _SpaceChar                 0044abe8     v5subs:mem.obj
 0003:00001be9       _NineChar                  0044abe9     v5subs:mem.obj
 0003:00001bea       _TabChar                   0044abea     v5subs:mem.obj
 0003:00001beb       _TildaChar                 0044abeb     v5subs:mem.obj
 0003:00001bec       _ZeroChar                  0044abec     v5subs:mem.obj
 0003:00001bf0       _ServerName                0044abf0     v5subs:client.obj
 0003:00001bfc       _CodePageId                0044abfc     v5subs:client.obj
 0003:00001c00       _DdeClipFormat             0044ac00     v5subs:client.obj
 0003:00001c04       _First_Time                0044ac04     v5subs:gexedir.obj
 0003:00001c08       _DefaultDirectory          0044ac08     v5subs:gexedir.obj
 0003:00001c0b       _BackslashChar             0044ac0b     v5subs:semaphor.obj
 0003:00001c0c       _ColonChar                 0044ac0c     v5subs:fix.obj
 0003:00001c0d       _CrChar                    0044ac0d     v5subs:fix.obj
 0003:00001c0e       _LfChar                    0044ac0e     v5subs:fix.obj
 0003:00001c0f       _SpaceChar                 0044ac0f     v5subs:fix.obj
 0003:00001c10       _TabChar                   0044ac10     v5subs:fix.obj
 0003:00001c11       _ZeroChar                  0044ac11     v5subs:fix.obj
 0003:00001c14       ?path@?1??free_megabytes@@YAJPBD@Z@4PADA 0044ac14     v5subs:winsubs.obj
 0003:00001c18       _Radix                     0044ac18     v5subs:hex.obj
 0003:00001c1c       _Days                      0044ac1c     v5subs:time.obj
 0003:00001c3c       ?days@?1??dofyr@@YAGGGG@Z@4PAY0L@GA 0044ac3c     v5subs:time.obj
 0003:00001c68       _YChar                     0044ac68     v5subs:misc.obj
 0003:00001c69       _LowYChar                  0044ac69     v5subs:misc.obj
 0003:00001c6c       _s                         0044ac6c     v5subs:misc.obj
 0003:00001c74       _YString                   0044ac74     v5subs:misc.obj
 0003:00001c78       _NString                   0044ac78     v5subs:misc.obj
 0003:00001c7c       _Days                      0044ac7c     v5subs:shift.obj
 0003:00001c98       _CurrentShiftDow           0044ac98     v5subs:shift.obj
 0003:00001c9c       _CurrentShiftNumber        0044ac9c     v5subs:shift.obj
 0003:00001ca0       _TempMessageClassName      0044aca0     v5subs:temp_message.obj
 0003:00001cb4       _TempMessageMargin         0044acb4     v5subs:temp_message.obj
 0003:00001cb8       ?mycolor@?1??paint_temp_message@@YAXXZ@4KA 0044acb8     v5subs:temp_message.obj
 0003:00001cbc       ?firstime@?1??register_temp_message@@YAXXZ@4_NA 0044acbc     v5subs:temp_message.obj
 0003:00001cc0       _DotChar                   0044acc0     v5subs:textlist.obj
 0003:00001cc4       _StarDotStar               0044acc4     v5subs:textlist.obj
 0003:00001cc8       _DefaultLanguage           0044acc8     v5subs:menuctrl.obj
 0003:00001cd0       _MenuClassName             0044acd0     v5subs:menuctrl.obj
 0003:00001ce0       _SubMenuClassName          0044ace0     v5subs:menuctrl.obj
 0003:00001cf0       _BackGroundColor           0044acf0     v5subs:menuctrl.obj
 0003:00001cf4       _CurrentColor              0044acf4     v5subs:menuctrl.obj
 0003:00001d0c       ?firstime@?1??register_window@MENU_CONTROL_ENTRY@@SAXXZ@4_NA 0044ad0c     v5subs:menuctrl.obj
 0003:00001d0d       ?READ_COMPLETE@?1??read@MENU_CONTROL_ENTRY@@QAEEAAVNAME_CLASS@@H@Z@4DA 0044ad0d     v5subs:menuctrl.obj
 0003:00001d10       _StaticsFont               0044ad10     v5subs:statics.obj
 0003:00001d14       ?lParam@?1??set_statics_font@@YAXAAVWINDOW_CLASS@@@Z@4JA 0044ad14     v5subs:statics.obj
 0003:00001d18       _CHANNEL_MODE_1            0044ad18     v5subs:ftiiclas.obj
 0003:00001d1c       _CHANNEL_MODE_2            0044ad1c     v5subs:ftiiclas.obj
 0003:00001d20       _CHANNEL_MODE_3            0044ad20     v5subs:ftiiclas.obj
 0003:00001d24       _CHANNEL_MODE_4            0044ad24     v5subs:ftiiclas.obj
 0003:00001d28       _CHANNEL_MODE_5            0044ad28     v5subs:ftiiclas.obj
 0003:00001d2c       _CHANNEL_MODE_6            0044ad2c     v5subs:ftiiclas.obj
 0003:00001d30       _CHANNEL_MODE_7            0044ad30     v5subs:ftiiclas.obj
 0003:00001d34       _EqualsString              0044ad34     v5subs:ftiiclas.obj
 0003:00001d36       _HChar                     0044ad36     v5subs:ftiiclas.obj
 0003:00001d37       _MinusChar                 0044ad37     v5subs:ftiiclas.obj
 0003:00001d38       _OrHexString               0044ad38     v5subs:ftiiclas.obj
 0003:00001d3b       _PoundChar                 0044ad3b     v5subs:ftiiclas.obj
 0003:00001d3c       _HString                   0044ad3c     v5subs:ftiiclas.obj
 0003:00001d3e       _OrChar                    0044ad3e     v5subs:ftiiclas.obj
 0003:00001d3f       _SpaceChar                 0044ad3f     v5subs:ftiiclas.obj
 0003:00001d40       _VString                   0044ad40     v5subs:ftiiclas.obj
 0003:00001d42       _TabChar                   0044ad42     v5subs:ftiiclas.obj
 0003:00001d44       _Bit30                     0044ad44     v5subs:ftiiclas.obj
 0003:00001d48       _Bit31                     0044ad48     v5subs:ftiiclas.obj
 0003:00001d4c       _HighMask                  0044ad4c     v5subs:ftiiclas.obj
 0003:00001d50       _LowMask                   0044ad50     v5subs:ftiiclas.obj
 0003:00001d58       _types                     0044ad58     v5subs:ftiiclas.obj
 0003:00001f58       _CommaChar                 0044af58     v5subs:ftii_shot_data.obj
 0003:00001f59       _YChar                     0044af59     v5subs:ftii_shot_data.obj
 0003:00001f5c       _CommaString               0044af5c     v5subs:ftii_shot_data.obj
 0003:00001f5e       _BackslashChar             0044af5e     v5subs:dstat.obj
 0003:00001f60       _CommaChar                 0044af60     v5subs:ftanalog.obj
 0003:00001f64       _CommaString               0044af64     v5subs:ftanalog.obj
 0003:00001f68       _ZeroString                0044af68     v5subs:ftanalog.obj
 0003:00001f6c       _ZeroPointZero             0044af6c     v5subs:ftanalog.obj
 0003:00001f70       _OnePointZeroString        0044af70     v5subs:ftanalog.obj
 0003:00001f74       _ZeroString                0044af74     v5subs:runlist.obj
 0003:00001f80       _Description               0044af80     v5subs:shot_name.obj
 0003:00001f8c       _DefaultValue              0044af8c     v5subs:shot_name.obj
 0003:00001f98       _ExternalShotNameDescription 0044af98     v5subs:shot_name.obj
 0003:00001fa4       _ExternalShotNameDefaultValue 0044afa4     v5subs:shot_name.obj
 0003:00001fb0       _AChar                     0044afb0     v5subs:shot_name.obj
 0003:00001fb1       _AsterixChar               0044afb1     v5subs:shot_name.obj
 0003:00001fb2       _LeftCurlyBracket          0044afb2     v5subs:shot_name.obj
 0003:00001fb3       _RightCurlyBracket         0044afb3     v5subs:shot_name.obj
 0003:00001fb4       _PChar                     0044afb4     v5subs:shot_name.obj
 0003:00001fb5       _PCharLow                  0044afb5     v5subs:shot_name.obj
 0003:00001fb6       _SChar                     0044afb6     v5subs:shot_name.obj
 0003:00001fb7       _SCharLow                  0044afb7     v5subs:shot_name.obj
 0003:00001fb8       _SpaceChar                 0044afb8     v5subs:shot_name.obj
 0003:00001fb9       _ZChar                     0044afb9     v5subs:shot_name.obj
 0003:00001fba       _ZeroChar                  0044afba     v5subs:shot_name.obj
 0003:00001fbc       ?pattern@?1??shot_number_length@SHOT_NAME_CLASS@@QAEHXZ@4PADA 0044afbc     v5subs:shot_name.obj
 0003:00001fc0       ?ConfigSection@?1??get@EXTERNAL_SHOT_NAME_CLASS@@QAEHXZ@4PADA 0044afc0     v5subs:shot_name.obj
 0003:00001fc8       ?GettingShotNameFromFileKey@?1??get@EXTERNAL_SHOT_NAME_CLASS@@QAEHXZ@4PADA 0044afc8     v5subs:shot_name.obj
 0003:00001fe0       ?GetShotNameCommandKey@?1??get@EXTERNAL_SHOT_NAME_CLASS@@QAEHXZ@4PADA 0044afe0     v5subs:shot_name.obj
 0003:00001ff4       ?MonallIniFile@?1??get@EXTERNAL_SHOT_NAME_CLASS@@QAEHXZ@4PADA 0044aff4     v5subs:shot_name.obj
 0003:00002000       ?ShotNameFileKey@?1??get@EXTERNAL_SHOT_NAME_CLASS@@QAEHXZ@4PADA 0044b000     v5subs:shot_name.obj
 0003:0000200d       _SpaceChar                 0044b00d     v5subs:downsubs.obj
 0003:0000200e       _TabChar                   0044b00e     v5subs:downsubs.obj
 0003:00002010       _AChar                     0044b010     v5subs:ftii_parameters.obj
 0003:00002011       _PChar                     0044b011     v5subs:ftii_parameters.obj
 0003:00002014       _IstName                   0044b014     v5subs:ftii_parameters.obj
 0003:00002018       ?firstime@?1??calculate_ftii_parameters@@YAPANAAVFTII_PROFILE@@AAVMACHINE_CLASS@@AAVPART_CLASS@@AAVPARAMETER_CLASS@@AAVANALOG_SENSOR@@AAVFTANALOG_CLASS@@AAVFTCALC_CLASS@@@Z@4_NA 0044b018     v5subs:ftii_parameters.obj
 0003:0000201c       ?epi_skip_count@?1??calculate_ftii_parameters@@YAPANAAVFTII_PROFILE@@AAVMACHINE_CLASS@@AAVPART_CLASS@@AAVPARAMETER_CLASS@@AAVANALOG_SENSOR@@AAVFTANALOG_CLASS@@AAVFTCALC_CLASS@@@Z@4HA 0044b01c     v5subs:ftii_parameters.obj
 0003:00002020       _BackSlashChar             0044b020     v5subs:path.obj
 0003:00002021       _ColonChar                 0044b021     v5subs:path.obj
 0003:00002024       _BackSlashString           0044b024     v5subs:path.obj
 0003:00002028       _ExeString                 0044b028     v5subs:path.obj
 0003:00002030       _ExeStringLength           0044b030     v5subs:path.obj
 0003:00002034       _Description               0044b034     v5subs:shot_name_reset.obj
 0003:00002040       _DefaultValue              0044b040     v5subs:shot_name_reset.obj
 0003:0000204c       _AChar                     0044b04c     v5subs:shot_name_reset.obj
 0003:0000204d       _AsterixChar               0044b04d     v5subs:shot_name_reset.obj
 0003:0000204e       _LeftCurlyBracket          0044b04e     v5subs:shot_name_reset.obj
 0003:0000204f       _RightCurlyBracket         0044b04f     v5subs:shot_name_reset.obj
 0003:00002050       _SChar                     0044b050     v5subs:shot_name_reset.obj
 0003:00002051       _SCharLow                  0044b051     v5subs:shot_name_reset.obj
 0003:00002052       _ZChar                     0044b052     v5subs:shot_name_reset.obj
 0003:00002053       _ZeroChar                  0044b053     v5subs:shot_name_reset.obj
 0003:00002054       ?all_profiles@?1??purge_shot_data@@YAXAAVSTRING_CLASS@@00@Z@4PADA 0044b054     v5subs:purge.obj
 0003:0000205c       _UnknownWorker             0044b05c     v5subs:workclas.obj
 0003:00002064       _RoutinesFile              0044b064     v5subs:error_ms.obj
 0003:00002074       _ErrMsgFile                0044b074     v5subs:error_ms.obj
 0003:00002084       _FtErrMsgFile              0044b084     v5subs:error_ms.obj
 0003:00002091       _NullChar                  0044b091     v5subs:is_empty.obj
 0003:000020a0       _CommaChar                 0044b0a0     v5subs:wire_class.obj
 0003:000020a8       _DefaultWireList           0044b0a8     v5subs:wire_class.obj
 0003:000022a8       ?ic@?1??dups_to_vu@@YANFF@Z@4PANA 0044b2a8     v5subs:unitadj.obj
 0003:000022c8       ?ft@?1??dups_to_vu@@YANFF@Z@4PANA 0044b2c8     v5subs:unitadj.obj
 0003:000022e8       ?mm@?1??dups_to_vu@@YANFF@Z@4PANA 0044b2e8     v5subs:unitadj.obj
 0003:00002308       ?cm@?1??dups_to_vu@@YANFF@Z@4PANA 0044b308     v5subs:unitadj.obj
 0003:00002328       _StarDotStar               0044b328     v5subs:killdir.obj
 0003:00002340       _errtable                  0044b340     LIBCMT:dosmap.obj
 0003:000024a8       _ErrnoNoMem                0044b4a8     LIBCMT:dosmap.obj
 0003:000024ac       _DoserrorNoMem             0044b4ac     LIBCMT:dosmap.obj
 0003:000024b0       _NAME_                     0044b4b0     LIBCMT:sqrt.obj
 0003:000024fc       ?isPackaged@?1??__crtIsPackagedApp@@9@9 0044b4fc     LIBCMT:winapisupp.obj
 0003:00002968       ___rgctypeflag             0044b968     LIBCMT:mbctype.obj
 0003:00002970       ___rgcode_page_info        0044b970     LIBCMT:mbctype.obj
 0003:00002ca8       __ctype_loc_style          0044bca8     LIBCMT:wsetloca.obj
 0003:00002cac       _newcw                     0044bcac     LIBCMT:floor.obj
 0003:00002cb0       ?_names@?1??_get_fname@@9@9 0044bcb0     LIBCMT:fpexcept.obj
 0003:00002da0       _newcw                     0044bda0     LIBCMT:ceil.obj
 0003:00002dd0       _over                      0044bdd0     LIBCMT:fpctrl.obj
 0003:00002ddc       _under                     0044bddc     LIBCMT:fpctrl.obj
 0003:00002de8       ?__DAZ_ENABLED@?1??__set_fpsr_sse2@@9@9 0044bde8     LIBCMT:fpctrl.obj
 0003:00002df0       __locktable                0044bdf0     LIBCMT:mlock.obj
 0003:00003190       _DoubleFormat              0044c190     LIBCMT:intrncvt.obj
 0003:000031a8       _FloatFormat               0044c1a8     LIBCMT:intrncvt.obj
 0003:00003623       _HaveValveMasterData       0044c623     ft2.obj
 0003:000036f0       _ToolTipWindow             0044c6f0     ft2.obj
 0003:000036f8       _ValveMasterMin            0044c6f8     ft2.obj
 0003:000036fc       _ValveTestMin              0044c6fc     ft2.obj
 0003:00003700       _HasPressureControl        0044c700     ft2.obj
 0003:00003701       _SendingBoardVariableRequests 0044c701     ft2.obj
 0003:00003702       _ShowDifOnly               0044c702     ft2.obj
 0003:00003703       _WaitingToResume           0044c703     ft2.obj
 0003:00003704       _CurrentListIndex          0044c704     ft2.obj
 0003:0000370c       _CurrentBoardVariable      0044c70c     ft2.obj
 0003:00003710       _Start_Shot_Tbox_Handle    0044c710     ft2.obj
 0003:00003714       _Follow_Thru_Tbox_Handle   0044c714     ft2.obj
 0003:00003718       _Retract_Tbox_Handle       0044c718     ft2.obj
 0003:0000371c       _HIRES_SENSOR_START_SHOT_WIRE_INDEX 0044c71c     ft2.obj
 0003:00003720       _CurrentPasswordLevel      0044c720     ft2.obj
 0003:00003724       _ServiceToolsGrayLevel     0044c724     ft2.obj
 0003:00003728       _HiresSensorPeriodMs       0044c728     ft2.obj
 0003:0000373c       _HiresSensorStartShotWire  0044c73c     ft2.obj
 0003:00003740       _HiresSensorFollowThruWire 0044c740     ft2.obj
 0003:00003744       _HiresSensorRetractWire    0044c744     ft2.obj
 0003:00003748       _ClosingAfterRemote        0044c748     ft2.obj
 0003:00003749       _ShutdownAnyway            0044c749     ft2.obj
 0003:0000374a       _NeedToCloseMainWindow     0044c74a     ft2.obj
 0003:0000374b       _UpdatingControlModsDialog 0044c74b     ft2.obj
 0003:0000374c       _SwitchChannelsXbox        0044c74c     ft2.obj
 0003:00003750       _AbortedMachineNameTbox    0044c750     ft2.obj
 0003:00003754       _MyMonitorSetupCount       0044c754     ft2.obj
 0003:00003758       _GreenBackgroundBrush      0044c758     ft2.obj
 0003:0000375c       _OrangeBackgroundBrush     0044c75c     ft2.obj
 0003:00003760       _RedBackgroundBrush        0044c760     ft2.obj
 0003:00003764       _Max_Position              0044c764     ft2.obj
 0003:00003768       _Max_Velocity              0044c768     ft2.obj
 0003:0000376c       _Control_Status            0044c76c     ft2.obj
 0003:00003770       _Monitor_Status            0044c770     ft2.obj
 0003:00003774       _LastInputBits             0044c774     ft2.obj
 0003:00003778       _LastOutputBits            0044c778     ft2.obj
 0003:0000377c       _NULL_DAC_INDEX            0044c77c     ft2.obj
 0003:00003780       _AnalogValue               0044c780     ft2.obj
 0003:000037e0       _OptoMode                  0044c7e0     ft2.obj
 0003:000037e2       _UpdatingSetDacScreen      0044c7e2     ft2.obj
 0003:000037e3       _UpdatingValveTestScreen   0044c7e3     ft2.obj
 0003:000037e4       _UsingValveTestOutput      0044c7e4     ft2.obj
 0003:000037e5       _UsingNullValveOutput      0044c7e5     ft2.obj
 0003:000037f4       _TopOfListBox              0044c7f4     ft2.obj
 0003:000037f8       _MainClientWidth           0044c7f8     ft2.obj
 0003:00003859       _UsingAltStep              0044c859     ft2.obj
 0003:00003b54       _InputOpto                 0044cb54     ft2.obj
 0003:00003b74       _OutputOpto                0044cb74     ft2.obj
 0003:00003b98       _TestAlarmOpto             0044cb98     ft2.obj
 0003:00003dc0       _WireString                0044cdc0     ft2.obj
 0003:00003dc8       _StartScreen               0044cdc8     ft2.obj
 0003:00003dd0       _AutoBack                  0044cdd0     ft2.obj
 0003:00003ddc       _ErrorLog                  0044cddc     ft2.obj
 0003:00003e00       _ExternalParameterFifo     0044ce00     ft2.obj
 0003:00003e24       _CVLb                      0044ce24     ft2.obj
 0003:00003e38       _BoardVariable             0044ce38     ft2.obj
 0003:00005e38       _BoardVariableDescription  0044ee38     ft2.obj
 0003:00006e48       _AltStepNum                0044fe48     ft2.obj
 0003:00006e50       _AltStepEnd                0044fe50     ft2.obj
 0003:00006e58       _AltStepVel                0044fe58     ft2.obj
 0003:00006e60       _AltStepAcc                0044fe60     ft2.obj
 0003:00006e68       _AltStepPos                0044fe68     ft2.obj
 0003:00006e70       _AltStepVelPrefix          0044fe70     ft2.obj
 0003:00006e78       _AltStepAccPrefix          0044fe78     ft2.obj
 0003:00006e80       _AltStepPosPrefix          0044fe80     ft2.obj
 0003:00006e88       _ParkStepNum               0044fe88     ft2.obj
 0003:00006e90       _ParkStep2Num              0044fe90     ft2.obj
 0003:00006e98       _ParkStepVolts             0044fe98     ft2.obj
 0003:00006ea0       _ParkStepVoltsPrefix       0044fea0     ft2.obj
 0003:00006ea8       _StartStepNum              0044fea8     ft2.obj
 0003:00006eb0       _StartStepVolts            0044feb0     ft2.obj
 0003:00006eb8       _StartStepVoltsPrefix      0044feb8     ft2.obj
 0003:00006f94       _CmdString                 0044ff94     ft2.obj
 0003:00006f9c       _LvdtString                0044ff9c     ft2.obj
 0003:00006fa4       _MeasString                0044ffa4     ft2.obj
 0003:00006fac       _MonitorStatusControl      0044ffac     ft2.obj
 0003:00007088       _ValveMasterData           00450088     ft2.obj
 0003:00008fc8       _ValveTestData             00451fc8     ft2.obj
 0003:0000af08       ?f@?1??write_log@@YAXPAD@Z@4VFILE_CLASS@@A 00453f08     ft2.obj
 0003:0000af2c       ?$S1@?1??write_log@@YAXPAD@Z@4IA 00453f2c     ft2.obj
 0003:0000af30       ?t@?1??write_log@@YAXPAD@Z@4VTIME_CLASS@@A 00453f30     ft2.obj
 0003:0000af34       ?s@?1??write_log@@YAXPAD@Z@4VSTRING_CLASS@@A 00453f34     ft2.obj
 0003:0000af3c       ?cp@?1??write_log@@YAXPAD@Z@4PADA 00453f3c     ft2.obj
 0003:0000af40       ?t@?1??push_log_message@@YAXPAD@Z@4VTIME_CLASS@@A 00453f40     ft2.obj
 0003:0000af44       ?$S2@?1??push_log_message@@YAXPAD@Z@4IA 00453f44     ft2.obj
 0003:0000af48       ?s@?1??push_log_message@@YAXPAD@Z@4VSTRING_CLASS@@A 00453f48     ft2.obj
 0003:0000af50       ?lastcommand@?1??edit_control_proc@@YGJPAUHWND__@@IIJ@Z@4VSTRING_CLASS@@A 00453f50     ft2.obj
 0003:0000af58       ?$S3@?1??edit_control_proc@@YGJPAUHWND__@@IIJ@Z@4IA 00453f58     ft2.obj
 0003:0000af5c       ?s@?1??edit_control_proc@@YGJPAUHWND__@@IIJ@Z@4VSTRING_CLASS@@A 00453f5c     ft2.obj
 0003:0000af64       ?new_is_diagnostic_window@?1??set_current_window@@YAXAAVWINDOW_CLASS@@@Z@4_NA 00453f64     ft2.obj
 0003:0000af65       ?current_is_diagnostic_window@?1??set_current_window@@YAXAAVWINDOW_CLASS@@@Z@4_NA 00453f65     ft2.obj
 0003:0000af68       ?mybuf@?1??get_ascii_rt_data@@YAXJ@Z@4PADA 00453f68     ft2.obj
 0003:0000b000       ?sc@?1??get_ascii_rt_data@@YAXJ@Z@4VSTRING_CLASS@@A 00454000     ft2.obj
 0003:0000b008       ?$S4@?1??get_ascii_rt_data@@YAXJ@Z@4IA 00454008     ft2.obj
 0003:0000b00c       ?NcButtonDown@?1??terminal_proc@@YGJPAUHWND__@@IIJ@Z@4EA 0045400c     ft2.obj
 0003:0000b00d       ?Moving@?1??terminal_proc@@YGJPAUHWND__@@IIJ@Z@4EA 0045400d     ft2.obj
 0003:0000b010       ?id@?1??terminal_proc@@YGJPAUHWND__@@IIJ@Z@4HA 00454010     ft2.obj
 0003:0000b014       ?cmd@?1??terminal_proc@@YGJPAUHWND__@@IIJ@Z@4HA 00454014     ft2.obj
 0003:0000b018       ?id@?1??upload_aborted_dialog_proc@@YGHPAUHWND__@@IIJ@Z@4HA 00454018     ft2.obj
 0003:0000b01c       ?s@?1??send_command_to_current_machine@@YAXPAD_N@Z@4VSTRING_CLASS@@A 0045401c     ft2.obj
 0003:0000b024       ?$S5@?1??send_command_to_current_machine@@YAXPAD_N@Z@4IA 00454024     ft2.obj
 0003:0000b028       ?id@?1??deactivate_control_dialog_proc@@YGHPAUHWND__@@IIJ@Z@4HA 00454028     ft2.obj
 0003:0000b02c       ?id@?1??choose_monitor_machine_dialog_proc@@YGHPAUHWND__@@IIJ@Z@4HA 0045402c     ft2.obj
 0003:0000b030       ?i@?1??do_new_set_null_values@@YAXXZ@4HA 00454030     ft2.obj
 0003:0000b034       ?ns@?1??do_new_set_null_values@@YAXXZ@4VSTRING_CLASS@@A 00454034     ft2.obj
 0003:0000b03c       ?$S6@?1??do_new_set_null_values@@YAXXZ@4IA 0045403c     ft2.obj
 0003:0000b040       ?w@?1??do_new_set_null_values@@YAXXZ@4PAUHWND__@@A 00454040     ft2.obj
 0003:0000b044       ?x@?1??do_new_set_null_values@@YAXXZ@4IA 00454044     ft2.obj
 0003:0000b048       ?id@?1??set_null_dialog_proc@@YGHPAUHWND__@@IIJ@Z@4HA 00454048     ft2.obj
 0003:0000b04c       ?ns@?1??do_new_set_dac_values@@YAXXZ@4VSTRING_CLASS@@A 0045404c     ft2.obj
 0003:0000b054       ?$S7@?1??do_new_set_dac_values@@YAXXZ@4IA 00454054     ft2.obj
 0003:0000b058       ?os@?1??do_new_set_dac_values@@YAXXZ@4VSTRING_CLASS@@A 00454058     ft2.obj
 0003:0000b060       ?wc@?1??do_new_set_dac_values@@YAXXZ@4VWINDOW_CLASS@@A 00454060     ft2.obj
 0003:0000b068       ?w@?1??do_new_set_dac_values@@YAXXZ@4PAUHWND__@@A 00454068     ft2.obj
 0003:0000b06c       ?i@?1??do_new_set_dac_values@@YAXXZ@4HA 0045406c     ft2.obj
 0003:0000b070       ?d@?1??do_new_set_dac_values@@YAXXZ@4NA 00454070     ft2.obj
 0003:0000b078       ?x@?1??do_new_set_dac_values@@YAXXZ@4IA 00454078     ft2.obj
 0003:0000b07c       ?last_id@?1??send_test_message@@YAXH@Z@4HA 0045407c     ft2.obj
 0003:0000b080       ?id@?1??set_dac_dialog_proc@@YGHPAUHWND__@@IIJ@Z@4HA 00454080     ft2.obj
 0003:0000b084       ?cmd@?1??set_dac_dialog_proc@@YGHPAUHWND__@@IIJ@Z@4HA 00454084     ft2.obj
 0003:0000b088       ?buf@?1??ft2_volts_toascii@@YAPADPAD@Z@4PADA 00454088     ft2.obj
 0003:0000b090       ?buf@?1??ascii_volts_to_ft2_volts@@YAPADPAD@Z@4PADA 00454090     ft2.obj
 0003:0000b098       ?buf@?1??alt_step_text@@YAPADXZ@4PADA 00454098     ft2.obj
 0003:0000b0fc       ?my_machine@?1??check_for_new_board@@YAXXZ@4VSTRING_CLASS@@A 004540fc     ft2.obj
 0003:0000b104       ?$S8@?1??check_for_new_board@@YAXXZ@4IA 00454104     ft2.obj
 0003:0000b108       ?timer_id@?1??valve_test_dialog_proc@@YGHPAUHWND__@@IIJ@Z@4IA 00454108     ft2.obj
 0003:0000b10c       ?s@?1??log_input_bits@@YAXXZ@4VSTRING_CLASS@@A 0045410c     ft2.obj
 0003:0000b114       ?$S9@?1??log_input_bits@@YAXXZ@4IA 00454114     ft2.obj
 0003:0000b118       ?s@?1??log_output_bits@@YAXXZ@4VSTRING_CLASS@@A 00454118     ft2.obj
 0003:0000b120       ?$S10@?1??log_output_bits@@YAXXZ@4IA 00454120     ft2.obj
 0003:0000b124       ?ns@?1??do_new_current_values@@YAXXZ@4VSTRING_CLASS@@A 00454124     ft2.obj
 0003:0000b12c       ?$S11@?1??do_new_current_values@@YAXXZ@4IA 0045412c     ft2.obj
 0003:0000b130       ?os@?1??do_new_current_values@@YAXXZ@4VSTRING_CLASS@@A 00454130     ft2.obj
 0003:0000b138       ?wc@?1??do_new_current_values@@YAXXZ@4VWINDOW_CLASS@@A 00454138     ft2.obj
 0003:0000b140       ?w@?1??do_new_current_values@@YAXXZ@4PAUHWND__@@A 00454140     ft2.obj
 0003:0000b144       ?i@?1??do_new_current_values@@YAXXZ@4HA 00454144     ft2.obj
 0003:0000b148       ?chan@?1??do_new_current_values@@YAXXZ@4HA 00454148     ft2.obj
 0003:0000b14c       ?x@?1??do_new_current_values@@YAXXZ@4IA 0045414c     ft2.obj
 0003:0000b150       ?d@?1??do_new_current_values@@YAXXZ@4NA 00454150     ft2.obj
 0003:0000b158       ?should_be_visible@?1??do_new_current_values@@YAXXZ@4_NA 00454158     ft2.obj
 0003:0000b159       ?show_channels_17_20@?1??do_new_current_values@@YAXXZ@4EA 00454159     ft2.obj
 0003:0000b15c       ?channel_mode@?1??do_new_current_values@@YAXXZ@4HA 0045415c     ft2.obj
 0003:0000b160       ?cmdchan@?1??do_new_current_values@@YAXXZ@4HA 00454160     ft2.obj
 0003:0000b164       ?lvdtchan@?1??do_new_current_values@@YAXXZ@4HA 00454164     ft2.obj
 0003:0000b168       ?s@?1??do_new_current_values@@YAXXZ@4VSTRING_CLASS@@A 00454168     ft2.obj
 0003:0000b170       ?logs@?1??do_new_current_values@@YAXXZ@4VSTRING_CLASS@@A 00454170     ft2.obj
 0003:0000b178       ?Last_Osw1@?1??do_new_alarm_output_values@@YAXXZ@4IA 00454178     ft2.obj
 0003:0000b17c       ?s@?1??test_alarm_outputs_dialog_proc@@YGHPAUHWND__@@IIJ@Z@4VSTRING_CLASS@@A 0045417c     ft2.obj
 0003:0000b184       ?$S12@?1??test_alarm_outputs_dialog_proc@@YGHPAUHWND__@@IIJ@Z@4IA 00454184     ft2.obj
 0003:0000b188       ?error_log_tbox_handle@?1??current_values_dialog_proc@@YGHPAUHWND__@@IIJ@Z@4PAU2@A 00454188     ft2.obj
 0003:0000b18c       ?id@?1??current_values_dialog_proc@@YGHPAUHWND__@@IIJ@Z@4HA 0045418c     ft2.obj
 0003:0000b190       ?s@?1??current_values_dialog_proc@@YGHPAUHWND__@@IIJ@Z@4VSTRING_CLASS@@A 00454190     ft2.obj
 0003:0000b198       ?$S13@?1??current_values_dialog_proc@@YGHPAUHWND__@@IIJ@Z@4IA 00454198     ft2.obj
 0003:0000b19c       ?w@?1??current_values_dialog_proc@@YGHPAUHWND__@@IIJ@Z@4PAU2@A 0045419c     ft2.obj
 0003:0000b1a0       ?s@?1??send_data_server_shot_notification@@YAXPAD0@Z@4VSTRING_CLASS@@A 004541a0     ft2.obj
 0003:0000b1a8       ?$S14@?1??send_data_server_shot_notification@@YAXPAD0@Z@4IA 004541a8     ft2.obj
 0003:0000b1ac       ?cmd@?1??main_proc@@YGJPAUHWND__@@IIJ@Z@4HA 004541ac     ft2.obj
 0003:0000b1b0       ?id@?1??main_proc@@YGJPAUHWND__@@IIJ@Z@4HA 004541b0     ft2.obj
 0003:0000b1b4       ?s1@?1??main_proc@@YGJPAUHWND__@@IIJ@Z@4VSTRING_CLASS@@A 004541b4     ft2.obj
 0003:0000b1bc       ?$S15@?1??main_proc@@YGJPAUHWND__@@IIJ@Z@4IA 004541bc     ft2.obj
 0003:0000b1c0       _SendEvent                 004541c0     board_monitor.obj
 0003:0000b1c4       _NewDataEvent              004541c4     board_monitor.obj
 0003:0000b1c8       _Wsa_Is_Started            004541c8     board_monitor.obj
 0003:0000b1c9       _Read_Thread_Is_Running    004541c9     board_monitor.obj
 0003:0000b1ca       _ShuttingDown              004541ca     board_monitor.obj
 0003:0000b1d4       _ReceivedAcks              004541d4     board_monitor.obj
 0003:0000b1f8       _AckList                   004541f8     board_monitor.obj
 0003:0000b21c       _NewData                   0045421c     board_monitor.obj
 0003:0000b240       _SocketMessageStore        00454240     board_monitor.obj
 0003:0000b264       _AckMessageStore           00454264     board_monitor.obj
 0003:0000b288       _StdDown                   00454288     board_monitor.obj
 0003:0000b294       _MyAddress                 00454294     board_monitor.obj
 0003:0000b2a4       ?CycleStartIsVisible@?1??update_monitor_status@@YAXPAVFTII_BOARD_ENTRY@@PAD@Z@4EA 004542a4     board_monitor.obj
 0003:0000b2a8       ?empty@?1???ABOARD_EXTENDED_ANALOG_ARRAY@@QAEAAUBOARD_EXTENDED_ANALOG_ENTRY@@H@Z@4U2@A 004542a8     board_monitor.obj
 0003:0000b2bc       ?$S1@?1???ABOARD_EXTENDED_ANALOG_ARRAY@@QAEAAUBOARD_EXTENDED_ANALOG_ENTRY@@H@Z@4IA 004542bc     board_monitor.obj
 0003:0000b2c0       ?opnumber@?1??current_operator@@YAPADAAVSTRING_CLASS@@0@Z@4PADA 004542c0     board_monitor.obj
 0003:0000b2cc       ?InputOnBackgroundBrush@?1??AutoShotDisplayProc@@YGHPAUHWND__@@IIJ@Z@4PAUHBRUSH__@@A 004542cc     board_monitor.obj
 0003:0000b2d0       ?s@?1??continue_connecting_one_board@@YAXH@Z@4VSTRING_CLASS@@A 004542d0     board_monitor.obj
 0003:0000b2d8       ?$S3@?1??continue_connecting_one_board@@YAXH@Z@4IA 004542d8     board_monitor.obj
 0003:0000b2dc       ?finished@?1??new_data_thread@@YAXPAX@Z@4_NA 004542dc     board_monitor.obj
 0003:0000b2e0       ?last_check_time@?1??send_thread@@YAXPAX@Z@4IA 004542e0     board_monitor.obj
 0003:0000b2e8       _EosOnlyIfNoAlarms         004542e8     shotsave.obj
 0003:0000b2e9       _SaveAllAlarmShots         004542e9     shotsave.obj
 0003:0000b2ea       _EosAsciiToSerial          004542ea     shotsave.obj
 0003:0000b2eb       _EosNeedsStxEtx            004542eb     shotsave.obj
 0003:0000b2ec       _SerialFile                004542ec     shotsave.obj
 0003:0000b2f0       _EosComPort                004542f0     shotsave.obj
 0003:0000b2f4       _EosComSetup               004542f4     shotsave.obj
 0003:0000b2f8       _EosHaveAlarmShot          004542f8     shotsave.obj
 0003:0000b2fc       _EosHaveWarningShot        004542fc     shotsave.obj
 0003:0000b300       _EosHaveGoodShot           00454300     shotsave.obj
 0003:0000b304       _EosHaveAlarmParameter     00454304     shotsave.obj
 0003:0000b308       _EosHaveWarningParameter   00454308     shotsave.obj
 0003:0000b30c       _EosHaveGoodParameter      0045430c     shotsave.obj
 0003:0000b310       _EosMachineName            00454310     shotsave.obj
 0003:0000b314       _EosOutputFile             00454314     shotsave.obj
 0003:0000b318       _EosOutputFileSetup        00454318     shotsave.obj
 0003:0000b31c       _EosFixedWidth             0045431c     shotsave.obj
 0003:0000b320       _EosPyramidLines           00454320     shotsave.obj
 0003:0000b324       _EosEndFile                00454324     shotsave.obj
 0003:0000b32c       _EosStartFile              0045432c     shotsave.obj
 0003:0000b340       _ShowParam                 00454340     shotsave.obj
 0003:0000b3b8       ?AnalogSensor@?1??write_std_units_csv_file@@YAEAAVSTRING_CLASS@@PAUSHOT_BUFFER_ENTRY@@@Z@4VANALOG_SENSOR@@A 004543b8     shotsave.obj
 0003:0000b3bc       ?$S2@?1??write_std_units_csv_file@@YAEAAVSTRING_CLASS@@PAUSHOT_BUFFER_ENTRY@@@Z@4IA 004543bc     shotsave.obj
 0003:0000b3c0       ?current_index@?1??save_all_shots@@YAXXZ@4HA 004543c0     shotsave.obj
 0003:0000b3d0       ?mse@?1??find@@YAPAUMACH_SKIP_ENTRY@@AAVSTRING_CLASS@@@Z@4PAU2@A 004543d0     skip.obj
 0003:0000b3d8       _DriveName                 004543d8     v5subs:exists.obj
 0003:0000b3dc       ?s@?1??ascii_double@@YAPADN@Z@4PADA 004543dc     v5subs:ascfloat.obj
 0003:0000b405       _NullChar                  00454405     v5subs:extract.obj
 0003:0000b408       ?s@?1??int32toasc@@YAPADJ@Z@4PADA 00454408     v5subs:itoasc.obj
 0003:0000b41c       ?s@?1??ultoascii@@YAPADKK@Z@4PADA 0045441c     v5subs:itoasc.obj
 0003:0000b430       _NullChar                  00454430     v5subs:stringcl.obj
 0003:0000b434       _NullChar                  00454434     v5subs:nameclas.obj
 0003:0000b438       _EmptyString               00454438     v5subs:nameclas.obj
 0003:0000b440       _MyComputer                00454440     v5subs:nameclas.obj
 0003:0000b448       _SensorArray               00454448     v5subs:asensor.obj
 0003:0000b44c       _NofSensors                0045444c     v5subs:asensor.obj
 0003:0000b450       _EmptySensor               00454450     v5subs:asensor.obj
 0003:0000b49c       _CNullChar                 0045449c     v5subs:fileclas.obj
 0003:0000b49d       _NullChar                  0045449d     v5subs:fileclas.obj
 0003:0000b4a0       _NullString                004544a0     v5subs:fileclas.obj
 0003:0000b4a4       _NullChar                  004544a4     v5subs:computer.obj
 0003:0000b4a8       _First                     004544a8     v5subs:computer.obj
 0003:0000b4ac       _MyComputer                004544ac     v5subs:computer.obj
 0003:0000b4b4       _NoComputer                004544b4     v5subs:computer.obj
 0003:0000b4bc       _NofComputers              004544bc     v5subs:computer.obj
 0003:0000b4c0       _NullChar                  004544c0     v5subs:iniclass.obj
 0003:0000b4c1       ?empty_string@?1??get_string@INI_CLASS@@QAEPADXZ@4PADA 004544c1     v5subs:iniclass.obj
 0003:0000b4c2       _EmptyString               004544c2     v5subs:listbox.obj
 0003:0000b4c4       _NullChar                  004544c4     v5subs:machname.obj
 0003:0000b4c8       _EmptyString               004544c8     v5subs:machname.obj
 0003:0000b4d0       _EmptyString               004544d0     v5subs:msgclas.obj
 0003:0000b4d4       _RedBrush                  004544d4     v5subs:optocontrol.obj
 0003:0000b4d8       _YellowBrush               004544d8     v5subs:optocontrol.obj
 0003:0000b4dc       _FontList                  004544dc     v5subs:optocontrol.obj
 0003:0000b4e0       _NullChar                  004544e0     v5subs:param.obj
 0003:0000b4e4       _NullChar                  004544e4     v5subs:setpoint.obj
 0003:0000b4e8       _empty_entry               004544e8     v5subs:setpoint.obj
 0003:0000b4f8       ?st@?1??system_time@TIME_CLASS@@QAEAAU_SYSTEMTIME@@XZ@4U3@A 004544f8     v5subs:timeclas.obj
 0003:0000b508       ?ft@?1??file_time@TIME_CLASS@@QAEAAU_FILETIME@@XZ@4U3@A 00454508     v5subs:timeclas.obj
 0003:0000b510       ?s@?1??text@TIME_CLASS@@QAEPADXZ@4PADA 00454510     v5subs:timeclas.obj
 0003:0000b524       ?s@?1??jjj@TIME_CLASS@@QAEPADXZ@4PADA 00454524     v5subs:timeclas.obj
 0003:0000b528       ?s@?1??mmddyyyy@TIME_CLASS@@QAEPADXZ@4PADA 00454528     v5subs:timeclas.obj
 0003:0000b534       ?s@?1??hhmmss@TIME_CLASS@@QAEPADXZ@4PADA 00454534     v5subs:timeclas.obj
 0003:0000b53d       _NullChar                  0045453d     v5subs:plookup.obj
 0003:0000b540       _BaseDir                   00454540     v5subs:stringtable.obj
 0003:0000b548       _DefaultLanguage           00454548     v5subs:stringtable.obj
 0003:0000b550       _FontList                  00454550     v5subs:stringtable.obj
 0003:0000b554       _Resources                 00454554     v5subs:stringtable.obj
 0003:0000b55c       _NullChar                  0045455c     v5subs:stpres.obj
 0003:0000b560       _NullChar                  00454560     v5subs:get_ini.obj
 0003:0000b568       _Buf                       00454568     v5subs:get_ini.obj
 0003:0000b969       _NullChar                  00454969     v5subs:mem.obj
 0003:0000b96c       _MyMainWindow              0045496c     v5subs:client.obj
 0003:0000b970       _EventList                 00454970     v5subs:client.obj
 0003:0000b97c       _ServerNameHandle          0045497c     v5subs:client.obj
 0003:0000b980       _DdeId                     00454980     v5subs:client.obj
 0003:0000b984       _ServerHandle              00454984     v5subs:client.obj
 0003:0000b988       ?s@?1??one_hot_link@@YAXPAUHCONV__@@FI@Z@4VSTRING_CLASS@@A 00454988     v5subs:client.obj
 0003:0000b990       ?$S1@?1??one_hot_link@@YAXPAUHCONV__@@FI@Z@4IA 00454990     v5subs:client.obj
 0003:0000b994       _NofDCurves                00454994     v5subs:dcurve.obj
 0003:0000b998       _DCurve                    00454998     v5subs:dcurve.obj
 0003:0000b99c       _EmptyString               0045499c     v5subs:execwait.obj
 0003:0000b9a0       _ExeDirectory              004549a0     v5subs:gexedir.obj
 0003:0000b9a8       _T                         004549a8     v5subs:semaphor.obj
 0003:0000b9df       _NullChar                  004549df     v5subs:fix.obj
 0003:0000b9e0       ?s@?1??fixed_string@@YAPADNJJ@Z@4PADA 004549e0     v5subs:ftoasc.obj
 0003:0000ba0c       ?s@?1??position_string@@YAPADN@Z@4PADA 00454a0c     v5subs:ftoasc.obj
 0003:0000ba38       ?s@?1??resource_string@@YAPADPAUHINSTANCE__@@I@Z@4PADA 00454a38     v5subs:winsubs.obj
 0003:0000bb38       _NullChar                  00454b38     v5subs:hex.obj
 0003:0000bb39       _NullChar                  00454b39     v5subs:insalph.obj
 0003:0000bb3c       ?s@?1??alphadate@@YAPADABU_SYSTEMTIME@@@Z@4PADA 00454b3c     v5subs:time.obj
 0003:0000bb48       ?s@?1??alphatime@@YAPADABU_SYSTEMTIME@@@Z@4PADA 00454b48     v5subs:time.obj
 0003:0000bb5a       _NullChar                  00454b5a     v5subs:shift.obj
 0003:0000bb5c       _EmptyString               00454b5c     v5subs:units.obj
 0003:0000bb60       _UnitsArray                00454b60     v5subs:units.obj
 0003:0000bb64       _NofUnits                  00454b64     v5subs:units.obj
 0003:0000bb68       _OldCursor                 00454b68     v5subs:hourglas.obj
 0003:0000bb6c       _RefCount                  00454b6c     v5subs:hourglas.obj
 0003:0000bb70       _TempMessageWindow         00454b70     v5subs:temp_message.obj
 0003:0000bb74       _TempMessage               00454b74     v5subs:temp_message.obj
 0003:0000bb78       _TempMessageLen            00454b78     v5subs:temp_message.obj
 0003:0000bb7c       _TempMessageTimeoutMs      00454b7c     v5subs:temp_message.obj
 0003:0000bb80       _CenterTempMessage         00454b80     v5subs:temp_message.obj
 0003:0000bb84       ?timer_id@?1??temp_message_proc@@YGJPAUHWND__@@IIJ@Z@4IA 00454b84     v5subs:temp_message.obj
 0003:0000bb88       _NullChar                  00454b88     v5subs:textlist.obj
 0003:0000bb8c       _BorderHeight              00454b8c     v5subs:menuctrl.obj
 0003:0000bb90       _BorderWidth               00454b90     v5subs:menuctrl.obj
 0003:0000bb94       _FontList                  00454b94     v5subs:menuctrl.obj
 0003:0000bb98       ?hex@?1??append_value@FTII_VAR@@QAE_NAAVSTRING_CLASS@@@Z@4PADA 00454b98     v5subs:ftiiclas.obj
 0003:0000bbab       _NullChar                  00454bab     v5subs:ftii_shot_data.obj
 0003:0000bbac       _EmptyString               00454bac     v5subs:ftii_shot_data.obj
 0003:0000bbb0       ?empty_double@?1???ADOUBLE_ARRAY_CLASS@@QAEAANJ@Z@4NA 00454bb0     v5subs:array.obj
 0003:0000bbb8       ?empty_int@?1???AINT_ARRAY_CLASS@@QAEAAHH@Z@4HA 00454bb8     v5subs:array.obj
 0003:0000bbbc       _EmptyString               00454bbc     v5subs:ftanalog.obj
 0003:0000bbc0       _Empty                     00454bc0     v5subs:runlist.obj
 0003:0000bbcc       _NullChar                  00454bcc     v5subs:shot_name.obj
 0003:0000bbcd       ?es@?1??cat@STDDOWN_CLASS@@QAEPADXZ@4PADA 00454bcd     v5subs:stddown.obj
 0003:0000bbce       ?es@?1??subcat@STDDOWN_CLASS@@QAEPADXZ@4PADA 00454bce     v5subs:stddown.obj
 0003:0000bbd0       ?name@?1??category_name@@YAPADPAD@Z@4PADA 00454bd0     v5subs:downsubs.obj
 0003:0000bbe0       ?number@?1??category_name@@YAPADPAD@Z@4PADA 00454be0     v5subs:downsubs.obj
 0003:0000bbe4       ?cat@?1??subcategory_name@@YAPADPAD0@Z@4PADA 00454be4     v5subs:downsubs.obj
 0003:0000bbe8       ?subcat@?1??subcategory_name@@YAPADPAD0@Z@4PADA 00454be8     v5subs:downsubs.obj
 0003:0000bbec       ?name@?1??subcategory_name@@YAPADPAD0@Z@4PADA 00454bec     v5subs:downsubs.obj
 0003:0000bbfc       _NullChar                  00454bfc     v5subs:path.obj
 0003:0000bc00       _NullChar                  00454c00     v5subs:shot_name_reset.obj
 0003:0000bc04       _MyEmptyString             00454c04     v5subs:shot_name_reset.obj
 0003:0000bc10       ?name@?1??dynamic_file_name@@YAPADAAVTIME_CLASS@@AAUPART_NAME_ENTRY@@PBD@Z@4PADA 00454c10     v5subs:dynamic_file_name.obj
 0003:0000bd18       ?s@?1??full_name@WORKER_LIST_CLASS@@QAEPADXZ@4PADA 00454d18     v5subs:workclas.obj
 0003:0000bd38       _Msg                       00454d38     v5subs:error_ms.obj
 0003:0000bd78       _OVERWRITE_EXISTING        00454d78     v5subs:callfile.obj
 0003:0000bd80       _GS_ExceptionRecord        00454d80     LIBCMT:gs_report.obj
 0003:0000bdd0       _GS_ContextRecord          00454dd0     LIBCMT:gs_report.obj
 0003:0000c09c       _DebuggerWasPresent        0045509c     LIBCMT:gs_report.obj
 0003:0000c0ec       ___type_info_root_node     004550ec     LIBCMT:typname.obj
 0003:0000c200       ?_pgmname@?1??_setargv@@9@9 00455200     LIBCMT:stdargv.obj
 0003:0000c310       ?outmsg@?9??_NMSG_WRITE@@9@9 00455310     LIBCMT:crt0msg.obj
 0003:0000c954       _fSystemSet                00455954     LIBCMT:mbctype.obj
 0003:0000c95c       __pmatherr_set             0045595c     LIBCMT:libm_error.obj
 0003:0000c968       _lclcritsects              00455968     LIBCMT:mlock.obj
 0003:0000cac0       _ctrlc_action              00455ac0     LIBCMT:winsig.obj
 0003:0000cac4       _ctrlbreak_action          00455ac4     LIBCMT:winsig.obj
 0003:0000cac8       _abort_action              00455ac8     LIBCMT:winsig.obj
 0003:0000cacc       _term_action               00455acc     LIBCMT:winsig.obj
 0003:0000cad0       _ConsoleCtrlHandler_Installed 00455ad0     LIBCMT:winsig.obj
 0003:0000cad4       _g_pfnRtlGenRandom         00455ad4     LIBCMT:rand_s.obj
 0003:0000cb08       _heap                      00455b08     LIBCMT:undname.obj
 0003:0000cb24       ?pfnMessageBox@?1??__crtMessageBoxW@@9@9 00455b24     LIBCMT:crtmboxw.obj
 0003:0000cb28       ?pfnGetActiveWindow@?1??__crtMessageBoxW@@9@9 00455b28     LIBCMT:crtmboxw.obj
 0003:0000cb2c       ?pfnGetLastActivePopup@?1??__crtMessageBoxW@@9@9 00455b2c     LIBCMT:crtmboxw.obj
 0003:0000cb30       ?pfnGetProcessWindowStation@?1??__crtMessageBoxW@@9@9 00455b30     LIBCMT:crtmboxw.obj
 0003:0000cb34       ?pfnGetUserObjectInformation@?1??__crtMessageBoxW@@9@9 00455b34     LIBCMT:crtmboxw.obj
 0003:0000cb40       ___crtCallProc             00455b40     LIBCMT:winapinls.obj
 0004:00000aa0       $R000000                   00457aa0     ft2.res
 0004:00000b48       $R0000A8                   00457b48     ft2.res
 0004:00000e70       $R0003D0                   00457e70     ft2.res
 0004:00002280       $R0017E0                   00459280     ft2.res
 0004:00002738       $R001C98                   00459738     ft2.res
 0004:00002998       $R001EF8                   00459998     ft2.res
 0004:000030c8       $R002628                   0045a0c8     ft2.res
 0004:000031f0       $R002750                   0045a1f0     ft2.res
 0004:000034d8       $R002A38                   0045a4d8     ft2.res
 0004:00003ad8       $R003038                   0045aad8     ft2.res
 0004:00003bd0       $R003130                   0045abd0     ft2.res
 0004:000041f0       $R003750                   0045b1f0     ft2.res
 0004:00004418       $R003978                   0045b418     ft2.res
 0004:000048f0       $R003E50                   0045b8f0     ft2.res
 0004:00004a30       $R003F90                   0045ba30     ft2.res
 0004:00004d48       $R0042A8                   0045bd48     ft2.res
 0004:00004ec0       $R004420                   0045bec0     ft2.res
 0004:00004f58       $R0044B8                   0045bf58     ft2.res
 0004:00004fb0       $R004510                   0045bfb0     ft2.res
 0004:00005170       $R0046D0                   0045c170     ft2.res
 0004:00005590       $R004AF0                   0045c590     ft2.res
 0004:00005758       $R004CB8                   0045c758     ft2.res
 0004:00005a40       $R004FA0                   0045ca40     ft2.res
 0004:00005b68       $R0050C8                   0045cb68     ft2.res
 0004:00005b90       $R0050F0                   0045cb90     ft2.res
 0004:00005bf0       $R005150                   0045cbf0     ft2.res
 0004:00005f78       $R0054D8                   0045cf78     ft2.res
 0004:000061a0       $R005700                   0045d1a0     ft2.res
 0004:00006470       $R0059D0                   0045d470     ft2.res
 0004:000066f8       $R005C58                   0045d6f8     ft2.res
 0004:000068b8       $R005E18                   0045d8b8     ft2.res
 0004:00006a80       $R005FE0                   0045da80     ft2.res
 0004:00006be0       $R006140                   0045dbe0     ft2.res
